
/home/alejandro/Escritorio/test_riscv2.5/riscv-compliance/work/rv32i_m/M/mul-01.elf:     formato del fichero elf32-littleriscv


Desensamblado de la sección .text.init:

00000000 <rvtest_entry_point>:
       0:	feedc0b7          	lui	ra,0xfeedc
       4:	ead08093          	add	ra,ra,-339 # feedbead <_end+0xfeed756d>
       8:	ff76e137          	lui	sp,0xff76e
       c:	f5610113          	add	sp,sp,-170 # ff76df56 <_end+0xff769616>
      10:	7fbb71b7          	lui	gp,0x7fbb7
      14:	fab18193          	add	gp,gp,-85 # 7fbb6fab <_end+0x7fbb266b>
      18:	bfddb237          	lui	tp,0xbfddb
      1c:	7d520213          	add	tp,tp,2005 # bfddb7d5 <_end+0xbfdd6e95>
      20:	00000297          	auipc	t0,0x0
      24:	0d828293          	add	t0,t0,216 # f8 <rvtest_code_begin>
      28:	00004317          	auipc	t1,0x4
      2c:	fd830313          	add	t1,t1,-40 # 4000 <rvtest_data_begin>
      30:	b7fbb3b7          	lui	t2,0xb7fbb
      34:	6fa38393          	add	t2,t2,1786 # b7fbb6fa <_end+0xb7fb6dba>
      38:	5bfde437          	lui	s0,0x5bfde
      3c:	b7d40413          	add	s0,s0,-1155 # 5bfddb7d <_end+0x5bfd923d>
      40:	adfef4b7          	lui	s1,0xadfef
      44:	dbe48493          	add	s1,s1,-578 # adfeedbe <_end+0xadfea47e>
      48:	56ff7537          	lui	a0,0x56ff7
      4c:	6df50513          	add	a0,a0,1759 # 56ff76df <_end+0x56ff2d9f>
      50:	ab7fc5b7          	lui	a1,0xab7fc
      54:	b6f58593          	add	a1,a1,-1169 # ab7fbb6f <_end+0xab7f722f>
      58:	d5bfe637          	lui	a2,0xd5bfe
      5c:	db760613          	add	a2,a2,-585 # d5bfddb7 <_end+0xd5bf9477>
      60:	eadff6b7          	lui	a3,0xeadff
      64:	edb68693          	add	a3,a3,-293 # eadfeedb <_end+0xeadfa59b>
      68:	f56ff737          	lui	a4,0xf56ff
      6c:	76d70713          	add	a4,a4,1901 # f56ff76d <_end+0xf56fae2d>
      70:	fab807b7          	lui	a5,0xfab80
      74:	bb678793          	add	a5,a5,-1098 # fab7fbb6 <_end+0xfab7b276>
      78:	7d5c0837          	lui	a6,0x7d5c0
      7c:	ddb80813          	add	a6,a6,-549 # 7d5bfddb <_end+0x7d5bb49b>
      80:	beae08b7          	lui	a7,0xbeae0
      84:	eed88893          	add	a7,a7,-275 # beadfeed <_end+0xbeadb5ad>
      88:	df570937          	lui	s2,0xdf570
      8c:	f7690913          	add	s2,s2,-138 # df56ff76 <_end+0xdf56b636>
      90:	6fab89b7          	lui	s3,0x6fab8
      94:	fbb98993          	add	s3,s3,-69 # 6fab7fbb <_end+0x6fab367b>
      98:	b7d5ca37          	lui	s4,0xb7d5c
      9c:	fdda0a13          	add	s4,s4,-35 # b7d5bfdd <_end+0xb7d5769d>
      a0:	dbeaeab7          	lui	s5,0xdbeae
      a4:	feea8a93          	add	s5,s5,-18 # dbeadfee <_end+0xdbea96ae>
      a8:	6df57b37          	lui	s6,0x6df57
      ac:	ff7b0b13          	add	s6,s6,-9 # 6df56ff7 <_end+0x6df526b7>
      b0:	b6fabbb7          	lui	s7,0xb6fab
      b4:	7fbb8b93          	add	s7,s7,2043 # b6fab7fb <_end+0xb6fa6ebb>
      b8:	db7d6c37          	lui	s8,0xdb7d6
      bc:	bfdc0c13          	add	s8,s8,-1027 # db7d5bfd <_end+0xdb7d12bd>
      c0:	edbebcb7          	lui	s9,0xedbeb
      c4:	dfec8c93          	add	s9,s9,-514 # edbeadfe <_end+0xedbe64be>
      c8:	76df5d37          	lui	s10,0x76df5
      cc:	6ffd0d13          	add	s10,s10,1791 # 76df56ff <_end+0x76df0dbf>
      d0:	bb6fbdb7          	lui	s11,0xbb6fb
      d4:	b7fd8d93          	add	s11,s11,-1153 # bb6fab7f <_end+0xbb6f623f>
      d8:	ddb7de37          	lui	t3,0xddb7d
      dc:	5bfe0e13          	add	t3,t3,1471 # ddb7d5bf <_end+0xddb78c7f>
      e0:	eedbfeb7          	lui	t4,0xeedbf
      e4:	adfe8e93          	add	t4,t4,-1313 # eedbeadf <_end+0xeedba19f>
      e8:	f76dff37          	lui	t5,0xf76df
      ec:	56ff0f13          	add	t5,t5,1391 # f76df56f <_end+0xf76dac2f>
      f0:	fbb70fb7          	lui	t6,0xfbb70
      f4:	ab7f8f93          	add	t6,t6,-1353 # fbb6fab7 <_end+0xfbb6b177>

000000f8 <rvtest_code_begin>:
      f8:	00004217          	auipc	tp,0x4
      fc:	f1820213          	add	tp,tp,-232 # 4010 <data_begin>

00000100 <inst_0>:
     100:	00900f93          	li	t6,9
     104:	000102b7          	lui	t0,0x10
     108:	025f8fb3          	mul	t6,t6,t0
     10c:	01f22023          	sw	t6,0(tp) # 0 <rvtest_entry_point>

00000110 <inst_1>:
     110:	02000a93          	li	s5,32
     114:	02000a93          	li	s5,32
     118:	035a8433          	mul	s0,s5,s5
     11c:	00822223          	sw	s0,4(tp) # 4 <rvtest_entry_point+0x4>

00000120 <inst_2>:
     120:	aaaab5b7          	lui	a1,0xaaaab
     124:	aab58593          	add	a1,a1,-1365 # aaaaaaab <_end+0xaaaa616b>
     128:	f8000bb7          	lui	s7,0xf8000
     12c:	fffb8b93          	add	s7,s7,-1 # f7ffffff <_end+0xf7ffb6bf>
     130:	03758bb3          	mul	s7,a1,s7
     134:	01722423          	sw	s7,8(tp) # 8 <rvtest_entry_point+0x8>

00000138 <inst_3>:
     138:	dff00713          	li	a4,-513
     13c:	00300a13          	li	s4,3
     140:	034703b3          	mul	t2,a4,s4
     144:	00722623          	sw	t2,12(tp) # c <rvtest_entry_point+0xc>

00000148 <inst_4>:
     148:	fff00793          	li	a5,-1
     14c:	fff00793          	li	a5,-1
     150:	02f787b3          	mul	a5,a5,a5
     154:	00f22823          	sw	a5,16(tp) # 10 <rvtest_entry_point+0x10>

00000158 <inst_5>:
     158:	fffc0cb7          	lui	s9,0xfffc0
     15c:	fffc8c93          	add	s9,s9,-1 # fffbffff <_end+0xfffbb6bf>
     160:	80000eb7          	lui	t4,0x80000
     164:	03dc8833          	mul	a6,s9,t4
     168:	01022a23          	sw	a6,20(tp) # 14 <rvtest_entry_point+0x14>

0000016c <inst_6>:
     16c:	66666eb7          	lui	t4,0x66666
     170:	665e8e93          	add	t4,t4,1637 # 66666665 <_end+0x66661d25>
     174:	00000c93          	li	s9,0
     178:	039e81b3          	mul	gp,t4,s9
     17c:	00322c23          	sw	gp,24(tp) # 18 <rvtest_entry_point+0x18>

00000180 <inst_7>:
     180:	0000bbb7          	lui	s7,0xb
     184:	504b8b93          	add	s7,s7,1284 # b504 <_end+0x6bc4>
     188:	80000e37          	lui	t3,0x80000
     18c:	fffe0e13          	add	t3,t3,-1 # 7fffffff <_end+0x7fffb6bf>
     190:	03cb88b3          	mul	a7,s7,t3
     194:	01122e23          	sw	a7,28(tp) # 1c <rvtest_entry_point+0x1c>

00000198 <inst_8>:
     198:	00200113          	li	sp,2
     19c:	00100993          	li	s3,1
     1a0:	03310b33          	mul	s6,sp,s3
     1a4:	03622023          	sw	s6,32(tp) # 20 <rvtest_entry_point+0x20>

000001a8 <inst_9>:
     1a8:	80000a37          	lui	s4,0x80000
     1ac:	fbf00b13          	li	s6,-65
     1b0:	036a0e33          	mul	t3,s4,s6
     1b4:	03c22223          	sw	t3,36(tp) # 24 <rvtest_entry_point+0x24>

000001b8 <inst_10>:
     1b8:	00000193          	li	gp,0
     1bc:	00000313          	li	t1,0
     1c0:	02618133          	mul	sp,gp,t1
     1c4:	02222423          	sw	sp,40(tp) # 28 <rvtest_entry_point+0x28>

000001c8 <inst_11>:
     1c8:	80000b37          	lui	s6,0x80000
     1cc:	fffb0b13          	add	s6,s6,-1 # 7fffffff <_end+0x7fffb6bf>
     1d0:	f7f00593          	li	a1,-129
     1d4:	02bb02b3          	mul	t0,s6,a1
     1d8:	02522623          	sw	t0,44(tp) # 2c <rvtest_entry_point+0x2c>

000001dc <inst_12>:
     1dc:	00100393          	li	t2,1
     1e0:	f00004b7          	lui	s1,0xf0000
     1e4:	fff48493          	add	s1,s1,-1 # efffffff <_end+0xefffb6bf>
     1e8:	029386b3          	mul	a3,t2,s1
     1ec:	02d22823          	sw	a3,48(tp) # 30 <rvtest_entry_point+0x30>

000001f0 <inst_13>:
     1f0:	08000513          	li	a0,128
     1f4:	00200893          	li	a7,2
     1f8:	03150333          	mul	t1,a0,a7
     1fc:	02622a23          	sw	t1,52(tp) # 34 <rvtest_entry_point+0x34>

00000200 <inst_14>:
     200:	ffff50b7          	lui	ra,0xffff5
     204:	afd08093          	add	ra,ra,-1283 # ffff4afd <_end+0xffff01bd>
     208:	00400113          	li	sp,4
     20c:	02208f33          	mul	t5,ra,sp
     210:	03e22c23          	sw	t5,56(tp) # 38 <rvtest_entry_point+0x38>

00000214 <inst_15>:
     214:	e00006b7          	lui	a3,0xe0000
     218:	fff68693          	add	a3,a3,-1 # dfffffff <_end+0xdfffb6bf>
     21c:	00800093          	li	ra,8
     220:	02168cb3          	mul	s9,a3,ra
     224:	03922e23          	sw	s9,60(tp) # 3c <rvtest_entry_point+0x3c>

00000228 <inst_16>:
     228:	fffff837          	lui	a6,0xfffff
     22c:	7ff80813          	add	a6,a6,2047 # fffff7ff <_end+0xffffaebf>
     230:	01000613          	li	a2,16
     234:	02c80eb3          	mul	t4,a6,a2
     238:	05d22023          	sw	t4,64(tp) # 40 <rvtest_entry_point+0x40>

0000023c <inst_17>:
     23c:	00004db7          	lui	s11,0x4
     240:	02000c13          	li	s8,32
     244:	038d8ab3          	mul	s5,s11,s8
     248:	05522223          	sw	s5,68(tp) # 44 <rvtest_entry_point+0x44>
     24c:	00004117          	auipc	sp,0x4
     250:	e0c10113          	add	sp,sp,-500 # 4058 <signature_x2_0>

00000254 <inst_18>:
     254:	0000b9b7          	lui	s3,0xb
     258:	50498993          	add	s3,s3,1284 # b504 <_end+0x6bc4>
     25c:	04000513          	li	a0,64
     260:	02a98733          	mul	a4,s3,a0
     264:	c03a                	sw	a4,0(sp)

00000266 <inst_19>:
     266:	ffb00313          	li	t1,-5
     26a:	08000713          	li	a4,128
     26e:	02e30d33          	mul	s10,t1,a4
     272:	c26a                	sw	s10,4(sp)

00000274 <inst_20>:
     274:	00500413          	li	s0,5
     278:	10000913          	li	s2,256
     27c:	03240633          	mul	a2,s0,s2
     280:	c432                	sw	a2,8(sp)

00000282 <inst_21>:
     282:	fc000f37          	lui	t5,0xfc000
     286:	ffff0f13          	add	t5,t5,-1 # fbffffff <_end+0xfbffb6bf>
     28a:	20000213          	li	tp,512
     28e:	024f04b3          	mul	s1,t5,tp
     292:	c626                	sw	s1,12(sp)

00000294 <inst_22>:
     294:	008002b7          	lui	t0,0x800
     298:	40000d13          	li	s10,1024
     29c:	03a289b3          	mul	s3,t0,s10
     2a0:	c84e                	sw	s3,16(sp)

000002a2 <inst_23>:
     2a2:	fef00613          	li	a2,-17
     2a6:	000016b7          	lui	a3,0x1
     2aa:	80068693          	add	a3,a3,-2048 # 800 <inst_101+0x4>
     2ae:	02d60933          	mul	s2,a2,a3
     2b2:	ca4a                	sw	s2,20(sp)

000002b4 <inst_24>:
     2b4:	33333937          	lui	s2,0x33333
     2b8:	33290913          	add	s2,s2,818 # 33333332 <_end+0x3332e9f2>
     2bc:	00001fb7          	lui	t6,0x1
     2c0:	03f90c33          	mul	s8,s2,t6
     2c4:	cc62                	sw	s8,24(sp)

000002c6 <inst_25>:
     2c6:	00900493          	li	s1,9
     2ca:	00002db7          	lui	s11,0x2
     2ce:	03b48033          	mul	zero,s1,s11
     2d2:	ce02                	sw	zero,28(sp)

000002d4 <inst_26>:
     2d4:	ffe00893          	li	a7,-2
     2d8:	00004437          	lui	s0,0x4
     2dc:	028885b3          	mul	a1,a7,s0
     2e0:	d02e                	sw	a1,32(sp)

000002e2 <inst_27>:
     2e2:	00000013          	nop
     2e6:	00008837          	lui	a6,0x8
     2ea:	03000533          	mul	a0,zero,a6
     2ee:	d22a                	sw	a0,36(sp)

000002f0 <inst_28>:
     2f0:	aaaabd37          	lui	s10,0xaaaab
     2f4:	aaad0d13          	add	s10,s10,-1366 # aaaaaaaa <_end+0xaaaa616a>
     2f8:	00020f37          	lui	t5,0x20
     2fc:	03ed00b3          	mul	ra,s10,t5
     300:	d406                	sw	ra,40(sp)

00000302 <inst_29>:
     302:	33333237          	lui	tp,0x33333
     306:	33420213          	add	tp,tp,820 # 33333334 <_end+0x3332e9f4>
     30a:	00000013          	nop
     30e:	02020db3          	mul	s11,tp,zero
     312:	d66e                	sw	s11,44(sp)

00000314 <inst_30>:
     314:	fff00c13          	li	s8,-1
     318:	000803b7          	lui	t2,0x80
     31c:	027c0a33          	mul	s4,s8,t2
     320:	d852                	sw	s4,48(sp)

00000322 <inst_31>:
     322:	ffc00e37          	lui	t3,0xffc00
     326:	fffe0e13          	add	t3,t3,-1 # ffbfffff <_end+0xffbfb6bf>
     32a:	001001b7          	lui	gp,0x100
     32e:	023e0233          	mul	tp,t3,gp
     332:	da12                	sw	tp,52(sp)

00000334 <inst_32>:
     334:	ffc00513          	li	a0,-4
     338:	002005b7          	lui	a1,0x200
     33c:	02b50633          	mul	a2,a0,a1
     340:	dc32                	sw	a2,56(sp)

00000342 <inst_33>:
     342:	ffe00537          	lui	a0,0xffe00
     346:	fff50513          	add	a0,a0,-1 # ffdfffff <_end+0xffdfb6bf>
     34a:	004005b7          	lui	a1,0x400
     34e:	02b50633          	mul	a2,a0,a1
     352:	de32                	sw	a2,60(sp)

00000354 <inst_34>:
     354:	00300513          	li	a0,3
     358:	008005b7          	lui	a1,0x800
     35c:	02b50633          	mul	a2,a0,a1
     360:	c0b2                	sw	a2,64(sp)

00000362 <inst_35>:
     362:	ff800513          	li	a0,-8
     366:	010005b7          	lui	a1,0x1000
     36a:	02b50633          	mul	a2,a0,a1
     36e:	c2b2                	sw	a2,68(sp)

00000370 <inst_36>:
     370:	ff700513          	li	a0,-9
     374:	020005b7          	lui	a1,0x2000
     378:	02b50633          	mul	a2,a0,a1
     37c:	c4b2                	sw	a2,72(sp)

0000037e <inst_37>:
     37e:	00100537          	lui	a0,0x100
     382:	040005b7          	lui	a1,0x4000
     386:	02b50633          	mul	a2,a0,a1
     38a:	c6b2                	sw	a2,76(sp)

0000038c <inst_38>:
     38c:	fff80537          	lui	a0,0xfff80
     390:	fff50513          	add	a0,a0,-1 # fff7ffff <_end+0xfff7b6bf>
     394:	080005b7          	lui	a1,0x8000
     398:	02b50633          	mul	a2,a0,a1
     39c:	c8b2                	sw	a2,80(sp)

0000039e <inst_39>:
     39e:	ffffe537          	lui	a0,0xffffe
     3a2:	fff50513          	add	a0,a0,-1 # ffffdfff <_end+0xffff96bf>
     3a6:	100005b7          	lui	a1,0x10000
     3aa:	02b50633          	mul	a2,a0,a1
     3ae:	cab2                	sw	a2,84(sp)

000003b0 <inst_40>:
     3b0:	00000513          	li	a0,0
     3b4:	200005b7          	lui	a1,0x20000
     3b8:	02b50633          	mul	a2,a0,a1
     3bc:	ccb2                	sw	a2,88(sp)

000003be <inst_41>:
     3be:	00800537          	lui	a0,0x800
     3c2:	400005b7          	lui	a1,0x40000
     3c6:	02b50633          	mul	a2,a0,a1
     3ca:	ceb2                	sw	a2,92(sp)

000003cc <inst_42>:
     3cc:	02000513          	li	a0,32
     3d0:	ffe00593          	li	a1,-2
     3d4:	02b50633          	mul	a2,a0,a1
     3d8:	d0b2                	sw	a2,96(sp)

000003da <inst_43>:
     3da:	10000513          	li	a0,256
     3de:	ffd00593          	li	a1,-3
     3e2:	02b50633          	mul	a2,a0,a1
     3e6:	d2b2                	sw	a2,100(sp)

000003e8 <inst_44>:
     3e8:	00080537          	lui	a0,0x80
     3ec:	ffb00593          	li	a1,-5
     3f0:	02b50633          	mul	a2,a0,a1
     3f4:	d4b2                	sw	a2,104(sp)

000003f6 <inst_45>:
     3f6:	00800513          	li	a0,8
     3fa:	ff700593          	li	a1,-9
     3fe:	02b50633          	mul	a2,a0,a1
     402:	d6b2                	sw	a2,108(sp)

00000404 <inst_46>:
     404:	00080537          	lui	a0,0x80
     408:	fef00593          	li	a1,-17
     40c:	02b50633          	mul	a2,a0,a1
     410:	d8b2                	sw	a2,112(sp)

00000412 <inst_47>:
     412:	ffd00513          	li	a0,-3
     416:	fdf00593          	li	a1,-33
     41a:	02b50633          	mul	a2,a0,a1
     41e:	dab2                	sw	a2,116(sp)

00000420 <inst_48>:
     420:	00300513          	li	a0,3
     424:	eff00593          	li	a1,-257
     428:	02b50633          	mul	a2,a0,a1
     42c:	dcb2                	sw	a2,120(sp)

0000042e <inst_49>:
     42e:	aaaab537          	lui	a0,0xaaaab
     432:	aaa50513          	add	a0,a0,-1366 # aaaaaaaa <_end+0xaaaa616a>
     436:	dff00593          	li	a1,-513
     43a:	02b50633          	mul	a2,a0,a1
     43e:	deb2                	sw	a2,124(sp)

00000440 <inst_50>:
     440:	00500513          	li	a0,5
     444:	bff00593          	li	a1,-1025
     448:	02b50633          	mul	a2,a0,a1
     44c:	c132                	sw	a2,128(sp)

0000044e <inst_51>:
     44e:	ffe00513          	li	a0,-2
     452:	fffff5b7          	lui	a1,0xfffff
     456:	7ff58593          	add	a1,a1,2047 # fffff7ff <_end+0xffffaebf>
     45a:	02b50633          	mul	a2,a0,a1
     45e:	c332                	sw	a2,132(sp)

00000460 <inst_52>:
     460:	f8000537          	lui	a0,0xf8000
     464:	fff50513          	add	a0,a0,-1 # f7ffffff <_end+0xf7ffb6bf>
     468:	fffff5b7          	lui	a1,0xfffff
     46c:	fff58593          	add	a1,a1,-1 # ffffefff <_end+0xffffa6bf>
     470:	02b50633          	mul	a2,a0,a1
     474:	c532                	sw	a2,136(sp)

00000476 <inst_53>:
     476:	33333537          	lui	a0,0x33333
     47a:	33250513          	add	a0,a0,818 # 33333332 <_end+0x3332e9f2>
     47e:	ffffe5b7          	lui	a1,0xffffe
     482:	fff58593          	add	a1,a1,-1 # ffffdfff <_end+0xffff96bf>
     486:	02b50633          	mul	a2,a0,a1
     48a:	c732                	sw	a2,140(sp)

0000048c <inst_54>:
     48c:	20000513          	li	a0,512
     490:	ffff85b7          	lui	a1,0xffff8
     494:	fff58593          	add	a1,a1,-1 # ffff7fff <_end+0xffff36bf>
     498:	02b50633          	mul	a2,a0,a1
     49c:	c932                	sw	a2,144(sp)

0000049e <inst_55>:
     49e:	ffff5537          	lui	a0,0xffff5
     4a2:	afd50513          	add	a0,a0,-1283 # ffff4afd <_end+0xffff01bd>
     4a6:	ffff05b7          	lui	a1,0xffff0
     4aa:	fff58593          	add	a1,a1,-1 # fffeffff <_end+0xfffeb6bf>
     4ae:	02b50633          	mul	a2,a0,a1
     4b2:	cb32                	sw	a2,148(sp)

000004b4 <inst_56>:
     4b4:	55555537          	lui	a0,0x55555
     4b8:	55550513          	add	a0,a0,1365 # 55555555 <_end+0x55550c15>
     4bc:	fffe05b7          	lui	a1,0xfffe0
     4c0:	fff58593          	add	a1,a1,-1 # fffdffff <_end+0xfffdb6bf>
     4c4:	02b50633          	mul	a2,a0,a1
     4c8:	cd32                	sw	a2,152(sp)

000004ca <inst_57>:
     4ca:	ffd00513          	li	a0,-3
     4ce:	fffc05b7          	lui	a1,0xfffc0
     4d2:	fff58593          	add	a1,a1,-1 # fffbffff <_end+0xfffbb6bf>
     4d6:	02b50633          	mul	a2,a0,a1
     4da:	cf32                	sw	a2,156(sp)

000004dc <inst_58>:
     4dc:	ffffc537          	lui	a0,0xffffc
     4e0:	fff50513          	add	a0,a0,-1 # ffffbfff <_end+0xffff76bf>
     4e4:	fff805b7          	lui	a1,0xfff80
     4e8:	fff58593          	add	a1,a1,-1 # fff7ffff <_end+0xfff7b6bf>
     4ec:	02b50633          	mul	a2,a0,a1
     4f0:	d132                	sw	a2,160(sp)

000004f2 <inst_59>:
     4f2:	ffe00537          	lui	a0,0xffe00
     4f6:	fff50513          	add	a0,a0,-1 # ffdfffff <_end+0xffdfb6bf>
     4fa:	fff005b7          	lui	a1,0xfff00
     4fe:	fff58593          	add	a1,a1,-1 # ffefffff <_end+0xffefb6bf>
     502:	02b50633          	mul	a2,a0,a1
     506:	d332                	sw	a2,164(sp)

00000508 <inst_60>:
     508:	00004537          	lui	a0,0x4
     50c:	ffe005b7          	lui	a1,0xffe00
     510:	fff58593          	add	a1,a1,-1 # ffdfffff <_end+0xffdfb6bf>
     514:	02b50633          	mul	a2,a0,a1
     518:	d532                	sw	a2,168(sp)

0000051a <inst_61>:
     51a:	0000b537          	lui	a0,0xb
     51e:	50550513          	add	a0,a0,1285 # b505 <_end+0x6bc5>
     522:	ffc005b7          	lui	a1,0xffc00
     526:	fff58593          	add	a1,a1,-1 # ffbfffff <_end+0xffbfb6bf>
     52a:	02b50633          	mul	a2,a0,a1
     52e:	d732                	sw	a2,172(sp)

00000530 <inst_62>:
     530:	ffff5537          	lui	a0,0xffff5
     534:	afc50513          	add	a0,a0,-1284 # ffff4afc <_end+0xffff01bc>
     538:	ff8005b7          	lui	a1,0xff800
     53c:	fff58593          	add	a1,a1,-1 # ff7fffff <_end+0xff7fb6bf>
     540:	02b50633          	mul	a2,a0,a1
     544:	d932                	sw	a2,176(sp)

00000546 <inst_63>:
     546:	fffff537          	lui	a0,0xfffff
     54a:	fff50513          	add	a0,a0,-1 # ffffefff <_end+0xffffa6bf>
     54e:	ff0005b7          	lui	a1,0xff000
     552:	fff58593          	add	a1,a1,-1 # feffffff <_end+0xfeffb6bf>
     556:	02b50633          	mul	a2,a0,a1
     55a:	db32                	sw	a2,180(sp)

0000055c <inst_64>:
     55c:	00500513          	li	a0,5
     560:	fe0005b7          	lui	a1,0xfe000
     564:	fff58593          	add	a1,a1,-1 # fdffffff <_end+0xfdffb6bf>
     568:	02b50633          	mul	a2,a0,a1
     56c:	dd32                	sw	a2,184(sp)

0000056e <inst_65>:
     56e:	fdf00513          	li	a0,-33
     572:	fc0005b7          	lui	a1,0xfc000
     576:	fff58593          	add	a1,a1,-1 # fbffffff <_end+0xfbffb6bf>
     57a:	02b50633          	mul	a2,a0,a1
     57e:	df32                	sw	a2,188(sp)

00000580 <inst_66>:
     580:	fffe0537          	lui	a0,0xfffe0
     584:	fff50513          	add	a0,a0,-1 # fffdffff <_end+0xfffdb6bf>
     588:	e00005b7          	lui	a1,0xe0000
     58c:	fff58593          	add	a1,a1,-1 # dfffffff <_end+0xdfffb6bf>
     590:	02b50633          	mul	a2,a0,a1
     594:	c1b2                	sw	a2,192(sp)

00000596 <inst_67>:
     596:	ffff5537          	lui	a0,0xffff5
     59a:	afc50513          	add	a0,a0,-1284 # ffff4afc <_end+0xffff01bc>
     59e:	c00005b7          	lui	a1,0xc0000
     5a2:	fff58593          	add	a1,a1,-1 # bfffffff <_end+0xbfffb6bf>
     5a6:	02b50633          	mul	a2,a0,a1
     5aa:	c3b2                	sw	a2,196(sp)

000005ac <inst_68>:
     5ac:	f8000537          	lui	a0,0xf8000
     5b0:	fff50513          	add	a0,a0,-1 # f7ffffff <_end+0xf7ffb6bf>
     5b4:	555555b7          	lui	a1,0x55555
     5b8:	55558593          	add	a1,a1,1365 # 55555555 <_end+0x55550c15>
     5bc:	02b50633          	mul	a2,a0,a1
     5c0:	c5b2                	sw	a2,200(sp)

000005c2 <inst_69>:
     5c2:	00800537          	lui	a0,0x800
     5c6:	aaaab5b7          	lui	a1,0xaaaab
     5ca:	aaa58593          	add	a1,a1,-1366 # aaaaaaaa <_end+0xaaaa616a>
     5ce:	02b50633          	mul	a2,a0,a1
     5d2:	c7b2                	sw	a2,204(sp)

000005d4 <inst_70>:
     5d4:	00400513          	li	a0,4
     5d8:	555555b7          	lui	a1,0x55555
     5dc:	55458593          	add	a1,a1,1364 # 55555554 <_end+0x55550c14>
     5e0:	02b50633          	mul	a2,a0,a1
     5e4:	c9b2                	sw	a2,208(sp)

000005e6 <inst_71>:
     5e6:	01000513          	li	a0,16
     5ea:	00900593          	li	a1,9
     5ee:	02b50633          	mul	a2,a0,a1
     5f2:	cbb2                	sw	a2,212(sp)

000005f4 <inst_72>:
     5f4:	04000513          	li	a0,64
     5f8:	00000593          	li	a1,0
     5fc:	02b50633          	mul	a2,a0,a1
     600:	cdb2                	sw	a2,216(sp)

00000602 <inst_73>:
     602:	40000513          	li	a0,1024
     606:	eff00593          	li	a1,-257
     60a:	02b50633          	mul	a2,a0,a1
     60e:	cfb2                	sw	a2,220(sp)

00000610 <inst_74>:
     610:	00001537          	lui	a0,0x1
     614:	80050513          	add	a0,a0,-2048 # 800 <inst_101+0x4>
     618:	0000b5b7          	lui	a1,0xb
     61c:	50458593          	add	a1,a1,1284 # b504 <_end+0x6bc4>
     620:	02b50633          	mul	a2,a0,a1
     624:	d1b2                	sw	a2,224(sp)

00000626 <inst_75>:
     626:	00001537          	lui	a0,0x1
     62a:	fffff5b7          	lui	a1,0xfffff
     62e:	7ff58593          	add	a1,a1,2047 # fffff7ff <_end+0xffffaebf>
     632:	02b50633          	mul	a2,a0,a1
     636:	d3b2                	sw	a2,228(sp)

00000638 <inst_76>:
     638:	00002537          	lui	a0,0x2
     63c:	00300593          	li	a1,3
     640:	02b50633          	mul	a2,a0,a1
     644:	d5b2                	sw	a2,232(sp)

00000646 <inst_77>:
     646:	00008537          	lui	a0,0x8
     64a:	00500593          	li	a1,5
     64e:	02b50633          	mul	a2,a0,a1
     652:	d7b2                	sw	a2,236(sp)

00000654 <inst_78>:
     654:	00010537          	lui	a0,0x10
     658:	ff600593          	li	a1,-10
     65c:	02b50633          	mul	a2,a0,a1
     660:	d9b2                	sw	a2,240(sp)

00000662 <inst_79>:
     662:	00020537          	lui	a0,0x20
     666:	0000b5b7          	lui	a1,0xb
     66a:	50358593          	add	a1,a1,1283 # b503 <_end+0x6bc3>
     66e:	02b50633          	mul	a2,a0,a1
     672:	dbb2                	sw	a2,244(sp)

00000674 <inst_80>:
     674:	00040537          	lui	a0,0x40
     678:	00600593          	li	a1,6
     67c:	02b50633          	mul	a2,a0,a1
     680:	ddb2                	sw	a2,248(sp)

00000682 <inst_81>:
     682:	00200537          	lui	a0,0x200
     686:	000045b7          	lui	a1,0x4
     68a:	02b50633          	mul	a2,a0,a1
     68e:	dfb2                	sw	a2,252(sp)

00000690 <inst_82>:
     690:	00400537          	lui	a0,0x400
     694:	ff8005b7          	lui	a1,0xff800
     698:	fff58593          	add	a1,a1,-1 # ff7fffff <_end+0xff7fb6bf>
     69c:	02b50633          	mul	a2,a0,a1
     6a0:	10c12023          	sw	a2,256(sp)

000006a4 <inst_83>:
     6a4:	01000537          	lui	a0,0x1000
     6a8:	333335b7          	lui	a1,0x33333
     6ac:	33258593          	add	a1,a1,818 # 33333332 <_end+0x3332e9f2>
     6b0:	02b50633          	mul	a2,a0,a1
     6b4:	10c12223          	sw	a2,260(sp)

000006b8 <inst_84>:
     6b8:	02000537          	lui	a0,0x2000
     6bc:	04000593          	li	a1,64
     6c0:	02b50633          	mul	a2,a0,a1
     6c4:	10c12423          	sw	a2,264(sp)

000006c8 <inst_85>:
     6c8:	04000537          	lui	a0,0x4000
     6cc:	fffe05b7          	lui	a1,0xfffe0
     6d0:	fff58593          	add	a1,a1,-1 # fffdffff <_end+0xfffdb6bf>
     6d4:	02b50633          	mul	a2,a0,a1
     6d8:	10c12623          	sw	a2,268(sp)

000006dc <inst_86>:
     6dc:	08000537          	lui	a0,0x8000
     6e0:	555555b7          	lui	a1,0x55555
     6e4:	55558593          	add	a1,a1,1365 # 55555555 <_end+0x55550c15>
     6e8:	02b50633          	mul	a2,a0,a1
     6ec:	10c12823          	sw	a2,272(sp)

000006f0 <inst_87>:
     6f0:	10000537          	lui	a0,0x10000
     6f4:	400005b7          	lui	a1,0x40000
     6f8:	02b50633          	mul	a2,a0,a1
     6fc:	10c12a23          	sw	a2,276(sp)

00000700 <inst_88>:
     700:	20000537          	lui	a0,0x20000
     704:	04000593          	li	a1,64
     708:	02b50633          	mul	a2,a0,a1
     70c:	10c12c23          	sw	a2,280(sp)

00000710 <inst_89>:
     710:	40000537          	lui	a0,0x40000
     714:	04000593          	li	a1,64
     718:	02b50633          	mul	a2,a0,a1
     71c:	10c12e23          	sw	a2,284(sp)

00000720 <inst_90>:
     720:	fbf00513          	li	a0,-65
     724:	ffff85b7          	lui	a1,0xffff8
     728:	fff58593          	add	a1,a1,-1 # ffff7fff <_end+0xffff36bf>
     72c:	02b50633          	mul	a2,a0,a1
     730:	12c12023          	sw	a2,288(sp)

00000734 <inst_91>:
     734:	f7f00513          	li	a0,-129
     738:	ffc00593          	li	a1,-4
     73c:	02b50633          	mul	a2,a0,a1
     740:	12c12223          	sw	a2,292(sp)

00000744 <inst_92>:
     744:	eff00513          	li	a0,-257
     748:	fff005b7          	lui	a1,0xfff00
     74c:	fff58593          	add	a1,a1,-1 # ffefffff <_end+0xffefb6bf>
     750:	02b50633          	mul	a2,a0,a1
     754:	12c12423          	sw	a2,296(sp)

00000758 <inst_93>:
     758:	bff00513          	li	a0,-1025
     75c:	00000593          	li	a1,0
     760:	02b50633          	mul	a2,a0,a1
     764:	12c12623          	sw	a2,300(sp)

00000768 <inst_94>:
     768:	ffff8537          	lui	a0,0xffff8
     76c:	fff50513          	add	a0,a0,-1 # ffff7fff <_end+0xffff36bf>
     770:	ff700593          	li	a1,-9
     774:	02b50633          	mul	a2,a0,a1
     778:	12c12823          	sw	a2,304(sp)

0000077c <inst_95>:
     77c:	ffff0537          	lui	a0,0xffff0
     780:	fff50513          	add	a0,a0,-1 # fffeffff <_end+0xfffeb6bf>
     784:	000045b7          	lui	a1,0x4
     788:	02b50633          	mul	a2,a0,a1
     78c:	12c12a23          	sw	a2,308(sp)

00000790 <inst_96>:
     790:	fff00537          	lui	a0,0xfff00
     794:	fff50513          	add	a0,a0,-1 # ffefffff <_end+0xffefb6bf>
     798:	ffe005b7          	lui	a1,0xffe00
     79c:	fff58593          	add	a1,a1,-1 # ffdfffff <_end+0xffdfb6bf>
     7a0:	02b50633          	mul	a2,a0,a1
     7a4:	12c12c23          	sw	a2,312(sp)

000007a8 <inst_97>:
     7a8:	ff800537          	lui	a0,0xff800
     7ac:	fff50513          	add	a0,a0,-1 # ff7fffff <_end+0xff7fb6bf>
     7b0:	ffd00593          	li	a1,-3
     7b4:	02b50633          	mul	a2,a0,a1
     7b8:	12c12e23          	sw	a2,316(sp)

000007bc <inst_98>:
     7bc:	ff000537          	lui	a0,0xff000
     7c0:	fff50513          	add	a0,a0,-1 # feffffff <_end+0xfeffb6bf>
     7c4:	00000593          	li	a1,0
     7c8:	02b50633          	mul	a2,a0,a1
     7cc:	14c12023          	sw	a2,320(sp)

000007d0 <inst_99>:
     7d0:	fe000537          	lui	a0,0xfe000
     7d4:	fff50513          	add	a0,a0,-1 # fdffffff <_end+0xfdffb6bf>
     7d8:	fffff5b7          	lui	a1,0xfffff
     7dc:	7ff58593          	add	a1,a1,2047 # fffff7ff <_end+0xffffaebf>
     7e0:	02b50633          	mul	a2,a0,a1
     7e4:	14c12223          	sw	a2,324(sp)

000007e8 <inst_100>:
     7e8:	f0000537          	lui	a0,0xf0000
     7ec:	fff50513          	add	a0,a0,-1 # efffffff <_end+0xefffb6bf>
     7f0:	ffd00593          	li	a1,-3
     7f4:	02b50633          	mul	a2,a0,a1
     7f8:	14c12423          	sw	a2,328(sp)

000007fc <inst_101>:
     7fc:	c0000537          	lui	a0,0xc0000
     800:	fff50513          	add	a0,a0,-1 # bfffffff <_end+0xbfffb6bf>
     804:	020005b7          	lui	a1,0x2000
     808:	02b50633          	mul	a2,a0,a1
     80c:	14c12623          	sw	a2,332(sp)

00000810 <inst_102>:
     810:	00300513          	li	a0,3
     814:	00300593          	li	a1,3
     818:	02b50633          	mul	a2,a0,a1
     81c:	14c12823          	sw	a2,336(sp)

00000820 <inst_103>:
     820:	00300513          	li	a0,3
     824:	555555b7          	lui	a1,0x55555
     828:	55558593          	add	a1,a1,1365 # 55555555 <_end+0x55550c15>
     82c:	02b50633          	mul	a2,a0,a1
     830:	14c12a23          	sw	a2,340(sp)

00000834 <inst_104>:
     834:	00300513          	li	a0,3
     838:	aaaab5b7          	lui	a1,0xaaaab
     83c:	aaa58593          	add	a1,a1,-1366 # aaaaaaaa <_end+0xaaaa616a>
     840:	02b50633          	mul	a2,a0,a1
     844:	14c12c23          	sw	a2,344(sp)

00000848 <inst_105>:
     848:	00300513          	li	a0,3
     84c:	00500593          	li	a1,5
     850:	02b50633          	mul	a2,a0,a1
     854:	14c12e23          	sw	a2,348(sp)

00000858 <inst_106>:
     858:	00300513          	li	a0,3
     85c:	333335b7          	lui	a1,0x33333
     860:	33358593          	add	a1,a1,819 # 33333333 <_end+0x3332e9f3>
     864:	02b50633          	mul	a2,a0,a1
     868:	16c12023          	sw	a2,352(sp)

0000086c <inst_107>:
     86c:	00300513          	li	a0,3
     870:	666665b7          	lui	a1,0x66666
     874:	66658593          	add	a1,a1,1638 # 66666666 <_end+0x66661d26>
     878:	02b50633          	mul	a2,a0,a1
     87c:	16c12223          	sw	a2,356(sp)

00000880 <inst_108>:
     880:	00300513          	li	a0,3
     884:	ffff55b7          	lui	a1,0xffff5
     888:	afc58593          	add	a1,a1,-1284 # ffff4afc <_end+0xffff01bc>
     88c:	02b50633          	mul	a2,a0,a1
     890:	16c12423          	sw	a2,360(sp)

00000894 <inst_109>:
     894:	00300513          	li	a0,3
     898:	0000b5b7          	lui	a1,0xb
     89c:	50458593          	add	a1,a1,1284 # b504 <_end+0x6bc4>
     8a0:	02b50633          	mul	a2,a0,a1
     8a4:	16c12623          	sw	a2,364(sp)

000008a8 <inst_110>:
     8a8:	00300513          	li	a0,3
     8ac:	00200593          	li	a1,2
     8b0:	02b50633          	mul	a2,a0,a1
     8b4:	16c12823          	sw	a2,368(sp)

000008b8 <inst_111>:
     8b8:	00300513          	li	a0,3
     8bc:	555555b7          	lui	a1,0x55555
     8c0:	55458593          	add	a1,a1,1364 # 55555554 <_end+0x55550c14>
     8c4:	02b50633          	mul	a2,a0,a1
     8c8:	16c12a23          	sw	a2,372(sp)

000008cc <inst_112>:
     8cc:	00300513          	li	a0,3
     8d0:	00000593          	li	a1,0
     8d4:	02b50633          	mul	a2,a0,a1
     8d8:	16c12c23          	sw	a2,376(sp)

000008dc <inst_113>:
     8dc:	00300513          	li	a0,3
     8e0:	00400593          	li	a1,4
     8e4:	02b50633          	mul	a2,a0,a1
     8e8:	16c12e23          	sw	a2,380(sp)

000008ec <inst_114>:
     8ec:	00300513          	li	a0,3
     8f0:	333335b7          	lui	a1,0x33333
     8f4:	33258593          	add	a1,a1,818 # 33333332 <_end+0x3332e9f2>
     8f8:	02b50633          	mul	a2,a0,a1
     8fc:	18c12023          	sw	a2,384(sp)

00000900 <inst_115>:
     900:	00300513          	li	a0,3
     904:	666665b7          	lui	a1,0x66666
     908:	66558593          	add	a1,a1,1637 # 66666665 <_end+0x66661d25>
     90c:	02b50633          	mul	a2,a0,a1
     910:	18c12223          	sw	a2,388(sp)

00000914 <inst_116>:
     914:	00300513          	li	a0,3
     918:	0000b5b7          	lui	a1,0xb
     91c:	50358593          	add	a1,a1,1283 # b503 <_end+0x6bc3>
     920:	02b50633          	mul	a2,a0,a1
     924:	18c12423          	sw	a2,392(sp)

00000928 <inst_117>:
     928:	00300513          	li	a0,3
     92c:	555555b7          	lui	a1,0x55555
     930:	55658593          	add	a1,a1,1366 # 55555556 <_end+0x55550c16>
     934:	02b50633          	mul	a2,a0,a1
     938:	18c12623          	sw	a2,396(sp)

0000093c <inst_118>:
     93c:	00300513          	li	a0,3
     940:	aaaab5b7          	lui	a1,0xaaaab
     944:	aab58593          	add	a1,a1,-1365 # aaaaaaab <_end+0xaaaa616b>
     948:	02b50633          	mul	a2,a0,a1
     94c:	18c12823          	sw	a2,400(sp)

00000950 <inst_119>:
     950:	00300513          	li	a0,3
     954:	00600593          	li	a1,6
     958:	02b50633          	mul	a2,a0,a1
     95c:	18c12a23          	sw	a2,404(sp)

00000960 <inst_120>:
     960:	00300513          	li	a0,3
     964:	333335b7          	lui	a1,0x33333
     968:	33458593          	add	a1,a1,820 # 33333334 <_end+0x3332e9f4>
     96c:	02b50633          	mul	a2,a0,a1
     970:	18c12c23          	sw	a2,408(sp)

00000974 <inst_121>:
     974:	00300513          	li	a0,3
     978:	666665b7          	lui	a1,0x66666
     97c:	66758593          	add	a1,a1,1639 # 66666667 <_end+0x66661d27>
     980:	02b50633          	mul	a2,a0,a1
     984:	18c12e23          	sw	a2,412(sp)

00000988 <inst_122>:
     988:	00300513          	li	a0,3
     98c:	ffff55b7          	lui	a1,0xffff5
     990:	afd58593          	add	a1,a1,-1283 # ffff4afd <_end+0xffff01bd>
     994:	02b50633          	mul	a2,a0,a1
     998:	1ac12023          	sw	a2,416(sp)

0000099c <inst_123>:
     99c:	00300513          	li	a0,3
     9a0:	0000b5b7          	lui	a1,0xb
     9a4:	50558593          	add	a1,a1,1285 # b505 <_end+0x6bc5>
     9a8:	02b50633          	mul	a2,a0,a1
     9ac:	1ac12223          	sw	a2,420(sp)

000009b0 <inst_124>:
     9b0:	55555537          	lui	a0,0x55555
     9b4:	55550513          	add	a0,a0,1365 # 55555555 <_end+0x55550c15>
     9b8:	00300593          	li	a1,3
     9bc:	02b50633          	mul	a2,a0,a1
     9c0:	1ac12423          	sw	a2,424(sp)

000009c4 <inst_125>:
     9c4:	55555537          	lui	a0,0x55555
     9c8:	55550513          	add	a0,a0,1365 # 55555555 <_end+0x55550c15>
     9cc:	555555b7          	lui	a1,0x55555
     9d0:	55558593          	add	a1,a1,1365 # 55555555 <_end+0x55550c15>
     9d4:	02b50633          	mul	a2,a0,a1
     9d8:	1ac12623          	sw	a2,428(sp)

000009dc <inst_126>:
     9dc:	55555537          	lui	a0,0x55555
     9e0:	55550513          	add	a0,a0,1365 # 55555555 <_end+0x55550c15>
     9e4:	aaaab5b7          	lui	a1,0xaaaab
     9e8:	aaa58593          	add	a1,a1,-1366 # aaaaaaaa <_end+0xaaaa616a>
     9ec:	02b50633          	mul	a2,a0,a1
     9f0:	1ac12823          	sw	a2,432(sp)

000009f4 <inst_127>:
     9f4:	55555537          	lui	a0,0x55555
     9f8:	55550513          	add	a0,a0,1365 # 55555555 <_end+0x55550c15>
     9fc:	00500593          	li	a1,5
     a00:	02b50633          	mul	a2,a0,a1
     a04:	1ac12a23          	sw	a2,436(sp)

00000a08 <inst_128>:
     a08:	55555537          	lui	a0,0x55555
     a0c:	55550513          	add	a0,a0,1365 # 55555555 <_end+0x55550c15>
     a10:	333335b7          	lui	a1,0x33333
     a14:	33358593          	add	a1,a1,819 # 33333333 <_end+0x3332e9f3>
     a18:	02b50633          	mul	a2,a0,a1
     a1c:	1ac12c23          	sw	a2,440(sp)

00000a20 <inst_129>:
     a20:	55555537          	lui	a0,0x55555
     a24:	55550513          	add	a0,a0,1365 # 55555555 <_end+0x55550c15>
     a28:	666665b7          	lui	a1,0x66666
     a2c:	66658593          	add	a1,a1,1638 # 66666666 <_end+0x66661d26>
     a30:	02b50633          	mul	a2,a0,a1
     a34:	1ac12e23          	sw	a2,444(sp)

00000a38 <inst_130>:
     a38:	55555537          	lui	a0,0x55555
     a3c:	55550513          	add	a0,a0,1365 # 55555555 <_end+0x55550c15>
     a40:	ffff55b7          	lui	a1,0xffff5
     a44:	afc58593          	add	a1,a1,-1284 # ffff4afc <_end+0xffff01bc>
     a48:	02b50633          	mul	a2,a0,a1
     a4c:	1cc12023          	sw	a2,448(sp)

00000a50 <inst_131>:
     a50:	55555537          	lui	a0,0x55555
     a54:	55550513          	add	a0,a0,1365 # 55555555 <_end+0x55550c15>
     a58:	0000b5b7          	lui	a1,0xb
     a5c:	50458593          	add	a1,a1,1284 # b504 <_end+0x6bc4>
     a60:	02b50633          	mul	a2,a0,a1
     a64:	1cc12223          	sw	a2,452(sp)

00000a68 <inst_132>:
     a68:	55555537          	lui	a0,0x55555
     a6c:	55550513          	add	a0,a0,1365 # 55555555 <_end+0x55550c15>
     a70:	00200593          	li	a1,2
     a74:	02b50633          	mul	a2,a0,a1
     a78:	1cc12423          	sw	a2,456(sp)

00000a7c <inst_133>:
     a7c:	55555537          	lui	a0,0x55555
     a80:	55550513          	add	a0,a0,1365 # 55555555 <_end+0x55550c15>
     a84:	555555b7          	lui	a1,0x55555
     a88:	55458593          	add	a1,a1,1364 # 55555554 <_end+0x55550c14>
     a8c:	02b50633          	mul	a2,a0,a1
     a90:	1cc12623          	sw	a2,460(sp)

00000a94 <inst_134>:
     a94:	55555537          	lui	a0,0x55555
     a98:	55550513          	add	a0,a0,1365 # 55555555 <_end+0x55550c15>
     a9c:	00000593          	li	a1,0
     aa0:	02b50633          	mul	a2,a0,a1
     aa4:	1cc12823          	sw	a2,464(sp)

00000aa8 <inst_135>:
     aa8:	55555537          	lui	a0,0x55555
     aac:	55550513          	add	a0,a0,1365 # 55555555 <_end+0x55550c15>
     ab0:	00400593          	li	a1,4
     ab4:	02b50633          	mul	a2,a0,a1
     ab8:	1cc12a23          	sw	a2,468(sp)

00000abc <inst_136>:
     abc:	55555537          	lui	a0,0x55555
     ac0:	55550513          	add	a0,a0,1365 # 55555555 <_end+0x55550c15>
     ac4:	333335b7          	lui	a1,0x33333
     ac8:	33258593          	add	a1,a1,818 # 33333332 <_end+0x3332e9f2>
     acc:	02b50633          	mul	a2,a0,a1
     ad0:	1cc12c23          	sw	a2,472(sp)

00000ad4 <inst_137>:
     ad4:	55555537          	lui	a0,0x55555
     ad8:	55550513          	add	a0,a0,1365 # 55555555 <_end+0x55550c15>
     adc:	666665b7          	lui	a1,0x66666
     ae0:	66558593          	add	a1,a1,1637 # 66666665 <_end+0x66661d25>
     ae4:	02b50633          	mul	a2,a0,a1
     ae8:	1cc12e23          	sw	a2,476(sp)

00000aec <inst_138>:
     aec:	55555537          	lui	a0,0x55555
     af0:	55550513          	add	a0,a0,1365 # 55555555 <_end+0x55550c15>
     af4:	0000b5b7          	lui	a1,0xb
     af8:	50358593          	add	a1,a1,1283 # b503 <_end+0x6bc3>
     afc:	02b50633          	mul	a2,a0,a1
     b00:	1ec12023          	sw	a2,480(sp)

00000b04 <inst_139>:
     b04:	55555537          	lui	a0,0x55555
     b08:	55550513          	add	a0,a0,1365 # 55555555 <_end+0x55550c15>
     b0c:	555555b7          	lui	a1,0x55555
     b10:	55658593          	add	a1,a1,1366 # 55555556 <_end+0x55550c16>
     b14:	02b50633          	mul	a2,a0,a1
     b18:	1ec12223          	sw	a2,484(sp)

00000b1c <inst_140>:
     b1c:	55555537          	lui	a0,0x55555
     b20:	55550513          	add	a0,a0,1365 # 55555555 <_end+0x55550c15>
     b24:	aaaab5b7          	lui	a1,0xaaaab
     b28:	aab58593          	add	a1,a1,-1365 # aaaaaaab <_end+0xaaaa616b>
     b2c:	02b50633          	mul	a2,a0,a1
     b30:	1ec12423          	sw	a2,488(sp)

00000b34 <inst_141>:
     b34:	55555537          	lui	a0,0x55555
     b38:	55550513          	add	a0,a0,1365 # 55555555 <_end+0x55550c15>
     b3c:	00600593          	li	a1,6
     b40:	02b50633          	mul	a2,a0,a1
     b44:	1ec12623          	sw	a2,492(sp)

00000b48 <inst_142>:
     b48:	55555537          	lui	a0,0x55555
     b4c:	55550513          	add	a0,a0,1365 # 55555555 <_end+0x55550c15>
     b50:	333335b7          	lui	a1,0x33333
     b54:	33458593          	add	a1,a1,820 # 33333334 <_end+0x3332e9f4>
     b58:	02b50633          	mul	a2,a0,a1
     b5c:	1ec12823          	sw	a2,496(sp)

00000b60 <inst_143>:
     b60:	55555537          	lui	a0,0x55555
     b64:	55550513          	add	a0,a0,1365 # 55555555 <_end+0x55550c15>
     b68:	666665b7          	lui	a1,0x66666
     b6c:	66758593          	add	a1,a1,1639 # 66666667 <_end+0x66661d27>
     b70:	02b50633          	mul	a2,a0,a1
     b74:	1ec12a23          	sw	a2,500(sp)

00000b78 <inst_144>:
     b78:	55555537          	lui	a0,0x55555
     b7c:	55550513          	add	a0,a0,1365 # 55555555 <_end+0x55550c15>
     b80:	ffff55b7          	lui	a1,0xffff5
     b84:	afd58593          	add	a1,a1,-1283 # ffff4afd <_end+0xffff01bd>
     b88:	02b50633          	mul	a2,a0,a1
     b8c:	1ec12c23          	sw	a2,504(sp)

00000b90 <inst_145>:
     b90:	55555537          	lui	a0,0x55555
     b94:	55550513          	add	a0,a0,1365 # 55555555 <_end+0x55550c15>
     b98:	0000b5b7          	lui	a1,0xb
     b9c:	50558593          	add	a1,a1,1285 # b505 <_end+0x6bc5>
     ba0:	02b50633          	mul	a2,a0,a1
     ba4:	1ec12e23          	sw	a2,508(sp)

00000ba8 <inst_146>:
     ba8:	aaaab537          	lui	a0,0xaaaab
     bac:	aaa50513          	add	a0,a0,-1366 # aaaaaaaa <_end+0xaaaa616a>
     bb0:	00300593          	li	a1,3
     bb4:	02b50633          	mul	a2,a0,a1
     bb8:	20c12023          	sw	a2,512(sp)

00000bbc <inst_147>:
     bbc:	aaaab537          	lui	a0,0xaaaab
     bc0:	aaa50513          	add	a0,a0,-1366 # aaaaaaaa <_end+0xaaaa616a>
     bc4:	555555b7          	lui	a1,0x55555
     bc8:	55558593          	add	a1,a1,1365 # 55555555 <_end+0x55550c15>
     bcc:	02b50633          	mul	a2,a0,a1
     bd0:	20c12223          	sw	a2,516(sp)

00000bd4 <inst_148>:
     bd4:	aaaab537          	lui	a0,0xaaaab
     bd8:	aaa50513          	add	a0,a0,-1366 # aaaaaaaa <_end+0xaaaa616a>
     bdc:	aaaab5b7          	lui	a1,0xaaaab
     be0:	aaa58593          	add	a1,a1,-1366 # aaaaaaaa <_end+0xaaaa616a>
     be4:	02b50633          	mul	a2,a0,a1
     be8:	20c12423          	sw	a2,520(sp)

00000bec <inst_149>:
     bec:	aaaab537          	lui	a0,0xaaaab
     bf0:	aaa50513          	add	a0,a0,-1366 # aaaaaaaa <_end+0xaaaa616a>
     bf4:	00500593          	li	a1,5
     bf8:	02b50633          	mul	a2,a0,a1
     bfc:	20c12623          	sw	a2,524(sp)

00000c00 <inst_150>:
     c00:	aaaab537          	lui	a0,0xaaaab
     c04:	aaa50513          	add	a0,a0,-1366 # aaaaaaaa <_end+0xaaaa616a>
     c08:	333335b7          	lui	a1,0x33333
     c0c:	33358593          	add	a1,a1,819 # 33333333 <_end+0x3332e9f3>
     c10:	02b50633          	mul	a2,a0,a1
     c14:	20c12823          	sw	a2,528(sp)

00000c18 <inst_151>:
     c18:	aaaab537          	lui	a0,0xaaaab
     c1c:	aaa50513          	add	a0,a0,-1366 # aaaaaaaa <_end+0xaaaa616a>
     c20:	666665b7          	lui	a1,0x66666
     c24:	66658593          	add	a1,a1,1638 # 66666666 <_end+0x66661d26>
     c28:	02b50633          	mul	a2,a0,a1
     c2c:	20c12a23          	sw	a2,532(sp)

00000c30 <inst_152>:
     c30:	aaaab537          	lui	a0,0xaaaab
     c34:	aaa50513          	add	a0,a0,-1366 # aaaaaaaa <_end+0xaaaa616a>
     c38:	ffff55b7          	lui	a1,0xffff5
     c3c:	afc58593          	add	a1,a1,-1284 # ffff4afc <_end+0xffff01bc>
     c40:	02b50633          	mul	a2,a0,a1
     c44:	20c12c23          	sw	a2,536(sp)

00000c48 <inst_153>:
     c48:	aaaab537          	lui	a0,0xaaaab
     c4c:	aaa50513          	add	a0,a0,-1366 # aaaaaaaa <_end+0xaaaa616a>
     c50:	0000b5b7          	lui	a1,0xb
     c54:	50458593          	add	a1,a1,1284 # b504 <_end+0x6bc4>
     c58:	02b50633          	mul	a2,a0,a1
     c5c:	20c12e23          	sw	a2,540(sp)

00000c60 <inst_154>:
     c60:	aaaab537          	lui	a0,0xaaaab
     c64:	aaa50513          	add	a0,a0,-1366 # aaaaaaaa <_end+0xaaaa616a>
     c68:	00200593          	li	a1,2
     c6c:	02b50633          	mul	a2,a0,a1
     c70:	22c12023          	sw	a2,544(sp)

00000c74 <inst_155>:
     c74:	aaaab537          	lui	a0,0xaaaab
     c78:	aaa50513          	add	a0,a0,-1366 # aaaaaaaa <_end+0xaaaa616a>
     c7c:	555555b7          	lui	a1,0x55555
     c80:	55458593          	add	a1,a1,1364 # 55555554 <_end+0x55550c14>
     c84:	02b50633          	mul	a2,a0,a1
     c88:	22c12223          	sw	a2,548(sp)

00000c8c <inst_156>:
     c8c:	aaaab537          	lui	a0,0xaaaab
     c90:	aaa50513          	add	a0,a0,-1366 # aaaaaaaa <_end+0xaaaa616a>
     c94:	00000593          	li	a1,0
     c98:	02b50633          	mul	a2,a0,a1
     c9c:	22c12423          	sw	a2,552(sp)

00000ca0 <inst_157>:
     ca0:	aaaab537          	lui	a0,0xaaaab
     ca4:	aaa50513          	add	a0,a0,-1366 # aaaaaaaa <_end+0xaaaa616a>
     ca8:	00400593          	li	a1,4
     cac:	02b50633          	mul	a2,a0,a1
     cb0:	22c12623          	sw	a2,556(sp)

00000cb4 <inst_158>:
     cb4:	aaaab537          	lui	a0,0xaaaab
     cb8:	aaa50513          	add	a0,a0,-1366 # aaaaaaaa <_end+0xaaaa616a>
     cbc:	333335b7          	lui	a1,0x33333
     cc0:	33258593          	add	a1,a1,818 # 33333332 <_end+0x3332e9f2>
     cc4:	02b50633          	mul	a2,a0,a1
     cc8:	22c12823          	sw	a2,560(sp)

00000ccc <inst_159>:
     ccc:	aaaab537          	lui	a0,0xaaaab
     cd0:	aaa50513          	add	a0,a0,-1366 # aaaaaaaa <_end+0xaaaa616a>
     cd4:	666665b7          	lui	a1,0x66666
     cd8:	66558593          	add	a1,a1,1637 # 66666665 <_end+0x66661d25>
     cdc:	02b50633          	mul	a2,a0,a1
     ce0:	22c12a23          	sw	a2,564(sp)

00000ce4 <inst_160>:
     ce4:	aaaab537          	lui	a0,0xaaaab
     ce8:	aaa50513          	add	a0,a0,-1366 # aaaaaaaa <_end+0xaaaa616a>
     cec:	0000b5b7          	lui	a1,0xb
     cf0:	50358593          	add	a1,a1,1283 # b503 <_end+0x6bc3>
     cf4:	02b50633          	mul	a2,a0,a1
     cf8:	22c12c23          	sw	a2,568(sp)

00000cfc <inst_161>:
     cfc:	aaaab537          	lui	a0,0xaaaab
     d00:	aaa50513          	add	a0,a0,-1366 # aaaaaaaa <_end+0xaaaa616a>
     d04:	555555b7          	lui	a1,0x55555
     d08:	55658593          	add	a1,a1,1366 # 55555556 <_end+0x55550c16>
     d0c:	02b50633          	mul	a2,a0,a1
     d10:	22c12e23          	sw	a2,572(sp)

00000d14 <inst_162>:
     d14:	aaaab537          	lui	a0,0xaaaab
     d18:	aaa50513          	add	a0,a0,-1366 # aaaaaaaa <_end+0xaaaa616a>
     d1c:	aaaab5b7          	lui	a1,0xaaaab
     d20:	aab58593          	add	a1,a1,-1365 # aaaaaaab <_end+0xaaaa616b>
     d24:	02b50633          	mul	a2,a0,a1
     d28:	24c12023          	sw	a2,576(sp)

00000d2c <inst_163>:
     d2c:	aaaab537          	lui	a0,0xaaaab
     d30:	aaa50513          	add	a0,a0,-1366 # aaaaaaaa <_end+0xaaaa616a>
     d34:	00600593          	li	a1,6
     d38:	02b50633          	mul	a2,a0,a1
     d3c:	24c12223          	sw	a2,580(sp)

00000d40 <inst_164>:
     d40:	aaaab537          	lui	a0,0xaaaab
     d44:	aaa50513          	add	a0,a0,-1366 # aaaaaaaa <_end+0xaaaa616a>
     d48:	333335b7          	lui	a1,0x33333
     d4c:	33458593          	add	a1,a1,820 # 33333334 <_end+0x3332e9f4>
     d50:	02b50633          	mul	a2,a0,a1
     d54:	24c12423          	sw	a2,584(sp)

00000d58 <inst_165>:
     d58:	aaaab537          	lui	a0,0xaaaab
     d5c:	aaa50513          	add	a0,a0,-1366 # aaaaaaaa <_end+0xaaaa616a>
     d60:	666665b7          	lui	a1,0x66666
     d64:	66758593          	add	a1,a1,1639 # 66666667 <_end+0x66661d27>
     d68:	02b50633          	mul	a2,a0,a1
     d6c:	24c12623          	sw	a2,588(sp)

00000d70 <inst_166>:
     d70:	aaaab537          	lui	a0,0xaaaab
     d74:	aaa50513          	add	a0,a0,-1366 # aaaaaaaa <_end+0xaaaa616a>
     d78:	ffff55b7          	lui	a1,0xffff5
     d7c:	afd58593          	add	a1,a1,-1283 # ffff4afd <_end+0xffff01bd>
     d80:	02b50633          	mul	a2,a0,a1
     d84:	24c12823          	sw	a2,592(sp)

00000d88 <inst_167>:
     d88:	aaaab537          	lui	a0,0xaaaab
     d8c:	aaa50513          	add	a0,a0,-1366 # aaaaaaaa <_end+0xaaaa616a>
     d90:	0000b5b7          	lui	a1,0xb
     d94:	50558593          	add	a1,a1,1285 # b505 <_end+0x6bc5>
     d98:	02b50633          	mul	a2,a0,a1
     d9c:	24c12a23          	sw	a2,596(sp)

00000da0 <inst_168>:
     da0:	00500513          	li	a0,5
     da4:	00300593          	li	a1,3
     da8:	02b50633          	mul	a2,a0,a1
     dac:	24c12c23          	sw	a2,600(sp)

00000db0 <inst_169>:
     db0:	00500513          	li	a0,5
     db4:	555555b7          	lui	a1,0x55555
     db8:	55558593          	add	a1,a1,1365 # 55555555 <_end+0x55550c15>
     dbc:	02b50633          	mul	a2,a0,a1
     dc0:	24c12e23          	sw	a2,604(sp)

00000dc4 <inst_170>:
     dc4:	00500513          	li	a0,5
     dc8:	aaaab5b7          	lui	a1,0xaaaab
     dcc:	aaa58593          	add	a1,a1,-1366 # aaaaaaaa <_end+0xaaaa616a>
     dd0:	02b50633          	mul	a2,a0,a1
     dd4:	26c12023          	sw	a2,608(sp)

00000dd8 <inst_171>:
     dd8:	00500513          	li	a0,5
     ddc:	00500593          	li	a1,5
     de0:	02b50633          	mul	a2,a0,a1
     de4:	26c12223          	sw	a2,612(sp)

00000de8 <inst_172>:
     de8:	00500513          	li	a0,5
     dec:	333335b7          	lui	a1,0x33333
     df0:	33358593          	add	a1,a1,819 # 33333333 <_end+0x3332e9f3>
     df4:	02b50633          	mul	a2,a0,a1
     df8:	26c12423          	sw	a2,616(sp)

00000dfc <inst_173>:
     dfc:	00500513          	li	a0,5
     e00:	666665b7          	lui	a1,0x66666
     e04:	66658593          	add	a1,a1,1638 # 66666666 <_end+0x66661d26>
     e08:	02b50633          	mul	a2,a0,a1
     e0c:	26c12623          	sw	a2,620(sp)

00000e10 <inst_174>:
     e10:	00500513          	li	a0,5
     e14:	ffff55b7          	lui	a1,0xffff5
     e18:	afc58593          	add	a1,a1,-1284 # ffff4afc <_end+0xffff01bc>
     e1c:	02b50633          	mul	a2,a0,a1
     e20:	26c12823          	sw	a2,624(sp)

00000e24 <inst_175>:
     e24:	00500513          	li	a0,5
     e28:	0000b5b7          	lui	a1,0xb
     e2c:	50458593          	add	a1,a1,1284 # b504 <_end+0x6bc4>
     e30:	02b50633          	mul	a2,a0,a1
     e34:	26c12a23          	sw	a2,628(sp)

00000e38 <inst_176>:
     e38:	00500513          	li	a0,5
     e3c:	00200593          	li	a1,2
     e40:	02b50633          	mul	a2,a0,a1
     e44:	26c12c23          	sw	a2,632(sp)

00000e48 <inst_177>:
     e48:	00500513          	li	a0,5
     e4c:	555555b7          	lui	a1,0x55555
     e50:	55458593          	add	a1,a1,1364 # 55555554 <_end+0x55550c14>
     e54:	02b50633          	mul	a2,a0,a1
     e58:	26c12e23          	sw	a2,636(sp)

00000e5c <inst_178>:
     e5c:	00500513          	li	a0,5
     e60:	00000593          	li	a1,0
     e64:	02b50633          	mul	a2,a0,a1
     e68:	28c12023          	sw	a2,640(sp)

00000e6c <inst_179>:
     e6c:	00500513          	li	a0,5
     e70:	00400593          	li	a1,4
     e74:	02b50633          	mul	a2,a0,a1
     e78:	28c12223          	sw	a2,644(sp)

00000e7c <inst_180>:
     e7c:	00500513          	li	a0,5
     e80:	333335b7          	lui	a1,0x33333
     e84:	33258593          	add	a1,a1,818 # 33333332 <_end+0x3332e9f2>
     e88:	02b50633          	mul	a2,a0,a1
     e8c:	28c12423          	sw	a2,648(sp)

00000e90 <inst_181>:
     e90:	00500513          	li	a0,5
     e94:	666665b7          	lui	a1,0x66666
     e98:	66558593          	add	a1,a1,1637 # 66666665 <_end+0x66661d25>
     e9c:	02b50633          	mul	a2,a0,a1
     ea0:	28c12623          	sw	a2,652(sp)

00000ea4 <inst_182>:
     ea4:	00500513          	li	a0,5
     ea8:	0000b5b7          	lui	a1,0xb
     eac:	50358593          	add	a1,a1,1283 # b503 <_end+0x6bc3>
     eb0:	02b50633          	mul	a2,a0,a1
     eb4:	28c12823          	sw	a2,656(sp)

00000eb8 <inst_183>:
     eb8:	00500513          	li	a0,5
     ebc:	555555b7          	lui	a1,0x55555
     ec0:	55658593          	add	a1,a1,1366 # 55555556 <_end+0x55550c16>
     ec4:	02b50633          	mul	a2,a0,a1
     ec8:	28c12a23          	sw	a2,660(sp)

00000ecc <inst_184>:
     ecc:	00500513          	li	a0,5
     ed0:	aaaab5b7          	lui	a1,0xaaaab
     ed4:	aab58593          	add	a1,a1,-1365 # aaaaaaab <_end+0xaaaa616b>
     ed8:	02b50633          	mul	a2,a0,a1
     edc:	28c12c23          	sw	a2,664(sp)

00000ee0 <inst_185>:
     ee0:	00500513          	li	a0,5
     ee4:	00600593          	li	a1,6
     ee8:	02b50633          	mul	a2,a0,a1
     eec:	28c12e23          	sw	a2,668(sp)

00000ef0 <inst_186>:
     ef0:	00500513          	li	a0,5
     ef4:	333335b7          	lui	a1,0x33333
     ef8:	33458593          	add	a1,a1,820 # 33333334 <_end+0x3332e9f4>
     efc:	02b50633          	mul	a2,a0,a1
     f00:	2ac12023          	sw	a2,672(sp)

00000f04 <inst_187>:
     f04:	00500513          	li	a0,5
     f08:	666665b7          	lui	a1,0x66666
     f0c:	66758593          	add	a1,a1,1639 # 66666667 <_end+0x66661d27>
     f10:	02b50633          	mul	a2,a0,a1
     f14:	2ac12223          	sw	a2,676(sp)

00000f18 <inst_188>:
     f18:	00500513          	li	a0,5
     f1c:	ffff55b7          	lui	a1,0xffff5
     f20:	afd58593          	add	a1,a1,-1283 # ffff4afd <_end+0xffff01bd>
     f24:	02b50633          	mul	a2,a0,a1
     f28:	2ac12423          	sw	a2,680(sp)

00000f2c <inst_189>:
     f2c:	00500513          	li	a0,5
     f30:	0000b5b7          	lui	a1,0xb
     f34:	50558593          	add	a1,a1,1285 # b505 <_end+0x6bc5>
     f38:	02b50633          	mul	a2,a0,a1
     f3c:	2ac12623          	sw	a2,684(sp)

00000f40 <inst_190>:
     f40:	33333537          	lui	a0,0x33333
     f44:	33350513          	add	a0,a0,819 # 33333333 <_end+0x3332e9f3>
     f48:	00300593          	li	a1,3
     f4c:	02b50633          	mul	a2,a0,a1
     f50:	2ac12823          	sw	a2,688(sp)

00000f54 <inst_191>:
     f54:	33333537          	lui	a0,0x33333
     f58:	33350513          	add	a0,a0,819 # 33333333 <_end+0x3332e9f3>
     f5c:	555555b7          	lui	a1,0x55555
     f60:	55558593          	add	a1,a1,1365 # 55555555 <_end+0x55550c15>
     f64:	02b50633          	mul	a2,a0,a1
     f68:	2ac12a23          	sw	a2,692(sp)

00000f6c <inst_192>:
     f6c:	33333537          	lui	a0,0x33333
     f70:	33350513          	add	a0,a0,819 # 33333333 <_end+0x3332e9f3>
     f74:	aaaab5b7          	lui	a1,0xaaaab
     f78:	aaa58593          	add	a1,a1,-1366 # aaaaaaaa <_end+0xaaaa616a>
     f7c:	02b50633          	mul	a2,a0,a1
     f80:	2ac12c23          	sw	a2,696(sp)

00000f84 <inst_193>:
     f84:	33333537          	lui	a0,0x33333
     f88:	33350513          	add	a0,a0,819 # 33333333 <_end+0x3332e9f3>
     f8c:	00500593          	li	a1,5
     f90:	02b50633          	mul	a2,a0,a1
     f94:	2ac12e23          	sw	a2,700(sp)

00000f98 <inst_194>:
     f98:	33333537          	lui	a0,0x33333
     f9c:	33350513          	add	a0,a0,819 # 33333333 <_end+0x3332e9f3>
     fa0:	333335b7          	lui	a1,0x33333
     fa4:	33358593          	add	a1,a1,819 # 33333333 <_end+0x3332e9f3>
     fa8:	02b50633          	mul	a2,a0,a1
     fac:	2cc12023          	sw	a2,704(sp)

00000fb0 <inst_195>:
     fb0:	33333537          	lui	a0,0x33333
     fb4:	33350513          	add	a0,a0,819 # 33333333 <_end+0x3332e9f3>
     fb8:	666665b7          	lui	a1,0x66666
     fbc:	66658593          	add	a1,a1,1638 # 66666666 <_end+0x66661d26>
     fc0:	02b50633          	mul	a2,a0,a1
     fc4:	2cc12223          	sw	a2,708(sp)

00000fc8 <inst_196>:
     fc8:	33333537          	lui	a0,0x33333
     fcc:	33350513          	add	a0,a0,819 # 33333333 <_end+0x3332e9f3>
     fd0:	ffff55b7          	lui	a1,0xffff5
     fd4:	afc58593          	add	a1,a1,-1284 # ffff4afc <_end+0xffff01bc>
     fd8:	02b50633          	mul	a2,a0,a1
     fdc:	2cc12423          	sw	a2,712(sp)

00000fe0 <inst_197>:
     fe0:	33333537          	lui	a0,0x33333
     fe4:	33350513          	add	a0,a0,819 # 33333333 <_end+0x3332e9f3>
     fe8:	0000b5b7          	lui	a1,0xb
     fec:	50458593          	add	a1,a1,1284 # b504 <_end+0x6bc4>
     ff0:	02b50633          	mul	a2,a0,a1
     ff4:	2cc12623          	sw	a2,716(sp)

00000ff8 <inst_198>:
     ff8:	33333537          	lui	a0,0x33333
     ffc:	33350513          	add	a0,a0,819 # 33333333 <_end+0x3332e9f3>
    1000:	00200593          	li	a1,2
    1004:	02b50633          	mul	a2,a0,a1
    1008:	2cc12823          	sw	a2,720(sp)

0000100c <inst_199>:
    100c:	33333537          	lui	a0,0x33333
    1010:	33350513          	add	a0,a0,819 # 33333333 <_end+0x3332e9f3>
    1014:	555555b7          	lui	a1,0x55555
    1018:	55458593          	add	a1,a1,1364 # 55555554 <_end+0x55550c14>
    101c:	02b50633          	mul	a2,a0,a1
    1020:	2cc12a23          	sw	a2,724(sp)

00001024 <inst_200>:
    1024:	33333537          	lui	a0,0x33333
    1028:	33350513          	add	a0,a0,819 # 33333333 <_end+0x3332e9f3>
    102c:	00000593          	li	a1,0
    1030:	02b50633          	mul	a2,a0,a1
    1034:	2cc12c23          	sw	a2,728(sp)

00001038 <inst_201>:
    1038:	33333537          	lui	a0,0x33333
    103c:	33350513          	add	a0,a0,819 # 33333333 <_end+0x3332e9f3>
    1040:	00400593          	li	a1,4
    1044:	02b50633          	mul	a2,a0,a1
    1048:	2cc12e23          	sw	a2,732(sp)

0000104c <inst_202>:
    104c:	33333537          	lui	a0,0x33333
    1050:	33350513          	add	a0,a0,819 # 33333333 <_end+0x3332e9f3>
    1054:	333335b7          	lui	a1,0x33333
    1058:	33258593          	add	a1,a1,818 # 33333332 <_end+0x3332e9f2>
    105c:	02b50633          	mul	a2,a0,a1
    1060:	2ec12023          	sw	a2,736(sp)

00001064 <inst_203>:
    1064:	33333537          	lui	a0,0x33333
    1068:	33350513          	add	a0,a0,819 # 33333333 <_end+0x3332e9f3>
    106c:	666665b7          	lui	a1,0x66666
    1070:	66558593          	add	a1,a1,1637 # 66666665 <_end+0x66661d25>
    1074:	02b50633          	mul	a2,a0,a1
    1078:	2ec12223          	sw	a2,740(sp)

0000107c <inst_204>:
    107c:	33333537          	lui	a0,0x33333
    1080:	33350513          	add	a0,a0,819 # 33333333 <_end+0x3332e9f3>
    1084:	0000b5b7          	lui	a1,0xb
    1088:	50358593          	add	a1,a1,1283 # b503 <_end+0x6bc3>
    108c:	02b50633          	mul	a2,a0,a1
    1090:	2ec12423          	sw	a2,744(sp)

00001094 <inst_205>:
    1094:	33333537          	lui	a0,0x33333
    1098:	33350513          	add	a0,a0,819 # 33333333 <_end+0x3332e9f3>
    109c:	555555b7          	lui	a1,0x55555
    10a0:	55658593          	add	a1,a1,1366 # 55555556 <_end+0x55550c16>
    10a4:	02b50633          	mul	a2,a0,a1
    10a8:	2ec12623          	sw	a2,748(sp)

000010ac <inst_206>:
    10ac:	33333537          	lui	a0,0x33333
    10b0:	33350513          	add	a0,a0,819 # 33333333 <_end+0x3332e9f3>
    10b4:	aaaab5b7          	lui	a1,0xaaaab
    10b8:	aab58593          	add	a1,a1,-1365 # aaaaaaab <_end+0xaaaa616b>
    10bc:	02b50633          	mul	a2,a0,a1
    10c0:	2ec12823          	sw	a2,752(sp)

000010c4 <inst_207>:
    10c4:	33333537          	lui	a0,0x33333
    10c8:	33350513          	add	a0,a0,819 # 33333333 <_end+0x3332e9f3>
    10cc:	00600593          	li	a1,6
    10d0:	02b50633          	mul	a2,a0,a1
    10d4:	2ec12a23          	sw	a2,756(sp)

000010d8 <inst_208>:
    10d8:	33333537          	lui	a0,0x33333
    10dc:	33350513          	add	a0,a0,819 # 33333333 <_end+0x3332e9f3>
    10e0:	333335b7          	lui	a1,0x33333
    10e4:	33458593          	add	a1,a1,820 # 33333334 <_end+0x3332e9f4>
    10e8:	02b50633          	mul	a2,a0,a1
    10ec:	2ec12c23          	sw	a2,760(sp)

000010f0 <inst_209>:
    10f0:	33333537          	lui	a0,0x33333
    10f4:	33350513          	add	a0,a0,819 # 33333333 <_end+0x3332e9f3>
    10f8:	666665b7          	lui	a1,0x66666
    10fc:	66758593          	add	a1,a1,1639 # 66666667 <_end+0x66661d27>
    1100:	02b50633          	mul	a2,a0,a1
    1104:	2ec12e23          	sw	a2,764(sp)

00001108 <inst_210>:
    1108:	33333537          	lui	a0,0x33333
    110c:	33350513          	add	a0,a0,819 # 33333333 <_end+0x3332e9f3>
    1110:	ffff55b7          	lui	a1,0xffff5
    1114:	afd58593          	add	a1,a1,-1283 # ffff4afd <_end+0xffff01bd>
    1118:	02b50633          	mul	a2,a0,a1
    111c:	30c12023          	sw	a2,768(sp)

00001120 <inst_211>:
    1120:	33333537          	lui	a0,0x33333
    1124:	33350513          	add	a0,a0,819 # 33333333 <_end+0x3332e9f3>
    1128:	0000b5b7          	lui	a1,0xb
    112c:	50558593          	add	a1,a1,1285 # b505 <_end+0x6bc5>
    1130:	02b50633          	mul	a2,a0,a1
    1134:	30c12223          	sw	a2,772(sp)

00001138 <inst_212>:
    1138:	66666537          	lui	a0,0x66666
    113c:	66650513          	add	a0,a0,1638 # 66666666 <_end+0x66661d26>
    1140:	00300593          	li	a1,3
    1144:	02b50633          	mul	a2,a0,a1
    1148:	30c12423          	sw	a2,776(sp)

0000114c <inst_213>:
    114c:	66666537          	lui	a0,0x66666
    1150:	66650513          	add	a0,a0,1638 # 66666666 <_end+0x66661d26>
    1154:	555555b7          	lui	a1,0x55555
    1158:	55558593          	add	a1,a1,1365 # 55555555 <_end+0x55550c15>
    115c:	02b50633          	mul	a2,a0,a1
    1160:	30c12623          	sw	a2,780(sp)

00001164 <inst_214>:
    1164:	66666537          	lui	a0,0x66666
    1168:	66650513          	add	a0,a0,1638 # 66666666 <_end+0x66661d26>
    116c:	aaaab5b7          	lui	a1,0xaaaab
    1170:	aaa58593          	add	a1,a1,-1366 # aaaaaaaa <_end+0xaaaa616a>
    1174:	02b50633          	mul	a2,a0,a1
    1178:	30c12823          	sw	a2,784(sp)

0000117c <inst_215>:
    117c:	66666537          	lui	a0,0x66666
    1180:	66650513          	add	a0,a0,1638 # 66666666 <_end+0x66661d26>
    1184:	00500593          	li	a1,5
    1188:	02b50633          	mul	a2,a0,a1
    118c:	30c12a23          	sw	a2,788(sp)

00001190 <inst_216>:
    1190:	66666537          	lui	a0,0x66666
    1194:	66650513          	add	a0,a0,1638 # 66666666 <_end+0x66661d26>
    1198:	333335b7          	lui	a1,0x33333
    119c:	33358593          	add	a1,a1,819 # 33333333 <_end+0x3332e9f3>
    11a0:	02b50633          	mul	a2,a0,a1
    11a4:	30c12c23          	sw	a2,792(sp)

000011a8 <inst_217>:
    11a8:	66666537          	lui	a0,0x66666
    11ac:	66650513          	add	a0,a0,1638 # 66666666 <_end+0x66661d26>
    11b0:	666665b7          	lui	a1,0x66666
    11b4:	66658593          	add	a1,a1,1638 # 66666666 <_end+0x66661d26>
    11b8:	02b50633          	mul	a2,a0,a1
    11bc:	30c12e23          	sw	a2,796(sp)

000011c0 <inst_218>:
    11c0:	66666537          	lui	a0,0x66666
    11c4:	66650513          	add	a0,a0,1638 # 66666666 <_end+0x66661d26>
    11c8:	ffff55b7          	lui	a1,0xffff5
    11cc:	afc58593          	add	a1,a1,-1284 # ffff4afc <_end+0xffff01bc>
    11d0:	02b50633          	mul	a2,a0,a1
    11d4:	32c12023          	sw	a2,800(sp)

000011d8 <inst_219>:
    11d8:	66666537          	lui	a0,0x66666
    11dc:	66650513          	add	a0,a0,1638 # 66666666 <_end+0x66661d26>
    11e0:	0000b5b7          	lui	a1,0xb
    11e4:	50458593          	add	a1,a1,1284 # b504 <_end+0x6bc4>
    11e8:	02b50633          	mul	a2,a0,a1
    11ec:	32c12223          	sw	a2,804(sp)

000011f0 <inst_220>:
    11f0:	66666537          	lui	a0,0x66666
    11f4:	66650513          	add	a0,a0,1638 # 66666666 <_end+0x66661d26>
    11f8:	00200593          	li	a1,2
    11fc:	02b50633          	mul	a2,a0,a1
    1200:	32c12423          	sw	a2,808(sp)

00001204 <inst_221>:
    1204:	66666537          	lui	a0,0x66666
    1208:	66650513          	add	a0,a0,1638 # 66666666 <_end+0x66661d26>
    120c:	555555b7          	lui	a1,0x55555
    1210:	55458593          	add	a1,a1,1364 # 55555554 <_end+0x55550c14>
    1214:	02b50633          	mul	a2,a0,a1
    1218:	32c12623          	sw	a2,812(sp)

0000121c <inst_222>:
    121c:	66666537          	lui	a0,0x66666
    1220:	66650513          	add	a0,a0,1638 # 66666666 <_end+0x66661d26>
    1224:	00000593          	li	a1,0
    1228:	02b50633          	mul	a2,a0,a1
    122c:	32c12823          	sw	a2,816(sp)

00001230 <inst_223>:
    1230:	66666537          	lui	a0,0x66666
    1234:	66650513          	add	a0,a0,1638 # 66666666 <_end+0x66661d26>
    1238:	00400593          	li	a1,4
    123c:	02b50633          	mul	a2,a0,a1
    1240:	32c12a23          	sw	a2,820(sp)

00001244 <inst_224>:
    1244:	66666537          	lui	a0,0x66666
    1248:	66650513          	add	a0,a0,1638 # 66666666 <_end+0x66661d26>
    124c:	333335b7          	lui	a1,0x33333
    1250:	33258593          	add	a1,a1,818 # 33333332 <_end+0x3332e9f2>
    1254:	02b50633          	mul	a2,a0,a1
    1258:	32c12c23          	sw	a2,824(sp)

0000125c <inst_225>:
    125c:	66666537          	lui	a0,0x66666
    1260:	66650513          	add	a0,a0,1638 # 66666666 <_end+0x66661d26>
    1264:	666665b7          	lui	a1,0x66666
    1268:	66558593          	add	a1,a1,1637 # 66666665 <_end+0x66661d25>
    126c:	02b50633          	mul	a2,a0,a1
    1270:	32c12e23          	sw	a2,828(sp)

00001274 <inst_226>:
    1274:	66666537          	lui	a0,0x66666
    1278:	66650513          	add	a0,a0,1638 # 66666666 <_end+0x66661d26>
    127c:	0000b5b7          	lui	a1,0xb
    1280:	50358593          	add	a1,a1,1283 # b503 <_end+0x6bc3>
    1284:	02b50633          	mul	a2,a0,a1
    1288:	34c12023          	sw	a2,832(sp)

0000128c <inst_227>:
    128c:	66666537          	lui	a0,0x66666
    1290:	66650513          	add	a0,a0,1638 # 66666666 <_end+0x66661d26>
    1294:	555555b7          	lui	a1,0x55555
    1298:	55658593          	add	a1,a1,1366 # 55555556 <_end+0x55550c16>
    129c:	02b50633          	mul	a2,a0,a1
    12a0:	34c12223          	sw	a2,836(sp)

000012a4 <inst_228>:
    12a4:	66666537          	lui	a0,0x66666
    12a8:	66650513          	add	a0,a0,1638 # 66666666 <_end+0x66661d26>
    12ac:	aaaab5b7          	lui	a1,0xaaaab
    12b0:	aab58593          	add	a1,a1,-1365 # aaaaaaab <_end+0xaaaa616b>
    12b4:	02b50633          	mul	a2,a0,a1
    12b8:	34c12423          	sw	a2,840(sp)

000012bc <inst_229>:
    12bc:	66666537          	lui	a0,0x66666
    12c0:	66650513          	add	a0,a0,1638 # 66666666 <_end+0x66661d26>
    12c4:	00600593          	li	a1,6
    12c8:	02b50633          	mul	a2,a0,a1
    12cc:	34c12623          	sw	a2,844(sp)

000012d0 <inst_230>:
    12d0:	66666537          	lui	a0,0x66666
    12d4:	66650513          	add	a0,a0,1638 # 66666666 <_end+0x66661d26>
    12d8:	333335b7          	lui	a1,0x33333
    12dc:	33458593          	add	a1,a1,820 # 33333334 <_end+0x3332e9f4>
    12e0:	02b50633          	mul	a2,a0,a1
    12e4:	34c12823          	sw	a2,848(sp)

000012e8 <inst_231>:
    12e8:	66666537          	lui	a0,0x66666
    12ec:	66650513          	add	a0,a0,1638 # 66666666 <_end+0x66661d26>
    12f0:	666665b7          	lui	a1,0x66666
    12f4:	66758593          	add	a1,a1,1639 # 66666667 <_end+0x66661d27>
    12f8:	02b50633          	mul	a2,a0,a1
    12fc:	34c12a23          	sw	a2,852(sp)

00001300 <inst_232>:
    1300:	66666537          	lui	a0,0x66666
    1304:	66650513          	add	a0,a0,1638 # 66666666 <_end+0x66661d26>
    1308:	ffff55b7          	lui	a1,0xffff5
    130c:	afd58593          	add	a1,a1,-1283 # ffff4afd <_end+0xffff01bd>
    1310:	02b50633          	mul	a2,a0,a1
    1314:	34c12c23          	sw	a2,856(sp)

00001318 <inst_233>:
    1318:	66666537          	lui	a0,0x66666
    131c:	66650513          	add	a0,a0,1638 # 66666666 <_end+0x66661d26>
    1320:	0000b5b7          	lui	a1,0xb
    1324:	50558593          	add	a1,a1,1285 # b505 <_end+0x6bc5>
    1328:	02b50633          	mul	a2,a0,a1
    132c:	34c12e23          	sw	a2,860(sp)

00001330 <inst_234>:
    1330:	ffff5537          	lui	a0,0xffff5
    1334:	afc50513          	add	a0,a0,-1284 # ffff4afc <_end+0xffff01bc>
    1338:	00300593          	li	a1,3
    133c:	02b50633          	mul	a2,a0,a1
    1340:	36c12023          	sw	a2,864(sp)

00001344 <inst_235>:
    1344:	ffff5537          	lui	a0,0xffff5
    1348:	afc50513          	add	a0,a0,-1284 # ffff4afc <_end+0xffff01bc>
    134c:	555555b7          	lui	a1,0x55555
    1350:	55558593          	add	a1,a1,1365 # 55555555 <_end+0x55550c15>
    1354:	02b50633          	mul	a2,a0,a1
    1358:	36c12223          	sw	a2,868(sp)

0000135c <inst_236>:
    135c:	ffff5537          	lui	a0,0xffff5
    1360:	afc50513          	add	a0,a0,-1284 # ffff4afc <_end+0xffff01bc>
    1364:	aaaab5b7          	lui	a1,0xaaaab
    1368:	aaa58593          	add	a1,a1,-1366 # aaaaaaaa <_end+0xaaaa616a>
    136c:	02b50633          	mul	a2,a0,a1
    1370:	36c12423          	sw	a2,872(sp)

00001374 <inst_237>:
    1374:	ffff5537          	lui	a0,0xffff5
    1378:	afc50513          	add	a0,a0,-1284 # ffff4afc <_end+0xffff01bc>
    137c:	00500593          	li	a1,5
    1380:	02b50633          	mul	a2,a0,a1
    1384:	36c12623          	sw	a2,876(sp)

00001388 <inst_238>:
    1388:	ffff5537          	lui	a0,0xffff5
    138c:	afc50513          	add	a0,a0,-1284 # ffff4afc <_end+0xffff01bc>
    1390:	333335b7          	lui	a1,0x33333
    1394:	33358593          	add	a1,a1,819 # 33333333 <_end+0x3332e9f3>
    1398:	02b50633          	mul	a2,a0,a1
    139c:	36c12823          	sw	a2,880(sp)

000013a0 <inst_239>:
    13a0:	ffff5537          	lui	a0,0xffff5
    13a4:	afc50513          	add	a0,a0,-1284 # ffff4afc <_end+0xffff01bc>
    13a8:	666665b7          	lui	a1,0x66666
    13ac:	66658593          	add	a1,a1,1638 # 66666666 <_end+0x66661d26>
    13b0:	02b50633          	mul	a2,a0,a1
    13b4:	36c12a23          	sw	a2,884(sp)

000013b8 <inst_240>:
    13b8:	ffff5537          	lui	a0,0xffff5
    13bc:	afc50513          	add	a0,a0,-1284 # ffff4afc <_end+0xffff01bc>
    13c0:	ffff55b7          	lui	a1,0xffff5
    13c4:	afc58593          	add	a1,a1,-1284 # ffff4afc <_end+0xffff01bc>
    13c8:	02b50633          	mul	a2,a0,a1
    13cc:	36c12c23          	sw	a2,888(sp)

000013d0 <inst_241>:
    13d0:	ffff5537          	lui	a0,0xffff5
    13d4:	afc50513          	add	a0,a0,-1284 # ffff4afc <_end+0xffff01bc>
    13d8:	0000b5b7          	lui	a1,0xb
    13dc:	50458593          	add	a1,a1,1284 # b504 <_end+0x6bc4>
    13e0:	02b50633          	mul	a2,a0,a1
    13e4:	36c12e23          	sw	a2,892(sp)

000013e8 <inst_242>:
    13e8:	ffff5537          	lui	a0,0xffff5
    13ec:	afc50513          	add	a0,a0,-1284 # ffff4afc <_end+0xffff01bc>
    13f0:	00200593          	li	a1,2
    13f4:	02b50633          	mul	a2,a0,a1
    13f8:	38c12023          	sw	a2,896(sp)

000013fc <inst_243>:
    13fc:	ffff5537          	lui	a0,0xffff5
    1400:	afc50513          	add	a0,a0,-1284 # ffff4afc <_end+0xffff01bc>
    1404:	555555b7          	lui	a1,0x55555
    1408:	55458593          	add	a1,a1,1364 # 55555554 <_end+0x55550c14>
    140c:	02b50633          	mul	a2,a0,a1
    1410:	38c12223          	sw	a2,900(sp)

00001414 <inst_244>:
    1414:	ffff5537          	lui	a0,0xffff5
    1418:	afc50513          	add	a0,a0,-1284 # ffff4afc <_end+0xffff01bc>
    141c:	00000593          	li	a1,0
    1420:	02b50633          	mul	a2,a0,a1
    1424:	38c12423          	sw	a2,904(sp)

00001428 <inst_245>:
    1428:	ffff5537          	lui	a0,0xffff5
    142c:	afc50513          	add	a0,a0,-1284 # ffff4afc <_end+0xffff01bc>
    1430:	00400593          	li	a1,4
    1434:	02b50633          	mul	a2,a0,a1
    1438:	38c12623          	sw	a2,908(sp)

0000143c <inst_246>:
    143c:	ffff5537          	lui	a0,0xffff5
    1440:	afc50513          	add	a0,a0,-1284 # ffff4afc <_end+0xffff01bc>
    1444:	333335b7          	lui	a1,0x33333
    1448:	33258593          	add	a1,a1,818 # 33333332 <_end+0x3332e9f2>
    144c:	02b50633          	mul	a2,a0,a1
    1450:	38c12823          	sw	a2,912(sp)

00001454 <inst_247>:
    1454:	ffff5537          	lui	a0,0xffff5
    1458:	afc50513          	add	a0,a0,-1284 # ffff4afc <_end+0xffff01bc>
    145c:	666665b7          	lui	a1,0x66666
    1460:	66558593          	add	a1,a1,1637 # 66666665 <_end+0x66661d25>
    1464:	02b50633          	mul	a2,a0,a1
    1468:	38c12a23          	sw	a2,916(sp)

0000146c <inst_248>:
    146c:	ffff5537          	lui	a0,0xffff5
    1470:	afc50513          	add	a0,a0,-1284 # ffff4afc <_end+0xffff01bc>
    1474:	0000b5b7          	lui	a1,0xb
    1478:	50358593          	add	a1,a1,1283 # b503 <_end+0x6bc3>
    147c:	02b50633          	mul	a2,a0,a1
    1480:	38c12c23          	sw	a2,920(sp)

00001484 <inst_249>:
    1484:	ffff5537          	lui	a0,0xffff5
    1488:	afc50513          	add	a0,a0,-1284 # ffff4afc <_end+0xffff01bc>
    148c:	555555b7          	lui	a1,0x55555
    1490:	55658593          	add	a1,a1,1366 # 55555556 <_end+0x55550c16>
    1494:	02b50633          	mul	a2,a0,a1
    1498:	38c12e23          	sw	a2,924(sp)

0000149c <inst_250>:
    149c:	ffff5537          	lui	a0,0xffff5
    14a0:	afc50513          	add	a0,a0,-1284 # ffff4afc <_end+0xffff01bc>
    14a4:	aaaab5b7          	lui	a1,0xaaaab
    14a8:	aab58593          	add	a1,a1,-1365 # aaaaaaab <_end+0xaaaa616b>
    14ac:	02b50633          	mul	a2,a0,a1
    14b0:	3ac12023          	sw	a2,928(sp)

000014b4 <inst_251>:
    14b4:	ffff5537          	lui	a0,0xffff5
    14b8:	afc50513          	add	a0,a0,-1284 # ffff4afc <_end+0xffff01bc>
    14bc:	00600593          	li	a1,6
    14c0:	02b50633          	mul	a2,a0,a1
    14c4:	3ac12223          	sw	a2,932(sp)

000014c8 <inst_252>:
    14c8:	ffff5537          	lui	a0,0xffff5
    14cc:	afc50513          	add	a0,a0,-1284 # ffff4afc <_end+0xffff01bc>
    14d0:	333335b7          	lui	a1,0x33333
    14d4:	33458593          	add	a1,a1,820 # 33333334 <_end+0x3332e9f4>
    14d8:	02b50633          	mul	a2,a0,a1
    14dc:	3ac12423          	sw	a2,936(sp)

000014e0 <inst_253>:
    14e0:	ffff5537          	lui	a0,0xffff5
    14e4:	afc50513          	add	a0,a0,-1284 # ffff4afc <_end+0xffff01bc>
    14e8:	666665b7          	lui	a1,0x66666
    14ec:	66758593          	add	a1,a1,1639 # 66666667 <_end+0x66661d27>
    14f0:	02b50633          	mul	a2,a0,a1
    14f4:	3ac12623          	sw	a2,940(sp)

000014f8 <inst_254>:
    14f8:	ffff5537          	lui	a0,0xffff5
    14fc:	afc50513          	add	a0,a0,-1284 # ffff4afc <_end+0xffff01bc>
    1500:	ffff55b7          	lui	a1,0xffff5
    1504:	afd58593          	add	a1,a1,-1283 # ffff4afd <_end+0xffff01bd>
    1508:	02b50633          	mul	a2,a0,a1
    150c:	3ac12823          	sw	a2,944(sp)

00001510 <inst_255>:
    1510:	ffff5537          	lui	a0,0xffff5
    1514:	afc50513          	add	a0,a0,-1284 # ffff4afc <_end+0xffff01bc>
    1518:	0000b5b7          	lui	a1,0xb
    151c:	50558593          	add	a1,a1,1285 # b505 <_end+0x6bc5>
    1520:	02b50633          	mul	a2,a0,a1
    1524:	3ac12a23          	sw	a2,948(sp)

00001528 <inst_256>:
    1528:	0000b537          	lui	a0,0xb
    152c:	50450513          	add	a0,a0,1284 # b504 <_end+0x6bc4>
    1530:	00300593          	li	a1,3
    1534:	02b50633          	mul	a2,a0,a1
    1538:	3ac12c23          	sw	a2,952(sp)

0000153c <inst_257>:
    153c:	0000b537          	lui	a0,0xb
    1540:	50450513          	add	a0,a0,1284 # b504 <_end+0x6bc4>
    1544:	555555b7          	lui	a1,0x55555
    1548:	55558593          	add	a1,a1,1365 # 55555555 <_end+0x55550c15>
    154c:	02b50633          	mul	a2,a0,a1
    1550:	3ac12e23          	sw	a2,956(sp)

00001554 <inst_258>:
    1554:	0000b537          	lui	a0,0xb
    1558:	50450513          	add	a0,a0,1284 # b504 <_end+0x6bc4>
    155c:	aaaab5b7          	lui	a1,0xaaaab
    1560:	aaa58593          	add	a1,a1,-1366 # aaaaaaaa <_end+0xaaaa616a>
    1564:	02b50633          	mul	a2,a0,a1
    1568:	3cc12023          	sw	a2,960(sp)

0000156c <inst_259>:
    156c:	0000b537          	lui	a0,0xb
    1570:	50450513          	add	a0,a0,1284 # b504 <_end+0x6bc4>
    1574:	00500593          	li	a1,5
    1578:	02b50633          	mul	a2,a0,a1
    157c:	3cc12223          	sw	a2,964(sp)

00001580 <inst_260>:
    1580:	0000b537          	lui	a0,0xb
    1584:	50450513          	add	a0,a0,1284 # b504 <_end+0x6bc4>
    1588:	333335b7          	lui	a1,0x33333
    158c:	33358593          	add	a1,a1,819 # 33333333 <_end+0x3332e9f3>
    1590:	02b50633          	mul	a2,a0,a1
    1594:	3cc12423          	sw	a2,968(sp)

00001598 <inst_261>:
    1598:	0000b537          	lui	a0,0xb
    159c:	50450513          	add	a0,a0,1284 # b504 <_end+0x6bc4>
    15a0:	666665b7          	lui	a1,0x66666
    15a4:	66658593          	add	a1,a1,1638 # 66666666 <_end+0x66661d26>
    15a8:	02b50633          	mul	a2,a0,a1
    15ac:	3cc12623          	sw	a2,972(sp)

000015b0 <inst_262>:
    15b0:	0000b537          	lui	a0,0xb
    15b4:	50450513          	add	a0,a0,1284 # b504 <_end+0x6bc4>
    15b8:	ffff55b7          	lui	a1,0xffff5
    15bc:	afc58593          	add	a1,a1,-1284 # ffff4afc <_end+0xffff01bc>
    15c0:	02b50633          	mul	a2,a0,a1
    15c4:	3cc12823          	sw	a2,976(sp)

000015c8 <inst_263>:
    15c8:	0000b537          	lui	a0,0xb
    15cc:	50450513          	add	a0,a0,1284 # b504 <_end+0x6bc4>
    15d0:	0000b5b7          	lui	a1,0xb
    15d4:	50458593          	add	a1,a1,1284 # b504 <_end+0x6bc4>
    15d8:	02b50633          	mul	a2,a0,a1
    15dc:	3cc12a23          	sw	a2,980(sp)

000015e0 <inst_264>:
    15e0:	0000b537          	lui	a0,0xb
    15e4:	50450513          	add	a0,a0,1284 # b504 <_end+0x6bc4>
    15e8:	00200593          	li	a1,2
    15ec:	02b50633          	mul	a2,a0,a1
    15f0:	3cc12c23          	sw	a2,984(sp)

000015f4 <inst_265>:
    15f4:	0000b537          	lui	a0,0xb
    15f8:	50450513          	add	a0,a0,1284 # b504 <_end+0x6bc4>
    15fc:	555555b7          	lui	a1,0x55555
    1600:	55458593          	add	a1,a1,1364 # 55555554 <_end+0x55550c14>
    1604:	02b50633          	mul	a2,a0,a1
    1608:	3cc12e23          	sw	a2,988(sp)

0000160c <inst_266>:
    160c:	0000b537          	lui	a0,0xb
    1610:	50450513          	add	a0,a0,1284 # b504 <_end+0x6bc4>
    1614:	00000593          	li	a1,0
    1618:	02b50633          	mul	a2,a0,a1
    161c:	3ec12023          	sw	a2,992(sp)

00001620 <inst_267>:
    1620:	0000b537          	lui	a0,0xb
    1624:	50450513          	add	a0,a0,1284 # b504 <_end+0x6bc4>
    1628:	00400593          	li	a1,4
    162c:	02b50633          	mul	a2,a0,a1
    1630:	3ec12223          	sw	a2,996(sp)

00001634 <inst_268>:
    1634:	0000b537          	lui	a0,0xb
    1638:	50450513          	add	a0,a0,1284 # b504 <_end+0x6bc4>
    163c:	333335b7          	lui	a1,0x33333
    1640:	33258593          	add	a1,a1,818 # 33333332 <_end+0x3332e9f2>
    1644:	02b50633          	mul	a2,a0,a1
    1648:	3ec12423          	sw	a2,1000(sp)

0000164c <inst_269>:
    164c:	0000b537          	lui	a0,0xb
    1650:	50450513          	add	a0,a0,1284 # b504 <_end+0x6bc4>
    1654:	666665b7          	lui	a1,0x66666
    1658:	66558593          	add	a1,a1,1637 # 66666665 <_end+0x66661d25>
    165c:	02b50633          	mul	a2,a0,a1
    1660:	3ec12623          	sw	a2,1004(sp)

00001664 <inst_270>:
    1664:	0000b537          	lui	a0,0xb
    1668:	50450513          	add	a0,a0,1284 # b504 <_end+0x6bc4>
    166c:	0000b5b7          	lui	a1,0xb
    1670:	50358593          	add	a1,a1,1283 # b503 <_end+0x6bc3>
    1674:	02b50633          	mul	a2,a0,a1
    1678:	3ec12823          	sw	a2,1008(sp)

0000167c <inst_271>:
    167c:	0000b537          	lui	a0,0xb
    1680:	50450513          	add	a0,a0,1284 # b504 <_end+0x6bc4>
    1684:	555555b7          	lui	a1,0x55555
    1688:	55658593          	add	a1,a1,1366 # 55555556 <_end+0x55550c16>
    168c:	02b50633          	mul	a2,a0,a1
    1690:	3ec12a23          	sw	a2,1012(sp)

00001694 <inst_272>:
    1694:	0000b537          	lui	a0,0xb
    1698:	50450513          	add	a0,a0,1284 # b504 <_end+0x6bc4>
    169c:	aaaab5b7          	lui	a1,0xaaaab
    16a0:	aab58593          	add	a1,a1,-1365 # aaaaaaab <_end+0xaaaa616b>
    16a4:	02b50633          	mul	a2,a0,a1
    16a8:	3ec12c23          	sw	a2,1016(sp)

000016ac <inst_273>:
    16ac:	0000b537          	lui	a0,0xb
    16b0:	50450513          	add	a0,a0,1284 # b504 <_end+0x6bc4>
    16b4:	00600593          	li	a1,6
    16b8:	02b50633          	mul	a2,a0,a1
    16bc:	3ec12e23          	sw	a2,1020(sp)

000016c0 <inst_274>:
    16c0:	0000b537          	lui	a0,0xb
    16c4:	50450513          	add	a0,a0,1284 # b504 <_end+0x6bc4>
    16c8:	333335b7          	lui	a1,0x33333
    16cc:	33458593          	add	a1,a1,820 # 33333334 <_end+0x3332e9f4>
    16d0:	02b50633          	mul	a2,a0,a1
    16d4:	40c12023          	sw	a2,1024(sp)

000016d8 <inst_275>:
    16d8:	0000b537          	lui	a0,0xb
    16dc:	50450513          	add	a0,a0,1284 # b504 <_end+0x6bc4>
    16e0:	666665b7          	lui	a1,0x66666
    16e4:	66758593          	add	a1,a1,1639 # 66666667 <_end+0x66661d27>
    16e8:	02b50633          	mul	a2,a0,a1
    16ec:	40c12223          	sw	a2,1028(sp)

000016f0 <inst_276>:
    16f0:	0000b537          	lui	a0,0xb
    16f4:	50450513          	add	a0,a0,1284 # b504 <_end+0x6bc4>
    16f8:	ffff55b7          	lui	a1,0xffff5
    16fc:	afd58593          	add	a1,a1,-1283 # ffff4afd <_end+0xffff01bd>
    1700:	02b50633          	mul	a2,a0,a1
    1704:	40c12423          	sw	a2,1032(sp)

00001708 <inst_277>:
    1708:	0000b537          	lui	a0,0xb
    170c:	50450513          	add	a0,a0,1284 # b504 <_end+0x6bc4>
    1710:	0000b5b7          	lui	a1,0xb
    1714:	50558593          	add	a1,a1,1285 # b505 <_end+0x6bc5>
    1718:	02b50633          	mul	a2,a0,a1
    171c:	40c12623          	sw	a2,1036(sp)

00001720 <inst_278>:
    1720:	00200513          	li	a0,2
    1724:	00300593          	li	a1,3
    1728:	02b50633          	mul	a2,a0,a1
    172c:	40c12823          	sw	a2,1040(sp)

00001730 <inst_279>:
    1730:	00200513          	li	a0,2
    1734:	555555b7          	lui	a1,0x55555
    1738:	55558593          	add	a1,a1,1365 # 55555555 <_end+0x55550c15>
    173c:	02b50633          	mul	a2,a0,a1
    1740:	40c12a23          	sw	a2,1044(sp)

00001744 <inst_280>:
    1744:	00200513          	li	a0,2
    1748:	aaaab5b7          	lui	a1,0xaaaab
    174c:	aaa58593          	add	a1,a1,-1366 # aaaaaaaa <_end+0xaaaa616a>
    1750:	02b50633          	mul	a2,a0,a1
    1754:	40c12c23          	sw	a2,1048(sp)

00001758 <inst_281>:
    1758:	00200513          	li	a0,2
    175c:	00500593          	li	a1,5
    1760:	02b50633          	mul	a2,a0,a1
    1764:	40c12e23          	sw	a2,1052(sp)

00001768 <inst_282>:
    1768:	00200513          	li	a0,2
    176c:	333335b7          	lui	a1,0x33333
    1770:	33358593          	add	a1,a1,819 # 33333333 <_end+0x3332e9f3>
    1774:	02b50633          	mul	a2,a0,a1
    1778:	42c12023          	sw	a2,1056(sp)

0000177c <inst_283>:
    177c:	00200513          	li	a0,2
    1780:	666665b7          	lui	a1,0x66666
    1784:	66658593          	add	a1,a1,1638 # 66666666 <_end+0x66661d26>
    1788:	02b50633          	mul	a2,a0,a1
    178c:	42c12223          	sw	a2,1060(sp)

00001790 <inst_284>:
    1790:	00200513          	li	a0,2
    1794:	ffff55b7          	lui	a1,0xffff5
    1798:	afc58593          	add	a1,a1,-1284 # ffff4afc <_end+0xffff01bc>
    179c:	02b50633          	mul	a2,a0,a1
    17a0:	42c12423          	sw	a2,1064(sp)

000017a4 <inst_285>:
    17a4:	00200513          	li	a0,2
    17a8:	0000b5b7          	lui	a1,0xb
    17ac:	50458593          	add	a1,a1,1284 # b504 <_end+0x6bc4>
    17b0:	02b50633          	mul	a2,a0,a1
    17b4:	42c12623          	sw	a2,1068(sp)

000017b8 <inst_286>:
    17b8:	00200513          	li	a0,2
    17bc:	00200593          	li	a1,2
    17c0:	02b50633          	mul	a2,a0,a1
    17c4:	42c12823          	sw	a2,1072(sp)

000017c8 <inst_287>:
    17c8:	00200513          	li	a0,2
    17cc:	555555b7          	lui	a1,0x55555
    17d0:	55458593          	add	a1,a1,1364 # 55555554 <_end+0x55550c14>
    17d4:	02b50633          	mul	a2,a0,a1
    17d8:	42c12a23          	sw	a2,1076(sp)

000017dc <inst_288>:
    17dc:	00200513          	li	a0,2
    17e0:	00000593          	li	a1,0
    17e4:	02b50633          	mul	a2,a0,a1
    17e8:	42c12c23          	sw	a2,1080(sp)

000017ec <inst_289>:
    17ec:	00200513          	li	a0,2
    17f0:	00400593          	li	a1,4
    17f4:	02b50633          	mul	a2,a0,a1
    17f8:	42c12e23          	sw	a2,1084(sp)

000017fc <inst_290>:
    17fc:	00200513          	li	a0,2
    1800:	333335b7          	lui	a1,0x33333
    1804:	33258593          	add	a1,a1,818 # 33333332 <_end+0x3332e9f2>
    1808:	02b50633          	mul	a2,a0,a1
    180c:	44c12023          	sw	a2,1088(sp)

00001810 <inst_291>:
    1810:	00200513          	li	a0,2
    1814:	666665b7          	lui	a1,0x66666
    1818:	66558593          	add	a1,a1,1637 # 66666665 <_end+0x66661d25>
    181c:	02b50633          	mul	a2,a0,a1
    1820:	44c12223          	sw	a2,1092(sp)

00001824 <inst_292>:
    1824:	00200513          	li	a0,2
    1828:	0000b5b7          	lui	a1,0xb
    182c:	50358593          	add	a1,a1,1283 # b503 <_end+0x6bc3>
    1830:	02b50633          	mul	a2,a0,a1
    1834:	44c12423          	sw	a2,1096(sp)

00001838 <inst_293>:
    1838:	00200513          	li	a0,2
    183c:	555555b7          	lui	a1,0x55555
    1840:	55658593          	add	a1,a1,1366 # 55555556 <_end+0x55550c16>
    1844:	02b50633          	mul	a2,a0,a1
    1848:	44c12623          	sw	a2,1100(sp)

0000184c <inst_294>:
    184c:	00200513          	li	a0,2
    1850:	aaaab5b7          	lui	a1,0xaaaab
    1854:	aab58593          	add	a1,a1,-1365 # aaaaaaab <_end+0xaaaa616b>
    1858:	02b50633          	mul	a2,a0,a1
    185c:	44c12823          	sw	a2,1104(sp)

00001860 <inst_295>:
    1860:	00200513          	li	a0,2
    1864:	00600593          	li	a1,6
    1868:	02b50633          	mul	a2,a0,a1
    186c:	44c12a23          	sw	a2,1108(sp)

00001870 <inst_296>:
    1870:	00200513          	li	a0,2
    1874:	333335b7          	lui	a1,0x33333
    1878:	33458593          	add	a1,a1,820 # 33333334 <_end+0x3332e9f4>
    187c:	02b50633          	mul	a2,a0,a1
    1880:	44c12c23          	sw	a2,1112(sp)

00001884 <inst_297>:
    1884:	00200513          	li	a0,2
    1888:	666665b7          	lui	a1,0x66666
    188c:	66758593          	add	a1,a1,1639 # 66666667 <_end+0x66661d27>
    1890:	02b50633          	mul	a2,a0,a1
    1894:	44c12e23          	sw	a2,1116(sp)

00001898 <inst_298>:
    1898:	00200513          	li	a0,2
    189c:	ffff55b7          	lui	a1,0xffff5
    18a0:	afd58593          	add	a1,a1,-1283 # ffff4afd <_end+0xffff01bd>
    18a4:	02b50633          	mul	a2,a0,a1
    18a8:	46c12023          	sw	a2,1120(sp)

000018ac <inst_299>:
    18ac:	00200513          	li	a0,2
    18b0:	0000b5b7          	lui	a1,0xb
    18b4:	50558593          	add	a1,a1,1285 # b505 <_end+0x6bc5>
    18b8:	02b50633          	mul	a2,a0,a1
    18bc:	46c12223          	sw	a2,1124(sp)

000018c0 <inst_300>:
    18c0:	55555537          	lui	a0,0x55555
    18c4:	55450513          	add	a0,a0,1364 # 55555554 <_end+0x55550c14>
    18c8:	00300593          	li	a1,3
    18cc:	02b50633          	mul	a2,a0,a1
    18d0:	46c12423          	sw	a2,1128(sp)

000018d4 <inst_301>:
    18d4:	55555537          	lui	a0,0x55555
    18d8:	55450513          	add	a0,a0,1364 # 55555554 <_end+0x55550c14>
    18dc:	555555b7          	lui	a1,0x55555
    18e0:	55558593          	add	a1,a1,1365 # 55555555 <_end+0x55550c15>
    18e4:	02b50633          	mul	a2,a0,a1
    18e8:	46c12623          	sw	a2,1132(sp)

000018ec <inst_302>:
    18ec:	55555537          	lui	a0,0x55555
    18f0:	55450513          	add	a0,a0,1364 # 55555554 <_end+0x55550c14>
    18f4:	aaaab5b7          	lui	a1,0xaaaab
    18f8:	aaa58593          	add	a1,a1,-1366 # aaaaaaaa <_end+0xaaaa616a>
    18fc:	02b50633          	mul	a2,a0,a1
    1900:	46c12823          	sw	a2,1136(sp)

00001904 <inst_303>:
    1904:	55555537          	lui	a0,0x55555
    1908:	55450513          	add	a0,a0,1364 # 55555554 <_end+0x55550c14>
    190c:	00500593          	li	a1,5
    1910:	02b50633          	mul	a2,a0,a1
    1914:	46c12a23          	sw	a2,1140(sp)

00001918 <inst_304>:
    1918:	55555537          	lui	a0,0x55555
    191c:	55450513          	add	a0,a0,1364 # 55555554 <_end+0x55550c14>
    1920:	333335b7          	lui	a1,0x33333
    1924:	33358593          	add	a1,a1,819 # 33333333 <_end+0x3332e9f3>
    1928:	02b50633          	mul	a2,a0,a1
    192c:	46c12c23          	sw	a2,1144(sp)

00001930 <inst_305>:
    1930:	55555537          	lui	a0,0x55555
    1934:	55450513          	add	a0,a0,1364 # 55555554 <_end+0x55550c14>
    1938:	666665b7          	lui	a1,0x66666
    193c:	66658593          	add	a1,a1,1638 # 66666666 <_end+0x66661d26>
    1940:	02b50633          	mul	a2,a0,a1
    1944:	46c12e23          	sw	a2,1148(sp)

00001948 <inst_306>:
    1948:	55555537          	lui	a0,0x55555
    194c:	55450513          	add	a0,a0,1364 # 55555554 <_end+0x55550c14>
    1950:	ffff55b7          	lui	a1,0xffff5
    1954:	afc58593          	add	a1,a1,-1284 # ffff4afc <_end+0xffff01bc>
    1958:	02b50633          	mul	a2,a0,a1
    195c:	48c12023          	sw	a2,1152(sp)

00001960 <inst_307>:
    1960:	55555537          	lui	a0,0x55555
    1964:	55450513          	add	a0,a0,1364 # 55555554 <_end+0x55550c14>
    1968:	0000b5b7          	lui	a1,0xb
    196c:	50458593          	add	a1,a1,1284 # b504 <_end+0x6bc4>
    1970:	02b50633          	mul	a2,a0,a1
    1974:	48c12223          	sw	a2,1156(sp)

00001978 <inst_308>:
    1978:	55555537          	lui	a0,0x55555
    197c:	55450513          	add	a0,a0,1364 # 55555554 <_end+0x55550c14>
    1980:	00200593          	li	a1,2
    1984:	02b50633          	mul	a2,a0,a1
    1988:	48c12423          	sw	a2,1160(sp)

0000198c <inst_309>:
    198c:	55555537          	lui	a0,0x55555
    1990:	55450513          	add	a0,a0,1364 # 55555554 <_end+0x55550c14>
    1994:	555555b7          	lui	a1,0x55555
    1998:	55458593          	add	a1,a1,1364 # 55555554 <_end+0x55550c14>
    199c:	02b50633          	mul	a2,a0,a1
    19a0:	48c12623          	sw	a2,1164(sp)

000019a4 <inst_310>:
    19a4:	55555537          	lui	a0,0x55555
    19a8:	55450513          	add	a0,a0,1364 # 55555554 <_end+0x55550c14>
    19ac:	00000593          	li	a1,0
    19b0:	02b50633          	mul	a2,a0,a1
    19b4:	48c12823          	sw	a2,1168(sp)

000019b8 <inst_311>:
    19b8:	55555537          	lui	a0,0x55555
    19bc:	55450513          	add	a0,a0,1364 # 55555554 <_end+0x55550c14>
    19c0:	00400593          	li	a1,4
    19c4:	02b50633          	mul	a2,a0,a1
    19c8:	48c12a23          	sw	a2,1172(sp)

000019cc <inst_312>:
    19cc:	55555537          	lui	a0,0x55555
    19d0:	55450513          	add	a0,a0,1364 # 55555554 <_end+0x55550c14>
    19d4:	333335b7          	lui	a1,0x33333
    19d8:	33258593          	add	a1,a1,818 # 33333332 <_end+0x3332e9f2>
    19dc:	02b50633          	mul	a2,a0,a1
    19e0:	48c12c23          	sw	a2,1176(sp)

000019e4 <inst_313>:
    19e4:	55555537          	lui	a0,0x55555
    19e8:	55450513          	add	a0,a0,1364 # 55555554 <_end+0x55550c14>
    19ec:	666665b7          	lui	a1,0x66666
    19f0:	66558593          	add	a1,a1,1637 # 66666665 <_end+0x66661d25>
    19f4:	02b50633          	mul	a2,a0,a1
    19f8:	48c12e23          	sw	a2,1180(sp)

000019fc <inst_314>:
    19fc:	55555537          	lui	a0,0x55555
    1a00:	55450513          	add	a0,a0,1364 # 55555554 <_end+0x55550c14>
    1a04:	0000b5b7          	lui	a1,0xb
    1a08:	50358593          	add	a1,a1,1283 # b503 <_end+0x6bc3>
    1a0c:	02b50633          	mul	a2,a0,a1
    1a10:	4ac12023          	sw	a2,1184(sp)

00001a14 <inst_315>:
    1a14:	55555537          	lui	a0,0x55555
    1a18:	55450513          	add	a0,a0,1364 # 55555554 <_end+0x55550c14>
    1a1c:	555555b7          	lui	a1,0x55555
    1a20:	55658593          	add	a1,a1,1366 # 55555556 <_end+0x55550c16>
    1a24:	02b50633          	mul	a2,a0,a1
    1a28:	4ac12223          	sw	a2,1188(sp)

00001a2c <inst_316>:
    1a2c:	55555537          	lui	a0,0x55555
    1a30:	55450513          	add	a0,a0,1364 # 55555554 <_end+0x55550c14>
    1a34:	aaaab5b7          	lui	a1,0xaaaab
    1a38:	aab58593          	add	a1,a1,-1365 # aaaaaaab <_end+0xaaaa616b>
    1a3c:	02b50633          	mul	a2,a0,a1
    1a40:	4ac12423          	sw	a2,1192(sp)

00001a44 <inst_317>:
    1a44:	55555537          	lui	a0,0x55555
    1a48:	55450513          	add	a0,a0,1364 # 55555554 <_end+0x55550c14>
    1a4c:	00600593          	li	a1,6
    1a50:	02b50633          	mul	a2,a0,a1
    1a54:	4ac12623          	sw	a2,1196(sp)

00001a58 <inst_318>:
    1a58:	55555537          	lui	a0,0x55555
    1a5c:	55450513          	add	a0,a0,1364 # 55555554 <_end+0x55550c14>
    1a60:	333335b7          	lui	a1,0x33333
    1a64:	33458593          	add	a1,a1,820 # 33333334 <_end+0x3332e9f4>
    1a68:	02b50633          	mul	a2,a0,a1
    1a6c:	4ac12823          	sw	a2,1200(sp)

00001a70 <inst_319>:
    1a70:	55555537          	lui	a0,0x55555
    1a74:	55450513          	add	a0,a0,1364 # 55555554 <_end+0x55550c14>
    1a78:	666665b7          	lui	a1,0x66666
    1a7c:	66758593          	add	a1,a1,1639 # 66666667 <_end+0x66661d27>
    1a80:	02b50633          	mul	a2,a0,a1
    1a84:	4ac12a23          	sw	a2,1204(sp)

00001a88 <inst_320>:
    1a88:	55555537          	lui	a0,0x55555
    1a8c:	55450513          	add	a0,a0,1364 # 55555554 <_end+0x55550c14>
    1a90:	ffff55b7          	lui	a1,0xffff5
    1a94:	afd58593          	add	a1,a1,-1283 # ffff4afd <_end+0xffff01bd>
    1a98:	02b50633          	mul	a2,a0,a1
    1a9c:	4ac12c23          	sw	a2,1208(sp)

00001aa0 <inst_321>:
    1aa0:	55555537          	lui	a0,0x55555
    1aa4:	55450513          	add	a0,a0,1364 # 55555554 <_end+0x55550c14>
    1aa8:	0000b5b7          	lui	a1,0xb
    1aac:	50558593          	add	a1,a1,1285 # b505 <_end+0x6bc5>
    1ab0:	02b50633          	mul	a2,a0,a1
    1ab4:	4ac12e23          	sw	a2,1212(sp)

00001ab8 <inst_322>:
    1ab8:	00000513          	li	a0,0
    1abc:	00300593          	li	a1,3
    1ac0:	02b50633          	mul	a2,a0,a1
    1ac4:	4cc12023          	sw	a2,1216(sp)

00001ac8 <inst_323>:
    1ac8:	00000513          	li	a0,0
    1acc:	555555b7          	lui	a1,0x55555
    1ad0:	55558593          	add	a1,a1,1365 # 55555555 <_end+0x55550c15>
    1ad4:	02b50633          	mul	a2,a0,a1
    1ad8:	4cc12223          	sw	a2,1220(sp)

00001adc <inst_324>:
    1adc:	00000513          	li	a0,0
    1ae0:	aaaab5b7          	lui	a1,0xaaaab
    1ae4:	aaa58593          	add	a1,a1,-1366 # aaaaaaaa <_end+0xaaaa616a>
    1ae8:	02b50633          	mul	a2,a0,a1
    1aec:	4cc12423          	sw	a2,1224(sp)

00001af0 <inst_325>:
    1af0:	00000513          	li	a0,0
    1af4:	00500593          	li	a1,5
    1af8:	02b50633          	mul	a2,a0,a1
    1afc:	4cc12623          	sw	a2,1228(sp)

00001b00 <inst_326>:
    1b00:	00000513          	li	a0,0
    1b04:	333335b7          	lui	a1,0x33333
    1b08:	33358593          	add	a1,a1,819 # 33333333 <_end+0x3332e9f3>
    1b0c:	02b50633          	mul	a2,a0,a1
    1b10:	4cc12823          	sw	a2,1232(sp)

00001b14 <inst_327>:
    1b14:	aaaab537          	lui	a0,0xaaaab
    1b18:	aab50513          	add	a0,a0,-1365 # aaaaaaab <_end+0xaaaa616b>
    1b1c:	aaaab5b7          	lui	a1,0xaaaab
    1b20:	aab58593          	add	a1,a1,-1365 # aaaaaaab <_end+0xaaaa616b>
    1b24:	02b50633          	mul	a2,a0,a1
    1b28:	4cc12a23          	sw	a2,1236(sp)

00001b2c <inst_328>:
    1b2c:	aaaab537          	lui	a0,0xaaaab
    1b30:	aab50513          	add	a0,a0,-1365 # aaaaaaab <_end+0xaaaa616b>
    1b34:	00600593          	li	a1,6
    1b38:	02b50633          	mul	a2,a0,a1
    1b3c:	4cc12c23          	sw	a2,1240(sp)

00001b40 <inst_329>:
    1b40:	aaaab537          	lui	a0,0xaaaab
    1b44:	aab50513          	add	a0,a0,-1365 # aaaaaaab <_end+0xaaaa616b>
    1b48:	333335b7          	lui	a1,0x33333
    1b4c:	33458593          	add	a1,a1,820 # 33333334 <_end+0x3332e9f4>
    1b50:	02b50633          	mul	a2,a0,a1
    1b54:	4cc12e23          	sw	a2,1244(sp)

00001b58 <inst_330>:
    1b58:	aaaab537          	lui	a0,0xaaaab
    1b5c:	aab50513          	add	a0,a0,-1365 # aaaaaaab <_end+0xaaaa616b>
    1b60:	666665b7          	lui	a1,0x66666
    1b64:	66758593          	add	a1,a1,1639 # 66666667 <_end+0x66661d27>
    1b68:	02b50633          	mul	a2,a0,a1
    1b6c:	4ec12023          	sw	a2,1248(sp)

00001b70 <inst_331>:
    1b70:	aaaab537          	lui	a0,0xaaaab
    1b74:	aab50513          	add	a0,a0,-1365 # aaaaaaab <_end+0xaaaa616b>
    1b78:	ffff55b7          	lui	a1,0xffff5
    1b7c:	afd58593          	add	a1,a1,-1283 # ffff4afd <_end+0xffff01bd>
    1b80:	02b50633          	mul	a2,a0,a1
    1b84:	4ec12223          	sw	a2,1252(sp)

00001b88 <inst_332>:
    1b88:	aaaab537          	lui	a0,0xaaaab
    1b8c:	aab50513          	add	a0,a0,-1365 # aaaaaaab <_end+0xaaaa616b>
    1b90:	0000b5b7          	lui	a1,0xb
    1b94:	50558593          	add	a1,a1,1285 # b505 <_end+0x6bc5>
    1b98:	02b50633          	mul	a2,a0,a1
    1b9c:	4ec12423          	sw	a2,1256(sp)

00001ba0 <inst_333>:
    1ba0:	00600513          	li	a0,6
    1ba4:	00300593          	li	a1,3
    1ba8:	02b50633          	mul	a2,a0,a1
    1bac:	4ec12623          	sw	a2,1260(sp)

00001bb0 <inst_334>:
    1bb0:	00600513          	li	a0,6
    1bb4:	555555b7          	lui	a1,0x55555
    1bb8:	55558593          	add	a1,a1,1365 # 55555555 <_end+0x55550c15>
    1bbc:	02b50633          	mul	a2,a0,a1
    1bc0:	4ec12823          	sw	a2,1264(sp)

00001bc4 <inst_335>:
    1bc4:	00600513          	li	a0,6
    1bc8:	aaaab5b7          	lui	a1,0xaaaab
    1bcc:	aaa58593          	add	a1,a1,-1366 # aaaaaaaa <_end+0xaaaa616a>
    1bd0:	02b50633          	mul	a2,a0,a1
    1bd4:	4ec12a23          	sw	a2,1268(sp)

00001bd8 <inst_336>:
    1bd8:	00600513          	li	a0,6
    1bdc:	00500593          	li	a1,5
    1be0:	02b50633          	mul	a2,a0,a1
    1be4:	4ec12c23          	sw	a2,1272(sp)

00001be8 <inst_337>:
    1be8:	00600513          	li	a0,6
    1bec:	333335b7          	lui	a1,0x33333
    1bf0:	33358593          	add	a1,a1,819 # 33333333 <_end+0x3332e9f3>
    1bf4:	02b50633          	mul	a2,a0,a1
    1bf8:	4ec12e23          	sw	a2,1276(sp)

00001bfc <inst_338>:
    1bfc:	00600513          	li	a0,6
    1c00:	666665b7          	lui	a1,0x66666
    1c04:	66658593          	add	a1,a1,1638 # 66666666 <_end+0x66661d26>
    1c08:	02b50633          	mul	a2,a0,a1
    1c0c:	50c12023          	sw	a2,1280(sp)

00001c10 <inst_339>:
    1c10:	00600513          	li	a0,6
    1c14:	ffff55b7          	lui	a1,0xffff5
    1c18:	afc58593          	add	a1,a1,-1284 # ffff4afc <_end+0xffff01bc>
    1c1c:	02b50633          	mul	a2,a0,a1
    1c20:	50c12223          	sw	a2,1284(sp)

00001c24 <inst_340>:
    1c24:	00600513          	li	a0,6
    1c28:	0000b5b7          	lui	a1,0xb
    1c2c:	50458593          	add	a1,a1,1284 # b504 <_end+0x6bc4>
    1c30:	02b50633          	mul	a2,a0,a1
    1c34:	50c12423          	sw	a2,1288(sp)

00001c38 <inst_341>:
    1c38:	00600513          	li	a0,6
    1c3c:	00200593          	li	a1,2
    1c40:	02b50633          	mul	a2,a0,a1
    1c44:	50c12623          	sw	a2,1292(sp)

00001c48 <inst_342>:
    1c48:	00600513          	li	a0,6
    1c4c:	555555b7          	lui	a1,0x55555
    1c50:	55458593          	add	a1,a1,1364 # 55555554 <_end+0x55550c14>
    1c54:	02b50633          	mul	a2,a0,a1
    1c58:	50c12823          	sw	a2,1296(sp)

00001c5c <inst_343>:
    1c5c:	00600513          	li	a0,6
    1c60:	00000593          	li	a1,0
    1c64:	02b50633          	mul	a2,a0,a1
    1c68:	50c12a23          	sw	a2,1300(sp)

00001c6c <inst_344>:
    1c6c:	00600513          	li	a0,6
    1c70:	00400593          	li	a1,4
    1c74:	02b50633          	mul	a2,a0,a1
    1c78:	50c12c23          	sw	a2,1304(sp)

00001c7c <inst_345>:
    1c7c:	00600513          	li	a0,6
    1c80:	333335b7          	lui	a1,0x33333
    1c84:	33258593          	add	a1,a1,818 # 33333332 <_end+0x3332e9f2>
    1c88:	02b50633          	mul	a2,a0,a1
    1c8c:	50c12e23          	sw	a2,1308(sp)

00001c90 <inst_346>:
    1c90:	00600513          	li	a0,6
    1c94:	666665b7          	lui	a1,0x66666
    1c98:	66558593          	add	a1,a1,1637 # 66666665 <_end+0x66661d25>
    1c9c:	02b50633          	mul	a2,a0,a1
    1ca0:	52c12023          	sw	a2,1312(sp)

00001ca4 <inst_347>:
    1ca4:	00600513          	li	a0,6
    1ca8:	0000b5b7          	lui	a1,0xb
    1cac:	50358593          	add	a1,a1,1283 # b503 <_end+0x6bc3>
    1cb0:	02b50633          	mul	a2,a0,a1
    1cb4:	52c12223          	sw	a2,1316(sp)

00001cb8 <inst_348>:
    1cb8:	00600513          	li	a0,6
    1cbc:	555555b7          	lui	a1,0x55555
    1cc0:	55658593          	add	a1,a1,1366 # 55555556 <_end+0x55550c16>
    1cc4:	02b50633          	mul	a2,a0,a1
    1cc8:	52c12423          	sw	a2,1320(sp)

00001ccc <inst_349>:
    1ccc:	00600513          	li	a0,6
    1cd0:	aaaab5b7          	lui	a1,0xaaaab
    1cd4:	aab58593          	add	a1,a1,-1365 # aaaaaaab <_end+0xaaaa616b>
    1cd8:	02b50633          	mul	a2,a0,a1
    1cdc:	52c12623          	sw	a2,1324(sp)

00001ce0 <inst_350>:
    1ce0:	00600513          	li	a0,6
    1ce4:	00600593          	li	a1,6
    1ce8:	02b50633          	mul	a2,a0,a1
    1cec:	52c12823          	sw	a2,1328(sp)

00001cf0 <inst_351>:
    1cf0:	00600513          	li	a0,6
    1cf4:	333335b7          	lui	a1,0x33333
    1cf8:	33458593          	add	a1,a1,820 # 33333334 <_end+0x3332e9f4>
    1cfc:	02b50633          	mul	a2,a0,a1
    1d00:	52c12a23          	sw	a2,1332(sp)

00001d04 <inst_352>:
    1d04:	00600513          	li	a0,6
    1d08:	666665b7          	lui	a1,0x66666
    1d0c:	66758593          	add	a1,a1,1639 # 66666667 <_end+0x66661d27>
    1d10:	02b50633          	mul	a2,a0,a1
    1d14:	52c12c23          	sw	a2,1336(sp)

00001d18 <inst_353>:
    1d18:	00600513          	li	a0,6
    1d1c:	ffff55b7          	lui	a1,0xffff5
    1d20:	afd58593          	add	a1,a1,-1283 # ffff4afd <_end+0xffff01bd>
    1d24:	02b50633          	mul	a2,a0,a1
    1d28:	52c12e23          	sw	a2,1340(sp)

00001d2c <inst_354>:
    1d2c:	00600513          	li	a0,6
    1d30:	0000b5b7          	lui	a1,0xb
    1d34:	50558593          	add	a1,a1,1285 # b505 <_end+0x6bc5>
    1d38:	02b50633          	mul	a2,a0,a1
    1d3c:	54c12023          	sw	a2,1344(sp)

00001d40 <inst_355>:
    1d40:	33333537          	lui	a0,0x33333
    1d44:	33450513          	add	a0,a0,820 # 33333334 <_end+0x3332e9f4>
    1d48:	00300593          	li	a1,3
    1d4c:	02b50633          	mul	a2,a0,a1
    1d50:	54c12223          	sw	a2,1348(sp)

00001d54 <inst_356>:
    1d54:	33333537          	lui	a0,0x33333
    1d58:	33450513          	add	a0,a0,820 # 33333334 <_end+0x3332e9f4>
    1d5c:	555555b7          	lui	a1,0x55555
    1d60:	55558593          	add	a1,a1,1365 # 55555555 <_end+0x55550c15>
    1d64:	02b50633          	mul	a2,a0,a1
    1d68:	54c12423          	sw	a2,1352(sp)

00001d6c <inst_357>:
    1d6c:	33333537          	lui	a0,0x33333
    1d70:	33450513          	add	a0,a0,820 # 33333334 <_end+0x3332e9f4>
    1d74:	aaaab5b7          	lui	a1,0xaaaab
    1d78:	aaa58593          	add	a1,a1,-1366 # aaaaaaaa <_end+0xaaaa616a>
    1d7c:	02b50633          	mul	a2,a0,a1
    1d80:	54c12623          	sw	a2,1356(sp)

00001d84 <inst_358>:
    1d84:	33333537          	lui	a0,0x33333
    1d88:	33450513          	add	a0,a0,820 # 33333334 <_end+0x3332e9f4>
    1d8c:	00500593          	li	a1,5
    1d90:	02b50633          	mul	a2,a0,a1
    1d94:	54c12823          	sw	a2,1360(sp)

00001d98 <inst_359>:
    1d98:	33333537          	lui	a0,0x33333
    1d9c:	33450513          	add	a0,a0,820 # 33333334 <_end+0x3332e9f4>
    1da0:	333335b7          	lui	a1,0x33333
    1da4:	33358593          	add	a1,a1,819 # 33333333 <_end+0x3332e9f3>
    1da8:	02b50633          	mul	a2,a0,a1
    1dac:	54c12a23          	sw	a2,1364(sp)

00001db0 <inst_360>:
    1db0:	33333537          	lui	a0,0x33333
    1db4:	33450513          	add	a0,a0,820 # 33333334 <_end+0x3332e9f4>
    1db8:	666665b7          	lui	a1,0x66666
    1dbc:	66658593          	add	a1,a1,1638 # 66666666 <_end+0x66661d26>
    1dc0:	02b50633          	mul	a2,a0,a1
    1dc4:	54c12c23          	sw	a2,1368(sp)

00001dc8 <inst_361>:
    1dc8:	33333537          	lui	a0,0x33333
    1dcc:	33450513          	add	a0,a0,820 # 33333334 <_end+0x3332e9f4>
    1dd0:	ffff55b7          	lui	a1,0xffff5
    1dd4:	afc58593          	add	a1,a1,-1284 # ffff4afc <_end+0xffff01bc>
    1dd8:	02b50633          	mul	a2,a0,a1
    1ddc:	54c12e23          	sw	a2,1372(sp)

00001de0 <inst_362>:
    1de0:	33333537          	lui	a0,0x33333
    1de4:	33450513          	add	a0,a0,820 # 33333334 <_end+0x3332e9f4>
    1de8:	0000b5b7          	lui	a1,0xb
    1dec:	50458593          	add	a1,a1,1284 # b504 <_end+0x6bc4>
    1df0:	02b50633          	mul	a2,a0,a1
    1df4:	56c12023          	sw	a2,1376(sp)

00001df8 <inst_363>:
    1df8:	33333537          	lui	a0,0x33333
    1dfc:	33450513          	add	a0,a0,820 # 33333334 <_end+0x3332e9f4>
    1e00:	00200593          	li	a1,2
    1e04:	02b50633          	mul	a2,a0,a1
    1e08:	56c12223          	sw	a2,1380(sp)

00001e0c <inst_364>:
    1e0c:	33333537          	lui	a0,0x33333
    1e10:	33450513          	add	a0,a0,820 # 33333334 <_end+0x3332e9f4>
    1e14:	555555b7          	lui	a1,0x55555
    1e18:	55458593          	add	a1,a1,1364 # 55555554 <_end+0x55550c14>
    1e1c:	02b50633          	mul	a2,a0,a1
    1e20:	56c12423          	sw	a2,1384(sp)

00001e24 <inst_365>:
    1e24:	33333537          	lui	a0,0x33333
    1e28:	33450513          	add	a0,a0,820 # 33333334 <_end+0x3332e9f4>
    1e2c:	00000593          	li	a1,0
    1e30:	02b50633          	mul	a2,a0,a1
    1e34:	56c12623          	sw	a2,1388(sp)

00001e38 <inst_366>:
    1e38:	33333537          	lui	a0,0x33333
    1e3c:	33450513          	add	a0,a0,820 # 33333334 <_end+0x3332e9f4>
    1e40:	00400593          	li	a1,4
    1e44:	02b50633          	mul	a2,a0,a1
    1e48:	56c12823          	sw	a2,1392(sp)

00001e4c <inst_367>:
    1e4c:	33333537          	lui	a0,0x33333
    1e50:	33450513          	add	a0,a0,820 # 33333334 <_end+0x3332e9f4>
    1e54:	333335b7          	lui	a1,0x33333
    1e58:	33258593          	add	a1,a1,818 # 33333332 <_end+0x3332e9f2>
    1e5c:	02b50633          	mul	a2,a0,a1
    1e60:	56c12a23          	sw	a2,1396(sp)

00001e64 <inst_368>:
    1e64:	33333537          	lui	a0,0x33333
    1e68:	33450513          	add	a0,a0,820 # 33333334 <_end+0x3332e9f4>
    1e6c:	666665b7          	lui	a1,0x66666
    1e70:	66558593          	add	a1,a1,1637 # 66666665 <_end+0x66661d25>
    1e74:	02b50633          	mul	a2,a0,a1
    1e78:	56c12c23          	sw	a2,1400(sp)

00001e7c <inst_369>:
    1e7c:	33333537          	lui	a0,0x33333
    1e80:	33450513          	add	a0,a0,820 # 33333334 <_end+0x3332e9f4>
    1e84:	0000b5b7          	lui	a1,0xb
    1e88:	50358593          	add	a1,a1,1283 # b503 <_end+0x6bc3>
    1e8c:	02b50633          	mul	a2,a0,a1
    1e90:	56c12e23          	sw	a2,1404(sp)

00001e94 <inst_370>:
    1e94:	33333537          	lui	a0,0x33333
    1e98:	33450513          	add	a0,a0,820 # 33333334 <_end+0x3332e9f4>
    1e9c:	555555b7          	lui	a1,0x55555
    1ea0:	55658593          	add	a1,a1,1366 # 55555556 <_end+0x55550c16>
    1ea4:	02b50633          	mul	a2,a0,a1
    1ea8:	58c12023          	sw	a2,1408(sp)

00001eac <inst_371>:
    1eac:	33333537          	lui	a0,0x33333
    1eb0:	33450513          	add	a0,a0,820 # 33333334 <_end+0x3332e9f4>
    1eb4:	aaaab5b7          	lui	a1,0xaaaab
    1eb8:	aab58593          	add	a1,a1,-1365 # aaaaaaab <_end+0xaaaa616b>
    1ebc:	02b50633          	mul	a2,a0,a1
    1ec0:	58c12223          	sw	a2,1412(sp)

00001ec4 <inst_372>:
    1ec4:	33333537          	lui	a0,0x33333
    1ec8:	33450513          	add	a0,a0,820 # 33333334 <_end+0x3332e9f4>
    1ecc:	00600593          	li	a1,6
    1ed0:	02b50633          	mul	a2,a0,a1
    1ed4:	58c12423          	sw	a2,1416(sp)

00001ed8 <inst_373>:
    1ed8:	33333537          	lui	a0,0x33333
    1edc:	33450513          	add	a0,a0,820 # 33333334 <_end+0x3332e9f4>
    1ee0:	333335b7          	lui	a1,0x33333
    1ee4:	33458593          	add	a1,a1,820 # 33333334 <_end+0x3332e9f4>
    1ee8:	02b50633          	mul	a2,a0,a1
    1eec:	58c12623          	sw	a2,1420(sp)

00001ef0 <inst_374>:
    1ef0:	33333537          	lui	a0,0x33333
    1ef4:	33450513          	add	a0,a0,820 # 33333334 <_end+0x3332e9f4>
    1ef8:	666665b7          	lui	a1,0x66666
    1efc:	66758593          	add	a1,a1,1639 # 66666667 <_end+0x66661d27>
    1f00:	02b50633          	mul	a2,a0,a1
    1f04:	58c12823          	sw	a2,1424(sp)

00001f08 <inst_375>:
    1f08:	33333537          	lui	a0,0x33333
    1f0c:	33450513          	add	a0,a0,820 # 33333334 <_end+0x3332e9f4>
    1f10:	ffff55b7          	lui	a1,0xffff5
    1f14:	afd58593          	add	a1,a1,-1283 # ffff4afd <_end+0xffff01bd>
    1f18:	02b50633          	mul	a2,a0,a1
    1f1c:	58c12a23          	sw	a2,1428(sp)

00001f20 <inst_376>:
    1f20:	33333537          	lui	a0,0x33333
    1f24:	33450513          	add	a0,a0,820 # 33333334 <_end+0x3332e9f4>
    1f28:	0000b5b7          	lui	a1,0xb
    1f2c:	50558593          	add	a1,a1,1285 # b505 <_end+0x6bc5>
    1f30:	02b50633          	mul	a2,a0,a1
    1f34:	58c12c23          	sw	a2,1432(sp)

00001f38 <inst_377>:
    1f38:	66666537          	lui	a0,0x66666
    1f3c:	66750513          	add	a0,a0,1639 # 66666667 <_end+0x66661d27>
    1f40:	00300593          	li	a1,3
    1f44:	02b50633          	mul	a2,a0,a1
    1f48:	58c12e23          	sw	a2,1436(sp)

00001f4c <inst_378>:
    1f4c:	66666537          	lui	a0,0x66666
    1f50:	66750513          	add	a0,a0,1639 # 66666667 <_end+0x66661d27>
    1f54:	555555b7          	lui	a1,0x55555
    1f58:	55558593          	add	a1,a1,1365 # 55555555 <_end+0x55550c15>
    1f5c:	02b50633          	mul	a2,a0,a1
    1f60:	5ac12023          	sw	a2,1440(sp)

00001f64 <inst_379>:
    1f64:	66666537          	lui	a0,0x66666
    1f68:	66750513          	add	a0,a0,1639 # 66666667 <_end+0x66661d27>
    1f6c:	aaaab5b7          	lui	a1,0xaaaab
    1f70:	aaa58593          	add	a1,a1,-1366 # aaaaaaaa <_end+0xaaaa616a>
    1f74:	02b50633          	mul	a2,a0,a1
    1f78:	5ac12223          	sw	a2,1444(sp)

00001f7c <inst_380>:
    1f7c:	66666537          	lui	a0,0x66666
    1f80:	66750513          	add	a0,a0,1639 # 66666667 <_end+0x66661d27>
    1f84:	00500593          	li	a1,5
    1f88:	02b50633          	mul	a2,a0,a1
    1f8c:	5ac12423          	sw	a2,1448(sp)

00001f90 <inst_381>:
    1f90:	66666537          	lui	a0,0x66666
    1f94:	66750513          	add	a0,a0,1639 # 66666667 <_end+0x66661d27>
    1f98:	333335b7          	lui	a1,0x33333
    1f9c:	33358593          	add	a1,a1,819 # 33333333 <_end+0x3332e9f3>
    1fa0:	02b50633          	mul	a2,a0,a1
    1fa4:	5ac12623          	sw	a2,1452(sp)

00001fa8 <inst_382>:
    1fa8:	66666537          	lui	a0,0x66666
    1fac:	66750513          	add	a0,a0,1639 # 66666667 <_end+0x66661d27>
    1fb0:	666665b7          	lui	a1,0x66666
    1fb4:	66658593          	add	a1,a1,1638 # 66666666 <_end+0x66661d26>
    1fb8:	02b50633          	mul	a2,a0,a1
    1fbc:	5ac12823          	sw	a2,1456(sp)

00001fc0 <inst_383>:
    1fc0:	66666537          	lui	a0,0x66666
    1fc4:	66750513          	add	a0,a0,1639 # 66666667 <_end+0x66661d27>
    1fc8:	ffff55b7          	lui	a1,0xffff5
    1fcc:	afc58593          	add	a1,a1,-1284 # ffff4afc <_end+0xffff01bc>
    1fd0:	02b50633          	mul	a2,a0,a1
    1fd4:	5ac12a23          	sw	a2,1460(sp)

00001fd8 <inst_384>:
    1fd8:	66666537          	lui	a0,0x66666
    1fdc:	66750513          	add	a0,a0,1639 # 66666667 <_end+0x66661d27>
    1fe0:	0000b5b7          	lui	a1,0xb
    1fe4:	50458593          	add	a1,a1,1284 # b504 <_end+0x6bc4>
    1fe8:	02b50633          	mul	a2,a0,a1
    1fec:	5ac12c23          	sw	a2,1464(sp)

00001ff0 <inst_385>:
    1ff0:	66666537          	lui	a0,0x66666
    1ff4:	66750513          	add	a0,a0,1639 # 66666667 <_end+0x66661d27>
    1ff8:	00200593          	li	a1,2
    1ffc:	02b50633          	mul	a2,a0,a1
    2000:	5ac12e23          	sw	a2,1468(sp)

00002004 <inst_386>:
    2004:	66666537          	lui	a0,0x66666
    2008:	66750513          	add	a0,a0,1639 # 66666667 <_end+0x66661d27>
    200c:	555555b7          	lui	a1,0x55555
    2010:	55458593          	add	a1,a1,1364 # 55555554 <_end+0x55550c14>
    2014:	02b50633          	mul	a2,a0,a1
    2018:	5cc12023          	sw	a2,1472(sp)

0000201c <inst_387>:
    201c:	66666537          	lui	a0,0x66666
    2020:	66750513          	add	a0,a0,1639 # 66666667 <_end+0x66661d27>
    2024:	00000593          	li	a1,0
    2028:	02b50633          	mul	a2,a0,a1
    202c:	5cc12223          	sw	a2,1476(sp)

00002030 <inst_388>:
    2030:	66666537          	lui	a0,0x66666
    2034:	66750513          	add	a0,a0,1639 # 66666667 <_end+0x66661d27>
    2038:	00400593          	li	a1,4
    203c:	02b50633          	mul	a2,a0,a1
    2040:	5cc12423          	sw	a2,1480(sp)

00002044 <inst_389>:
    2044:	66666537          	lui	a0,0x66666
    2048:	66750513          	add	a0,a0,1639 # 66666667 <_end+0x66661d27>
    204c:	333335b7          	lui	a1,0x33333
    2050:	33258593          	add	a1,a1,818 # 33333332 <_end+0x3332e9f2>
    2054:	02b50633          	mul	a2,a0,a1
    2058:	5cc12623          	sw	a2,1484(sp)

0000205c <inst_390>:
    205c:	66666537          	lui	a0,0x66666
    2060:	66750513          	add	a0,a0,1639 # 66666667 <_end+0x66661d27>
    2064:	666665b7          	lui	a1,0x66666
    2068:	66558593          	add	a1,a1,1637 # 66666665 <_end+0x66661d25>
    206c:	02b50633          	mul	a2,a0,a1
    2070:	5cc12823          	sw	a2,1488(sp)

00002074 <inst_391>:
    2074:	66666537          	lui	a0,0x66666
    2078:	66750513          	add	a0,a0,1639 # 66666667 <_end+0x66661d27>
    207c:	0000b5b7          	lui	a1,0xb
    2080:	50358593          	add	a1,a1,1283 # b503 <_end+0x6bc3>
    2084:	02b50633          	mul	a2,a0,a1
    2088:	5cc12a23          	sw	a2,1492(sp)

0000208c <inst_392>:
    208c:	66666537          	lui	a0,0x66666
    2090:	66750513          	add	a0,a0,1639 # 66666667 <_end+0x66661d27>
    2094:	555555b7          	lui	a1,0x55555
    2098:	55658593          	add	a1,a1,1366 # 55555556 <_end+0x55550c16>
    209c:	02b50633          	mul	a2,a0,a1
    20a0:	5cc12c23          	sw	a2,1496(sp)

000020a4 <inst_393>:
    20a4:	66666537          	lui	a0,0x66666
    20a8:	66750513          	add	a0,a0,1639 # 66666667 <_end+0x66661d27>
    20ac:	aaaab5b7          	lui	a1,0xaaaab
    20b0:	aab58593          	add	a1,a1,-1365 # aaaaaaab <_end+0xaaaa616b>
    20b4:	02b50633          	mul	a2,a0,a1
    20b8:	5cc12e23          	sw	a2,1500(sp)

000020bc <inst_394>:
    20bc:	66666537          	lui	a0,0x66666
    20c0:	66750513          	add	a0,a0,1639 # 66666667 <_end+0x66661d27>
    20c4:	00600593          	li	a1,6
    20c8:	02b50633          	mul	a2,a0,a1
    20cc:	5ec12023          	sw	a2,1504(sp)

000020d0 <inst_395>:
    20d0:	66666537          	lui	a0,0x66666
    20d4:	66750513          	add	a0,a0,1639 # 66666667 <_end+0x66661d27>
    20d8:	333335b7          	lui	a1,0x33333
    20dc:	33458593          	add	a1,a1,820 # 33333334 <_end+0x3332e9f4>
    20e0:	02b50633          	mul	a2,a0,a1
    20e4:	5ec12223          	sw	a2,1508(sp)

000020e8 <inst_396>:
    20e8:	66666537          	lui	a0,0x66666
    20ec:	66750513          	add	a0,a0,1639 # 66666667 <_end+0x66661d27>
    20f0:	666665b7          	lui	a1,0x66666
    20f4:	66758593          	add	a1,a1,1639 # 66666667 <_end+0x66661d27>
    20f8:	02b50633          	mul	a2,a0,a1
    20fc:	5ec12423          	sw	a2,1512(sp)

00002100 <inst_397>:
    2100:	66666537          	lui	a0,0x66666
    2104:	66750513          	add	a0,a0,1639 # 66666667 <_end+0x66661d27>
    2108:	ffff55b7          	lui	a1,0xffff5
    210c:	afd58593          	add	a1,a1,-1283 # ffff4afd <_end+0xffff01bd>
    2110:	02b50633          	mul	a2,a0,a1
    2114:	5ec12623          	sw	a2,1516(sp)

00002118 <inst_398>:
    2118:	66666537          	lui	a0,0x66666
    211c:	66750513          	add	a0,a0,1639 # 66666667 <_end+0x66661d27>
    2120:	0000b5b7          	lui	a1,0xb
    2124:	50558593          	add	a1,a1,1285 # b505 <_end+0x6bc5>
    2128:	02b50633          	mul	a2,a0,a1
    212c:	5ec12823          	sw	a2,1520(sp)

00002130 <inst_399>:
    2130:	ffff5537          	lui	a0,0xffff5
    2134:	afd50513          	add	a0,a0,-1283 # ffff4afd <_end+0xffff01bd>
    2138:	00300593          	li	a1,3
    213c:	02b50633          	mul	a2,a0,a1
    2140:	5ec12a23          	sw	a2,1524(sp)

00002144 <inst_400>:
    2144:	ffff5537          	lui	a0,0xffff5
    2148:	afd50513          	add	a0,a0,-1283 # ffff4afd <_end+0xffff01bd>
    214c:	555555b7          	lui	a1,0x55555
    2150:	55558593          	add	a1,a1,1365 # 55555555 <_end+0x55550c15>
    2154:	02b50633          	mul	a2,a0,a1
    2158:	5ec12c23          	sw	a2,1528(sp)

0000215c <inst_401>:
    215c:	ffff5537          	lui	a0,0xffff5
    2160:	afd50513          	add	a0,a0,-1283 # ffff4afd <_end+0xffff01bd>
    2164:	aaaab5b7          	lui	a1,0xaaaab
    2168:	aaa58593          	add	a1,a1,-1366 # aaaaaaaa <_end+0xaaaa616a>
    216c:	02b50633          	mul	a2,a0,a1
    2170:	5ec12e23          	sw	a2,1532(sp)

00002174 <inst_402>:
    2174:	ffff5537          	lui	a0,0xffff5
    2178:	afd50513          	add	a0,a0,-1283 # ffff4afd <_end+0xffff01bd>
    217c:	00500593          	li	a1,5
    2180:	02b50633          	mul	a2,a0,a1
    2184:	60c12023          	sw	a2,1536(sp)

00002188 <inst_403>:
    2188:	ffff5537          	lui	a0,0xffff5
    218c:	afd50513          	add	a0,a0,-1283 # ffff4afd <_end+0xffff01bd>
    2190:	333335b7          	lui	a1,0x33333
    2194:	33358593          	add	a1,a1,819 # 33333333 <_end+0x3332e9f3>
    2198:	02b50633          	mul	a2,a0,a1
    219c:	60c12223          	sw	a2,1540(sp)

000021a0 <inst_404>:
    21a0:	ffff5537          	lui	a0,0xffff5
    21a4:	afd50513          	add	a0,a0,-1283 # ffff4afd <_end+0xffff01bd>
    21a8:	666665b7          	lui	a1,0x66666
    21ac:	66658593          	add	a1,a1,1638 # 66666666 <_end+0x66661d26>
    21b0:	02b50633          	mul	a2,a0,a1
    21b4:	60c12423          	sw	a2,1544(sp)

000021b8 <inst_405>:
    21b8:	ffff5537          	lui	a0,0xffff5
    21bc:	afd50513          	add	a0,a0,-1283 # ffff4afd <_end+0xffff01bd>
    21c0:	ffff55b7          	lui	a1,0xffff5
    21c4:	afc58593          	add	a1,a1,-1284 # ffff4afc <_end+0xffff01bc>
    21c8:	02b50633          	mul	a2,a0,a1
    21cc:	60c12623          	sw	a2,1548(sp)

000021d0 <inst_406>:
    21d0:	ffff5537          	lui	a0,0xffff5
    21d4:	afd50513          	add	a0,a0,-1283 # ffff4afd <_end+0xffff01bd>
    21d8:	0000b5b7          	lui	a1,0xb
    21dc:	50458593          	add	a1,a1,1284 # b504 <_end+0x6bc4>
    21e0:	02b50633          	mul	a2,a0,a1
    21e4:	60c12823          	sw	a2,1552(sp)

000021e8 <inst_407>:
    21e8:	ffff5537          	lui	a0,0xffff5
    21ec:	afd50513          	add	a0,a0,-1283 # ffff4afd <_end+0xffff01bd>
    21f0:	00200593          	li	a1,2
    21f4:	02b50633          	mul	a2,a0,a1
    21f8:	60c12a23          	sw	a2,1556(sp)

000021fc <inst_408>:
    21fc:	ffff5537          	lui	a0,0xffff5
    2200:	afd50513          	add	a0,a0,-1283 # ffff4afd <_end+0xffff01bd>
    2204:	555555b7          	lui	a1,0x55555
    2208:	55458593          	add	a1,a1,1364 # 55555554 <_end+0x55550c14>
    220c:	02b50633          	mul	a2,a0,a1
    2210:	60c12c23          	sw	a2,1560(sp)

00002214 <inst_409>:
    2214:	ffff5537          	lui	a0,0xffff5
    2218:	afd50513          	add	a0,a0,-1283 # ffff4afd <_end+0xffff01bd>
    221c:	00000593          	li	a1,0
    2220:	02b50633          	mul	a2,a0,a1
    2224:	60c12e23          	sw	a2,1564(sp)

00002228 <inst_410>:
    2228:	ffff5537          	lui	a0,0xffff5
    222c:	afd50513          	add	a0,a0,-1283 # ffff4afd <_end+0xffff01bd>
    2230:	333335b7          	lui	a1,0x33333
    2234:	33258593          	add	a1,a1,818 # 33333332 <_end+0x3332e9f2>
    2238:	02b50633          	mul	a2,a0,a1
    223c:	62c12023          	sw	a2,1568(sp)

00002240 <inst_411>:
    2240:	ffff5537          	lui	a0,0xffff5
    2244:	afd50513          	add	a0,a0,-1283 # ffff4afd <_end+0xffff01bd>
    2248:	666665b7          	lui	a1,0x66666
    224c:	66558593          	add	a1,a1,1637 # 66666665 <_end+0x66661d25>
    2250:	02b50633          	mul	a2,a0,a1
    2254:	62c12223          	sw	a2,1572(sp)

00002258 <inst_412>:
    2258:	ffff5537          	lui	a0,0xffff5
    225c:	afd50513          	add	a0,a0,-1283 # ffff4afd <_end+0xffff01bd>
    2260:	0000b5b7          	lui	a1,0xb
    2264:	50358593          	add	a1,a1,1283 # b503 <_end+0x6bc3>
    2268:	02b50633          	mul	a2,a0,a1
    226c:	62c12423          	sw	a2,1576(sp)

00002270 <inst_413>:
    2270:	ffff5537          	lui	a0,0xffff5
    2274:	afd50513          	add	a0,a0,-1283 # ffff4afd <_end+0xffff01bd>
    2278:	555555b7          	lui	a1,0x55555
    227c:	55658593          	add	a1,a1,1366 # 55555556 <_end+0x55550c16>
    2280:	02b50633          	mul	a2,a0,a1
    2284:	62c12623          	sw	a2,1580(sp)

00002288 <inst_414>:
    2288:	ffff5537          	lui	a0,0xffff5
    228c:	afd50513          	add	a0,a0,-1283 # ffff4afd <_end+0xffff01bd>
    2290:	aaaab5b7          	lui	a1,0xaaaab
    2294:	aab58593          	add	a1,a1,-1365 # aaaaaaab <_end+0xaaaa616b>
    2298:	02b50633          	mul	a2,a0,a1
    229c:	62c12823          	sw	a2,1584(sp)

000022a0 <inst_415>:
    22a0:	ffff5537          	lui	a0,0xffff5
    22a4:	afd50513          	add	a0,a0,-1283 # ffff4afd <_end+0xffff01bd>
    22a8:	00600593          	li	a1,6
    22ac:	02b50633          	mul	a2,a0,a1
    22b0:	62c12a23          	sw	a2,1588(sp)

000022b4 <inst_416>:
    22b4:	ffff5537          	lui	a0,0xffff5
    22b8:	afd50513          	add	a0,a0,-1283 # ffff4afd <_end+0xffff01bd>
    22bc:	333335b7          	lui	a1,0x33333
    22c0:	33458593          	add	a1,a1,820 # 33333334 <_end+0x3332e9f4>
    22c4:	02b50633          	mul	a2,a0,a1
    22c8:	62c12c23          	sw	a2,1592(sp)

000022cc <inst_417>:
    22cc:	ffff5537          	lui	a0,0xffff5
    22d0:	afd50513          	add	a0,a0,-1283 # ffff4afd <_end+0xffff01bd>
    22d4:	666665b7          	lui	a1,0x66666
    22d8:	66758593          	add	a1,a1,1639 # 66666667 <_end+0x66661d27>
    22dc:	02b50633          	mul	a2,a0,a1
    22e0:	62c12e23          	sw	a2,1596(sp)

000022e4 <inst_418>:
    22e4:	ffff5537          	lui	a0,0xffff5
    22e8:	afd50513          	add	a0,a0,-1283 # ffff4afd <_end+0xffff01bd>
    22ec:	ffff55b7          	lui	a1,0xffff5
    22f0:	afd58593          	add	a1,a1,-1283 # ffff4afd <_end+0xffff01bd>
    22f4:	02b50633          	mul	a2,a0,a1
    22f8:	64c12023          	sw	a2,1600(sp)

000022fc <inst_419>:
    22fc:	ffff5537          	lui	a0,0xffff5
    2300:	afd50513          	add	a0,a0,-1283 # ffff4afd <_end+0xffff01bd>
    2304:	0000b5b7          	lui	a1,0xb
    2308:	50558593          	add	a1,a1,1285 # b505 <_end+0x6bc5>
    230c:	02b50633          	mul	a2,a0,a1
    2310:	64c12223          	sw	a2,1604(sp)

00002314 <inst_420>:
    2314:	0000b537          	lui	a0,0xb
    2318:	50550513          	add	a0,a0,1285 # b505 <_end+0x6bc5>
    231c:	00300593          	li	a1,3
    2320:	02b50633          	mul	a2,a0,a1
    2324:	64c12423          	sw	a2,1608(sp)

00002328 <inst_421>:
    2328:	0000b537          	lui	a0,0xb
    232c:	50550513          	add	a0,a0,1285 # b505 <_end+0x6bc5>
    2330:	555555b7          	lui	a1,0x55555
    2334:	55558593          	add	a1,a1,1365 # 55555555 <_end+0x55550c15>
    2338:	02b50633          	mul	a2,a0,a1
    233c:	64c12623          	sw	a2,1612(sp)

00002340 <inst_422>:
    2340:	0000b537          	lui	a0,0xb
    2344:	50550513          	add	a0,a0,1285 # b505 <_end+0x6bc5>
    2348:	aaaab5b7          	lui	a1,0xaaaab
    234c:	aaa58593          	add	a1,a1,-1366 # aaaaaaaa <_end+0xaaaa616a>
    2350:	02b50633          	mul	a2,a0,a1
    2354:	64c12823          	sw	a2,1616(sp)

00002358 <inst_423>:
    2358:	0000b537          	lui	a0,0xb
    235c:	50550513          	add	a0,a0,1285 # b505 <_end+0x6bc5>
    2360:	00500593          	li	a1,5
    2364:	02b50633          	mul	a2,a0,a1
    2368:	64c12a23          	sw	a2,1620(sp)

0000236c <inst_424>:
    236c:	0000b537          	lui	a0,0xb
    2370:	50550513          	add	a0,a0,1285 # b505 <_end+0x6bc5>
    2374:	333335b7          	lui	a1,0x33333
    2378:	33358593          	add	a1,a1,819 # 33333333 <_end+0x3332e9f3>
    237c:	02b50633          	mul	a2,a0,a1
    2380:	64c12c23          	sw	a2,1624(sp)

00002384 <inst_425>:
    2384:	0000b537          	lui	a0,0xb
    2388:	50550513          	add	a0,a0,1285 # b505 <_end+0x6bc5>
    238c:	666665b7          	lui	a1,0x66666
    2390:	66658593          	add	a1,a1,1638 # 66666666 <_end+0x66661d26>
    2394:	02b50633          	mul	a2,a0,a1
    2398:	64c12e23          	sw	a2,1628(sp)

0000239c <inst_426>:
    239c:	0000b537          	lui	a0,0xb
    23a0:	50550513          	add	a0,a0,1285 # b505 <_end+0x6bc5>
    23a4:	ffff55b7          	lui	a1,0xffff5
    23a8:	afc58593          	add	a1,a1,-1284 # ffff4afc <_end+0xffff01bc>
    23ac:	02b50633          	mul	a2,a0,a1
    23b0:	66c12023          	sw	a2,1632(sp)

000023b4 <inst_427>:
    23b4:	0000b537          	lui	a0,0xb
    23b8:	50550513          	add	a0,a0,1285 # b505 <_end+0x6bc5>
    23bc:	0000b5b7          	lui	a1,0xb
    23c0:	50458593          	add	a1,a1,1284 # b504 <_end+0x6bc4>
    23c4:	02b50633          	mul	a2,a0,a1
    23c8:	66c12223          	sw	a2,1636(sp)

000023cc <inst_428>:
    23cc:	0000b537          	lui	a0,0xb
    23d0:	50550513          	add	a0,a0,1285 # b505 <_end+0x6bc5>
    23d4:	00200593          	li	a1,2
    23d8:	02b50633          	mul	a2,a0,a1
    23dc:	66c12423          	sw	a2,1640(sp)

000023e0 <inst_429>:
    23e0:	0000b537          	lui	a0,0xb
    23e4:	50550513          	add	a0,a0,1285 # b505 <_end+0x6bc5>
    23e8:	555555b7          	lui	a1,0x55555
    23ec:	55458593          	add	a1,a1,1364 # 55555554 <_end+0x55550c14>
    23f0:	02b50633          	mul	a2,a0,a1
    23f4:	66c12623          	sw	a2,1644(sp)

000023f8 <inst_430>:
    23f8:	0000b537          	lui	a0,0xb
    23fc:	50550513          	add	a0,a0,1285 # b505 <_end+0x6bc5>
    2400:	00000593          	li	a1,0
    2404:	02b50633          	mul	a2,a0,a1
    2408:	66c12823          	sw	a2,1648(sp)

0000240c <inst_431>:
    240c:	0000b537          	lui	a0,0xb
    2410:	50550513          	add	a0,a0,1285 # b505 <_end+0x6bc5>
    2414:	00400593          	li	a1,4
    2418:	02b50633          	mul	a2,a0,a1
    241c:	66c12a23          	sw	a2,1652(sp)

00002420 <inst_432>:
    2420:	0000b537          	lui	a0,0xb
    2424:	50550513          	add	a0,a0,1285 # b505 <_end+0x6bc5>
    2428:	333335b7          	lui	a1,0x33333
    242c:	33258593          	add	a1,a1,818 # 33333332 <_end+0x3332e9f2>
    2430:	02b50633          	mul	a2,a0,a1
    2434:	66c12c23          	sw	a2,1656(sp)

00002438 <inst_433>:
    2438:	0000b537          	lui	a0,0xb
    243c:	50550513          	add	a0,a0,1285 # b505 <_end+0x6bc5>
    2440:	666665b7          	lui	a1,0x66666
    2444:	66558593          	add	a1,a1,1637 # 66666665 <_end+0x66661d25>
    2448:	02b50633          	mul	a2,a0,a1
    244c:	66c12e23          	sw	a2,1660(sp)

00002450 <inst_434>:
    2450:	0000b537          	lui	a0,0xb
    2454:	50550513          	add	a0,a0,1285 # b505 <_end+0x6bc5>
    2458:	0000b5b7          	lui	a1,0xb
    245c:	50358593          	add	a1,a1,1283 # b503 <_end+0x6bc3>
    2460:	02b50633          	mul	a2,a0,a1
    2464:	68c12023          	sw	a2,1664(sp)

00002468 <inst_435>:
    2468:	0000b537          	lui	a0,0xb
    246c:	50550513          	add	a0,a0,1285 # b505 <_end+0x6bc5>
    2470:	555555b7          	lui	a1,0x55555
    2474:	55658593          	add	a1,a1,1366 # 55555556 <_end+0x55550c16>
    2478:	02b50633          	mul	a2,a0,a1
    247c:	68c12223          	sw	a2,1668(sp)

00002480 <inst_436>:
    2480:	0000b537          	lui	a0,0xb
    2484:	50550513          	add	a0,a0,1285 # b505 <_end+0x6bc5>
    2488:	aaaab5b7          	lui	a1,0xaaaab
    248c:	aab58593          	add	a1,a1,-1365 # aaaaaaab <_end+0xaaaa616b>
    2490:	02b50633          	mul	a2,a0,a1
    2494:	68c12423          	sw	a2,1672(sp)

00002498 <inst_437>:
    2498:	0000b537          	lui	a0,0xb
    249c:	50550513          	add	a0,a0,1285 # b505 <_end+0x6bc5>
    24a0:	00600593          	li	a1,6
    24a4:	02b50633          	mul	a2,a0,a1
    24a8:	68c12623          	sw	a2,1676(sp)

000024ac <inst_438>:
    24ac:	0000b537          	lui	a0,0xb
    24b0:	50550513          	add	a0,a0,1285 # b505 <_end+0x6bc5>
    24b4:	333335b7          	lui	a1,0x33333
    24b8:	33458593          	add	a1,a1,820 # 33333334 <_end+0x3332e9f4>
    24bc:	02b50633          	mul	a2,a0,a1
    24c0:	68c12823          	sw	a2,1680(sp)

000024c4 <inst_439>:
    24c4:	0000b537          	lui	a0,0xb
    24c8:	50550513          	add	a0,a0,1285 # b505 <_end+0x6bc5>
    24cc:	666665b7          	lui	a1,0x66666
    24d0:	66758593          	add	a1,a1,1639 # 66666667 <_end+0x66661d27>
    24d4:	02b50633          	mul	a2,a0,a1
    24d8:	68c12a23          	sw	a2,1684(sp)

000024dc <inst_440>:
    24dc:	0000b537          	lui	a0,0xb
    24e0:	50550513          	add	a0,a0,1285 # b505 <_end+0x6bc5>
    24e4:	ffff55b7          	lui	a1,0xffff5
    24e8:	afd58593          	add	a1,a1,-1283 # ffff4afd <_end+0xffff01bd>
    24ec:	02b50633          	mul	a2,a0,a1
    24f0:	68c12c23          	sw	a2,1688(sp)

000024f4 <inst_441>:
    24f4:	0000b537          	lui	a0,0xb
    24f8:	50550513          	add	a0,a0,1285 # b505 <_end+0x6bc5>
    24fc:	0000b5b7          	lui	a1,0xb
    2500:	50558593          	add	a1,a1,1285 # b505 <_end+0x6bc5>
    2504:	02b50633          	mul	a2,a0,a1
    2508:	68c12e23          	sw	a2,1692(sp)

0000250c <inst_442>:
    250c:	00000513          	li	a0,0
    2510:	666665b7          	lui	a1,0x66666
    2514:	66658593          	add	a1,a1,1638 # 66666666 <_end+0x66661d26>
    2518:	02b50633          	mul	a2,a0,a1
    251c:	6ac12023          	sw	a2,1696(sp)

00002520 <inst_443>:
    2520:	00000513          	li	a0,0
    2524:	ffff55b7          	lui	a1,0xffff5
    2528:	afc58593          	add	a1,a1,-1284 # ffff4afc <_end+0xffff01bc>
    252c:	02b50633          	mul	a2,a0,a1
    2530:	6ac12223          	sw	a2,1700(sp)

00002534 <inst_444>:
    2534:	00000513          	li	a0,0
    2538:	0000b5b7          	lui	a1,0xb
    253c:	50458593          	add	a1,a1,1284 # b504 <_end+0x6bc4>
    2540:	02b50633          	mul	a2,a0,a1
    2544:	6ac12423          	sw	a2,1704(sp)

00002548 <inst_445>:
    2548:	00000513          	li	a0,0
    254c:	00200593          	li	a1,2
    2550:	02b50633          	mul	a2,a0,a1
    2554:	6ac12623          	sw	a2,1708(sp)

00002558 <inst_446>:
    2558:	00000513          	li	a0,0
    255c:	555555b7          	lui	a1,0x55555
    2560:	55458593          	add	a1,a1,1364 # 55555554 <_end+0x55550c14>
    2564:	02b50633          	mul	a2,a0,a1
    2568:	6ac12823          	sw	a2,1712(sp)

0000256c <inst_447>:
    256c:	00000513          	li	a0,0
    2570:	00400593          	li	a1,4
    2574:	02b50633          	mul	a2,a0,a1
    2578:	6ac12a23          	sw	a2,1716(sp)

0000257c <inst_448>:
    257c:	00000513          	li	a0,0
    2580:	333335b7          	lui	a1,0x33333
    2584:	33258593          	add	a1,a1,818 # 33333332 <_end+0x3332e9f2>
    2588:	02b50633          	mul	a2,a0,a1
    258c:	6ac12c23          	sw	a2,1720(sp)

00002590 <inst_449>:
    2590:	00000513          	li	a0,0
    2594:	666665b7          	lui	a1,0x66666
    2598:	66558593          	add	a1,a1,1637 # 66666665 <_end+0x66661d25>
    259c:	02b50633          	mul	a2,a0,a1
    25a0:	6ac12e23          	sw	a2,1724(sp)

000025a4 <inst_450>:
    25a4:	00000513          	li	a0,0
    25a8:	0000b5b7          	lui	a1,0xb
    25ac:	50358593          	add	a1,a1,1283 # b503 <_end+0x6bc3>
    25b0:	02b50633          	mul	a2,a0,a1
    25b4:	6cc12023          	sw	a2,1728(sp)

000025b8 <inst_451>:
    25b8:	00000513          	li	a0,0
    25bc:	555555b7          	lui	a1,0x55555
    25c0:	55658593          	add	a1,a1,1366 # 55555556 <_end+0x55550c16>
    25c4:	02b50633          	mul	a2,a0,a1
    25c8:	6cc12223          	sw	a2,1732(sp)

000025cc <inst_452>:
    25cc:	00000513          	li	a0,0
    25d0:	aaaab5b7          	lui	a1,0xaaaab
    25d4:	aab58593          	add	a1,a1,-1365 # aaaaaaab <_end+0xaaaa616b>
    25d8:	02b50633          	mul	a2,a0,a1
    25dc:	6cc12423          	sw	a2,1736(sp)

000025e0 <inst_453>:
    25e0:	00000513          	li	a0,0
    25e4:	00600593          	li	a1,6
    25e8:	02b50633          	mul	a2,a0,a1
    25ec:	6cc12623          	sw	a2,1740(sp)

000025f0 <inst_454>:
    25f0:	00000513          	li	a0,0
    25f4:	333335b7          	lui	a1,0x33333
    25f8:	33458593          	add	a1,a1,820 # 33333334 <_end+0x3332e9f4>
    25fc:	02b50633          	mul	a2,a0,a1
    2600:	6cc12823          	sw	a2,1744(sp)

00002604 <inst_455>:
    2604:	00000513          	li	a0,0
    2608:	666665b7          	lui	a1,0x66666
    260c:	66758593          	add	a1,a1,1639 # 66666667 <_end+0x66661d27>
    2610:	02b50633          	mul	a2,a0,a1
    2614:	6cc12a23          	sw	a2,1748(sp)

00002618 <inst_456>:
    2618:	00000513          	li	a0,0
    261c:	ffff55b7          	lui	a1,0xffff5
    2620:	afd58593          	add	a1,a1,-1283 # ffff4afd <_end+0xffff01bd>
    2624:	02b50633          	mul	a2,a0,a1
    2628:	6cc12c23          	sw	a2,1752(sp)

0000262c <inst_457>:
    262c:	00000513          	li	a0,0
    2630:	0000b5b7          	lui	a1,0xb
    2634:	50558593          	add	a1,a1,1285 # b505 <_end+0x6bc5>
    2638:	02b50633          	mul	a2,a0,a1
    263c:	6cc12e23          	sw	a2,1756(sp)

00002640 <inst_458>:
    2640:	00400513          	li	a0,4
    2644:	00300593          	li	a1,3
    2648:	02b50633          	mul	a2,a0,a1
    264c:	6ec12023          	sw	a2,1760(sp)

00002650 <inst_459>:
    2650:	00400513          	li	a0,4
    2654:	555555b7          	lui	a1,0x55555
    2658:	55558593          	add	a1,a1,1365 # 55555555 <_end+0x55550c15>
    265c:	02b50633          	mul	a2,a0,a1
    2660:	6ec12223          	sw	a2,1764(sp)

00002664 <inst_460>:
    2664:	00400513          	li	a0,4
    2668:	aaaab5b7          	lui	a1,0xaaaab
    266c:	aaa58593          	add	a1,a1,-1366 # aaaaaaaa <_end+0xaaaa616a>
    2670:	02b50633          	mul	a2,a0,a1
    2674:	6ec12423          	sw	a2,1768(sp)

00002678 <inst_461>:
    2678:	00400513          	li	a0,4
    267c:	00500593          	li	a1,5
    2680:	02b50633          	mul	a2,a0,a1
    2684:	6ec12623          	sw	a2,1772(sp)

00002688 <inst_462>:
    2688:	00400513          	li	a0,4
    268c:	333335b7          	lui	a1,0x33333
    2690:	33358593          	add	a1,a1,819 # 33333333 <_end+0x3332e9f3>
    2694:	02b50633          	mul	a2,a0,a1
    2698:	6ec12823          	sw	a2,1776(sp)

0000269c <inst_463>:
    269c:	00400513          	li	a0,4
    26a0:	666665b7          	lui	a1,0x66666
    26a4:	66658593          	add	a1,a1,1638 # 66666666 <_end+0x66661d26>
    26a8:	02b50633          	mul	a2,a0,a1
    26ac:	6ec12a23          	sw	a2,1780(sp)

000026b0 <inst_464>:
    26b0:	00400513          	li	a0,4
    26b4:	ffff55b7          	lui	a1,0xffff5
    26b8:	afc58593          	add	a1,a1,-1284 # ffff4afc <_end+0xffff01bc>
    26bc:	02b50633          	mul	a2,a0,a1
    26c0:	6ec12c23          	sw	a2,1784(sp)

000026c4 <inst_465>:
    26c4:	00400513          	li	a0,4
    26c8:	0000b5b7          	lui	a1,0xb
    26cc:	50458593          	add	a1,a1,1284 # b504 <_end+0x6bc4>
    26d0:	02b50633          	mul	a2,a0,a1
    26d4:	6ec12e23          	sw	a2,1788(sp)

000026d8 <inst_466>:
    26d8:	00400513          	li	a0,4
    26dc:	00200593          	li	a1,2
    26e0:	02b50633          	mul	a2,a0,a1
    26e4:	70c12023          	sw	a2,1792(sp)

000026e8 <inst_467>:
    26e8:	00400513          	li	a0,4
    26ec:	00000593          	li	a1,0
    26f0:	02b50633          	mul	a2,a0,a1
    26f4:	70c12223          	sw	a2,1796(sp)

000026f8 <inst_468>:
    26f8:	00400513          	li	a0,4
    26fc:	00400593          	li	a1,4
    2700:	02b50633          	mul	a2,a0,a1
    2704:	70c12423          	sw	a2,1800(sp)

00002708 <inst_469>:
    2708:	00400513          	li	a0,4
    270c:	333335b7          	lui	a1,0x33333
    2710:	33258593          	add	a1,a1,818 # 33333332 <_end+0x3332e9f2>
    2714:	02b50633          	mul	a2,a0,a1
    2718:	70c12623          	sw	a2,1804(sp)

0000271c <inst_470>:
    271c:	00400513          	li	a0,4
    2720:	666665b7          	lui	a1,0x66666
    2724:	66558593          	add	a1,a1,1637 # 66666665 <_end+0x66661d25>
    2728:	02b50633          	mul	a2,a0,a1
    272c:	70c12823          	sw	a2,1808(sp)

00002730 <inst_471>:
    2730:	00400513          	li	a0,4
    2734:	0000b5b7          	lui	a1,0xb
    2738:	50358593          	add	a1,a1,1283 # b503 <_end+0x6bc3>
    273c:	02b50633          	mul	a2,a0,a1
    2740:	70c12a23          	sw	a2,1812(sp)

00002744 <inst_472>:
    2744:	00400513          	li	a0,4
    2748:	555555b7          	lui	a1,0x55555
    274c:	55658593          	add	a1,a1,1366 # 55555556 <_end+0x55550c16>
    2750:	02b50633          	mul	a2,a0,a1
    2754:	70c12c23          	sw	a2,1816(sp)

00002758 <inst_473>:
    2758:	00400513          	li	a0,4
    275c:	aaaab5b7          	lui	a1,0xaaaab
    2760:	aab58593          	add	a1,a1,-1365 # aaaaaaab <_end+0xaaaa616b>
    2764:	02b50633          	mul	a2,a0,a1
    2768:	70c12e23          	sw	a2,1820(sp)

0000276c <inst_474>:
    276c:	00400513          	li	a0,4
    2770:	00600593          	li	a1,6
    2774:	02b50633          	mul	a2,a0,a1
    2778:	72c12023          	sw	a2,1824(sp)

0000277c <inst_475>:
    277c:	00400513          	li	a0,4
    2780:	333335b7          	lui	a1,0x33333
    2784:	33458593          	add	a1,a1,820 # 33333334 <_end+0x3332e9f4>
    2788:	02b50633          	mul	a2,a0,a1
    278c:	72c12223          	sw	a2,1828(sp)

00002790 <inst_476>:
    2790:	00400513          	li	a0,4
    2794:	666665b7          	lui	a1,0x66666
    2798:	66758593          	add	a1,a1,1639 # 66666667 <_end+0x66661d27>
    279c:	02b50633          	mul	a2,a0,a1
    27a0:	72c12423          	sw	a2,1832(sp)

000027a4 <inst_477>:
    27a4:	00400513          	li	a0,4
    27a8:	ffff55b7          	lui	a1,0xffff5
    27ac:	afd58593          	add	a1,a1,-1283 # ffff4afd <_end+0xffff01bd>
    27b0:	02b50633          	mul	a2,a0,a1
    27b4:	72c12623          	sw	a2,1836(sp)

000027b8 <inst_478>:
    27b8:	00400513          	li	a0,4
    27bc:	0000b5b7          	lui	a1,0xb
    27c0:	50558593          	add	a1,a1,1285 # b505 <_end+0x6bc5>
    27c4:	02b50633          	mul	a2,a0,a1
    27c8:	72c12823          	sw	a2,1840(sp)

000027cc <inst_479>:
    27cc:	33333537          	lui	a0,0x33333
    27d0:	33250513          	add	a0,a0,818 # 33333332 <_end+0x3332e9f2>
    27d4:	00300593          	li	a1,3
    27d8:	02b50633          	mul	a2,a0,a1
    27dc:	72c12a23          	sw	a2,1844(sp)

000027e0 <inst_480>:
    27e0:	33333537          	lui	a0,0x33333
    27e4:	33250513          	add	a0,a0,818 # 33333332 <_end+0x3332e9f2>
    27e8:	555555b7          	lui	a1,0x55555
    27ec:	55558593          	add	a1,a1,1365 # 55555555 <_end+0x55550c15>
    27f0:	02b50633          	mul	a2,a0,a1
    27f4:	72c12c23          	sw	a2,1848(sp)

000027f8 <inst_481>:
    27f8:	33333537          	lui	a0,0x33333
    27fc:	33250513          	add	a0,a0,818 # 33333332 <_end+0x3332e9f2>
    2800:	aaaab5b7          	lui	a1,0xaaaab
    2804:	aaa58593          	add	a1,a1,-1366 # aaaaaaaa <_end+0xaaaa616a>
    2808:	02b50633          	mul	a2,a0,a1
    280c:	72c12e23          	sw	a2,1852(sp)

00002810 <inst_482>:
    2810:	33333537          	lui	a0,0x33333
    2814:	33250513          	add	a0,a0,818 # 33333332 <_end+0x3332e9f2>
    2818:	00500593          	li	a1,5
    281c:	02b50633          	mul	a2,a0,a1
    2820:	74c12023          	sw	a2,1856(sp)

00002824 <inst_483>:
    2824:	33333537          	lui	a0,0x33333
    2828:	33250513          	add	a0,a0,818 # 33333332 <_end+0x3332e9f2>
    282c:	333335b7          	lui	a1,0x33333
    2830:	33358593          	add	a1,a1,819 # 33333333 <_end+0x3332e9f3>
    2834:	02b50633          	mul	a2,a0,a1
    2838:	74c12223          	sw	a2,1860(sp)

0000283c <inst_484>:
    283c:	33333537          	lui	a0,0x33333
    2840:	33250513          	add	a0,a0,818 # 33333332 <_end+0x3332e9f2>
    2844:	666665b7          	lui	a1,0x66666
    2848:	66658593          	add	a1,a1,1638 # 66666666 <_end+0x66661d26>
    284c:	02b50633          	mul	a2,a0,a1
    2850:	74c12423          	sw	a2,1864(sp)

00002854 <inst_485>:
    2854:	33333537          	lui	a0,0x33333
    2858:	33250513          	add	a0,a0,818 # 33333332 <_end+0x3332e9f2>
    285c:	ffff55b7          	lui	a1,0xffff5
    2860:	afc58593          	add	a1,a1,-1284 # ffff4afc <_end+0xffff01bc>
    2864:	02b50633          	mul	a2,a0,a1
    2868:	74c12623          	sw	a2,1868(sp)

0000286c <inst_486>:
    286c:	33333537          	lui	a0,0x33333
    2870:	33250513          	add	a0,a0,818 # 33333332 <_end+0x3332e9f2>
    2874:	0000b5b7          	lui	a1,0xb
    2878:	50458593          	add	a1,a1,1284 # b504 <_end+0x6bc4>
    287c:	02b50633          	mul	a2,a0,a1
    2880:	74c12823          	sw	a2,1872(sp)

00002884 <inst_487>:
    2884:	33333537          	lui	a0,0x33333
    2888:	33250513          	add	a0,a0,818 # 33333332 <_end+0x3332e9f2>
    288c:	00200593          	li	a1,2
    2890:	02b50633          	mul	a2,a0,a1
    2894:	74c12a23          	sw	a2,1876(sp)

00002898 <inst_488>:
    2898:	33333537          	lui	a0,0x33333
    289c:	33250513          	add	a0,a0,818 # 33333332 <_end+0x3332e9f2>
    28a0:	555555b7          	lui	a1,0x55555
    28a4:	55458593          	add	a1,a1,1364 # 55555554 <_end+0x55550c14>
    28a8:	02b50633          	mul	a2,a0,a1
    28ac:	74c12c23          	sw	a2,1880(sp)

000028b0 <inst_489>:
    28b0:	33333537          	lui	a0,0x33333
    28b4:	33250513          	add	a0,a0,818 # 33333332 <_end+0x3332e9f2>
    28b8:	00000593          	li	a1,0
    28bc:	02b50633          	mul	a2,a0,a1
    28c0:	74c12e23          	sw	a2,1884(sp)

000028c4 <inst_490>:
    28c4:	33333537          	lui	a0,0x33333
    28c8:	33250513          	add	a0,a0,818 # 33333332 <_end+0x3332e9f2>
    28cc:	00400593          	li	a1,4
    28d0:	02b50633          	mul	a2,a0,a1
    28d4:	76c12023          	sw	a2,1888(sp)

000028d8 <inst_491>:
    28d8:	33333537          	lui	a0,0x33333
    28dc:	33250513          	add	a0,a0,818 # 33333332 <_end+0x3332e9f2>
    28e0:	333335b7          	lui	a1,0x33333
    28e4:	33258593          	add	a1,a1,818 # 33333332 <_end+0x3332e9f2>
    28e8:	02b50633          	mul	a2,a0,a1
    28ec:	76c12223          	sw	a2,1892(sp)

000028f0 <inst_492>:
    28f0:	33333537          	lui	a0,0x33333
    28f4:	33250513          	add	a0,a0,818 # 33333332 <_end+0x3332e9f2>
    28f8:	666665b7          	lui	a1,0x66666
    28fc:	66558593          	add	a1,a1,1637 # 66666665 <_end+0x66661d25>
    2900:	02b50633          	mul	a2,a0,a1
    2904:	76c12423          	sw	a2,1896(sp)

00002908 <inst_493>:
    2908:	33333537          	lui	a0,0x33333
    290c:	33250513          	add	a0,a0,818 # 33333332 <_end+0x3332e9f2>
    2910:	0000b5b7          	lui	a1,0xb
    2914:	50358593          	add	a1,a1,1283 # b503 <_end+0x6bc3>
    2918:	02b50633          	mul	a2,a0,a1
    291c:	76c12623          	sw	a2,1900(sp)

00002920 <inst_494>:
    2920:	33333537          	lui	a0,0x33333
    2924:	33250513          	add	a0,a0,818 # 33333332 <_end+0x3332e9f2>
    2928:	555555b7          	lui	a1,0x55555
    292c:	55658593          	add	a1,a1,1366 # 55555556 <_end+0x55550c16>
    2930:	02b50633          	mul	a2,a0,a1
    2934:	76c12823          	sw	a2,1904(sp)

00002938 <inst_495>:
    2938:	33333537          	lui	a0,0x33333
    293c:	33250513          	add	a0,a0,818 # 33333332 <_end+0x3332e9f2>
    2940:	aaaab5b7          	lui	a1,0xaaaab
    2944:	aab58593          	add	a1,a1,-1365 # aaaaaaab <_end+0xaaaa616b>
    2948:	02b50633          	mul	a2,a0,a1
    294c:	76c12a23          	sw	a2,1908(sp)

00002950 <inst_496>:
    2950:	33333537          	lui	a0,0x33333
    2954:	33250513          	add	a0,a0,818 # 33333332 <_end+0x3332e9f2>
    2958:	00600593          	li	a1,6
    295c:	02b50633          	mul	a2,a0,a1
    2960:	76c12c23          	sw	a2,1912(sp)

00002964 <inst_497>:
    2964:	33333537          	lui	a0,0x33333
    2968:	33250513          	add	a0,a0,818 # 33333332 <_end+0x3332e9f2>
    296c:	333335b7          	lui	a1,0x33333
    2970:	33458593          	add	a1,a1,820 # 33333334 <_end+0x3332e9f4>
    2974:	02b50633          	mul	a2,a0,a1
    2978:	76c12e23          	sw	a2,1916(sp)

0000297c <inst_498>:
    297c:	33333537          	lui	a0,0x33333
    2980:	33250513          	add	a0,a0,818 # 33333332 <_end+0x3332e9f2>
    2984:	666665b7          	lui	a1,0x66666
    2988:	66758593          	add	a1,a1,1639 # 66666667 <_end+0x66661d27>
    298c:	02b50633          	mul	a2,a0,a1
    2990:	78c12023          	sw	a2,1920(sp)

00002994 <inst_499>:
    2994:	33333537          	lui	a0,0x33333
    2998:	33250513          	add	a0,a0,818 # 33333332 <_end+0x3332e9f2>
    299c:	ffff55b7          	lui	a1,0xffff5
    29a0:	afd58593          	add	a1,a1,-1283 # ffff4afd <_end+0xffff01bd>
    29a4:	02b50633          	mul	a2,a0,a1
    29a8:	78c12223          	sw	a2,1924(sp)

000029ac <inst_500>:
    29ac:	33333537          	lui	a0,0x33333
    29b0:	33250513          	add	a0,a0,818 # 33333332 <_end+0x3332e9f2>
    29b4:	0000b5b7          	lui	a1,0xb
    29b8:	50558593          	add	a1,a1,1285 # b505 <_end+0x6bc5>
    29bc:	02b50633          	mul	a2,a0,a1
    29c0:	78c12423          	sw	a2,1928(sp)

000029c4 <inst_501>:
    29c4:	66666537          	lui	a0,0x66666
    29c8:	66550513          	add	a0,a0,1637 # 66666665 <_end+0x66661d25>
    29cc:	00300593          	li	a1,3
    29d0:	02b50633          	mul	a2,a0,a1
    29d4:	78c12623          	sw	a2,1932(sp)

000029d8 <inst_502>:
    29d8:	66666537          	lui	a0,0x66666
    29dc:	66550513          	add	a0,a0,1637 # 66666665 <_end+0x66661d25>
    29e0:	555555b7          	lui	a1,0x55555
    29e4:	55558593          	add	a1,a1,1365 # 55555555 <_end+0x55550c15>
    29e8:	02b50633          	mul	a2,a0,a1
    29ec:	78c12823          	sw	a2,1936(sp)

000029f0 <inst_503>:
    29f0:	66666537          	lui	a0,0x66666
    29f4:	66550513          	add	a0,a0,1637 # 66666665 <_end+0x66661d25>
    29f8:	aaaab5b7          	lui	a1,0xaaaab
    29fc:	aaa58593          	add	a1,a1,-1366 # aaaaaaaa <_end+0xaaaa616a>
    2a00:	02b50633          	mul	a2,a0,a1
    2a04:	78c12a23          	sw	a2,1940(sp)

00002a08 <inst_504>:
    2a08:	66666537          	lui	a0,0x66666
    2a0c:	66550513          	add	a0,a0,1637 # 66666665 <_end+0x66661d25>
    2a10:	00500593          	li	a1,5
    2a14:	02b50633          	mul	a2,a0,a1
    2a18:	78c12c23          	sw	a2,1944(sp)

00002a1c <inst_505>:
    2a1c:	66666537          	lui	a0,0x66666
    2a20:	66550513          	add	a0,a0,1637 # 66666665 <_end+0x66661d25>
    2a24:	333335b7          	lui	a1,0x33333
    2a28:	33358593          	add	a1,a1,819 # 33333333 <_end+0x3332e9f3>
    2a2c:	02b50633          	mul	a2,a0,a1
    2a30:	78c12e23          	sw	a2,1948(sp)

00002a34 <inst_506>:
    2a34:	66666537          	lui	a0,0x66666
    2a38:	66550513          	add	a0,a0,1637 # 66666665 <_end+0x66661d25>
    2a3c:	666665b7          	lui	a1,0x66666
    2a40:	66658593          	add	a1,a1,1638 # 66666666 <_end+0x66661d26>
    2a44:	02b50633          	mul	a2,a0,a1
    2a48:	7ac12023          	sw	a2,1952(sp)

00002a4c <inst_507>:
    2a4c:	66666537          	lui	a0,0x66666
    2a50:	66550513          	add	a0,a0,1637 # 66666665 <_end+0x66661d25>
    2a54:	ffff55b7          	lui	a1,0xffff5
    2a58:	afc58593          	add	a1,a1,-1284 # ffff4afc <_end+0xffff01bc>
    2a5c:	02b50633          	mul	a2,a0,a1
    2a60:	7ac12223          	sw	a2,1956(sp)

00002a64 <inst_508>:
    2a64:	66666537          	lui	a0,0x66666
    2a68:	66550513          	add	a0,a0,1637 # 66666665 <_end+0x66661d25>
    2a6c:	0000b5b7          	lui	a1,0xb
    2a70:	50458593          	add	a1,a1,1284 # b504 <_end+0x6bc4>
    2a74:	02b50633          	mul	a2,a0,a1
    2a78:	7ac12423          	sw	a2,1960(sp)

00002a7c <inst_509>:
    2a7c:	66666537          	lui	a0,0x66666
    2a80:	66550513          	add	a0,a0,1637 # 66666665 <_end+0x66661d25>
    2a84:	00200593          	li	a1,2
    2a88:	02b50633          	mul	a2,a0,a1
    2a8c:	7ac12623          	sw	a2,1964(sp)

00002a90 <inst_510>:
    2a90:	66666537          	lui	a0,0x66666
    2a94:	66550513          	add	a0,a0,1637 # 66666665 <_end+0x66661d25>
    2a98:	555555b7          	lui	a1,0x55555
    2a9c:	55458593          	add	a1,a1,1364 # 55555554 <_end+0x55550c14>
    2aa0:	02b50633          	mul	a2,a0,a1
    2aa4:	7ac12823          	sw	a2,1968(sp)

00002aa8 <inst_511>:
    2aa8:	66666537          	lui	a0,0x66666
    2aac:	66550513          	add	a0,a0,1637 # 66666665 <_end+0x66661d25>
    2ab0:	00400593          	li	a1,4
    2ab4:	02b50633          	mul	a2,a0,a1
    2ab8:	7ac12a23          	sw	a2,1972(sp)

00002abc <inst_512>:
    2abc:	66666537          	lui	a0,0x66666
    2ac0:	66550513          	add	a0,a0,1637 # 66666665 <_end+0x66661d25>
    2ac4:	333335b7          	lui	a1,0x33333
    2ac8:	33258593          	add	a1,a1,818 # 33333332 <_end+0x3332e9f2>
    2acc:	02b50633          	mul	a2,a0,a1
    2ad0:	7ac12c23          	sw	a2,1976(sp)

00002ad4 <inst_513>:
    2ad4:	66666537          	lui	a0,0x66666
    2ad8:	66550513          	add	a0,a0,1637 # 66666665 <_end+0x66661d25>
    2adc:	666665b7          	lui	a1,0x66666
    2ae0:	66558593          	add	a1,a1,1637 # 66666665 <_end+0x66661d25>
    2ae4:	02b50633          	mul	a2,a0,a1
    2ae8:	7ac12e23          	sw	a2,1980(sp)

00002aec <inst_514>:
    2aec:	66666537          	lui	a0,0x66666
    2af0:	66550513          	add	a0,a0,1637 # 66666665 <_end+0x66661d25>
    2af4:	0000b5b7          	lui	a1,0xb
    2af8:	50358593          	add	a1,a1,1283 # b503 <_end+0x6bc3>
    2afc:	02b50633          	mul	a2,a0,a1
    2b00:	7cc12023          	sw	a2,1984(sp)

00002b04 <inst_515>:
    2b04:	66666537          	lui	a0,0x66666
    2b08:	66550513          	add	a0,a0,1637 # 66666665 <_end+0x66661d25>
    2b0c:	555555b7          	lui	a1,0x55555
    2b10:	55658593          	add	a1,a1,1366 # 55555556 <_end+0x55550c16>
    2b14:	02b50633          	mul	a2,a0,a1
    2b18:	7cc12223          	sw	a2,1988(sp)

00002b1c <inst_516>:
    2b1c:	66666537          	lui	a0,0x66666
    2b20:	66550513          	add	a0,a0,1637 # 66666665 <_end+0x66661d25>
    2b24:	aaaab5b7          	lui	a1,0xaaaab
    2b28:	aab58593          	add	a1,a1,-1365 # aaaaaaab <_end+0xaaaa616b>
    2b2c:	02b50633          	mul	a2,a0,a1
    2b30:	7cc12423          	sw	a2,1992(sp)

00002b34 <inst_517>:
    2b34:	66666537          	lui	a0,0x66666
    2b38:	66550513          	add	a0,a0,1637 # 66666665 <_end+0x66661d25>
    2b3c:	00600593          	li	a1,6
    2b40:	02b50633          	mul	a2,a0,a1
    2b44:	7cc12623          	sw	a2,1996(sp)

00002b48 <inst_518>:
    2b48:	66666537          	lui	a0,0x66666
    2b4c:	66550513          	add	a0,a0,1637 # 66666665 <_end+0x66661d25>
    2b50:	333335b7          	lui	a1,0x33333
    2b54:	33458593          	add	a1,a1,820 # 33333334 <_end+0x3332e9f4>
    2b58:	02b50633          	mul	a2,a0,a1
    2b5c:	7cc12823          	sw	a2,2000(sp)

00002b60 <inst_519>:
    2b60:	66666537          	lui	a0,0x66666
    2b64:	66550513          	add	a0,a0,1637 # 66666665 <_end+0x66661d25>
    2b68:	666665b7          	lui	a1,0x66666
    2b6c:	66758593          	add	a1,a1,1639 # 66666667 <_end+0x66661d27>
    2b70:	02b50633          	mul	a2,a0,a1
    2b74:	7cc12a23          	sw	a2,2004(sp)

00002b78 <inst_520>:
    2b78:	66666537          	lui	a0,0x66666
    2b7c:	66550513          	add	a0,a0,1637 # 66666665 <_end+0x66661d25>
    2b80:	ffff55b7          	lui	a1,0xffff5
    2b84:	afd58593          	add	a1,a1,-1283 # ffff4afd <_end+0xffff01bd>
    2b88:	02b50633          	mul	a2,a0,a1
    2b8c:	7cc12c23          	sw	a2,2008(sp)

00002b90 <inst_521>:
    2b90:	66666537          	lui	a0,0x66666
    2b94:	66550513          	add	a0,a0,1637 # 66666665 <_end+0x66661d25>
    2b98:	0000b5b7          	lui	a1,0xb
    2b9c:	50558593          	add	a1,a1,1285 # b505 <_end+0x6bc5>
    2ba0:	02b50633          	mul	a2,a0,a1
    2ba4:	7cc12e23          	sw	a2,2012(sp)

00002ba8 <inst_522>:
    2ba8:	0000b537          	lui	a0,0xb
    2bac:	50350513          	add	a0,a0,1283 # b503 <_end+0x6bc3>
    2bb0:	00300593          	li	a1,3
    2bb4:	02b50633          	mul	a2,a0,a1
    2bb8:	7ec12023          	sw	a2,2016(sp)

00002bbc <inst_523>:
    2bbc:	0000b537          	lui	a0,0xb
    2bc0:	50350513          	add	a0,a0,1283 # b503 <_end+0x6bc3>
    2bc4:	555555b7          	lui	a1,0x55555
    2bc8:	55558593          	add	a1,a1,1365 # 55555555 <_end+0x55550c15>
    2bcc:	02b50633          	mul	a2,a0,a1
    2bd0:	7ec12223          	sw	a2,2020(sp)

00002bd4 <inst_524>:
    2bd4:	0000b537          	lui	a0,0xb
    2bd8:	50350513          	add	a0,a0,1283 # b503 <_end+0x6bc3>
    2bdc:	aaaab5b7          	lui	a1,0xaaaab
    2be0:	aaa58593          	add	a1,a1,-1366 # aaaaaaaa <_end+0xaaaa616a>
    2be4:	02b50633          	mul	a2,a0,a1
    2be8:	7ec12423          	sw	a2,2024(sp)

00002bec <inst_525>:
    2bec:	0000b537          	lui	a0,0xb
    2bf0:	50350513          	add	a0,a0,1283 # b503 <_end+0x6bc3>
    2bf4:	00500593          	li	a1,5
    2bf8:	02b50633          	mul	a2,a0,a1
    2bfc:	7ec12623          	sw	a2,2028(sp)

00002c00 <inst_526>:
    2c00:	0000b537          	lui	a0,0xb
    2c04:	50350513          	add	a0,a0,1283 # b503 <_end+0x6bc3>
    2c08:	333335b7          	lui	a1,0x33333
    2c0c:	33358593          	add	a1,a1,819 # 33333333 <_end+0x3332e9f3>
    2c10:	02b50633          	mul	a2,a0,a1
    2c14:	7ec12823          	sw	a2,2032(sp)

00002c18 <inst_527>:
    2c18:	0000b537          	lui	a0,0xb
    2c1c:	50350513          	add	a0,a0,1283 # b503 <_end+0x6bc3>
    2c20:	666665b7          	lui	a1,0x66666
    2c24:	66658593          	add	a1,a1,1638 # 66666666 <_end+0x66661d26>
    2c28:	02b50633          	mul	a2,a0,a1
    2c2c:	7ec12a23          	sw	a2,2036(sp)

00002c30 <inst_528>:
    2c30:	0000b537          	lui	a0,0xb
    2c34:	50350513          	add	a0,a0,1283 # b503 <_end+0x6bc3>
    2c38:	ffff55b7          	lui	a1,0xffff5
    2c3c:	afc58593          	add	a1,a1,-1284 # ffff4afc <_end+0xffff01bc>
    2c40:	02b50633          	mul	a2,a0,a1
    2c44:	7ec12c23          	sw	a2,2040(sp)

00002c48 <inst_529>:
    2c48:	0000b537          	lui	a0,0xb
    2c4c:	50350513          	add	a0,a0,1283 # b503 <_end+0x6bc3>
    2c50:	0000b5b7          	lui	a1,0xb
    2c54:	50458593          	add	a1,a1,1284 # b504 <_end+0x6bc4>
    2c58:	02b50633          	mul	a2,a0,a1
    2c5c:	7ec12e23          	sw	a2,2044(sp)
    2c60:	00002117          	auipc	sp,0x2
    2c64:	bf810113          	add	sp,sp,-1032 # 4858 <signature_x2_1>

00002c68 <inst_530>:
    2c68:	0000b537          	lui	a0,0xb
    2c6c:	50350513          	add	a0,a0,1283 # b503 <_end+0x6bc3>
    2c70:	00200593          	li	a1,2
    2c74:	02b50633          	mul	a2,a0,a1
    2c78:	c032                	sw	a2,0(sp)

00002c7a <inst_531>:
    2c7a:	0000b537          	lui	a0,0xb
    2c7e:	50350513          	add	a0,a0,1283 # b503 <_end+0x6bc3>
    2c82:	555555b7          	lui	a1,0x55555
    2c86:	55458593          	add	a1,a1,1364 # 55555554 <_end+0x55550c14>
    2c8a:	02b50633          	mul	a2,a0,a1
    2c8e:	c232                	sw	a2,4(sp)

00002c90 <inst_532>:
    2c90:	0000b537          	lui	a0,0xb
    2c94:	50350513          	add	a0,a0,1283 # b503 <_end+0x6bc3>
    2c98:	00000593          	li	a1,0
    2c9c:	02b50633          	mul	a2,a0,a1
    2ca0:	c432                	sw	a2,8(sp)

00002ca2 <inst_533>:
    2ca2:	0000b537          	lui	a0,0xb
    2ca6:	50350513          	add	a0,a0,1283 # b503 <_end+0x6bc3>
    2caa:	00400593          	li	a1,4
    2cae:	02b50633          	mul	a2,a0,a1
    2cb2:	c632                	sw	a2,12(sp)

00002cb4 <inst_534>:
    2cb4:	0000b537          	lui	a0,0xb
    2cb8:	50350513          	add	a0,a0,1283 # b503 <_end+0x6bc3>
    2cbc:	333335b7          	lui	a1,0x33333
    2cc0:	33258593          	add	a1,a1,818 # 33333332 <_end+0x3332e9f2>
    2cc4:	02b50633          	mul	a2,a0,a1
    2cc8:	c832                	sw	a2,16(sp)

00002cca <inst_535>:
    2cca:	0000b537          	lui	a0,0xb
    2cce:	50350513          	add	a0,a0,1283 # b503 <_end+0x6bc3>
    2cd2:	666665b7          	lui	a1,0x66666
    2cd6:	66558593          	add	a1,a1,1637 # 66666665 <_end+0x66661d25>
    2cda:	02b50633          	mul	a2,a0,a1
    2cde:	ca32                	sw	a2,20(sp)

00002ce0 <inst_536>:
    2ce0:	0000b537          	lui	a0,0xb
    2ce4:	50350513          	add	a0,a0,1283 # b503 <_end+0x6bc3>
    2ce8:	0000b5b7          	lui	a1,0xb
    2cec:	50358593          	add	a1,a1,1283 # b503 <_end+0x6bc3>
    2cf0:	02b50633          	mul	a2,a0,a1
    2cf4:	cc32                	sw	a2,24(sp)

00002cf6 <inst_537>:
    2cf6:	0000b537          	lui	a0,0xb
    2cfa:	50350513          	add	a0,a0,1283 # b503 <_end+0x6bc3>
    2cfe:	555555b7          	lui	a1,0x55555
    2d02:	55658593          	add	a1,a1,1366 # 55555556 <_end+0x55550c16>
    2d06:	02b50633          	mul	a2,a0,a1
    2d0a:	ce32                	sw	a2,28(sp)

00002d0c <inst_538>:
    2d0c:	0000b537          	lui	a0,0xb
    2d10:	50350513          	add	a0,a0,1283 # b503 <_end+0x6bc3>
    2d14:	aaaab5b7          	lui	a1,0xaaaab
    2d18:	aab58593          	add	a1,a1,-1365 # aaaaaaab <_end+0xaaaa616b>
    2d1c:	02b50633          	mul	a2,a0,a1
    2d20:	d032                	sw	a2,32(sp)

00002d22 <inst_539>:
    2d22:	0000b537          	lui	a0,0xb
    2d26:	50350513          	add	a0,a0,1283 # b503 <_end+0x6bc3>
    2d2a:	00600593          	li	a1,6
    2d2e:	02b50633          	mul	a2,a0,a1
    2d32:	d232                	sw	a2,36(sp)

00002d34 <inst_540>:
    2d34:	0000b537          	lui	a0,0xb
    2d38:	50350513          	add	a0,a0,1283 # b503 <_end+0x6bc3>
    2d3c:	333335b7          	lui	a1,0x33333
    2d40:	33458593          	add	a1,a1,820 # 33333334 <_end+0x3332e9f4>
    2d44:	02b50633          	mul	a2,a0,a1
    2d48:	d432                	sw	a2,40(sp)

00002d4a <inst_541>:
    2d4a:	0000b537          	lui	a0,0xb
    2d4e:	50350513          	add	a0,a0,1283 # b503 <_end+0x6bc3>
    2d52:	666665b7          	lui	a1,0x66666
    2d56:	66758593          	add	a1,a1,1639 # 66666667 <_end+0x66661d27>
    2d5a:	02b50633          	mul	a2,a0,a1
    2d5e:	d632                	sw	a2,44(sp)

00002d60 <inst_542>:
    2d60:	0000b537          	lui	a0,0xb
    2d64:	50350513          	add	a0,a0,1283 # b503 <_end+0x6bc3>
    2d68:	ffff55b7          	lui	a1,0xffff5
    2d6c:	afd58593          	add	a1,a1,-1283 # ffff4afd <_end+0xffff01bd>
    2d70:	02b50633          	mul	a2,a0,a1
    2d74:	d832                	sw	a2,48(sp)

00002d76 <inst_543>:
    2d76:	0000b537          	lui	a0,0xb
    2d7a:	50350513          	add	a0,a0,1283 # b503 <_end+0x6bc3>
    2d7e:	0000b5b7          	lui	a1,0xb
    2d82:	50558593          	add	a1,a1,1285 # b505 <_end+0x6bc5>
    2d86:	02b50633          	mul	a2,a0,a1
    2d8a:	da32                	sw	a2,52(sp)

00002d8c <inst_544>:
    2d8c:	55555537          	lui	a0,0x55555
    2d90:	55650513          	add	a0,a0,1366 # 55555556 <_end+0x55550c16>
    2d94:	00300593          	li	a1,3
    2d98:	02b50633          	mul	a2,a0,a1
    2d9c:	dc32                	sw	a2,56(sp)

00002d9e <inst_545>:
    2d9e:	55555537          	lui	a0,0x55555
    2da2:	55650513          	add	a0,a0,1366 # 55555556 <_end+0x55550c16>
    2da6:	555555b7          	lui	a1,0x55555
    2daa:	55558593          	add	a1,a1,1365 # 55555555 <_end+0x55550c15>
    2dae:	02b50633          	mul	a2,a0,a1
    2db2:	de32                	sw	a2,60(sp)

00002db4 <inst_546>:
    2db4:	55555537          	lui	a0,0x55555
    2db8:	55650513          	add	a0,a0,1366 # 55555556 <_end+0x55550c16>
    2dbc:	aaaab5b7          	lui	a1,0xaaaab
    2dc0:	aaa58593          	add	a1,a1,-1366 # aaaaaaaa <_end+0xaaaa616a>
    2dc4:	02b50633          	mul	a2,a0,a1
    2dc8:	c0b2                	sw	a2,64(sp)

00002dca <inst_547>:
    2dca:	55555537          	lui	a0,0x55555
    2dce:	55650513          	add	a0,a0,1366 # 55555556 <_end+0x55550c16>
    2dd2:	00500593          	li	a1,5
    2dd6:	02b50633          	mul	a2,a0,a1
    2dda:	c2b2                	sw	a2,68(sp)

00002ddc <inst_548>:
    2ddc:	55555537          	lui	a0,0x55555
    2de0:	55650513          	add	a0,a0,1366 # 55555556 <_end+0x55550c16>
    2de4:	333335b7          	lui	a1,0x33333
    2de8:	33358593          	add	a1,a1,819 # 33333333 <_end+0x3332e9f3>
    2dec:	02b50633          	mul	a2,a0,a1
    2df0:	c4b2                	sw	a2,72(sp)

00002df2 <inst_549>:
    2df2:	55555537          	lui	a0,0x55555
    2df6:	55650513          	add	a0,a0,1366 # 55555556 <_end+0x55550c16>
    2dfa:	666665b7          	lui	a1,0x66666
    2dfe:	66658593          	add	a1,a1,1638 # 66666666 <_end+0x66661d26>
    2e02:	02b50633          	mul	a2,a0,a1
    2e06:	c6b2                	sw	a2,76(sp)

00002e08 <inst_550>:
    2e08:	55555537          	lui	a0,0x55555
    2e0c:	55650513          	add	a0,a0,1366 # 55555556 <_end+0x55550c16>
    2e10:	ffff55b7          	lui	a1,0xffff5
    2e14:	afc58593          	add	a1,a1,-1284 # ffff4afc <_end+0xffff01bc>
    2e18:	02b50633          	mul	a2,a0,a1
    2e1c:	c8b2                	sw	a2,80(sp)

00002e1e <inst_551>:
    2e1e:	55555537          	lui	a0,0x55555
    2e22:	55650513          	add	a0,a0,1366 # 55555556 <_end+0x55550c16>
    2e26:	0000b5b7          	lui	a1,0xb
    2e2a:	50458593          	add	a1,a1,1284 # b504 <_end+0x6bc4>
    2e2e:	02b50633          	mul	a2,a0,a1
    2e32:	cab2                	sw	a2,84(sp)

00002e34 <inst_552>:
    2e34:	55555537          	lui	a0,0x55555
    2e38:	55650513          	add	a0,a0,1366 # 55555556 <_end+0x55550c16>
    2e3c:	00200593          	li	a1,2
    2e40:	02b50633          	mul	a2,a0,a1
    2e44:	ccb2                	sw	a2,88(sp)

00002e46 <inst_553>:
    2e46:	55555537          	lui	a0,0x55555
    2e4a:	55650513          	add	a0,a0,1366 # 55555556 <_end+0x55550c16>
    2e4e:	555555b7          	lui	a1,0x55555
    2e52:	55458593          	add	a1,a1,1364 # 55555554 <_end+0x55550c14>
    2e56:	02b50633          	mul	a2,a0,a1
    2e5a:	ceb2                	sw	a2,92(sp)

00002e5c <inst_554>:
    2e5c:	55555537          	lui	a0,0x55555
    2e60:	55650513          	add	a0,a0,1366 # 55555556 <_end+0x55550c16>
    2e64:	00000593          	li	a1,0
    2e68:	02b50633          	mul	a2,a0,a1
    2e6c:	d0b2                	sw	a2,96(sp)

00002e6e <inst_555>:
    2e6e:	55555537          	lui	a0,0x55555
    2e72:	55650513          	add	a0,a0,1366 # 55555556 <_end+0x55550c16>
    2e76:	00400593          	li	a1,4
    2e7a:	02b50633          	mul	a2,a0,a1
    2e7e:	d2b2                	sw	a2,100(sp)

00002e80 <inst_556>:
    2e80:	55555537          	lui	a0,0x55555
    2e84:	55650513          	add	a0,a0,1366 # 55555556 <_end+0x55550c16>
    2e88:	333335b7          	lui	a1,0x33333
    2e8c:	33258593          	add	a1,a1,818 # 33333332 <_end+0x3332e9f2>
    2e90:	02b50633          	mul	a2,a0,a1
    2e94:	d4b2                	sw	a2,104(sp)

00002e96 <inst_557>:
    2e96:	55555537          	lui	a0,0x55555
    2e9a:	55650513          	add	a0,a0,1366 # 55555556 <_end+0x55550c16>
    2e9e:	666665b7          	lui	a1,0x66666
    2ea2:	66558593          	add	a1,a1,1637 # 66666665 <_end+0x66661d25>
    2ea6:	02b50633          	mul	a2,a0,a1
    2eaa:	d6b2                	sw	a2,108(sp)

00002eac <inst_558>:
    2eac:	55555537          	lui	a0,0x55555
    2eb0:	55650513          	add	a0,a0,1366 # 55555556 <_end+0x55550c16>
    2eb4:	0000b5b7          	lui	a1,0xb
    2eb8:	50358593          	add	a1,a1,1283 # b503 <_end+0x6bc3>
    2ebc:	02b50633          	mul	a2,a0,a1
    2ec0:	d8b2                	sw	a2,112(sp)

00002ec2 <inst_559>:
    2ec2:	55555537          	lui	a0,0x55555
    2ec6:	55650513          	add	a0,a0,1366 # 55555556 <_end+0x55550c16>
    2eca:	555555b7          	lui	a1,0x55555
    2ece:	55658593          	add	a1,a1,1366 # 55555556 <_end+0x55550c16>
    2ed2:	02b50633          	mul	a2,a0,a1
    2ed6:	dab2                	sw	a2,116(sp)

00002ed8 <inst_560>:
    2ed8:	55555537          	lui	a0,0x55555
    2edc:	55650513          	add	a0,a0,1366 # 55555556 <_end+0x55550c16>
    2ee0:	aaaab5b7          	lui	a1,0xaaaab
    2ee4:	aab58593          	add	a1,a1,-1365 # aaaaaaab <_end+0xaaaa616b>
    2ee8:	02b50633          	mul	a2,a0,a1
    2eec:	dcb2                	sw	a2,120(sp)

00002eee <inst_561>:
    2eee:	55555537          	lui	a0,0x55555
    2ef2:	55650513          	add	a0,a0,1366 # 55555556 <_end+0x55550c16>
    2ef6:	00600593          	li	a1,6
    2efa:	02b50633          	mul	a2,a0,a1
    2efe:	deb2                	sw	a2,124(sp)

00002f00 <inst_562>:
    2f00:	55555537          	lui	a0,0x55555
    2f04:	55650513          	add	a0,a0,1366 # 55555556 <_end+0x55550c16>
    2f08:	333335b7          	lui	a1,0x33333
    2f0c:	33458593          	add	a1,a1,820 # 33333334 <_end+0x3332e9f4>
    2f10:	02b50633          	mul	a2,a0,a1
    2f14:	c132                	sw	a2,128(sp)

00002f16 <inst_563>:
    2f16:	55555537          	lui	a0,0x55555
    2f1a:	55650513          	add	a0,a0,1366 # 55555556 <_end+0x55550c16>
    2f1e:	666665b7          	lui	a1,0x66666
    2f22:	66758593          	add	a1,a1,1639 # 66666667 <_end+0x66661d27>
    2f26:	02b50633          	mul	a2,a0,a1
    2f2a:	c332                	sw	a2,132(sp)

00002f2c <inst_564>:
    2f2c:	55555537          	lui	a0,0x55555
    2f30:	55650513          	add	a0,a0,1366 # 55555556 <_end+0x55550c16>
    2f34:	ffff55b7          	lui	a1,0xffff5
    2f38:	afd58593          	add	a1,a1,-1283 # ffff4afd <_end+0xffff01bd>
    2f3c:	02b50633          	mul	a2,a0,a1
    2f40:	c532                	sw	a2,136(sp)

00002f42 <inst_565>:
    2f42:	55555537          	lui	a0,0x55555
    2f46:	55650513          	add	a0,a0,1366 # 55555556 <_end+0x55550c16>
    2f4a:	0000b5b7          	lui	a1,0xb
    2f4e:	50558593          	add	a1,a1,1285 # b505 <_end+0x6bc5>
    2f52:	02b50633          	mul	a2,a0,a1
    2f56:	c732                	sw	a2,140(sp)

00002f58 <inst_566>:
    2f58:	aaaab537          	lui	a0,0xaaaab
    2f5c:	aab50513          	add	a0,a0,-1365 # aaaaaaab <_end+0xaaaa616b>
    2f60:	00300593          	li	a1,3
    2f64:	02b50633          	mul	a2,a0,a1
    2f68:	c932                	sw	a2,144(sp)

00002f6a <inst_567>:
    2f6a:	aaaab537          	lui	a0,0xaaaab
    2f6e:	aab50513          	add	a0,a0,-1365 # aaaaaaab <_end+0xaaaa616b>
    2f72:	555555b7          	lui	a1,0x55555
    2f76:	55558593          	add	a1,a1,1365 # 55555555 <_end+0x55550c15>
    2f7a:	02b50633          	mul	a2,a0,a1
    2f7e:	cb32                	sw	a2,148(sp)

00002f80 <inst_568>:
    2f80:	aaaab537          	lui	a0,0xaaaab
    2f84:	aab50513          	add	a0,a0,-1365 # aaaaaaab <_end+0xaaaa616b>
    2f88:	aaaab5b7          	lui	a1,0xaaaab
    2f8c:	aaa58593          	add	a1,a1,-1366 # aaaaaaaa <_end+0xaaaa616a>
    2f90:	02b50633          	mul	a2,a0,a1
    2f94:	cd32                	sw	a2,152(sp)

00002f96 <inst_569>:
    2f96:	aaaab537          	lui	a0,0xaaaab
    2f9a:	aab50513          	add	a0,a0,-1365 # aaaaaaab <_end+0xaaaa616b>
    2f9e:	00500593          	li	a1,5
    2fa2:	02b50633          	mul	a2,a0,a1
    2fa6:	cf32                	sw	a2,156(sp)

00002fa8 <inst_570>:
    2fa8:	aaaab537          	lui	a0,0xaaaab
    2fac:	aab50513          	add	a0,a0,-1365 # aaaaaaab <_end+0xaaaa616b>
    2fb0:	333335b7          	lui	a1,0x33333
    2fb4:	33358593          	add	a1,a1,819 # 33333333 <_end+0x3332e9f3>
    2fb8:	02b50633          	mul	a2,a0,a1
    2fbc:	d132                	sw	a2,160(sp)

00002fbe <inst_571>:
    2fbe:	aaaab537          	lui	a0,0xaaaab
    2fc2:	aab50513          	add	a0,a0,-1365 # aaaaaaab <_end+0xaaaa616b>
    2fc6:	666665b7          	lui	a1,0x66666
    2fca:	66658593          	add	a1,a1,1638 # 66666666 <_end+0x66661d26>
    2fce:	02b50633          	mul	a2,a0,a1
    2fd2:	d332                	sw	a2,164(sp)

00002fd4 <inst_572>:
    2fd4:	aaaab537          	lui	a0,0xaaaab
    2fd8:	aab50513          	add	a0,a0,-1365 # aaaaaaab <_end+0xaaaa616b>
    2fdc:	ffff55b7          	lui	a1,0xffff5
    2fe0:	afc58593          	add	a1,a1,-1284 # ffff4afc <_end+0xffff01bc>
    2fe4:	02b50633          	mul	a2,a0,a1
    2fe8:	d532                	sw	a2,168(sp)

00002fea <inst_573>:
    2fea:	aaaab537          	lui	a0,0xaaaab
    2fee:	aab50513          	add	a0,a0,-1365 # aaaaaaab <_end+0xaaaa616b>
    2ff2:	0000b5b7          	lui	a1,0xb
    2ff6:	50458593          	add	a1,a1,1284 # b504 <_end+0x6bc4>
    2ffa:	02b50633          	mul	a2,a0,a1
    2ffe:	d732                	sw	a2,172(sp)

00003000 <inst_574>:
    3000:	aaaab537          	lui	a0,0xaaaab
    3004:	aab50513          	add	a0,a0,-1365 # aaaaaaab <_end+0xaaaa616b>
    3008:	00200593          	li	a1,2
    300c:	02b50633          	mul	a2,a0,a1
    3010:	d932                	sw	a2,176(sp)

00003012 <inst_575>:
    3012:	aaaab537          	lui	a0,0xaaaab
    3016:	aab50513          	add	a0,a0,-1365 # aaaaaaab <_end+0xaaaa616b>
    301a:	555555b7          	lui	a1,0x55555
    301e:	55458593          	add	a1,a1,1364 # 55555554 <_end+0x55550c14>
    3022:	02b50633          	mul	a2,a0,a1
    3026:	db32                	sw	a2,180(sp)

00003028 <inst_576>:
    3028:	aaaab537          	lui	a0,0xaaaab
    302c:	aab50513          	add	a0,a0,-1365 # aaaaaaab <_end+0xaaaa616b>
    3030:	00000593          	li	a1,0
    3034:	02b50633          	mul	a2,a0,a1
    3038:	dd32                	sw	a2,184(sp)

0000303a <inst_577>:
    303a:	aaaab537          	lui	a0,0xaaaab
    303e:	aab50513          	add	a0,a0,-1365 # aaaaaaab <_end+0xaaaa616b>
    3042:	00400593          	li	a1,4
    3046:	02b50633          	mul	a2,a0,a1
    304a:	df32                	sw	a2,188(sp)

0000304c <inst_578>:
    304c:	aaaab537          	lui	a0,0xaaaab
    3050:	aab50513          	add	a0,a0,-1365 # aaaaaaab <_end+0xaaaa616b>
    3054:	333335b7          	lui	a1,0x33333
    3058:	33258593          	add	a1,a1,818 # 33333332 <_end+0x3332e9f2>
    305c:	02b50633          	mul	a2,a0,a1
    3060:	c1b2                	sw	a2,192(sp)

00003062 <inst_579>:
    3062:	aaaab537          	lui	a0,0xaaaab
    3066:	aab50513          	add	a0,a0,-1365 # aaaaaaab <_end+0xaaaa616b>
    306a:	666665b7          	lui	a1,0x66666
    306e:	66558593          	add	a1,a1,1637 # 66666665 <_end+0x66661d25>
    3072:	02b50633          	mul	a2,a0,a1
    3076:	c3b2                	sw	a2,196(sp)

00003078 <inst_580>:
    3078:	aaaab537          	lui	a0,0xaaaab
    307c:	aab50513          	add	a0,a0,-1365 # aaaaaaab <_end+0xaaaa616b>
    3080:	0000b5b7          	lui	a1,0xb
    3084:	50358593          	add	a1,a1,1283 # b503 <_end+0x6bc3>
    3088:	02b50633          	mul	a2,a0,a1
    308c:	c5b2                	sw	a2,200(sp)

0000308e <inst_581>:
    308e:	aaaab537          	lui	a0,0xaaaab
    3092:	aab50513          	add	a0,a0,-1365 # aaaaaaab <_end+0xaaaa616b>
    3096:	555555b7          	lui	a1,0x55555
    309a:	55658593          	add	a1,a1,1366 # 55555556 <_end+0x55550c16>
    309e:	02b50633          	mul	a2,a0,a1
    30a2:	c7b2                	sw	a2,204(sp)

000030a4 <inst_582>:
    30a4:	02000513          	li	a0,32
    30a8:	ffffc5b7          	lui	a1,0xffffc
    30ac:	fff58593          	add	a1,a1,-1 # ffffbfff <_end+0xffff76bf>
    30b0:	02b50633          	mul	a2,a0,a1
    30b4:	c9b2                	sw	a2,208(sp)

000030b6 <inst_583>:
    30b6:	00900513          	li	a0,9
    30ba:	000025b7          	lui	a1,0x2
    30be:	02b50633          	mul	a2,a0,a1
    30c2:	cbb2                	sw	a2,212(sp)

000030c4 <inst_584>:
    30c4:	ffc00513          	li	a0,-4
    30c8:	000085b7          	lui	a1,0x8
    30cc:	02b50633          	mul	a2,a0,a1
    30d0:	cdb2                	sw	a2,216(sp)

000030d2 <inst_585>:
    30d2:	33333537          	lui	a0,0x33333
    30d6:	33450513          	add	a0,a0,820 # 33333334 <_end+0x3332e9f4>
    30da:	000405b7          	lui	a1,0x40
    30de:	02b50633          	mul	a2,a0,a1
    30e2:	cfb2                	sw	a2,220(sp)
    30e4:	00000013          	nop
    30e8:	00000013          	nop
    30ec:	00000013          	nop

000030f0 <rvtest_code_end>:
    30f0:	00001517          	auipc	a0,0x1
    30f4:	f2050513          	add	a0,a0,-224 # 4010 <data_begin>
    30f8:	00002597          	auipc	a1,0x2
    30fc:	84858593          	add	a1,a1,-1976 # 4940 <_end>
    3100:	80001637          	lui	a2,0x80001
    3104:	0621                	add	a2,a2,8 # 80001008 <_end+0x7fffc6c8>

00003106 <compliance_halt_loop>:
    3106:	04b50763          	beq	a0,a1,3154 <compliance_halt_break>
    310a:	00450693          	add	a3,a0,4

0000310e <compliance_halt_loop2>:
    310e:	16fd                	add	a3,a3,-1
    3110:	00068703          	lb	a4,0(a3)
    3114:	40475793          	sra	a5,a4,0x4
    3118:	8bbd                	and	a5,a5,15
    311a:	4829                	li	a6,10
    311c:	0107c463          	blt	a5,a6,3124 <notLetter>
    3120:	02778793          	add	a5,a5,39

00003124 <notLetter>:
    3124:	03078793          	add	a5,a5,48
    3128:	00f60023          	sb	a5,0(a2)
    312c:	40075793          	sra	a5,a4,0x0
    3130:	8bbd                	and	a5,a5,15
    3132:	4829                	li	a6,10
    3134:	0107c463          	blt	a5,a6,313c <notLetter2>
    3138:	02778793          	add	a5,a5,39

0000313c <notLetter2>:
    313c:	03078793          	add	a5,a5,48
    3140:	00f60023          	sb	a5,0(a2)
    3144:	fcd515e3          	bne	a0,a3,310e <compliance_halt_loop2>
    3148:	0511                	add	a0,a0,4
    314a:	4729                	li	a4,10
    314c:	00e60023          	sb	a4,0(a2)
    3150:	bf5d                	j	3106 <compliance_halt_loop>
    3152:	a009                	j	3154 <compliance_halt_break>

00003154 <compliance_halt_break>:
    3154:	80001537          	lui	a0,0x80001
    3158:	0525                	add	a0,a0,9 # 80001009 <_end+0x7fffc6c9>
    315a:	00d50023          	sb	a3,0(a0)
	...

Desensamblado de la sección .data:

00004000 <rvtest_data_begin>:
    4000:	cafe                	sw	t6,84(sp)
    4002:	babe                	.2byte	0xbabe

00004004 <rvtest_data_end>:
	...

00004010 <data_begin>:
    4010:	deadbeef          	jal	t4,fffdf5fa <_end+0xfffdacba>
    4014:	deadbeef          	jal	t4,fffdf5fe <_end+0xfffdacbe>
    4018:	deadbeef          	jal	t4,fffdf602 <_end+0xfffdacc2>
    401c:	deadbeef          	jal	t4,fffdf606 <_end+0xfffdacc6>
    4020:	deadbeef          	jal	t4,fffdf60a <_end+0xfffdacca>
    4024:	deadbeef          	jal	t4,fffdf60e <_end+0xfffdacce>
    4028:	deadbeef          	jal	t4,fffdf612 <_end+0xfffdacd2>
    402c:	deadbeef          	jal	t4,fffdf616 <_end+0xfffdacd6>
    4030:	deadbeef          	jal	t4,fffdf61a <_end+0xfffdacda>
    4034:	deadbeef          	jal	t4,fffdf61e <_end+0xfffdacde>
    4038:	deadbeef          	jal	t4,fffdf622 <_end+0xfffdace2>
    403c:	deadbeef          	jal	t4,fffdf626 <_end+0xfffdace6>
    4040:	deadbeef          	jal	t4,fffdf62a <_end+0xfffdacea>
    4044:	deadbeef          	jal	t4,fffdf62e <_end+0xfffdacee>
    4048:	deadbeef          	jal	t4,fffdf632 <_end+0xfffdacf2>
    404c:	deadbeef          	jal	t4,fffdf636 <_end+0xfffdacf6>
    4050:	deadbeef          	jal	t4,fffdf63a <_end+0xfffdacfa>
    4054:	deadbeef          	jal	t4,fffdf63e <_end+0xfffdacfe>

00004058 <signature_x2_0>:
    4058:	deadbeef          	jal	t4,fffdf642 <_end+0xfffdad02>
    405c:	deadbeef          	jal	t4,fffdf646 <_end+0xfffdad06>
    4060:	deadbeef          	jal	t4,fffdf64a <_end+0xfffdad0a>
    4064:	deadbeef          	jal	t4,fffdf64e <_end+0xfffdad0e>
    4068:	deadbeef          	jal	t4,fffdf652 <_end+0xfffdad12>
    406c:	deadbeef          	jal	t4,fffdf656 <_end+0xfffdad16>
    4070:	deadbeef          	jal	t4,fffdf65a <_end+0xfffdad1a>
    4074:	deadbeef          	jal	t4,fffdf65e <_end+0xfffdad1e>
    4078:	deadbeef          	jal	t4,fffdf662 <_end+0xfffdad22>
    407c:	deadbeef          	jal	t4,fffdf666 <_end+0xfffdad26>
    4080:	deadbeef          	jal	t4,fffdf66a <_end+0xfffdad2a>
    4084:	deadbeef          	jal	t4,fffdf66e <_end+0xfffdad2e>
    4088:	deadbeef          	jal	t4,fffdf672 <_end+0xfffdad32>
    408c:	deadbeef          	jal	t4,fffdf676 <_end+0xfffdad36>
    4090:	deadbeef          	jal	t4,fffdf67a <_end+0xfffdad3a>
    4094:	deadbeef          	jal	t4,fffdf67e <_end+0xfffdad3e>
    4098:	deadbeef          	jal	t4,fffdf682 <_end+0xfffdad42>
    409c:	deadbeef          	jal	t4,fffdf686 <_end+0xfffdad46>
    40a0:	deadbeef          	jal	t4,fffdf68a <_end+0xfffdad4a>
    40a4:	deadbeef          	jal	t4,fffdf68e <_end+0xfffdad4e>
    40a8:	deadbeef          	jal	t4,fffdf692 <_end+0xfffdad52>
    40ac:	deadbeef          	jal	t4,fffdf696 <_end+0xfffdad56>
    40b0:	deadbeef          	jal	t4,fffdf69a <_end+0xfffdad5a>
    40b4:	deadbeef          	jal	t4,fffdf69e <_end+0xfffdad5e>
    40b8:	deadbeef          	jal	t4,fffdf6a2 <_end+0xfffdad62>
    40bc:	deadbeef          	jal	t4,fffdf6a6 <_end+0xfffdad66>
    40c0:	deadbeef          	jal	t4,fffdf6aa <_end+0xfffdad6a>
    40c4:	deadbeef          	jal	t4,fffdf6ae <_end+0xfffdad6e>
    40c8:	deadbeef          	jal	t4,fffdf6b2 <_end+0xfffdad72>
    40cc:	deadbeef          	jal	t4,fffdf6b6 <_end+0xfffdad76>
    40d0:	deadbeef          	jal	t4,fffdf6ba <_end+0xfffdad7a>
    40d4:	deadbeef          	jal	t4,fffdf6be <_end+0xfffdad7e>
    40d8:	deadbeef          	jal	t4,fffdf6c2 <_end+0xfffdad82>
    40dc:	deadbeef          	jal	t4,fffdf6c6 <_end+0xfffdad86>
    40e0:	deadbeef          	jal	t4,fffdf6ca <_end+0xfffdad8a>
    40e4:	deadbeef          	jal	t4,fffdf6ce <_end+0xfffdad8e>
    40e8:	deadbeef          	jal	t4,fffdf6d2 <_end+0xfffdad92>
    40ec:	deadbeef          	jal	t4,fffdf6d6 <_end+0xfffdad96>
    40f0:	deadbeef          	jal	t4,fffdf6da <_end+0xfffdad9a>
    40f4:	deadbeef          	jal	t4,fffdf6de <_end+0xfffdad9e>
    40f8:	deadbeef          	jal	t4,fffdf6e2 <_end+0xfffdada2>
    40fc:	deadbeef          	jal	t4,fffdf6e6 <_end+0xfffdada6>
    4100:	deadbeef          	jal	t4,fffdf6ea <_end+0xfffdadaa>
    4104:	deadbeef          	jal	t4,fffdf6ee <_end+0xfffdadae>
    4108:	deadbeef          	jal	t4,fffdf6f2 <_end+0xfffdadb2>
    410c:	deadbeef          	jal	t4,fffdf6f6 <_end+0xfffdadb6>
    4110:	deadbeef          	jal	t4,fffdf6fa <_end+0xfffdadba>
    4114:	deadbeef          	jal	t4,fffdf6fe <_end+0xfffdadbe>
    4118:	deadbeef          	jal	t4,fffdf702 <_end+0xfffdadc2>
    411c:	deadbeef          	jal	t4,fffdf706 <_end+0xfffdadc6>
    4120:	deadbeef          	jal	t4,fffdf70a <_end+0xfffdadca>
    4124:	deadbeef          	jal	t4,fffdf70e <_end+0xfffdadce>
    4128:	deadbeef          	jal	t4,fffdf712 <_end+0xfffdadd2>
    412c:	deadbeef          	jal	t4,fffdf716 <_end+0xfffdadd6>
    4130:	deadbeef          	jal	t4,fffdf71a <_end+0xfffdadda>
    4134:	deadbeef          	jal	t4,fffdf71e <_end+0xfffdadde>
    4138:	deadbeef          	jal	t4,fffdf722 <_end+0xfffdade2>
    413c:	deadbeef          	jal	t4,fffdf726 <_end+0xfffdade6>
    4140:	deadbeef          	jal	t4,fffdf72a <_end+0xfffdadea>
    4144:	deadbeef          	jal	t4,fffdf72e <_end+0xfffdadee>
    4148:	deadbeef          	jal	t4,fffdf732 <_end+0xfffdadf2>
    414c:	deadbeef          	jal	t4,fffdf736 <_end+0xfffdadf6>
    4150:	deadbeef          	jal	t4,fffdf73a <_end+0xfffdadfa>
    4154:	deadbeef          	jal	t4,fffdf73e <_end+0xfffdadfe>
    4158:	deadbeef          	jal	t4,fffdf742 <_end+0xfffdae02>
    415c:	deadbeef          	jal	t4,fffdf746 <_end+0xfffdae06>
    4160:	deadbeef          	jal	t4,fffdf74a <_end+0xfffdae0a>
    4164:	deadbeef          	jal	t4,fffdf74e <_end+0xfffdae0e>
    4168:	deadbeef          	jal	t4,fffdf752 <_end+0xfffdae12>
    416c:	deadbeef          	jal	t4,fffdf756 <_end+0xfffdae16>
    4170:	deadbeef          	jal	t4,fffdf75a <_end+0xfffdae1a>
    4174:	deadbeef          	jal	t4,fffdf75e <_end+0xfffdae1e>
    4178:	deadbeef          	jal	t4,fffdf762 <_end+0xfffdae22>
    417c:	deadbeef          	jal	t4,fffdf766 <_end+0xfffdae26>
    4180:	deadbeef          	jal	t4,fffdf76a <_end+0xfffdae2a>
    4184:	deadbeef          	jal	t4,fffdf76e <_end+0xfffdae2e>
    4188:	deadbeef          	jal	t4,fffdf772 <_end+0xfffdae32>
    418c:	deadbeef          	jal	t4,fffdf776 <_end+0xfffdae36>
    4190:	deadbeef          	jal	t4,fffdf77a <_end+0xfffdae3a>
    4194:	deadbeef          	jal	t4,fffdf77e <_end+0xfffdae3e>
    4198:	deadbeef          	jal	t4,fffdf782 <_end+0xfffdae42>
    419c:	deadbeef          	jal	t4,fffdf786 <_end+0xfffdae46>
    41a0:	deadbeef          	jal	t4,fffdf78a <_end+0xfffdae4a>
    41a4:	deadbeef          	jal	t4,fffdf78e <_end+0xfffdae4e>
    41a8:	deadbeef          	jal	t4,fffdf792 <_end+0xfffdae52>
    41ac:	deadbeef          	jal	t4,fffdf796 <_end+0xfffdae56>
    41b0:	deadbeef          	jal	t4,fffdf79a <_end+0xfffdae5a>
    41b4:	deadbeef          	jal	t4,fffdf79e <_end+0xfffdae5e>
    41b8:	deadbeef          	jal	t4,fffdf7a2 <_end+0xfffdae62>
    41bc:	deadbeef          	jal	t4,fffdf7a6 <_end+0xfffdae66>
    41c0:	deadbeef          	jal	t4,fffdf7aa <_end+0xfffdae6a>
    41c4:	deadbeef          	jal	t4,fffdf7ae <_end+0xfffdae6e>
    41c8:	deadbeef          	jal	t4,fffdf7b2 <_end+0xfffdae72>
    41cc:	deadbeef          	jal	t4,fffdf7b6 <_end+0xfffdae76>
    41d0:	deadbeef          	jal	t4,fffdf7ba <_end+0xfffdae7a>
    41d4:	deadbeef          	jal	t4,fffdf7be <_end+0xfffdae7e>
    41d8:	deadbeef          	jal	t4,fffdf7c2 <_end+0xfffdae82>
    41dc:	deadbeef          	jal	t4,fffdf7c6 <_end+0xfffdae86>
    41e0:	deadbeef          	jal	t4,fffdf7ca <_end+0xfffdae8a>
    41e4:	deadbeef          	jal	t4,fffdf7ce <_end+0xfffdae8e>
    41e8:	deadbeef          	jal	t4,fffdf7d2 <_end+0xfffdae92>
    41ec:	deadbeef          	jal	t4,fffdf7d6 <_end+0xfffdae96>
    41f0:	deadbeef          	jal	t4,fffdf7da <_end+0xfffdae9a>
    41f4:	deadbeef          	jal	t4,fffdf7de <_end+0xfffdae9e>
    41f8:	deadbeef          	jal	t4,fffdf7e2 <_end+0xfffdaea2>
    41fc:	deadbeef          	jal	t4,fffdf7e6 <_end+0xfffdaea6>
    4200:	deadbeef          	jal	t4,fffdf7ea <_end+0xfffdaeaa>
    4204:	deadbeef          	jal	t4,fffdf7ee <_end+0xfffdaeae>
    4208:	deadbeef          	jal	t4,fffdf7f2 <_end+0xfffdaeb2>
    420c:	deadbeef          	jal	t4,fffdf7f6 <_end+0xfffdaeb6>
    4210:	deadbeef          	jal	t4,fffdf7fa <_end+0xfffdaeba>
    4214:	deadbeef          	jal	t4,fffdf7fe <_end+0xfffdaebe>
    4218:	deadbeef          	jal	t4,fffdf802 <_end+0xfffdaec2>
    421c:	deadbeef          	jal	t4,fffdf806 <_end+0xfffdaec6>
    4220:	deadbeef          	jal	t4,fffdf80a <_end+0xfffdaeca>
    4224:	deadbeef          	jal	t4,fffdf80e <_end+0xfffdaece>
    4228:	deadbeef          	jal	t4,fffdf812 <_end+0xfffdaed2>
    422c:	deadbeef          	jal	t4,fffdf816 <_end+0xfffdaed6>
    4230:	deadbeef          	jal	t4,fffdf81a <_end+0xfffdaeda>
    4234:	deadbeef          	jal	t4,fffdf81e <_end+0xfffdaede>
    4238:	deadbeef          	jal	t4,fffdf822 <_end+0xfffdaee2>
    423c:	deadbeef          	jal	t4,fffdf826 <_end+0xfffdaee6>
    4240:	deadbeef          	jal	t4,fffdf82a <_end+0xfffdaeea>
    4244:	deadbeef          	jal	t4,fffdf82e <_end+0xfffdaeee>
    4248:	deadbeef          	jal	t4,fffdf832 <_end+0xfffdaef2>
    424c:	deadbeef          	jal	t4,fffdf836 <_end+0xfffdaef6>
    4250:	deadbeef          	jal	t4,fffdf83a <_end+0xfffdaefa>
    4254:	deadbeef          	jal	t4,fffdf83e <_end+0xfffdaefe>
    4258:	deadbeef          	jal	t4,fffdf842 <_end+0xfffdaf02>
    425c:	deadbeef          	jal	t4,fffdf846 <_end+0xfffdaf06>
    4260:	deadbeef          	jal	t4,fffdf84a <_end+0xfffdaf0a>
    4264:	deadbeef          	jal	t4,fffdf84e <_end+0xfffdaf0e>
    4268:	deadbeef          	jal	t4,fffdf852 <_end+0xfffdaf12>
    426c:	deadbeef          	jal	t4,fffdf856 <_end+0xfffdaf16>
    4270:	deadbeef          	jal	t4,fffdf85a <_end+0xfffdaf1a>
    4274:	deadbeef          	jal	t4,fffdf85e <_end+0xfffdaf1e>
    4278:	deadbeef          	jal	t4,fffdf862 <_end+0xfffdaf22>
    427c:	deadbeef          	jal	t4,fffdf866 <_end+0xfffdaf26>
    4280:	deadbeef          	jal	t4,fffdf86a <_end+0xfffdaf2a>
    4284:	deadbeef          	jal	t4,fffdf86e <_end+0xfffdaf2e>
    4288:	deadbeef          	jal	t4,fffdf872 <_end+0xfffdaf32>
    428c:	deadbeef          	jal	t4,fffdf876 <_end+0xfffdaf36>
    4290:	deadbeef          	jal	t4,fffdf87a <_end+0xfffdaf3a>
    4294:	deadbeef          	jal	t4,fffdf87e <_end+0xfffdaf3e>
    4298:	deadbeef          	jal	t4,fffdf882 <_end+0xfffdaf42>
    429c:	deadbeef          	jal	t4,fffdf886 <_end+0xfffdaf46>
    42a0:	deadbeef          	jal	t4,fffdf88a <_end+0xfffdaf4a>
    42a4:	deadbeef          	jal	t4,fffdf88e <_end+0xfffdaf4e>
    42a8:	deadbeef          	jal	t4,fffdf892 <_end+0xfffdaf52>
    42ac:	deadbeef          	jal	t4,fffdf896 <_end+0xfffdaf56>
    42b0:	deadbeef          	jal	t4,fffdf89a <_end+0xfffdaf5a>
    42b4:	deadbeef          	jal	t4,fffdf89e <_end+0xfffdaf5e>
    42b8:	deadbeef          	jal	t4,fffdf8a2 <_end+0xfffdaf62>
    42bc:	deadbeef          	jal	t4,fffdf8a6 <_end+0xfffdaf66>
    42c0:	deadbeef          	jal	t4,fffdf8aa <_end+0xfffdaf6a>
    42c4:	deadbeef          	jal	t4,fffdf8ae <_end+0xfffdaf6e>
    42c8:	deadbeef          	jal	t4,fffdf8b2 <_end+0xfffdaf72>
    42cc:	deadbeef          	jal	t4,fffdf8b6 <_end+0xfffdaf76>
    42d0:	deadbeef          	jal	t4,fffdf8ba <_end+0xfffdaf7a>
    42d4:	deadbeef          	jal	t4,fffdf8be <_end+0xfffdaf7e>
    42d8:	deadbeef          	jal	t4,fffdf8c2 <_end+0xfffdaf82>
    42dc:	deadbeef          	jal	t4,fffdf8c6 <_end+0xfffdaf86>
    42e0:	deadbeef          	jal	t4,fffdf8ca <_end+0xfffdaf8a>
    42e4:	deadbeef          	jal	t4,fffdf8ce <_end+0xfffdaf8e>
    42e8:	deadbeef          	jal	t4,fffdf8d2 <_end+0xfffdaf92>
    42ec:	deadbeef          	jal	t4,fffdf8d6 <_end+0xfffdaf96>
    42f0:	deadbeef          	jal	t4,fffdf8da <_end+0xfffdaf9a>
    42f4:	deadbeef          	jal	t4,fffdf8de <_end+0xfffdaf9e>
    42f8:	deadbeef          	jal	t4,fffdf8e2 <_end+0xfffdafa2>
    42fc:	deadbeef          	jal	t4,fffdf8e6 <_end+0xfffdafa6>
    4300:	deadbeef          	jal	t4,fffdf8ea <_end+0xfffdafaa>
    4304:	deadbeef          	jal	t4,fffdf8ee <_end+0xfffdafae>
    4308:	deadbeef          	jal	t4,fffdf8f2 <_end+0xfffdafb2>
    430c:	deadbeef          	jal	t4,fffdf8f6 <_end+0xfffdafb6>
    4310:	deadbeef          	jal	t4,fffdf8fa <_end+0xfffdafba>
    4314:	deadbeef          	jal	t4,fffdf8fe <_end+0xfffdafbe>
    4318:	deadbeef          	jal	t4,fffdf902 <_end+0xfffdafc2>
    431c:	deadbeef          	jal	t4,fffdf906 <_end+0xfffdafc6>
    4320:	deadbeef          	jal	t4,fffdf90a <_end+0xfffdafca>
    4324:	deadbeef          	jal	t4,fffdf90e <_end+0xfffdafce>
    4328:	deadbeef          	jal	t4,fffdf912 <_end+0xfffdafd2>
    432c:	deadbeef          	jal	t4,fffdf916 <_end+0xfffdafd6>
    4330:	deadbeef          	jal	t4,fffdf91a <_end+0xfffdafda>
    4334:	deadbeef          	jal	t4,fffdf91e <_end+0xfffdafde>
    4338:	deadbeef          	jal	t4,fffdf922 <_end+0xfffdafe2>
    433c:	deadbeef          	jal	t4,fffdf926 <_end+0xfffdafe6>
    4340:	deadbeef          	jal	t4,fffdf92a <_end+0xfffdafea>
    4344:	deadbeef          	jal	t4,fffdf92e <_end+0xfffdafee>
    4348:	deadbeef          	jal	t4,fffdf932 <_end+0xfffdaff2>
    434c:	deadbeef          	jal	t4,fffdf936 <_end+0xfffdaff6>
    4350:	deadbeef          	jal	t4,fffdf93a <_end+0xfffdaffa>
    4354:	deadbeef          	jal	t4,fffdf93e <_end+0xfffdaffe>
    4358:	deadbeef          	jal	t4,fffdf942 <_end+0xfffdb002>
    435c:	deadbeef          	jal	t4,fffdf946 <_end+0xfffdb006>
    4360:	deadbeef          	jal	t4,fffdf94a <_end+0xfffdb00a>
    4364:	deadbeef          	jal	t4,fffdf94e <_end+0xfffdb00e>
    4368:	deadbeef          	jal	t4,fffdf952 <_end+0xfffdb012>
    436c:	deadbeef          	jal	t4,fffdf956 <_end+0xfffdb016>
    4370:	deadbeef          	jal	t4,fffdf95a <_end+0xfffdb01a>
    4374:	deadbeef          	jal	t4,fffdf95e <_end+0xfffdb01e>
    4378:	deadbeef          	jal	t4,fffdf962 <_end+0xfffdb022>
    437c:	deadbeef          	jal	t4,fffdf966 <_end+0xfffdb026>
    4380:	deadbeef          	jal	t4,fffdf96a <_end+0xfffdb02a>
    4384:	deadbeef          	jal	t4,fffdf96e <_end+0xfffdb02e>
    4388:	deadbeef          	jal	t4,fffdf972 <_end+0xfffdb032>
    438c:	deadbeef          	jal	t4,fffdf976 <_end+0xfffdb036>
    4390:	deadbeef          	jal	t4,fffdf97a <_end+0xfffdb03a>
    4394:	deadbeef          	jal	t4,fffdf97e <_end+0xfffdb03e>
    4398:	deadbeef          	jal	t4,fffdf982 <_end+0xfffdb042>
    439c:	deadbeef          	jal	t4,fffdf986 <_end+0xfffdb046>
    43a0:	deadbeef          	jal	t4,fffdf98a <_end+0xfffdb04a>
    43a4:	deadbeef          	jal	t4,fffdf98e <_end+0xfffdb04e>
    43a8:	deadbeef          	jal	t4,fffdf992 <_end+0xfffdb052>
    43ac:	deadbeef          	jal	t4,fffdf996 <_end+0xfffdb056>
    43b0:	deadbeef          	jal	t4,fffdf99a <_end+0xfffdb05a>
    43b4:	deadbeef          	jal	t4,fffdf99e <_end+0xfffdb05e>
    43b8:	deadbeef          	jal	t4,fffdf9a2 <_end+0xfffdb062>
    43bc:	deadbeef          	jal	t4,fffdf9a6 <_end+0xfffdb066>
    43c0:	deadbeef          	jal	t4,fffdf9aa <_end+0xfffdb06a>
    43c4:	deadbeef          	jal	t4,fffdf9ae <_end+0xfffdb06e>
    43c8:	deadbeef          	jal	t4,fffdf9b2 <_end+0xfffdb072>
    43cc:	deadbeef          	jal	t4,fffdf9b6 <_end+0xfffdb076>
    43d0:	deadbeef          	jal	t4,fffdf9ba <_end+0xfffdb07a>
    43d4:	deadbeef          	jal	t4,fffdf9be <_end+0xfffdb07e>
    43d8:	deadbeef          	jal	t4,fffdf9c2 <_end+0xfffdb082>
    43dc:	deadbeef          	jal	t4,fffdf9c6 <_end+0xfffdb086>
    43e0:	deadbeef          	jal	t4,fffdf9ca <_end+0xfffdb08a>
    43e4:	deadbeef          	jal	t4,fffdf9ce <_end+0xfffdb08e>
    43e8:	deadbeef          	jal	t4,fffdf9d2 <_end+0xfffdb092>
    43ec:	deadbeef          	jal	t4,fffdf9d6 <_end+0xfffdb096>
    43f0:	deadbeef          	jal	t4,fffdf9da <_end+0xfffdb09a>
    43f4:	deadbeef          	jal	t4,fffdf9de <_end+0xfffdb09e>
    43f8:	deadbeef          	jal	t4,fffdf9e2 <_end+0xfffdb0a2>
    43fc:	deadbeef          	jal	t4,fffdf9e6 <_end+0xfffdb0a6>
    4400:	deadbeef          	jal	t4,fffdf9ea <_end+0xfffdb0aa>
    4404:	deadbeef          	jal	t4,fffdf9ee <_end+0xfffdb0ae>
    4408:	deadbeef          	jal	t4,fffdf9f2 <_end+0xfffdb0b2>
    440c:	deadbeef          	jal	t4,fffdf9f6 <_end+0xfffdb0b6>
    4410:	deadbeef          	jal	t4,fffdf9fa <_end+0xfffdb0ba>
    4414:	deadbeef          	jal	t4,fffdf9fe <_end+0xfffdb0be>
    4418:	deadbeef          	jal	t4,fffdfa02 <_end+0xfffdb0c2>
    441c:	deadbeef          	jal	t4,fffdfa06 <_end+0xfffdb0c6>
    4420:	deadbeef          	jal	t4,fffdfa0a <_end+0xfffdb0ca>
    4424:	deadbeef          	jal	t4,fffdfa0e <_end+0xfffdb0ce>
    4428:	deadbeef          	jal	t4,fffdfa12 <_end+0xfffdb0d2>
    442c:	deadbeef          	jal	t4,fffdfa16 <_end+0xfffdb0d6>
    4430:	deadbeef          	jal	t4,fffdfa1a <_end+0xfffdb0da>
    4434:	deadbeef          	jal	t4,fffdfa1e <_end+0xfffdb0de>
    4438:	deadbeef          	jal	t4,fffdfa22 <_end+0xfffdb0e2>
    443c:	deadbeef          	jal	t4,fffdfa26 <_end+0xfffdb0e6>
    4440:	deadbeef          	jal	t4,fffdfa2a <_end+0xfffdb0ea>
    4444:	deadbeef          	jal	t4,fffdfa2e <_end+0xfffdb0ee>
    4448:	deadbeef          	jal	t4,fffdfa32 <_end+0xfffdb0f2>
    444c:	deadbeef          	jal	t4,fffdfa36 <_end+0xfffdb0f6>
    4450:	deadbeef          	jal	t4,fffdfa3a <_end+0xfffdb0fa>
    4454:	deadbeef          	jal	t4,fffdfa3e <_end+0xfffdb0fe>
    4458:	deadbeef          	jal	t4,fffdfa42 <_end+0xfffdb102>
    445c:	deadbeef          	jal	t4,fffdfa46 <_end+0xfffdb106>
    4460:	deadbeef          	jal	t4,fffdfa4a <_end+0xfffdb10a>
    4464:	deadbeef          	jal	t4,fffdfa4e <_end+0xfffdb10e>
    4468:	deadbeef          	jal	t4,fffdfa52 <_end+0xfffdb112>
    446c:	deadbeef          	jal	t4,fffdfa56 <_end+0xfffdb116>
    4470:	deadbeef          	jal	t4,fffdfa5a <_end+0xfffdb11a>
    4474:	deadbeef          	jal	t4,fffdfa5e <_end+0xfffdb11e>
    4478:	deadbeef          	jal	t4,fffdfa62 <_end+0xfffdb122>
    447c:	deadbeef          	jal	t4,fffdfa66 <_end+0xfffdb126>
    4480:	deadbeef          	jal	t4,fffdfa6a <_end+0xfffdb12a>
    4484:	deadbeef          	jal	t4,fffdfa6e <_end+0xfffdb12e>
    4488:	deadbeef          	jal	t4,fffdfa72 <_end+0xfffdb132>
    448c:	deadbeef          	jal	t4,fffdfa76 <_end+0xfffdb136>
    4490:	deadbeef          	jal	t4,fffdfa7a <_end+0xfffdb13a>
    4494:	deadbeef          	jal	t4,fffdfa7e <_end+0xfffdb13e>
    4498:	deadbeef          	jal	t4,fffdfa82 <_end+0xfffdb142>
    449c:	deadbeef          	jal	t4,fffdfa86 <_end+0xfffdb146>
    44a0:	deadbeef          	jal	t4,fffdfa8a <_end+0xfffdb14a>
    44a4:	deadbeef          	jal	t4,fffdfa8e <_end+0xfffdb14e>
    44a8:	deadbeef          	jal	t4,fffdfa92 <_end+0xfffdb152>
    44ac:	deadbeef          	jal	t4,fffdfa96 <_end+0xfffdb156>
    44b0:	deadbeef          	jal	t4,fffdfa9a <_end+0xfffdb15a>
    44b4:	deadbeef          	jal	t4,fffdfa9e <_end+0xfffdb15e>
    44b8:	deadbeef          	jal	t4,fffdfaa2 <_end+0xfffdb162>
    44bc:	deadbeef          	jal	t4,fffdfaa6 <_end+0xfffdb166>
    44c0:	deadbeef          	jal	t4,fffdfaaa <_end+0xfffdb16a>
    44c4:	deadbeef          	jal	t4,fffdfaae <_end+0xfffdb16e>
    44c8:	deadbeef          	jal	t4,fffdfab2 <_end+0xfffdb172>
    44cc:	deadbeef          	jal	t4,fffdfab6 <_end+0xfffdb176>
    44d0:	deadbeef          	jal	t4,fffdfaba <_end+0xfffdb17a>
    44d4:	deadbeef          	jal	t4,fffdfabe <_end+0xfffdb17e>
    44d8:	deadbeef          	jal	t4,fffdfac2 <_end+0xfffdb182>
    44dc:	deadbeef          	jal	t4,fffdfac6 <_end+0xfffdb186>
    44e0:	deadbeef          	jal	t4,fffdfaca <_end+0xfffdb18a>
    44e4:	deadbeef          	jal	t4,fffdface <_end+0xfffdb18e>
    44e8:	deadbeef          	jal	t4,fffdfad2 <_end+0xfffdb192>
    44ec:	deadbeef          	jal	t4,fffdfad6 <_end+0xfffdb196>
    44f0:	deadbeef          	jal	t4,fffdfada <_end+0xfffdb19a>
    44f4:	deadbeef          	jal	t4,fffdfade <_end+0xfffdb19e>
    44f8:	deadbeef          	jal	t4,fffdfae2 <_end+0xfffdb1a2>
    44fc:	deadbeef          	jal	t4,fffdfae6 <_end+0xfffdb1a6>
    4500:	deadbeef          	jal	t4,fffdfaea <_end+0xfffdb1aa>
    4504:	deadbeef          	jal	t4,fffdfaee <_end+0xfffdb1ae>
    4508:	deadbeef          	jal	t4,fffdfaf2 <_end+0xfffdb1b2>
    450c:	deadbeef          	jal	t4,fffdfaf6 <_end+0xfffdb1b6>
    4510:	deadbeef          	jal	t4,fffdfafa <_end+0xfffdb1ba>
    4514:	deadbeef          	jal	t4,fffdfafe <_end+0xfffdb1be>
    4518:	deadbeef          	jal	t4,fffdfb02 <_end+0xfffdb1c2>
    451c:	deadbeef          	jal	t4,fffdfb06 <_end+0xfffdb1c6>
    4520:	deadbeef          	jal	t4,fffdfb0a <_end+0xfffdb1ca>
    4524:	deadbeef          	jal	t4,fffdfb0e <_end+0xfffdb1ce>
    4528:	deadbeef          	jal	t4,fffdfb12 <_end+0xfffdb1d2>
    452c:	deadbeef          	jal	t4,fffdfb16 <_end+0xfffdb1d6>
    4530:	deadbeef          	jal	t4,fffdfb1a <_end+0xfffdb1da>
    4534:	deadbeef          	jal	t4,fffdfb1e <_end+0xfffdb1de>
    4538:	deadbeef          	jal	t4,fffdfb22 <_end+0xfffdb1e2>
    453c:	deadbeef          	jal	t4,fffdfb26 <_end+0xfffdb1e6>
    4540:	deadbeef          	jal	t4,fffdfb2a <_end+0xfffdb1ea>
    4544:	deadbeef          	jal	t4,fffdfb2e <_end+0xfffdb1ee>
    4548:	deadbeef          	jal	t4,fffdfb32 <_end+0xfffdb1f2>
    454c:	deadbeef          	jal	t4,fffdfb36 <_end+0xfffdb1f6>
    4550:	deadbeef          	jal	t4,fffdfb3a <_end+0xfffdb1fa>
    4554:	deadbeef          	jal	t4,fffdfb3e <_end+0xfffdb1fe>
    4558:	deadbeef          	jal	t4,fffdfb42 <_end+0xfffdb202>
    455c:	deadbeef          	jal	t4,fffdfb46 <_end+0xfffdb206>
    4560:	deadbeef          	jal	t4,fffdfb4a <_end+0xfffdb20a>
    4564:	deadbeef          	jal	t4,fffdfb4e <_end+0xfffdb20e>
    4568:	deadbeef          	jal	t4,fffdfb52 <_end+0xfffdb212>
    456c:	deadbeef          	jal	t4,fffdfb56 <_end+0xfffdb216>
    4570:	deadbeef          	jal	t4,fffdfb5a <_end+0xfffdb21a>
    4574:	deadbeef          	jal	t4,fffdfb5e <_end+0xfffdb21e>
    4578:	deadbeef          	jal	t4,fffdfb62 <_end+0xfffdb222>
    457c:	deadbeef          	jal	t4,fffdfb66 <_end+0xfffdb226>
    4580:	deadbeef          	jal	t4,fffdfb6a <_end+0xfffdb22a>
    4584:	deadbeef          	jal	t4,fffdfb6e <_end+0xfffdb22e>
    4588:	deadbeef          	jal	t4,fffdfb72 <_end+0xfffdb232>
    458c:	deadbeef          	jal	t4,fffdfb76 <_end+0xfffdb236>
    4590:	deadbeef          	jal	t4,fffdfb7a <_end+0xfffdb23a>
    4594:	deadbeef          	jal	t4,fffdfb7e <_end+0xfffdb23e>
    4598:	deadbeef          	jal	t4,fffdfb82 <_end+0xfffdb242>
    459c:	deadbeef          	jal	t4,fffdfb86 <_end+0xfffdb246>
    45a0:	deadbeef          	jal	t4,fffdfb8a <_end+0xfffdb24a>
    45a4:	deadbeef          	jal	t4,fffdfb8e <_end+0xfffdb24e>
    45a8:	deadbeef          	jal	t4,fffdfb92 <_end+0xfffdb252>
    45ac:	deadbeef          	jal	t4,fffdfb96 <_end+0xfffdb256>
    45b0:	deadbeef          	jal	t4,fffdfb9a <_end+0xfffdb25a>
    45b4:	deadbeef          	jal	t4,fffdfb9e <_end+0xfffdb25e>
    45b8:	deadbeef          	jal	t4,fffdfba2 <_end+0xfffdb262>
    45bc:	deadbeef          	jal	t4,fffdfba6 <_end+0xfffdb266>
    45c0:	deadbeef          	jal	t4,fffdfbaa <_end+0xfffdb26a>
    45c4:	deadbeef          	jal	t4,fffdfbae <_end+0xfffdb26e>
    45c8:	deadbeef          	jal	t4,fffdfbb2 <_end+0xfffdb272>
    45cc:	deadbeef          	jal	t4,fffdfbb6 <_end+0xfffdb276>
    45d0:	deadbeef          	jal	t4,fffdfbba <_end+0xfffdb27a>
    45d4:	deadbeef          	jal	t4,fffdfbbe <_end+0xfffdb27e>
    45d8:	deadbeef          	jal	t4,fffdfbc2 <_end+0xfffdb282>
    45dc:	deadbeef          	jal	t4,fffdfbc6 <_end+0xfffdb286>
    45e0:	deadbeef          	jal	t4,fffdfbca <_end+0xfffdb28a>
    45e4:	deadbeef          	jal	t4,fffdfbce <_end+0xfffdb28e>
    45e8:	deadbeef          	jal	t4,fffdfbd2 <_end+0xfffdb292>
    45ec:	deadbeef          	jal	t4,fffdfbd6 <_end+0xfffdb296>
    45f0:	deadbeef          	jal	t4,fffdfbda <_end+0xfffdb29a>
    45f4:	deadbeef          	jal	t4,fffdfbde <_end+0xfffdb29e>
    45f8:	deadbeef          	jal	t4,fffdfbe2 <_end+0xfffdb2a2>
    45fc:	deadbeef          	jal	t4,fffdfbe6 <_end+0xfffdb2a6>
    4600:	deadbeef          	jal	t4,fffdfbea <_end+0xfffdb2aa>
    4604:	deadbeef          	jal	t4,fffdfbee <_end+0xfffdb2ae>
    4608:	deadbeef          	jal	t4,fffdfbf2 <_end+0xfffdb2b2>
    460c:	deadbeef          	jal	t4,fffdfbf6 <_end+0xfffdb2b6>
    4610:	deadbeef          	jal	t4,fffdfbfa <_end+0xfffdb2ba>
    4614:	deadbeef          	jal	t4,fffdfbfe <_end+0xfffdb2be>
    4618:	deadbeef          	jal	t4,fffdfc02 <_end+0xfffdb2c2>
    461c:	deadbeef          	jal	t4,fffdfc06 <_end+0xfffdb2c6>
    4620:	deadbeef          	jal	t4,fffdfc0a <_end+0xfffdb2ca>
    4624:	deadbeef          	jal	t4,fffdfc0e <_end+0xfffdb2ce>
    4628:	deadbeef          	jal	t4,fffdfc12 <_end+0xfffdb2d2>
    462c:	deadbeef          	jal	t4,fffdfc16 <_end+0xfffdb2d6>
    4630:	deadbeef          	jal	t4,fffdfc1a <_end+0xfffdb2da>
    4634:	deadbeef          	jal	t4,fffdfc1e <_end+0xfffdb2de>
    4638:	deadbeef          	jal	t4,fffdfc22 <_end+0xfffdb2e2>
    463c:	deadbeef          	jal	t4,fffdfc26 <_end+0xfffdb2e6>
    4640:	deadbeef          	jal	t4,fffdfc2a <_end+0xfffdb2ea>
    4644:	deadbeef          	jal	t4,fffdfc2e <_end+0xfffdb2ee>
    4648:	deadbeef          	jal	t4,fffdfc32 <_end+0xfffdb2f2>
    464c:	deadbeef          	jal	t4,fffdfc36 <_end+0xfffdb2f6>
    4650:	deadbeef          	jal	t4,fffdfc3a <_end+0xfffdb2fa>
    4654:	deadbeef          	jal	t4,fffdfc3e <_end+0xfffdb2fe>
    4658:	deadbeef          	jal	t4,fffdfc42 <_end+0xfffdb302>
    465c:	deadbeef          	jal	t4,fffdfc46 <_end+0xfffdb306>
    4660:	deadbeef          	jal	t4,fffdfc4a <_end+0xfffdb30a>
    4664:	deadbeef          	jal	t4,fffdfc4e <_end+0xfffdb30e>
    4668:	deadbeef          	jal	t4,fffdfc52 <_end+0xfffdb312>
    466c:	deadbeef          	jal	t4,fffdfc56 <_end+0xfffdb316>
    4670:	deadbeef          	jal	t4,fffdfc5a <_end+0xfffdb31a>
    4674:	deadbeef          	jal	t4,fffdfc5e <_end+0xfffdb31e>
    4678:	deadbeef          	jal	t4,fffdfc62 <_end+0xfffdb322>
    467c:	deadbeef          	jal	t4,fffdfc66 <_end+0xfffdb326>
    4680:	deadbeef          	jal	t4,fffdfc6a <_end+0xfffdb32a>
    4684:	deadbeef          	jal	t4,fffdfc6e <_end+0xfffdb32e>
    4688:	deadbeef          	jal	t4,fffdfc72 <_end+0xfffdb332>
    468c:	deadbeef          	jal	t4,fffdfc76 <_end+0xfffdb336>
    4690:	deadbeef          	jal	t4,fffdfc7a <_end+0xfffdb33a>
    4694:	deadbeef          	jal	t4,fffdfc7e <_end+0xfffdb33e>
    4698:	deadbeef          	jal	t4,fffdfc82 <_end+0xfffdb342>
    469c:	deadbeef          	jal	t4,fffdfc86 <_end+0xfffdb346>
    46a0:	deadbeef          	jal	t4,fffdfc8a <_end+0xfffdb34a>
    46a4:	deadbeef          	jal	t4,fffdfc8e <_end+0xfffdb34e>
    46a8:	deadbeef          	jal	t4,fffdfc92 <_end+0xfffdb352>
    46ac:	deadbeef          	jal	t4,fffdfc96 <_end+0xfffdb356>
    46b0:	deadbeef          	jal	t4,fffdfc9a <_end+0xfffdb35a>
    46b4:	deadbeef          	jal	t4,fffdfc9e <_end+0xfffdb35e>
    46b8:	deadbeef          	jal	t4,fffdfca2 <_end+0xfffdb362>
    46bc:	deadbeef          	jal	t4,fffdfca6 <_end+0xfffdb366>
    46c0:	deadbeef          	jal	t4,fffdfcaa <_end+0xfffdb36a>
    46c4:	deadbeef          	jal	t4,fffdfcae <_end+0xfffdb36e>
    46c8:	deadbeef          	jal	t4,fffdfcb2 <_end+0xfffdb372>
    46cc:	deadbeef          	jal	t4,fffdfcb6 <_end+0xfffdb376>
    46d0:	deadbeef          	jal	t4,fffdfcba <_end+0xfffdb37a>
    46d4:	deadbeef          	jal	t4,fffdfcbe <_end+0xfffdb37e>
    46d8:	deadbeef          	jal	t4,fffdfcc2 <_end+0xfffdb382>
    46dc:	deadbeef          	jal	t4,fffdfcc6 <_end+0xfffdb386>
    46e0:	deadbeef          	jal	t4,fffdfcca <_end+0xfffdb38a>
    46e4:	deadbeef          	jal	t4,fffdfcce <_end+0xfffdb38e>
    46e8:	deadbeef          	jal	t4,fffdfcd2 <_end+0xfffdb392>
    46ec:	deadbeef          	jal	t4,fffdfcd6 <_end+0xfffdb396>
    46f0:	deadbeef          	jal	t4,fffdfcda <_end+0xfffdb39a>
    46f4:	deadbeef          	jal	t4,fffdfcde <_end+0xfffdb39e>
    46f8:	deadbeef          	jal	t4,fffdfce2 <_end+0xfffdb3a2>
    46fc:	deadbeef          	jal	t4,fffdfce6 <_end+0xfffdb3a6>
    4700:	deadbeef          	jal	t4,fffdfcea <_end+0xfffdb3aa>
    4704:	deadbeef          	jal	t4,fffdfcee <_end+0xfffdb3ae>
    4708:	deadbeef          	jal	t4,fffdfcf2 <_end+0xfffdb3b2>
    470c:	deadbeef          	jal	t4,fffdfcf6 <_end+0xfffdb3b6>
    4710:	deadbeef          	jal	t4,fffdfcfa <_end+0xfffdb3ba>
    4714:	deadbeef          	jal	t4,fffdfcfe <_end+0xfffdb3be>
    4718:	deadbeef          	jal	t4,fffdfd02 <_end+0xfffdb3c2>
    471c:	deadbeef          	jal	t4,fffdfd06 <_end+0xfffdb3c6>
    4720:	deadbeef          	jal	t4,fffdfd0a <_end+0xfffdb3ca>
    4724:	deadbeef          	jal	t4,fffdfd0e <_end+0xfffdb3ce>
    4728:	deadbeef          	jal	t4,fffdfd12 <_end+0xfffdb3d2>
    472c:	deadbeef          	jal	t4,fffdfd16 <_end+0xfffdb3d6>
    4730:	deadbeef          	jal	t4,fffdfd1a <_end+0xfffdb3da>
    4734:	deadbeef          	jal	t4,fffdfd1e <_end+0xfffdb3de>
    4738:	deadbeef          	jal	t4,fffdfd22 <_end+0xfffdb3e2>
    473c:	deadbeef          	jal	t4,fffdfd26 <_end+0xfffdb3e6>
    4740:	deadbeef          	jal	t4,fffdfd2a <_end+0xfffdb3ea>
    4744:	deadbeef          	jal	t4,fffdfd2e <_end+0xfffdb3ee>
    4748:	deadbeef          	jal	t4,fffdfd32 <_end+0xfffdb3f2>
    474c:	deadbeef          	jal	t4,fffdfd36 <_end+0xfffdb3f6>
    4750:	deadbeef          	jal	t4,fffdfd3a <_end+0xfffdb3fa>
    4754:	deadbeef          	jal	t4,fffdfd3e <_end+0xfffdb3fe>
    4758:	deadbeef          	jal	t4,fffdfd42 <_end+0xfffdb402>
    475c:	deadbeef          	jal	t4,fffdfd46 <_end+0xfffdb406>
    4760:	deadbeef          	jal	t4,fffdfd4a <_end+0xfffdb40a>
    4764:	deadbeef          	jal	t4,fffdfd4e <_end+0xfffdb40e>
    4768:	deadbeef          	jal	t4,fffdfd52 <_end+0xfffdb412>
    476c:	deadbeef          	jal	t4,fffdfd56 <_end+0xfffdb416>
    4770:	deadbeef          	jal	t4,fffdfd5a <_end+0xfffdb41a>
    4774:	deadbeef          	jal	t4,fffdfd5e <_end+0xfffdb41e>
    4778:	deadbeef          	jal	t4,fffdfd62 <_end+0xfffdb422>
    477c:	deadbeef          	jal	t4,fffdfd66 <_end+0xfffdb426>
    4780:	deadbeef          	jal	t4,fffdfd6a <_end+0xfffdb42a>
    4784:	deadbeef          	jal	t4,fffdfd6e <_end+0xfffdb42e>
    4788:	deadbeef          	jal	t4,fffdfd72 <_end+0xfffdb432>
    478c:	deadbeef          	jal	t4,fffdfd76 <_end+0xfffdb436>
    4790:	deadbeef          	jal	t4,fffdfd7a <_end+0xfffdb43a>
    4794:	deadbeef          	jal	t4,fffdfd7e <_end+0xfffdb43e>
    4798:	deadbeef          	jal	t4,fffdfd82 <_end+0xfffdb442>
    479c:	deadbeef          	jal	t4,fffdfd86 <_end+0xfffdb446>
    47a0:	deadbeef          	jal	t4,fffdfd8a <_end+0xfffdb44a>
    47a4:	deadbeef          	jal	t4,fffdfd8e <_end+0xfffdb44e>
    47a8:	deadbeef          	jal	t4,fffdfd92 <_end+0xfffdb452>
    47ac:	deadbeef          	jal	t4,fffdfd96 <_end+0xfffdb456>
    47b0:	deadbeef          	jal	t4,fffdfd9a <_end+0xfffdb45a>
    47b4:	deadbeef          	jal	t4,fffdfd9e <_end+0xfffdb45e>
    47b8:	deadbeef          	jal	t4,fffdfda2 <_end+0xfffdb462>
    47bc:	deadbeef          	jal	t4,fffdfda6 <_end+0xfffdb466>
    47c0:	deadbeef          	jal	t4,fffdfdaa <_end+0xfffdb46a>
    47c4:	deadbeef          	jal	t4,fffdfdae <_end+0xfffdb46e>
    47c8:	deadbeef          	jal	t4,fffdfdb2 <_end+0xfffdb472>
    47cc:	deadbeef          	jal	t4,fffdfdb6 <_end+0xfffdb476>
    47d0:	deadbeef          	jal	t4,fffdfdba <_end+0xfffdb47a>
    47d4:	deadbeef          	jal	t4,fffdfdbe <_end+0xfffdb47e>
    47d8:	deadbeef          	jal	t4,fffdfdc2 <_end+0xfffdb482>
    47dc:	deadbeef          	jal	t4,fffdfdc6 <_end+0xfffdb486>
    47e0:	deadbeef          	jal	t4,fffdfdca <_end+0xfffdb48a>
    47e4:	deadbeef          	jal	t4,fffdfdce <_end+0xfffdb48e>
    47e8:	deadbeef          	jal	t4,fffdfdd2 <_end+0xfffdb492>
    47ec:	deadbeef          	jal	t4,fffdfdd6 <_end+0xfffdb496>
    47f0:	deadbeef          	jal	t4,fffdfdda <_end+0xfffdb49a>
    47f4:	deadbeef          	jal	t4,fffdfdde <_end+0xfffdb49e>
    47f8:	deadbeef          	jal	t4,fffdfde2 <_end+0xfffdb4a2>
    47fc:	deadbeef          	jal	t4,fffdfde6 <_end+0xfffdb4a6>
    4800:	deadbeef          	jal	t4,fffdfdea <_end+0xfffdb4aa>
    4804:	deadbeef          	jal	t4,fffdfdee <_end+0xfffdb4ae>
    4808:	deadbeef          	jal	t4,fffdfdf2 <_end+0xfffdb4b2>
    480c:	deadbeef          	jal	t4,fffdfdf6 <_end+0xfffdb4b6>
    4810:	deadbeef          	jal	t4,fffdfdfa <_end+0xfffdb4ba>
    4814:	deadbeef          	jal	t4,fffdfdfe <_end+0xfffdb4be>
    4818:	deadbeef          	jal	t4,fffdfe02 <_end+0xfffdb4c2>
    481c:	deadbeef          	jal	t4,fffdfe06 <_end+0xfffdb4c6>
    4820:	deadbeef          	jal	t4,fffdfe0a <_end+0xfffdb4ca>
    4824:	deadbeef          	jal	t4,fffdfe0e <_end+0xfffdb4ce>
    4828:	deadbeef          	jal	t4,fffdfe12 <_end+0xfffdb4d2>
    482c:	deadbeef          	jal	t4,fffdfe16 <_end+0xfffdb4d6>
    4830:	deadbeef          	jal	t4,fffdfe1a <_end+0xfffdb4da>
    4834:	deadbeef          	jal	t4,fffdfe1e <_end+0xfffdb4de>
    4838:	deadbeef          	jal	t4,fffdfe22 <_end+0xfffdb4e2>
    483c:	deadbeef          	jal	t4,fffdfe26 <_end+0xfffdb4e6>
    4840:	deadbeef          	jal	t4,fffdfe2a <_end+0xfffdb4ea>
    4844:	deadbeef          	jal	t4,fffdfe2e <_end+0xfffdb4ee>
    4848:	deadbeef          	jal	t4,fffdfe32 <_end+0xfffdb4f2>
    484c:	deadbeef          	jal	t4,fffdfe36 <_end+0xfffdb4f6>
    4850:	deadbeef          	jal	t4,fffdfe3a <_end+0xfffdb4fa>
    4854:	deadbeef          	jal	t4,fffdfe3e <_end+0xfffdb4fe>

00004858 <signature_x2_1>:
    4858:	deadbeef          	jal	t4,fffdfe42 <_end+0xfffdb502>
    485c:	deadbeef          	jal	t4,fffdfe46 <_end+0xfffdb506>
    4860:	deadbeef          	jal	t4,fffdfe4a <_end+0xfffdb50a>
    4864:	deadbeef          	jal	t4,fffdfe4e <_end+0xfffdb50e>
    4868:	deadbeef          	jal	t4,fffdfe52 <_end+0xfffdb512>
    486c:	deadbeef          	jal	t4,fffdfe56 <_end+0xfffdb516>
    4870:	deadbeef          	jal	t4,fffdfe5a <_end+0xfffdb51a>
    4874:	deadbeef          	jal	t4,fffdfe5e <_end+0xfffdb51e>
    4878:	deadbeef          	jal	t4,fffdfe62 <_end+0xfffdb522>
    487c:	deadbeef          	jal	t4,fffdfe66 <_end+0xfffdb526>
    4880:	deadbeef          	jal	t4,fffdfe6a <_end+0xfffdb52a>
    4884:	deadbeef          	jal	t4,fffdfe6e <_end+0xfffdb52e>
    4888:	deadbeef          	jal	t4,fffdfe72 <_end+0xfffdb532>
    488c:	deadbeef          	jal	t4,fffdfe76 <_end+0xfffdb536>
    4890:	deadbeef          	jal	t4,fffdfe7a <_end+0xfffdb53a>
    4894:	deadbeef          	jal	t4,fffdfe7e <_end+0xfffdb53e>
    4898:	deadbeef          	jal	t4,fffdfe82 <_end+0xfffdb542>
    489c:	deadbeef          	jal	t4,fffdfe86 <_end+0xfffdb546>
    48a0:	deadbeef          	jal	t4,fffdfe8a <_end+0xfffdb54a>
    48a4:	deadbeef          	jal	t4,fffdfe8e <_end+0xfffdb54e>
    48a8:	deadbeef          	jal	t4,fffdfe92 <_end+0xfffdb552>
    48ac:	deadbeef          	jal	t4,fffdfe96 <_end+0xfffdb556>
    48b0:	deadbeef          	jal	t4,fffdfe9a <_end+0xfffdb55a>
    48b4:	deadbeef          	jal	t4,fffdfe9e <_end+0xfffdb55e>
    48b8:	deadbeef          	jal	t4,fffdfea2 <_end+0xfffdb562>
    48bc:	deadbeef          	jal	t4,fffdfea6 <_end+0xfffdb566>
    48c0:	deadbeef          	jal	t4,fffdfeaa <_end+0xfffdb56a>
    48c4:	deadbeef          	jal	t4,fffdfeae <_end+0xfffdb56e>
    48c8:	deadbeef          	jal	t4,fffdfeb2 <_end+0xfffdb572>
    48cc:	deadbeef          	jal	t4,fffdfeb6 <_end+0xfffdb576>
    48d0:	deadbeef          	jal	t4,fffdfeba <_end+0xfffdb57a>
    48d4:	deadbeef          	jal	t4,fffdfebe <_end+0xfffdb57e>
    48d8:	deadbeef          	jal	t4,fffdfec2 <_end+0xfffdb582>
    48dc:	deadbeef          	jal	t4,fffdfec6 <_end+0xfffdb586>
    48e0:	deadbeef          	jal	t4,fffdfeca <_end+0xfffdb58a>
    48e4:	deadbeef          	jal	t4,fffdfece <_end+0xfffdb58e>
    48e8:	deadbeef          	jal	t4,fffdfed2 <_end+0xfffdb592>
    48ec:	deadbeef          	jal	t4,fffdfed6 <_end+0xfffdb596>
    48f0:	deadbeef          	jal	t4,fffdfeda <_end+0xfffdb59a>
    48f4:	deadbeef          	jal	t4,fffdfede <_end+0xfffdb59e>
    48f8:	deadbeef          	jal	t4,fffdfee2 <_end+0xfffdb5a2>
    48fc:	deadbeef          	jal	t4,fffdfee6 <_end+0xfffdb5a6>
    4900:	deadbeef          	jal	t4,fffdfeea <_end+0xfffdb5aa>
    4904:	deadbeef          	jal	t4,fffdfeee <_end+0xfffdb5ae>
    4908:	deadbeef          	jal	t4,fffdfef2 <_end+0xfffdb5b2>
    490c:	deadbeef          	jal	t4,fffdfef6 <_end+0xfffdb5b6>
    4910:	deadbeef          	jal	t4,fffdfefa <_end+0xfffdb5ba>
    4914:	deadbeef          	jal	t4,fffdfefe <_end+0xfffdb5be>
    4918:	deadbeef          	jal	t4,fffdff02 <_end+0xfffdb5c2>
    491c:	deadbeef          	jal	t4,fffdff06 <_end+0xfffdb5c6>
    4920:	deadbeef          	jal	t4,fffdff0a <_end+0xfffdb5ca>
    4924:	deadbeef          	jal	t4,fffdff0e <_end+0xfffdb5ce>
    4928:	deadbeef          	jal	t4,fffdff12 <_end+0xfffdb5d2>
    492c:	deadbeef          	jal	t4,fffdff16 <_end+0xfffdb5d6>
    4930:	deadbeef          	jal	t4,fffdff1a <_end+0xfffdb5da>
    4934:	deadbeef          	jal	t4,fffdff1e <_end+0xfffdb5de>
	...

Desensamblado de la sección .riscv.attributes:

00000000 <.riscv.attributes>:
   0:	3541                	jal	fffffe80 <_end+0xffffb540>
   2:	0000                	unimp
   4:	7200                	.2byte	0x7200
   6:	7369                	lui	t1,0xffffa
   8:	01007663          	bgeu	zero,a6,14 <rvtest_entry_point+0x14>
   c:	0000002b          	.4byte	0x2b
  10:	7205                	lui	tp,0xfffe1
  12:	3376                	.2byte	0x3376
  14:	6932                	.2byte	0x6932
  16:	7032                	.2byte	0x7032
  18:	5f30                	lw	a2,120(a4)
  1a:	326d                	jal	fffff9c4 <_end+0xffffb084>
  1c:	3070                	.2byte	0x3070
  1e:	635f 7032 5f30      	.byte	0x5f, 0x63, 0x32, 0x70, 0x30, 0x5f
  24:	6d7a                	.2byte	0x6d7a
  26:	756d                	lui	a0,0xffffb
  28:	316c                	.2byte	0x316c
  2a:	3070                	.2byte	0x3070
  2c:	7a5f 6966 786e      	.byte	0x5f, 0x7a, 0x66, 0x69, 0x6e, 0x78
  32:	7031                	c.lui	zero,0xfffec
  34:	0030                	add	a2,sp,8
