
/home/alejandro/Escritorio/test_riscv2.5/riscv-compliance/work/rv32i_m/M/mulh-01.elf:     formato del fichero elf32-littleriscv


Desensamblado de la sección .text.init:

00000000 <rvtest_entry_point>:
       0:	feedc0b7          	lui	ra,0xfeedc
       4:	ead08093          	add	ra,ra,-339 # feedbead <_end+0xfeed756d>
       8:	ff76e137          	lui	sp,0xff76e
       c:	f5610113          	add	sp,sp,-170 # ff76df56 <_end+0xff769616>
      10:	7fbb71b7          	lui	gp,0x7fbb7
      14:	fab18193          	add	gp,gp,-85 # 7fbb6fab <_end+0x7fbb266b>
      18:	bfddb237          	lui	tp,0xbfddb
      1c:	7d520213          	add	tp,tp,2005 # bfddb7d5 <_end+0xbfdd6e95>
      20:	00000297          	auipc	t0,0x0
      24:	0d828293          	add	t0,t0,216 # f8 <rvtest_code_begin>
      28:	00004317          	auipc	t1,0x4
      2c:	fd830313          	add	t1,t1,-40 # 4000 <rvtest_data_begin>
      30:	b7fbb3b7          	lui	t2,0xb7fbb
      34:	6fa38393          	add	t2,t2,1786 # b7fbb6fa <_end+0xb7fb6dba>
      38:	5bfde437          	lui	s0,0x5bfde
      3c:	b7d40413          	add	s0,s0,-1155 # 5bfddb7d <_end+0x5bfd923d>
      40:	adfef4b7          	lui	s1,0xadfef
      44:	dbe48493          	add	s1,s1,-578 # adfeedbe <_end+0xadfea47e>
      48:	56ff7537          	lui	a0,0x56ff7
      4c:	6df50513          	add	a0,a0,1759 # 56ff76df <_end+0x56ff2d9f>
      50:	ab7fc5b7          	lui	a1,0xab7fc
      54:	b6f58593          	add	a1,a1,-1169 # ab7fbb6f <_end+0xab7f722f>
      58:	d5bfe637          	lui	a2,0xd5bfe
      5c:	db760613          	add	a2,a2,-585 # d5bfddb7 <_end+0xd5bf9477>
      60:	eadff6b7          	lui	a3,0xeadff
      64:	edb68693          	add	a3,a3,-293 # eadfeedb <_end+0xeadfa59b>
      68:	f56ff737          	lui	a4,0xf56ff
      6c:	76d70713          	add	a4,a4,1901 # f56ff76d <_end+0xf56fae2d>
      70:	fab807b7          	lui	a5,0xfab80
      74:	bb678793          	add	a5,a5,-1098 # fab7fbb6 <_end+0xfab7b276>
      78:	7d5c0837          	lui	a6,0x7d5c0
      7c:	ddb80813          	add	a6,a6,-549 # 7d5bfddb <_end+0x7d5bb49b>
      80:	beae08b7          	lui	a7,0xbeae0
      84:	eed88893          	add	a7,a7,-275 # beadfeed <_end+0xbeadb5ad>
      88:	df570937          	lui	s2,0xdf570
      8c:	f7690913          	add	s2,s2,-138 # df56ff76 <_end+0xdf56b636>
      90:	6fab89b7          	lui	s3,0x6fab8
      94:	fbb98993          	add	s3,s3,-69 # 6fab7fbb <_end+0x6fab367b>
      98:	b7d5ca37          	lui	s4,0xb7d5c
      9c:	fdda0a13          	add	s4,s4,-35 # b7d5bfdd <_end+0xb7d5769d>
      a0:	dbeaeab7          	lui	s5,0xdbeae
      a4:	feea8a93          	add	s5,s5,-18 # dbeadfee <_end+0xdbea96ae>
      a8:	6df57b37          	lui	s6,0x6df57
      ac:	ff7b0b13          	add	s6,s6,-9 # 6df56ff7 <_end+0x6df526b7>
      b0:	b6fabbb7          	lui	s7,0xb6fab
      b4:	7fbb8b93          	add	s7,s7,2043 # b6fab7fb <_end+0xb6fa6ebb>
      b8:	db7d6c37          	lui	s8,0xdb7d6
      bc:	bfdc0c13          	add	s8,s8,-1027 # db7d5bfd <_end+0xdb7d12bd>
      c0:	edbebcb7          	lui	s9,0xedbeb
      c4:	dfec8c93          	add	s9,s9,-514 # edbeadfe <_end+0xedbe64be>
      c8:	76df5d37          	lui	s10,0x76df5
      cc:	6ffd0d13          	add	s10,s10,1791 # 76df56ff <_end+0x76df0dbf>
      d0:	bb6fbdb7          	lui	s11,0xbb6fb
      d4:	b7fd8d93          	add	s11,s11,-1153 # bb6fab7f <_end+0xbb6f623f>
      d8:	ddb7de37          	lui	t3,0xddb7d
      dc:	5bfe0e13          	add	t3,t3,1471 # ddb7d5bf <_end+0xddb78c7f>
      e0:	eedbfeb7          	lui	t4,0xeedbf
      e4:	adfe8e93          	add	t4,t4,-1313 # eedbeadf <_end+0xeedba19f>
      e8:	f76dff37          	lui	t5,0xf76df
      ec:	56ff0f13          	add	t5,t5,1391 # f76df56f <_end+0xf76dac2f>
      f0:	fbb70fb7          	lui	t6,0xfbb70
      f4:	ab7f8f93          	add	t6,t6,-1353 # fbb6fab7 <_end+0xfbb6b177>

000000f8 <rvtest_code_begin>:
      f8:	00004217          	auipc	tp,0x4
      fc:	f1820213          	add	tp,tp,-232 # 4010 <data_begin>

00000100 <inst_0>:
     100:	0000b7b7          	lui	a5,0xb
     104:	50478793          	add	a5,a5,1284 # b504 <_end+0x6bc4>
     108:	08000ab7          	lui	s5,0x8000
     10c:	035797b3          	mulh	a5,a5,s5
     110:	00f22023          	sw	a5,0(tp) # 0 <rvtest_entry_point>

00000114 <inst_1>:
     114:	333330b7          	lui	ra,0x33333
     118:	33208093          	add	ra,ra,818 # 33333332 <_end+0x3332e9f2>
     11c:	333330b7          	lui	ra,0x33333
     120:	33208093          	add	ra,ra,818 # 33333332 <_end+0x3332e9f2>
     124:	021093b3          	mulh	t2,ra,ra
     128:	00722223          	sw	t2,4(tp) # 4 <rvtest_entry_point+0x4>

0000012c <inst_2>:
     12c:	ffff83b7          	lui	t2,0xffff8
     130:	fff38393          	add	t2,t2,-1 # ffff7fff <_end+0xffff36bf>
     134:	fffff337          	lui	t1,0xfffff
     138:	7ff30313          	add	t1,t1,2047 # fffff7ff <_end+0xffffaebf>
     13c:	02639333          	mulh	t1,t2,t1
     140:	00622423          	sw	t1,8(tp) # 8 <rvtest_entry_point+0x8>

00000144 <inst_3>:
     144:	ffff5db7          	lui	s11,0xffff5
     148:	afdd8d93          	add	s11,s11,-1283 # ffff4afd <_end+0xffff01bd>
     14c:	04000813          	li	a6,64
     150:	030d92b3          	mulh	t0,s11,a6
     154:	00522623          	sw	t0,12(tp) # c <rvtest_entry_point+0xc>

00000158 <inst_4>:
     158:	00700d13          	li	s10,7
     15c:	00700d13          	li	s10,7
     160:	03ad1d33          	mulh	s10,s10,s10
     164:	01a22823          	sw	s10,16(tp) # 10 <rvtest_entry_point+0x10>

00000168 <inst_5>:
     168:	ffff5c37          	lui	s8,0xffff5
     16c:	afdc0c13          	add	s8,s8,-1283 # ffff4afd <_end+0xffff01bd>
     170:	800003b7          	lui	t2,0x80000
     174:	027c1533          	mulh	a0,s8,t2
     178:	00a22a23          	sw	a0,20(tp) # 14 <rvtest_entry_point+0x14>

0000017c <inst_6>:
     17c:	ffffef37          	lui	t5,0xffffe
     180:	ffff0f13          	add	t5,t5,-1 # ffffdfff <_end+0xffff96bf>
     184:	00000113          	li	sp,0
     188:	022f1433          	mulh	s0,t5,sp
     18c:	00822c23          	sw	s0,24(tp) # 18 <rvtest_entry_point+0x18>

00000190 <inst_7>:
     190:	00000013          	nop
     194:	800005b7          	lui	a1,0x80000
     198:	fff58593          	add	a1,a1,-1 # 7fffffff <_end+0x7fffb6bf>
     19c:	02b019b3          	mulh	s3,zero,a1
     1a0:	01322e23          	sw	s3,28(tp) # 1c <rvtest_entry_point+0x1c>

000001a4 <inst_8>:
     1a4:	00002ab7          	lui	s5,0x2
     1a8:	00100893          	li	a7,1
     1ac:	031a9c33          	mulh	s8,s5,a7
     1b0:	03822023          	sw	s8,32(tp) # 20 <rvtest_entry_point+0x20>

000001b4 <inst_9>:
     1b4:	80000bb7          	lui	s7,0x80000
     1b8:	ffc00493          	li	s1,-4
     1bc:	029b9eb3          	mulh	t4,s7,s1
     1c0:	03d22223          	sw	t4,36(tp) # 24 <rvtest_entry_point+0x24>

000001c4 <inst_10>:
     1c4:	00000b13          	li	s6,0
     1c8:	00700193          	li	gp,7
     1cc:	023b1db3          	mulh	s11,s6,gp
     1d0:	03b22423          	sw	s11,40(tp) # 28 <rvtest_entry_point+0x28>

000001d4 <inst_11>:
     1d4:	80000137          	lui	sp,0x80000
     1d8:	fff10113          	add	sp,sp,-1 # 7fffffff <_end+0x7fffb6bf>
     1dc:	00600b13          	li	s6,6
     1e0:	03611e33          	mulh	t3,sp,s6
     1e4:	03c22623          	sw	t3,44(tp) # 2c <rvtest_entry_point+0x2c>

000001e8 <inst_12>:
     1e8:	00100e13          	li	t3,1
     1ec:	55555eb7          	lui	t4,0x55555
     1f0:	555e8e93          	add	t4,t4,1365 # 55555555 <_end+0x55550c15>
     1f4:	03de1bb3          	mulh	s7,t3,t4
     1f8:	03722823          	sw	s7,48(tp) # 30 <rvtest_entry_point+0x30>

000001fc <inst_13>:
     1fc:	666666b7          	lui	a3,0x66666
     200:	66768693          	add	a3,a3,1639 # 66666667 <_end+0x66661d27>
     204:	00200993          	li	s3,2
     208:	03369a33          	mulh	s4,a3,s3
     20c:	03422a23          	sw	s4,52(tp) # 34 <rvtest_entry_point+0x34>

00000210 <inst_14>:
     210:	00000293          	li	t0,0
     214:	00400613          	li	a2,4
     218:	02c29b33          	mulh	s6,t0,a2
     21c:	03622c23          	sw	s6,56(tp) # 38 <rvtest_entry_point+0x38>

00000220 <inst_15>:
     220:	00400513          	li	a0,4
     224:	00800913          	li	s2,8
     228:	03251cb3          	mulh	s9,a0,s2
     22c:	03922e23          	sw	s9,60(tp) # 3c <rvtest_entry_point+0x3c>
     230:	00004397          	auipc	t2,0x4
     234:	e2038393          	add	t2,t2,-480 # 4050 <signature_x7_0>

00000238 <inst_16>:
     238:	fef00c93          	li	s9,-17
     23c:	01000793          	li	a5,16
     240:	02fc94b3          	mulh	s1,s9,a5
     244:	0093a023          	sw	s1,0(t2)

00000248 <inst_17>:
     248:	00500813          	li	a6,5
     24c:	02000e13          	li	t3,32
     250:	03c81133          	mulh	sp,a6,t3
     254:	0023a223          	sw	sp,4(t2)

00000258 <inst_18>:
     258:	000404b7          	lui	s1,0x40
     25c:	08000513          	li	a0,128
     260:	02a490b3          	mulh	ra,s1,a0
     264:	0013a423          	sw	ra,8(t2)

00000268 <inst_19>:
     268:	e0000a37          	lui	s4,0xe0000
     26c:	fffa0a13          	add	s4,s4,-1 # dfffffff <_end+0xdfffb6bf>
     270:	10000293          	li	t0,256
     274:	025a15b3          	mulh	a1,s4,t0
     278:	00b3a623          	sw	a1,12(t2)

0000027c <inst_20>:
     27c:	55555337          	lui	t1,0x55555
     280:	55430313          	add	t1,t1,1364 # 55555554 <_end+0x55550c14>
     284:	20000a13          	li	s4,512
     288:	034316b3          	mulh	a3,t1,s4
     28c:	00d3a823          	sw	a3,16(t2)

00000290 <inst_21>:
     290:	c00009b7          	lui	s3,0xc0000
     294:	fff98993          	add	s3,s3,-1 # bfffffff <_end+0xbfffb6bf>
     298:	40000c93          	li	s9,1024
     29c:	03999633          	mulh	a2,s3,s9
     2a0:	00c3aa23          	sw	a2,20(t2)

000002a4 <inst_22>:
     2a4:	ffff5237          	lui	tp,0xffff5
     2a8:	afc20213          	add	tp,tp,-1284 # ffff4afc <_end+0xffff01bc>
     2ac:	00001db7          	lui	s11,0x1
     2b0:	800d8d93          	add	s11,s11,-2048 # 800 <inst_93+0x4>
     2b4:	03b21833          	mulh	a6,tp,s11
     2b8:	0103ac23          	sw	a6,24(t2)

000002bc <inst_23>:
     2bc:	ffffe8b7          	lui	a7,0xffffe
     2c0:	fff88893          	add	a7,a7,-1 # ffffdfff <_end+0xffff96bf>
     2c4:	00001237          	lui	tp,0x1
     2c8:	02489f33          	mulh	t5,a7,tp
     2cc:	01e3ae23          	sw	t5,28(t2)

000002d0 <inst_24>:
     2d0:	00500f93          	li	t6,5
     2d4:	00002737          	lui	a4,0x2
     2d8:	02ef9033          	mulh	zero,t6,a4
     2dc:	0203a023          	sw	zero,32(t2)

000002e0 <inst_25>:
     2e0:	00200713          	li	a4,2
     2e4:	000046b7          	lui	a3,0x4
     2e8:	02d71fb3          	mulh	t6,a4,a3
     2ec:	03f3a223          	sw	t6,36(t2)

000002f0 <inst_26>:
     2f0:	fdf00613          	li	a2,-33
     2f4:	00008437          	lui	s0,0x8
     2f8:	02861733          	mulh	a4,a2,s0
     2fc:	02e3a423          	sw	a4,40(t2)

00000300 <inst_27>:
     300:	ffe00593          	li	a1,-2
     304:	00010bb7          	lui	s7,0x10
     308:	037598b3          	mulh	a7,a1,s7
     30c:	0313a623          	sw	a7,44(t2)

00000310 <inst_28>:
     310:	02000eb7          	lui	t4,0x2000
     314:	00000013          	nop
     318:	020e9ab3          	mulh	s5,t4,zero
     31c:	0353a823          	sw	s5,48(t2)

00000320 <inst_29>:
     320:	fe000937          	lui	s2,0xfe000
     324:	fff90913          	add	s2,s2,-1 # fdffffff <_end+0xfdffb6bf>
     328:	00040f37          	lui	t5,0x40
     32c:	03e911b3          	mulh	gp,s2,t5
     330:	0233aa23          	sw	gp,52(t2)

00000334 <inst_30>:
     334:	40000413          	li	s0,1024
     338:	00080c37          	lui	s8,0x80
     33c:	03841933          	mulh	s2,s0,s8
     340:	0323ac23          	sw	s2,56(t2)
     344:	00004097          	auipc	ra,0x4
     348:	d4808093          	add	ra,ra,-696 # 408c <signature_x1_0>

0000034c <inst_31>:
     34c:	fff801b7          	lui	gp,0xfff80
     350:	fff18193          	add	gp,gp,-1 # fff7ffff <_end+0xfff7b6bf>
     354:	00100fb7          	lui	t6,0x100
     358:	03f19233          	mulh	tp,gp,t6
     35c:	0040a023          	sw	tp,0(ra)

00000360 <inst_32>:
     360:	fffe0537          	lui	a0,0xfffe0
     364:	fff50513          	add	a0,a0,-1 # fffdffff <_end+0xfffdb6bf>
     368:	002005b7          	lui	a1,0x200
     36c:	02b51633          	mulh	a2,a0,a1
     370:	00c0a223          	sw	a2,4(ra)

00000374 <inst_33>:
     374:	aaaab537          	lui	a0,0xaaaab
     378:	aaa50513          	add	a0,a0,-1366 # aaaaaaaa <_end+0xaaaa616a>
     37c:	004005b7          	lui	a1,0x400
     380:	02b51633          	mulh	a2,a0,a1
     384:	00c0a423          	sw	a2,8(ra)

00000388 <inst_34>:
     388:	f7f00513          	li	a0,-129
     38c:	008005b7          	lui	a1,0x800
     390:	02b51633          	mulh	a2,a0,a1
     394:	00c0a623          	sw	a2,12(ra)

00000398 <inst_35>:
     398:	fffff537          	lui	a0,0xfffff
     39c:	fff50513          	add	a0,a0,-1 # ffffefff <_end+0xffffa6bf>
     3a0:	010005b7          	lui	a1,0x1000
     3a4:	02b51633          	mulh	a2,a0,a1
     3a8:	00c0a823          	sw	a2,16(ra)

000003ac <inst_36>:
     3ac:	ffff5537          	lui	a0,0xffff5
     3b0:	afd50513          	add	a0,a0,-1283 # ffff4afd <_end+0xffff01bd>
     3b4:	020005b7          	lui	a1,0x2000
     3b8:	02b51633          	mulh	a2,a0,a1
     3bc:	00c0aa23          	sw	a2,20(ra)

000003c0 <inst_37>:
     3c0:	00080537          	lui	a0,0x80
     3c4:	040005b7          	lui	a1,0x4000
     3c8:	02b51633          	mulh	a2,a0,a1
     3cc:	00c0ac23          	sw	a2,24(ra)

000003d0 <inst_38>:
     3d0:	00900513          	li	a0,9
     3d4:	100005b7          	lui	a1,0x10000
     3d8:	02b51633          	mulh	a2,a0,a1
     3dc:	00c0ae23          	sw	a2,28(ra)

000003e0 <inst_39>:
     3e0:	00400513          	li	a0,4
     3e4:	200005b7          	lui	a1,0x20000
     3e8:	02b51633          	mulh	a2,a0,a1
     3ec:	02c0a023          	sw	a2,32(ra)

000003f0 <inst_40>:
     3f0:	fdf00513          	li	a0,-33
     3f4:	400005b7          	lui	a1,0x40000
     3f8:	02b51633          	mulh	a2,a0,a1
     3fc:	02c0a223          	sw	a2,36(ra)

00000400 <inst_41>:
     400:	ff800537          	lui	a0,0xff800
     404:	fff50513          	add	a0,a0,-1 # ff7fffff <_end+0xff7fb6bf>
     408:	ffd00593          	li	a1,-3
     40c:	02b51633          	mulh	a2,a0,a1
     410:	02c0a423          	sw	a2,40(ra)

00000414 <inst_42>:
     414:	20000513          	li	a0,512
     418:	ffb00593          	li	a1,-5
     41c:	02b51633          	mulh	a2,a0,a1
     420:	02c0a623          	sw	a2,44(ra)

00000424 <inst_43>:
     424:	08000513          	li	a0,128
     428:	ff700593          	li	a1,-9
     42c:	02b51633          	mulh	a2,a0,a1
     430:	02c0a823          	sw	a2,48(ra)

00000434 <inst_44>:
     434:	00700513          	li	a0,7
     438:	fef00593          	li	a1,-17
     43c:	02b51633          	mulh	a2,a0,a1
     440:	02c0aa23          	sw	a2,52(ra)

00000444 <inst_45>:
     444:	01000537          	lui	a0,0x1000
     448:	fdf00593          	li	a1,-33
     44c:	02b51633          	mulh	a2,a0,a1
     450:	02c0ac23          	sw	a2,56(ra)

00000454 <inst_46>:
     454:	00100537          	lui	a0,0x100
     458:	fbf00593          	li	a1,-65
     45c:	02b51633          	mulh	a2,a0,a1
     460:	02c0ae23          	sw	a2,60(ra)

00000464 <inst_47>:
     464:	aaaab537          	lui	a0,0xaaaab
     468:	aaa50513          	add	a0,a0,-1366 # aaaaaaaa <_end+0xaaaa616a>
     46c:	f7f00593          	li	a1,-129
     470:	02b51633          	mulh	a2,a0,a1
     474:	04c0a023          	sw	a2,64(ra)

00000478 <inst_48>:
     478:	55555537          	lui	a0,0x55555
     47c:	55650513          	add	a0,a0,1366 # 55555556 <_end+0x55550c16>
     480:	eff00593          	li	a1,-257
     484:	02b51633          	mulh	a2,a0,a1
     488:	04c0a223          	sw	a2,68(ra)

0000048c <inst_49>:
     48c:	00010537          	lui	a0,0x10
     490:	dff00593          	li	a1,-513
     494:	02b51633          	mulh	a2,a0,a1
     498:	04c0a423          	sw	a2,72(ra)

0000049c <inst_50>:
     49c:	00800537          	lui	a0,0x800
     4a0:	bff00593          	li	a1,-1025
     4a4:	02b51633          	mulh	a2,a0,a1
     4a8:	04c0a623          	sw	a2,76(ra)

000004ac <inst_51>:
     4ac:	00500513          	li	a0,5
     4b0:	fffff5b7          	lui	a1,0xfffff
     4b4:	fff58593          	add	a1,a1,-1 # ffffefff <_end+0xffffa6bf>
     4b8:	02b51633          	mulh	a2,a0,a1
     4bc:	04c0a823          	sw	a2,80(ra)

000004c0 <inst_52>:
     4c0:	33333537          	lui	a0,0x33333
     4c4:	33350513          	add	a0,a0,819 # 33333333 <_end+0x3332e9f3>
     4c8:	ffffe5b7          	lui	a1,0xffffe
     4cc:	fff58593          	add	a1,a1,-1 # ffffdfff <_end+0xffff96bf>
     4d0:	02b51633          	mulh	a2,a0,a1
     4d4:	04c0aa23          	sw	a2,84(ra)

000004d8 <inst_53>:
     4d8:	fffff537          	lui	a0,0xfffff
     4dc:	7ff50513          	add	a0,a0,2047 # fffff7ff <_end+0xffffaebf>
     4e0:	ffffc5b7          	lui	a1,0xffffc
     4e4:	fff58593          	add	a1,a1,-1 # ffffbfff <_end+0xffff76bf>
     4e8:	02b51633          	mulh	a2,a0,a1
     4ec:	04c0ac23          	sw	a2,88(ra)

000004f0 <inst_54>:
     4f0:	00040537          	lui	a0,0x40
     4f4:	ffff85b7          	lui	a1,0xffff8
     4f8:	fff58593          	add	a1,a1,-1 # ffff7fff <_end+0xffff36bf>
     4fc:	02b51633          	mulh	a2,a0,a1
     500:	04c0ae23          	sw	a2,92(ra)

00000504 <inst_55>:
     504:	fbf00513          	li	a0,-65
     508:	ffff05b7          	lui	a1,0xffff0
     50c:	fff58593          	add	a1,a1,-1 # fffeffff <_end+0xfffeb6bf>
     510:	02b51633          	mulh	a2,a0,a1
     514:	06c0a023          	sw	a2,96(ra)

00000518 <inst_56>:
     518:	ff000537          	lui	a0,0xff000
     51c:	fff50513          	add	a0,a0,-1 # feffffff <_end+0xfeffb6bf>
     520:	fffe05b7          	lui	a1,0xfffe0
     524:	fff58593          	add	a1,a1,-1 # fffdffff <_end+0xfffdb6bf>
     528:	02b51633          	mulh	a2,a0,a1
     52c:	06c0a223          	sw	a2,100(ra)

00000530 <inst_57>:
     530:	ffa00513          	li	a0,-6
     534:	fffc05b7          	lui	a1,0xfffc0
     538:	fff58593          	add	a1,a1,-1 # fffbffff <_end+0xfffbb6bf>
     53c:	02b51633          	mulh	a2,a0,a1
     540:	06c0a423          	sw	a2,104(ra)

00000544 <inst_58>:
     544:	ff800537          	lui	a0,0xff800
     548:	fff50513          	add	a0,a0,-1 # ff7fffff <_end+0xff7fb6bf>
     54c:	fff805b7          	lui	a1,0xfff80
     550:	fff58593          	add	a1,a1,-1 # fff7ffff <_end+0xfff7b6bf>
     554:	02b51633          	mulh	a2,a0,a1
     558:	06c0a623          	sw	a2,108(ra)

0000055c <inst_59>:
     55c:	fef00513          	li	a0,-17
     560:	fff005b7          	lui	a1,0xfff00
     564:	fff58593          	add	a1,a1,-1 # ffefffff <_end+0xffefb6bf>
     568:	02b51633          	mulh	a2,a0,a1
     56c:	06c0a823          	sw	a2,112(ra)

00000570 <inst_60>:
     570:	00002537          	lui	a0,0x2
     574:	ffe005b7          	lui	a1,0xffe00
     578:	fff58593          	add	a1,a1,-1 # ffdfffff <_end+0xffdfb6bf>
     57c:	02b51633          	mulh	a2,a0,a1
     580:	06c0aa23          	sw	a2,116(ra)

00000584 <inst_61>:
     584:	0000b537          	lui	a0,0xb
     588:	50550513          	add	a0,a0,1285 # b505 <_end+0x6bc5>
     58c:	ffc005b7          	lui	a1,0xffc00
     590:	fff58593          	add	a1,a1,-1 # ffbfffff <_end+0xffbfb6bf>
     594:	02b51633          	mulh	a2,a0,a1
     598:	06c0ac23          	sw	a2,120(ra)

0000059c <inst_62>:
     59c:	f7f00513          	li	a0,-129
     5a0:	ff8005b7          	lui	a1,0xff800
     5a4:	fff58593          	add	a1,a1,-1 # ff7fffff <_end+0xff7fb6bf>
     5a8:	02b51633          	mulh	a2,a0,a1
     5ac:	06c0ae23          	sw	a2,124(ra)

000005b0 <inst_63>:
     5b0:	aaaab537          	lui	a0,0xaaaab
     5b4:	aab50513          	add	a0,a0,-1365 # aaaaaaab <_end+0xaaaa616b>
     5b8:	ff0005b7          	lui	a1,0xff000
     5bc:	fff58593          	add	a1,a1,-1 # feffffff <_end+0xfeffb6bf>
     5c0:	02b51633          	mulh	a2,a0,a1
     5c4:	08c0a023          	sw	a2,128(ra)

000005c8 <inst_64>:
     5c8:	fe000537          	lui	a0,0xfe000
     5cc:	fff50513          	add	a0,a0,-1 # fdffffff <_end+0xfdffb6bf>
     5d0:	fe0005b7          	lui	a1,0xfe000
     5d4:	fff58593          	add	a1,a1,-1 # fdffffff <_end+0xfdffb6bf>
     5d8:	02b51633          	mulh	a2,a0,a1
     5dc:	08c0a223          	sw	a2,132(ra)

000005e0 <inst_65>:
     5e0:	00100513          	li	a0,1
     5e4:	fc0005b7          	lui	a1,0xfc000
     5e8:	fff58593          	add	a1,a1,-1 # fbffffff <_end+0xfbffb6bf>
     5ec:	02b51633          	mulh	a2,a0,a1
     5f0:	08c0a423          	sw	a2,136(ra)

000005f4 <inst_66>:
     5f4:	ffff5537          	lui	a0,0xffff5
     5f8:	afc50513          	add	a0,a0,-1284 # ffff4afc <_end+0xffff01bc>
     5fc:	f80005b7          	lui	a1,0xf8000
     600:	fff58593          	add	a1,a1,-1 # f7ffffff <_end+0xf7ffb6bf>
     604:	02b51633          	mulh	a2,a0,a1
     608:	08c0a623          	sw	a2,140(ra)

0000060c <inst_67>:
     60c:	00001537          	lui	a0,0x1
     610:	80050513          	add	a0,a0,-2048 # 800 <inst_93+0x4>
     614:	f00005b7          	lui	a1,0xf0000
     618:	fff58593          	add	a1,a1,-1 # efffffff <_end+0xefffb6bf>
     61c:	02b51633          	mulh	a2,a0,a1
     620:	08c0a823          	sw	a2,144(ra)

00000624 <inst_68>:
     624:	00020537          	lui	a0,0x20
     628:	e00005b7          	lui	a1,0xe0000
     62c:	fff58593          	add	a1,a1,-1 # dfffffff <_end+0xdfffb6bf>
     630:	02b51633          	mulh	a2,a0,a1
     634:	08c0aa23          	sw	a2,148(ra)

00000638 <inst_69>:
     638:	ffffc537          	lui	a0,0xffffc
     63c:	fff50513          	add	a0,a0,-1 # ffffbfff <_end+0xffff76bf>
     640:	c00005b7          	lui	a1,0xc0000
     644:	fff58593          	add	a1,a1,-1 # bfffffff <_end+0xbfffb6bf>
     648:	02b51633          	mulh	a2,a0,a1
     64c:	08c0ac23          	sw	a2,152(ra)

00000650 <inst_70>:
     650:	00600513          	li	a0,6
     654:	aaaab5b7          	lui	a1,0xaaaab
     658:	aaa58593          	add	a1,a1,-1366 # aaaaaaaa <_end+0xaaaa616a>
     65c:	02b51633          	mulh	a2,a0,a1
     660:	08c0ae23          	sw	a2,156(ra)

00000664 <inst_71>:
     664:	00800513          	li	a0,8
     668:	333335b7          	lui	a1,0x33333
     66c:	33358593          	add	a1,a1,819 # 33333333 <_end+0x3332e9f3>
     670:	02b51633          	mulh	a2,a0,a1
     674:	0ac0a023          	sw	a2,160(ra)

00000678 <inst_72>:
     678:	01000513          	li	a0,16
     67c:	00400593          	li	a1,4
     680:	02b51633          	mulh	a2,a0,a1
     684:	0ac0a223          	sw	a2,164(ra)

00000688 <inst_73>:
     688:	02000513          	li	a0,32
     68c:	000805b7          	lui	a1,0x80
     690:	02b51633          	mulh	a2,a0,a1
     694:	0ac0a423          	sw	a2,168(ra)

00000698 <inst_74>:
     698:	04000513          	li	a0,64
     69c:	333335b7          	lui	a1,0x33333
     6a0:	33258593          	add	a1,a1,818 # 33333332 <_end+0x3332e9f2>
     6a4:	02b51633          	mulh	a2,a0,a1
     6a8:	0ac0a623          	sw	a2,172(ra)

000006ac <inst_75>:
     6ac:	10000513          	li	a0,256
     6b0:	fff005b7          	lui	a1,0xfff00
     6b4:	fff58593          	add	a1,a1,-1 # ffefffff <_end+0xffefb6bf>
     6b8:	02b51633          	mulh	a2,a0,a1
     6bc:	0ac0a823          	sw	a2,176(ra)

000006c0 <inst_76>:
     6c0:	00001537          	lui	a0,0x1
     6c4:	00000593          	li	a1,0
     6c8:	02b51633          	mulh	a2,a0,a1
     6cc:	0ac0aa23          	sw	a2,180(ra)

000006d0 <inst_77>:
     6d0:	00004537          	lui	a0,0x4
     6d4:	10000593          	li	a1,256
     6d8:	02b51633          	mulh	a2,a0,a1
     6dc:	0ac0ac23          	sw	a2,184(ra)

000006e0 <inst_78>:
     6e0:	00008537          	lui	a0,0x8
     6e4:	0000b5b7          	lui	a1,0xb
     6e8:	50558593          	add	a1,a1,1285 # b505 <_end+0x6bc5>
     6ec:	02b51633          	mulh	a2,a0,a1
     6f0:	0ac0ae23          	sw	a2,188(ra)

000006f4 <inst_79>:
     6f4:	00200537          	lui	a0,0x200
     6f8:	00000593          	li	a1,0
     6fc:	02b51633          	mulh	a2,a0,a1
     700:	0cc0a023          	sw	a2,192(ra)

00000704 <inst_80>:
     704:	00400537          	lui	a0,0x400
     708:	100005b7          	lui	a1,0x10000
     70c:	02b51633          	mulh	a2,a0,a1
     710:	0cc0a223          	sw	a2,196(ra)

00000714 <inst_81>:
     714:	04000537          	lui	a0,0x4000
     718:	aaaab5b7          	lui	a1,0xaaaab
     71c:	aab58593          	add	a1,a1,-1365 # aaaaaaab <_end+0xaaaa616b>
     720:	02b51633          	mulh	a2,a0,a1
     724:	0cc0a423          	sw	a2,200(ra)

00000728 <inst_82>:
     728:	08000537          	lui	a0,0x8000
     72c:	0000b5b7          	lui	a1,0xb
     730:	50458593          	add	a1,a1,1284 # b504 <_end+0x6bc4>
     734:	02b51633          	mulh	a2,a0,a1
     738:	0cc0a623          	sw	a2,204(ra)

0000073c <inst_83>:
     73c:	10000537          	lui	a0,0x10000
     740:	c00005b7          	lui	a1,0xc0000
     744:	fff58593          	add	a1,a1,-1 # bfffffff <_end+0xbfffb6bf>
     748:	02b51633          	mulh	a2,a0,a1
     74c:	0cc0a823          	sw	a2,208(ra)

00000750 <inst_84>:
     750:	20000537          	lui	a0,0x20000
     754:	fef00593          	li	a1,-17
     758:	02b51633          	mulh	a2,a0,a1
     75c:	0cc0aa23          	sw	a2,212(ra)

00000760 <inst_85>:
     760:	40000537          	lui	a0,0x40000
     764:	ffffe5b7          	lui	a1,0xffffe
     768:	fff58593          	add	a1,a1,-1 # ffffdfff <_end+0xffff96bf>
     76c:	02b51633          	mulh	a2,a0,a1
     770:	0cc0ac23          	sw	a2,216(ra)

00000774 <inst_86>:
     774:	ffd00513          	li	a0,-3
     778:	04000593          	li	a1,64
     77c:	02b51633          	mulh	a2,a0,a1
     780:	0cc0ae23          	sw	a2,220(ra)

00000784 <inst_87>:
     784:	ff700513          	li	a0,-9
     788:	555555b7          	lui	a1,0x55555
     78c:	55458593          	add	a1,a1,1364 # 55555554 <_end+0x55550c14>
     790:	02b51633          	mulh	a2,a0,a1
     794:	0ec0a023          	sw	a2,224(ra)

00000798 <inst_88>:
     798:	eff00513          	li	a0,-257
     79c:	00000593          	li	a1,0
     7a0:	02b51633          	mulh	a2,a0,a1
     7a4:	0ec0a223          	sw	a2,228(ra)

000007a8 <inst_89>:
     7a8:	dff00513          	li	a0,-513
     7ac:	04000593          	li	a1,64
     7b0:	02b51633          	mulh	a2,a0,a1
     7b4:	0ec0a423          	sw	a2,232(ra)

000007b8 <inst_90>:
     7b8:	bff00513          	li	a0,-1025
     7bc:	800005b7          	lui	a1,0x80000
     7c0:	fff58593          	add	a1,a1,-1 # 7fffffff <_end+0x7fffb6bf>
     7c4:	02b51633          	mulh	a2,a0,a1
     7c8:	0ec0a623          	sw	a2,236(ra)

000007cc <inst_91>:
     7cc:	ffff0537          	lui	a0,0xffff0
     7d0:	fff50513          	add	a0,a0,-1 # fffeffff <_end+0xfffeb6bf>
     7d4:	ffff05b7          	lui	a1,0xffff0
     7d8:	fff58593          	add	a1,a1,-1 # fffeffff <_end+0xfffeb6bf>
     7dc:	02b51633          	mulh	a2,a0,a1
     7e0:	0ec0a823          	sw	a2,240(ra)

000007e4 <inst_92>:
     7e4:	fffc0537          	lui	a0,0xfffc0
     7e8:	fff50513          	add	a0,a0,-1 # fffbffff <_end+0xfffbb6bf>
     7ec:	fc0005b7          	lui	a1,0xfc000
     7f0:	fff58593          	add	a1,a1,-1 # fbffffff <_end+0xfbffb6bf>
     7f4:	02b51633          	mulh	a2,a0,a1
     7f8:	0ec0aa23          	sw	a2,244(ra)

000007fc <inst_93>:
     7fc:	fff00537          	lui	a0,0xfff00
     800:	fff50513          	add	a0,a0,-1 # ffefffff <_end+0xffefb6bf>
     804:	20000593          	li	a1,512
     808:	02b51633          	mulh	a2,a0,a1
     80c:	0ec0ac23          	sw	a2,248(ra)

00000810 <inst_94>:
     810:	ffe00537          	lui	a0,0xffe00
     814:	fff50513          	add	a0,a0,-1 # ffdfffff <_end+0xffdfb6bf>
     818:	0000b5b7          	lui	a1,0xb
     81c:	50358593          	add	a1,a1,1283 # b503 <_end+0x6bc3>
     820:	02b51633          	mulh	a2,a0,a1
     824:	0ec0ae23          	sw	a2,252(ra)

00000828 <inst_95>:
     828:	ffc00537          	lui	a0,0xffc00
     82c:	fff50513          	add	a0,a0,-1 # ffbfffff <_end+0xffbfb6bf>
     830:	004005b7          	lui	a1,0x400
     834:	02b51633          	mulh	a2,a0,a1
     838:	10c0a023          	sw	a2,256(ra)

0000083c <inst_96>:
     83c:	fc000537          	lui	a0,0xfc000
     840:	fff50513          	add	a0,a0,-1 # fbffffff <_end+0xfbffb6bf>
     844:	400005b7          	lui	a1,0x40000
     848:	fff58593          	add	a1,a1,-1 # 3fffffff <_end+0x3fffb6bf>
     84c:	02b51633          	mulh	a2,a0,a1
     850:	10c0a223          	sw	a2,260(ra)

00000854 <inst_97>:
     854:	f8000537          	lui	a0,0xf8000
     858:	fff50513          	add	a0,a0,-1 # f7ffffff <_end+0xf7ffb6bf>
     85c:	fef00593          	li	a1,-17
     860:	02b51633          	mulh	a2,a0,a1
     864:	10c0a423          	sw	a2,264(ra)

00000868 <inst_98>:
     868:	f0000537          	lui	a0,0xf0000
     86c:	fff50513          	add	a0,a0,-1 # efffffff <_end+0xefffb6bf>
     870:	00000593          	li	a1,0
     874:	02b51633          	mulh	a2,a0,a1
     878:	10c0a623          	sw	a2,268(ra)

0000087c <inst_99>:
     87c:	55555537          	lui	a0,0x55555
     880:	55550513          	add	a0,a0,1365 # 55555555 <_end+0x55550c15>
     884:	ff700593          	li	a1,-9
     888:	02b51633          	mulh	a2,a0,a1
     88c:	10c0a823          	sw	a2,272(ra)

00000890 <inst_100>:
     890:	00300513          	li	a0,3
     894:	00300593          	li	a1,3
     898:	02b51633          	mulh	a2,a0,a1
     89c:	10c0aa23          	sw	a2,276(ra)

000008a0 <inst_101>:
     8a0:	00300513          	li	a0,3
     8a4:	555555b7          	lui	a1,0x55555
     8a8:	55558593          	add	a1,a1,1365 # 55555555 <_end+0x55550c15>
     8ac:	02b51633          	mulh	a2,a0,a1
     8b0:	10c0ac23          	sw	a2,280(ra)

000008b4 <inst_102>:
     8b4:	00300513          	li	a0,3
     8b8:	aaaab5b7          	lui	a1,0xaaaab
     8bc:	aaa58593          	add	a1,a1,-1366 # aaaaaaaa <_end+0xaaaa616a>
     8c0:	02b51633          	mulh	a2,a0,a1
     8c4:	10c0ae23          	sw	a2,284(ra)

000008c8 <inst_103>:
     8c8:	00300513          	li	a0,3
     8cc:	00500593          	li	a1,5
     8d0:	02b51633          	mulh	a2,a0,a1
     8d4:	12c0a023          	sw	a2,288(ra)

000008d8 <inst_104>:
     8d8:	00300513          	li	a0,3
     8dc:	333335b7          	lui	a1,0x33333
     8e0:	33358593          	add	a1,a1,819 # 33333333 <_end+0x3332e9f3>
     8e4:	02b51633          	mulh	a2,a0,a1
     8e8:	12c0a223          	sw	a2,292(ra)

000008ec <inst_105>:
     8ec:	00300513          	li	a0,3
     8f0:	666665b7          	lui	a1,0x66666
     8f4:	66658593          	add	a1,a1,1638 # 66666666 <_end+0x66661d26>
     8f8:	02b51633          	mulh	a2,a0,a1
     8fc:	12c0a423          	sw	a2,296(ra)

00000900 <inst_106>:
     900:	00300513          	li	a0,3
     904:	ffff55b7          	lui	a1,0xffff5
     908:	afc58593          	add	a1,a1,-1284 # ffff4afc <_end+0xffff01bc>
     90c:	02b51633          	mulh	a2,a0,a1
     910:	12c0a623          	sw	a2,300(ra)

00000914 <inst_107>:
     914:	00300513          	li	a0,3
     918:	0000b5b7          	lui	a1,0xb
     91c:	50458593          	add	a1,a1,1284 # b504 <_end+0x6bc4>
     920:	02b51633          	mulh	a2,a0,a1
     924:	12c0a823          	sw	a2,304(ra)

00000928 <inst_108>:
     928:	00300513          	li	a0,3
     92c:	00200593          	li	a1,2
     930:	02b51633          	mulh	a2,a0,a1
     934:	12c0aa23          	sw	a2,308(ra)

00000938 <inst_109>:
     938:	00300513          	li	a0,3
     93c:	555555b7          	lui	a1,0x55555
     940:	55458593          	add	a1,a1,1364 # 55555554 <_end+0x55550c14>
     944:	02b51633          	mulh	a2,a0,a1
     948:	12c0ac23          	sw	a2,312(ra)

0000094c <inst_110>:
     94c:	00300513          	li	a0,3
     950:	00000593          	li	a1,0
     954:	02b51633          	mulh	a2,a0,a1
     958:	12c0ae23          	sw	a2,316(ra)

0000095c <inst_111>:
     95c:	00300513          	li	a0,3
     960:	00400593          	li	a1,4
     964:	02b51633          	mulh	a2,a0,a1
     968:	14c0a023          	sw	a2,320(ra)

0000096c <inst_112>:
     96c:	00300513          	li	a0,3
     970:	333335b7          	lui	a1,0x33333
     974:	33258593          	add	a1,a1,818 # 33333332 <_end+0x3332e9f2>
     978:	02b51633          	mulh	a2,a0,a1
     97c:	14c0a223          	sw	a2,324(ra)

00000980 <inst_113>:
     980:	00300513          	li	a0,3
     984:	666665b7          	lui	a1,0x66666
     988:	66558593          	add	a1,a1,1637 # 66666665 <_end+0x66661d25>
     98c:	02b51633          	mulh	a2,a0,a1
     990:	14c0a423          	sw	a2,328(ra)

00000994 <inst_114>:
     994:	00300513          	li	a0,3
     998:	0000b5b7          	lui	a1,0xb
     99c:	50358593          	add	a1,a1,1283 # b503 <_end+0x6bc3>
     9a0:	02b51633          	mulh	a2,a0,a1
     9a4:	14c0a623          	sw	a2,332(ra)

000009a8 <inst_115>:
     9a8:	00300513          	li	a0,3
     9ac:	555555b7          	lui	a1,0x55555
     9b0:	55658593          	add	a1,a1,1366 # 55555556 <_end+0x55550c16>
     9b4:	02b51633          	mulh	a2,a0,a1
     9b8:	14c0a823          	sw	a2,336(ra)

000009bc <inst_116>:
     9bc:	00300513          	li	a0,3
     9c0:	aaaab5b7          	lui	a1,0xaaaab
     9c4:	aab58593          	add	a1,a1,-1365 # aaaaaaab <_end+0xaaaa616b>
     9c8:	02b51633          	mulh	a2,a0,a1
     9cc:	14c0aa23          	sw	a2,340(ra)

000009d0 <inst_117>:
     9d0:	00300513          	li	a0,3
     9d4:	00600593          	li	a1,6
     9d8:	02b51633          	mulh	a2,a0,a1
     9dc:	14c0ac23          	sw	a2,344(ra)

000009e0 <inst_118>:
     9e0:	00300513          	li	a0,3
     9e4:	333335b7          	lui	a1,0x33333
     9e8:	33458593          	add	a1,a1,820 # 33333334 <_end+0x3332e9f4>
     9ec:	02b51633          	mulh	a2,a0,a1
     9f0:	14c0ae23          	sw	a2,348(ra)

000009f4 <inst_119>:
     9f4:	00300513          	li	a0,3
     9f8:	666665b7          	lui	a1,0x66666
     9fc:	66758593          	add	a1,a1,1639 # 66666667 <_end+0x66661d27>
     a00:	02b51633          	mulh	a2,a0,a1
     a04:	16c0a023          	sw	a2,352(ra)

00000a08 <inst_120>:
     a08:	00300513          	li	a0,3
     a0c:	ffff55b7          	lui	a1,0xffff5
     a10:	afd58593          	add	a1,a1,-1283 # ffff4afd <_end+0xffff01bd>
     a14:	02b51633          	mulh	a2,a0,a1
     a18:	16c0a223          	sw	a2,356(ra)

00000a1c <inst_121>:
     a1c:	00300513          	li	a0,3
     a20:	0000b5b7          	lui	a1,0xb
     a24:	50558593          	add	a1,a1,1285 # b505 <_end+0x6bc5>
     a28:	02b51633          	mulh	a2,a0,a1
     a2c:	16c0a423          	sw	a2,360(ra)

00000a30 <inst_122>:
     a30:	55555537          	lui	a0,0x55555
     a34:	55550513          	add	a0,a0,1365 # 55555555 <_end+0x55550c15>
     a38:	00300593          	li	a1,3
     a3c:	02b51633          	mulh	a2,a0,a1
     a40:	16c0a623          	sw	a2,364(ra)

00000a44 <inst_123>:
     a44:	55555537          	lui	a0,0x55555
     a48:	55550513          	add	a0,a0,1365 # 55555555 <_end+0x55550c15>
     a4c:	555555b7          	lui	a1,0x55555
     a50:	55558593          	add	a1,a1,1365 # 55555555 <_end+0x55550c15>
     a54:	02b51633          	mulh	a2,a0,a1
     a58:	16c0a823          	sw	a2,368(ra)

00000a5c <inst_124>:
     a5c:	55555537          	lui	a0,0x55555
     a60:	55550513          	add	a0,a0,1365 # 55555555 <_end+0x55550c15>
     a64:	aaaab5b7          	lui	a1,0xaaaab
     a68:	aaa58593          	add	a1,a1,-1366 # aaaaaaaa <_end+0xaaaa616a>
     a6c:	02b51633          	mulh	a2,a0,a1
     a70:	16c0aa23          	sw	a2,372(ra)

00000a74 <inst_125>:
     a74:	55555537          	lui	a0,0x55555
     a78:	55550513          	add	a0,a0,1365 # 55555555 <_end+0x55550c15>
     a7c:	00500593          	li	a1,5
     a80:	02b51633          	mulh	a2,a0,a1
     a84:	16c0ac23          	sw	a2,376(ra)

00000a88 <inst_126>:
     a88:	55555537          	lui	a0,0x55555
     a8c:	55550513          	add	a0,a0,1365 # 55555555 <_end+0x55550c15>
     a90:	333335b7          	lui	a1,0x33333
     a94:	33358593          	add	a1,a1,819 # 33333333 <_end+0x3332e9f3>
     a98:	02b51633          	mulh	a2,a0,a1
     a9c:	16c0ae23          	sw	a2,380(ra)

00000aa0 <inst_127>:
     aa0:	55555537          	lui	a0,0x55555
     aa4:	55550513          	add	a0,a0,1365 # 55555555 <_end+0x55550c15>
     aa8:	666665b7          	lui	a1,0x66666
     aac:	66658593          	add	a1,a1,1638 # 66666666 <_end+0x66661d26>
     ab0:	02b51633          	mulh	a2,a0,a1
     ab4:	18c0a023          	sw	a2,384(ra)

00000ab8 <inst_128>:
     ab8:	55555537          	lui	a0,0x55555
     abc:	55550513          	add	a0,a0,1365 # 55555555 <_end+0x55550c15>
     ac0:	ffff55b7          	lui	a1,0xffff5
     ac4:	afc58593          	add	a1,a1,-1284 # ffff4afc <_end+0xffff01bc>
     ac8:	02b51633          	mulh	a2,a0,a1
     acc:	18c0a223          	sw	a2,388(ra)

00000ad0 <inst_129>:
     ad0:	55555537          	lui	a0,0x55555
     ad4:	55550513          	add	a0,a0,1365 # 55555555 <_end+0x55550c15>
     ad8:	0000b5b7          	lui	a1,0xb
     adc:	50458593          	add	a1,a1,1284 # b504 <_end+0x6bc4>
     ae0:	02b51633          	mulh	a2,a0,a1
     ae4:	18c0a423          	sw	a2,392(ra)

00000ae8 <inst_130>:
     ae8:	55555537          	lui	a0,0x55555
     aec:	55550513          	add	a0,a0,1365 # 55555555 <_end+0x55550c15>
     af0:	00200593          	li	a1,2
     af4:	02b51633          	mulh	a2,a0,a1
     af8:	18c0a623          	sw	a2,396(ra)

00000afc <inst_131>:
     afc:	55555537          	lui	a0,0x55555
     b00:	55550513          	add	a0,a0,1365 # 55555555 <_end+0x55550c15>
     b04:	555555b7          	lui	a1,0x55555
     b08:	55458593          	add	a1,a1,1364 # 55555554 <_end+0x55550c14>
     b0c:	02b51633          	mulh	a2,a0,a1
     b10:	18c0a823          	sw	a2,400(ra)

00000b14 <inst_132>:
     b14:	55555537          	lui	a0,0x55555
     b18:	55550513          	add	a0,a0,1365 # 55555555 <_end+0x55550c15>
     b1c:	00000593          	li	a1,0
     b20:	02b51633          	mulh	a2,a0,a1
     b24:	18c0aa23          	sw	a2,404(ra)

00000b28 <inst_133>:
     b28:	55555537          	lui	a0,0x55555
     b2c:	55550513          	add	a0,a0,1365 # 55555555 <_end+0x55550c15>
     b30:	00400593          	li	a1,4
     b34:	02b51633          	mulh	a2,a0,a1
     b38:	18c0ac23          	sw	a2,408(ra)

00000b3c <inst_134>:
     b3c:	55555537          	lui	a0,0x55555
     b40:	55550513          	add	a0,a0,1365 # 55555555 <_end+0x55550c15>
     b44:	333335b7          	lui	a1,0x33333
     b48:	33258593          	add	a1,a1,818 # 33333332 <_end+0x3332e9f2>
     b4c:	02b51633          	mulh	a2,a0,a1
     b50:	18c0ae23          	sw	a2,412(ra)

00000b54 <inst_135>:
     b54:	55555537          	lui	a0,0x55555
     b58:	55550513          	add	a0,a0,1365 # 55555555 <_end+0x55550c15>
     b5c:	666665b7          	lui	a1,0x66666
     b60:	66558593          	add	a1,a1,1637 # 66666665 <_end+0x66661d25>
     b64:	02b51633          	mulh	a2,a0,a1
     b68:	1ac0a023          	sw	a2,416(ra)

00000b6c <inst_136>:
     b6c:	55555537          	lui	a0,0x55555
     b70:	55550513          	add	a0,a0,1365 # 55555555 <_end+0x55550c15>
     b74:	0000b5b7          	lui	a1,0xb
     b78:	50358593          	add	a1,a1,1283 # b503 <_end+0x6bc3>
     b7c:	02b51633          	mulh	a2,a0,a1
     b80:	1ac0a223          	sw	a2,420(ra)

00000b84 <inst_137>:
     b84:	55555537          	lui	a0,0x55555
     b88:	55550513          	add	a0,a0,1365 # 55555555 <_end+0x55550c15>
     b8c:	555555b7          	lui	a1,0x55555
     b90:	55658593          	add	a1,a1,1366 # 55555556 <_end+0x55550c16>
     b94:	02b51633          	mulh	a2,a0,a1
     b98:	1ac0a423          	sw	a2,424(ra)

00000b9c <inst_138>:
     b9c:	55555537          	lui	a0,0x55555
     ba0:	55550513          	add	a0,a0,1365 # 55555555 <_end+0x55550c15>
     ba4:	aaaab5b7          	lui	a1,0xaaaab
     ba8:	aab58593          	add	a1,a1,-1365 # aaaaaaab <_end+0xaaaa616b>
     bac:	02b51633          	mulh	a2,a0,a1
     bb0:	1ac0a623          	sw	a2,428(ra)

00000bb4 <inst_139>:
     bb4:	55555537          	lui	a0,0x55555
     bb8:	55550513          	add	a0,a0,1365 # 55555555 <_end+0x55550c15>
     bbc:	00600593          	li	a1,6
     bc0:	02b51633          	mulh	a2,a0,a1
     bc4:	1ac0a823          	sw	a2,432(ra)

00000bc8 <inst_140>:
     bc8:	55555537          	lui	a0,0x55555
     bcc:	55550513          	add	a0,a0,1365 # 55555555 <_end+0x55550c15>
     bd0:	333335b7          	lui	a1,0x33333
     bd4:	33458593          	add	a1,a1,820 # 33333334 <_end+0x3332e9f4>
     bd8:	02b51633          	mulh	a2,a0,a1
     bdc:	1ac0aa23          	sw	a2,436(ra)

00000be0 <inst_141>:
     be0:	55555537          	lui	a0,0x55555
     be4:	55550513          	add	a0,a0,1365 # 55555555 <_end+0x55550c15>
     be8:	666665b7          	lui	a1,0x66666
     bec:	66758593          	add	a1,a1,1639 # 66666667 <_end+0x66661d27>
     bf0:	02b51633          	mulh	a2,a0,a1
     bf4:	1ac0ac23          	sw	a2,440(ra)

00000bf8 <inst_142>:
     bf8:	55555537          	lui	a0,0x55555
     bfc:	55550513          	add	a0,a0,1365 # 55555555 <_end+0x55550c15>
     c00:	ffff55b7          	lui	a1,0xffff5
     c04:	afd58593          	add	a1,a1,-1283 # ffff4afd <_end+0xffff01bd>
     c08:	02b51633          	mulh	a2,a0,a1
     c0c:	1ac0ae23          	sw	a2,444(ra)

00000c10 <inst_143>:
     c10:	55555537          	lui	a0,0x55555
     c14:	55550513          	add	a0,a0,1365 # 55555555 <_end+0x55550c15>
     c18:	0000b5b7          	lui	a1,0xb
     c1c:	50558593          	add	a1,a1,1285 # b505 <_end+0x6bc5>
     c20:	02b51633          	mulh	a2,a0,a1
     c24:	1cc0a023          	sw	a2,448(ra)

00000c28 <inst_144>:
     c28:	aaaab537          	lui	a0,0xaaaab
     c2c:	aaa50513          	add	a0,a0,-1366 # aaaaaaaa <_end+0xaaaa616a>
     c30:	00300593          	li	a1,3
     c34:	02b51633          	mulh	a2,a0,a1
     c38:	1cc0a223          	sw	a2,452(ra)

00000c3c <inst_145>:
     c3c:	aaaab537          	lui	a0,0xaaaab
     c40:	aaa50513          	add	a0,a0,-1366 # aaaaaaaa <_end+0xaaaa616a>
     c44:	555555b7          	lui	a1,0x55555
     c48:	55558593          	add	a1,a1,1365 # 55555555 <_end+0x55550c15>
     c4c:	02b51633          	mulh	a2,a0,a1
     c50:	1cc0a423          	sw	a2,456(ra)

00000c54 <inst_146>:
     c54:	aaaab537          	lui	a0,0xaaaab
     c58:	aaa50513          	add	a0,a0,-1366 # aaaaaaaa <_end+0xaaaa616a>
     c5c:	aaaab5b7          	lui	a1,0xaaaab
     c60:	aaa58593          	add	a1,a1,-1366 # aaaaaaaa <_end+0xaaaa616a>
     c64:	02b51633          	mulh	a2,a0,a1
     c68:	1cc0a623          	sw	a2,460(ra)

00000c6c <inst_147>:
     c6c:	aaaab537          	lui	a0,0xaaaab
     c70:	aaa50513          	add	a0,a0,-1366 # aaaaaaaa <_end+0xaaaa616a>
     c74:	00500593          	li	a1,5
     c78:	02b51633          	mulh	a2,a0,a1
     c7c:	1cc0a823          	sw	a2,464(ra)

00000c80 <inst_148>:
     c80:	aaaab537          	lui	a0,0xaaaab
     c84:	aaa50513          	add	a0,a0,-1366 # aaaaaaaa <_end+0xaaaa616a>
     c88:	333335b7          	lui	a1,0x33333
     c8c:	33358593          	add	a1,a1,819 # 33333333 <_end+0x3332e9f3>
     c90:	02b51633          	mulh	a2,a0,a1
     c94:	1cc0aa23          	sw	a2,468(ra)

00000c98 <inst_149>:
     c98:	aaaab537          	lui	a0,0xaaaab
     c9c:	aaa50513          	add	a0,a0,-1366 # aaaaaaaa <_end+0xaaaa616a>
     ca0:	666665b7          	lui	a1,0x66666
     ca4:	66658593          	add	a1,a1,1638 # 66666666 <_end+0x66661d26>
     ca8:	02b51633          	mulh	a2,a0,a1
     cac:	1cc0ac23          	sw	a2,472(ra)

00000cb0 <inst_150>:
     cb0:	aaaab537          	lui	a0,0xaaaab
     cb4:	aaa50513          	add	a0,a0,-1366 # aaaaaaaa <_end+0xaaaa616a>
     cb8:	ffff55b7          	lui	a1,0xffff5
     cbc:	afc58593          	add	a1,a1,-1284 # ffff4afc <_end+0xffff01bc>
     cc0:	02b51633          	mulh	a2,a0,a1
     cc4:	1cc0ae23          	sw	a2,476(ra)

00000cc8 <inst_151>:
     cc8:	aaaab537          	lui	a0,0xaaaab
     ccc:	aaa50513          	add	a0,a0,-1366 # aaaaaaaa <_end+0xaaaa616a>
     cd0:	0000b5b7          	lui	a1,0xb
     cd4:	50458593          	add	a1,a1,1284 # b504 <_end+0x6bc4>
     cd8:	02b51633          	mulh	a2,a0,a1
     cdc:	1ec0a023          	sw	a2,480(ra)

00000ce0 <inst_152>:
     ce0:	aaaab537          	lui	a0,0xaaaab
     ce4:	aaa50513          	add	a0,a0,-1366 # aaaaaaaa <_end+0xaaaa616a>
     ce8:	00200593          	li	a1,2
     cec:	02b51633          	mulh	a2,a0,a1
     cf0:	1ec0a223          	sw	a2,484(ra)

00000cf4 <inst_153>:
     cf4:	aaaab537          	lui	a0,0xaaaab
     cf8:	aaa50513          	add	a0,a0,-1366 # aaaaaaaa <_end+0xaaaa616a>
     cfc:	555555b7          	lui	a1,0x55555
     d00:	55458593          	add	a1,a1,1364 # 55555554 <_end+0x55550c14>
     d04:	02b51633          	mulh	a2,a0,a1
     d08:	1ec0a423          	sw	a2,488(ra)

00000d0c <inst_154>:
     d0c:	aaaab537          	lui	a0,0xaaaab
     d10:	aaa50513          	add	a0,a0,-1366 # aaaaaaaa <_end+0xaaaa616a>
     d14:	00000593          	li	a1,0
     d18:	02b51633          	mulh	a2,a0,a1
     d1c:	1ec0a623          	sw	a2,492(ra)

00000d20 <inst_155>:
     d20:	aaaab537          	lui	a0,0xaaaab
     d24:	aaa50513          	add	a0,a0,-1366 # aaaaaaaa <_end+0xaaaa616a>
     d28:	00400593          	li	a1,4
     d2c:	02b51633          	mulh	a2,a0,a1
     d30:	1ec0a823          	sw	a2,496(ra)

00000d34 <inst_156>:
     d34:	aaaab537          	lui	a0,0xaaaab
     d38:	aaa50513          	add	a0,a0,-1366 # aaaaaaaa <_end+0xaaaa616a>
     d3c:	333335b7          	lui	a1,0x33333
     d40:	33258593          	add	a1,a1,818 # 33333332 <_end+0x3332e9f2>
     d44:	02b51633          	mulh	a2,a0,a1
     d48:	1ec0aa23          	sw	a2,500(ra)

00000d4c <inst_157>:
     d4c:	aaaab537          	lui	a0,0xaaaab
     d50:	aaa50513          	add	a0,a0,-1366 # aaaaaaaa <_end+0xaaaa616a>
     d54:	666665b7          	lui	a1,0x66666
     d58:	66558593          	add	a1,a1,1637 # 66666665 <_end+0x66661d25>
     d5c:	02b51633          	mulh	a2,a0,a1
     d60:	1ec0ac23          	sw	a2,504(ra)

00000d64 <inst_158>:
     d64:	aaaab537          	lui	a0,0xaaaab
     d68:	aaa50513          	add	a0,a0,-1366 # aaaaaaaa <_end+0xaaaa616a>
     d6c:	0000b5b7          	lui	a1,0xb
     d70:	50358593          	add	a1,a1,1283 # b503 <_end+0x6bc3>
     d74:	02b51633          	mulh	a2,a0,a1
     d78:	1ec0ae23          	sw	a2,508(ra)

00000d7c <inst_159>:
     d7c:	aaaab537          	lui	a0,0xaaaab
     d80:	aaa50513          	add	a0,a0,-1366 # aaaaaaaa <_end+0xaaaa616a>
     d84:	555555b7          	lui	a1,0x55555
     d88:	55658593          	add	a1,a1,1366 # 55555556 <_end+0x55550c16>
     d8c:	02b51633          	mulh	a2,a0,a1
     d90:	20c0a023          	sw	a2,512(ra)

00000d94 <inst_160>:
     d94:	aaaab537          	lui	a0,0xaaaab
     d98:	aaa50513          	add	a0,a0,-1366 # aaaaaaaa <_end+0xaaaa616a>
     d9c:	aaaab5b7          	lui	a1,0xaaaab
     da0:	aab58593          	add	a1,a1,-1365 # aaaaaaab <_end+0xaaaa616b>
     da4:	02b51633          	mulh	a2,a0,a1
     da8:	20c0a223          	sw	a2,516(ra)

00000dac <inst_161>:
     dac:	aaaab537          	lui	a0,0xaaaab
     db0:	aaa50513          	add	a0,a0,-1366 # aaaaaaaa <_end+0xaaaa616a>
     db4:	00600593          	li	a1,6
     db8:	02b51633          	mulh	a2,a0,a1
     dbc:	20c0a423          	sw	a2,520(ra)

00000dc0 <inst_162>:
     dc0:	aaaab537          	lui	a0,0xaaaab
     dc4:	aaa50513          	add	a0,a0,-1366 # aaaaaaaa <_end+0xaaaa616a>
     dc8:	333335b7          	lui	a1,0x33333
     dcc:	33458593          	add	a1,a1,820 # 33333334 <_end+0x3332e9f4>
     dd0:	02b51633          	mulh	a2,a0,a1
     dd4:	20c0a623          	sw	a2,524(ra)

00000dd8 <inst_163>:
     dd8:	aaaab537          	lui	a0,0xaaaab
     ddc:	aaa50513          	add	a0,a0,-1366 # aaaaaaaa <_end+0xaaaa616a>
     de0:	666665b7          	lui	a1,0x66666
     de4:	66758593          	add	a1,a1,1639 # 66666667 <_end+0x66661d27>
     de8:	02b51633          	mulh	a2,a0,a1
     dec:	20c0a823          	sw	a2,528(ra)

00000df0 <inst_164>:
     df0:	aaaab537          	lui	a0,0xaaaab
     df4:	aaa50513          	add	a0,a0,-1366 # aaaaaaaa <_end+0xaaaa616a>
     df8:	ffff55b7          	lui	a1,0xffff5
     dfc:	afd58593          	add	a1,a1,-1283 # ffff4afd <_end+0xffff01bd>
     e00:	02b51633          	mulh	a2,a0,a1
     e04:	20c0aa23          	sw	a2,532(ra)

00000e08 <inst_165>:
     e08:	aaaab537          	lui	a0,0xaaaab
     e0c:	aaa50513          	add	a0,a0,-1366 # aaaaaaaa <_end+0xaaaa616a>
     e10:	0000b5b7          	lui	a1,0xb
     e14:	50558593          	add	a1,a1,1285 # b505 <_end+0x6bc5>
     e18:	02b51633          	mulh	a2,a0,a1
     e1c:	20c0ac23          	sw	a2,536(ra)

00000e20 <inst_166>:
     e20:	00500513          	li	a0,5
     e24:	00300593          	li	a1,3
     e28:	02b51633          	mulh	a2,a0,a1
     e2c:	20c0ae23          	sw	a2,540(ra)

00000e30 <inst_167>:
     e30:	00500513          	li	a0,5
     e34:	555555b7          	lui	a1,0x55555
     e38:	55558593          	add	a1,a1,1365 # 55555555 <_end+0x55550c15>
     e3c:	02b51633          	mulh	a2,a0,a1
     e40:	22c0a023          	sw	a2,544(ra)

00000e44 <inst_168>:
     e44:	00500513          	li	a0,5
     e48:	aaaab5b7          	lui	a1,0xaaaab
     e4c:	aaa58593          	add	a1,a1,-1366 # aaaaaaaa <_end+0xaaaa616a>
     e50:	02b51633          	mulh	a2,a0,a1
     e54:	22c0a223          	sw	a2,548(ra)

00000e58 <inst_169>:
     e58:	00500513          	li	a0,5
     e5c:	00500593          	li	a1,5
     e60:	02b51633          	mulh	a2,a0,a1
     e64:	22c0a423          	sw	a2,552(ra)

00000e68 <inst_170>:
     e68:	00500513          	li	a0,5
     e6c:	333335b7          	lui	a1,0x33333
     e70:	33358593          	add	a1,a1,819 # 33333333 <_end+0x3332e9f3>
     e74:	02b51633          	mulh	a2,a0,a1
     e78:	22c0a623          	sw	a2,556(ra)

00000e7c <inst_171>:
     e7c:	00500513          	li	a0,5
     e80:	666665b7          	lui	a1,0x66666
     e84:	66658593          	add	a1,a1,1638 # 66666666 <_end+0x66661d26>
     e88:	02b51633          	mulh	a2,a0,a1
     e8c:	22c0a823          	sw	a2,560(ra)

00000e90 <inst_172>:
     e90:	00500513          	li	a0,5
     e94:	ffff55b7          	lui	a1,0xffff5
     e98:	afc58593          	add	a1,a1,-1284 # ffff4afc <_end+0xffff01bc>
     e9c:	02b51633          	mulh	a2,a0,a1
     ea0:	22c0aa23          	sw	a2,564(ra)

00000ea4 <inst_173>:
     ea4:	00500513          	li	a0,5
     ea8:	0000b5b7          	lui	a1,0xb
     eac:	50458593          	add	a1,a1,1284 # b504 <_end+0x6bc4>
     eb0:	02b51633          	mulh	a2,a0,a1
     eb4:	22c0ac23          	sw	a2,568(ra)

00000eb8 <inst_174>:
     eb8:	00500513          	li	a0,5
     ebc:	00200593          	li	a1,2
     ec0:	02b51633          	mulh	a2,a0,a1
     ec4:	22c0ae23          	sw	a2,572(ra)

00000ec8 <inst_175>:
     ec8:	00500513          	li	a0,5
     ecc:	555555b7          	lui	a1,0x55555
     ed0:	55458593          	add	a1,a1,1364 # 55555554 <_end+0x55550c14>
     ed4:	02b51633          	mulh	a2,a0,a1
     ed8:	24c0a023          	sw	a2,576(ra)

00000edc <inst_176>:
     edc:	00500513          	li	a0,5
     ee0:	00000593          	li	a1,0
     ee4:	02b51633          	mulh	a2,a0,a1
     ee8:	24c0a223          	sw	a2,580(ra)

00000eec <inst_177>:
     eec:	00500513          	li	a0,5
     ef0:	00400593          	li	a1,4
     ef4:	02b51633          	mulh	a2,a0,a1
     ef8:	24c0a423          	sw	a2,584(ra)

00000efc <inst_178>:
     efc:	00500513          	li	a0,5
     f00:	333335b7          	lui	a1,0x33333
     f04:	33258593          	add	a1,a1,818 # 33333332 <_end+0x3332e9f2>
     f08:	02b51633          	mulh	a2,a0,a1
     f0c:	24c0a623          	sw	a2,588(ra)

00000f10 <inst_179>:
     f10:	00500513          	li	a0,5
     f14:	666665b7          	lui	a1,0x66666
     f18:	66558593          	add	a1,a1,1637 # 66666665 <_end+0x66661d25>
     f1c:	02b51633          	mulh	a2,a0,a1
     f20:	24c0a823          	sw	a2,592(ra)

00000f24 <inst_180>:
     f24:	00500513          	li	a0,5
     f28:	0000b5b7          	lui	a1,0xb
     f2c:	50358593          	add	a1,a1,1283 # b503 <_end+0x6bc3>
     f30:	02b51633          	mulh	a2,a0,a1
     f34:	24c0aa23          	sw	a2,596(ra)

00000f38 <inst_181>:
     f38:	00500513          	li	a0,5
     f3c:	555555b7          	lui	a1,0x55555
     f40:	55658593          	add	a1,a1,1366 # 55555556 <_end+0x55550c16>
     f44:	02b51633          	mulh	a2,a0,a1
     f48:	24c0ac23          	sw	a2,600(ra)

00000f4c <inst_182>:
     f4c:	00500513          	li	a0,5
     f50:	aaaab5b7          	lui	a1,0xaaaab
     f54:	aab58593          	add	a1,a1,-1365 # aaaaaaab <_end+0xaaaa616b>
     f58:	02b51633          	mulh	a2,a0,a1
     f5c:	24c0ae23          	sw	a2,604(ra)

00000f60 <inst_183>:
     f60:	00500513          	li	a0,5
     f64:	00600593          	li	a1,6
     f68:	02b51633          	mulh	a2,a0,a1
     f6c:	26c0a023          	sw	a2,608(ra)

00000f70 <inst_184>:
     f70:	00500513          	li	a0,5
     f74:	333335b7          	lui	a1,0x33333
     f78:	33458593          	add	a1,a1,820 # 33333334 <_end+0x3332e9f4>
     f7c:	02b51633          	mulh	a2,a0,a1
     f80:	26c0a223          	sw	a2,612(ra)

00000f84 <inst_185>:
     f84:	00500513          	li	a0,5
     f88:	666665b7          	lui	a1,0x66666
     f8c:	66758593          	add	a1,a1,1639 # 66666667 <_end+0x66661d27>
     f90:	02b51633          	mulh	a2,a0,a1
     f94:	26c0a423          	sw	a2,616(ra)

00000f98 <inst_186>:
     f98:	00500513          	li	a0,5
     f9c:	ffff55b7          	lui	a1,0xffff5
     fa0:	afd58593          	add	a1,a1,-1283 # ffff4afd <_end+0xffff01bd>
     fa4:	02b51633          	mulh	a2,a0,a1
     fa8:	26c0a623          	sw	a2,620(ra)

00000fac <inst_187>:
     fac:	00500513          	li	a0,5
     fb0:	0000b5b7          	lui	a1,0xb
     fb4:	50558593          	add	a1,a1,1285 # b505 <_end+0x6bc5>
     fb8:	02b51633          	mulh	a2,a0,a1
     fbc:	26c0a823          	sw	a2,624(ra)

00000fc0 <inst_188>:
     fc0:	33333537          	lui	a0,0x33333
     fc4:	33350513          	add	a0,a0,819 # 33333333 <_end+0x3332e9f3>
     fc8:	00300593          	li	a1,3
     fcc:	02b51633          	mulh	a2,a0,a1
     fd0:	26c0aa23          	sw	a2,628(ra)

00000fd4 <inst_189>:
     fd4:	33333537          	lui	a0,0x33333
     fd8:	33350513          	add	a0,a0,819 # 33333333 <_end+0x3332e9f3>
     fdc:	555555b7          	lui	a1,0x55555
     fe0:	55558593          	add	a1,a1,1365 # 55555555 <_end+0x55550c15>
     fe4:	02b51633          	mulh	a2,a0,a1
     fe8:	26c0ac23          	sw	a2,632(ra)

00000fec <inst_190>:
     fec:	33333537          	lui	a0,0x33333
     ff0:	33350513          	add	a0,a0,819 # 33333333 <_end+0x3332e9f3>
     ff4:	aaaab5b7          	lui	a1,0xaaaab
     ff8:	aaa58593          	add	a1,a1,-1366 # aaaaaaaa <_end+0xaaaa616a>
     ffc:	02b51633          	mulh	a2,a0,a1
    1000:	26c0ae23          	sw	a2,636(ra)

00001004 <inst_191>:
    1004:	33333537          	lui	a0,0x33333
    1008:	33350513          	add	a0,a0,819 # 33333333 <_end+0x3332e9f3>
    100c:	00500593          	li	a1,5
    1010:	02b51633          	mulh	a2,a0,a1
    1014:	28c0a023          	sw	a2,640(ra)

00001018 <inst_192>:
    1018:	33333537          	lui	a0,0x33333
    101c:	33350513          	add	a0,a0,819 # 33333333 <_end+0x3332e9f3>
    1020:	333335b7          	lui	a1,0x33333
    1024:	33358593          	add	a1,a1,819 # 33333333 <_end+0x3332e9f3>
    1028:	02b51633          	mulh	a2,a0,a1
    102c:	28c0a223          	sw	a2,644(ra)

00001030 <inst_193>:
    1030:	33333537          	lui	a0,0x33333
    1034:	33350513          	add	a0,a0,819 # 33333333 <_end+0x3332e9f3>
    1038:	666665b7          	lui	a1,0x66666
    103c:	66658593          	add	a1,a1,1638 # 66666666 <_end+0x66661d26>
    1040:	02b51633          	mulh	a2,a0,a1
    1044:	28c0a423          	sw	a2,648(ra)

00001048 <inst_194>:
    1048:	33333537          	lui	a0,0x33333
    104c:	33350513          	add	a0,a0,819 # 33333333 <_end+0x3332e9f3>
    1050:	ffff55b7          	lui	a1,0xffff5
    1054:	afc58593          	add	a1,a1,-1284 # ffff4afc <_end+0xffff01bc>
    1058:	02b51633          	mulh	a2,a0,a1
    105c:	28c0a623          	sw	a2,652(ra)

00001060 <inst_195>:
    1060:	33333537          	lui	a0,0x33333
    1064:	33350513          	add	a0,a0,819 # 33333333 <_end+0x3332e9f3>
    1068:	0000b5b7          	lui	a1,0xb
    106c:	50458593          	add	a1,a1,1284 # b504 <_end+0x6bc4>
    1070:	02b51633          	mulh	a2,a0,a1
    1074:	28c0a823          	sw	a2,656(ra)

00001078 <inst_196>:
    1078:	33333537          	lui	a0,0x33333
    107c:	33350513          	add	a0,a0,819 # 33333333 <_end+0x3332e9f3>
    1080:	00200593          	li	a1,2
    1084:	02b51633          	mulh	a2,a0,a1
    1088:	28c0aa23          	sw	a2,660(ra)

0000108c <inst_197>:
    108c:	33333537          	lui	a0,0x33333
    1090:	33350513          	add	a0,a0,819 # 33333333 <_end+0x3332e9f3>
    1094:	555555b7          	lui	a1,0x55555
    1098:	55458593          	add	a1,a1,1364 # 55555554 <_end+0x55550c14>
    109c:	02b51633          	mulh	a2,a0,a1
    10a0:	28c0ac23          	sw	a2,664(ra)

000010a4 <inst_198>:
    10a4:	33333537          	lui	a0,0x33333
    10a8:	33350513          	add	a0,a0,819 # 33333333 <_end+0x3332e9f3>
    10ac:	00000593          	li	a1,0
    10b0:	02b51633          	mulh	a2,a0,a1
    10b4:	28c0ae23          	sw	a2,668(ra)

000010b8 <inst_199>:
    10b8:	33333537          	lui	a0,0x33333
    10bc:	33350513          	add	a0,a0,819 # 33333333 <_end+0x3332e9f3>
    10c0:	00400593          	li	a1,4
    10c4:	02b51633          	mulh	a2,a0,a1
    10c8:	2ac0a023          	sw	a2,672(ra)

000010cc <inst_200>:
    10cc:	33333537          	lui	a0,0x33333
    10d0:	33350513          	add	a0,a0,819 # 33333333 <_end+0x3332e9f3>
    10d4:	333335b7          	lui	a1,0x33333
    10d8:	33258593          	add	a1,a1,818 # 33333332 <_end+0x3332e9f2>
    10dc:	02b51633          	mulh	a2,a0,a1
    10e0:	2ac0a223          	sw	a2,676(ra)

000010e4 <inst_201>:
    10e4:	33333537          	lui	a0,0x33333
    10e8:	33350513          	add	a0,a0,819 # 33333333 <_end+0x3332e9f3>
    10ec:	666665b7          	lui	a1,0x66666
    10f0:	66558593          	add	a1,a1,1637 # 66666665 <_end+0x66661d25>
    10f4:	02b51633          	mulh	a2,a0,a1
    10f8:	2ac0a423          	sw	a2,680(ra)

000010fc <inst_202>:
    10fc:	33333537          	lui	a0,0x33333
    1100:	33350513          	add	a0,a0,819 # 33333333 <_end+0x3332e9f3>
    1104:	0000b5b7          	lui	a1,0xb
    1108:	50358593          	add	a1,a1,1283 # b503 <_end+0x6bc3>
    110c:	02b51633          	mulh	a2,a0,a1
    1110:	2ac0a623          	sw	a2,684(ra)

00001114 <inst_203>:
    1114:	33333537          	lui	a0,0x33333
    1118:	33350513          	add	a0,a0,819 # 33333333 <_end+0x3332e9f3>
    111c:	555555b7          	lui	a1,0x55555
    1120:	55658593          	add	a1,a1,1366 # 55555556 <_end+0x55550c16>
    1124:	02b51633          	mulh	a2,a0,a1
    1128:	2ac0a823          	sw	a2,688(ra)

0000112c <inst_204>:
    112c:	33333537          	lui	a0,0x33333
    1130:	33350513          	add	a0,a0,819 # 33333333 <_end+0x3332e9f3>
    1134:	aaaab5b7          	lui	a1,0xaaaab
    1138:	aab58593          	add	a1,a1,-1365 # aaaaaaab <_end+0xaaaa616b>
    113c:	02b51633          	mulh	a2,a0,a1
    1140:	2ac0aa23          	sw	a2,692(ra)

00001144 <inst_205>:
    1144:	33333537          	lui	a0,0x33333
    1148:	33350513          	add	a0,a0,819 # 33333333 <_end+0x3332e9f3>
    114c:	00600593          	li	a1,6
    1150:	02b51633          	mulh	a2,a0,a1
    1154:	2ac0ac23          	sw	a2,696(ra)

00001158 <inst_206>:
    1158:	33333537          	lui	a0,0x33333
    115c:	33350513          	add	a0,a0,819 # 33333333 <_end+0x3332e9f3>
    1160:	333335b7          	lui	a1,0x33333
    1164:	33458593          	add	a1,a1,820 # 33333334 <_end+0x3332e9f4>
    1168:	02b51633          	mulh	a2,a0,a1
    116c:	2ac0ae23          	sw	a2,700(ra)

00001170 <inst_207>:
    1170:	33333537          	lui	a0,0x33333
    1174:	33350513          	add	a0,a0,819 # 33333333 <_end+0x3332e9f3>
    1178:	666665b7          	lui	a1,0x66666
    117c:	66758593          	add	a1,a1,1639 # 66666667 <_end+0x66661d27>
    1180:	02b51633          	mulh	a2,a0,a1
    1184:	2cc0a023          	sw	a2,704(ra)

00001188 <inst_208>:
    1188:	33333537          	lui	a0,0x33333
    118c:	33350513          	add	a0,a0,819 # 33333333 <_end+0x3332e9f3>
    1190:	ffff55b7          	lui	a1,0xffff5
    1194:	afd58593          	add	a1,a1,-1283 # ffff4afd <_end+0xffff01bd>
    1198:	02b51633          	mulh	a2,a0,a1
    119c:	2cc0a223          	sw	a2,708(ra)

000011a0 <inst_209>:
    11a0:	33333537          	lui	a0,0x33333
    11a4:	33350513          	add	a0,a0,819 # 33333333 <_end+0x3332e9f3>
    11a8:	0000b5b7          	lui	a1,0xb
    11ac:	50558593          	add	a1,a1,1285 # b505 <_end+0x6bc5>
    11b0:	02b51633          	mulh	a2,a0,a1
    11b4:	2cc0a423          	sw	a2,712(ra)

000011b8 <inst_210>:
    11b8:	66666537          	lui	a0,0x66666
    11bc:	66650513          	add	a0,a0,1638 # 66666666 <_end+0x66661d26>
    11c0:	00300593          	li	a1,3
    11c4:	02b51633          	mulh	a2,a0,a1
    11c8:	2cc0a623          	sw	a2,716(ra)

000011cc <inst_211>:
    11cc:	66666537          	lui	a0,0x66666
    11d0:	66650513          	add	a0,a0,1638 # 66666666 <_end+0x66661d26>
    11d4:	555555b7          	lui	a1,0x55555
    11d8:	55558593          	add	a1,a1,1365 # 55555555 <_end+0x55550c15>
    11dc:	02b51633          	mulh	a2,a0,a1
    11e0:	2cc0a823          	sw	a2,720(ra)

000011e4 <inst_212>:
    11e4:	66666537          	lui	a0,0x66666
    11e8:	66650513          	add	a0,a0,1638 # 66666666 <_end+0x66661d26>
    11ec:	aaaab5b7          	lui	a1,0xaaaab
    11f0:	aaa58593          	add	a1,a1,-1366 # aaaaaaaa <_end+0xaaaa616a>
    11f4:	02b51633          	mulh	a2,a0,a1
    11f8:	2cc0aa23          	sw	a2,724(ra)

000011fc <inst_213>:
    11fc:	66666537          	lui	a0,0x66666
    1200:	66650513          	add	a0,a0,1638 # 66666666 <_end+0x66661d26>
    1204:	00500593          	li	a1,5
    1208:	02b51633          	mulh	a2,a0,a1
    120c:	2cc0ac23          	sw	a2,728(ra)

00001210 <inst_214>:
    1210:	66666537          	lui	a0,0x66666
    1214:	66650513          	add	a0,a0,1638 # 66666666 <_end+0x66661d26>
    1218:	333335b7          	lui	a1,0x33333
    121c:	33358593          	add	a1,a1,819 # 33333333 <_end+0x3332e9f3>
    1220:	02b51633          	mulh	a2,a0,a1
    1224:	2cc0ae23          	sw	a2,732(ra)

00001228 <inst_215>:
    1228:	66666537          	lui	a0,0x66666
    122c:	66650513          	add	a0,a0,1638 # 66666666 <_end+0x66661d26>
    1230:	666665b7          	lui	a1,0x66666
    1234:	66658593          	add	a1,a1,1638 # 66666666 <_end+0x66661d26>
    1238:	02b51633          	mulh	a2,a0,a1
    123c:	2ec0a023          	sw	a2,736(ra)

00001240 <inst_216>:
    1240:	66666537          	lui	a0,0x66666
    1244:	66650513          	add	a0,a0,1638 # 66666666 <_end+0x66661d26>
    1248:	ffff55b7          	lui	a1,0xffff5
    124c:	afc58593          	add	a1,a1,-1284 # ffff4afc <_end+0xffff01bc>
    1250:	02b51633          	mulh	a2,a0,a1
    1254:	2ec0a223          	sw	a2,740(ra)

00001258 <inst_217>:
    1258:	66666537          	lui	a0,0x66666
    125c:	66650513          	add	a0,a0,1638 # 66666666 <_end+0x66661d26>
    1260:	0000b5b7          	lui	a1,0xb
    1264:	50458593          	add	a1,a1,1284 # b504 <_end+0x6bc4>
    1268:	02b51633          	mulh	a2,a0,a1
    126c:	2ec0a423          	sw	a2,744(ra)

00001270 <inst_218>:
    1270:	66666537          	lui	a0,0x66666
    1274:	66650513          	add	a0,a0,1638 # 66666666 <_end+0x66661d26>
    1278:	00200593          	li	a1,2
    127c:	02b51633          	mulh	a2,a0,a1
    1280:	2ec0a623          	sw	a2,748(ra)

00001284 <inst_219>:
    1284:	66666537          	lui	a0,0x66666
    1288:	66650513          	add	a0,a0,1638 # 66666666 <_end+0x66661d26>
    128c:	555555b7          	lui	a1,0x55555
    1290:	55458593          	add	a1,a1,1364 # 55555554 <_end+0x55550c14>
    1294:	02b51633          	mulh	a2,a0,a1
    1298:	2ec0a823          	sw	a2,752(ra)

0000129c <inst_220>:
    129c:	66666537          	lui	a0,0x66666
    12a0:	66650513          	add	a0,a0,1638 # 66666666 <_end+0x66661d26>
    12a4:	00000593          	li	a1,0
    12a8:	02b51633          	mulh	a2,a0,a1
    12ac:	2ec0aa23          	sw	a2,756(ra)

000012b0 <inst_221>:
    12b0:	66666537          	lui	a0,0x66666
    12b4:	66650513          	add	a0,a0,1638 # 66666666 <_end+0x66661d26>
    12b8:	00400593          	li	a1,4
    12bc:	02b51633          	mulh	a2,a0,a1
    12c0:	2ec0ac23          	sw	a2,760(ra)

000012c4 <inst_222>:
    12c4:	66666537          	lui	a0,0x66666
    12c8:	66650513          	add	a0,a0,1638 # 66666666 <_end+0x66661d26>
    12cc:	333335b7          	lui	a1,0x33333
    12d0:	33258593          	add	a1,a1,818 # 33333332 <_end+0x3332e9f2>
    12d4:	02b51633          	mulh	a2,a0,a1
    12d8:	2ec0ae23          	sw	a2,764(ra)

000012dc <inst_223>:
    12dc:	66666537          	lui	a0,0x66666
    12e0:	66650513          	add	a0,a0,1638 # 66666666 <_end+0x66661d26>
    12e4:	666665b7          	lui	a1,0x66666
    12e8:	66558593          	add	a1,a1,1637 # 66666665 <_end+0x66661d25>
    12ec:	02b51633          	mulh	a2,a0,a1
    12f0:	30c0a023          	sw	a2,768(ra)

000012f4 <inst_224>:
    12f4:	66666537          	lui	a0,0x66666
    12f8:	66650513          	add	a0,a0,1638 # 66666666 <_end+0x66661d26>
    12fc:	0000b5b7          	lui	a1,0xb
    1300:	50358593          	add	a1,a1,1283 # b503 <_end+0x6bc3>
    1304:	02b51633          	mulh	a2,a0,a1
    1308:	30c0a223          	sw	a2,772(ra)

0000130c <inst_225>:
    130c:	66666537          	lui	a0,0x66666
    1310:	66650513          	add	a0,a0,1638 # 66666666 <_end+0x66661d26>
    1314:	555555b7          	lui	a1,0x55555
    1318:	55658593          	add	a1,a1,1366 # 55555556 <_end+0x55550c16>
    131c:	02b51633          	mulh	a2,a0,a1
    1320:	30c0a423          	sw	a2,776(ra)

00001324 <inst_226>:
    1324:	66666537          	lui	a0,0x66666
    1328:	66650513          	add	a0,a0,1638 # 66666666 <_end+0x66661d26>
    132c:	aaaab5b7          	lui	a1,0xaaaab
    1330:	aab58593          	add	a1,a1,-1365 # aaaaaaab <_end+0xaaaa616b>
    1334:	02b51633          	mulh	a2,a0,a1
    1338:	30c0a623          	sw	a2,780(ra)

0000133c <inst_227>:
    133c:	66666537          	lui	a0,0x66666
    1340:	66650513          	add	a0,a0,1638 # 66666666 <_end+0x66661d26>
    1344:	00600593          	li	a1,6
    1348:	02b51633          	mulh	a2,a0,a1
    134c:	30c0a823          	sw	a2,784(ra)

00001350 <inst_228>:
    1350:	66666537          	lui	a0,0x66666
    1354:	66650513          	add	a0,a0,1638 # 66666666 <_end+0x66661d26>
    1358:	333335b7          	lui	a1,0x33333
    135c:	33458593          	add	a1,a1,820 # 33333334 <_end+0x3332e9f4>
    1360:	02b51633          	mulh	a2,a0,a1
    1364:	30c0aa23          	sw	a2,788(ra)

00001368 <inst_229>:
    1368:	66666537          	lui	a0,0x66666
    136c:	66650513          	add	a0,a0,1638 # 66666666 <_end+0x66661d26>
    1370:	666665b7          	lui	a1,0x66666
    1374:	66758593          	add	a1,a1,1639 # 66666667 <_end+0x66661d27>
    1378:	02b51633          	mulh	a2,a0,a1
    137c:	30c0ac23          	sw	a2,792(ra)

00001380 <inst_230>:
    1380:	66666537          	lui	a0,0x66666
    1384:	66650513          	add	a0,a0,1638 # 66666666 <_end+0x66661d26>
    1388:	ffff55b7          	lui	a1,0xffff5
    138c:	afd58593          	add	a1,a1,-1283 # ffff4afd <_end+0xffff01bd>
    1390:	02b51633          	mulh	a2,a0,a1
    1394:	30c0ae23          	sw	a2,796(ra)

00001398 <inst_231>:
    1398:	66666537          	lui	a0,0x66666
    139c:	66650513          	add	a0,a0,1638 # 66666666 <_end+0x66661d26>
    13a0:	0000b5b7          	lui	a1,0xb
    13a4:	50558593          	add	a1,a1,1285 # b505 <_end+0x6bc5>
    13a8:	02b51633          	mulh	a2,a0,a1
    13ac:	32c0a023          	sw	a2,800(ra)

000013b0 <inst_232>:
    13b0:	ffff5537          	lui	a0,0xffff5
    13b4:	afc50513          	add	a0,a0,-1284 # ffff4afc <_end+0xffff01bc>
    13b8:	00300593          	li	a1,3
    13bc:	02b51633          	mulh	a2,a0,a1
    13c0:	32c0a223          	sw	a2,804(ra)

000013c4 <inst_233>:
    13c4:	ffff5537          	lui	a0,0xffff5
    13c8:	afc50513          	add	a0,a0,-1284 # ffff4afc <_end+0xffff01bc>
    13cc:	555555b7          	lui	a1,0x55555
    13d0:	55558593          	add	a1,a1,1365 # 55555555 <_end+0x55550c15>
    13d4:	02b51633          	mulh	a2,a0,a1
    13d8:	32c0a423          	sw	a2,808(ra)

000013dc <inst_234>:
    13dc:	ffff5537          	lui	a0,0xffff5
    13e0:	afc50513          	add	a0,a0,-1284 # ffff4afc <_end+0xffff01bc>
    13e4:	aaaab5b7          	lui	a1,0xaaaab
    13e8:	aaa58593          	add	a1,a1,-1366 # aaaaaaaa <_end+0xaaaa616a>
    13ec:	02b51633          	mulh	a2,a0,a1
    13f0:	32c0a623          	sw	a2,812(ra)

000013f4 <inst_235>:
    13f4:	ffff5537          	lui	a0,0xffff5
    13f8:	afc50513          	add	a0,a0,-1284 # ffff4afc <_end+0xffff01bc>
    13fc:	00500593          	li	a1,5
    1400:	02b51633          	mulh	a2,a0,a1
    1404:	32c0a823          	sw	a2,816(ra)

00001408 <inst_236>:
    1408:	ffff5537          	lui	a0,0xffff5
    140c:	afc50513          	add	a0,a0,-1284 # ffff4afc <_end+0xffff01bc>
    1410:	333335b7          	lui	a1,0x33333
    1414:	33358593          	add	a1,a1,819 # 33333333 <_end+0x3332e9f3>
    1418:	02b51633          	mulh	a2,a0,a1
    141c:	32c0aa23          	sw	a2,820(ra)

00001420 <inst_237>:
    1420:	ffff5537          	lui	a0,0xffff5
    1424:	afc50513          	add	a0,a0,-1284 # ffff4afc <_end+0xffff01bc>
    1428:	666665b7          	lui	a1,0x66666
    142c:	66658593          	add	a1,a1,1638 # 66666666 <_end+0x66661d26>
    1430:	02b51633          	mulh	a2,a0,a1
    1434:	32c0ac23          	sw	a2,824(ra)

00001438 <inst_238>:
    1438:	ffff5537          	lui	a0,0xffff5
    143c:	afc50513          	add	a0,a0,-1284 # ffff4afc <_end+0xffff01bc>
    1440:	ffff55b7          	lui	a1,0xffff5
    1444:	afc58593          	add	a1,a1,-1284 # ffff4afc <_end+0xffff01bc>
    1448:	02b51633          	mulh	a2,a0,a1
    144c:	32c0ae23          	sw	a2,828(ra)

00001450 <inst_239>:
    1450:	ffff5537          	lui	a0,0xffff5
    1454:	afc50513          	add	a0,a0,-1284 # ffff4afc <_end+0xffff01bc>
    1458:	0000b5b7          	lui	a1,0xb
    145c:	50458593          	add	a1,a1,1284 # b504 <_end+0x6bc4>
    1460:	02b51633          	mulh	a2,a0,a1
    1464:	34c0a023          	sw	a2,832(ra)

00001468 <inst_240>:
    1468:	ffff5537          	lui	a0,0xffff5
    146c:	afc50513          	add	a0,a0,-1284 # ffff4afc <_end+0xffff01bc>
    1470:	00200593          	li	a1,2
    1474:	02b51633          	mulh	a2,a0,a1
    1478:	34c0a223          	sw	a2,836(ra)

0000147c <inst_241>:
    147c:	ffff5537          	lui	a0,0xffff5
    1480:	afc50513          	add	a0,a0,-1284 # ffff4afc <_end+0xffff01bc>
    1484:	555555b7          	lui	a1,0x55555
    1488:	55458593          	add	a1,a1,1364 # 55555554 <_end+0x55550c14>
    148c:	02b51633          	mulh	a2,a0,a1
    1490:	34c0a423          	sw	a2,840(ra)

00001494 <inst_242>:
    1494:	ffff5537          	lui	a0,0xffff5
    1498:	afc50513          	add	a0,a0,-1284 # ffff4afc <_end+0xffff01bc>
    149c:	00000593          	li	a1,0
    14a0:	02b51633          	mulh	a2,a0,a1
    14a4:	34c0a623          	sw	a2,844(ra)

000014a8 <inst_243>:
    14a8:	ffff5537          	lui	a0,0xffff5
    14ac:	afc50513          	add	a0,a0,-1284 # ffff4afc <_end+0xffff01bc>
    14b0:	00400593          	li	a1,4
    14b4:	02b51633          	mulh	a2,a0,a1
    14b8:	34c0a823          	sw	a2,848(ra)

000014bc <inst_244>:
    14bc:	ffff5537          	lui	a0,0xffff5
    14c0:	afc50513          	add	a0,a0,-1284 # ffff4afc <_end+0xffff01bc>
    14c4:	333335b7          	lui	a1,0x33333
    14c8:	33258593          	add	a1,a1,818 # 33333332 <_end+0x3332e9f2>
    14cc:	02b51633          	mulh	a2,a0,a1
    14d0:	34c0aa23          	sw	a2,852(ra)

000014d4 <inst_245>:
    14d4:	ffff5537          	lui	a0,0xffff5
    14d8:	afc50513          	add	a0,a0,-1284 # ffff4afc <_end+0xffff01bc>
    14dc:	666665b7          	lui	a1,0x66666
    14e0:	66558593          	add	a1,a1,1637 # 66666665 <_end+0x66661d25>
    14e4:	02b51633          	mulh	a2,a0,a1
    14e8:	34c0ac23          	sw	a2,856(ra)

000014ec <inst_246>:
    14ec:	ffff5537          	lui	a0,0xffff5
    14f0:	afc50513          	add	a0,a0,-1284 # ffff4afc <_end+0xffff01bc>
    14f4:	0000b5b7          	lui	a1,0xb
    14f8:	50358593          	add	a1,a1,1283 # b503 <_end+0x6bc3>
    14fc:	02b51633          	mulh	a2,a0,a1
    1500:	34c0ae23          	sw	a2,860(ra)

00001504 <inst_247>:
    1504:	ffff5537          	lui	a0,0xffff5
    1508:	afc50513          	add	a0,a0,-1284 # ffff4afc <_end+0xffff01bc>
    150c:	555555b7          	lui	a1,0x55555
    1510:	55658593          	add	a1,a1,1366 # 55555556 <_end+0x55550c16>
    1514:	02b51633          	mulh	a2,a0,a1
    1518:	36c0a023          	sw	a2,864(ra)

0000151c <inst_248>:
    151c:	ffff5537          	lui	a0,0xffff5
    1520:	afc50513          	add	a0,a0,-1284 # ffff4afc <_end+0xffff01bc>
    1524:	aaaab5b7          	lui	a1,0xaaaab
    1528:	aab58593          	add	a1,a1,-1365 # aaaaaaab <_end+0xaaaa616b>
    152c:	02b51633          	mulh	a2,a0,a1
    1530:	36c0a223          	sw	a2,868(ra)

00001534 <inst_249>:
    1534:	ffff5537          	lui	a0,0xffff5
    1538:	afc50513          	add	a0,a0,-1284 # ffff4afc <_end+0xffff01bc>
    153c:	00600593          	li	a1,6
    1540:	02b51633          	mulh	a2,a0,a1
    1544:	36c0a423          	sw	a2,872(ra)

00001548 <inst_250>:
    1548:	ffff5537          	lui	a0,0xffff5
    154c:	afc50513          	add	a0,a0,-1284 # ffff4afc <_end+0xffff01bc>
    1550:	333335b7          	lui	a1,0x33333
    1554:	33458593          	add	a1,a1,820 # 33333334 <_end+0x3332e9f4>
    1558:	02b51633          	mulh	a2,a0,a1
    155c:	36c0a623          	sw	a2,876(ra)

00001560 <inst_251>:
    1560:	ffff5537          	lui	a0,0xffff5
    1564:	afc50513          	add	a0,a0,-1284 # ffff4afc <_end+0xffff01bc>
    1568:	666665b7          	lui	a1,0x66666
    156c:	66758593          	add	a1,a1,1639 # 66666667 <_end+0x66661d27>
    1570:	02b51633          	mulh	a2,a0,a1
    1574:	36c0a823          	sw	a2,880(ra)

00001578 <inst_252>:
    1578:	ffff5537          	lui	a0,0xffff5
    157c:	afc50513          	add	a0,a0,-1284 # ffff4afc <_end+0xffff01bc>
    1580:	ffff55b7          	lui	a1,0xffff5
    1584:	afd58593          	add	a1,a1,-1283 # ffff4afd <_end+0xffff01bd>
    1588:	02b51633          	mulh	a2,a0,a1
    158c:	36c0aa23          	sw	a2,884(ra)

00001590 <inst_253>:
    1590:	ffff5537          	lui	a0,0xffff5
    1594:	afc50513          	add	a0,a0,-1284 # ffff4afc <_end+0xffff01bc>
    1598:	0000b5b7          	lui	a1,0xb
    159c:	50558593          	add	a1,a1,1285 # b505 <_end+0x6bc5>
    15a0:	02b51633          	mulh	a2,a0,a1
    15a4:	36c0ac23          	sw	a2,888(ra)

000015a8 <inst_254>:
    15a8:	0000b537          	lui	a0,0xb
    15ac:	50450513          	add	a0,a0,1284 # b504 <_end+0x6bc4>
    15b0:	00300593          	li	a1,3
    15b4:	02b51633          	mulh	a2,a0,a1
    15b8:	36c0ae23          	sw	a2,892(ra)

000015bc <inst_255>:
    15bc:	0000b537          	lui	a0,0xb
    15c0:	50450513          	add	a0,a0,1284 # b504 <_end+0x6bc4>
    15c4:	555555b7          	lui	a1,0x55555
    15c8:	55558593          	add	a1,a1,1365 # 55555555 <_end+0x55550c15>
    15cc:	02b51633          	mulh	a2,a0,a1
    15d0:	38c0a023          	sw	a2,896(ra)

000015d4 <inst_256>:
    15d4:	0000b537          	lui	a0,0xb
    15d8:	50450513          	add	a0,a0,1284 # b504 <_end+0x6bc4>
    15dc:	aaaab5b7          	lui	a1,0xaaaab
    15e0:	aaa58593          	add	a1,a1,-1366 # aaaaaaaa <_end+0xaaaa616a>
    15e4:	02b51633          	mulh	a2,a0,a1
    15e8:	38c0a223          	sw	a2,900(ra)

000015ec <inst_257>:
    15ec:	0000b537          	lui	a0,0xb
    15f0:	50450513          	add	a0,a0,1284 # b504 <_end+0x6bc4>
    15f4:	00500593          	li	a1,5
    15f8:	02b51633          	mulh	a2,a0,a1
    15fc:	38c0a423          	sw	a2,904(ra)

00001600 <inst_258>:
    1600:	0000b537          	lui	a0,0xb
    1604:	50450513          	add	a0,a0,1284 # b504 <_end+0x6bc4>
    1608:	333335b7          	lui	a1,0x33333
    160c:	33358593          	add	a1,a1,819 # 33333333 <_end+0x3332e9f3>
    1610:	02b51633          	mulh	a2,a0,a1
    1614:	38c0a623          	sw	a2,908(ra)

00001618 <inst_259>:
    1618:	0000b537          	lui	a0,0xb
    161c:	50450513          	add	a0,a0,1284 # b504 <_end+0x6bc4>
    1620:	666665b7          	lui	a1,0x66666
    1624:	66658593          	add	a1,a1,1638 # 66666666 <_end+0x66661d26>
    1628:	02b51633          	mulh	a2,a0,a1
    162c:	38c0a823          	sw	a2,912(ra)

00001630 <inst_260>:
    1630:	0000b537          	lui	a0,0xb
    1634:	50450513          	add	a0,a0,1284 # b504 <_end+0x6bc4>
    1638:	ffff55b7          	lui	a1,0xffff5
    163c:	afc58593          	add	a1,a1,-1284 # ffff4afc <_end+0xffff01bc>
    1640:	02b51633          	mulh	a2,a0,a1
    1644:	38c0aa23          	sw	a2,916(ra)

00001648 <inst_261>:
    1648:	0000b537          	lui	a0,0xb
    164c:	50450513          	add	a0,a0,1284 # b504 <_end+0x6bc4>
    1650:	0000b5b7          	lui	a1,0xb
    1654:	50458593          	add	a1,a1,1284 # b504 <_end+0x6bc4>
    1658:	02b51633          	mulh	a2,a0,a1
    165c:	38c0ac23          	sw	a2,920(ra)

00001660 <inst_262>:
    1660:	0000b537          	lui	a0,0xb
    1664:	50450513          	add	a0,a0,1284 # b504 <_end+0x6bc4>
    1668:	00200593          	li	a1,2
    166c:	02b51633          	mulh	a2,a0,a1
    1670:	38c0ae23          	sw	a2,924(ra)

00001674 <inst_263>:
    1674:	0000b537          	lui	a0,0xb
    1678:	50450513          	add	a0,a0,1284 # b504 <_end+0x6bc4>
    167c:	555555b7          	lui	a1,0x55555
    1680:	55458593          	add	a1,a1,1364 # 55555554 <_end+0x55550c14>
    1684:	02b51633          	mulh	a2,a0,a1
    1688:	3ac0a023          	sw	a2,928(ra)

0000168c <inst_264>:
    168c:	0000b537          	lui	a0,0xb
    1690:	50450513          	add	a0,a0,1284 # b504 <_end+0x6bc4>
    1694:	00000593          	li	a1,0
    1698:	02b51633          	mulh	a2,a0,a1
    169c:	3ac0a223          	sw	a2,932(ra)

000016a0 <inst_265>:
    16a0:	0000b537          	lui	a0,0xb
    16a4:	50450513          	add	a0,a0,1284 # b504 <_end+0x6bc4>
    16a8:	00400593          	li	a1,4
    16ac:	02b51633          	mulh	a2,a0,a1
    16b0:	3ac0a423          	sw	a2,936(ra)

000016b4 <inst_266>:
    16b4:	0000b537          	lui	a0,0xb
    16b8:	50450513          	add	a0,a0,1284 # b504 <_end+0x6bc4>
    16bc:	333335b7          	lui	a1,0x33333
    16c0:	33258593          	add	a1,a1,818 # 33333332 <_end+0x3332e9f2>
    16c4:	02b51633          	mulh	a2,a0,a1
    16c8:	3ac0a623          	sw	a2,940(ra)

000016cc <inst_267>:
    16cc:	0000b537          	lui	a0,0xb
    16d0:	50450513          	add	a0,a0,1284 # b504 <_end+0x6bc4>
    16d4:	666665b7          	lui	a1,0x66666
    16d8:	66558593          	add	a1,a1,1637 # 66666665 <_end+0x66661d25>
    16dc:	02b51633          	mulh	a2,a0,a1
    16e0:	3ac0a823          	sw	a2,944(ra)

000016e4 <inst_268>:
    16e4:	0000b537          	lui	a0,0xb
    16e8:	50450513          	add	a0,a0,1284 # b504 <_end+0x6bc4>
    16ec:	0000b5b7          	lui	a1,0xb
    16f0:	50358593          	add	a1,a1,1283 # b503 <_end+0x6bc3>
    16f4:	02b51633          	mulh	a2,a0,a1
    16f8:	3ac0aa23          	sw	a2,948(ra)

000016fc <inst_269>:
    16fc:	0000b537          	lui	a0,0xb
    1700:	50450513          	add	a0,a0,1284 # b504 <_end+0x6bc4>
    1704:	555555b7          	lui	a1,0x55555
    1708:	55658593          	add	a1,a1,1366 # 55555556 <_end+0x55550c16>
    170c:	02b51633          	mulh	a2,a0,a1
    1710:	3ac0ac23          	sw	a2,952(ra)

00001714 <inst_270>:
    1714:	0000b537          	lui	a0,0xb
    1718:	50450513          	add	a0,a0,1284 # b504 <_end+0x6bc4>
    171c:	aaaab5b7          	lui	a1,0xaaaab
    1720:	aab58593          	add	a1,a1,-1365 # aaaaaaab <_end+0xaaaa616b>
    1724:	02b51633          	mulh	a2,a0,a1
    1728:	3ac0ae23          	sw	a2,956(ra)

0000172c <inst_271>:
    172c:	0000b537          	lui	a0,0xb
    1730:	50450513          	add	a0,a0,1284 # b504 <_end+0x6bc4>
    1734:	00600593          	li	a1,6
    1738:	02b51633          	mulh	a2,a0,a1
    173c:	3cc0a023          	sw	a2,960(ra)

00001740 <inst_272>:
    1740:	0000b537          	lui	a0,0xb
    1744:	50450513          	add	a0,a0,1284 # b504 <_end+0x6bc4>
    1748:	333335b7          	lui	a1,0x33333
    174c:	33458593          	add	a1,a1,820 # 33333334 <_end+0x3332e9f4>
    1750:	02b51633          	mulh	a2,a0,a1
    1754:	3cc0a223          	sw	a2,964(ra)

00001758 <inst_273>:
    1758:	0000b537          	lui	a0,0xb
    175c:	50450513          	add	a0,a0,1284 # b504 <_end+0x6bc4>
    1760:	666665b7          	lui	a1,0x66666
    1764:	66758593          	add	a1,a1,1639 # 66666667 <_end+0x66661d27>
    1768:	02b51633          	mulh	a2,a0,a1
    176c:	3cc0a423          	sw	a2,968(ra)

00001770 <inst_274>:
    1770:	0000b537          	lui	a0,0xb
    1774:	50450513          	add	a0,a0,1284 # b504 <_end+0x6bc4>
    1778:	ffff55b7          	lui	a1,0xffff5
    177c:	afd58593          	add	a1,a1,-1283 # ffff4afd <_end+0xffff01bd>
    1780:	02b51633          	mulh	a2,a0,a1
    1784:	3cc0a623          	sw	a2,972(ra)

00001788 <inst_275>:
    1788:	0000b537          	lui	a0,0xb
    178c:	50450513          	add	a0,a0,1284 # b504 <_end+0x6bc4>
    1790:	0000b5b7          	lui	a1,0xb
    1794:	50558593          	add	a1,a1,1285 # b505 <_end+0x6bc5>
    1798:	02b51633          	mulh	a2,a0,a1
    179c:	3cc0a823          	sw	a2,976(ra)

000017a0 <inst_276>:
    17a0:	00200513          	li	a0,2
    17a4:	00300593          	li	a1,3
    17a8:	02b51633          	mulh	a2,a0,a1
    17ac:	3cc0aa23          	sw	a2,980(ra)

000017b0 <inst_277>:
    17b0:	00200513          	li	a0,2
    17b4:	555555b7          	lui	a1,0x55555
    17b8:	55558593          	add	a1,a1,1365 # 55555555 <_end+0x55550c15>
    17bc:	02b51633          	mulh	a2,a0,a1
    17c0:	3cc0ac23          	sw	a2,984(ra)

000017c4 <inst_278>:
    17c4:	00200513          	li	a0,2
    17c8:	aaaab5b7          	lui	a1,0xaaaab
    17cc:	aaa58593          	add	a1,a1,-1366 # aaaaaaaa <_end+0xaaaa616a>
    17d0:	02b51633          	mulh	a2,a0,a1
    17d4:	3cc0ae23          	sw	a2,988(ra)

000017d8 <inst_279>:
    17d8:	00200513          	li	a0,2
    17dc:	00500593          	li	a1,5
    17e0:	02b51633          	mulh	a2,a0,a1
    17e4:	3ec0a023          	sw	a2,992(ra)

000017e8 <inst_280>:
    17e8:	00200513          	li	a0,2
    17ec:	333335b7          	lui	a1,0x33333
    17f0:	33358593          	add	a1,a1,819 # 33333333 <_end+0x3332e9f3>
    17f4:	02b51633          	mulh	a2,a0,a1
    17f8:	3ec0a223          	sw	a2,996(ra)

000017fc <inst_281>:
    17fc:	00200513          	li	a0,2
    1800:	666665b7          	lui	a1,0x66666
    1804:	66658593          	add	a1,a1,1638 # 66666666 <_end+0x66661d26>
    1808:	02b51633          	mulh	a2,a0,a1
    180c:	3ec0a423          	sw	a2,1000(ra)

00001810 <inst_282>:
    1810:	00200513          	li	a0,2
    1814:	ffff55b7          	lui	a1,0xffff5
    1818:	afc58593          	add	a1,a1,-1284 # ffff4afc <_end+0xffff01bc>
    181c:	02b51633          	mulh	a2,a0,a1
    1820:	3ec0a623          	sw	a2,1004(ra)

00001824 <inst_283>:
    1824:	00200513          	li	a0,2
    1828:	0000b5b7          	lui	a1,0xb
    182c:	50458593          	add	a1,a1,1284 # b504 <_end+0x6bc4>
    1830:	02b51633          	mulh	a2,a0,a1
    1834:	3ec0a823          	sw	a2,1008(ra)

00001838 <inst_284>:
    1838:	00200513          	li	a0,2
    183c:	00200593          	li	a1,2
    1840:	02b51633          	mulh	a2,a0,a1
    1844:	3ec0aa23          	sw	a2,1012(ra)

00001848 <inst_285>:
    1848:	00200513          	li	a0,2
    184c:	555555b7          	lui	a1,0x55555
    1850:	55458593          	add	a1,a1,1364 # 55555554 <_end+0x55550c14>
    1854:	02b51633          	mulh	a2,a0,a1
    1858:	3ec0ac23          	sw	a2,1016(ra)

0000185c <inst_286>:
    185c:	00200513          	li	a0,2
    1860:	00000593          	li	a1,0
    1864:	02b51633          	mulh	a2,a0,a1
    1868:	3ec0ae23          	sw	a2,1020(ra)

0000186c <inst_287>:
    186c:	00200513          	li	a0,2
    1870:	00400593          	li	a1,4
    1874:	02b51633          	mulh	a2,a0,a1
    1878:	40c0a023          	sw	a2,1024(ra)

0000187c <inst_288>:
    187c:	00200513          	li	a0,2
    1880:	333335b7          	lui	a1,0x33333
    1884:	33258593          	add	a1,a1,818 # 33333332 <_end+0x3332e9f2>
    1888:	02b51633          	mulh	a2,a0,a1
    188c:	40c0a223          	sw	a2,1028(ra)

00001890 <inst_289>:
    1890:	00200513          	li	a0,2
    1894:	666665b7          	lui	a1,0x66666
    1898:	66558593          	add	a1,a1,1637 # 66666665 <_end+0x66661d25>
    189c:	02b51633          	mulh	a2,a0,a1
    18a0:	40c0a423          	sw	a2,1032(ra)

000018a4 <inst_290>:
    18a4:	00200513          	li	a0,2
    18a8:	0000b5b7          	lui	a1,0xb
    18ac:	50358593          	add	a1,a1,1283 # b503 <_end+0x6bc3>
    18b0:	02b51633          	mulh	a2,a0,a1
    18b4:	40c0a623          	sw	a2,1036(ra)

000018b8 <inst_291>:
    18b8:	00200513          	li	a0,2
    18bc:	555555b7          	lui	a1,0x55555
    18c0:	55658593          	add	a1,a1,1366 # 55555556 <_end+0x55550c16>
    18c4:	02b51633          	mulh	a2,a0,a1
    18c8:	40c0a823          	sw	a2,1040(ra)

000018cc <inst_292>:
    18cc:	00200513          	li	a0,2
    18d0:	aaaab5b7          	lui	a1,0xaaaab
    18d4:	aab58593          	add	a1,a1,-1365 # aaaaaaab <_end+0xaaaa616b>
    18d8:	02b51633          	mulh	a2,a0,a1
    18dc:	40c0aa23          	sw	a2,1044(ra)

000018e0 <inst_293>:
    18e0:	00200513          	li	a0,2
    18e4:	00600593          	li	a1,6
    18e8:	02b51633          	mulh	a2,a0,a1
    18ec:	40c0ac23          	sw	a2,1048(ra)

000018f0 <inst_294>:
    18f0:	00200513          	li	a0,2
    18f4:	333335b7          	lui	a1,0x33333
    18f8:	33458593          	add	a1,a1,820 # 33333334 <_end+0x3332e9f4>
    18fc:	02b51633          	mulh	a2,a0,a1
    1900:	40c0ae23          	sw	a2,1052(ra)

00001904 <inst_295>:
    1904:	00200513          	li	a0,2
    1908:	666665b7          	lui	a1,0x66666
    190c:	66758593          	add	a1,a1,1639 # 66666667 <_end+0x66661d27>
    1910:	02b51633          	mulh	a2,a0,a1
    1914:	42c0a023          	sw	a2,1056(ra)

00001918 <inst_296>:
    1918:	00200513          	li	a0,2
    191c:	ffff55b7          	lui	a1,0xffff5
    1920:	afd58593          	add	a1,a1,-1283 # ffff4afd <_end+0xffff01bd>
    1924:	02b51633          	mulh	a2,a0,a1
    1928:	42c0a223          	sw	a2,1060(ra)

0000192c <inst_297>:
    192c:	00200513          	li	a0,2
    1930:	0000b5b7          	lui	a1,0xb
    1934:	50558593          	add	a1,a1,1285 # b505 <_end+0x6bc5>
    1938:	02b51633          	mulh	a2,a0,a1
    193c:	42c0a423          	sw	a2,1064(ra)

00001940 <inst_298>:
    1940:	55555537          	lui	a0,0x55555
    1944:	55450513          	add	a0,a0,1364 # 55555554 <_end+0x55550c14>
    1948:	00300593          	li	a1,3
    194c:	02b51633          	mulh	a2,a0,a1
    1950:	42c0a623          	sw	a2,1068(ra)

00001954 <inst_299>:
    1954:	55555537          	lui	a0,0x55555
    1958:	55450513          	add	a0,a0,1364 # 55555554 <_end+0x55550c14>
    195c:	555555b7          	lui	a1,0x55555
    1960:	55558593          	add	a1,a1,1365 # 55555555 <_end+0x55550c15>
    1964:	02b51633          	mulh	a2,a0,a1
    1968:	42c0a823          	sw	a2,1072(ra)

0000196c <inst_300>:
    196c:	55555537          	lui	a0,0x55555
    1970:	55450513          	add	a0,a0,1364 # 55555554 <_end+0x55550c14>
    1974:	aaaab5b7          	lui	a1,0xaaaab
    1978:	aaa58593          	add	a1,a1,-1366 # aaaaaaaa <_end+0xaaaa616a>
    197c:	02b51633          	mulh	a2,a0,a1
    1980:	42c0aa23          	sw	a2,1076(ra)

00001984 <inst_301>:
    1984:	55555537          	lui	a0,0x55555
    1988:	55450513          	add	a0,a0,1364 # 55555554 <_end+0x55550c14>
    198c:	00500593          	li	a1,5
    1990:	02b51633          	mulh	a2,a0,a1
    1994:	42c0ac23          	sw	a2,1080(ra)

00001998 <inst_302>:
    1998:	55555537          	lui	a0,0x55555
    199c:	55450513          	add	a0,a0,1364 # 55555554 <_end+0x55550c14>
    19a0:	333335b7          	lui	a1,0x33333
    19a4:	33358593          	add	a1,a1,819 # 33333333 <_end+0x3332e9f3>
    19a8:	02b51633          	mulh	a2,a0,a1
    19ac:	42c0ae23          	sw	a2,1084(ra)

000019b0 <inst_303>:
    19b0:	55555537          	lui	a0,0x55555
    19b4:	55450513          	add	a0,a0,1364 # 55555554 <_end+0x55550c14>
    19b8:	666665b7          	lui	a1,0x66666
    19bc:	66658593          	add	a1,a1,1638 # 66666666 <_end+0x66661d26>
    19c0:	02b51633          	mulh	a2,a0,a1
    19c4:	44c0a023          	sw	a2,1088(ra)

000019c8 <inst_304>:
    19c8:	55555537          	lui	a0,0x55555
    19cc:	55450513          	add	a0,a0,1364 # 55555554 <_end+0x55550c14>
    19d0:	ffff55b7          	lui	a1,0xffff5
    19d4:	afc58593          	add	a1,a1,-1284 # ffff4afc <_end+0xffff01bc>
    19d8:	02b51633          	mulh	a2,a0,a1
    19dc:	44c0a223          	sw	a2,1092(ra)

000019e0 <inst_305>:
    19e0:	55555537          	lui	a0,0x55555
    19e4:	55450513          	add	a0,a0,1364 # 55555554 <_end+0x55550c14>
    19e8:	0000b5b7          	lui	a1,0xb
    19ec:	50458593          	add	a1,a1,1284 # b504 <_end+0x6bc4>
    19f0:	02b51633          	mulh	a2,a0,a1
    19f4:	44c0a423          	sw	a2,1096(ra)

000019f8 <inst_306>:
    19f8:	55555537          	lui	a0,0x55555
    19fc:	55450513          	add	a0,a0,1364 # 55555554 <_end+0x55550c14>
    1a00:	00200593          	li	a1,2
    1a04:	02b51633          	mulh	a2,a0,a1
    1a08:	44c0a623          	sw	a2,1100(ra)

00001a0c <inst_307>:
    1a0c:	55555537          	lui	a0,0x55555
    1a10:	55450513          	add	a0,a0,1364 # 55555554 <_end+0x55550c14>
    1a14:	555555b7          	lui	a1,0x55555
    1a18:	55458593          	add	a1,a1,1364 # 55555554 <_end+0x55550c14>
    1a1c:	02b51633          	mulh	a2,a0,a1
    1a20:	44c0a823          	sw	a2,1104(ra)

00001a24 <inst_308>:
    1a24:	55555537          	lui	a0,0x55555
    1a28:	55450513          	add	a0,a0,1364 # 55555554 <_end+0x55550c14>
    1a2c:	00000593          	li	a1,0
    1a30:	02b51633          	mulh	a2,a0,a1
    1a34:	44c0aa23          	sw	a2,1108(ra)

00001a38 <inst_309>:
    1a38:	55555537          	lui	a0,0x55555
    1a3c:	55450513          	add	a0,a0,1364 # 55555554 <_end+0x55550c14>
    1a40:	00400593          	li	a1,4
    1a44:	02b51633          	mulh	a2,a0,a1
    1a48:	44c0ac23          	sw	a2,1112(ra)

00001a4c <inst_310>:
    1a4c:	55555537          	lui	a0,0x55555
    1a50:	55450513          	add	a0,a0,1364 # 55555554 <_end+0x55550c14>
    1a54:	333335b7          	lui	a1,0x33333
    1a58:	33258593          	add	a1,a1,818 # 33333332 <_end+0x3332e9f2>
    1a5c:	02b51633          	mulh	a2,a0,a1
    1a60:	44c0ae23          	sw	a2,1116(ra)

00001a64 <inst_311>:
    1a64:	55555537          	lui	a0,0x55555
    1a68:	55450513          	add	a0,a0,1364 # 55555554 <_end+0x55550c14>
    1a6c:	666665b7          	lui	a1,0x66666
    1a70:	66558593          	add	a1,a1,1637 # 66666665 <_end+0x66661d25>
    1a74:	02b51633          	mulh	a2,a0,a1
    1a78:	46c0a023          	sw	a2,1120(ra)

00001a7c <inst_312>:
    1a7c:	55555537          	lui	a0,0x55555
    1a80:	55450513          	add	a0,a0,1364 # 55555554 <_end+0x55550c14>
    1a84:	0000b5b7          	lui	a1,0xb
    1a88:	50358593          	add	a1,a1,1283 # b503 <_end+0x6bc3>
    1a8c:	02b51633          	mulh	a2,a0,a1
    1a90:	46c0a223          	sw	a2,1124(ra)

00001a94 <inst_313>:
    1a94:	55555537          	lui	a0,0x55555
    1a98:	55450513          	add	a0,a0,1364 # 55555554 <_end+0x55550c14>
    1a9c:	555555b7          	lui	a1,0x55555
    1aa0:	55658593          	add	a1,a1,1366 # 55555556 <_end+0x55550c16>
    1aa4:	02b51633          	mulh	a2,a0,a1
    1aa8:	46c0a423          	sw	a2,1128(ra)

00001aac <inst_314>:
    1aac:	55555537          	lui	a0,0x55555
    1ab0:	55450513          	add	a0,a0,1364 # 55555554 <_end+0x55550c14>
    1ab4:	aaaab5b7          	lui	a1,0xaaaab
    1ab8:	aab58593          	add	a1,a1,-1365 # aaaaaaab <_end+0xaaaa616b>
    1abc:	02b51633          	mulh	a2,a0,a1
    1ac0:	46c0a623          	sw	a2,1132(ra)

00001ac4 <inst_315>:
    1ac4:	55555537          	lui	a0,0x55555
    1ac8:	55450513          	add	a0,a0,1364 # 55555554 <_end+0x55550c14>
    1acc:	00600593          	li	a1,6
    1ad0:	02b51633          	mulh	a2,a0,a1
    1ad4:	46c0a823          	sw	a2,1136(ra)

00001ad8 <inst_316>:
    1ad8:	55555537          	lui	a0,0x55555
    1adc:	55450513          	add	a0,a0,1364 # 55555554 <_end+0x55550c14>
    1ae0:	333335b7          	lui	a1,0x33333
    1ae4:	33458593          	add	a1,a1,820 # 33333334 <_end+0x3332e9f4>
    1ae8:	02b51633          	mulh	a2,a0,a1
    1aec:	46c0aa23          	sw	a2,1140(ra)

00001af0 <inst_317>:
    1af0:	55555537          	lui	a0,0x55555
    1af4:	55450513          	add	a0,a0,1364 # 55555554 <_end+0x55550c14>
    1af8:	666665b7          	lui	a1,0x66666
    1afc:	66758593          	add	a1,a1,1639 # 66666667 <_end+0x66661d27>
    1b00:	02b51633          	mulh	a2,a0,a1
    1b04:	46c0ac23          	sw	a2,1144(ra)

00001b08 <inst_318>:
    1b08:	55555537          	lui	a0,0x55555
    1b0c:	55450513          	add	a0,a0,1364 # 55555554 <_end+0x55550c14>
    1b10:	ffff55b7          	lui	a1,0xffff5
    1b14:	afd58593          	add	a1,a1,-1283 # ffff4afd <_end+0xffff01bd>
    1b18:	02b51633          	mulh	a2,a0,a1
    1b1c:	46c0ae23          	sw	a2,1148(ra)

00001b20 <inst_319>:
    1b20:	55555537          	lui	a0,0x55555
    1b24:	55450513          	add	a0,a0,1364 # 55555554 <_end+0x55550c14>
    1b28:	0000b5b7          	lui	a1,0xb
    1b2c:	50558593          	add	a1,a1,1285 # b505 <_end+0x6bc5>
    1b30:	02b51633          	mulh	a2,a0,a1
    1b34:	48c0a023          	sw	a2,1152(ra)

00001b38 <inst_320>:
    1b38:	00000513          	li	a0,0
    1b3c:	00300593          	li	a1,3
    1b40:	02b51633          	mulh	a2,a0,a1
    1b44:	48c0a223          	sw	a2,1156(ra)

00001b48 <inst_321>:
    1b48:	00000513          	li	a0,0
    1b4c:	555555b7          	lui	a1,0x55555
    1b50:	55558593          	add	a1,a1,1365 # 55555555 <_end+0x55550c15>
    1b54:	02b51633          	mulh	a2,a0,a1
    1b58:	48c0a423          	sw	a2,1160(ra)

00001b5c <inst_322>:
    1b5c:	00000513          	li	a0,0
    1b60:	aaaab5b7          	lui	a1,0xaaaab
    1b64:	aaa58593          	add	a1,a1,-1366 # aaaaaaaa <_end+0xaaaa616a>
    1b68:	02b51633          	mulh	a2,a0,a1
    1b6c:	48c0a623          	sw	a2,1164(ra)

00001b70 <inst_323>:
    1b70:	00000513          	li	a0,0
    1b74:	00500593          	li	a1,5
    1b78:	02b51633          	mulh	a2,a0,a1
    1b7c:	48c0a823          	sw	a2,1168(ra)

00001b80 <inst_324>:
    1b80:	00000513          	li	a0,0
    1b84:	333335b7          	lui	a1,0x33333
    1b88:	33358593          	add	a1,a1,819 # 33333333 <_end+0x3332e9f3>
    1b8c:	02b51633          	mulh	a2,a0,a1
    1b90:	48c0aa23          	sw	a2,1172(ra)

00001b94 <inst_325>:
    1b94:	00000513          	li	a0,0
    1b98:	666665b7          	lui	a1,0x66666
    1b9c:	66658593          	add	a1,a1,1638 # 66666666 <_end+0x66661d26>
    1ba0:	02b51633          	mulh	a2,a0,a1
    1ba4:	48c0ac23          	sw	a2,1176(ra)

00001ba8 <inst_326>:
    1ba8:	aaaab537          	lui	a0,0xaaaab
    1bac:	aab50513          	add	a0,a0,-1365 # aaaaaaab <_end+0xaaaa616b>
    1bb0:	aaaab5b7          	lui	a1,0xaaaab
    1bb4:	aab58593          	add	a1,a1,-1365 # aaaaaaab <_end+0xaaaa616b>
    1bb8:	02b51633          	mulh	a2,a0,a1
    1bbc:	48c0ae23          	sw	a2,1180(ra)

00001bc0 <inst_327>:
    1bc0:	aaaab537          	lui	a0,0xaaaab
    1bc4:	aab50513          	add	a0,a0,-1365 # aaaaaaab <_end+0xaaaa616b>
    1bc8:	00600593          	li	a1,6
    1bcc:	02b51633          	mulh	a2,a0,a1
    1bd0:	4ac0a023          	sw	a2,1184(ra)

00001bd4 <inst_328>:
    1bd4:	aaaab537          	lui	a0,0xaaaab
    1bd8:	aab50513          	add	a0,a0,-1365 # aaaaaaab <_end+0xaaaa616b>
    1bdc:	333335b7          	lui	a1,0x33333
    1be0:	33458593          	add	a1,a1,820 # 33333334 <_end+0x3332e9f4>
    1be4:	02b51633          	mulh	a2,a0,a1
    1be8:	4ac0a223          	sw	a2,1188(ra)

00001bec <inst_329>:
    1bec:	aaaab537          	lui	a0,0xaaaab
    1bf0:	aab50513          	add	a0,a0,-1365 # aaaaaaab <_end+0xaaaa616b>
    1bf4:	666665b7          	lui	a1,0x66666
    1bf8:	66758593          	add	a1,a1,1639 # 66666667 <_end+0x66661d27>
    1bfc:	02b51633          	mulh	a2,a0,a1
    1c00:	4ac0a423          	sw	a2,1192(ra)

00001c04 <inst_330>:
    1c04:	aaaab537          	lui	a0,0xaaaab
    1c08:	aab50513          	add	a0,a0,-1365 # aaaaaaab <_end+0xaaaa616b>
    1c0c:	ffff55b7          	lui	a1,0xffff5
    1c10:	afd58593          	add	a1,a1,-1283 # ffff4afd <_end+0xffff01bd>
    1c14:	02b51633          	mulh	a2,a0,a1
    1c18:	4ac0a623          	sw	a2,1196(ra)

00001c1c <inst_331>:
    1c1c:	aaaab537          	lui	a0,0xaaaab
    1c20:	aab50513          	add	a0,a0,-1365 # aaaaaaab <_end+0xaaaa616b>
    1c24:	0000b5b7          	lui	a1,0xb
    1c28:	50558593          	add	a1,a1,1285 # b505 <_end+0x6bc5>
    1c2c:	02b51633          	mulh	a2,a0,a1
    1c30:	4ac0a823          	sw	a2,1200(ra)

00001c34 <inst_332>:
    1c34:	00600513          	li	a0,6
    1c38:	00300593          	li	a1,3
    1c3c:	02b51633          	mulh	a2,a0,a1
    1c40:	4ac0aa23          	sw	a2,1204(ra)

00001c44 <inst_333>:
    1c44:	00600513          	li	a0,6
    1c48:	555555b7          	lui	a1,0x55555
    1c4c:	55558593          	add	a1,a1,1365 # 55555555 <_end+0x55550c15>
    1c50:	02b51633          	mulh	a2,a0,a1
    1c54:	4ac0ac23          	sw	a2,1208(ra)

00001c58 <inst_334>:
    1c58:	00600513          	li	a0,6
    1c5c:	00500593          	li	a1,5
    1c60:	02b51633          	mulh	a2,a0,a1
    1c64:	4ac0ae23          	sw	a2,1212(ra)

00001c68 <inst_335>:
    1c68:	00600513          	li	a0,6
    1c6c:	333335b7          	lui	a1,0x33333
    1c70:	33358593          	add	a1,a1,819 # 33333333 <_end+0x3332e9f3>
    1c74:	02b51633          	mulh	a2,a0,a1
    1c78:	4cc0a023          	sw	a2,1216(ra)

00001c7c <inst_336>:
    1c7c:	00600513          	li	a0,6
    1c80:	666665b7          	lui	a1,0x66666
    1c84:	66658593          	add	a1,a1,1638 # 66666666 <_end+0x66661d26>
    1c88:	02b51633          	mulh	a2,a0,a1
    1c8c:	4cc0a223          	sw	a2,1220(ra)

00001c90 <inst_337>:
    1c90:	00600513          	li	a0,6
    1c94:	ffff55b7          	lui	a1,0xffff5
    1c98:	afc58593          	add	a1,a1,-1284 # ffff4afc <_end+0xffff01bc>
    1c9c:	02b51633          	mulh	a2,a0,a1
    1ca0:	4cc0a423          	sw	a2,1224(ra)

00001ca4 <inst_338>:
    1ca4:	00600513          	li	a0,6
    1ca8:	0000b5b7          	lui	a1,0xb
    1cac:	50458593          	add	a1,a1,1284 # b504 <_end+0x6bc4>
    1cb0:	02b51633          	mulh	a2,a0,a1
    1cb4:	4cc0a623          	sw	a2,1228(ra)

00001cb8 <inst_339>:
    1cb8:	00600513          	li	a0,6
    1cbc:	00200593          	li	a1,2
    1cc0:	02b51633          	mulh	a2,a0,a1
    1cc4:	4cc0a823          	sw	a2,1232(ra)

00001cc8 <inst_340>:
    1cc8:	00600513          	li	a0,6
    1ccc:	555555b7          	lui	a1,0x55555
    1cd0:	55458593          	add	a1,a1,1364 # 55555554 <_end+0x55550c14>
    1cd4:	02b51633          	mulh	a2,a0,a1
    1cd8:	4cc0aa23          	sw	a2,1236(ra)

00001cdc <inst_341>:
    1cdc:	00600513          	li	a0,6
    1ce0:	00000593          	li	a1,0
    1ce4:	02b51633          	mulh	a2,a0,a1
    1ce8:	4cc0ac23          	sw	a2,1240(ra)

00001cec <inst_342>:
    1cec:	00600513          	li	a0,6
    1cf0:	00400593          	li	a1,4
    1cf4:	02b51633          	mulh	a2,a0,a1
    1cf8:	4cc0ae23          	sw	a2,1244(ra)

00001cfc <inst_343>:
    1cfc:	00600513          	li	a0,6
    1d00:	333335b7          	lui	a1,0x33333
    1d04:	33258593          	add	a1,a1,818 # 33333332 <_end+0x3332e9f2>
    1d08:	02b51633          	mulh	a2,a0,a1
    1d0c:	4ec0a023          	sw	a2,1248(ra)

00001d10 <inst_344>:
    1d10:	00600513          	li	a0,6
    1d14:	666665b7          	lui	a1,0x66666
    1d18:	66558593          	add	a1,a1,1637 # 66666665 <_end+0x66661d25>
    1d1c:	02b51633          	mulh	a2,a0,a1
    1d20:	4ec0a223          	sw	a2,1252(ra)

00001d24 <inst_345>:
    1d24:	00600513          	li	a0,6
    1d28:	0000b5b7          	lui	a1,0xb
    1d2c:	50358593          	add	a1,a1,1283 # b503 <_end+0x6bc3>
    1d30:	02b51633          	mulh	a2,a0,a1
    1d34:	4ec0a423          	sw	a2,1256(ra)

00001d38 <inst_346>:
    1d38:	00600513          	li	a0,6
    1d3c:	555555b7          	lui	a1,0x55555
    1d40:	55658593          	add	a1,a1,1366 # 55555556 <_end+0x55550c16>
    1d44:	02b51633          	mulh	a2,a0,a1
    1d48:	4ec0a623          	sw	a2,1260(ra)

00001d4c <inst_347>:
    1d4c:	00600513          	li	a0,6
    1d50:	aaaab5b7          	lui	a1,0xaaaab
    1d54:	aab58593          	add	a1,a1,-1365 # aaaaaaab <_end+0xaaaa616b>
    1d58:	02b51633          	mulh	a2,a0,a1
    1d5c:	4ec0a823          	sw	a2,1264(ra)

00001d60 <inst_348>:
    1d60:	00600513          	li	a0,6
    1d64:	00600593          	li	a1,6
    1d68:	02b51633          	mulh	a2,a0,a1
    1d6c:	4ec0aa23          	sw	a2,1268(ra)

00001d70 <inst_349>:
    1d70:	00600513          	li	a0,6
    1d74:	333335b7          	lui	a1,0x33333
    1d78:	33458593          	add	a1,a1,820 # 33333334 <_end+0x3332e9f4>
    1d7c:	02b51633          	mulh	a2,a0,a1
    1d80:	4ec0ac23          	sw	a2,1272(ra)

00001d84 <inst_350>:
    1d84:	00600513          	li	a0,6
    1d88:	666665b7          	lui	a1,0x66666
    1d8c:	66758593          	add	a1,a1,1639 # 66666667 <_end+0x66661d27>
    1d90:	02b51633          	mulh	a2,a0,a1
    1d94:	4ec0ae23          	sw	a2,1276(ra)

00001d98 <inst_351>:
    1d98:	00600513          	li	a0,6
    1d9c:	ffff55b7          	lui	a1,0xffff5
    1da0:	afd58593          	add	a1,a1,-1283 # ffff4afd <_end+0xffff01bd>
    1da4:	02b51633          	mulh	a2,a0,a1
    1da8:	50c0a023          	sw	a2,1280(ra)

00001dac <inst_352>:
    1dac:	00600513          	li	a0,6
    1db0:	0000b5b7          	lui	a1,0xb
    1db4:	50558593          	add	a1,a1,1285 # b505 <_end+0x6bc5>
    1db8:	02b51633          	mulh	a2,a0,a1
    1dbc:	50c0a223          	sw	a2,1284(ra)

00001dc0 <inst_353>:
    1dc0:	33333537          	lui	a0,0x33333
    1dc4:	33450513          	add	a0,a0,820 # 33333334 <_end+0x3332e9f4>
    1dc8:	00300593          	li	a1,3
    1dcc:	02b51633          	mulh	a2,a0,a1
    1dd0:	50c0a423          	sw	a2,1288(ra)

00001dd4 <inst_354>:
    1dd4:	33333537          	lui	a0,0x33333
    1dd8:	33450513          	add	a0,a0,820 # 33333334 <_end+0x3332e9f4>
    1ddc:	555555b7          	lui	a1,0x55555
    1de0:	55558593          	add	a1,a1,1365 # 55555555 <_end+0x55550c15>
    1de4:	02b51633          	mulh	a2,a0,a1
    1de8:	50c0a623          	sw	a2,1292(ra)

00001dec <inst_355>:
    1dec:	33333537          	lui	a0,0x33333
    1df0:	33450513          	add	a0,a0,820 # 33333334 <_end+0x3332e9f4>
    1df4:	aaaab5b7          	lui	a1,0xaaaab
    1df8:	aaa58593          	add	a1,a1,-1366 # aaaaaaaa <_end+0xaaaa616a>
    1dfc:	02b51633          	mulh	a2,a0,a1
    1e00:	50c0a823          	sw	a2,1296(ra)

00001e04 <inst_356>:
    1e04:	33333537          	lui	a0,0x33333
    1e08:	33450513          	add	a0,a0,820 # 33333334 <_end+0x3332e9f4>
    1e0c:	00500593          	li	a1,5
    1e10:	02b51633          	mulh	a2,a0,a1
    1e14:	50c0aa23          	sw	a2,1300(ra)

00001e18 <inst_357>:
    1e18:	33333537          	lui	a0,0x33333
    1e1c:	33450513          	add	a0,a0,820 # 33333334 <_end+0x3332e9f4>
    1e20:	333335b7          	lui	a1,0x33333
    1e24:	33358593          	add	a1,a1,819 # 33333333 <_end+0x3332e9f3>
    1e28:	02b51633          	mulh	a2,a0,a1
    1e2c:	50c0ac23          	sw	a2,1304(ra)

00001e30 <inst_358>:
    1e30:	33333537          	lui	a0,0x33333
    1e34:	33450513          	add	a0,a0,820 # 33333334 <_end+0x3332e9f4>
    1e38:	666665b7          	lui	a1,0x66666
    1e3c:	66658593          	add	a1,a1,1638 # 66666666 <_end+0x66661d26>
    1e40:	02b51633          	mulh	a2,a0,a1
    1e44:	50c0ae23          	sw	a2,1308(ra)

00001e48 <inst_359>:
    1e48:	33333537          	lui	a0,0x33333
    1e4c:	33450513          	add	a0,a0,820 # 33333334 <_end+0x3332e9f4>
    1e50:	ffff55b7          	lui	a1,0xffff5
    1e54:	afc58593          	add	a1,a1,-1284 # ffff4afc <_end+0xffff01bc>
    1e58:	02b51633          	mulh	a2,a0,a1
    1e5c:	52c0a023          	sw	a2,1312(ra)

00001e60 <inst_360>:
    1e60:	33333537          	lui	a0,0x33333
    1e64:	33450513          	add	a0,a0,820 # 33333334 <_end+0x3332e9f4>
    1e68:	0000b5b7          	lui	a1,0xb
    1e6c:	50458593          	add	a1,a1,1284 # b504 <_end+0x6bc4>
    1e70:	02b51633          	mulh	a2,a0,a1
    1e74:	52c0a223          	sw	a2,1316(ra)

00001e78 <inst_361>:
    1e78:	33333537          	lui	a0,0x33333
    1e7c:	33450513          	add	a0,a0,820 # 33333334 <_end+0x3332e9f4>
    1e80:	00200593          	li	a1,2
    1e84:	02b51633          	mulh	a2,a0,a1
    1e88:	52c0a423          	sw	a2,1320(ra)

00001e8c <inst_362>:
    1e8c:	33333537          	lui	a0,0x33333
    1e90:	33450513          	add	a0,a0,820 # 33333334 <_end+0x3332e9f4>
    1e94:	555555b7          	lui	a1,0x55555
    1e98:	55458593          	add	a1,a1,1364 # 55555554 <_end+0x55550c14>
    1e9c:	02b51633          	mulh	a2,a0,a1
    1ea0:	52c0a623          	sw	a2,1324(ra)

00001ea4 <inst_363>:
    1ea4:	33333537          	lui	a0,0x33333
    1ea8:	33450513          	add	a0,a0,820 # 33333334 <_end+0x3332e9f4>
    1eac:	00000593          	li	a1,0
    1eb0:	02b51633          	mulh	a2,a0,a1
    1eb4:	52c0a823          	sw	a2,1328(ra)

00001eb8 <inst_364>:
    1eb8:	33333537          	lui	a0,0x33333
    1ebc:	33450513          	add	a0,a0,820 # 33333334 <_end+0x3332e9f4>
    1ec0:	00400593          	li	a1,4
    1ec4:	02b51633          	mulh	a2,a0,a1
    1ec8:	52c0aa23          	sw	a2,1332(ra)

00001ecc <inst_365>:
    1ecc:	33333537          	lui	a0,0x33333
    1ed0:	33450513          	add	a0,a0,820 # 33333334 <_end+0x3332e9f4>
    1ed4:	333335b7          	lui	a1,0x33333
    1ed8:	33258593          	add	a1,a1,818 # 33333332 <_end+0x3332e9f2>
    1edc:	02b51633          	mulh	a2,a0,a1
    1ee0:	52c0ac23          	sw	a2,1336(ra)

00001ee4 <inst_366>:
    1ee4:	33333537          	lui	a0,0x33333
    1ee8:	33450513          	add	a0,a0,820 # 33333334 <_end+0x3332e9f4>
    1eec:	666665b7          	lui	a1,0x66666
    1ef0:	66558593          	add	a1,a1,1637 # 66666665 <_end+0x66661d25>
    1ef4:	02b51633          	mulh	a2,a0,a1
    1ef8:	52c0ae23          	sw	a2,1340(ra)

00001efc <inst_367>:
    1efc:	33333537          	lui	a0,0x33333
    1f00:	33450513          	add	a0,a0,820 # 33333334 <_end+0x3332e9f4>
    1f04:	0000b5b7          	lui	a1,0xb
    1f08:	50358593          	add	a1,a1,1283 # b503 <_end+0x6bc3>
    1f0c:	02b51633          	mulh	a2,a0,a1
    1f10:	54c0a023          	sw	a2,1344(ra)

00001f14 <inst_368>:
    1f14:	33333537          	lui	a0,0x33333
    1f18:	33450513          	add	a0,a0,820 # 33333334 <_end+0x3332e9f4>
    1f1c:	555555b7          	lui	a1,0x55555
    1f20:	55658593          	add	a1,a1,1366 # 55555556 <_end+0x55550c16>
    1f24:	02b51633          	mulh	a2,a0,a1
    1f28:	54c0a223          	sw	a2,1348(ra)

00001f2c <inst_369>:
    1f2c:	33333537          	lui	a0,0x33333
    1f30:	33450513          	add	a0,a0,820 # 33333334 <_end+0x3332e9f4>
    1f34:	aaaab5b7          	lui	a1,0xaaaab
    1f38:	aab58593          	add	a1,a1,-1365 # aaaaaaab <_end+0xaaaa616b>
    1f3c:	02b51633          	mulh	a2,a0,a1
    1f40:	54c0a423          	sw	a2,1352(ra)

00001f44 <inst_370>:
    1f44:	33333537          	lui	a0,0x33333
    1f48:	33450513          	add	a0,a0,820 # 33333334 <_end+0x3332e9f4>
    1f4c:	00600593          	li	a1,6
    1f50:	02b51633          	mulh	a2,a0,a1
    1f54:	54c0a623          	sw	a2,1356(ra)

00001f58 <inst_371>:
    1f58:	33333537          	lui	a0,0x33333
    1f5c:	33450513          	add	a0,a0,820 # 33333334 <_end+0x3332e9f4>
    1f60:	333335b7          	lui	a1,0x33333
    1f64:	33458593          	add	a1,a1,820 # 33333334 <_end+0x3332e9f4>
    1f68:	02b51633          	mulh	a2,a0,a1
    1f6c:	54c0a823          	sw	a2,1360(ra)

00001f70 <inst_372>:
    1f70:	33333537          	lui	a0,0x33333
    1f74:	33450513          	add	a0,a0,820 # 33333334 <_end+0x3332e9f4>
    1f78:	666665b7          	lui	a1,0x66666
    1f7c:	66758593          	add	a1,a1,1639 # 66666667 <_end+0x66661d27>
    1f80:	02b51633          	mulh	a2,a0,a1
    1f84:	54c0aa23          	sw	a2,1364(ra)

00001f88 <inst_373>:
    1f88:	33333537          	lui	a0,0x33333
    1f8c:	33450513          	add	a0,a0,820 # 33333334 <_end+0x3332e9f4>
    1f90:	ffff55b7          	lui	a1,0xffff5
    1f94:	afd58593          	add	a1,a1,-1283 # ffff4afd <_end+0xffff01bd>
    1f98:	02b51633          	mulh	a2,a0,a1
    1f9c:	54c0ac23          	sw	a2,1368(ra)

00001fa0 <inst_374>:
    1fa0:	33333537          	lui	a0,0x33333
    1fa4:	33450513          	add	a0,a0,820 # 33333334 <_end+0x3332e9f4>
    1fa8:	0000b5b7          	lui	a1,0xb
    1fac:	50558593          	add	a1,a1,1285 # b505 <_end+0x6bc5>
    1fb0:	02b51633          	mulh	a2,a0,a1
    1fb4:	54c0ae23          	sw	a2,1372(ra)

00001fb8 <inst_375>:
    1fb8:	66666537          	lui	a0,0x66666
    1fbc:	66750513          	add	a0,a0,1639 # 66666667 <_end+0x66661d27>
    1fc0:	00300593          	li	a1,3
    1fc4:	02b51633          	mulh	a2,a0,a1
    1fc8:	56c0a023          	sw	a2,1376(ra)

00001fcc <inst_376>:
    1fcc:	66666537          	lui	a0,0x66666
    1fd0:	66750513          	add	a0,a0,1639 # 66666667 <_end+0x66661d27>
    1fd4:	555555b7          	lui	a1,0x55555
    1fd8:	55558593          	add	a1,a1,1365 # 55555555 <_end+0x55550c15>
    1fdc:	02b51633          	mulh	a2,a0,a1
    1fe0:	56c0a223          	sw	a2,1380(ra)

00001fe4 <inst_377>:
    1fe4:	66666537          	lui	a0,0x66666
    1fe8:	66750513          	add	a0,a0,1639 # 66666667 <_end+0x66661d27>
    1fec:	aaaab5b7          	lui	a1,0xaaaab
    1ff0:	aaa58593          	add	a1,a1,-1366 # aaaaaaaa <_end+0xaaaa616a>
    1ff4:	02b51633          	mulh	a2,a0,a1
    1ff8:	56c0a423          	sw	a2,1384(ra)

00001ffc <inst_378>:
    1ffc:	66666537          	lui	a0,0x66666
    2000:	66750513          	add	a0,a0,1639 # 66666667 <_end+0x66661d27>
    2004:	00500593          	li	a1,5
    2008:	02b51633          	mulh	a2,a0,a1
    200c:	56c0a623          	sw	a2,1388(ra)

00002010 <inst_379>:
    2010:	66666537          	lui	a0,0x66666
    2014:	66750513          	add	a0,a0,1639 # 66666667 <_end+0x66661d27>
    2018:	333335b7          	lui	a1,0x33333
    201c:	33358593          	add	a1,a1,819 # 33333333 <_end+0x3332e9f3>
    2020:	02b51633          	mulh	a2,a0,a1
    2024:	56c0a823          	sw	a2,1392(ra)

00002028 <inst_380>:
    2028:	66666537          	lui	a0,0x66666
    202c:	66750513          	add	a0,a0,1639 # 66666667 <_end+0x66661d27>
    2030:	666665b7          	lui	a1,0x66666
    2034:	66658593          	add	a1,a1,1638 # 66666666 <_end+0x66661d26>
    2038:	02b51633          	mulh	a2,a0,a1
    203c:	56c0aa23          	sw	a2,1396(ra)

00002040 <inst_381>:
    2040:	66666537          	lui	a0,0x66666
    2044:	66750513          	add	a0,a0,1639 # 66666667 <_end+0x66661d27>
    2048:	ffff55b7          	lui	a1,0xffff5
    204c:	afc58593          	add	a1,a1,-1284 # ffff4afc <_end+0xffff01bc>
    2050:	02b51633          	mulh	a2,a0,a1
    2054:	56c0ac23          	sw	a2,1400(ra)

00002058 <inst_382>:
    2058:	66666537          	lui	a0,0x66666
    205c:	66750513          	add	a0,a0,1639 # 66666667 <_end+0x66661d27>
    2060:	0000b5b7          	lui	a1,0xb
    2064:	50458593          	add	a1,a1,1284 # b504 <_end+0x6bc4>
    2068:	02b51633          	mulh	a2,a0,a1
    206c:	56c0ae23          	sw	a2,1404(ra)

00002070 <inst_383>:
    2070:	66666537          	lui	a0,0x66666
    2074:	66750513          	add	a0,a0,1639 # 66666667 <_end+0x66661d27>
    2078:	555555b7          	lui	a1,0x55555
    207c:	55458593          	add	a1,a1,1364 # 55555554 <_end+0x55550c14>
    2080:	02b51633          	mulh	a2,a0,a1
    2084:	58c0a023          	sw	a2,1408(ra)

00002088 <inst_384>:
    2088:	66666537          	lui	a0,0x66666
    208c:	66750513          	add	a0,a0,1639 # 66666667 <_end+0x66661d27>
    2090:	00000593          	li	a1,0
    2094:	02b51633          	mulh	a2,a0,a1
    2098:	58c0a223          	sw	a2,1412(ra)

0000209c <inst_385>:
    209c:	66666537          	lui	a0,0x66666
    20a0:	66750513          	add	a0,a0,1639 # 66666667 <_end+0x66661d27>
    20a4:	00400593          	li	a1,4
    20a8:	02b51633          	mulh	a2,a0,a1
    20ac:	58c0a423          	sw	a2,1416(ra)

000020b0 <inst_386>:
    20b0:	66666537          	lui	a0,0x66666
    20b4:	66750513          	add	a0,a0,1639 # 66666667 <_end+0x66661d27>
    20b8:	333335b7          	lui	a1,0x33333
    20bc:	33258593          	add	a1,a1,818 # 33333332 <_end+0x3332e9f2>
    20c0:	02b51633          	mulh	a2,a0,a1
    20c4:	58c0a623          	sw	a2,1420(ra)

000020c8 <inst_387>:
    20c8:	66666537          	lui	a0,0x66666
    20cc:	66750513          	add	a0,a0,1639 # 66666667 <_end+0x66661d27>
    20d0:	666665b7          	lui	a1,0x66666
    20d4:	66558593          	add	a1,a1,1637 # 66666665 <_end+0x66661d25>
    20d8:	02b51633          	mulh	a2,a0,a1
    20dc:	58c0a823          	sw	a2,1424(ra)

000020e0 <inst_388>:
    20e0:	66666537          	lui	a0,0x66666
    20e4:	66750513          	add	a0,a0,1639 # 66666667 <_end+0x66661d27>
    20e8:	0000b5b7          	lui	a1,0xb
    20ec:	50358593          	add	a1,a1,1283 # b503 <_end+0x6bc3>
    20f0:	02b51633          	mulh	a2,a0,a1
    20f4:	58c0aa23          	sw	a2,1428(ra)

000020f8 <inst_389>:
    20f8:	66666537          	lui	a0,0x66666
    20fc:	66750513          	add	a0,a0,1639 # 66666667 <_end+0x66661d27>
    2100:	555555b7          	lui	a1,0x55555
    2104:	55658593          	add	a1,a1,1366 # 55555556 <_end+0x55550c16>
    2108:	02b51633          	mulh	a2,a0,a1
    210c:	58c0ac23          	sw	a2,1432(ra)

00002110 <inst_390>:
    2110:	66666537          	lui	a0,0x66666
    2114:	66750513          	add	a0,a0,1639 # 66666667 <_end+0x66661d27>
    2118:	aaaab5b7          	lui	a1,0xaaaab
    211c:	aab58593          	add	a1,a1,-1365 # aaaaaaab <_end+0xaaaa616b>
    2120:	02b51633          	mulh	a2,a0,a1
    2124:	58c0ae23          	sw	a2,1436(ra)

00002128 <inst_391>:
    2128:	66666537          	lui	a0,0x66666
    212c:	66750513          	add	a0,a0,1639 # 66666667 <_end+0x66661d27>
    2130:	00600593          	li	a1,6
    2134:	02b51633          	mulh	a2,a0,a1
    2138:	5ac0a023          	sw	a2,1440(ra)

0000213c <inst_392>:
    213c:	66666537          	lui	a0,0x66666
    2140:	66750513          	add	a0,a0,1639 # 66666667 <_end+0x66661d27>
    2144:	333335b7          	lui	a1,0x33333
    2148:	33458593          	add	a1,a1,820 # 33333334 <_end+0x3332e9f4>
    214c:	02b51633          	mulh	a2,a0,a1
    2150:	5ac0a223          	sw	a2,1444(ra)

00002154 <inst_393>:
    2154:	66666537          	lui	a0,0x66666
    2158:	66750513          	add	a0,a0,1639 # 66666667 <_end+0x66661d27>
    215c:	666665b7          	lui	a1,0x66666
    2160:	66758593          	add	a1,a1,1639 # 66666667 <_end+0x66661d27>
    2164:	02b51633          	mulh	a2,a0,a1
    2168:	5ac0a423          	sw	a2,1448(ra)

0000216c <inst_394>:
    216c:	66666537          	lui	a0,0x66666
    2170:	66750513          	add	a0,a0,1639 # 66666667 <_end+0x66661d27>
    2174:	ffff55b7          	lui	a1,0xffff5
    2178:	afd58593          	add	a1,a1,-1283 # ffff4afd <_end+0xffff01bd>
    217c:	02b51633          	mulh	a2,a0,a1
    2180:	5ac0a623          	sw	a2,1452(ra)

00002184 <inst_395>:
    2184:	66666537          	lui	a0,0x66666
    2188:	66750513          	add	a0,a0,1639 # 66666667 <_end+0x66661d27>
    218c:	0000b5b7          	lui	a1,0xb
    2190:	50558593          	add	a1,a1,1285 # b505 <_end+0x6bc5>
    2194:	02b51633          	mulh	a2,a0,a1
    2198:	5ac0a823          	sw	a2,1456(ra)

0000219c <inst_396>:
    219c:	ffff5537          	lui	a0,0xffff5
    21a0:	afd50513          	add	a0,a0,-1283 # ffff4afd <_end+0xffff01bd>
    21a4:	00300593          	li	a1,3
    21a8:	02b51633          	mulh	a2,a0,a1
    21ac:	5ac0aa23          	sw	a2,1460(ra)

000021b0 <inst_397>:
    21b0:	ffff5537          	lui	a0,0xffff5
    21b4:	afd50513          	add	a0,a0,-1283 # ffff4afd <_end+0xffff01bd>
    21b8:	555555b7          	lui	a1,0x55555
    21bc:	55558593          	add	a1,a1,1365 # 55555555 <_end+0x55550c15>
    21c0:	02b51633          	mulh	a2,a0,a1
    21c4:	5ac0ac23          	sw	a2,1464(ra)

000021c8 <inst_398>:
    21c8:	ffff5537          	lui	a0,0xffff5
    21cc:	afd50513          	add	a0,a0,-1283 # ffff4afd <_end+0xffff01bd>
    21d0:	aaaab5b7          	lui	a1,0xaaaab
    21d4:	aaa58593          	add	a1,a1,-1366 # aaaaaaaa <_end+0xaaaa616a>
    21d8:	02b51633          	mulh	a2,a0,a1
    21dc:	5ac0ae23          	sw	a2,1468(ra)

000021e0 <inst_399>:
    21e0:	ffff5537          	lui	a0,0xffff5
    21e4:	afd50513          	add	a0,a0,-1283 # ffff4afd <_end+0xffff01bd>
    21e8:	00500593          	li	a1,5
    21ec:	02b51633          	mulh	a2,a0,a1
    21f0:	5cc0a023          	sw	a2,1472(ra)

000021f4 <inst_400>:
    21f4:	ffff5537          	lui	a0,0xffff5
    21f8:	afd50513          	add	a0,a0,-1283 # ffff4afd <_end+0xffff01bd>
    21fc:	333335b7          	lui	a1,0x33333
    2200:	33358593          	add	a1,a1,819 # 33333333 <_end+0x3332e9f3>
    2204:	02b51633          	mulh	a2,a0,a1
    2208:	5cc0a223          	sw	a2,1476(ra)

0000220c <inst_401>:
    220c:	ffff5537          	lui	a0,0xffff5
    2210:	afd50513          	add	a0,a0,-1283 # ffff4afd <_end+0xffff01bd>
    2214:	666665b7          	lui	a1,0x66666
    2218:	66658593          	add	a1,a1,1638 # 66666666 <_end+0x66661d26>
    221c:	02b51633          	mulh	a2,a0,a1
    2220:	5cc0a423          	sw	a2,1480(ra)

00002224 <inst_402>:
    2224:	ffff5537          	lui	a0,0xffff5
    2228:	afd50513          	add	a0,a0,-1283 # ffff4afd <_end+0xffff01bd>
    222c:	ffff55b7          	lui	a1,0xffff5
    2230:	afc58593          	add	a1,a1,-1284 # ffff4afc <_end+0xffff01bc>
    2234:	02b51633          	mulh	a2,a0,a1
    2238:	5cc0a623          	sw	a2,1484(ra)

0000223c <inst_403>:
    223c:	ffff5537          	lui	a0,0xffff5
    2240:	afd50513          	add	a0,a0,-1283 # ffff4afd <_end+0xffff01bd>
    2244:	0000b5b7          	lui	a1,0xb
    2248:	50458593          	add	a1,a1,1284 # b504 <_end+0x6bc4>
    224c:	02b51633          	mulh	a2,a0,a1
    2250:	5cc0a823          	sw	a2,1488(ra)

00002254 <inst_404>:
    2254:	ffff5537          	lui	a0,0xffff5
    2258:	afd50513          	add	a0,a0,-1283 # ffff4afd <_end+0xffff01bd>
    225c:	00200593          	li	a1,2
    2260:	02b51633          	mulh	a2,a0,a1
    2264:	5cc0aa23          	sw	a2,1492(ra)

00002268 <inst_405>:
    2268:	ffff5537          	lui	a0,0xffff5
    226c:	afd50513          	add	a0,a0,-1283 # ffff4afd <_end+0xffff01bd>
    2270:	555555b7          	lui	a1,0x55555
    2274:	55458593          	add	a1,a1,1364 # 55555554 <_end+0x55550c14>
    2278:	02b51633          	mulh	a2,a0,a1
    227c:	5cc0ac23          	sw	a2,1496(ra)

00002280 <inst_406>:
    2280:	ffff5537          	lui	a0,0xffff5
    2284:	afd50513          	add	a0,a0,-1283 # ffff4afd <_end+0xffff01bd>
    2288:	00000593          	li	a1,0
    228c:	02b51633          	mulh	a2,a0,a1
    2290:	5cc0ae23          	sw	a2,1500(ra)

00002294 <inst_407>:
    2294:	ffff5537          	lui	a0,0xffff5
    2298:	afd50513          	add	a0,a0,-1283 # ffff4afd <_end+0xffff01bd>
    229c:	00400593          	li	a1,4
    22a0:	02b51633          	mulh	a2,a0,a1
    22a4:	5ec0a023          	sw	a2,1504(ra)

000022a8 <inst_408>:
    22a8:	ffff5537          	lui	a0,0xffff5
    22ac:	afd50513          	add	a0,a0,-1283 # ffff4afd <_end+0xffff01bd>
    22b0:	333335b7          	lui	a1,0x33333
    22b4:	33258593          	add	a1,a1,818 # 33333332 <_end+0x3332e9f2>
    22b8:	02b51633          	mulh	a2,a0,a1
    22bc:	5ec0a223          	sw	a2,1508(ra)

000022c0 <inst_409>:
    22c0:	ffff5537          	lui	a0,0xffff5
    22c4:	afd50513          	add	a0,a0,-1283 # ffff4afd <_end+0xffff01bd>
    22c8:	666665b7          	lui	a1,0x66666
    22cc:	66558593          	add	a1,a1,1637 # 66666665 <_end+0x66661d25>
    22d0:	02b51633          	mulh	a2,a0,a1
    22d4:	5ec0a423          	sw	a2,1512(ra)

000022d8 <inst_410>:
    22d8:	ffff5537          	lui	a0,0xffff5
    22dc:	afd50513          	add	a0,a0,-1283 # ffff4afd <_end+0xffff01bd>
    22e0:	0000b5b7          	lui	a1,0xb
    22e4:	50358593          	add	a1,a1,1283 # b503 <_end+0x6bc3>
    22e8:	02b51633          	mulh	a2,a0,a1
    22ec:	5ec0a623          	sw	a2,1516(ra)

000022f0 <inst_411>:
    22f0:	ffff5537          	lui	a0,0xffff5
    22f4:	afd50513          	add	a0,a0,-1283 # ffff4afd <_end+0xffff01bd>
    22f8:	555555b7          	lui	a1,0x55555
    22fc:	55658593          	add	a1,a1,1366 # 55555556 <_end+0x55550c16>
    2300:	02b51633          	mulh	a2,a0,a1
    2304:	5ec0a823          	sw	a2,1520(ra)

00002308 <inst_412>:
    2308:	ffff5537          	lui	a0,0xffff5
    230c:	afd50513          	add	a0,a0,-1283 # ffff4afd <_end+0xffff01bd>
    2310:	aaaab5b7          	lui	a1,0xaaaab
    2314:	aab58593          	add	a1,a1,-1365 # aaaaaaab <_end+0xaaaa616b>
    2318:	02b51633          	mulh	a2,a0,a1
    231c:	5ec0aa23          	sw	a2,1524(ra)

00002320 <inst_413>:
    2320:	ffff5537          	lui	a0,0xffff5
    2324:	afd50513          	add	a0,a0,-1283 # ffff4afd <_end+0xffff01bd>
    2328:	00600593          	li	a1,6
    232c:	02b51633          	mulh	a2,a0,a1
    2330:	5ec0ac23          	sw	a2,1528(ra)

00002334 <inst_414>:
    2334:	ffff5537          	lui	a0,0xffff5
    2338:	afd50513          	add	a0,a0,-1283 # ffff4afd <_end+0xffff01bd>
    233c:	333335b7          	lui	a1,0x33333
    2340:	33458593          	add	a1,a1,820 # 33333334 <_end+0x3332e9f4>
    2344:	02b51633          	mulh	a2,a0,a1
    2348:	5ec0ae23          	sw	a2,1532(ra)

0000234c <inst_415>:
    234c:	ffff5537          	lui	a0,0xffff5
    2350:	afd50513          	add	a0,a0,-1283 # ffff4afd <_end+0xffff01bd>
    2354:	666665b7          	lui	a1,0x66666
    2358:	66758593          	add	a1,a1,1639 # 66666667 <_end+0x66661d27>
    235c:	02b51633          	mulh	a2,a0,a1
    2360:	60c0a023          	sw	a2,1536(ra)

00002364 <inst_416>:
    2364:	ffff5537          	lui	a0,0xffff5
    2368:	afd50513          	add	a0,a0,-1283 # ffff4afd <_end+0xffff01bd>
    236c:	ffff55b7          	lui	a1,0xffff5
    2370:	afd58593          	add	a1,a1,-1283 # ffff4afd <_end+0xffff01bd>
    2374:	02b51633          	mulh	a2,a0,a1
    2378:	60c0a223          	sw	a2,1540(ra)

0000237c <inst_417>:
    237c:	ffff5537          	lui	a0,0xffff5
    2380:	afd50513          	add	a0,a0,-1283 # ffff4afd <_end+0xffff01bd>
    2384:	0000b5b7          	lui	a1,0xb
    2388:	50558593          	add	a1,a1,1285 # b505 <_end+0x6bc5>
    238c:	02b51633          	mulh	a2,a0,a1
    2390:	60c0a423          	sw	a2,1544(ra)

00002394 <inst_418>:
    2394:	0000b537          	lui	a0,0xb
    2398:	50550513          	add	a0,a0,1285 # b505 <_end+0x6bc5>
    239c:	00300593          	li	a1,3
    23a0:	02b51633          	mulh	a2,a0,a1
    23a4:	60c0a623          	sw	a2,1548(ra)

000023a8 <inst_419>:
    23a8:	0000b537          	lui	a0,0xb
    23ac:	50550513          	add	a0,a0,1285 # b505 <_end+0x6bc5>
    23b0:	555555b7          	lui	a1,0x55555
    23b4:	55558593          	add	a1,a1,1365 # 55555555 <_end+0x55550c15>
    23b8:	02b51633          	mulh	a2,a0,a1
    23bc:	60c0a823          	sw	a2,1552(ra)

000023c0 <inst_420>:
    23c0:	0000b537          	lui	a0,0xb
    23c4:	50550513          	add	a0,a0,1285 # b505 <_end+0x6bc5>
    23c8:	aaaab5b7          	lui	a1,0xaaaab
    23cc:	aaa58593          	add	a1,a1,-1366 # aaaaaaaa <_end+0xaaaa616a>
    23d0:	02b51633          	mulh	a2,a0,a1
    23d4:	60c0aa23          	sw	a2,1556(ra)

000023d8 <inst_421>:
    23d8:	0000b537          	lui	a0,0xb
    23dc:	50550513          	add	a0,a0,1285 # b505 <_end+0x6bc5>
    23e0:	00500593          	li	a1,5
    23e4:	02b51633          	mulh	a2,a0,a1
    23e8:	60c0ac23          	sw	a2,1560(ra)

000023ec <inst_422>:
    23ec:	0000b537          	lui	a0,0xb
    23f0:	50550513          	add	a0,a0,1285 # b505 <_end+0x6bc5>
    23f4:	333335b7          	lui	a1,0x33333
    23f8:	33358593          	add	a1,a1,819 # 33333333 <_end+0x3332e9f3>
    23fc:	02b51633          	mulh	a2,a0,a1
    2400:	60c0ae23          	sw	a2,1564(ra)

00002404 <inst_423>:
    2404:	0000b537          	lui	a0,0xb
    2408:	50550513          	add	a0,a0,1285 # b505 <_end+0x6bc5>
    240c:	666665b7          	lui	a1,0x66666
    2410:	66658593          	add	a1,a1,1638 # 66666666 <_end+0x66661d26>
    2414:	02b51633          	mulh	a2,a0,a1
    2418:	62c0a023          	sw	a2,1568(ra)

0000241c <inst_424>:
    241c:	0000b537          	lui	a0,0xb
    2420:	50550513          	add	a0,a0,1285 # b505 <_end+0x6bc5>
    2424:	ffff55b7          	lui	a1,0xffff5
    2428:	afc58593          	add	a1,a1,-1284 # ffff4afc <_end+0xffff01bc>
    242c:	02b51633          	mulh	a2,a0,a1
    2430:	62c0a223          	sw	a2,1572(ra)

00002434 <inst_425>:
    2434:	0000b537          	lui	a0,0xb
    2438:	50550513          	add	a0,a0,1285 # b505 <_end+0x6bc5>
    243c:	0000b5b7          	lui	a1,0xb
    2440:	50458593          	add	a1,a1,1284 # b504 <_end+0x6bc4>
    2444:	02b51633          	mulh	a2,a0,a1
    2448:	62c0a423          	sw	a2,1576(ra)

0000244c <inst_426>:
    244c:	0000b537          	lui	a0,0xb
    2450:	50550513          	add	a0,a0,1285 # b505 <_end+0x6bc5>
    2454:	00200593          	li	a1,2
    2458:	02b51633          	mulh	a2,a0,a1
    245c:	62c0a623          	sw	a2,1580(ra)

00002460 <inst_427>:
    2460:	0000b537          	lui	a0,0xb
    2464:	50550513          	add	a0,a0,1285 # b505 <_end+0x6bc5>
    2468:	555555b7          	lui	a1,0x55555
    246c:	55458593          	add	a1,a1,1364 # 55555554 <_end+0x55550c14>
    2470:	02b51633          	mulh	a2,a0,a1
    2474:	62c0a823          	sw	a2,1584(ra)

00002478 <inst_428>:
    2478:	0000b537          	lui	a0,0xb
    247c:	50550513          	add	a0,a0,1285 # b505 <_end+0x6bc5>
    2480:	00000593          	li	a1,0
    2484:	02b51633          	mulh	a2,a0,a1
    2488:	62c0aa23          	sw	a2,1588(ra)

0000248c <inst_429>:
    248c:	0000b537          	lui	a0,0xb
    2490:	50550513          	add	a0,a0,1285 # b505 <_end+0x6bc5>
    2494:	00400593          	li	a1,4
    2498:	02b51633          	mulh	a2,a0,a1
    249c:	62c0ac23          	sw	a2,1592(ra)

000024a0 <inst_430>:
    24a0:	0000b537          	lui	a0,0xb
    24a4:	50550513          	add	a0,a0,1285 # b505 <_end+0x6bc5>
    24a8:	333335b7          	lui	a1,0x33333
    24ac:	33258593          	add	a1,a1,818 # 33333332 <_end+0x3332e9f2>
    24b0:	02b51633          	mulh	a2,a0,a1
    24b4:	62c0ae23          	sw	a2,1596(ra)

000024b8 <inst_431>:
    24b8:	0000b537          	lui	a0,0xb
    24bc:	50550513          	add	a0,a0,1285 # b505 <_end+0x6bc5>
    24c0:	666665b7          	lui	a1,0x66666
    24c4:	66558593          	add	a1,a1,1637 # 66666665 <_end+0x66661d25>
    24c8:	02b51633          	mulh	a2,a0,a1
    24cc:	64c0a023          	sw	a2,1600(ra)

000024d0 <inst_432>:
    24d0:	0000b537          	lui	a0,0xb
    24d4:	50550513          	add	a0,a0,1285 # b505 <_end+0x6bc5>
    24d8:	0000b5b7          	lui	a1,0xb
    24dc:	50358593          	add	a1,a1,1283 # b503 <_end+0x6bc3>
    24e0:	02b51633          	mulh	a2,a0,a1
    24e4:	64c0a223          	sw	a2,1604(ra)

000024e8 <inst_433>:
    24e8:	0000b537          	lui	a0,0xb
    24ec:	50550513          	add	a0,a0,1285 # b505 <_end+0x6bc5>
    24f0:	555555b7          	lui	a1,0x55555
    24f4:	55658593          	add	a1,a1,1366 # 55555556 <_end+0x55550c16>
    24f8:	02b51633          	mulh	a2,a0,a1
    24fc:	64c0a423          	sw	a2,1608(ra)

00002500 <inst_434>:
    2500:	0000b537          	lui	a0,0xb
    2504:	50550513          	add	a0,a0,1285 # b505 <_end+0x6bc5>
    2508:	aaaab5b7          	lui	a1,0xaaaab
    250c:	aab58593          	add	a1,a1,-1365 # aaaaaaab <_end+0xaaaa616b>
    2510:	02b51633          	mulh	a2,a0,a1
    2514:	64c0a623          	sw	a2,1612(ra)

00002518 <inst_435>:
    2518:	0000b537          	lui	a0,0xb
    251c:	50550513          	add	a0,a0,1285 # b505 <_end+0x6bc5>
    2520:	00600593          	li	a1,6
    2524:	02b51633          	mulh	a2,a0,a1
    2528:	64c0a823          	sw	a2,1616(ra)

0000252c <inst_436>:
    252c:	0000b537          	lui	a0,0xb
    2530:	50550513          	add	a0,a0,1285 # b505 <_end+0x6bc5>
    2534:	333335b7          	lui	a1,0x33333
    2538:	33458593          	add	a1,a1,820 # 33333334 <_end+0x3332e9f4>
    253c:	02b51633          	mulh	a2,a0,a1
    2540:	64c0aa23          	sw	a2,1620(ra)

00002544 <inst_437>:
    2544:	0000b537          	lui	a0,0xb
    2548:	50550513          	add	a0,a0,1285 # b505 <_end+0x6bc5>
    254c:	666665b7          	lui	a1,0x66666
    2550:	66758593          	add	a1,a1,1639 # 66666667 <_end+0x66661d27>
    2554:	02b51633          	mulh	a2,a0,a1
    2558:	64c0ac23          	sw	a2,1624(ra)

0000255c <inst_438>:
    255c:	0000b537          	lui	a0,0xb
    2560:	50550513          	add	a0,a0,1285 # b505 <_end+0x6bc5>
    2564:	ffff55b7          	lui	a1,0xffff5
    2568:	afd58593          	add	a1,a1,-1283 # ffff4afd <_end+0xffff01bd>
    256c:	02b51633          	mulh	a2,a0,a1
    2570:	64c0ae23          	sw	a2,1628(ra)

00002574 <inst_439>:
    2574:	0000b537          	lui	a0,0xb
    2578:	50550513          	add	a0,a0,1285 # b505 <_end+0x6bc5>
    257c:	0000b5b7          	lui	a1,0xb
    2580:	50558593          	add	a1,a1,1285 # b505 <_end+0x6bc5>
    2584:	02b51633          	mulh	a2,a0,a1
    2588:	66c0a023          	sw	a2,1632(ra)

0000258c <inst_440>:
    258c:	00000513          	li	a0,0
    2590:	ffff55b7          	lui	a1,0xffff5
    2594:	afc58593          	add	a1,a1,-1284 # ffff4afc <_end+0xffff01bc>
    2598:	02b51633          	mulh	a2,a0,a1
    259c:	66c0a223          	sw	a2,1636(ra)

000025a0 <inst_441>:
    25a0:	00000513          	li	a0,0
    25a4:	0000b5b7          	lui	a1,0xb
    25a8:	50458593          	add	a1,a1,1284 # b504 <_end+0x6bc4>
    25ac:	02b51633          	mulh	a2,a0,a1
    25b0:	66c0a423          	sw	a2,1640(ra)

000025b4 <inst_442>:
    25b4:	00000513          	li	a0,0
    25b8:	00200593          	li	a1,2
    25bc:	02b51633          	mulh	a2,a0,a1
    25c0:	66c0a623          	sw	a2,1644(ra)

000025c4 <inst_443>:
    25c4:	00000513          	li	a0,0
    25c8:	555555b7          	lui	a1,0x55555
    25cc:	55458593          	add	a1,a1,1364 # 55555554 <_end+0x55550c14>
    25d0:	02b51633          	mulh	a2,a0,a1
    25d4:	66c0a823          	sw	a2,1648(ra)

000025d8 <inst_444>:
    25d8:	00000513          	li	a0,0
    25dc:	00000593          	li	a1,0
    25e0:	02b51633          	mulh	a2,a0,a1
    25e4:	66c0aa23          	sw	a2,1652(ra)

000025e8 <inst_445>:
    25e8:	00000513          	li	a0,0
    25ec:	333335b7          	lui	a1,0x33333
    25f0:	33258593          	add	a1,a1,818 # 33333332 <_end+0x3332e9f2>
    25f4:	02b51633          	mulh	a2,a0,a1
    25f8:	66c0ac23          	sw	a2,1656(ra)

000025fc <inst_446>:
    25fc:	00000513          	li	a0,0
    2600:	666665b7          	lui	a1,0x66666
    2604:	66558593          	add	a1,a1,1637 # 66666665 <_end+0x66661d25>
    2608:	02b51633          	mulh	a2,a0,a1
    260c:	66c0ae23          	sw	a2,1660(ra)

00002610 <inst_447>:
    2610:	00000513          	li	a0,0
    2614:	0000b5b7          	lui	a1,0xb
    2618:	50358593          	add	a1,a1,1283 # b503 <_end+0x6bc3>
    261c:	02b51633          	mulh	a2,a0,a1
    2620:	68c0a023          	sw	a2,1664(ra)

00002624 <inst_448>:
    2624:	00000513          	li	a0,0
    2628:	555555b7          	lui	a1,0x55555
    262c:	55658593          	add	a1,a1,1366 # 55555556 <_end+0x55550c16>
    2630:	02b51633          	mulh	a2,a0,a1
    2634:	68c0a223          	sw	a2,1668(ra)

00002638 <inst_449>:
    2638:	00000513          	li	a0,0
    263c:	aaaab5b7          	lui	a1,0xaaaab
    2640:	aab58593          	add	a1,a1,-1365 # aaaaaaab <_end+0xaaaa616b>
    2644:	02b51633          	mulh	a2,a0,a1
    2648:	68c0a423          	sw	a2,1672(ra)

0000264c <inst_450>:
    264c:	00000513          	li	a0,0
    2650:	00600593          	li	a1,6
    2654:	02b51633          	mulh	a2,a0,a1
    2658:	68c0a623          	sw	a2,1676(ra)

0000265c <inst_451>:
    265c:	00000513          	li	a0,0
    2660:	333335b7          	lui	a1,0x33333
    2664:	33458593          	add	a1,a1,820 # 33333334 <_end+0x3332e9f4>
    2668:	02b51633          	mulh	a2,a0,a1
    266c:	68c0a823          	sw	a2,1680(ra)

00002670 <inst_452>:
    2670:	00000513          	li	a0,0
    2674:	666665b7          	lui	a1,0x66666
    2678:	66758593          	add	a1,a1,1639 # 66666667 <_end+0x66661d27>
    267c:	02b51633          	mulh	a2,a0,a1
    2680:	68c0aa23          	sw	a2,1684(ra)

00002684 <inst_453>:
    2684:	00000513          	li	a0,0
    2688:	ffff55b7          	lui	a1,0xffff5
    268c:	afd58593          	add	a1,a1,-1283 # ffff4afd <_end+0xffff01bd>
    2690:	02b51633          	mulh	a2,a0,a1
    2694:	68c0ac23          	sw	a2,1688(ra)

00002698 <inst_454>:
    2698:	00000513          	li	a0,0
    269c:	0000b5b7          	lui	a1,0xb
    26a0:	50558593          	add	a1,a1,1285 # b505 <_end+0x6bc5>
    26a4:	02b51633          	mulh	a2,a0,a1
    26a8:	68c0ae23          	sw	a2,1692(ra)

000026ac <inst_455>:
    26ac:	00400513          	li	a0,4
    26b0:	00300593          	li	a1,3
    26b4:	02b51633          	mulh	a2,a0,a1
    26b8:	6ac0a023          	sw	a2,1696(ra)

000026bc <inst_456>:
    26bc:	00400513          	li	a0,4
    26c0:	555555b7          	lui	a1,0x55555
    26c4:	55558593          	add	a1,a1,1365 # 55555555 <_end+0x55550c15>
    26c8:	02b51633          	mulh	a2,a0,a1
    26cc:	6ac0a223          	sw	a2,1700(ra)

000026d0 <inst_457>:
    26d0:	00400513          	li	a0,4
    26d4:	aaaab5b7          	lui	a1,0xaaaab
    26d8:	aaa58593          	add	a1,a1,-1366 # aaaaaaaa <_end+0xaaaa616a>
    26dc:	02b51633          	mulh	a2,a0,a1
    26e0:	6ac0a423          	sw	a2,1704(ra)

000026e4 <inst_458>:
    26e4:	00400513          	li	a0,4
    26e8:	00500593          	li	a1,5
    26ec:	02b51633          	mulh	a2,a0,a1
    26f0:	6ac0a623          	sw	a2,1708(ra)

000026f4 <inst_459>:
    26f4:	00400513          	li	a0,4
    26f8:	333335b7          	lui	a1,0x33333
    26fc:	33358593          	add	a1,a1,819 # 33333333 <_end+0x3332e9f3>
    2700:	02b51633          	mulh	a2,a0,a1
    2704:	6ac0a823          	sw	a2,1712(ra)

00002708 <inst_460>:
    2708:	00400513          	li	a0,4
    270c:	666665b7          	lui	a1,0x66666
    2710:	66658593          	add	a1,a1,1638 # 66666666 <_end+0x66661d26>
    2714:	02b51633          	mulh	a2,a0,a1
    2718:	6ac0aa23          	sw	a2,1716(ra)

0000271c <inst_461>:
    271c:	00400513          	li	a0,4
    2720:	ffff55b7          	lui	a1,0xffff5
    2724:	afc58593          	add	a1,a1,-1284 # ffff4afc <_end+0xffff01bc>
    2728:	02b51633          	mulh	a2,a0,a1
    272c:	6ac0ac23          	sw	a2,1720(ra)

00002730 <inst_462>:
    2730:	00400513          	li	a0,4
    2734:	0000b5b7          	lui	a1,0xb
    2738:	50458593          	add	a1,a1,1284 # b504 <_end+0x6bc4>
    273c:	02b51633          	mulh	a2,a0,a1
    2740:	6ac0ae23          	sw	a2,1724(ra)

00002744 <inst_463>:
    2744:	00400513          	li	a0,4
    2748:	00200593          	li	a1,2
    274c:	02b51633          	mulh	a2,a0,a1
    2750:	6cc0a023          	sw	a2,1728(ra)

00002754 <inst_464>:
    2754:	00400513          	li	a0,4
    2758:	555555b7          	lui	a1,0x55555
    275c:	55458593          	add	a1,a1,1364 # 55555554 <_end+0x55550c14>
    2760:	02b51633          	mulh	a2,a0,a1
    2764:	6cc0a223          	sw	a2,1732(ra)

00002768 <inst_465>:
    2768:	00400513          	li	a0,4
    276c:	00000593          	li	a1,0
    2770:	02b51633          	mulh	a2,a0,a1
    2774:	6cc0a423          	sw	a2,1736(ra)

00002778 <inst_466>:
    2778:	00400513          	li	a0,4
    277c:	00400593          	li	a1,4
    2780:	02b51633          	mulh	a2,a0,a1
    2784:	6cc0a623          	sw	a2,1740(ra)

00002788 <inst_467>:
    2788:	00400513          	li	a0,4
    278c:	333335b7          	lui	a1,0x33333
    2790:	33258593          	add	a1,a1,818 # 33333332 <_end+0x3332e9f2>
    2794:	02b51633          	mulh	a2,a0,a1
    2798:	6cc0a823          	sw	a2,1744(ra)

0000279c <inst_468>:
    279c:	00400513          	li	a0,4
    27a0:	666665b7          	lui	a1,0x66666
    27a4:	66558593          	add	a1,a1,1637 # 66666665 <_end+0x66661d25>
    27a8:	02b51633          	mulh	a2,a0,a1
    27ac:	6cc0aa23          	sw	a2,1748(ra)

000027b0 <inst_469>:
    27b0:	00400513          	li	a0,4
    27b4:	0000b5b7          	lui	a1,0xb
    27b8:	50358593          	add	a1,a1,1283 # b503 <_end+0x6bc3>
    27bc:	02b51633          	mulh	a2,a0,a1
    27c0:	6cc0ac23          	sw	a2,1752(ra)

000027c4 <inst_470>:
    27c4:	00400513          	li	a0,4
    27c8:	555555b7          	lui	a1,0x55555
    27cc:	55658593          	add	a1,a1,1366 # 55555556 <_end+0x55550c16>
    27d0:	02b51633          	mulh	a2,a0,a1
    27d4:	6cc0ae23          	sw	a2,1756(ra)

000027d8 <inst_471>:
    27d8:	00400513          	li	a0,4
    27dc:	aaaab5b7          	lui	a1,0xaaaab
    27e0:	aab58593          	add	a1,a1,-1365 # aaaaaaab <_end+0xaaaa616b>
    27e4:	02b51633          	mulh	a2,a0,a1
    27e8:	6ec0a023          	sw	a2,1760(ra)

000027ec <inst_472>:
    27ec:	00400513          	li	a0,4
    27f0:	00600593          	li	a1,6
    27f4:	02b51633          	mulh	a2,a0,a1
    27f8:	6ec0a223          	sw	a2,1764(ra)

000027fc <inst_473>:
    27fc:	00400513          	li	a0,4
    2800:	333335b7          	lui	a1,0x33333
    2804:	33458593          	add	a1,a1,820 # 33333334 <_end+0x3332e9f4>
    2808:	02b51633          	mulh	a2,a0,a1
    280c:	6ec0a423          	sw	a2,1768(ra)

00002810 <inst_474>:
    2810:	00400513          	li	a0,4
    2814:	666665b7          	lui	a1,0x66666
    2818:	66758593          	add	a1,a1,1639 # 66666667 <_end+0x66661d27>
    281c:	02b51633          	mulh	a2,a0,a1
    2820:	6ec0a623          	sw	a2,1772(ra)

00002824 <inst_475>:
    2824:	00400513          	li	a0,4
    2828:	ffff55b7          	lui	a1,0xffff5
    282c:	afd58593          	add	a1,a1,-1283 # ffff4afd <_end+0xffff01bd>
    2830:	02b51633          	mulh	a2,a0,a1
    2834:	6ec0a823          	sw	a2,1776(ra)

00002838 <inst_476>:
    2838:	00400513          	li	a0,4
    283c:	0000b5b7          	lui	a1,0xb
    2840:	50558593          	add	a1,a1,1285 # b505 <_end+0x6bc5>
    2844:	02b51633          	mulh	a2,a0,a1
    2848:	6ec0aa23          	sw	a2,1780(ra)

0000284c <inst_477>:
    284c:	33333537          	lui	a0,0x33333
    2850:	33250513          	add	a0,a0,818 # 33333332 <_end+0x3332e9f2>
    2854:	00300593          	li	a1,3
    2858:	02b51633          	mulh	a2,a0,a1
    285c:	6ec0ac23          	sw	a2,1784(ra)

00002860 <inst_478>:
    2860:	33333537          	lui	a0,0x33333
    2864:	33250513          	add	a0,a0,818 # 33333332 <_end+0x3332e9f2>
    2868:	555555b7          	lui	a1,0x55555
    286c:	55558593          	add	a1,a1,1365 # 55555555 <_end+0x55550c15>
    2870:	02b51633          	mulh	a2,a0,a1
    2874:	6ec0ae23          	sw	a2,1788(ra)

00002878 <inst_479>:
    2878:	33333537          	lui	a0,0x33333
    287c:	33250513          	add	a0,a0,818 # 33333332 <_end+0x3332e9f2>
    2880:	aaaab5b7          	lui	a1,0xaaaab
    2884:	aaa58593          	add	a1,a1,-1366 # aaaaaaaa <_end+0xaaaa616a>
    2888:	02b51633          	mulh	a2,a0,a1
    288c:	70c0a023          	sw	a2,1792(ra)

00002890 <inst_480>:
    2890:	33333537          	lui	a0,0x33333
    2894:	33250513          	add	a0,a0,818 # 33333332 <_end+0x3332e9f2>
    2898:	00500593          	li	a1,5
    289c:	02b51633          	mulh	a2,a0,a1
    28a0:	70c0a223          	sw	a2,1796(ra)

000028a4 <inst_481>:
    28a4:	33333537          	lui	a0,0x33333
    28a8:	33250513          	add	a0,a0,818 # 33333332 <_end+0x3332e9f2>
    28ac:	333335b7          	lui	a1,0x33333
    28b0:	33358593          	add	a1,a1,819 # 33333333 <_end+0x3332e9f3>
    28b4:	02b51633          	mulh	a2,a0,a1
    28b8:	70c0a423          	sw	a2,1800(ra)

000028bc <inst_482>:
    28bc:	33333537          	lui	a0,0x33333
    28c0:	33250513          	add	a0,a0,818 # 33333332 <_end+0x3332e9f2>
    28c4:	666665b7          	lui	a1,0x66666
    28c8:	66658593          	add	a1,a1,1638 # 66666666 <_end+0x66661d26>
    28cc:	02b51633          	mulh	a2,a0,a1
    28d0:	70c0a623          	sw	a2,1804(ra)

000028d4 <inst_483>:
    28d4:	33333537          	lui	a0,0x33333
    28d8:	33250513          	add	a0,a0,818 # 33333332 <_end+0x3332e9f2>
    28dc:	ffff55b7          	lui	a1,0xffff5
    28e0:	afc58593          	add	a1,a1,-1284 # ffff4afc <_end+0xffff01bc>
    28e4:	02b51633          	mulh	a2,a0,a1
    28e8:	70c0a823          	sw	a2,1808(ra)

000028ec <inst_484>:
    28ec:	33333537          	lui	a0,0x33333
    28f0:	33250513          	add	a0,a0,818 # 33333332 <_end+0x3332e9f2>
    28f4:	0000b5b7          	lui	a1,0xb
    28f8:	50458593          	add	a1,a1,1284 # b504 <_end+0x6bc4>
    28fc:	02b51633          	mulh	a2,a0,a1
    2900:	70c0aa23          	sw	a2,1812(ra)

00002904 <inst_485>:
    2904:	33333537          	lui	a0,0x33333
    2908:	33250513          	add	a0,a0,818 # 33333332 <_end+0x3332e9f2>
    290c:	00200593          	li	a1,2
    2910:	02b51633          	mulh	a2,a0,a1
    2914:	70c0ac23          	sw	a2,1816(ra)

00002918 <inst_486>:
    2918:	33333537          	lui	a0,0x33333
    291c:	33250513          	add	a0,a0,818 # 33333332 <_end+0x3332e9f2>
    2920:	555555b7          	lui	a1,0x55555
    2924:	55458593          	add	a1,a1,1364 # 55555554 <_end+0x55550c14>
    2928:	02b51633          	mulh	a2,a0,a1
    292c:	70c0ae23          	sw	a2,1820(ra)

00002930 <inst_487>:
    2930:	33333537          	lui	a0,0x33333
    2934:	33250513          	add	a0,a0,818 # 33333332 <_end+0x3332e9f2>
    2938:	00000593          	li	a1,0
    293c:	02b51633          	mulh	a2,a0,a1
    2940:	72c0a023          	sw	a2,1824(ra)

00002944 <inst_488>:
    2944:	33333537          	lui	a0,0x33333
    2948:	33250513          	add	a0,a0,818 # 33333332 <_end+0x3332e9f2>
    294c:	00400593          	li	a1,4
    2950:	02b51633          	mulh	a2,a0,a1
    2954:	72c0a223          	sw	a2,1828(ra)

00002958 <inst_489>:
    2958:	33333537          	lui	a0,0x33333
    295c:	33250513          	add	a0,a0,818 # 33333332 <_end+0x3332e9f2>
    2960:	333335b7          	lui	a1,0x33333
    2964:	33258593          	add	a1,a1,818 # 33333332 <_end+0x3332e9f2>
    2968:	02b51633          	mulh	a2,a0,a1
    296c:	72c0a423          	sw	a2,1832(ra)

00002970 <inst_490>:
    2970:	33333537          	lui	a0,0x33333
    2974:	33250513          	add	a0,a0,818 # 33333332 <_end+0x3332e9f2>
    2978:	666665b7          	lui	a1,0x66666
    297c:	66558593          	add	a1,a1,1637 # 66666665 <_end+0x66661d25>
    2980:	02b51633          	mulh	a2,a0,a1
    2984:	72c0a623          	sw	a2,1836(ra)

00002988 <inst_491>:
    2988:	33333537          	lui	a0,0x33333
    298c:	33250513          	add	a0,a0,818 # 33333332 <_end+0x3332e9f2>
    2990:	0000b5b7          	lui	a1,0xb
    2994:	50358593          	add	a1,a1,1283 # b503 <_end+0x6bc3>
    2998:	02b51633          	mulh	a2,a0,a1
    299c:	72c0a823          	sw	a2,1840(ra)

000029a0 <inst_492>:
    29a0:	33333537          	lui	a0,0x33333
    29a4:	33250513          	add	a0,a0,818 # 33333332 <_end+0x3332e9f2>
    29a8:	555555b7          	lui	a1,0x55555
    29ac:	55658593          	add	a1,a1,1366 # 55555556 <_end+0x55550c16>
    29b0:	02b51633          	mulh	a2,a0,a1
    29b4:	72c0aa23          	sw	a2,1844(ra)

000029b8 <inst_493>:
    29b8:	33333537          	lui	a0,0x33333
    29bc:	33250513          	add	a0,a0,818 # 33333332 <_end+0x3332e9f2>
    29c0:	aaaab5b7          	lui	a1,0xaaaab
    29c4:	aab58593          	add	a1,a1,-1365 # aaaaaaab <_end+0xaaaa616b>
    29c8:	02b51633          	mulh	a2,a0,a1
    29cc:	72c0ac23          	sw	a2,1848(ra)

000029d0 <inst_494>:
    29d0:	33333537          	lui	a0,0x33333
    29d4:	33250513          	add	a0,a0,818 # 33333332 <_end+0x3332e9f2>
    29d8:	00600593          	li	a1,6
    29dc:	02b51633          	mulh	a2,a0,a1
    29e0:	72c0ae23          	sw	a2,1852(ra)

000029e4 <inst_495>:
    29e4:	33333537          	lui	a0,0x33333
    29e8:	33250513          	add	a0,a0,818 # 33333332 <_end+0x3332e9f2>
    29ec:	333335b7          	lui	a1,0x33333
    29f0:	33458593          	add	a1,a1,820 # 33333334 <_end+0x3332e9f4>
    29f4:	02b51633          	mulh	a2,a0,a1
    29f8:	74c0a023          	sw	a2,1856(ra)

000029fc <inst_496>:
    29fc:	33333537          	lui	a0,0x33333
    2a00:	33250513          	add	a0,a0,818 # 33333332 <_end+0x3332e9f2>
    2a04:	666665b7          	lui	a1,0x66666
    2a08:	66758593          	add	a1,a1,1639 # 66666667 <_end+0x66661d27>
    2a0c:	02b51633          	mulh	a2,a0,a1
    2a10:	74c0a223          	sw	a2,1860(ra)

00002a14 <inst_497>:
    2a14:	33333537          	lui	a0,0x33333
    2a18:	33250513          	add	a0,a0,818 # 33333332 <_end+0x3332e9f2>
    2a1c:	ffff55b7          	lui	a1,0xffff5
    2a20:	afd58593          	add	a1,a1,-1283 # ffff4afd <_end+0xffff01bd>
    2a24:	02b51633          	mulh	a2,a0,a1
    2a28:	74c0a423          	sw	a2,1864(ra)

00002a2c <inst_498>:
    2a2c:	33333537          	lui	a0,0x33333
    2a30:	33250513          	add	a0,a0,818 # 33333332 <_end+0x3332e9f2>
    2a34:	0000b5b7          	lui	a1,0xb
    2a38:	50558593          	add	a1,a1,1285 # b505 <_end+0x6bc5>
    2a3c:	02b51633          	mulh	a2,a0,a1
    2a40:	74c0a623          	sw	a2,1868(ra)

00002a44 <inst_499>:
    2a44:	66666537          	lui	a0,0x66666
    2a48:	66550513          	add	a0,a0,1637 # 66666665 <_end+0x66661d25>
    2a4c:	00300593          	li	a1,3
    2a50:	02b51633          	mulh	a2,a0,a1
    2a54:	74c0a823          	sw	a2,1872(ra)

00002a58 <inst_500>:
    2a58:	66666537          	lui	a0,0x66666
    2a5c:	66550513          	add	a0,a0,1637 # 66666665 <_end+0x66661d25>
    2a60:	555555b7          	lui	a1,0x55555
    2a64:	55558593          	add	a1,a1,1365 # 55555555 <_end+0x55550c15>
    2a68:	02b51633          	mulh	a2,a0,a1
    2a6c:	74c0aa23          	sw	a2,1876(ra)

00002a70 <inst_501>:
    2a70:	66666537          	lui	a0,0x66666
    2a74:	66550513          	add	a0,a0,1637 # 66666665 <_end+0x66661d25>
    2a78:	aaaab5b7          	lui	a1,0xaaaab
    2a7c:	aaa58593          	add	a1,a1,-1366 # aaaaaaaa <_end+0xaaaa616a>
    2a80:	02b51633          	mulh	a2,a0,a1
    2a84:	74c0ac23          	sw	a2,1880(ra)

00002a88 <inst_502>:
    2a88:	66666537          	lui	a0,0x66666
    2a8c:	66550513          	add	a0,a0,1637 # 66666665 <_end+0x66661d25>
    2a90:	00500593          	li	a1,5
    2a94:	02b51633          	mulh	a2,a0,a1
    2a98:	74c0ae23          	sw	a2,1884(ra)

00002a9c <inst_503>:
    2a9c:	66666537          	lui	a0,0x66666
    2aa0:	66550513          	add	a0,a0,1637 # 66666665 <_end+0x66661d25>
    2aa4:	333335b7          	lui	a1,0x33333
    2aa8:	33358593          	add	a1,a1,819 # 33333333 <_end+0x3332e9f3>
    2aac:	02b51633          	mulh	a2,a0,a1
    2ab0:	76c0a023          	sw	a2,1888(ra)

00002ab4 <inst_504>:
    2ab4:	66666537          	lui	a0,0x66666
    2ab8:	66550513          	add	a0,a0,1637 # 66666665 <_end+0x66661d25>
    2abc:	666665b7          	lui	a1,0x66666
    2ac0:	66658593          	add	a1,a1,1638 # 66666666 <_end+0x66661d26>
    2ac4:	02b51633          	mulh	a2,a0,a1
    2ac8:	76c0a223          	sw	a2,1892(ra)

00002acc <inst_505>:
    2acc:	66666537          	lui	a0,0x66666
    2ad0:	66550513          	add	a0,a0,1637 # 66666665 <_end+0x66661d25>
    2ad4:	ffff55b7          	lui	a1,0xffff5
    2ad8:	afc58593          	add	a1,a1,-1284 # ffff4afc <_end+0xffff01bc>
    2adc:	02b51633          	mulh	a2,a0,a1
    2ae0:	76c0a423          	sw	a2,1896(ra)

00002ae4 <inst_506>:
    2ae4:	66666537          	lui	a0,0x66666
    2ae8:	66550513          	add	a0,a0,1637 # 66666665 <_end+0x66661d25>
    2aec:	0000b5b7          	lui	a1,0xb
    2af0:	50458593          	add	a1,a1,1284 # b504 <_end+0x6bc4>
    2af4:	02b51633          	mulh	a2,a0,a1
    2af8:	76c0a623          	sw	a2,1900(ra)

00002afc <inst_507>:
    2afc:	66666537          	lui	a0,0x66666
    2b00:	66550513          	add	a0,a0,1637 # 66666665 <_end+0x66661d25>
    2b04:	00200593          	li	a1,2
    2b08:	02b51633          	mulh	a2,a0,a1
    2b0c:	76c0a823          	sw	a2,1904(ra)

00002b10 <inst_508>:
    2b10:	66666537          	lui	a0,0x66666
    2b14:	66550513          	add	a0,a0,1637 # 66666665 <_end+0x66661d25>
    2b18:	555555b7          	lui	a1,0x55555
    2b1c:	55458593          	add	a1,a1,1364 # 55555554 <_end+0x55550c14>
    2b20:	02b51633          	mulh	a2,a0,a1
    2b24:	76c0aa23          	sw	a2,1908(ra)

00002b28 <inst_509>:
    2b28:	66666537          	lui	a0,0x66666
    2b2c:	66550513          	add	a0,a0,1637 # 66666665 <_end+0x66661d25>
    2b30:	00000593          	li	a1,0
    2b34:	02b51633          	mulh	a2,a0,a1
    2b38:	76c0ac23          	sw	a2,1912(ra)

00002b3c <inst_510>:
    2b3c:	66666537          	lui	a0,0x66666
    2b40:	66550513          	add	a0,a0,1637 # 66666665 <_end+0x66661d25>
    2b44:	00400593          	li	a1,4
    2b48:	02b51633          	mulh	a2,a0,a1
    2b4c:	76c0ae23          	sw	a2,1916(ra)

00002b50 <inst_511>:
    2b50:	66666537          	lui	a0,0x66666
    2b54:	66550513          	add	a0,a0,1637 # 66666665 <_end+0x66661d25>
    2b58:	333335b7          	lui	a1,0x33333
    2b5c:	33258593          	add	a1,a1,818 # 33333332 <_end+0x3332e9f2>
    2b60:	02b51633          	mulh	a2,a0,a1
    2b64:	78c0a023          	sw	a2,1920(ra)

00002b68 <inst_512>:
    2b68:	66666537          	lui	a0,0x66666
    2b6c:	66550513          	add	a0,a0,1637 # 66666665 <_end+0x66661d25>
    2b70:	666665b7          	lui	a1,0x66666
    2b74:	66558593          	add	a1,a1,1637 # 66666665 <_end+0x66661d25>
    2b78:	02b51633          	mulh	a2,a0,a1
    2b7c:	78c0a223          	sw	a2,1924(ra)

00002b80 <inst_513>:
    2b80:	66666537          	lui	a0,0x66666
    2b84:	66550513          	add	a0,a0,1637 # 66666665 <_end+0x66661d25>
    2b88:	0000b5b7          	lui	a1,0xb
    2b8c:	50358593          	add	a1,a1,1283 # b503 <_end+0x6bc3>
    2b90:	02b51633          	mulh	a2,a0,a1
    2b94:	78c0a423          	sw	a2,1928(ra)

00002b98 <inst_514>:
    2b98:	66666537          	lui	a0,0x66666
    2b9c:	66550513          	add	a0,a0,1637 # 66666665 <_end+0x66661d25>
    2ba0:	555555b7          	lui	a1,0x55555
    2ba4:	55658593          	add	a1,a1,1366 # 55555556 <_end+0x55550c16>
    2ba8:	02b51633          	mulh	a2,a0,a1
    2bac:	78c0a623          	sw	a2,1932(ra)

00002bb0 <inst_515>:
    2bb0:	66666537          	lui	a0,0x66666
    2bb4:	66550513          	add	a0,a0,1637 # 66666665 <_end+0x66661d25>
    2bb8:	aaaab5b7          	lui	a1,0xaaaab
    2bbc:	aab58593          	add	a1,a1,-1365 # aaaaaaab <_end+0xaaaa616b>
    2bc0:	02b51633          	mulh	a2,a0,a1
    2bc4:	78c0a823          	sw	a2,1936(ra)

00002bc8 <inst_516>:
    2bc8:	66666537          	lui	a0,0x66666
    2bcc:	66550513          	add	a0,a0,1637 # 66666665 <_end+0x66661d25>
    2bd0:	00600593          	li	a1,6
    2bd4:	02b51633          	mulh	a2,a0,a1
    2bd8:	78c0aa23          	sw	a2,1940(ra)

00002bdc <inst_517>:
    2bdc:	66666537          	lui	a0,0x66666
    2be0:	66550513          	add	a0,a0,1637 # 66666665 <_end+0x66661d25>
    2be4:	333335b7          	lui	a1,0x33333
    2be8:	33458593          	add	a1,a1,820 # 33333334 <_end+0x3332e9f4>
    2bec:	02b51633          	mulh	a2,a0,a1
    2bf0:	78c0ac23          	sw	a2,1944(ra)

00002bf4 <inst_518>:
    2bf4:	66666537          	lui	a0,0x66666
    2bf8:	66550513          	add	a0,a0,1637 # 66666665 <_end+0x66661d25>
    2bfc:	666665b7          	lui	a1,0x66666
    2c00:	66758593          	add	a1,a1,1639 # 66666667 <_end+0x66661d27>
    2c04:	02b51633          	mulh	a2,a0,a1
    2c08:	78c0ae23          	sw	a2,1948(ra)

00002c0c <inst_519>:
    2c0c:	66666537          	lui	a0,0x66666
    2c10:	66550513          	add	a0,a0,1637 # 66666665 <_end+0x66661d25>
    2c14:	ffff55b7          	lui	a1,0xffff5
    2c18:	afd58593          	add	a1,a1,-1283 # ffff4afd <_end+0xffff01bd>
    2c1c:	02b51633          	mulh	a2,a0,a1
    2c20:	7ac0a023          	sw	a2,1952(ra)

00002c24 <inst_520>:
    2c24:	66666537          	lui	a0,0x66666
    2c28:	66550513          	add	a0,a0,1637 # 66666665 <_end+0x66661d25>
    2c2c:	0000b5b7          	lui	a1,0xb
    2c30:	50558593          	add	a1,a1,1285 # b505 <_end+0x6bc5>
    2c34:	02b51633          	mulh	a2,a0,a1
    2c38:	7ac0a223          	sw	a2,1956(ra)

00002c3c <inst_521>:
    2c3c:	0000b537          	lui	a0,0xb
    2c40:	50350513          	add	a0,a0,1283 # b503 <_end+0x6bc3>
    2c44:	00300593          	li	a1,3
    2c48:	02b51633          	mulh	a2,a0,a1
    2c4c:	7ac0a423          	sw	a2,1960(ra)

00002c50 <inst_522>:
    2c50:	0000b537          	lui	a0,0xb
    2c54:	50350513          	add	a0,a0,1283 # b503 <_end+0x6bc3>
    2c58:	555555b7          	lui	a1,0x55555
    2c5c:	55558593          	add	a1,a1,1365 # 55555555 <_end+0x55550c15>
    2c60:	02b51633          	mulh	a2,a0,a1
    2c64:	7ac0a623          	sw	a2,1964(ra)

00002c68 <inst_523>:
    2c68:	0000b537          	lui	a0,0xb
    2c6c:	50350513          	add	a0,a0,1283 # b503 <_end+0x6bc3>
    2c70:	aaaab5b7          	lui	a1,0xaaaab
    2c74:	aaa58593          	add	a1,a1,-1366 # aaaaaaaa <_end+0xaaaa616a>
    2c78:	02b51633          	mulh	a2,a0,a1
    2c7c:	7ac0a823          	sw	a2,1968(ra)

00002c80 <inst_524>:
    2c80:	0000b537          	lui	a0,0xb
    2c84:	50350513          	add	a0,a0,1283 # b503 <_end+0x6bc3>
    2c88:	00500593          	li	a1,5
    2c8c:	02b51633          	mulh	a2,a0,a1
    2c90:	7ac0aa23          	sw	a2,1972(ra)

00002c94 <inst_525>:
    2c94:	0000b537          	lui	a0,0xb
    2c98:	50350513          	add	a0,a0,1283 # b503 <_end+0x6bc3>
    2c9c:	333335b7          	lui	a1,0x33333
    2ca0:	33358593          	add	a1,a1,819 # 33333333 <_end+0x3332e9f3>
    2ca4:	02b51633          	mulh	a2,a0,a1
    2ca8:	7ac0ac23          	sw	a2,1976(ra)

00002cac <inst_526>:
    2cac:	0000b537          	lui	a0,0xb
    2cb0:	50350513          	add	a0,a0,1283 # b503 <_end+0x6bc3>
    2cb4:	666665b7          	lui	a1,0x66666
    2cb8:	66658593          	add	a1,a1,1638 # 66666666 <_end+0x66661d26>
    2cbc:	02b51633          	mulh	a2,a0,a1
    2cc0:	7ac0ae23          	sw	a2,1980(ra)

00002cc4 <inst_527>:
    2cc4:	0000b537          	lui	a0,0xb
    2cc8:	50350513          	add	a0,a0,1283 # b503 <_end+0x6bc3>
    2ccc:	ffff55b7          	lui	a1,0xffff5
    2cd0:	afc58593          	add	a1,a1,-1284 # ffff4afc <_end+0xffff01bc>
    2cd4:	02b51633          	mulh	a2,a0,a1
    2cd8:	7cc0a023          	sw	a2,1984(ra)

00002cdc <inst_528>:
    2cdc:	0000b537          	lui	a0,0xb
    2ce0:	50350513          	add	a0,a0,1283 # b503 <_end+0x6bc3>
    2ce4:	0000b5b7          	lui	a1,0xb
    2ce8:	50458593          	add	a1,a1,1284 # b504 <_end+0x6bc4>
    2cec:	02b51633          	mulh	a2,a0,a1
    2cf0:	7cc0a223          	sw	a2,1988(ra)

00002cf4 <inst_529>:
    2cf4:	0000b537          	lui	a0,0xb
    2cf8:	50350513          	add	a0,a0,1283 # b503 <_end+0x6bc3>
    2cfc:	00200593          	li	a1,2
    2d00:	02b51633          	mulh	a2,a0,a1
    2d04:	7cc0a423          	sw	a2,1992(ra)

00002d08 <inst_530>:
    2d08:	0000b537          	lui	a0,0xb
    2d0c:	50350513          	add	a0,a0,1283 # b503 <_end+0x6bc3>
    2d10:	555555b7          	lui	a1,0x55555
    2d14:	55458593          	add	a1,a1,1364 # 55555554 <_end+0x55550c14>
    2d18:	02b51633          	mulh	a2,a0,a1
    2d1c:	7cc0a623          	sw	a2,1996(ra)

00002d20 <inst_531>:
    2d20:	0000b537          	lui	a0,0xb
    2d24:	50350513          	add	a0,a0,1283 # b503 <_end+0x6bc3>
    2d28:	00000593          	li	a1,0
    2d2c:	02b51633          	mulh	a2,a0,a1
    2d30:	7cc0a823          	sw	a2,2000(ra)

00002d34 <inst_532>:
    2d34:	0000b537          	lui	a0,0xb
    2d38:	50350513          	add	a0,a0,1283 # b503 <_end+0x6bc3>
    2d3c:	00400593          	li	a1,4
    2d40:	02b51633          	mulh	a2,a0,a1
    2d44:	7cc0aa23          	sw	a2,2004(ra)

00002d48 <inst_533>:
    2d48:	0000b537          	lui	a0,0xb
    2d4c:	50350513          	add	a0,a0,1283 # b503 <_end+0x6bc3>
    2d50:	333335b7          	lui	a1,0x33333
    2d54:	33258593          	add	a1,a1,818 # 33333332 <_end+0x3332e9f2>
    2d58:	02b51633          	mulh	a2,a0,a1
    2d5c:	7cc0ac23          	sw	a2,2008(ra)

00002d60 <inst_534>:
    2d60:	0000b537          	lui	a0,0xb
    2d64:	50350513          	add	a0,a0,1283 # b503 <_end+0x6bc3>
    2d68:	666665b7          	lui	a1,0x66666
    2d6c:	66558593          	add	a1,a1,1637 # 66666665 <_end+0x66661d25>
    2d70:	02b51633          	mulh	a2,a0,a1
    2d74:	7cc0ae23          	sw	a2,2012(ra)

00002d78 <inst_535>:
    2d78:	0000b537          	lui	a0,0xb
    2d7c:	50350513          	add	a0,a0,1283 # b503 <_end+0x6bc3>
    2d80:	0000b5b7          	lui	a1,0xb
    2d84:	50358593          	add	a1,a1,1283 # b503 <_end+0x6bc3>
    2d88:	02b51633          	mulh	a2,a0,a1
    2d8c:	7ec0a023          	sw	a2,2016(ra)

00002d90 <inst_536>:
    2d90:	0000b537          	lui	a0,0xb
    2d94:	50350513          	add	a0,a0,1283 # b503 <_end+0x6bc3>
    2d98:	555555b7          	lui	a1,0x55555
    2d9c:	55658593          	add	a1,a1,1366 # 55555556 <_end+0x55550c16>
    2da0:	02b51633          	mulh	a2,a0,a1
    2da4:	7ec0a223          	sw	a2,2020(ra)

00002da8 <inst_537>:
    2da8:	0000b537          	lui	a0,0xb
    2dac:	50350513          	add	a0,a0,1283 # b503 <_end+0x6bc3>
    2db0:	aaaab5b7          	lui	a1,0xaaaab
    2db4:	aab58593          	add	a1,a1,-1365 # aaaaaaab <_end+0xaaaa616b>
    2db8:	02b51633          	mulh	a2,a0,a1
    2dbc:	7ec0a423          	sw	a2,2024(ra)

00002dc0 <inst_538>:
    2dc0:	0000b537          	lui	a0,0xb
    2dc4:	50350513          	add	a0,a0,1283 # b503 <_end+0x6bc3>
    2dc8:	00600593          	li	a1,6
    2dcc:	02b51633          	mulh	a2,a0,a1
    2dd0:	7ec0a623          	sw	a2,2028(ra)

00002dd4 <inst_539>:
    2dd4:	0000b537          	lui	a0,0xb
    2dd8:	50350513          	add	a0,a0,1283 # b503 <_end+0x6bc3>
    2ddc:	333335b7          	lui	a1,0x33333
    2de0:	33458593          	add	a1,a1,820 # 33333334 <_end+0x3332e9f4>
    2de4:	02b51633          	mulh	a2,a0,a1
    2de8:	7ec0a823          	sw	a2,2032(ra)

00002dec <inst_540>:
    2dec:	0000b537          	lui	a0,0xb
    2df0:	50350513          	add	a0,a0,1283 # b503 <_end+0x6bc3>
    2df4:	666665b7          	lui	a1,0x66666
    2df8:	66758593          	add	a1,a1,1639 # 66666667 <_end+0x66661d27>
    2dfc:	02b51633          	mulh	a2,a0,a1
    2e00:	7ec0aa23          	sw	a2,2036(ra)

00002e04 <inst_541>:
    2e04:	0000b537          	lui	a0,0xb
    2e08:	50350513          	add	a0,a0,1283 # b503 <_end+0x6bc3>
    2e0c:	ffff55b7          	lui	a1,0xffff5
    2e10:	afd58593          	add	a1,a1,-1283 # ffff4afd <_end+0xffff01bd>
    2e14:	02b51633          	mulh	a2,a0,a1
    2e18:	7ec0ac23          	sw	a2,2040(ra)

00002e1c <inst_542>:
    2e1c:	0000b537          	lui	a0,0xb
    2e20:	50350513          	add	a0,a0,1283 # b503 <_end+0x6bc3>
    2e24:	0000b5b7          	lui	a1,0xb
    2e28:	50558593          	add	a1,a1,1285 # b505 <_end+0x6bc5>
    2e2c:	02b51633          	mulh	a2,a0,a1
    2e30:	7ec0ae23          	sw	a2,2044(ra)
    2e34:	00002097          	auipc	ra,0x2
    2e38:	a5808093          	add	ra,ra,-1448 # 488c <signature_x1_1>

00002e3c <inst_543>:
    2e3c:	55555537          	lui	a0,0x55555
    2e40:	55650513          	add	a0,a0,1366 # 55555556 <_end+0x55550c16>
    2e44:	00300593          	li	a1,3
    2e48:	02b51633          	mulh	a2,a0,a1
    2e4c:	00c0a023          	sw	a2,0(ra)

00002e50 <inst_544>:
    2e50:	55555537          	lui	a0,0x55555
    2e54:	55650513          	add	a0,a0,1366 # 55555556 <_end+0x55550c16>
    2e58:	555555b7          	lui	a1,0x55555
    2e5c:	55558593          	add	a1,a1,1365 # 55555555 <_end+0x55550c15>
    2e60:	02b51633          	mulh	a2,a0,a1
    2e64:	00c0a223          	sw	a2,4(ra)

00002e68 <inst_545>:
    2e68:	55555537          	lui	a0,0x55555
    2e6c:	55650513          	add	a0,a0,1366 # 55555556 <_end+0x55550c16>
    2e70:	aaaab5b7          	lui	a1,0xaaaab
    2e74:	aaa58593          	add	a1,a1,-1366 # aaaaaaaa <_end+0xaaaa616a>
    2e78:	02b51633          	mulh	a2,a0,a1
    2e7c:	00c0a423          	sw	a2,8(ra)

00002e80 <inst_546>:
    2e80:	55555537          	lui	a0,0x55555
    2e84:	55650513          	add	a0,a0,1366 # 55555556 <_end+0x55550c16>
    2e88:	00500593          	li	a1,5
    2e8c:	02b51633          	mulh	a2,a0,a1
    2e90:	00c0a623          	sw	a2,12(ra)

00002e94 <inst_547>:
    2e94:	55555537          	lui	a0,0x55555
    2e98:	55650513          	add	a0,a0,1366 # 55555556 <_end+0x55550c16>
    2e9c:	333335b7          	lui	a1,0x33333
    2ea0:	33358593          	add	a1,a1,819 # 33333333 <_end+0x3332e9f3>
    2ea4:	02b51633          	mulh	a2,a0,a1
    2ea8:	00c0a823          	sw	a2,16(ra)

00002eac <inst_548>:
    2eac:	55555537          	lui	a0,0x55555
    2eb0:	55650513          	add	a0,a0,1366 # 55555556 <_end+0x55550c16>
    2eb4:	666665b7          	lui	a1,0x66666
    2eb8:	66658593          	add	a1,a1,1638 # 66666666 <_end+0x66661d26>
    2ebc:	02b51633          	mulh	a2,a0,a1
    2ec0:	00c0aa23          	sw	a2,20(ra)

00002ec4 <inst_549>:
    2ec4:	55555537          	lui	a0,0x55555
    2ec8:	55650513          	add	a0,a0,1366 # 55555556 <_end+0x55550c16>
    2ecc:	ffff55b7          	lui	a1,0xffff5
    2ed0:	afc58593          	add	a1,a1,-1284 # ffff4afc <_end+0xffff01bc>
    2ed4:	02b51633          	mulh	a2,a0,a1
    2ed8:	00c0ac23          	sw	a2,24(ra)

00002edc <inst_550>:
    2edc:	55555537          	lui	a0,0x55555
    2ee0:	55650513          	add	a0,a0,1366 # 55555556 <_end+0x55550c16>
    2ee4:	0000b5b7          	lui	a1,0xb
    2ee8:	50458593          	add	a1,a1,1284 # b504 <_end+0x6bc4>
    2eec:	02b51633          	mulh	a2,a0,a1
    2ef0:	00c0ae23          	sw	a2,28(ra)

00002ef4 <inst_551>:
    2ef4:	55555537          	lui	a0,0x55555
    2ef8:	55650513          	add	a0,a0,1366 # 55555556 <_end+0x55550c16>
    2efc:	00200593          	li	a1,2
    2f00:	02b51633          	mulh	a2,a0,a1
    2f04:	02c0a023          	sw	a2,32(ra)

00002f08 <inst_552>:
    2f08:	55555537          	lui	a0,0x55555
    2f0c:	55650513          	add	a0,a0,1366 # 55555556 <_end+0x55550c16>
    2f10:	555555b7          	lui	a1,0x55555
    2f14:	55458593          	add	a1,a1,1364 # 55555554 <_end+0x55550c14>
    2f18:	02b51633          	mulh	a2,a0,a1
    2f1c:	02c0a223          	sw	a2,36(ra)

00002f20 <inst_553>:
    2f20:	55555537          	lui	a0,0x55555
    2f24:	55650513          	add	a0,a0,1366 # 55555556 <_end+0x55550c16>
    2f28:	00000593          	li	a1,0
    2f2c:	02b51633          	mulh	a2,a0,a1
    2f30:	02c0a423          	sw	a2,40(ra)

00002f34 <inst_554>:
    2f34:	55555537          	lui	a0,0x55555
    2f38:	55650513          	add	a0,a0,1366 # 55555556 <_end+0x55550c16>
    2f3c:	00400593          	li	a1,4
    2f40:	02b51633          	mulh	a2,a0,a1
    2f44:	02c0a623          	sw	a2,44(ra)

00002f48 <inst_555>:
    2f48:	55555537          	lui	a0,0x55555
    2f4c:	55650513          	add	a0,a0,1366 # 55555556 <_end+0x55550c16>
    2f50:	333335b7          	lui	a1,0x33333
    2f54:	33258593          	add	a1,a1,818 # 33333332 <_end+0x3332e9f2>
    2f58:	02b51633          	mulh	a2,a0,a1
    2f5c:	02c0a823          	sw	a2,48(ra)

00002f60 <inst_556>:
    2f60:	55555537          	lui	a0,0x55555
    2f64:	55650513          	add	a0,a0,1366 # 55555556 <_end+0x55550c16>
    2f68:	666665b7          	lui	a1,0x66666
    2f6c:	66558593          	add	a1,a1,1637 # 66666665 <_end+0x66661d25>
    2f70:	02b51633          	mulh	a2,a0,a1
    2f74:	02c0aa23          	sw	a2,52(ra)

00002f78 <inst_557>:
    2f78:	55555537          	lui	a0,0x55555
    2f7c:	55650513          	add	a0,a0,1366 # 55555556 <_end+0x55550c16>
    2f80:	0000b5b7          	lui	a1,0xb
    2f84:	50358593          	add	a1,a1,1283 # b503 <_end+0x6bc3>
    2f88:	02b51633          	mulh	a2,a0,a1
    2f8c:	02c0ac23          	sw	a2,56(ra)

00002f90 <inst_558>:
    2f90:	55555537          	lui	a0,0x55555
    2f94:	55650513          	add	a0,a0,1366 # 55555556 <_end+0x55550c16>
    2f98:	555555b7          	lui	a1,0x55555
    2f9c:	55658593          	add	a1,a1,1366 # 55555556 <_end+0x55550c16>
    2fa0:	02b51633          	mulh	a2,a0,a1
    2fa4:	02c0ae23          	sw	a2,60(ra)

00002fa8 <inst_559>:
    2fa8:	55555537          	lui	a0,0x55555
    2fac:	55650513          	add	a0,a0,1366 # 55555556 <_end+0x55550c16>
    2fb0:	aaaab5b7          	lui	a1,0xaaaab
    2fb4:	aab58593          	add	a1,a1,-1365 # aaaaaaab <_end+0xaaaa616b>
    2fb8:	02b51633          	mulh	a2,a0,a1
    2fbc:	04c0a023          	sw	a2,64(ra)

00002fc0 <inst_560>:
    2fc0:	55555537          	lui	a0,0x55555
    2fc4:	55650513          	add	a0,a0,1366 # 55555556 <_end+0x55550c16>
    2fc8:	00600593          	li	a1,6
    2fcc:	02b51633          	mulh	a2,a0,a1
    2fd0:	04c0a223          	sw	a2,68(ra)

00002fd4 <inst_561>:
    2fd4:	55555537          	lui	a0,0x55555
    2fd8:	55650513          	add	a0,a0,1366 # 55555556 <_end+0x55550c16>
    2fdc:	333335b7          	lui	a1,0x33333
    2fe0:	33458593          	add	a1,a1,820 # 33333334 <_end+0x3332e9f4>
    2fe4:	02b51633          	mulh	a2,a0,a1
    2fe8:	04c0a423          	sw	a2,72(ra)

00002fec <inst_562>:
    2fec:	55555537          	lui	a0,0x55555
    2ff0:	55650513          	add	a0,a0,1366 # 55555556 <_end+0x55550c16>
    2ff4:	666665b7          	lui	a1,0x66666
    2ff8:	66758593          	add	a1,a1,1639 # 66666667 <_end+0x66661d27>
    2ffc:	02b51633          	mulh	a2,a0,a1
    3000:	04c0a623          	sw	a2,76(ra)

00003004 <inst_563>:
    3004:	55555537          	lui	a0,0x55555
    3008:	55650513          	add	a0,a0,1366 # 55555556 <_end+0x55550c16>
    300c:	ffff55b7          	lui	a1,0xffff5
    3010:	afd58593          	add	a1,a1,-1283 # ffff4afd <_end+0xffff01bd>
    3014:	02b51633          	mulh	a2,a0,a1
    3018:	04c0a823          	sw	a2,80(ra)

0000301c <inst_564>:
    301c:	55555537          	lui	a0,0x55555
    3020:	55650513          	add	a0,a0,1366 # 55555556 <_end+0x55550c16>
    3024:	0000b5b7          	lui	a1,0xb
    3028:	50558593          	add	a1,a1,1285 # b505 <_end+0x6bc5>
    302c:	02b51633          	mulh	a2,a0,a1
    3030:	04c0aa23          	sw	a2,84(ra)

00003034 <inst_565>:
    3034:	aaaab537          	lui	a0,0xaaaab
    3038:	aab50513          	add	a0,a0,-1365 # aaaaaaab <_end+0xaaaa616b>
    303c:	00300593          	li	a1,3
    3040:	02b51633          	mulh	a2,a0,a1
    3044:	04c0ac23          	sw	a2,88(ra)

00003048 <inst_566>:
    3048:	aaaab537          	lui	a0,0xaaaab
    304c:	aab50513          	add	a0,a0,-1365 # aaaaaaab <_end+0xaaaa616b>
    3050:	555555b7          	lui	a1,0x55555
    3054:	55558593          	add	a1,a1,1365 # 55555555 <_end+0x55550c15>
    3058:	02b51633          	mulh	a2,a0,a1
    305c:	04c0ae23          	sw	a2,92(ra)

00003060 <inst_567>:
    3060:	aaaab537          	lui	a0,0xaaaab
    3064:	aab50513          	add	a0,a0,-1365 # aaaaaaab <_end+0xaaaa616b>
    3068:	aaaab5b7          	lui	a1,0xaaaab
    306c:	aaa58593          	add	a1,a1,-1366 # aaaaaaaa <_end+0xaaaa616a>
    3070:	02b51633          	mulh	a2,a0,a1
    3074:	06c0a023          	sw	a2,96(ra)

00003078 <inst_568>:
    3078:	aaaab537          	lui	a0,0xaaaab
    307c:	aab50513          	add	a0,a0,-1365 # aaaaaaab <_end+0xaaaa616b>
    3080:	00500593          	li	a1,5
    3084:	02b51633          	mulh	a2,a0,a1
    3088:	06c0a223          	sw	a2,100(ra)

0000308c <inst_569>:
    308c:	aaaab537          	lui	a0,0xaaaab
    3090:	aab50513          	add	a0,a0,-1365 # aaaaaaab <_end+0xaaaa616b>
    3094:	333335b7          	lui	a1,0x33333
    3098:	33358593          	add	a1,a1,819 # 33333333 <_end+0x3332e9f3>
    309c:	02b51633          	mulh	a2,a0,a1
    30a0:	06c0a423          	sw	a2,104(ra)

000030a4 <inst_570>:
    30a4:	aaaab537          	lui	a0,0xaaaab
    30a8:	aab50513          	add	a0,a0,-1365 # aaaaaaab <_end+0xaaaa616b>
    30ac:	666665b7          	lui	a1,0x66666
    30b0:	66658593          	add	a1,a1,1638 # 66666666 <_end+0x66661d26>
    30b4:	02b51633          	mulh	a2,a0,a1
    30b8:	06c0a623          	sw	a2,108(ra)

000030bc <inst_571>:
    30bc:	aaaab537          	lui	a0,0xaaaab
    30c0:	aab50513          	add	a0,a0,-1365 # aaaaaaab <_end+0xaaaa616b>
    30c4:	ffff55b7          	lui	a1,0xffff5
    30c8:	afc58593          	add	a1,a1,-1284 # ffff4afc <_end+0xffff01bc>
    30cc:	02b51633          	mulh	a2,a0,a1
    30d0:	06c0a823          	sw	a2,112(ra)

000030d4 <inst_572>:
    30d4:	aaaab537          	lui	a0,0xaaaab
    30d8:	aab50513          	add	a0,a0,-1365 # aaaaaaab <_end+0xaaaa616b>
    30dc:	0000b5b7          	lui	a1,0xb
    30e0:	50458593          	add	a1,a1,1284 # b504 <_end+0x6bc4>
    30e4:	02b51633          	mulh	a2,a0,a1
    30e8:	06c0aa23          	sw	a2,116(ra)

000030ec <inst_573>:
    30ec:	aaaab537          	lui	a0,0xaaaab
    30f0:	aab50513          	add	a0,a0,-1365 # aaaaaaab <_end+0xaaaa616b>
    30f4:	00200593          	li	a1,2
    30f8:	02b51633          	mulh	a2,a0,a1
    30fc:	06c0ac23          	sw	a2,120(ra)

00003100 <inst_574>:
    3100:	aaaab537          	lui	a0,0xaaaab
    3104:	aab50513          	add	a0,a0,-1365 # aaaaaaab <_end+0xaaaa616b>
    3108:	555555b7          	lui	a1,0x55555
    310c:	55458593          	add	a1,a1,1364 # 55555554 <_end+0x55550c14>
    3110:	02b51633          	mulh	a2,a0,a1
    3114:	06c0ae23          	sw	a2,124(ra)

00003118 <inst_575>:
    3118:	aaaab537          	lui	a0,0xaaaab
    311c:	aab50513          	add	a0,a0,-1365 # aaaaaaab <_end+0xaaaa616b>
    3120:	00000593          	li	a1,0
    3124:	02b51633          	mulh	a2,a0,a1
    3128:	08c0a023          	sw	a2,128(ra)

0000312c <inst_576>:
    312c:	aaaab537          	lui	a0,0xaaaab
    3130:	aab50513          	add	a0,a0,-1365 # aaaaaaab <_end+0xaaaa616b>
    3134:	00400593          	li	a1,4
    3138:	02b51633          	mulh	a2,a0,a1
    313c:	08c0a223          	sw	a2,132(ra)

00003140 <inst_577>:
    3140:	aaaab537          	lui	a0,0xaaaab
    3144:	aab50513          	add	a0,a0,-1365 # aaaaaaab <_end+0xaaaa616b>
    3148:	333335b7          	lui	a1,0x33333
    314c:	33258593          	add	a1,a1,818 # 33333332 <_end+0x3332e9f2>
    3150:	02b51633          	mulh	a2,a0,a1
    3154:	08c0a423          	sw	a2,136(ra)

00003158 <inst_578>:
    3158:	aaaab537          	lui	a0,0xaaaab
    315c:	aab50513          	add	a0,a0,-1365 # aaaaaaab <_end+0xaaaa616b>
    3160:	666665b7          	lui	a1,0x66666
    3164:	66558593          	add	a1,a1,1637 # 66666665 <_end+0x66661d25>
    3168:	02b51633          	mulh	a2,a0,a1
    316c:	08c0a623          	sw	a2,140(ra)

00003170 <inst_579>:
    3170:	aaaab537          	lui	a0,0xaaaab
    3174:	aab50513          	add	a0,a0,-1365 # aaaaaaab <_end+0xaaaa616b>
    3178:	0000b5b7          	lui	a1,0xb
    317c:	50358593          	add	a1,a1,1283 # b503 <_end+0x6bc3>
    3180:	02b51633          	mulh	a2,a0,a1
    3184:	08c0a823          	sw	a2,144(ra)

00003188 <inst_580>:
    3188:	aaaab537          	lui	a0,0xaaaab
    318c:	aab50513          	add	a0,a0,-1365 # aaaaaaab <_end+0xaaaa616b>
    3190:	555555b7          	lui	a1,0x55555
    3194:	55658593          	add	a1,a1,1366 # 55555556 <_end+0x55550c16>
    3198:	02b51633          	mulh	a2,a0,a1
    319c:	08c0aa23          	sw	a2,148(ra)

000031a0 <inst_581>:
    31a0:	33333537          	lui	a0,0x33333
    31a4:	33250513          	add	a0,a0,818 # 33333332 <_end+0x3332e9f2>
    31a8:	ffe00593          	li	a1,-2
    31ac:	02b51633          	mulh	a2,a0,a1
    31b0:	08c0ac23          	sw	a2,152(ra)

000031b4 <inst_582>:
    31b4:	ffb00513          	li	a0,-5
    31b8:	800005b7          	lui	a1,0x80000
    31bc:	fff58593          	add	a1,a1,-1 # 7fffffff <_end+0x7fffb6bf>
    31c0:	02b51633          	mulh	a2,a0,a1
    31c4:	08c0ae23          	sw	a2,156(ra)

000031c8 <inst_583>:
    31c8:	00500513          	li	a0,5
    31cc:	000025b7          	lui	a1,0x2
    31d0:	02b51633          	mulh	a2,a0,a1
    31d4:	0ac0a023          	sw	a2,160(ra)

000031d8 <inst_584>:
    31d8:	02000537          	lui	a0,0x2000
    31dc:	000205b7          	lui	a1,0x20
    31e0:	02b51633          	mulh	a2,a0,a1
    31e4:	0ac0a223          	sw	a2,164(ra)
    31e8:	00000013          	nop
    31ec:	00000013          	nop

000031f0 <rvtest_code_end>:
    31f0:	00001517          	auipc	a0,0x1
    31f4:	e2050513          	add	a0,a0,-480 # 4010 <data_begin>
    31f8:	00001597          	auipc	a1,0x1
    31fc:	74858593          	add	a1,a1,1864 # 4940 <_end>
    3200:	80001637          	lui	a2,0x80001
    3204:	0621                	add	a2,a2,8 # 80001008 <_end+0x7fffc6c8>

00003206 <compliance_halt_loop>:
    3206:	04b50763          	beq	a0,a1,3254 <compliance_halt_break>
    320a:	00450693          	add	a3,a0,4

0000320e <compliance_halt_loop2>:
    320e:	16fd                	add	a3,a3,-1 # 3fff <compliance_halt_break+0xdab>
    3210:	00068703          	lb	a4,0(a3)
    3214:	40475793          	sra	a5,a4,0x4
    3218:	8bbd                	and	a5,a5,15
    321a:	4829                	li	a6,10
    321c:	0107c463          	blt	a5,a6,3224 <notLetter>
    3220:	02778793          	add	a5,a5,39

00003224 <notLetter>:
    3224:	03078793          	add	a5,a5,48
    3228:	00f60023          	sb	a5,0(a2)
    322c:	40075793          	sra	a5,a4,0x0
    3230:	8bbd                	and	a5,a5,15
    3232:	4829                	li	a6,10
    3234:	0107c463          	blt	a5,a6,323c <notLetter2>
    3238:	02778793          	add	a5,a5,39

0000323c <notLetter2>:
    323c:	03078793          	add	a5,a5,48
    3240:	00f60023          	sb	a5,0(a2)
    3244:	fcd515e3          	bne	a0,a3,320e <compliance_halt_loop2>
    3248:	0511                	add	a0,a0,4
    324a:	4729                	li	a4,10
    324c:	00e60023          	sb	a4,0(a2)
    3250:	bf5d                	j	3206 <compliance_halt_loop>
    3252:	a009                	j	3254 <compliance_halt_break>

00003254 <compliance_halt_break>:
    3254:	80001537          	lui	a0,0x80001
    3258:	0525                	add	a0,a0,9 # 80001009 <_end+0x7fffc6c9>
    325a:	00d50023          	sb	a3,0(a0)
	...

Desensamblado de la sección .data:

00004000 <rvtest_data_begin>:
    4000:	cafe                	sw	t6,84(sp)
    4002:	babe                	.2byte	0xbabe

00004004 <rvtest_data_end>:
	...

00004010 <data_begin>:
    4010:	deadbeef          	jal	t4,fffdf5fa <_end+0xfffdacba>
    4014:	deadbeef          	jal	t4,fffdf5fe <_end+0xfffdacbe>
    4018:	deadbeef          	jal	t4,fffdf602 <_end+0xfffdacc2>
    401c:	deadbeef          	jal	t4,fffdf606 <_end+0xfffdacc6>
    4020:	deadbeef          	jal	t4,fffdf60a <_end+0xfffdacca>
    4024:	deadbeef          	jal	t4,fffdf60e <_end+0xfffdacce>
    4028:	deadbeef          	jal	t4,fffdf612 <_end+0xfffdacd2>
    402c:	deadbeef          	jal	t4,fffdf616 <_end+0xfffdacd6>
    4030:	deadbeef          	jal	t4,fffdf61a <_end+0xfffdacda>
    4034:	deadbeef          	jal	t4,fffdf61e <_end+0xfffdacde>
    4038:	deadbeef          	jal	t4,fffdf622 <_end+0xfffdace2>
    403c:	deadbeef          	jal	t4,fffdf626 <_end+0xfffdace6>
    4040:	deadbeef          	jal	t4,fffdf62a <_end+0xfffdacea>
    4044:	deadbeef          	jal	t4,fffdf62e <_end+0xfffdacee>
    4048:	deadbeef          	jal	t4,fffdf632 <_end+0xfffdacf2>
    404c:	deadbeef          	jal	t4,fffdf636 <_end+0xfffdacf6>

00004050 <signature_x7_0>:
    4050:	deadbeef          	jal	t4,fffdf63a <_end+0xfffdacfa>
    4054:	deadbeef          	jal	t4,fffdf63e <_end+0xfffdacfe>
    4058:	deadbeef          	jal	t4,fffdf642 <_end+0xfffdad02>
    405c:	deadbeef          	jal	t4,fffdf646 <_end+0xfffdad06>
    4060:	deadbeef          	jal	t4,fffdf64a <_end+0xfffdad0a>
    4064:	deadbeef          	jal	t4,fffdf64e <_end+0xfffdad0e>
    4068:	deadbeef          	jal	t4,fffdf652 <_end+0xfffdad12>
    406c:	deadbeef          	jal	t4,fffdf656 <_end+0xfffdad16>
    4070:	deadbeef          	jal	t4,fffdf65a <_end+0xfffdad1a>
    4074:	deadbeef          	jal	t4,fffdf65e <_end+0xfffdad1e>
    4078:	deadbeef          	jal	t4,fffdf662 <_end+0xfffdad22>
    407c:	deadbeef          	jal	t4,fffdf666 <_end+0xfffdad26>
    4080:	deadbeef          	jal	t4,fffdf66a <_end+0xfffdad2a>
    4084:	deadbeef          	jal	t4,fffdf66e <_end+0xfffdad2e>
    4088:	deadbeef          	jal	t4,fffdf672 <_end+0xfffdad32>

0000408c <signature_x1_0>:
    408c:	deadbeef          	jal	t4,fffdf676 <_end+0xfffdad36>
    4090:	deadbeef          	jal	t4,fffdf67a <_end+0xfffdad3a>
    4094:	deadbeef          	jal	t4,fffdf67e <_end+0xfffdad3e>
    4098:	deadbeef          	jal	t4,fffdf682 <_end+0xfffdad42>
    409c:	deadbeef          	jal	t4,fffdf686 <_end+0xfffdad46>
    40a0:	deadbeef          	jal	t4,fffdf68a <_end+0xfffdad4a>
    40a4:	deadbeef          	jal	t4,fffdf68e <_end+0xfffdad4e>
    40a8:	deadbeef          	jal	t4,fffdf692 <_end+0xfffdad52>
    40ac:	deadbeef          	jal	t4,fffdf696 <_end+0xfffdad56>
    40b0:	deadbeef          	jal	t4,fffdf69a <_end+0xfffdad5a>
    40b4:	deadbeef          	jal	t4,fffdf69e <_end+0xfffdad5e>
    40b8:	deadbeef          	jal	t4,fffdf6a2 <_end+0xfffdad62>
    40bc:	deadbeef          	jal	t4,fffdf6a6 <_end+0xfffdad66>
    40c0:	deadbeef          	jal	t4,fffdf6aa <_end+0xfffdad6a>
    40c4:	deadbeef          	jal	t4,fffdf6ae <_end+0xfffdad6e>
    40c8:	deadbeef          	jal	t4,fffdf6b2 <_end+0xfffdad72>
    40cc:	deadbeef          	jal	t4,fffdf6b6 <_end+0xfffdad76>
    40d0:	deadbeef          	jal	t4,fffdf6ba <_end+0xfffdad7a>
    40d4:	deadbeef          	jal	t4,fffdf6be <_end+0xfffdad7e>
    40d8:	deadbeef          	jal	t4,fffdf6c2 <_end+0xfffdad82>
    40dc:	deadbeef          	jal	t4,fffdf6c6 <_end+0xfffdad86>
    40e0:	deadbeef          	jal	t4,fffdf6ca <_end+0xfffdad8a>
    40e4:	deadbeef          	jal	t4,fffdf6ce <_end+0xfffdad8e>
    40e8:	deadbeef          	jal	t4,fffdf6d2 <_end+0xfffdad92>
    40ec:	deadbeef          	jal	t4,fffdf6d6 <_end+0xfffdad96>
    40f0:	deadbeef          	jal	t4,fffdf6da <_end+0xfffdad9a>
    40f4:	deadbeef          	jal	t4,fffdf6de <_end+0xfffdad9e>
    40f8:	deadbeef          	jal	t4,fffdf6e2 <_end+0xfffdada2>
    40fc:	deadbeef          	jal	t4,fffdf6e6 <_end+0xfffdada6>
    4100:	deadbeef          	jal	t4,fffdf6ea <_end+0xfffdadaa>
    4104:	deadbeef          	jal	t4,fffdf6ee <_end+0xfffdadae>
    4108:	deadbeef          	jal	t4,fffdf6f2 <_end+0xfffdadb2>
    410c:	deadbeef          	jal	t4,fffdf6f6 <_end+0xfffdadb6>
    4110:	deadbeef          	jal	t4,fffdf6fa <_end+0xfffdadba>
    4114:	deadbeef          	jal	t4,fffdf6fe <_end+0xfffdadbe>
    4118:	deadbeef          	jal	t4,fffdf702 <_end+0xfffdadc2>
    411c:	deadbeef          	jal	t4,fffdf706 <_end+0xfffdadc6>
    4120:	deadbeef          	jal	t4,fffdf70a <_end+0xfffdadca>
    4124:	deadbeef          	jal	t4,fffdf70e <_end+0xfffdadce>
    4128:	deadbeef          	jal	t4,fffdf712 <_end+0xfffdadd2>
    412c:	deadbeef          	jal	t4,fffdf716 <_end+0xfffdadd6>
    4130:	deadbeef          	jal	t4,fffdf71a <_end+0xfffdadda>
    4134:	deadbeef          	jal	t4,fffdf71e <_end+0xfffdadde>
    4138:	deadbeef          	jal	t4,fffdf722 <_end+0xfffdade2>
    413c:	deadbeef          	jal	t4,fffdf726 <_end+0xfffdade6>
    4140:	deadbeef          	jal	t4,fffdf72a <_end+0xfffdadea>
    4144:	deadbeef          	jal	t4,fffdf72e <_end+0xfffdadee>
    4148:	deadbeef          	jal	t4,fffdf732 <_end+0xfffdadf2>
    414c:	deadbeef          	jal	t4,fffdf736 <_end+0xfffdadf6>
    4150:	deadbeef          	jal	t4,fffdf73a <_end+0xfffdadfa>
    4154:	deadbeef          	jal	t4,fffdf73e <_end+0xfffdadfe>
    4158:	deadbeef          	jal	t4,fffdf742 <_end+0xfffdae02>
    415c:	deadbeef          	jal	t4,fffdf746 <_end+0xfffdae06>
    4160:	deadbeef          	jal	t4,fffdf74a <_end+0xfffdae0a>
    4164:	deadbeef          	jal	t4,fffdf74e <_end+0xfffdae0e>
    4168:	deadbeef          	jal	t4,fffdf752 <_end+0xfffdae12>
    416c:	deadbeef          	jal	t4,fffdf756 <_end+0xfffdae16>
    4170:	deadbeef          	jal	t4,fffdf75a <_end+0xfffdae1a>
    4174:	deadbeef          	jal	t4,fffdf75e <_end+0xfffdae1e>
    4178:	deadbeef          	jal	t4,fffdf762 <_end+0xfffdae22>
    417c:	deadbeef          	jal	t4,fffdf766 <_end+0xfffdae26>
    4180:	deadbeef          	jal	t4,fffdf76a <_end+0xfffdae2a>
    4184:	deadbeef          	jal	t4,fffdf76e <_end+0xfffdae2e>
    4188:	deadbeef          	jal	t4,fffdf772 <_end+0xfffdae32>
    418c:	deadbeef          	jal	t4,fffdf776 <_end+0xfffdae36>
    4190:	deadbeef          	jal	t4,fffdf77a <_end+0xfffdae3a>
    4194:	deadbeef          	jal	t4,fffdf77e <_end+0xfffdae3e>
    4198:	deadbeef          	jal	t4,fffdf782 <_end+0xfffdae42>
    419c:	deadbeef          	jal	t4,fffdf786 <_end+0xfffdae46>
    41a0:	deadbeef          	jal	t4,fffdf78a <_end+0xfffdae4a>
    41a4:	deadbeef          	jal	t4,fffdf78e <_end+0xfffdae4e>
    41a8:	deadbeef          	jal	t4,fffdf792 <_end+0xfffdae52>
    41ac:	deadbeef          	jal	t4,fffdf796 <_end+0xfffdae56>
    41b0:	deadbeef          	jal	t4,fffdf79a <_end+0xfffdae5a>
    41b4:	deadbeef          	jal	t4,fffdf79e <_end+0xfffdae5e>
    41b8:	deadbeef          	jal	t4,fffdf7a2 <_end+0xfffdae62>
    41bc:	deadbeef          	jal	t4,fffdf7a6 <_end+0xfffdae66>
    41c0:	deadbeef          	jal	t4,fffdf7aa <_end+0xfffdae6a>
    41c4:	deadbeef          	jal	t4,fffdf7ae <_end+0xfffdae6e>
    41c8:	deadbeef          	jal	t4,fffdf7b2 <_end+0xfffdae72>
    41cc:	deadbeef          	jal	t4,fffdf7b6 <_end+0xfffdae76>
    41d0:	deadbeef          	jal	t4,fffdf7ba <_end+0xfffdae7a>
    41d4:	deadbeef          	jal	t4,fffdf7be <_end+0xfffdae7e>
    41d8:	deadbeef          	jal	t4,fffdf7c2 <_end+0xfffdae82>
    41dc:	deadbeef          	jal	t4,fffdf7c6 <_end+0xfffdae86>
    41e0:	deadbeef          	jal	t4,fffdf7ca <_end+0xfffdae8a>
    41e4:	deadbeef          	jal	t4,fffdf7ce <_end+0xfffdae8e>
    41e8:	deadbeef          	jal	t4,fffdf7d2 <_end+0xfffdae92>
    41ec:	deadbeef          	jal	t4,fffdf7d6 <_end+0xfffdae96>
    41f0:	deadbeef          	jal	t4,fffdf7da <_end+0xfffdae9a>
    41f4:	deadbeef          	jal	t4,fffdf7de <_end+0xfffdae9e>
    41f8:	deadbeef          	jal	t4,fffdf7e2 <_end+0xfffdaea2>
    41fc:	deadbeef          	jal	t4,fffdf7e6 <_end+0xfffdaea6>
    4200:	deadbeef          	jal	t4,fffdf7ea <_end+0xfffdaeaa>
    4204:	deadbeef          	jal	t4,fffdf7ee <_end+0xfffdaeae>
    4208:	deadbeef          	jal	t4,fffdf7f2 <_end+0xfffdaeb2>
    420c:	deadbeef          	jal	t4,fffdf7f6 <_end+0xfffdaeb6>
    4210:	deadbeef          	jal	t4,fffdf7fa <_end+0xfffdaeba>
    4214:	deadbeef          	jal	t4,fffdf7fe <_end+0xfffdaebe>
    4218:	deadbeef          	jal	t4,fffdf802 <_end+0xfffdaec2>
    421c:	deadbeef          	jal	t4,fffdf806 <_end+0xfffdaec6>
    4220:	deadbeef          	jal	t4,fffdf80a <_end+0xfffdaeca>
    4224:	deadbeef          	jal	t4,fffdf80e <_end+0xfffdaece>
    4228:	deadbeef          	jal	t4,fffdf812 <_end+0xfffdaed2>
    422c:	deadbeef          	jal	t4,fffdf816 <_end+0xfffdaed6>
    4230:	deadbeef          	jal	t4,fffdf81a <_end+0xfffdaeda>
    4234:	deadbeef          	jal	t4,fffdf81e <_end+0xfffdaede>
    4238:	deadbeef          	jal	t4,fffdf822 <_end+0xfffdaee2>
    423c:	deadbeef          	jal	t4,fffdf826 <_end+0xfffdaee6>
    4240:	deadbeef          	jal	t4,fffdf82a <_end+0xfffdaeea>
    4244:	deadbeef          	jal	t4,fffdf82e <_end+0xfffdaeee>
    4248:	deadbeef          	jal	t4,fffdf832 <_end+0xfffdaef2>
    424c:	deadbeef          	jal	t4,fffdf836 <_end+0xfffdaef6>
    4250:	deadbeef          	jal	t4,fffdf83a <_end+0xfffdaefa>
    4254:	deadbeef          	jal	t4,fffdf83e <_end+0xfffdaefe>
    4258:	deadbeef          	jal	t4,fffdf842 <_end+0xfffdaf02>
    425c:	deadbeef          	jal	t4,fffdf846 <_end+0xfffdaf06>
    4260:	deadbeef          	jal	t4,fffdf84a <_end+0xfffdaf0a>
    4264:	deadbeef          	jal	t4,fffdf84e <_end+0xfffdaf0e>
    4268:	deadbeef          	jal	t4,fffdf852 <_end+0xfffdaf12>
    426c:	deadbeef          	jal	t4,fffdf856 <_end+0xfffdaf16>
    4270:	deadbeef          	jal	t4,fffdf85a <_end+0xfffdaf1a>
    4274:	deadbeef          	jal	t4,fffdf85e <_end+0xfffdaf1e>
    4278:	deadbeef          	jal	t4,fffdf862 <_end+0xfffdaf22>
    427c:	deadbeef          	jal	t4,fffdf866 <_end+0xfffdaf26>
    4280:	deadbeef          	jal	t4,fffdf86a <_end+0xfffdaf2a>
    4284:	deadbeef          	jal	t4,fffdf86e <_end+0xfffdaf2e>
    4288:	deadbeef          	jal	t4,fffdf872 <_end+0xfffdaf32>
    428c:	deadbeef          	jal	t4,fffdf876 <_end+0xfffdaf36>
    4290:	deadbeef          	jal	t4,fffdf87a <_end+0xfffdaf3a>
    4294:	deadbeef          	jal	t4,fffdf87e <_end+0xfffdaf3e>
    4298:	deadbeef          	jal	t4,fffdf882 <_end+0xfffdaf42>
    429c:	deadbeef          	jal	t4,fffdf886 <_end+0xfffdaf46>
    42a0:	deadbeef          	jal	t4,fffdf88a <_end+0xfffdaf4a>
    42a4:	deadbeef          	jal	t4,fffdf88e <_end+0xfffdaf4e>
    42a8:	deadbeef          	jal	t4,fffdf892 <_end+0xfffdaf52>
    42ac:	deadbeef          	jal	t4,fffdf896 <_end+0xfffdaf56>
    42b0:	deadbeef          	jal	t4,fffdf89a <_end+0xfffdaf5a>
    42b4:	deadbeef          	jal	t4,fffdf89e <_end+0xfffdaf5e>
    42b8:	deadbeef          	jal	t4,fffdf8a2 <_end+0xfffdaf62>
    42bc:	deadbeef          	jal	t4,fffdf8a6 <_end+0xfffdaf66>
    42c0:	deadbeef          	jal	t4,fffdf8aa <_end+0xfffdaf6a>
    42c4:	deadbeef          	jal	t4,fffdf8ae <_end+0xfffdaf6e>
    42c8:	deadbeef          	jal	t4,fffdf8b2 <_end+0xfffdaf72>
    42cc:	deadbeef          	jal	t4,fffdf8b6 <_end+0xfffdaf76>
    42d0:	deadbeef          	jal	t4,fffdf8ba <_end+0xfffdaf7a>
    42d4:	deadbeef          	jal	t4,fffdf8be <_end+0xfffdaf7e>
    42d8:	deadbeef          	jal	t4,fffdf8c2 <_end+0xfffdaf82>
    42dc:	deadbeef          	jal	t4,fffdf8c6 <_end+0xfffdaf86>
    42e0:	deadbeef          	jal	t4,fffdf8ca <_end+0xfffdaf8a>
    42e4:	deadbeef          	jal	t4,fffdf8ce <_end+0xfffdaf8e>
    42e8:	deadbeef          	jal	t4,fffdf8d2 <_end+0xfffdaf92>
    42ec:	deadbeef          	jal	t4,fffdf8d6 <_end+0xfffdaf96>
    42f0:	deadbeef          	jal	t4,fffdf8da <_end+0xfffdaf9a>
    42f4:	deadbeef          	jal	t4,fffdf8de <_end+0xfffdaf9e>
    42f8:	deadbeef          	jal	t4,fffdf8e2 <_end+0xfffdafa2>
    42fc:	deadbeef          	jal	t4,fffdf8e6 <_end+0xfffdafa6>
    4300:	deadbeef          	jal	t4,fffdf8ea <_end+0xfffdafaa>
    4304:	deadbeef          	jal	t4,fffdf8ee <_end+0xfffdafae>
    4308:	deadbeef          	jal	t4,fffdf8f2 <_end+0xfffdafb2>
    430c:	deadbeef          	jal	t4,fffdf8f6 <_end+0xfffdafb6>
    4310:	deadbeef          	jal	t4,fffdf8fa <_end+0xfffdafba>
    4314:	deadbeef          	jal	t4,fffdf8fe <_end+0xfffdafbe>
    4318:	deadbeef          	jal	t4,fffdf902 <_end+0xfffdafc2>
    431c:	deadbeef          	jal	t4,fffdf906 <_end+0xfffdafc6>
    4320:	deadbeef          	jal	t4,fffdf90a <_end+0xfffdafca>
    4324:	deadbeef          	jal	t4,fffdf90e <_end+0xfffdafce>
    4328:	deadbeef          	jal	t4,fffdf912 <_end+0xfffdafd2>
    432c:	deadbeef          	jal	t4,fffdf916 <_end+0xfffdafd6>
    4330:	deadbeef          	jal	t4,fffdf91a <_end+0xfffdafda>
    4334:	deadbeef          	jal	t4,fffdf91e <_end+0xfffdafde>
    4338:	deadbeef          	jal	t4,fffdf922 <_end+0xfffdafe2>
    433c:	deadbeef          	jal	t4,fffdf926 <_end+0xfffdafe6>
    4340:	deadbeef          	jal	t4,fffdf92a <_end+0xfffdafea>
    4344:	deadbeef          	jal	t4,fffdf92e <_end+0xfffdafee>
    4348:	deadbeef          	jal	t4,fffdf932 <_end+0xfffdaff2>
    434c:	deadbeef          	jal	t4,fffdf936 <_end+0xfffdaff6>
    4350:	deadbeef          	jal	t4,fffdf93a <_end+0xfffdaffa>
    4354:	deadbeef          	jal	t4,fffdf93e <_end+0xfffdaffe>
    4358:	deadbeef          	jal	t4,fffdf942 <_end+0xfffdb002>
    435c:	deadbeef          	jal	t4,fffdf946 <_end+0xfffdb006>
    4360:	deadbeef          	jal	t4,fffdf94a <_end+0xfffdb00a>
    4364:	deadbeef          	jal	t4,fffdf94e <_end+0xfffdb00e>
    4368:	deadbeef          	jal	t4,fffdf952 <_end+0xfffdb012>
    436c:	deadbeef          	jal	t4,fffdf956 <_end+0xfffdb016>
    4370:	deadbeef          	jal	t4,fffdf95a <_end+0xfffdb01a>
    4374:	deadbeef          	jal	t4,fffdf95e <_end+0xfffdb01e>
    4378:	deadbeef          	jal	t4,fffdf962 <_end+0xfffdb022>
    437c:	deadbeef          	jal	t4,fffdf966 <_end+0xfffdb026>
    4380:	deadbeef          	jal	t4,fffdf96a <_end+0xfffdb02a>
    4384:	deadbeef          	jal	t4,fffdf96e <_end+0xfffdb02e>
    4388:	deadbeef          	jal	t4,fffdf972 <_end+0xfffdb032>
    438c:	deadbeef          	jal	t4,fffdf976 <_end+0xfffdb036>
    4390:	deadbeef          	jal	t4,fffdf97a <_end+0xfffdb03a>
    4394:	deadbeef          	jal	t4,fffdf97e <_end+0xfffdb03e>
    4398:	deadbeef          	jal	t4,fffdf982 <_end+0xfffdb042>
    439c:	deadbeef          	jal	t4,fffdf986 <_end+0xfffdb046>
    43a0:	deadbeef          	jal	t4,fffdf98a <_end+0xfffdb04a>
    43a4:	deadbeef          	jal	t4,fffdf98e <_end+0xfffdb04e>
    43a8:	deadbeef          	jal	t4,fffdf992 <_end+0xfffdb052>
    43ac:	deadbeef          	jal	t4,fffdf996 <_end+0xfffdb056>
    43b0:	deadbeef          	jal	t4,fffdf99a <_end+0xfffdb05a>
    43b4:	deadbeef          	jal	t4,fffdf99e <_end+0xfffdb05e>
    43b8:	deadbeef          	jal	t4,fffdf9a2 <_end+0xfffdb062>
    43bc:	deadbeef          	jal	t4,fffdf9a6 <_end+0xfffdb066>
    43c0:	deadbeef          	jal	t4,fffdf9aa <_end+0xfffdb06a>
    43c4:	deadbeef          	jal	t4,fffdf9ae <_end+0xfffdb06e>
    43c8:	deadbeef          	jal	t4,fffdf9b2 <_end+0xfffdb072>
    43cc:	deadbeef          	jal	t4,fffdf9b6 <_end+0xfffdb076>
    43d0:	deadbeef          	jal	t4,fffdf9ba <_end+0xfffdb07a>
    43d4:	deadbeef          	jal	t4,fffdf9be <_end+0xfffdb07e>
    43d8:	deadbeef          	jal	t4,fffdf9c2 <_end+0xfffdb082>
    43dc:	deadbeef          	jal	t4,fffdf9c6 <_end+0xfffdb086>
    43e0:	deadbeef          	jal	t4,fffdf9ca <_end+0xfffdb08a>
    43e4:	deadbeef          	jal	t4,fffdf9ce <_end+0xfffdb08e>
    43e8:	deadbeef          	jal	t4,fffdf9d2 <_end+0xfffdb092>
    43ec:	deadbeef          	jal	t4,fffdf9d6 <_end+0xfffdb096>
    43f0:	deadbeef          	jal	t4,fffdf9da <_end+0xfffdb09a>
    43f4:	deadbeef          	jal	t4,fffdf9de <_end+0xfffdb09e>
    43f8:	deadbeef          	jal	t4,fffdf9e2 <_end+0xfffdb0a2>
    43fc:	deadbeef          	jal	t4,fffdf9e6 <_end+0xfffdb0a6>
    4400:	deadbeef          	jal	t4,fffdf9ea <_end+0xfffdb0aa>
    4404:	deadbeef          	jal	t4,fffdf9ee <_end+0xfffdb0ae>
    4408:	deadbeef          	jal	t4,fffdf9f2 <_end+0xfffdb0b2>
    440c:	deadbeef          	jal	t4,fffdf9f6 <_end+0xfffdb0b6>
    4410:	deadbeef          	jal	t4,fffdf9fa <_end+0xfffdb0ba>
    4414:	deadbeef          	jal	t4,fffdf9fe <_end+0xfffdb0be>
    4418:	deadbeef          	jal	t4,fffdfa02 <_end+0xfffdb0c2>
    441c:	deadbeef          	jal	t4,fffdfa06 <_end+0xfffdb0c6>
    4420:	deadbeef          	jal	t4,fffdfa0a <_end+0xfffdb0ca>
    4424:	deadbeef          	jal	t4,fffdfa0e <_end+0xfffdb0ce>
    4428:	deadbeef          	jal	t4,fffdfa12 <_end+0xfffdb0d2>
    442c:	deadbeef          	jal	t4,fffdfa16 <_end+0xfffdb0d6>
    4430:	deadbeef          	jal	t4,fffdfa1a <_end+0xfffdb0da>
    4434:	deadbeef          	jal	t4,fffdfa1e <_end+0xfffdb0de>
    4438:	deadbeef          	jal	t4,fffdfa22 <_end+0xfffdb0e2>
    443c:	deadbeef          	jal	t4,fffdfa26 <_end+0xfffdb0e6>
    4440:	deadbeef          	jal	t4,fffdfa2a <_end+0xfffdb0ea>
    4444:	deadbeef          	jal	t4,fffdfa2e <_end+0xfffdb0ee>
    4448:	deadbeef          	jal	t4,fffdfa32 <_end+0xfffdb0f2>
    444c:	deadbeef          	jal	t4,fffdfa36 <_end+0xfffdb0f6>
    4450:	deadbeef          	jal	t4,fffdfa3a <_end+0xfffdb0fa>
    4454:	deadbeef          	jal	t4,fffdfa3e <_end+0xfffdb0fe>
    4458:	deadbeef          	jal	t4,fffdfa42 <_end+0xfffdb102>
    445c:	deadbeef          	jal	t4,fffdfa46 <_end+0xfffdb106>
    4460:	deadbeef          	jal	t4,fffdfa4a <_end+0xfffdb10a>
    4464:	deadbeef          	jal	t4,fffdfa4e <_end+0xfffdb10e>
    4468:	deadbeef          	jal	t4,fffdfa52 <_end+0xfffdb112>
    446c:	deadbeef          	jal	t4,fffdfa56 <_end+0xfffdb116>
    4470:	deadbeef          	jal	t4,fffdfa5a <_end+0xfffdb11a>
    4474:	deadbeef          	jal	t4,fffdfa5e <_end+0xfffdb11e>
    4478:	deadbeef          	jal	t4,fffdfa62 <_end+0xfffdb122>
    447c:	deadbeef          	jal	t4,fffdfa66 <_end+0xfffdb126>
    4480:	deadbeef          	jal	t4,fffdfa6a <_end+0xfffdb12a>
    4484:	deadbeef          	jal	t4,fffdfa6e <_end+0xfffdb12e>
    4488:	deadbeef          	jal	t4,fffdfa72 <_end+0xfffdb132>
    448c:	deadbeef          	jal	t4,fffdfa76 <_end+0xfffdb136>
    4490:	deadbeef          	jal	t4,fffdfa7a <_end+0xfffdb13a>
    4494:	deadbeef          	jal	t4,fffdfa7e <_end+0xfffdb13e>
    4498:	deadbeef          	jal	t4,fffdfa82 <_end+0xfffdb142>
    449c:	deadbeef          	jal	t4,fffdfa86 <_end+0xfffdb146>
    44a0:	deadbeef          	jal	t4,fffdfa8a <_end+0xfffdb14a>
    44a4:	deadbeef          	jal	t4,fffdfa8e <_end+0xfffdb14e>
    44a8:	deadbeef          	jal	t4,fffdfa92 <_end+0xfffdb152>
    44ac:	deadbeef          	jal	t4,fffdfa96 <_end+0xfffdb156>
    44b0:	deadbeef          	jal	t4,fffdfa9a <_end+0xfffdb15a>
    44b4:	deadbeef          	jal	t4,fffdfa9e <_end+0xfffdb15e>
    44b8:	deadbeef          	jal	t4,fffdfaa2 <_end+0xfffdb162>
    44bc:	deadbeef          	jal	t4,fffdfaa6 <_end+0xfffdb166>
    44c0:	deadbeef          	jal	t4,fffdfaaa <_end+0xfffdb16a>
    44c4:	deadbeef          	jal	t4,fffdfaae <_end+0xfffdb16e>
    44c8:	deadbeef          	jal	t4,fffdfab2 <_end+0xfffdb172>
    44cc:	deadbeef          	jal	t4,fffdfab6 <_end+0xfffdb176>
    44d0:	deadbeef          	jal	t4,fffdfaba <_end+0xfffdb17a>
    44d4:	deadbeef          	jal	t4,fffdfabe <_end+0xfffdb17e>
    44d8:	deadbeef          	jal	t4,fffdfac2 <_end+0xfffdb182>
    44dc:	deadbeef          	jal	t4,fffdfac6 <_end+0xfffdb186>
    44e0:	deadbeef          	jal	t4,fffdfaca <_end+0xfffdb18a>
    44e4:	deadbeef          	jal	t4,fffdface <_end+0xfffdb18e>
    44e8:	deadbeef          	jal	t4,fffdfad2 <_end+0xfffdb192>
    44ec:	deadbeef          	jal	t4,fffdfad6 <_end+0xfffdb196>
    44f0:	deadbeef          	jal	t4,fffdfada <_end+0xfffdb19a>
    44f4:	deadbeef          	jal	t4,fffdfade <_end+0xfffdb19e>
    44f8:	deadbeef          	jal	t4,fffdfae2 <_end+0xfffdb1a2>
    44fc:	deadbeef          	jal	t4,fffdfae6 <_end+0xfffdb1a6>
    4500:	deadbeef          	jal	t4,fffdfaea <_end+0xfffdb1aa>
    4504:	deadbeef          	jal	t4,fffdfaee <_end+0xfffdb1ae>
    4508:	deadbeef          	jal	t4,fffdfaf2 <_end+0xfffdb1b2>
    450c:	deadbeef          	jal	t4,fffdfaf6 <_end+0xfffdb1b6>
    4510:	deadbeef          	jal	t4,fffdfafa <_end+0xfffdb1ba>
    4514:	deadbeef          	jal	t4,fffdfafe <_end+0xfffdb1be>
    4518:	deadbeef          	jal	t4,fffdfb02 <_end+0xfffdb1c2>
    451c:	deadbeef          	jal	t4,fffdfb06 <_end+0xfffdb1c6>
    4520:	deadbeef          	jal	t4,fffdfb0a <_end+0xfffdb1ca>
    4524:	deadbeef          	jal	t4,fffdfb0e <_end+0xfffdb1ce>
    4528:	deadbeef          	jal	t4,fffdfb12 <_end+0xfffdb1d2>
    452c:	deadbeef          	jal	t4,fffdfb16 <_end+0xfffdb1d6>
    4530:	deadbeef          	jal	t4,fffdfb1a <_end+0xfffdb1da>
    4534:	deadbeef          	jal	t4,fffdfb1e <_end+0xfffdb1de>
    4538:	deadbeef          	jal	t4,fffdfb22 <_end+0xfffdb1e2>
    453c:	deadbeef          	jal	t4,fffdfb26 <_end+0xfffdb1e6>
    4540:	deadbeef          	jal	t4,fffdfb2a <_end+0xfffdb1ea>
    4544:	deadbeef          	jal	t4,fffdfb2e <_end+0xfffdb1ee>
    4548:	deadbeef          	jal	t4,fffdfb32 <_end+0xfffdb1f2>
    454c:	deadbeef          	jal	t4,fffdfb36 <_end+0xfffdb1f6>
    4550:	deadbeef          	jal	t4,fffdfb3a <_end+0xfffdb1fa>
    4554:	deadbeef          	jal	t4,fffdfb3e <_end+0xfffdb1fe>
    4558:	deadbeef          	jal	t4,fffdfb42 <_end+0xfffdb202>
    455c:	deadbeef          	jal	t4,fffdfb46 <_end+0xfffdb206>
    4560:	deadbeef          	jal	t4,fffdfb4a <_end+0xfffdb20a>
    4564:	deadbeef          	jal	t4,fffdfb4e <_end+0xfffdb20e>
    4568:	deadbeef          	jal	t4,fffdfb52 <_end+0xfffdb212>
    456c:	deadbeef          	jal	t4,fffdfb56 <_end+0xfffdb216>
    4570:	deadbeef          	jal	t4,fffdfb5a <_end+0xfffdb21a>
    4574:	deadbeef          	jal	t4,fffdfb5e <_end+0xfffdb21e>
    4578:	deadbeef          	jal	t4,fffdfb62 <_end+0xfffdb222>
    457c:	deadbeef          	jal	t4,fffdfb66 <_end+0xfffdb226>
    4580:	deadbeef          	jal	t4,fffdfb6a <_end+0xfffdb22a>
    4584:	deadbeef          	jal	t4,fffdfb6e <_end+0xfffdb22e>
    4588:	deadbeef          	jal	t4,fffdfb72 <_end+0xfffdb232>
    458c:	deadbeef          	jal	t4,fffdfb76 <_end+0xfffdb236>
    4590:	deadbeef          	jal	t4,fffdfb7a <_end+0xfffdb23a>
    4594:	deadbeef          	jal	t4,fffdfb7e <_end+0xfffdb23e>
    4598:	deadbeef          	jal	t4,fffdfb82 <_end+0xfffdb242>
    459c:	deadbeef          	jal	t4,fffdfb86 <_end+0xfffdb246>
    45a0:	deadbeef          	jal	t4,fffdfb8a <_end+0xfffdb24a>
    45a4:	deadbeef          	jal	t4,fffdfb8e <_end+0xfffdb24e>
    45a8:	deadbeef          	jal	t4,fffdfb92 <_end+0xfffdb252>
    45ac:	deadbeef          	jal	t4,fffdfb96 <_end+0xfffdb256>
    45b0:	deadbeef          	jal	t4,fffdfb9a <_end+0xfffdb25a>
    45b4:	deadbeef          	jal	t4,fffdfb9e <_end+0xfffdb25e>
    45b8:	deadbeef          	jal	t4,fffdfba2 <_end+0xfffdb262>
    45bc:	deadbeef          	jal	t4,fffdfba6 <_end+0xfffdb266>
    45c0:	deadbeef          	jal	t4,fffdfbaa <_end+0xfffdb26a>
    45c4:	deadbeef          	jal	t4,fffdfbae <_end+0xfffdb26e>
    45c8:	deadbeef          	jal	t4,fffdfbb2 <_end+0xfffdb272>
    45cc:	deadbeef          	jal	t4,fffdfbb6 <_end+0xfffdb276>
    45d0:	deadbeef          	jal	t4,fffdfbba <_end+0xfffdb27a>
    45d4:	deadbeef          	jal	t4,fffdfbbe <_end+0xfffdb27e>
    45d8:	deadbeef          	jal	t4,fffdfbc2 <_end+0xfffdb282>
    45dc:	deadbeef          	jal	t4,fffdfbc6 <_end+0xfffdb286>
    45e0:	deadbeef          	jal	t4,fffdfbca <_end+0xfffdb28a>
    45e4:	deadbeef          	jal	t4,fffdfbce <_end+0xfffdb28e>
    45e8:	deadbeef          	jal	t4,fffdfbd2 <_end+0xfffdb292>
    45ec:	deadbeef          	jal	t4,fffdfbd6 <_end+0xfffdb296>
    45f0:	deadbeef          	jal	t4,fffdfbda <_end+0xfffdb29a>
    45f4:	deadbeef          	jal	t4,fffdfbde <_end+0xfffdb29e>
    45f8:	deadbeef          	jal	t4,fffdfbe2 <_end+0xfffdb2a2>
    45fc:	deadbeef          	jal	t4,fffdfbe6 <_end+0xfffdb2a6>
    4600:	deadbeef          	jal	t4,fffdfbea <_end+0xfffdb2aa>
    4604:	deadbeef          	jal	t4,fffdfbee <_end+0xfffdb2ae>
    4608:	deadbeef          	jal	t4,fffdfbf2 <_end+0xfffdb2b2>
    460c:	deadbeef          	jal	t4,fffdfbf6 <_end+0xfffdb2b6>
    4610:	deadbeef          	jal	t4,fffdfbfa <_end+0xfffdb2ba>
    4614:	deadbeef          	jal	t4,fffdfbfe <_end+0xfffdb2be>
    4618:	deadbeef          	jal	t4,fffdfc02 <_end+0xfffdb2c2>
    461c:	deadbeef          	jal	t4,fffdfc06 <_end+0xfffdb2c6>
    4620:	deadbeef          	jal	t4,fffdfc0a <_end+0xfffdb2ca>
    4624:	deadbeef          	jal	t4,fffdfc0e <_end+0xfffdb2ce>
    4628:	deadbeef          	jal	t4,fffdfc12 <_end+0xfffdb2d2>
    462c:	deadbeef          	jal	t4,fffdfc16 <_end+0xfffdb2d6>
    4630:	deadbeef          	jal	t4,fffdfc1a <_end+0xfffdb2da>
    4634:	deadbeef          	jal	t4,fffdfc1e <_end+0xfffdb2de>
    4638:	deadbeef          	jal	t4,fffdfc22 <_end+0xfffdb2e2>
    463c:	deadbeef          	jal	t4,fffdfc26 <_end+0xfffdb2e6>
    4640:	deadbeef          	jal	t4,fffdfc2a <_end+0xfffdb2ea>
    4644:	deadbeef          	jal	t4,fffdfc2e <_end+0xfffdb2ee>
    4648:	deadbeef          	jal	t4,fffdfc32 <_end+0xfffdb2f2>
    464c:	deadbeef          	jal	t4,fffdfc36 <_end+0xfffdb2f6>
    4650:	deadbeef          	jal	t4,fffdfc3a <_end+0xfffdb2fa>
    4654:	deadbeef          	jal	t4,fffdfc3e <_end+0xfffdb2fe>
    4658:	deadbeef          	jal	t4,fffdfc42 <_end+0xfffdb302>
    465c:	deadbeef          	jal	t4,fffdfc46 <_end+0xfffdb306>
    4660:	deadbeef          	jal	t4,fffdfc4a <_end+0xfffdb30a>
    4664:	deadbeef          	jal	t4,fffdfc4e <_end+0xfffdb30e>
    4668:	deadbeef          	jal	t4,fffdfc52 <_end+0xfffdb312>
    466c:	deadbeef          	jal	t4,fffdfc56 <_end+0xfffdb316>
    4670:	deadbeef          	jal	t4,fffdfc5a <_end+0xfffdb31a>
    4674:	deadbeef          	jal	t4,fffdfc5e <_end+0xfffdb31e>
    4678:	deadbeef          	jal	t4,fffdfc62 <_end+0xfffdb322>
    467c:	deadbeef          	jal	t4,fffdfc66 <_end+0xfffdb326>
    4680:	deadbeef          	jal	t4,fffdfc6a <_end+0xfffdb32a>
    4684:	deadbeef          	jal	t4,fffdfc6e <_end+0xfffdb32e>
    4688:	deadbeef          	jal	t4,fffdfc72 <_end+0xfffdb332>
    468c:	deadbeef          	jal	t4,fffdfc76 <_end+0xfffdb336>
    4690:	deadbeef          	jal	t4,fffdfc7a <_end+0xfffdb33a>
    4694:	deadbeef          	jal	t4,fffdfc7e <_end+0xfffdb33e>
    4698:	deadbeef          	jal	t4,fffdfc82 <_end+0xfffdb342>
    469c:	deadbeef          	jal	t4,fffdfc86 <_end+0xfffdb346>
    46a0:	deadbeef          	jal	t4,fffdfc8a <_end+0xfffdb34a>
    46a4:	deadbeef          	jal	t4,fffdfc8e <_end+0xfffdb34e>
    46a8:	deadbeef          	jal	t4,fffdfc92 <_end+0xfffdb352>
    46ac:	deadbeef          	jal	t4,fffdfc96 <_end+0xfffdb356>
    46b0:	deadbeef          	jal	t4,fffdfc9a <_end+0xfffdb35a>
    46b4:	deadbeef          	jal	t4,fffdfc9e <_end+0xfffdb35e>
    46b8:	deadbeef          	jal	t4,fffdfca2 <_end+0xfffdb362>
    46bc:	deadbeef          	jal	t4,fffdfca6 <_end+0xfffdb366>
    46c0:	deadbeef          	jal	t4,fffdfcaa <_end+0xfffdb36a>
    46c4:	deadbeef          	jal	t4,fffdfcae <_end+0xfffdb36e>
    46c8:	deadbeef          	jal	t4,fffdfcb2 <_end+0xfffdb372>
    46cc:	deadbeef          	jal	t4,fffdfcb6 <_end+0xfffdb376>
    46d0:	deadbeef          	jal	t4,fffdfcba <_end+0xfffdb37a>
    46d4:	deadbeef          	jal	t4,fffdfcbe <_end+0xfffdb37e>
    46d8:	deadbeef          	jal	t4,fffdfcc2 <_end+0xfffdb382>
    46dc:	deadbeef          	jal	t4,fffdfcc6 <_end+0xfffdb386>
    46e0:	deadbeef          	jal	t4,fffdfcca <_end+0xfffdb38a>
    46e4:	deadbeef          	jal	t4,fffdfcce <_end+0xfffdb38e>
    46e8:	deadbeef          	jal	t4,fffdfcd2 <_end+0xfffdb392>
    46ec:	deadbeef          	jal	t4,fffdfcd6 <_end+0xfffdb396>
    46f0:	deadbeef          	jal	t4,fffdfcda <_end+0xfffdb39a>
    46f4:	deadbeef          	jal	t4,fffdfcde <_end+0xfffdb39e>
    46f8:	deadbeef          	jal	t4,fffdfce2 <_end+0xfffdb3a2>
    46fc:	deadbeef          	jal	t4,fffdfce6 <_end+0xfffdb3a6>
    4700:	deadbeef          	jal	t4,fffdfcea <_end+0xfffdb3aa>
    4704:	deadbeef          	jal	t4,fffdfcee <_end+0xfffdb3ae>
    4708:	deadbeef          	jal	t4,fffdfcf2 <_end+0xfffdb3b2>
    470c:	deadbeef          	jal	t4,fffdfcf6 <_end+0xfffdb3b6>
    4710:	deadbeef          	jal	t4,fffdfcfa <_end+0xfffdb3ba>
    4714:	deadbeef          	jal	t4,fffdfcfe <_end+0xfffdb3be>
    4718:	deadbeef          	jal	t4,fffdfd02 <_end+0xfffdb3c2>
    471c:	deadbeef          	jal	t4,fffdfd06 <_end+0xfffdb3c6>
    4720:	deadbeef          	jal	t4,fffdfd0a <_end+0xfffdb3ca>
    4724:	deadbeef          	jal	t4,fffdfd0e <_end+0xfffdb3ce>
    4728:	deadbeef          	jal	t4,fffdfd12 <_end+0xfffdb3d2>
    472c:	deadbeef          	jal	t4,fffdfd16 <_end+0xfffdb3d6>
    4730:	deadbeef          	jal	t4,fffdfd1a <_end+0xfffdb3da>
    4734:	deadbeef          	jal	t4,fffdfd1e <_end+0xfffdb3de>
    4738:	deadbeef          	jal	t4,fffdfd22 <_end+0xfffdb3e2>
    473c:	deadbeef          	jal	t4,fffdfd26 <_end+0xfffdb3e6>
    4740:	deadbeef          	jal	t4,fffdfd2a <_end+0xfffdb3ea>
    4744:	deadbeef          	jal	t4,fffdfd2e <_end+0xfffdb3ee>
    4748:	deadbeef          	jal	t4,fffdfd32 <_end+0xfffdb3f2>
    474c:	deadbeef          	jal	t4,fffdfd36 <_end+0xfffdb3f6>
    4750:	deadbeef          	jal	t4,fffdfd3a <_end+0xfffdb3fa>
    4754:	deadbeef          	jal	t4,fffdfd3e <_end+0xfffdb3fe>
    4758:	deadbeef          	jal	t4,fffdfd42 <_end+0xfffdb402>
    475c:	deadbeef          	jal	t4,fffdfd46 <_end+0xfffdb406>
    4760:	deadbeef          	jal	t4,fffdfd4a <_end+0xfffdb40a>
    4764:	deadbeef          	jal	t4,fffdfd4e <_end+0xfffdb40e>
    4768:	deadbeef          	jal	t4,fffdfd52 <_end+0xfffdb412>
    476c:	deadbeef          	jal	t4,fffdfd56 <_end+0xfffdb416>
    4770:	deadbeef          	jal	t4,fffdfd5a <_end+0xfffdb41a>
    4774:	deadbeef          	jal	t4,fffdfd5e <_end+0xfffdb41e>
    4778:	deadbeef          	jal	t4,fffdfd62 <_end+0xfffdb422>
    477c:	deadbeef          	jal	t4,fffdfd66 <_end+0xfffdb426>
    4780:	deadbeef          	jal	t4,fffdfd6a <_end+0xfffdb42a>
    4784:	deadbeef          	jal	t4,fffdfd6e <_end+0xfffdb42e>
    4788:	deadbeef          	jal	t4,fffdfd72 <_end+0xfffdb432>
    478c:	deadbeef          	jal	t4,fffdfd76 <_end+0xfffdb436>
    4790:	deadbeef          	jal	t4,fffdfd7a <_end+0xfffdb43a>
    4794:	deadbeef          	jal	t4,fffdfd7e <_end+0xfffdb43e>
    4798:	deadbeef          	jal	t4,fffdfd82 <_end+0xfffdb442>
    479c:	deadbeef          	jal	t4,fffdfd86 <_end+0xfffdb446>
    47a0:	deadbeef          	jal	t4,fffdfd8a <_end+0xfffdb44a>
    47a4:	deadbeef          	jal	t4,fffdfd8e <_end+0xfffdb44e>
    47a8:	deadbeef          	jal	t4,fffdfd92 <_end+0xfffdb452>
    47ac:	deadbeef          	jal	t4,fffdfd96 <_end+0xfffdb456>
    47b0:	deadbeef          	jal	t4,fffdfd9a <_end+0xfffdb45a>
    47b4:	deadbeef          	jal	t4,fffdfd9e <_end+0xfffdb45e>
    47b8:	deadbeef          	jal	t4,fffdfda2 <_end+0xfffdb462>
    47bc:	deadbeef          	jal	t4,fffdfda6 <_end+0xfffdb466>
    47c0:	deadbeef          	jal	t4,fffdfdaa <_end+0xfffdb46a>
    47c4:	deadbeef          	jal	t4,fffdfdae <_end+0xfffdb46e>
    47c8:	deadbeef          	jal	t4,fffdfdb2 <_end+0xfffdb472>
    47cc:	deadbeef          	jal	t4,fffdfdb6 <_end+0xfffdb476>
    47d0:	deadbeef          	jal	t4,fffdfdba <_end+0xfffdb47a>
    47d4:	deadbeef          	jal	t4,fffdfdbe <_end+0xfffdb47e>
    47d8:	deadbeef          	jal	t4,fffdfdc2 <_end+0xfffdb482>
    47dc:	deadbeef          	jal	t4,fffdfdc6 <_end+0xfffdb486>
    47e0:	deadbeef          	jal	t4,fffdfdca <_end+0xfffdb48a>
    47e4:	deadbeef          	jal	t4,fffdfdce <_end+0xfffdb48e>
    47e8:	deadbeef          	jal	t4,fffdfdd2 <_end+0xfffdb492>
    47ec:	deadbeef          	jal	t4,fffdfdd6 <_end+0xfffdb496>
    47f0:	deadbeef          	jal	t4,fffdfdda <_end+0xfffdb49a>
    47f4:	deadbeef          	jal	t4,fffdfdde <_end+0xfffdb49e>
    47f8:	deadbeef          	jal	t4,fffdfde2 <_end+0xfffdb4a2>
    47fc:	deadbeef          	jal	t4,fffdfde6 <_end+0xfffdb4a6>
    4800:	deadbeef          	jal	t4,fffdfdea <_end+0xfffdb4aa>
    4804:	deadbeef          	jal	t4,fffdfdee <_end+0xfffdb4ae>
    4808:	deadbeef          	jal	t4,fffdfdf2 <_end+0xfffdb4b2>
    480c:	deadbeef          	jal	t4,fffdfdf6 <_end+0xfffdb4b6>
    4810:	deadbeef          	jal	t4,fffdfdfa <_end+0xfffdb4ba>
    4814:	deadbeef          	jal	t4,fffdfdfe <_end+0xfffdb4be>
    4818:	deadbeef          	jal	t4,fffdfe02 <_end+0xfffdb4c2>
    481c:	deadbeef          	jal	t4,fffdfe06 <_end+0xfffdb4c6>
    4820:	deadbeef          	jal	t4,fffdfe0a <_end+0xfffdb4ca>
    4824:	deadbeef          	jal	t4,fffdfe0e <_end+0xfffdb4ce>
    4828:	deadbeef          	jal	t4,fffdfe12 <_end+0xfffdb4d2>
    482c:	deadbeef          	jal	t4,fffdfe16 <_end+0xfffdb4d6>
    4830:	deadbeef          	jal	t4,fffdfe1a <_end+0xfffdb4da>
    4834:	deadbeef          	jal	t4,fffdfe1e <_end+0xfffdb4de>
    4838:	deadbeef          	jal	t4,fffdfe22 <_end+0xfffdb4e2>
    483c:	deadbeef          	jal	t4,fffdfe26 <_end+0xfffdb4e6>
    4840:	deadbeef          	jal	t4,fffdfe2a <_end+0xfffdb4ea>
    4844:	deadbeef          	jal	t4,fffdfe2e <_end+0xfffdb4ee>
    4848:	deadbeef          	jal	t4,fffdfe32 <_end+0xfffdb4f2>
    484c:	deadbeef          	jal	t4,fffdfe36 <_end+0xfffdb4f6>
    4850:	deadbeef          	jal	t4,fffdfe3a <_end+0xfffdb4fa>
    4854:	deadbeef          	jal	t4,fffdfe3e <_end+0xfffdb4fe>
    4858:	deadbeef          	jal	t4,fffdfe42 <_end+0xfffdb502>
    485c:	deadbeef          	jal	t4,fffdfe46 <_end+0xfffdb506>
    4860:	deadbeef          	jal	t4,fffdfe4a <_end+0xfffdb50a>
    4864:	deadbeef          	jal	t4,fffdfe4e <_end+0xfffdb50e>
    4868:	deadbeef          	jal	t4,fffdfe52 <_end+0xfffdb512>
    486c:	deadbeef          	jal	t4,fffdfe56 <_end+0xfffdb516>
    4870:	deadbeef          	jal	t4,fffdfe5a <_end+0xfffdb51a>
    4874:	deadbeef          	jal	t4,fffdfe5e <_end+0xfffdb51e>
    4878:	deadbeef          	jal	t4,fffdfe62 <_end+0xfffdb522>
    487c:	deadbeef          	jal	t4,fffdfe66 <_end+0xfffdb526>
    4880:	deadbeef          	jal	t4,fffdfe6a <_end+0xfffdb52a>
    4884:	deadbeef          	jal	t4,fffdfe6e <_end+0xfffdb52e>
    4888:	deadbeef          	jal	t4,fffdfe72 <_end+0xfffdb532>

0000488c <signature_x1_1>:
    488c:	deadbeef          	jal	t4,fffdfe76 <_end+0xfffdb536>
    4890:	deadbeef          	jal	t4,fffdfe7a <_end+0xfffdb53a>
    4894:	deadbeef          	jal	t4,fffdfe7e <_end+0xfffdb53e>
    4898:	deadbeef          	jal	t4,fffdfe82 <_end+0xfffdb542>
    489c:	deadbeef          	jal	t4,fffdfe86 <_end+0xfffdb546>
    48a0:	deadbeef          	jal	t4,fffdfe8a <_end+0xfffdb54a>
    48a4:	deadbeef          	jal	t4,fffdfe8e <_end+0xfffdb54e>
    48a8:	deadbeef          	jal	t4,fffdfe92 <_end+0xfffdb552>
    48ac:	deadbeef          	jal	t4,fffdfe96 <_end+0xfffdb556>
    48b0:	deadbeef          	jal	t4,fffdfe9a <_end+0xfffdb55a>
    48b4:	deadbeef          	jal	t4,fffdfe9e <_end+0xfffdb55e>
    48b8:	deadbeef          	jal	t4,fffdfea2 <_end+0xfffdb562>
    48bc:	deadbeef          	jal	t4,fffdfea6 <_end+0xfffdb566>
    48c0:	deadbeef          	jal	t4,fffdfeaa <_end+0xfffdb56a>
    48c4:	deadbeef          	jal	t4,fffdfeae <_end+0xfffdb56e>
    48c8:	deadbeef          	jal	t4,fffdfeb2 <_end+0xfffdb572>
    48cc:	deadbeef          	jal	t4,fffdfeb6 <_end+0xfffdb576>
    48d0:	deadbeef          	jal	t4,fffdfeba <_end+0xfffdb57a>
    48d4:	deadbeef          	jal	t4,fffdfebe <_end+0xfffdb57e>
    48d8:	deadbeef          	jal	t4,fffdfec2 <_end+0xfffdb582>
    48dc:	deadbeef          	jal	t4,fffdfec6 <_end+0xfffdb586>
    48e0:	deadbeef          	jal	t4,fffdfeca <_end+0xfffdb58a>
    48e4:	deadbeef          	jal	t4,fffdfece <_end+0xfffdb58e>
    48e8:	deadbeef          	jal	t4,fffdfed2 <_end+0xfffdb592>
    48ec:	deadbeef          	jal	t4,fffdfed6 <_end+0xfffdb596>
    48f0:	deadbeef          	jal	t4,fffdfeda <_end+0xfffdb59a>
    48f4:	deadbeef          	jal	t4,fffdfede <_end+0xfffdb59e>
    48f8:	deadbeef          	jal	t4,fffdfee2 <_end+0xfffdb5a2>
    48fc:	deadbeef          	jal	t4,fffdfee6 <_end+0xfffdb5a6>
    4900:	deadbeef          	jal	t4,fffdfeea <_end+0xfffdb5aa>
    4904:	deadbeef          	jal	t4,fffdfeee <_end+0xfffdb5ae>
    4908:	deadbeef          	jal	t4,fffdfef2 <_end+0xfffdb5b2>
    490c:	deadbeef          	jal	t4,fffdfef6 <_end+0xfffdb5b6>
    4910:	deadbeef          	jal	t4,fffdfefa <_end+0xfffdb5ba>
    4914:	deadbeef          	jal	t4,fffdfefe <_end+0xfffdb5be>
    4918:	deadbeef          	jal	t4,fffdff02 <_end+0xfffdb5c2>
    491c:	deadbeef          	jal	t4,fffdff06 <_end+0xfffdb5c6>
    4920:	deadbeef          	jal	t4,fffdff0a <_end+0xfffdb5ca>
    4924:	deadbeef          	jal	t4,fffdff0e <_end+0xfffdb5ce>
    4928:	deadbeef          	jal	t4,fffdff12 <_end+0xfffdb5d2>
    492c:	deadbeef          	jal	t4,fffdff16 <_end+0xfffdb5d6>
    4930:	deadbeef          	jal	t4,fffdff1a <_end+0xfffdb5da>
	...

Desensamblado de la sección .riscv.attributes:

00000000 <.riscv.attributes>:
   0:	3541                	jal	fffffe80 <_end+0xffffb540>
   2:	0000                	unimp
   4:	7200                	.2byte	0x7200
   6:	7369                	lui	t1,0xffffa
   8:	01007663          	bgeu	zero,a6,14 <rvtest_entry_point+0x14>
   c:	0000002b          	.4byte	0x2b
  10:	7205                	lui	tp,0xfffe1
  12:	3376                	.2byte	0x3376
  14:	6932                	.2byte	0x6932
  16:	7032                	.2byte	0x7032
  18:	5f30                	lw	a2,120(a4)
  1a:	326d                	jal	fffff9c4 <_end+0xffffb084>
  1c:	3070                	.2byte	0x3070
  1e:	635f 7032 5f30      	.byte	0x5f, 0x63, 0x32, 0x70, 0x30, 0x5f
  24:	6d7a                	.2byte	0x6d7a
  26:	756d                	lui	a0,0xffffb
  28:	316c                	.2byte	0x316c
  2a:	3070                	.2byte	0x3070
  2c:	7a5f 6966 786e      	.byte	0x5f, 0x7a, 0x66, 0x69, 0x6e, 0x78
  32:	7031                	c.lui	zero,0xfffec
  34:	0030                	add	a2,sp,8
