
/home/alejandro/Escritorio/test_riscv2.5/riscv-compliance/work/rv32i_m/M/remu-01.elf:     formato del fichero elf32-littleriscv


Desensamblado de la sección .text.init:

00000000 <rvtest_entry_point>:
       0:	feedc0b7          	lui	ra,0xfeedc
       4:	ead08093          	add	ra,ra,-339 # feedbead <_end+0xfeed734d>
       8:	ff76e137          	lui	sp,0xff76e
       c:	f5610113          	add	sp,sp,-170 # ff76df56 <_end+0xff7693f6>
      10:	7fbb71b7          	lui	gp,0x7fbb7
      14:	fab18193          	add	gp,gp,-85 # 7fbb6fab <_end+0x7fbb244b>
      18:	bfddb237          	lui	tp,0xbfddb
      1c:	7d520213          	add	tp,tp,2005 # bfddb7d5 <_end+0xbfdd6c75>
      20:	00000297          	auipc	t0,0x0
      24:	0d828293          	add	t0,t0,216 # f8 <rvtest_code_begin>
      28:	00004317          	auipc	t1,0x4
      2c:	fd830313          	add	t1,t1,-40 # 4000 <rvtest_data_begin>
      30:	b7fbb3b7          	lui	t2,0xb7fbb
      34:	6fa38393          	add	t2,t2,1786 # b7fbb6fa <_end+0xb7fb6b9a>
      38:	5bfde437          	lui	s0,0x5bfde
      3c:	b7d40413          	add	s0,s0,-1155 # 5bfddb7d <_end+0x5bfd901d>
      40:	adfef4b7          	lui	s1,0xadfef
      44:	dbe48493          	add	s1,s1,-578 # adfeedbe <_end+0xadfea25e>
      48:	56ff7537          	lui	a0,0x56ff7
      4c:	6df50513          	add	a0,a0,1759 # 56ff76df <_end+0x56ff2b7f>
      50:	ab7fc5b7          	lui	a1,0xab7fc
      54:	b6f58593          	add	a1,a1,-1169 # ab7fbb6f <_end+0xab7f700f>
      58:	d5bfe637          	lui	a2,0xd5bfe
      5c:	db760613          	add	a2,a2,-585 # d5bfddb7 <_end+0xd5bf9257>
      60:	eadff6b7          	lui	a3,0xeadff
      64:	edb68693          	add	a3,a3,-293 # eadfeedb <_end+0xeadfa37b>
      68:	f56ff737          	lui	a4,0xf56ff
      6c:	76d70713          	add	a4,a4,1901 # f56ff76d <_end+0xf56fac0d>
      70:	fab807b7          	lui	a5,0xfab80
      74:	bb678793          	add	a5,a5,-1098 # fab7fbb6 <_end+0xfab7b056>
      78:	7d5c0837          	lui	a6,0x7d5c0
      7c:	ddb80813          	add	a6,a6,-549 # 7d5bfddb <_end+0x7d5bb27b>
      80:	beae08b7          	lui	a7,0xbeae0
      84:	eed88893          	add	a7,a7,-275 # beadfeed <_end+0xbeadb38d>
      88:	df570937          	lui	s2,0xdf570
      8c:	f7690913          	add	s2,s2,-138 # df56ff76 <_end+0xdf56b416>
      90:	6fab89b7          	lui	s3,0x6fab8
      94:	fbb98993          	add	s3,s3,-69 # 6fab7fbb <_end+0x6fab345b>
      98:	b7d5ca37          	lui	s4,0xb7d5c
      9c:	fdda0a13          	add	s4,s4,-35 # b7d5bfdd <_end+0xb7d5747d>
      a0:	dbeaeab7          	lui	s5,0xdbeae
      a4:	feea8a93          	add	s5,s5,-18 # dbeadfee <_end+0xdbea948e>
      a8:	6df57b37          	lui	s6,0x6df57
      ac:	ff7b0b13          	add	s6,s6,-9 # 6df56ff7 <_end+0x6df52497>
      b0:	b6fabbb7          	lui	s7,0xb6fab
      b4:	7fbb8b93          	add	s7,s7,2043 # b6fab7fb <_end+0xb6fa6c9b>
      b8:	db7d6c37          	lui	s8,0xdb7d6
      bc:	bfdc0c13          	add	s8,s8,-1027 # db7d5bfd <_end+0xdb7d109d>
      c0:	edbebcb7          	lui	s9,0xedbeb
      c4:	dfec8c93          	add	s9,s9,-514 # edbeadfe <_end+0xedbe629e>
      c8:	76df5d37          	lui	s10,0x76df5
      cc:	6ffd0d13          	add	s10,s10,1791 # 76df56ff <_end+0x76df0b9f>
      d0:	bb6fbdb7          	lui	s11,0xbb6fb
      d4:	b7fd8d93          	add	s11,s11,-1153 # bb6fab7f <_end+0xbb6f601f>
      d8:	ddb7de37          	lui	t3,0xddb7d
      dc:	5bfe0e13          	add	t3,t3,1471 # ddb7d5bf <_end+0xddb78a5f>
      e0:	eedbfeb7          	lui	t4,0xeedbf
      e4:	adfe8e93          	add	t4,t4,-1313 # eedbeadf <_end+0xeedb9f7f>
      e8:	f76dff37          	lui	t5,0xf76df
      ec:	56ff0f13          	add	t5,t5,1391 # f76df56f <_end+0xf76daa0f>
      f0:	fbb70fb7          	lui	t6,0xfbb70
      f4:	ab7f8f93          	add	t6,t6,-1353 # fbb6fab7 <_end+0xfbb6af57>

000000f8 <rvtest_code_begin>:
      f8:	00004997          	auipc	s3,0x4
      fc:	f1898993          	add	s3,s3,-232 # 4010 <data_begin>

00000100 <inst_0>:
     100:	fff803b7          	lui	t2,0xfff80
     104:	fff38393          	add	t2,t2,-1 # fff7ffff <_end+0xfff7b49f>
     108:	c0000ab7          	lui	s5,0xc0000
     10c:	fffa8a93          	add	s5,s5,-1 # bfffffff <_end+0xbfffb49f>
     110:	0353f3b3          	remu	t2,t2,s5
     114:	0079a023          	sw	t2,0(s3)

00000118 <inst_1>:
     118:	008004b7          	lui	s1,0x800
     11c:	008004b7          	lui	s1,0x800
     120:	0294ff33          	remu	t5,s1,s1
     124:	01e9a223          	sw	t5,4(s3)

00000128 <inst_2>:
     128:	bff00d13          	li	s10,-1025
     12c:	00000313          	li	t1,0
     130:	026d7333          	remu	t1,s10,t1
     134:	0069a423          	sw	t1,8(s3)

00000138 <inst_3>:
     138:	40000893          	li	a7,1024
     13c:	fff00113          	li	sp,-1
     140:	0228fcb3          	remu	s9,a7,sp
     144:	0199a623          	sw	s9,12(s3)

00000148 <inst_4>:
     148:	aaaab837          	lui	a6,0xaaaab
     14c:	aaa80813          	add	a6,a6,-1366 # aaaaaaaa <_end+0xaaaa5f4a>
     150:	aaaab837          	lui	a6,0xaaaab
     154:	aaa80813          	add	a6,a6,-1366 # aaaaaaaa <_end+0xaaaa5f4a>
     158:	03087833          	remu	a6,a6,a6
     15c:	0109a823          	sw	a6,16(s3)

00000160 <inst_5>:
     160:	00000113          	li	sp,0
     164:	666660b7          	lui	ra,0x66666
     168:	66608093          	add	ra,ra,1638 # 66666666 <_end+0x66661b06>
     16c:	021172b3          	remu	t0,sp,ra
     170:	0059aa23          	sw	t0,20(s3)

00000174 <inst_6>:
     174:	fff00093          	li	ra,-1
     178:	ffb00d13          	li	s10,-5
     17c:	03a0f7b3          	remu	a5,ra,s10
     180:	00f9ac23          	sw	a5,24(s3)

00000184 <inst_7>:
     184:	00100e93          	li	t4,1
     188:	ffff87b7          	lui	a5,0xffff8
     18c:	fff78793          	add	a5,a5,-1 # ffff7fff <_end+0xffff349f>
     190:	02fef033          	remu	zero,t4,a5
     194:	0009ae23          	sw	zero,28(s3)

00000198 <inst_8>:
     198:	000017b7          	lui	a5,0x1
     19c:	00200f93          	li	t6,2
     1a0:	03f7fe33          	remu	t3,a5,t6
     1a4:	03c9a023          	sw	t3,32(s3)

000001a8 <inst_9>:
     1a8:	200001b7          	lui	gp,0x20000
     1ac:	00400393          	li	t2,4
     1b0:	0271fab3          	remu	s5,gp,t2
     1b4:	0359a223          	sw	s5,36(s3)

000001b8 <inst_10>:
     1b8:	00d00293          	li	t0,13
     1bc:	00800593          	li	a1,8
     1c0:	02b2fa33          	remu	s4,t0,a1
     1c4:	0349a423          	sw	s4,40(s3)

000001c8 <inst_11>:
     1c8:	00600f13          	li	t5,6
     1cc:	01000413          	li	s0,16
     1d0:	028f7fb3          	remu	t6,t5,s0
     1d4:	03f9a623          	sw	t6,44(s3)

000001d8 <inst_12>:
     1d8:	00f00613          	li	a2,15
     1dc:	02000293          	li	t0,32
     1e0:	025674b3          	remu	s1,a2,t0
     1e4:	0299a823          	sw	s1,48(s3)

000001e8 <inst_13>:
     1e8:	ff800fb7          	lui	t6,0xff800
     1ec:	ffff8f93          	add	t6,t6,-1 # ff7fffff <_end+0xff7fb49f>
     1f0:	04000213          	li	tp,64
     1f4:	024ff5b3          	remu	a1,t6,tp
     1f8:	02b9aa23          	sw	a1,52(s3)

000001fc <inst_14>:
     1fc:	04000d93          	li	s11,64
     200:	08000513          	li	a0,128
     204:	02adf733          	remu	a4,s11,a0
     208:	02e9ac23          	sw	a4,56(s3)

0000020c <inst_15>:
     20c:	10000c93          	li	s9,256
     210:	10000713          	li	a4,256
     214:	02ecf6b3          	remu	a3,s9,a4
     218:	02d9ae23          	sw	a3,60(s3)

0000021c <inst_16>:
     21c:	00a00913          	li	s2,10
     220:	00000013          	nop
     224:	02097b33          	remu	s6,s2,zero
     228:	0569a023          	sw	s6,64(s3)
     22c:	00004297          	auipc	t0,0x4
     230:	e2828293          	add	t0,t0,-472 # 4054 <signature_x5_0>

00000234 <inst_17>:
     234:	0000bb37          	lui	s6,0xb
     238:	503b0b13          	add	s6,s6,1283 # b503 <_end+0x69a3>
     23c:	40000613          	li	a2,1024
     240:	02cb71b3          	remu	gp,s6,a2
     244:	0032a023          	sw	gp,0(t0)

00000248 <inst_18>:
     248:	ffb00993          	li	s3,-5
     24c:	000011b7          	lui	gp,0x1
     250:	80018193          	add	gp,gp,-2048 # 800 <inst_94+0xc>
     254:	0239fc33          	remu	s8,s3,gp
     258:	0182a223          	sw	s8,4(t0)

0000025c <inst_19>:
     25c:	00000013          	nop
     260:	000018b7          	lui	a7,0x1
     264:	031079b3          	remu	s3,zero,a7
     268:	0132a423          	sw	s3,8(t0)

0000026c <inst_20>:
     26c:	000015b7          	lui	a1,0x1
     270:	00002e37          	lui	t3,0x2
     274:	03c5fbb3          	remu	s7,a1,t3
     278:	0172a623          	sw	s7,12(t0)

0000027c <inst_21>:
     27c:	00040a37          	lui	s4,0x40
     280:	00004db7          	lui	s11,0x4
     284:	03ba7933          	remu	s2,s4,s11
     288:	0122a823          	sw	s2,16(t0)

0000028c <inst_22>:
     28c:	00001737          	lui	a4,0x1
     290:	80070713          	add	a4,a4,-2048 # 800 <inst_94+0xc>
     294:	000086b7          	lui	a3,0x8
     298:	02d770b3          	remu	ra,a4,a3
     29c:	0012aa23          	sw	ra,20(t0)

000002a0 <inst_23>:
     2a0:	10000337          	lui	t1,0x10000
     2a4:	00010f37          	lui	t5,0x10
     2a8:	03e37d33          	remu	s10,t1,t5
     2ac:	01a2ac23          	sw	s10,24(t0)

000002b0 <inst_24>:
     2b0:	00400b93          	li	s7,4
     2b4:	00020a37          	lui	s4,0x20
     2b8:	034bf633          	remu	a2,s7,s4
     2bc:	00c2ae23          	sw	a2,28(t0)

000002c0 <inst_25>:
     2c0:	002006b7          	lui	a3,0x200
     2c4:	00040eb7          	lui	t4,0x40
     2c8:	03d6f133          	remu	sp,a3,t4
     2cc:	0222a023          	sw	sp,32(t0)

000002d0 <inst_26>:
     2d0:	04000e13          	li	t3,64
     2d4:	00080cb7          	lui	s9,0x80
     2d8:	039e7433          	remu	s0,t3,s9
     2dc:	0282a223          	sw	s0,36(t0)

000002e0 <inst_27>:
     2e0:	00000c13          	li	s8,0
     2e4:	00100bb7          	lui	s7,0x100
     2e8:	037c78b3          	remu	a7,s8,s7
     2ec:	0312a423          	sw	a7,40(t0)

000002f0 <inst_28>:
     2f0:	55555537          	lui	a0,0x55555
     2f4:	55450513          	add	a0,a0,1364 # 55555554 <_end+0x555509f4>
     2f8:	00200937          	lui	s2,0x200
     2fc:	03257eb3          	remu	t4,a0,s2
     300:	03d2a623          	sw	t4,44(t0)

00000304 <inst_29>:
     304:	ffe00a93          	li	s5,-2
     308:	00400c37          	lui	s8,0x400
     30c:	038afdb3          	remu	s11,s5,s8
     310:	03b2a823          	sw	s11,48(t0)

00000314 <inst_30>:
     314:	02000213          	li	tp,32
     318:	010009b7          	lui	s3,0x1000
     31c:	03327533          	remu	a0,tp,s3
     320:	02a2aa23          	sw	a0,52(t0)

00000324 <inst_31>:
     324:	00000413          	li	s0,0
     328:	02000b37          	lui	s6,0x2000
     32c:	03647233          	remu	tp,s0,s6
     330:	0242ac23          	sw	tp,56(t0)

00000334 <inst_32>:
     334:	aaaab537          	lui	a0,0xaaaab
     338:	aaa50513          	add	a0,a0,-1366 # aaaaaaaa <_end+0xaaaa5f4a>
     33c:	040005b7          	lui	a1,0x4000
     340:	02b57633          	remu	a2,a0,a1
     344:	02c2ae23          	sw	a2,60(t0)

00000348 <inst_33>:
     348:	ffff8537          	lui	a0,0xffff8
     34c:	fff50513          	add	a0,a0,-1 # ffff7fff <_end+0xffff349f>
     350:	080005b7          	lui	a1,0x8000
     354:	02b57633          	remu	a2,a0,a1
     358:	04c2a023          	sw	a2,64(t0)

0000035c <inst_34>:
     35c:	fe000537          	lui	a0,0xfe000
     360:	fff50513          	add	a0,a0,-1 # fdffffff <_end+0xfdffb49f>
     364:	100005b7          	lui	a1,0x10000
     368:	02b57633          	remu	a2,a0,a1
     36c:	04c2a223          	sw	a2,68(t0)

00000370 <inst_35>:
     370:	f8000537          	lui	a0,0xf8000
     374:	fff50513          	add	a0,a0,-1 # f7ffffff <_end+0xf7ffb49f>
     378:	200005b7          	lui	a1,0x20000
     37c:	02b57633          	remu	a2,a0,a1
     380:	04c2a423          	sw	a2,72(t0)

00000384 <inst_36>:
     384:	00000513          	li	a0,0
     388:	400005b7          	lui	a1,0x40000
     38c:	02b57633          	remu	a2,a0,a1
     390:	04c2a623          	sw	a2,76(t0)

00000394 <inst_37>:
     394:	00b00513          	li	a0,11
     398:	800005b7          	lui	a1,0x80000
     39c:	02b57633          	remu	a2,a0,a1
     3a0:	04c2a823          	sw	a2,80(t0)

000003a4 <inst_38>:
     3a4:	00080537          	lui	a0,0x80
     3a8:	ffe00593          	li	a1,-2
     3ac:	02b57633          	remu	a2,a0,a1
     3b0:	04c2aa23          	sw	a2,84(t0)

000003b4 <inst_39>:
     3b4:	fbf00513          	li	a0,-65
     3b8:	ffd00593          	li	a1,-3
     3bc:	02b57633          	remu	a2,a0,a1
     3c0:	04c2ac23          	sw	a2,88(t0)

000003c4 <inst_40>:
     3c4:	ffc00537          	lui	a0,0xffc00
     3c8:	fff50513          	add	a0,a0,-1 # ffbfffff <_end+0xffbfb49f>
     3cc:	ff700593          	li	a1,-9
     3d0:	02b57633          	remu	a2,a0,a1
     3d4:	04c2ae23          	sw	a2,92(t0)

000003d8 <inst_41>:
     3d8:	f0000537          	lui	a0,0xf0000
     3dc:	fff50513          	add	a0,a0,-1 # efffffff <_end+0xefffb49f>
     3e0:	fef00593          	li	a1,-17
     3e4:	02b57633          	remu	a2,a0,a1
     3e8:	06c2a023          	sw	a2,96(t0)

000003ec <inst_42>:
     3ec:	80000537          	lui	a0,0x80000
     3f0:	fff50513          	add	a0,a0,-1 # 7fffffff <_end+0x7fffb49f>
     3f4:	fdf00593          	li	a1,-33
     3f8:	02b57633          	remu	a2,a0,a1
     3fc:	06c2a223          	sw	a2,100(t0)

00000400 <inst_43>:
     400:	00200513          	li	a0,2
     404:	fbf00593          	li	a1,-65
     408:	02b57633          	remu	a2,a0,a1
     40c:	06c2a423          	sw	a2,104(t0)

00000410 <inst_44>:
     410:	00100537          	lui	a0,0x100
     414:	f7f00593          	li	a1,-129
     418:	02b57633          	remu	a2,a0,a1
     41c:	06c2a623          	sw	a2,108(t0)

00000420 <inst_45>:
     420:	ffe00537          	lui	a0,0xffe00
     424:	fff50513          	add	a0,a0,-1 # ffdfffff <_end+0xffdfb49f>
     428:	eff00593          	li	a1,-257
     42c:	02b57633          	remu	a2,a0,a1
     430:	06c2a823          	sw	a2,112(t0)

00000434 <inst_46>:
     434:	0000b537          	lui	a0,0xb
     438:	50550513          	add	a0,a0,1285 # b505 <_end+0x69a5>
     43c:	dff00593          	li	a1,-513
     440:	02b57633          	remu	a2,a0,a1
     444:	06c2aa23          	sw	a2,116(t0)

00000448 <inst_47>:
     448:	f0000537          	lui	a0,0xf0000
     44c:	fff50513          	add	a0,a0,-1 # efffffff <_end+0xefffb49f>
     450:	bff00593          	li	a1,-1025
     454:	02b57633          	remu	a2,a0,a1
     458:	06c2ac23          	sw	a2,120(t0)

0000045c <inst_48>:
     45c:	c0000537          	lui	a0,0xc0000
     460:	fff50513          	add	a0,a0,-1 # bfffffff <_end+0xbfffb49f>
     464:	fffff5b7          	lui	a1,0xfffff
     468:	7ff58593          	add	a1,a1,2047 # fffff7ff <_end+0xffffac9f>
     46c:	02b57633          	remu	a2,a0,a1
     470:	06c2ae23          	sw	a2,124(t0)

00000474 <inst_49>:
     474:	40000513          	li	a0,1024
     478:	fffff5b7          	lui	a1,0xfffff
     47c:	fff58593          	add	a1,a1,-1 # ffffefff <_end+0xffffa49f>
     480:	02b57633          	remu	a2,a0,a1
     484:	08c2a023          	sw	a2,128(t0)

00000488 <inst_50>:
     488:	33333537          	lui	a0,0x33333
     48c:	33450513          	add	a0,a0,820 # 33333334 <_end+0x3332e7d4>
     490:	ffffe5b7          	lui	a1,0xffffe
     494:	fff58593          	add	a1,a1,-1 # ffffdfff <_end+0xffff949f>
     498:	02b57633          	remu	a2,a0,a1
     49c:	08c2a223          	sw	a2,132(t0)

000004a0 <inst_51>:
     4a0:	00400513          	li	a0,4
     4a4:	ffffc5b7          	lui	a1,0xffffc
     4a8:	fff58593          	add	a1,a1,-1 # ffffbfff <_end+0xffff749f>
     4ac:	02b57633          	remu	a2,a0,a1
     4b0:	08c2a423          	sw	a2,136(t0)

000004b4 <inst_52>:
     4b4:	00500513          	li	a0,5
     4b8:	ffff05b7          	lui	a1,0xffff0
     4bc:	fff58593          	add	a1,a1,-1 # fffeffff <_end+0xfffeb49f>
     4c0:	02b57633          	remu	a2,a0,a1
     4c4:	08c2a623          	sw	a2,140(t0)

000004c8 <inst_53>:
     4c8:	00002537          	lui	a0,0x2
     4cc:	fffe05b7          	lui	a1,0xfffe0
     4d0:	fff58593          	add	a1,a1,-1 # fffdffff <_end+0xfffdb49f>
     4d4:	02b57633          	remu	a2,a0,a1
     4d8:	08c2a823          	sw	a2,144(t0)

000004dc <inst_54>:
     4dc:	0000b537          	lui	a0,0xb
     4e0:	50550513          	add	a0,a0,1285 # b505 <_end+0x69a5>
     4e4:	fffc05b7          	lui	a1,0xfffc0
     4e8:	fff58593          	add	a1,a1,-1 # fffbffff <_end+0xfffbb49f>
     4ec:	02b57633          	remu	a2,a0,a1
     4f0:	08c2aa23          	sw	a2,148(t0)

000004f4 <inst_55>:
     4f4:	66666537          	lui	a0,0x66666
     4f8:	66650513          	add	a0,a0,1638 # 66666666 <_end+0x66661b06>
     4fc:	fff805b7          	lui	a1,0xfff80
     500:	fff58593          	add	a1,a1,-1 # fff7ffff <_end+0xfff7b49f>
     504:	02b57633          	remu	a2,a0,a1
     508:	08c2ac23          	sw	a2,152(t0)

0000050c <inst_56>:
     50c:	00040537          	lui	a0,0x40
     510:	fff005b7          	lui	a1,0xfff00
     514:	fff58593          	add	a1,a1,-1 # ffefffff <_end+0xffefb49f>
     518:	02b57633          	remu	a2,a0,a1
     51c:	08c2ae23          	sw	a2,156(t0)

00000520 <inst_57>:
     520:	01200513          	li	a0,18
     524:	ffe005b7          	lui	a1,0xffe00
     528:	fff58593          	add	a1,a1,-1 # ffdfffff <_end+0xffdfb49f>
     52c:	02b57633          	remu	a2,a0,a1
     530:	0ac2a023          	sw	a2,160(t0)

00000534 <inst_58>:
     534:	fff00537          	lui	a0,0xfff00
     538:	fff50513          	add	a0,a0,-1 # ffefffff <_end+0xffefb49f>
     53c:	ffc005b7          	lui	a1,0xffc00
     540:	fff58593          	add	a1,a1,-1 # ffbfffff <_end+0xffbfb49f>
     544:	02b57633          	remu	a2,a0,a1
     548:	0ac2a223          	sw	a2,164(t0)

0000054c <inst_59>:
     54c:	00800513          	li	a0,8
     550:	ff8005b7          	lui	a1,0xff800
     554:	fff58593          	add	a1,a1,-1 # ff7fffff <_end+0xff7fb49f>
     558:	02b57633          	remu	a2,a0,a1
     55c:	0ac2a423          	sw	a2,168(t0)

00000560 <inst_60>:
     560:	10000537          	lui	a0,0x10000
     564:	ff0005b7          	lui	a1,0xff000
     568:	fff58593          	add	a1,a1,-1 # feffffff <_end+0xfeffb49f>
     56c:	02b57633          	remu	a2,a0,a1
     570:	0ac2a623          	sw	a2,172(t0)

00000574 <inst_61>:
     574:	80000537          	lui	a0,0x80000
     578:	fe0005b7          	lui	a1,0xfe000
     57c:	fff58593          	add	a1,a1,-1 # fdffffff <_end+0xfdffb49f>
     580:	02b57633          	remu	a2,a0,a1
     584:	0ac2a823          	sw	a2,176(t0)

00000588 <inst_62>:
     588:	66666537          	lui	a0,0x66666
     58c:	66550513          	add	a0,a0,1637 # 66666665 <_end+0x66661b05>
     590:	fc0005b7          	lui	a1,0xfc000
     594:	fff58593          	add	a1,a1,-1 # fbffffff <_end+0xfbffb49f>
     598:	02b57633          	remu	a2,a0,a1
     59c:	0ac2aa23          	sw	a2,180(t0)

000005a0 <inst_63>:
     5a0:	04000537          	lui	a0,0x4000
     5a4:	f80005b7          	lui	a1,0xf8000
     5a8:	fff58593          	add	a1,a1,-1 # f7ffffff <_end+0xf7ffb49f>
     5ac:	02b57633          	remu	a2,a0,a1
     5b0:	0ac2ac23          	sw	a2,184(t0)

000005b4 <inst_64>:
     5b4:	00080537          	lui	a0,0x80
     5b8:	f00005b7          	lui	a1,0xf0000
     5bc:	fff58593          	add	a1,a1,-1 # efffffff <_end+0xefffb49f>
     5c0:	02b57633          	remu	a2,a0,a1
     5c4:	0ac2ae23          	sw	a2,188(t0)

000005c8 <inst_65>:
     5c8:	aaaab537          	lui	a0,0xaaaab
     5cc:	aab50513          	add	a0,a0,-1365 # aaaaaaab <_end+0xaaaa5f4b>
     5d0:	e00005b7          	lui	a1,0xe0000
     5d4:	fff58593          	add	a1,a1,-1 # dfffffff <_end+0xdfffb49f>
     5d8:	02b57633          	remu	a2,a0,a1
     5dc:	0cc2a023          	sw	a2,192(t0)

000005e0 <inst_66>:
     5e0:	01200513          	li	a0,18
     5e4:	800005b7          	lui	a1,0x80000
     5e8:	fff58593          	add	a1,a1,-1 # 7fffffff <_end+0x7fffb49f>
     5ec:	02b57633          	remu	a2,a0,a1
     5f0:	0cc2a223          	sw	a2,196(t0)

000005f4 <inst_67>:
     5f4:	00080537          	lui	a0,0x80
     5f8:	555555b7          	lui	a1,0x55555
     5fc:	55558593          	add	a1,a1,1365 # 55555555 <_end+0x555509f5>
     600:	02b57633          	remu	a2,a0,a1
     604:	0cc2a423          	sw	a2,200(t0)

00000608 <inst_68>:
     608:	00100537          	lui	a0,0x100
     60c:	aaaab5b7          	lui	a1,0xaaaab
     610:	aaa58593          	add	a1,a1,-1366 # aaaaaaaa <_end+0xaaaa5f4a>
     614:	02b57633          	remu	a2,a0,a1
     618:	0cc2a623          	sw	a2,204(t0)

0000061c <inst_69>:
     61c:	01000513          	li	a0,16
     620:	200005b7          	lui	a1,0x20000
     624:	02b57633          	remu	a2,a0,a1
     628:	0cc2a823          	sw	a2,208(t0)

0000062c <inst_70>:
     62c:	08000513          	li	a0,128
     630:	fff00593          	li	a1,-1
     634:	02b57633          	remu	a2,a0,a1
     638:	0cc2aa23          	sw	a2,212(t0)

0000063c <inst_71>:
     63c:	20000513          	li	a0,512
     640:	00400593          	li	a1,4
     644:	02b57633          	remu	a2,a0,a1
     648:	0cc2ac23          	sw	a2,216(t0)

0000064c <inst_72>:
     64c:	00004537          	lui	a0,0x4
     650:	ffffe5b7          	lui	a1,0xffffe
     654:	fff58593          	add	a1,a1,-1 # ffffdfff <_end+0xffff949f>
     658:	02b57633          	remu	a2,a0,a1
     65c:	0cc2ae23          	sw	a2,220(t0)

00000660 <inst_73>:
     660:	00008537          	lui	a0,0x8
     664:	e00005b7          	lui	a1,0xe0000
     668:	fff58593          	add	a1,a1,-1 # dfffffff <_end+0xdfffb49f>
     66c:	02b57633          	remu	a2,a0,a1
     670:	0ec2a023          	sw	a2,224(t0)

00000674 <inst_74>:
     674:	00010537          	lui	a0,0x10
     678:	333335b7          	lui	a1,0x33333
     67c:	33458593          	add	a1,a1,820 # 33333334 <_end+0x3332e7d4>
     680:	02b57633          	remu	a2,a0,a1
     684:	0ec2a223          	sw	a2,228(t0)

00000688 <inst_75>:
     688:	00020537          	lui	a0,0x20
     68c:	000105b7          	lui	a1,0x10
     690:	02b57633          	remu	a2,a0,a1
     694:	0ec2a423          	sw	a2,232(t0)

00000698 <inst_76>:
     698:	00400537          	lui	a0,0x400
     69c:	00e00593          	li	a1,14
     6a0:	02b57633          	remu	a2,a0,a1
     6a4:	0ec2a623          	sw	a2,236(t0)

000006a8 <inst_77>:
     6a8:	01000537          	lui	a0,0x1000
     6ac:	00f00593          	li	a1,15
     6b0:	02b57633          	remu	a2,a0,a1
     6b4:	0ec2a823          	sw	a2,240(t0)

000006b8 <inst_78>:
     6b8:	02000537          	lui	a0,0x2000
     6bc:	fffff5b7          	lui	a1,0xfffff
     6c0:	fff58593          	add	a1,a1,-1 # ffffefff <_end+0xffffa49f>
     6c4:	02b57633          	remu	a2,a0,a1
     6c8:	0ec2aa23          	sw	a2,244(t0)

000006cc <inst_79>:
     6cc:	08000537          	lui	a0,0x8000
     6d0:	00400593          	li	a1,4
     6d4:	02b57633          	remu	a2,a0,a1
     6d8:	0ec2ac23          	sw	a2,248(t0)

000006dc <inst_80>:
     6dc:	40000537          	lui	a0,0x40000
     6e0:	00400593          	li	a1,4
     6e4:	02b57633          	remu	a2,a0,a1
     6e8:	0ec2ae23          	sw	a2,252(t0)

000006ec <inst_81>:
     6ec:	ffd00513          	li	a0,-3
     6f0:	bff00593          	li	a1,-1025
     6f4:	02b57633          	remu	a2,a0,a1
     6f8:	10c2a023          	sw	a2,256(t0)

000006fc <inst_82>:
     6fc:	ff700513          	li	a0,-9
     700:	e00005b7          	lui	a1,0xe0000
     704:	fff58593          	add	a1,a1,-1 # dfffffff <_end+0xdfffb49f>
     708:	02b57633          	remu	a2,a0,a1
     70c:	10c2a223          	sw	a2,260(t0)

00000710 <inst_83>:
     710:	fef00513          	li	a0,-17
     714:	555555b7          	lui	a1,0x55555
     718:	55558593          	add	a1,a1,1365 # 55555555 <_end+0x555509f5>
     71c:	02b57633          	remu	a2,a0,a1
     720:	10c2a423          	sw	a2,264(t0)

00000724 <inst_84>:
     724:	fdf00513          	li	a0,-33
     728:	ffe005b7          	lui	a1,0xffe00
     72c:	fff58593          	add	a1,a1,-1 # ffdfffff <_end+0xffdfb49f>
     730:	02b57633          	remu	a2,a0,a1
     734:	10c2a623          	sw	a2,268(t0)

00000738 <inst_85>:
     738:	f7f00513          	li	a0,-129
     73c:	010005b7          	lui	a1,0x1000
     740:	02b57633          	remu	a2,a0,a1
     744:	10c2a823          	sw	a2,272(t0)

00000748 <inst_86>:
     748:	eff00513          	li	a0,-257
     74c:	040005b7          	lui	a1,0x4000
     750:	02b57633          	remu	a2,a0,a1
     754:	10c2aa23          	sw	a2,276(t0)

00000758 <inst_87>:
     758:	dff00513          	li	a0,-513
     75c:	ff0005b7          	lui	a1,0xff000
     760:	fff58593          	add	a1,a1,-1 # feffffff <_end+0xfeffb49f>
     764:	02b57633          	remu	a2,a0,a1
     768:	10c2ac23          	sw	a2,280(t0)

0000076c <inst_88>:
     76c:	fffff537          	lui	a0,0xfffff
     770:	7ff50513          	add	a0,a0,2047 # fffff7ff <_end+0xffffac9f>
     774:	00600593          	li	a1,6
     778:	02b57633          	remu	a2,a0,a1
     77c:	10c2ae23          	sw	a2,284(t0)

00000780 <inst_89>:
     780:	fffff537          	lui	a0,0xfffff
     784:	fff50513          	add	a0,a0,-1 # ffffefff <_end+0xffffa49f>
     788:	fffe05b7          	lui	a1,0xfffe0
     78c:	fff58593          	add	a1,a1,-1 # fffdffff <_end+0xfffdb49f>
     790:	02b57633          	remu	a2,a0,a1
     794:	12c2a023          	sw	a2,288(t0)

00000798 <inst_90>:
     798:	ffffe537          	lui	a0,0xffffe
     79c:	fff50513          	add	a0,a0,-1 # ffffdfff <_end+0xffff949f>
     7a0:	666665b7          	lui	a1,0x66666
     7a4:	66758593          	add	a1,a1,1639 # 66666667 <_end+0x66661b07>
     7a8:	02b57633          	remu	a2,a0,a1
     7ac:	12c2a223          	sw	a2,292(t0)

000007b0 <inst_91>:
     7b0:	ffffc537          	lui	a0,0xffffc
     7b4:	fff50513          	add	a0,a0,-1 # ffffbfff <_end+0xffff749f>
     7b8:	666665b7          	lui	a1,0x66666
     7bc:	66558593          	add	a1,a1,1637 # 66666665 <_end+0x66661b05>
     7c0:	02b57633          	remu	a2,a0,a1
     7c4:	12c2a423          	sw	a2,296(t0)

000007c8 <inst_92>:
     7c8:	fffe0537          	lui	a0,0xfffe0
     7cc:	fff50513          	add	a0,a0,-1 # fffdffff <_end+0xfffdb49f>
     7d0:	040005b7          	lui	a1,0x4000
     7d4:	02b57633          	remu	a2,a0,a1
     7d8:	12c2a623          	sw	a2,300(t0)

000007dc <inst_93>:
     7dc:	fffc0537          	lui	a0,0xfffc0
     7e0:	fff50513          	add	a0,a0,-1 # fffbffff <_end+0xfffbb49f>
     7e4:	aaaab5b7          	lui	a1,0xaaaab
     7e8:	aa958593          	add	a1,a1,-1367 # aaaaaaa9 <_end+0xaaaa5f49>
     7ec:	02b57633          	remu	a2,a0,a1
     7f0:	12c2a823          	sw	a2,304(t0)

000007f4 <inst_94>:
     7f4:	ff000537          	lui	a0,0xff000
     7f8:	fff50513          	add	a0,a0,-1 # feffffff <_end+0xfeffb49f>
     7fc:	800005b7          	lui	a1,0x80000
     800:	02b57633          	remu	a2,a0,a1
     804:	12c2aa23          	sw	a2,308(t0)

00000808 <inst_95>:
     808:	fc000537          	lui	a0,0xfc000
     80c:	fff50513          	add	a0,a0,-1 # fbffffff <_end+0xfbffb49f>
     810:	00a00593          	li	a1,10
     814:	02b57633          	remu	a2,a0,a1
     818:	12c2ac23          	sw	a2,312(t0)

0000081c <inst_96>:
     81c:	e0000537          	lui	a0,0xe0000
     820:	fff50513          	add	a0,a0,-1 # dfffffff <_end+0xdfffb49f>
     824:	20000593          	li	a1,512
     828:	02b57633          	remu	a2,a0,a1
     82c:	12c2ae23          	sw	a2,316(t0)

00000830 <inst_97>:
     830:	55555537          	lui	a0,0x55555
     834:	55550513          	add	a0,a0,1365 # 55555555 <_end+0x555509f5>
     838:	002005b7          	lui	a1,0x200
     83c:	02b57633          	remu	a2,a0,a1
     840:	14c2a023          	sw	a2,320(t0)

00000844 <inst_98>:
     844:	00300513          	li	a0,3
     848:	00300593          	li	a1,3
     84c:	02b57633          	remu	a2,a0,a1
     850:	14c2a223          	sw	a2,324(t0)

00000854 <inst_99>:
     854:	00300513          	li	a0,3
     858:	555555b7          	lui	a1,0x55555
     85c:	55558593          	add	a1,a1,1365 # 55555555 <_end+0x555509f5>
     860:	02b57633          	remu	a2,a0,a1
     864:	14c2a423          	sw	a2,328(t0)

00000868 <inst_100>:
     868:	00300513          	li	a0,3
     86c:	aaaab5b7          	lui	a1,0xaaaab
     870:	aaa58593          	add	a1,a1,-1366 # aaaaaaaa <_end+0xaaaa5f4a>
     874:	02b57633          	remu	a2,a0,a1
     878:	14c2a623          	sw	a2,332(t0)

0000087c <inst_101>:
     87c:	00300513          	li	a0,3
     880:	00500593          	li	a1,5
     884:	02b57633          	remu	a2,a0,a1
     888:	14c2a823          	sw	a2,336(t0)

0000088c <inst_102>:
     88c:	00300513          	li	a0,3
     890:	333335b7          	lui	a1,0x33333
     894:	33358593          	add	a1,a1,819 # 33333333 <_end+0x3332e7d3>
     898:	02b57633          	remu	a2,a0,a1
     89c:	14c2aa23          	sw	a2,340(t0)

000008a0 <inst_103>:
     8a0:	00300513          	li	a0,3
     8a4:	666665b7          	lui	a1,0x66666
     8a8:	66658593          	add	a1,a1,1638 # 66666666 <_end+0x66661b06>
     8ac:	02b57633          	remu	a2,a0,a1
     8b0:	14c2ac23          	sw	a2,344(t0)

000008b4 <inst_104>:
     8b4:	00300513          	li	a0,3
     8b8:	0000b5b7          	lui	a1,0xb
     8bc:	50458593          	add	a1,a1,1284 # b504 <_end+0x69a4>
     8c0:	02b57633          	remu	a2,a0,a1
     8c4:	14c2ae23          	sw	a2,348(t0)

000008c8 <inst_105>:
     8c8:	00300513          	li	a0,3
     8cc:	00000593          	li	a1,0
     8d0:	02b57633          	remu	a2,a0,a1
     8d4:	16c2a023          	sw	a2,352(t0)

000008d8 <inst_106>:
     8d8:	00300513          	li	a0,3
     8dc:	000105b7          	lui	a1,0x10
     8e0:	fff58593          	add	a1,a1,-1 # ffff <_end+0xb49f>
     8e4:	02b57633          	remu	a2,a0,a1
     8e8:	16c2a223          	sw	a2,356(t0)

000008ec <inst_107>:
     8ec:	00300513          	li	a0,3
     8f0:	00200593          	li	a1,2
     8f4:	02b57633          	remu	a2,a0,a1
     8f8:	16c2a423          	sw	a2,360(t0)

000008fc <inst_108>:
     8fc:	00300513          	li	a0,3
     900:	555555b7          	lui	a1,0x55555
     904:	55458593          	add	a1,a1,1364 # 55555554 <_end+0x555509f4>
     908:	02b57633          	remu	a2,a0,a1
     90c:	16c2a623          	sw	a2,364(t0)

00000910 <inst_109>:
     910:	00300513          	li	a0,3
     914:	aaaab5b7          	lui	a1,0xaaaab
     918:	aa958593          	add	a1,a1,-1367 # aaaaaaa9 <_end+0xaaaa5f49>
     91c:	02b57633          	remu	a2,a0,a1
     920:	16c2a823          	sw	a2,368(t0)

00000924 <inst_110>:
     924:	00300513          	li	a0,3
     928:	00400593          	li	a1,4
     92c:	02b57633          	remu	a2,a0,a1
     930:	16c2aa23          	sw	a2,372(t0)

00000934 <inst_111>:
     934:	00300513          	li	a0,3
     938:	333335b7          	lui	a1,0x33333
     93c:	33258593          	add	a1,a1,818 # 33333332 <_end+0x3332e7d2>
     940:	02b57633          	remu	a2,a0,a1
     944:	16c2ac23          	sw	a2,376(t0)

00000948 <inst_112>:
     948:	00300513          	li	a0,3
     94c:	666665b7          	lui	a1,0x66666
     950:	66558593          	add	a1,a1,1637 # 66666665 <_end+0x66661b05>
     954:	02b57633          	remu	a2,a0,a1
     958:	16c2ae23          	sw	a2,380(t0)

0000095c <inst_113>:
     95c:	00300513          	li	a0,3
     960:	0000b5b7          	lui	a1,0xb
     964:	50358593          	add	a1,a1,1283 # b503 <_end+0x69a3>
     968:	02b57633          	remu	a2,a0,a1
     96c:	18c2a023          	sw	a2,384(t0)

00000970 <inst_114>:
     970:	00300513          	li	a0,3
     974:	000105b7          	lui	a1,0x10
     978:	ffe58593          	add	a1,a1,-2 # fffe <_end+0xb49e>
     97c:	02b57633          	remu	a2,a0,a1
     980:	18c2a223          	sw	a2,388(t0)

00000984 <inst_115>:
     984:	00300513          	li	a0,3
     988:	555555b7          	lui	a1,0x55555
     98c:	55658593          	add	a1,a1,1366 # 55555556 <_end+0x555509f6>
     990:	02b57633          	remu	a2,a0,a1
     994:	18c2a423          	sw	a2,392(t0)

00000998 <inst_116>:
     998:	00300513          	li	a0,3
     99c:	aaaab5b7          	lui	a1,0xaaaab
     9a0:	aab58593          	add	a1,a1,-1365 # aaaaaaab <_end+0xaaaa5f4b>
     9a4:	02b57633          	remu	a2,a0,a1
     9a8:	18c2a623          	sw	a2,396(t0)

000009ac <inst_117>:
     9ac:	00300513          	li	a0,3
     9b0:	00600593          	li	a1,6
     9b4:	02b57633          	remu	a2,a0,a1
     9b8:	18c2a823          	sw	a2,400(t0)

000009bc <inst_118>:
     9bc:	00300513          	li	a0,3
     9c0:	333335b7          	lui	a1,0x33333
     9c4:	33458593          	add	a1,a1,820 # 33333334 <_end+0x3332e7d4>
     9c8:	02b57633          	remu	a2,a0,a1
     9cc:	18c2aa23          	sw	a2,404(t0)

000009d0 <inst_119>:
     9d0:	00300513          	li	a0,3
     9d4:	666665b7          	lui	a1,0x66666
     9d8:	66758593          	add	a1,a1,1639 # 66666667 <_end+0x66661b07>
     9dc:	02b57633          	remu	a2,a0,a1
     9e0:	18c2ac23          	sw	a2,408(t0)

000009e4 <inst_120>:
     9e4:	00300513          	li	a0,3
     9e8:	0000b5b7          	lui	a1,0xb
     9ec:	50558593          	add	a1,a1,1285 # b505 <_end+0x69a5>
     9f0:	02b57633          	remu	a2,a0,a1
     9f4:	18c2ae23          	sw	a2,412(t0)

000009f8 <inst_121>:
     9f8:	00300513          	li	a0,3
     9fc:	00100593          	li	a1,1
     a00:	02b57633          	remu	a2,a0,a1
     a04:	1ac2a023          	sw	a2,416(t0)

00000a08 <inst_122>:
     a08:	00300513          	li	a0,3
     a0c:	000105b7          	lui	a1,0x10
     a10:	02b57633          	remu	a2,a0,a1
     a14:	1ac2a223          	sw	a2,420(t0)

00000a18 <inst_123>:
     a18:	55555537          	lui	a0,0x55555
     a1c:	55550513          	add	a0,a0,1365 # 55555555 <_end+0x555509f5>
     a20:	00300593          	li	a1,3
     a24:	02b57633          	remu	a2,a0,a1
     a28:	1ac2a423          	sw	a2,424(t0)

00000a2c <inst_124>:
     a2c:	55555537          	lui	a0,0x55555
     a30:	55550513          	add	a0,a0,1365 # 55555555 <_end+0x555509f5>
     a34:	555555b7          	lui	a1,0x55555
     a38:	55558593          	add	a1,a1,1365 # 55555555 <_end+0x555509f5>
     a3c:	02b57633          	remu	a2,a0,a1
     a40:	1ac2a623          	sw	a2,428(t0)

00000a44 <inst_125>:
     a44:	55555537          	lui	a0,0x55555
     a48:	55550513          	add	a0,a0,1365 # 55555555 <_end+0x555509f5>
     a4c:	aaaab5b7          	lui	a1,0xaaaab
     a50:	aaa58593          	add	a1,a1,-1366 # aaaaaaaa <_end+0xaaaa5f4a>
     a54:	02b57633          	remu	a2,a0,a1
     a58:	1ac2a823          	sw	a2,432(t0)

00000a5c <inst_126>:
     a5c:	55555537          	lui	a0,0x55555
     a60:	55550513          	add	a0,a0,1365 # 55555555 <_end+0x555509f5>
     a64:	00500593          	li	a1,5
     a68:	02b57633          	remu	a2,a0,a1
     a6c:	1ac2aa23          	sw	a2,436(t0)

00000a70 <inst_127>:
     a70:	55555537          	lui	a0,0x55555
     a74:	55550513          	add	a0,a0,1365 # 55555555 <_end+0x555509f5>
     a78:	333335b7          	lui	a1,0x33333
     a7c:	33358593          	add	a1,a1,819 # 33333333 <_end+0x3332e7d3>
     a80:	02b57633          	remu	a2,a0,a1
     a84:	1ac2ac23          	sw	a2,440(t0)

00000a88 <inst_128>:
     a88:	55555537          	lui	a0,0x55555
     a8c:	55550513          	add	a0,a0,1365 # 55555555 <_end+0x555509f5>
     a90:	666665b7          	lui	a1,0x66666
     a94:	66658593          	add	a1,a1,1638 # 66666666 <_end+0x66661b06>
     a98:	02b57633          	remu	a2,a0,a1
     a9c:	1ac2ae23          	sw	a2,444(t0)

00000aa0 <inst_129>:
     aa0:	55555537          	lui	a0,0x55555
     aa4:	55550513          	add	a0,a0,1365 # 55555555 <_end+0x555509f5>
     aa8:	0000b5b7          	lui	a1,0xb
     aac:	50458593          	add	a1,a1,1284 # b504 <_end+0x69a4>
     ab0:	02b57633          	remu	a2,a0,a1
     ab4:	1cc2a023          	sw	a2,448(t0)

00000ab8 <inst_130>:
     ab8:	55555537          	lui	a0,0x55555
     abc:	55550513          	add	a0,a0,1365 # 55555555 <_end+0x555509f5>
     ac0:	00000593          	li	a1,0
     ac4:	02b57633          	remu	a2,a0,a1
     ac8:	1cc2a223          	sw	a2,452(t0)

00000acc <inst_131>:
     acc:	55555537          	lui	a0,0x55555
     ad0:	55550513          	add	a0,a0,1365 # 55555555 <_end+0x555509f5>
     ad4:	000105b7          	lui	a1,0x10
     ad8:	fff58593          	add	a1,a1,-1 # ffff <_end+0xb49f>
     adc:	02b57633          	remu	a2,a0,a1
     ae0:	1cc2a423          	sw	a2,456(t0)

00000ae4 <inst_132>:
     ae4:	55555537          	lui	a0,0x55555
     ae8:	55550513          	add	a0,a0,1365 # 55555555 <_end+0x555509f5>
     aec:	00200593          	li	a1,2
     af0:	02b57633          	remu	a2,a0,a1
     af4:	1cc2a623          	sw	a2,460(t0)

00000af8 <inst_133>:
     af8:	55555537          	lui	a0,0x55555
     afc:	55550513          	add	a0,a0,1365 # 55555555 <_end+0x555509f5>
     b00:	555555b7          	lui	a1,0x55555
     b04:	55458593          	add	a1,a1,1364 # 55555554 <_end+0x555509f4>
     b08:	02b57633          	remu	a2,a0,a1
     b0c:	1cc2a823          	sw	a2,464(t0)

00000b10 <inst_134>:
     b10:	55555537          	lui	a0,0x55555
     b14:	55550513          	add	a0,a0,1365 # 55555555 <_end+0x555509f5>
     b18:	aaaab5b7          	lui	a1,0xaaaab
     b1c:	aa958593          	add	a1,a1,-1367 # aaaaaaa9 <_end+0xaaaa5f49>
     b20:	02b57633          	remu	a2,a0,a1
     b24:	1cc2aa23          	sw	a2,468(t0)

00000b28 <inst_135>:
     b28:	55555537          	lui	a0,0x55555
     b2c:	55550513          	add	a0,a0,1365 # 55555555 <_end+0x555509f5>
     b30:	00400593          	li	a1,4
     b34:	02b57633          	remu	a2,a0,a1
     b38:	1cc2ac23          	sw	a2,472(t0)

00000b3c <inst_136>:
     b3c:	55555537          	lui	a0,0x55555
     b40:	55550513          	add	a0,a0,1365 # 55555555 <_end+0x555509f5>
     b44:	333335b7          	lui	a1,0x33333
     b48:	33258593          	add	a1,a1,818 # 33333332 <_end+0x3332e7d2>
     b4c:	02b57633          	remu	a2,a0,a1
     b50:	1cc2ae23          	sw	a2,476(t0)

00000b54 <inst_137>:
     b54:	55555537          	lui	a0,0x55555
     b58:	55550513          	add	a0,a0,1365 # 55555555 <_end+0x555509f5>
     b5c:	666665b7          	lui	a1,0x66666
     b60:	66558593          	add	a1,a1,1637 # 66666665 <_end+0x66661b05>
     b64:	02b57633          	remu	a2,a0,a1
     b68:	1ec2a023          	sw	a2,480(t0)

00000b6c <inst_138>:
     b6c:	55555537          	lui	a0,0x55555
     b70:	55550513          	add	a0,a0,1365 # 55555555 <_end+0x555509f5>
     b74:	0000b5b7          	lui	a1,0xb
     b78:	50358593          	add	a1,a1,1283 # b503 <_end+0x69a3>
     b7c:	02b57633          	remu	a2,a0,a1
     b80:	1ec2a223          	sw	a2,484(t0)

00000b84 <inst_139>:
     b84:	55555537          	lui	a0,0x55555
     b88:	55550513          	add	a0,a0,1365 # 55555555 <_end+0x555509f5>
     b8c:	000105b7          	lui	a1,0x10
     b90:	ffe58593          	add	a1,a1,-2 # fffe <_end+0xb49e>
     b94:	02b57633          	remu	a2,a0,a1
     b98:	1ec2a423          	sw	a2,488(t0)

00000b9c <inst_140>:
     b9c:	55555537          	lui	a0,0x55555
     ba0:	55550513          	add	a0,a0,1365 # 55555555 <_end+0x555509f5>
     ba4:	555555b7          	lui	a1,0x55555
     ba8:	55658593          	add	a1,a1,1366 # 55555556 <_end+0x555509f6>
     bac:	02b57633          	remu	a2,a0,a1
     bb0:	1ec2a623          	sw	a2,492(t0)

00000bb4 <inst_141>:
     bb4:	55555537          	lui	a0,0x55555
     bb8:	55550513          	add	a0,a0,1365 # 55555555 <_end+0x555509f5>
     bbc:	aaaab5b7          	lui	a1,0xaaaab
     bc0:	aab58593          	add	a1,a1,-1365 # aaaaaaab <_end+0xaaaa5f4b>
     bc4:	02b57633          	remu	a2,a0,a1
     bc8:	1ec2a823          	sw	a2,496(t0)

00000bcc <inst_142>:
     bcc:	55555537          	lui	a0,0x55555
     bd0:	55550513          	add	a0,a0,1365 # 55555555 <_end+0x555509f5>
     bd4:	00600593          	li	a1,6
     bd8:	02b57633          	remu	a2,a0,a1
     bdc:	1ec2aa23          	sw	a2,500(t0)

00000be0 <inst_143>:
     be0:	55555537          	lui	a0,0x55555
     be4:	55550513          	add	a0,a0,1365 # 55555555 <_end+0x555509f5>
     be8:	333335b7          	lui	a1,0x33333
     bec:	33458593          	add	a1,a1,820 # 33333334 <_end+0x3332e7d4>
     bf0:	02b57633          	remu	a2,a0,a1
     bf4:	1ec2ac23          	sw	a2,504(t0)

00000bf8 <inst_144>:
     bf8:	55555537          	lui	a0,0x55555
     bfc:	55550513          	add	a0,a0,1365 # 55555555 <_end+0x555509f5>
     c00:	666665b7          	lui	a1,0x66666
     c04:	66758593          	add	a1,a1,1639 # 66666667 <_end+0x66661b07>
     c08:	02b57633          	remu	a2,a0,a1
     c0c:	1ec2ae23          	sw	a2,508(t0)

00000c10 <inst_145>:
     c10:	55555537          	lui	a0,0x55555
     c14:	55550513          	add	a0,a0,1365 # 55555555 <_end+0x555509f5>
     c18:	0000b5b7          	lui	a1,0xb
     c1c:	50558593          	add	a1,a1,1285 # b505 <_end+0x69a5>
     c20:	02b57633          	remu	a2,a0,a1
     c24:	20c2a023          	sw	a2,512(t0)

00000c28 <inst_146>:
     c28:	55555537          	lui	a0,0x55555
     c2c:	55550513          	add	a0,a0,1365 # 55555555 <_end+0x555509f5>
     c30:	00100593          	li	a1,1
     c34:	02b57633          	remu	a2,a0,a1
     c38:	20c2a223          	sw	a2,516(t0)

00000c3c <inst_147>:
     c3c:	55555537          	lui	a0,0x55555
     c40:	55550513          	add	a0,a0,1365 # 55555555 <_end+0x555509f5>
     c44:	000105b7          	lui	a1,0x10
     c48:	02b57633          	remu	a2,a0,a1
     c4c:	20c2a423          	sw	a2,520(t0)

00000c50 <inst_148>:
     c50:	aaaab537          	lui	a0,0xaaaab
     c54:	aaa50513          	add	a0,a0,-1366 # aaaaaaaa <_end+0xaaaa5f4a>
     c58:	00300593          	li	a1,3
     c5c:	02b57633          	remu	a2,a0,a1
     c60:	20c2a623          	sw	a2,524(t0)

00000c64 <inst_149>:
     c64:	aaaab537          	lui	a0,0xaaaab
     c68:	aaa50513          	add	a0,a0,-1366 # aaaaaaaa <_end+0xaaaa5f4a>
     c6c:	555555b7          	lui	a1,0x55555
     c70:	55558593          	add	a1,a1,1365 # 55555555 <_end+0x555509f5>
     c74:	02b57633          	remu	a2,a0,a1
     c78:	20c2a823          	sw	a2,528(t0)

00000c7c <inst_150>:
     c7c:	aaaab537          	lui	a0,0xaaaab
     c80:	aaa50513          	add	a0,a0,-1366 # aaaaaaaa <_end+0xaaaa5f4a>
     c84:	aaaab5b7          	lui	a1,0xaaaab
     c88:	aaa58593          	add	a1,a1,-1366 # aaaaaaaa <_end+0xaaaa5f4a>
     c8c:	02b57633          	remu	a2,a0,a1
     c90:	20c2aa23          	sw	a2,532(t0)

00000c94 <inst_151>:
     c94:	aaaab537          	lui	a0,0xaaaab
     c98:	aaa50513          	add	a0,a0,-1366 # aaaaaaaa <_end+0xaaaa5f4a>
     c9c:	00500593          	li	a1,5
     ca0:	02b57633          	remu	a2,a0,a1
     ca4:	20c2ac23          	sw	a2,536(t0)

00000ca8 <inst_152>:
     ca8:	aaaab537          	lui	a0,0xaaaab
     cac:	aaa50513          	add	a0,a0,-1366 # aaaaaaaa <_end+0xaaaa5f4a>
     cb0:	333335b7          	lui	a1,0x33333
     cb4:	33358593          	add	a1,a1,819 # 33333333 <_end+0x3332e7d3>
     cb8:	02b57633          	remu	a2,a0,a1
     cbc:	20c2ae23          	sw	a2,540(t0)

00000cc0 <inst_153>:
     cc0:	aaaab537          	lui	a0,0xaaaab
     cc4:	aaa50513          	add	a0,a0,-1366 # aaaaaaaa <_end+0xaaaa5f4a>
     cc8:	666665b7          	lui	a1,0x66666
     ccc:	66658593          	add	a1,a1,1638 # 66666666 <_end+0x66661b06>
     cd0:	02b57633          	remu	a2,a0,a1
     cd4:	22c2a023          	sw	a2,544(t0)

00000cd8 <inst_154>:
     cd8:	aaaab537          	lui	a0,0xaaaab
     cdc:	aaa50513          	add	a0,a0,-1366 # aaaaaaaa <_end+0xaaaa5f4a>
     ce0:	0000b5b7          	lui	a1,0xb
     ce4:	50458593          	add	a1,a1,1284 # b504 <_end+0x69a4>
     ce8:	02b57633          	remu	a2,a0,a1
     cec:	22c2a223          	sw	a2,548(t0)

00000cf0 <inst_155>:
     cf0:	aaaab537          	lui	a0,0xaaaab
     cf4:	aaa50513          	add	a0,a0,-1366 # aaaaaaaa <_end+0xaaaa5f4a>
     cf8:	00000593          	li	a1,0
     cfc:	02b57633          	remu	a2,a0,a1
     d00:	22c2a423          	sw	a2,552(t0)

00000d04 <inst_156>:
     d04:	aaaab537          	lui	a0,0xaaaab
     d08:	aaa50513          	add	a0,a0,-1366 # aaaaaaaa <_end+0xaaaa5f4a>
     d0c:	000105b7          	lui	a1,0x10
     d10:	fff58593          	add	a1,a1,-1 # ffff <_end+0xb49f>
     d14:	02b57633          	remu	a2,a0,a1
     d18:	22c2a623          	sw	a2,556(t0)

00000d1c <inst_157>:
     d1c:	aaaab537          	lui	a0,0xaaaab
     d20:	aaa50513          	add	a0,a0,-1366 # aaaaaaaa <_end+0xaaaa5f4a>
     d24:	00200593          	li	a1,2
     d28:	02b57633          	remu	a2,a0,a1
     d2c:	22c2a823          	sw	a2,560(t0)

00000d30 <inst_158>:
     d30:	aaaab537          	lui	a0,0xaaaab
     d34:	aaa50513          	add	a0,a0,-1366 # aaaaaaaa <_end+0xaaaa5f4a>
     d38:	555555b7          	lui	a1,0x55555
     d3c:	55458593          	add	a1,a1,1364 # 55555554 <_end+0x555509f4>
     d40:	02b57633          	remu	a2,a0,a1
     d44:	22c2aa23          	sw	a2,564(t0)

00000d48 <inst_159>:
     d48:	aaaab537          	lui	a0,0xaaaab
     d4c:	aaa50513          	add	a0,a0,-1366 # aaaaaaaa <_end+0xaaaa5f4a>
     d50:	aaaab5b7          	lui	a1,0xaaaab
     d54:	aa958593          	add	a1,a1,-1367 # aaaaaaa9 <_end+0xaaaa5f49>
     d58:	02b57633          	remu	a2,a0,a1
     d5c:	22c2ac23          	sw	a2,568(t0)

00000d60 <inst_160>:
     d60:	aaaab537          	lui	a0,0xaaaab
     d64:	aaa50513          	add	a0,a0,-1366 # aaaaaaaa <_end+0xaaaa5f4a>
     d68:	00400593          	li	a1,4
     d6c:	02b57633          	remu	a2,a0,a1
     d70:	22c2ae23          	sw	a2,572(t0)

00000d74 <inst_161>:
     d74:	aaaab537          	lui	a0,0xaaaab
     d78:	aaa50513          	add	a0,a0,-1366 # aaaaaaaa <_end+0xaaaa5f4a>
     d7c:	333335b7          	lui	a1,0x33333
     d80:	33258593          	add	a1,a1,818 # 33333332 <_end+0x3332e7d2>
     d84:	02b57633          	remu	a2,a0,a1
     d88:	24c2a023          	sw	a2,576(t0)

00000d8c <inst_162>:
     d8c:	aaaab537          	lui	a0,0xaaaab
     d90:	aaa50513          	add	a0,a0,-1366 # aaaaaaaa <_end+0xaaaa5f4a>
     d94:	666665b7          	lui	a1,0x66666
     d98:	66558593          	add	a1,a1,1637 # 66666665 <_end+0x66661b05>
     d9c:	02b57633          	remu	a2,a0,a1
     da0:	24c2a223          	sw	a2,580(t0)

00000da4 <inst_163>:
     da4:	aaaab537          	lui	a0,0xaaaab
     da8:	aaa50513          	add	a0,a0,-1366 # aaaaaaaa <_end+0xaaaa5f4a>
     dac:	0000b5b7          	lui	a1,0xb
     db0:	50358593          	add	a1,a1,1283 # b503 <_end+0x69a3>
     db4:	02b57633          	remu	a2,a0,a1
     db8:	24c2a423          	sw	a2,584(t0)

00000dbc <inst_164>:
     dbc:	aaaab537          	lui	a0,0xaaaab
     dc0:	aaa50513          	add	a0,a0,-1366 # aaaaaaaa <_end+0xaaaa5f4a>
     dc4:	000105b7          	lui	a1,0x10
     dc8:	ffe58593          	add	a1,a1,-2 # fffe <_end+0xb49e>
     dcc:	02b57633          	remu	a2,a0,a1
     dd0:	24c2a623          	sw	a2,588(t0)

00000dd4 <inst_165>:
     dd4:	aaaab537          	lui	a0,0xaaaab
     dd8:	aaa50513          	add	a0,a0,-1366 # aaaaaaaa <_end+0xaaaa5f4a>
     ddc:	555555b7          	lui	a1,0x55555
     de0:	55658593          	add	a1,a1,1366 # 55555556 <_end+0x555509f6>
     de4:	02b57633          	remu	a2,a0,a1
     de8:	24c2a823          	sw	a2,592(t0)

00000dec <inst_166>:
     dec:	aaaab537          	lui	a0,0xaaaab
     df0:	aaa50513          	add	a0,a0,-1366 # aaaaaaaa <_end+0xaaaa5f4a>
     df4:	aaaab5b7          	lui	a1,0xaaaab
     df8:	aab58593          	add	a1,a1,-1365 # aaaaaaab <_end+0xaaaa5f4b>
     dfc:	02b57633          	remu	a2,a0,a1
     e00:	24c2aa23          	sw	a2,596(t0)

00000e04 <inst_167>:
     e04:	aaaab537          	lui	a0,0xaaaab
     e08:	aaa50513          	add	a0,a0,-1366 # aaaaaaaa <_end+0xaaaa5f4a>
     e0c:	00600593          	li	a1,6
     e10:	02b57633          	remu	a2,a0,a1
     e14:	24c2ac23          	sw	a2,600(t0)

00000e18 <inst_168>:
     e18:	aaaab537          	lui	a0,0xaaaab
     e1c:	aaa50513          	add	a0,a0,-1366 # aaaaaaaa <_end+0xaaaa5f4a>
     e20:	333335b7          	lui	a1,0x33333
     e24:	33458593          	add	a1,a1,820 # 33333334 <_end+0x3332e7d4>
     e28:	02b57633          	remu	a2,a0,a1
     e2c:	24c2ae23          	sw	a2,604(t0)

00000e30 <inst_169>:
     e30:	aaaab537          	lui	a0,0xaaaab
     e34:	aaa50513          	add	a0,a0,-1366 # aaaaaaaa <_end+0xaaaa5f4a>
     e38:	666665b7          	lui	a1,0x66666
     e3c:	66758593          	add	a1,a1,1639 # 66666667 <_end+0x66661b07>
     e40:	02b57633          	remu	a2,a0,a1
     e44:	26c2a023          	sw	a2,608(t0)

00000e48 <inst_170>:
     e48:	aaaab537          	lui	a0,0xaaaab
     e4c:	aaa50513          	add	a0,a0,-1366 # aaaaaaaa <_end+0xaaaa5f4a>
     e50:	0000b5b7          	lui	a1,0xb
     e54:	50558593          	add	a1,a1,1285 # b505 <_end+0x69a5>
     e58:	02b57633          	remu	a2,a0,a1
     e5c:	26c2a223          	sw	a2,612(t0)

00000e60 <inst_171>:
     e60:	aaaab537          	lui	a0,0xaaaab
     e64:	aaa50513          	add	a0,a0,-1366 # aaaaaaaa <_end+0xaaaa5f4a>
     e68:	000105b7          	lui	a1,0x10
     e6c:	02b57633          	remu	a2,a0,a1
     e70:	26c2a423          	sw	a2,616(t0)

00000e74 <inst_172>:
     e74:	00500513          	li	a0,5
     e78:	00300593          	li	a1,3
     e7c:	02b57633          	remu	a2,a0,a1
     e80:	26c2a623          	sw	a2,620(t0)

00000e84 <inst_173>:
     e84:	00500513          	li	a0,5
     e88:	555555b7          	lui	a1,0x55555
     e8c:	55558593          	add	a1,a1,1365 # 55555555 <_end+0x555509f5>
     e90:	02b57633          	remu	a2,a0,a1
     e94:	26c2a823          	sw	a2,624(t0)

00000e98 <inst_174>:
     e98:	00500513          	li	a0,5
     e9c:	aaaab5b7          	lui	a1,0xaaaab
     ea0:	aaa58593          	add	a1,a1,-1366 # aaaaaaaa <_end+0xaaaa5f4a>
     ea4:	02b57633          	remu	a2,a0,a1
     ea8:	26c2aa23          	sw	a2,628(t0)

00000eac <inst_175>:
     eac:	00500513          	li	a0,5
     eb0:	00500593          	li	a1,5
     eb4:	02b57633          	remu	a2,a0,a1
     eb8:	26c2ac23          	sw	a2,632(t0)

00000ebc <inst_176>:
     ebc:	00500513          	li	a0,5
     ec0:	333335b7          	lui	a1,0x33333
     ec4:	33358593          	add	a1,a1,819 # 33333333 <_end+0x3332e7d3>
     ec8:	02b57633          	remu	a2,a0,a1
     ecc:	26c2ae23          	sw	a2,636(t0)

00000ed0 <inst_177>:
     ed0:	00500513          	li	a0,5
     ed4:	666665b7          	lui	a1,0x66666
     ed8:	66658593          	add	a1,a1,1638 # 66666666 <_end+0x66661b06>
     edc:	02b57633          	remu	a2,a0,a1
     ee0:	28c2a023          	sw	a2,640(t0)

00000ee4 <inst_178>:
     ee4:	00500513          	li	a0,5
     ee8:	0000b5b7          	lui	a1,0xb
     eec:	50458593          	add	a1,a1,1284 # b504 <_end+0x69a4>
     ef0:	02b57633          	remu	a2,a0,a1
     ef4:	28c2a223          	sw	a2,644(t0)

00000ef8 <inst_179>:
     ef8:	00500513          	li	a0,5
     efc:	00000593          	li	a1,0
     f00:	02b57633          	remu	a2,a0,a1
     f04:	28c2a423          	sw	a2,648(t0)

00000f08 <inst_180>:
     f08:	00500513          	li	a0,5
     f0c:	000105b7          	lui	a1,0x10
     f10:	fff58593          	add	a1,a1,-1 # ffff <_end+0xb49f>
     f14:	02b57633          	remu	a2,a0,a1
     f18:	28c2a623          	sw	a2,652(t0)

00000f1c <inst_181>:
     f1c:	00500513          	li	a0,5
     f20:	00200593          	li	a1,2
     f24:	02b57633          	remu	a2,a0,a1
     f28:	28c2a823          	sw	a2,656(t0)

00000f2c <inst_182>:
     f2c:	00500513          	li	a0,5
     f30:	555555b7          	lui	a1,0x55555
     f34:	55458593          	add	a1,a1,1364 # 55555554 <_end+0x555509f4>
     f38:	02b57633          	remu	a2,a0,a1
     f3c:	28c2aa23          	sw	a2,660(t0)

00000f40 <inst_183>:
     f40:	00500513          	li	a0,5
     f44:	aaaab5b7          	lui	a1,0xaaaab
     f48:	aa958593          	add	a1,a1,-1367 # aaaaaaa9 <_end+0xaaaa5f49>
     f4c:	02b57633          	remu	a2,a0,a1
     f50:	28c2ac23          	sw	a2,664(t0)

00000f54 <inst_184>:
     f54:	00500513          	li	a0,5
     f58:	00400593          	li	a1,4
     f5c:	02b57633          	remu	a2,a0,a1
     f60:	28c2ae23          	sw	a2,668(t0)

00000f64 <inst_185>:
     f64:	00500513          	li	a0,5
     f68:	333335b7          	lui	a1,0x33333
     f6c:	33258593          	add	a1,a1,818 # 33333332 <_end+0x3332e7d2>
     f70:	02b57633          	remu	a2,a0,a1
     f74:	2ac2a023          	sw	a2,672(t0)

00000f78 <inst_186>:
     f78:	00500513          	li	a0,5
     f7c:	666665b7          	lui	a1,0x66666
     f80:	66558593          	add	a1,a1,1637 # 66666665 <_end+0x66661b05>
     f84:	02b57633          	remu	a2,a0,a1
     f88:	2ac2a223          	sw	a2,676(t0)

00000f8c <inst_187>:
     f8c:	00500513          	li	a0,5
     f90:	0000b5b7          	lui	a1,0xb
     f94:	50358593          	add	a1,a1,1283 # b503 <_end+0x69a3>
     f98:	02b57633          	remu	a2,a0,a1
     f9c:	2ac2a423          	sw	a2,680(t0)

00000fa0 <inst_188>:
     fa0:	00500513          	li	a0,5
     fa4:	000105b7          	lui	a1,0x10
     fa8:	ffe58593          	add	a1,a1,-2 # fffe <_end+0xb49e>
     fac:	02b57633          	remu	a2,a0,a1
     fb0:	2ac2a623          	sw	a2,684(t0)

00000fb4 <inst_189>:
     fb4:	00500513          	li	a0,5
     fb8:	555555b7          	lui	a1,0x55555
     fbc:	55658593          	add	a1,a1,1366 # 55555556 <_end+0x555509f6>
     fc0:	02b57633          	remu	a2,a0,a1
     fc4:	2ac2a823          	sw	a2,688(t0)

00000fc8 <inst_190>:
     fc8:	00500513          	li	a0,5
     fcc:	aaaab5b7          	lui	a1,0xaaaab
     fd0:	aab58593          	add	a1,a1,-1365 # aaaaaaab <_end+0xaaaa5f4b>
     fd4:	02b57633          	remu	a2,a0,a1
     fd8:	2ac2aa23          	sw	a2,692(t0)

00000fdc <inst_191>:
     fdc:	00500513          	li	a0,5
     fe0:	00600593          	li	a1,6
     fe4:	02b57633          	remu	a2,a0,a1
     fe8:	2ac2ac23          	sw	a2,696(t0)

00000fec <inst_192>:
     fec:	00500513          	li	a0,5
     ff0:	333335b7          	lui	a1,0x33333
     ff4:	33458593          	add	a1,a1,820 # 33333334 <_end+0x3332e7d4>
     ff8:	02b57633          	remu	a2,a0,a1
     ffc:	2ac2ae23          	sw	a2,700(t0)

00001000 <inst_193>:
    1000:	00500513          	li	a0,5
    1004:	666665b7          	lui	a1,0x66666
    1008:	66758593          	add	a1,a1,1639 # 66666667 <_end+0x66661b07>
    100c:	02b57633          	remu	a2,a0,a1
    1010:	2cc2a023          	sw	a2,704(t0)

00001014 <inst_194>:
    1014:	00500513          	li	a0,5
    1018:	0000b5b7          	lui	a1,0xb
    101c:	50558593          	add	a1,a1,1285 # b505 <_end+0x69a5>
    1020:	02b57633          	remu	a2,a0,a1
    1024:	2cc2a223          	sw	a2,708(t0)

00001028 <inst_195>:
    1028:	00500513          	li	a0,5
    102c:	00100593          	li	a1,1
    1030:	02b57633          	remu	a2,a0,a1
    1034:	2cc2a423          	sw	a2,712(t0)

00001038 <inst_196>:
    1038:	00500513          	li	a0,5
    103c:	000105b7          	lui	a1,0x10
    1040:	02b57633          	remu	a2,a0,a1
    1044:	2cc2a623          	sw	a2,716(t0)

00001048 <inst_197>:
    1048:	33333537          	lui	a0,0x33333
    104c:	33350513          	add	a0,a0,819 # 33333333 <_end+0x3332e7d3>
    1050:	00300593          	li	a1,3
    1054:	02b57633          	remu	a2,a0,a1
    1058:	2cc2a823          	sw	a2,720(t0)

0000105c <inst_198>:
    105c:	33333537          	lui	a0,0x33333
    1060:	33350513          	add	a0,a0,819 # 33333333 <_end+0x3332e7d3>
    1064:	555555b7          	lui	a1,0x55555
    1068:	55558593          	add	a1,a1,1365 # 55555555 <_end+0x555509f5>
    106c:	02b57633          	remu	a2,a0,a1
    1070:	2cc2aa23          	sw	a2,724(t0)

00001074 <inst_199>:
    1074:	33333537          	lui	a0,0x33333
    1078:	33350513          	add	a0,a0,819 # 33333333 <_end+0x3332e7d3>
    107c:	aaaab5b7          	lui	a1,0xaaaab
    1080:	aaa58593          	add	a1,a1,-1366 # aaaaaaaa <_end+0xaaaa5f4a>
    1084:	02b57633          	remu	a2,a0,a1
    1088:	2cc2ac23          	sw	a2,728(t0)

0000108c <inst_200>:
    108c:	33333537          	lui	a0,0x33333
    1090:	33350513          	add	a0,a0,819 # 33333333 <_end+0x3332e7d3>
    1094:	00500593          	li	a1,5
    1098:	02b57633          	remu	a2,a0,a1
    109c:	2cc2ae23          	sw	a2,732(t0)

000010a0 <inst_201>:
    10a0:	33333537          	lui	a0,0x33333
    10a4:	33350513          	add	a0,a0,819 # 33333333 <_end+0x3332e7d3>
    10a8:	333335b7          	lui	a1,0x33333
    10ac:	33358593          	add	a1,a1,819 # 33333333 <_end+0x3332e7d3>
    10b0:	02b57633          	remu	a2,a0,a1
    10b4:	2ec2a023          	sw	a2,736(t0)

000010b8 <inst_202>:
    10b8:	33333537          	lui	a0,0x33333
    10bc:	33350513          	add	a0,a0,819 # 33333333 <_end+0x3332e7d3>
    10c0:	666665b7          	lui	a1,0x66666
    10c4:	66658593          	add	a1,a1,1638 # 66666666 <_end+0x66661b06>
    10c8:	02b57633          	remu	a2,a0,a1
    10cc:	2ec2a223          	sw	a2,740(t0)

000010d0 <inst_203>:
    10d0:	33333537          	lui	a0,0x33333
    10d4:	33350513          	add	a0,a0,819 # 33333333 <_end+0x3332e7d3>
    10d8:	0000b5b7          	lui	a1,0xb
    10dc:	50458593          	add	a1,a1,1284 # b504 <_end+0x69a4>
    10e0:	02b57633          	remu	a2,a0,a1
    10e4:	2ec2a423          	sw	a2,744(t0)

000010e8 <inst_204>:
    10e8:	33333537          	lui	a0,0x33333
    10ec:	33350513          	add	a0,a0,819 # 33333333 <_end+0x3332e7d3>
    10f0:	00000593          	li	a1,0
    10f4:	02b57633          	remu	a2,a0,a1
    10f8:	2ec2a623          	sw	a2,748(t0)

000010fc <inst_205>:
    10fc:	33333537          	lui	a0,0x33333
    1100:	33350513          	add	a0,a0,819 # 33333333 <_end+0x3332e7d3>
    1104:	000105b7          	lui	a1,0x10
    1108:	fff58593          	add	a1,a1,-1 # ffff <_end+0xb49f>
    110c:	02b57633          	remu	a2,a0,a1
    1110:	2ec2a823          	sw	a2,752(t0)

00001114 <inst_206>:
    1114:	33333537          	lui	a0,0x33333
    1118:	33350513          	add	a0,a0,819 # 33333333 <_end+0x3332e7d3>
    111c:	00200593          	li	a1,2
    1120:	02b57633          	remu	a2,a0,a1
    1124:	2ec2aa23          	sw	a2,756(t0)

00001128 <inst_207>:
    1128:	33333537          	lui	a0,0x33333
    112c:	33350513          	add	a0,a0,819 # 33333333 <_end+0x3332e7d3>
    1130:	555555b7          	lui	a1,0x55555
    1134:	55458593          	add	a1,a1,1364 # 55555554 <_end+0x555509f4>
    1138:	02b57633          	remu	a2,a0,a1
    113c:	2ec2ac23          	sw	a2,760(t0)

00001140 <inst_208>:
    1140:	33333537          	lui	a0,0x33333
    1144:	33350513          	add	a0,a0,819 # 33333333 <_end+0x3332e7d3>
    1148:	aaaab5b7          	lui	a1,0xaaaab
    114c:	aa958593          	add	a1,a1,-1367 # aaaaaaa9 <_end+0xaaaa5f49>
    1150:	02b57633          	remu	a2,a0,a1
    1154:	2ec2ae23          	sw	a2,764(t0)

00001158 <inst_209>:
    1158:	33333537          	lui	a0,0x33333
    115c:	33350513          	add	a0,a0,819 # 33333333 <_end+0x3332e7d3>
    1160:	00400593          	li	a1,4
    1164:	02b57633          	remu	a2,a0,a1
    1168:	30c2a023          	sw	a2,768(t0)

0000116c <inst_210>:
    116c:	33333537          	lui	a0,0x33333
    1170:	33350513          	add	a0,a0,819 # 33333333 <_end+0x3332e7d3>
    1174:	333335b7          	lui	a1,0x33333
    1178:	33258593          	add	a1,a1,818 # 33333332 <_end+0x3332e7d2>
    117c:	02b57633          	remu	a2,a0,a1
    1180:	30c2a223          	sw	a2,772(t0)

00001184 <inst_211>:
    1184:	33333537          	lui	a0,0x33333
    1188:	33350513          	add	a0,a0,819 # 33333333 <_end+0x3332e7d3>
    118c:	666665b7          	lui	a1,0x66666
    1190:	66558593          	add	a1,a1,1637 # 66666665 <_end+0x66661b05>
    1194:	02b57633          	remu	a2,a0,a1
    1198:	30c2a423          	sw	a2,776(t0)

0000119c <inst_212>:
    119c:	33333537          	lui	a0,0x33333
    11a0:	33350513          	add	a0,a0,819 # 33333333 <_end+0x3332e7d3>
    11a4:	0000b5b7          	lui	a1,0xb
    11a8:	50358593          	add	a1,a1,1283 # b503 <_end+0x69a3>
    11ac:	02b57633          	remu	a2,a0,a1
    11b0:	30c2a623          	sw	a2,780(t0)

000011b4 <inst_213>:
    11b4:	33333537          	lui	a0,0x33333
    11b8:	33350513          	add	a0,a0,819 # 33333333 <_end+0x3332e7d3>
    11bc:	000105b7          	lui	a1,0x10
    11c0:	ffe58593          	add	a1,a1,-2 # fffe <_end+0xb49e>
    11c4:	02b57633          	remu	a2,a0,a1
    11c8:	30c2a823          	sw	a2,784(t0)

000011cc <inst_214>:
    11cc:	33333537          	lui	a0,0x33333
    11d0:	33350513          	add	a0,a0,819 # 33333333 <_end+0x3332e7d3>
    11d4:	555555b7          	lui	a1,0x55555
    11d8:	55658593          	add	a1,a1,1366 # 55555556 <_end+0x555509f6>
    11dc:	02b57633          	remu	a2,a0,a1
    11e0:	30c2aa23          	sw	a2,788(t0)

000011e4 <inst_215>:
    11e4:	33333537          	lui	a0,0x33333
    11e8:	33350513          	add	a0,a0,819 # 33333333 <_end+0x3332e7d3>
    11ec:	aaaab5b7          	lui	a1,0xaaaab
    11f0:	aab58593          	add	a1,a1,-1365 # aaaaaaab <_end+0xaaaa5f4b>
    11f4:	02b57633          	remu	a2,a0,a1
    11f8:	30c2ac23          	sw	a2,792(t0)

000011fc <inst_216>:
    11fc:	33333537          	lui	a0,0x33333
    1200:	33350513          	add	a0,a0,819 # 33333333 <_end+0x3332e7d3>
    1204:	00600593          	li	a1,6
    1208:	02b57633          	remu	a2,a0,a1
    120c:	30c2ae23          	sw	a2,796(t0)

00001210 <inst_217>:
    1210:	33333537          	lui	a0,0x33333
    1214:	33350513          	add	a0,a0,819 # 33333333 <_end+0x3332e7d3>
    1218:	333335b7          	lui	a1,0x33333
    121c:	33458593          	add	a1,a1,820 # 33333334 <_end+0x3332e7d4>
    1220:	02b57633          	remu	a2,a0,a1
    1224:	32c2a023          	sw	a2,800(t0)

00001228 <inst_218>:
    1228:	33333537          	lui	a0,0x33333
    122c:	33350513          	add	a0,a0,819 # 33333333 <_end+0x3332e7d3>
    1230:	666665b7          	lui	a1,0x66666
    1234:	66758593          	add	a1,a1,1639 # 66666667 <_end+0x66661b07>
    1238:	02b57633          	remu	a2,a0,a1
    123c:	32c2a223          	sw	a2,804(t0)

00001240 <inst_219>:
    1240:	33333537          	lui	a0,0x33333
    1244:	33350513          	add	a0,a0,819 # 33333333 <_end+0x3332e7d3>
    1248:	0000b5b7          	lui	a1,0xb
    124c:	50558593          	add	a1,a1,1285 # b505 <_end+0x69a5>
    1250:	02b57633          	remu	a2,a0,a1
    1254:	32c2a423          	sw	a2,808(t0)

00001258 <inst_220>:
    1258:	33333537          	lui	a0,0x33333
    125c:	33350513          	add	a0,a0,819 # 33333333 <_end+0x3332e7d3>
    1260:	00100593          	li	a1,1
    1264:	02b57633          	remu	a2,a0,a1
    1268:	32c2a623          	sw	a2,812(t0)

0000126c <inst_221>:
    126c:	33333537          	lui	a0,0x33333
    1270:	33350513          	add	a0,a0,819 # 33333333 <_end+0x3332e7d3>
    1274:	000105b7          	lui	a1,0x10
    1278:	02b57633          	remu	a2,a0,a1
    127c:	32c2a823          	sw	a2,816(t0)

00001280 <inst_222>:
    1280:	66666537          	lui	a0,0x66666
    1284:	66650513          	add	a0,a0,1638 # 66666666 <_end+0x66661b06>
    1288:	00300593          	li	a1,3
    128c:	02b57633          	remu	a2,a0,a1
    1290:	32c2aa23          	sw	a2,820(t0)

00001294 <inst_223>:
    1294:	66666537          	lui	a0,0x66666
    1298:	66650513          	add	a0,a0,1638 # 66666666 <_end+0x66661b06>
    129c:	555555b7          	lui	a1,0x55555
    12a0:	55558593          	add	a1,a1,1365 # 55555555 <_end+0x555509f5>
    12a4:	02b57633          	remu	a2,a0,a1
    12a8:	32c2ac23          	sw	a2,824(t0)

000012ac <inst_224>:
    12ac:	66666537          	lui	a0,0x66666
    12b0:	66650513          	add	a0,a0,1638 # 66666666 <_end+0x66661b06>
    12b4:	aaaab5b7          	lui	a1,0xaaaab
    12b8:	aaa58593          	add	a1,a1,-1366 # aaaaaaaa <_end+0xaaaa5f4a>
    12bc:	02b57633          	remu	a2,a0,a1
    12c0:	32c2ae23          	sw	a2,828(t0)

000012c4 <inst_225>:
    12c4:	66666537          	lui	a0,0x66666
    12c8:	66650513          	add	a0,a0,1638 # 66666666 <_end+0x66661b06>
    12cc:	00500593          	li	a1,5
    12d0:	02b57633          	remu	a2,a0,a1
    12d4:	34c2a023          	sw	a2,832(t0)

000012d8 <inst_226>:
    12d8:	66666537          	lui	a0,0x66666
    12dc:	66650513          	add	a0,a0,1638 # 66666666 <_end+0x66661b06>
    12e0:	333335b7          	lui	a1,0x33333
    12e4:	33358593          	add	a1,a1,819 # 33333333 <_end+0x3332e7d3>
    12e8:	02b57633          	remu	a2,a0,a1
    12ec:	34c2a223          	sw	a2,836(t0)

000012f0 <inst_227>:
    12f0:	66666537          	lui	a0,0x66666
    12f4:	66650513          	add	a0,a0,1638 # 66666666 <_end+0x66661b06>
    12f8:	666665b7          	lui	a1,0x66666
    12fc:	66658593          	add	a1,a1,1638 # 66666666 <_end+0x66661b06>
    1300:	02b57633          	remu	a2,a0,a1
    1304:	34c2a423          	sw	a2,840(t0)

00001308 <inst_228>:
    1308:	66666537          	lui	a0,0x66666
    130c:	66650513          	add	a0,a0,1638 # 66666666 <_end+0x66661b06>
    1310:	0000b5b7          	lui	a1,0xb
    1314:	50458593          	add	a1,a1,1284 # b504 <_end+0x69a4>
    1318:	02b57633          	remu	a2,a0,a1
    131c:	34c2a623          	sw	a2,844(t0)

00001320 <inst_229>:
    1320:	66666537          	lui	a0,0x66666
    1324:	66650513          	add	a0,a0,1638 # 66666666 <_end+0x66661b06>
    1328:	00000593          	li	a1,0
    132c:	02b57633          	remu	a2,a0,a1
    1330:	34c2a823          	sw	a2,848(t0)

00001334 <inst_230>:
    1334:	66666537          	lui	a0,0x66666
    1338:	66650513          	add	a0,a0,1638 # 66666666 <_end+0x66661b06>
    133c:	000105b7          	lui	a1,0x10
    1340:	fff58593          	add	a1,a1,-1 # ffff <_end+0xb49f>
    1344:	02b57633          	remu	a2,a0,a1
    1348:	34c2aa23          	sw	a2,852(t0)

0000134c <inst_231>:
    134c:	66666537          	lui	a0,0x66666
    1350:	66650513          	add	a0,a0,1638 # 66666666 <_end+0x66661b06>
    1354:	00200593          	li	a1,2
    1358:	02b57633          	remu	a2,a0,a1
    135c:	34c2ac23          	sw	a2,856(t0)

00001360 <inst_232>:
    1360:	66666537          	lui	a0,0x66666
    1364:	66650513          	add	a0,a0,1638 # 66666666 <_end+0x66661b06>
    1368:	555555b7          	lui	a1,0x55555
    136c:	55458593          	add	a1,a1,1364 # 55555554 <_end+0x555509f4>
    1370:	02b57633          	remu	a2,a0,a1
    1374:	34c2ae23          	sw	a2,860(t0)

00001378 <inst_233>:
    1378:	66666537          	lui	a0,0x66666
    137c:	66650513          	add	a0,a0,1638 # 66666666 <_end+0x66661b06>
    1380:	aaaab5b7          	lui	a1,0xaaaab
    1384:	aa958593          	add	a1,a1,-1367 # aaaaaaa9 <_end+0xaaaa5f49>
    1388:	02b57633          	remu	a2,a0,a1
    138c:	36c2a023          	sw	a2,864(t0)

00001390 <inst_234>:
    1390:	66666537          	lui	a0,0x66666
    1394:	66650513          	add	a0,a0,1638 # 66666666 <_end+0x66661b06>
    1398:	00400593          	li	a1,4
    139c:	02b57633          	remu	a2,a0,a1
    13a0:	36c2a223          	sw	a2,868(t0)

000013a4 <inst_235>:
    13a4:	66666537          	lui	a0,0x66666
    13a8:	66650513          	add	a0,a0,1638 # 66666666 <_end+0x66661b06>
    13ac:	333335b7          	lui	a1,0x33333
    13b0:	33258593          	add	a1,a1,818 # 33333332 <_end+0x3332e7d2>
    13b4:	02b57633          	remu	a2,a0,a1
    13b8:	36c2a423          	sw	a2,872(t0)

000013bc <inst_236>:
    13bc:	66666537          	lui	a0,0x66666
    13c0:	66650513          	add	a0,a0,1638 # 66666666 <_end+0x66661b06>
    13c4:	666665b7          	lui	a1,0x66666
    13c8:	66558593          	add	a1,a1,1637 # 66666665 <_end+0x66661b05>
    13cc:	02b57633          	remu	a2,a0,a1
    13d0:	36c2a623          	sw	a2,876(t0)

000013d4 <inst_237>:
    13d4:	66666537          	lui	a0,0x66666
    13d8:	66650513          	add	a0,a0,1638 # 66666666 <_end+0x66661b06>
    13dc:	0000b5b7          	lui	a1,0xb
    13e0:	50358593          	add	a1,a1,1283 # b503 <_end+0x69a3>
    13e4:	02b57633          	remu	a2,a0,a1
    13e8:	36c2a823          	sw	a2,880(t0)

000013ec <inst_238>:
    13ec:	66666537          	lui	a0,0x66666
    13f0:	66650513          	add	a0,a0,1638 # 66666666 <_end+0x66661b06>
    13f4:	000105b7          	lui	a1,0x10
    13f8:	ffe58593          	add	a1,a1,-2 # fffe <_end+0xb49e>
    13fc:	02b57633          	remu	a2,a0,a1
    1400:	36c2aa23          	sw	a2,884(t0)

00001404 <inst_239>:
    1404:	66666537          	lui	a0,0x66666
    1408:	66650513          	add	a0,a0,1638 # 66666666 <_end+0x66661b06>
    140c:	555555b7          	lui	a1,0x55555
    1410:	55658593          	add	a1,a1,1366 # 55555556 <_end+0x555509f6>
    1414:	02b57633          	remu	a2,a0,a1
    1418:	36c2ac23          	sw	a2,888(t0)

0000141c <inst_240>:
    141c:	66666537          	lui	a0,0x66666
    1420:	66650513          	add	a0,a0,1638 # 66666666 <_end+0x66661b06>
    1424:	aaaab5b7          	lui	a1,0xaaaab
    1428:	aab58593          	add	a1,a1,-1365 # aaaaaaab <_end+0xaaaa5f4b>
    142c:	02b57633          	remu	a2,a0,a1
    1430:	36c2ae23          	sw	a2,892(t0)

00001434 <inst_241>:
    1434:	66666537          	lui	a0,0x66666
    1438:	66650513          	add	a0,a0,1638 # 66666666 <_end+0x66661b06>
    143c:	00600593          	li	a1,6
    1440:	02b57633          	remu	a2,a0,a1
    1444:	38c2a023          	sw	a2,896(t0)

00001448 <inst_242>:
    1448:	66666537          	lui	a0,0x66666
    144c:	66650513          	add	a0,a0,1638 # 66666666 <_end+0x66661b06>
    1450:	333335b7          	lui	a1,0x33333
    1454:	33458593          	add	a1,a1,820 # 33333334 <_end+0x3332e7d4>
    1458:	02b57633          	remu	a2,a0,a1
    145c:	38c2a223          	sw	a2,900(t0)

00001460 <inst_243>:
    1460:	66666537          	lui	a0,0x66666
    1464:	66650513          	add	a0,a0,1638 # 66666666 <_end+0x66661b06>
    1468:	666665b7          	lui	a1,0x66666
    146c:	66758593          	add	a1,a1,1639 # 66666667 <_end+0x66661b07>
    1470:	02b57633          	remu	a2,a0,a1
    1474:	38c2a423          	sw	a2,904(t0)

00001478 <inst_244>:
    1478:	66666537          	lui	a0,0x66666
    147c:	66650513          	add	a0,a0,1638 # 66666666 <_end+0x66661b06>
    1480:	0000b5b7          	lui	a1,0xb
    1484:	50558593          	add	a1,a1,1285 # b505 <_end+0x69a5>
    1488:	02b57633          	remu	a2,a0,a1
    148c:	38c2a623          	sw	a2,908(t0)

00001490 <inst_245>:
    1490:	66666537          	lui	a0,0x66666
    1494:	66650513          	add	a0,a0,1638 # 66666666 <_end+0x66661b06>
    1498:	00100593          	li	a1,1
    149c:	02b57633          	remu	a2,a0,a1
    14a0:	38c2a823          	sw	a2,912(t0)

000014a4 <inst_246>:
    14a4:	66666537          	lui	a0,0x66666
    14a8:	66650513          	add	a0,a0,1638 # 66666666 <_end+0x66661b06>
    14ac:	000105b7          	lui	a1,0x10
    14b0:	02b57633          	remu	a2,a0,a1
    14b4:	38c2aa23          	sw	a2,916(t0)

000014b8 <inst_247>:
    14b8:	0000b537          	lui	a0,0xb
    14bc:	50450513          	add	a0,a0,1284 # b504 <_end+0x69a4>
    14c0:	00300593          	li	a1,3
    14c4:	02b57633          	remu	a2,a0,a1
    14c8:	38c2ac23          	sw	a2,920(t0)

000014cc <inst_248>:
    14cc:	0000b537          	lui	a0,0xb
    14d0:	50450513          	add	a0,a0,1284 # b504 <_end+0x69a4>
    14d4:	555555b7          	lui	a1,0x55555
    14d8:	55558593          	add	a1,a1,1365 # 55555555 <_end+0x555509f5>
    14dc:	02b57633          	remu	a2,a0,a1
    14e0:	38c2ae23          	sw	a2,924(t0)

000014e4 <inst_249>:
    14e4:	0000b537          	lui	a0,0xb
    14e8:	50450513          	add	a0,a0,1284 # b504 <_end+0x69a4>
    14ec:	aaaab5b7          	lui	a1,0xaaaab
    14f0:	aaa58593          	add	a1,a1,-1366 # aaaaaaaa <_end+0xaaaa5f4a>
    14f4:	02b57633          	remu	a2,a0,a1
    14f8:	3ac2a023          	sw	a2,928(t0)

000014fc <inst_250>:
    14fc:	0000b537          	lui	a0,0xb
    1500:	50450513          	add	a0,a0,1284 # b504 <_end+0x69a4>
    1504:	00500593          	li	a1,5
    1508:	02b57633          	remu	a2,a0,a1
    150c:	3ac2a223          	sw	a2,932(t0)

00001510 <inst_251>:
    1510:	0000b537          	lui	a0,0xb
    1514:	50450513          	add	a0,a0,1284 # b504 <_end+0x69a4>
    1518:	333335b7          	lui	a1,0x33333
    151c:	33358593          	add	a1,a1,819 # 33333333 <_end+0x3332e7d3>
    1520:	02b57633          	remu	a2,a0,a1
    1524:	3ac2a423          	sw	a2,936(t0)

00001528 <inst_252>:
    1528:	0000b537          	lui	a0,0xb
    152c:	50450513          	add	a0,a0,1284 # b504 <_end+0x69a4>
    1530:	666665b7          	lui	a1,0x66666
    1534:	66658593          	add	a1,a1,1638 # 66666666 <_end+0x66661b06>
    1538:	02b57633          	remu	a2,a0,a1
    153c:	3ac2a623          	sw	a2,940(t0)

00001540 <inst_253>:
    1540:	0000b537          	lui	a0,0xb
    1544:	50450513          	add	a0,a0,1284 # b504 <_end+0x69a4>
    1548:	0000b5b7          	lui	a1,0xb
    154c:	50458593          	add	a1,a1,1284 # b504 <_end+0x69a4>
    1550:	02b57633          	remu	a2,a0,a1
    1554:	3ac2a823          	sw	a2,944(t0)

00001558 <inst_254>:
    1558:	0000b537          	lui	a0,0xb
    155c:	50450513          	add	a0,a0,1284 # b504 <_end+0x69a4>
    1560:	00000593          	li	a1,0
    1564:	02b57633          	remu	a2,a0,a1
    1568:	3ac2aa23          	sw	a2,948(t0)

0000156c <inst_255>:
    156c:	0000b537          	lui	a0,0xb
    1570:	50450513          	add	a0,a0,1284 # b504 <_end+0x69a4>
    1574:	000105b7          	lui	a1,0x10
    1578:	fff58593          	add	a1,a1,-1 # ffff <_end+0xb49f>
    157c:	02b57633          	remu	a2,a0,a1
    1580:	3ac2ac23          	sw	a2,952(t0)

00001584 <inst_256>:
    1584:	0000b537          	lui	a0,0xb
    1588:	50450513          	add	a0,a0,1284 # b504 <_end+0x69a4>
    158c:	00200593          	li	a1,2
    1590:	02b57633          	remu	a2,a0,a1
    1594:	3ac2ae23          	sw	a2,956(t0)

00001598 <inst_257>:
    1598:	0000b537          	lui	a0,0xb
    159c:	50450513          	add	a0,a0,1284 # b504 <_end+0x69a4>
    15a0:	555555b7          	lui	a1,0x55555
    15a4:	55458593          	add	a1,a1,1364 # 55555554 <_end+0x555509f4>
    15a8:	02b57633          	remu	a2,a0,a1
    15ac:	3cc2a023          	sw	a2,960(t0)

000015b0 <inst_258>:
    15b0:	0000b537          	lui	a0,0xb
    15b4:	50450513          	add	a0,a0,1284 # b504 <_end+0x69a4>
    15b8:	aaaab5b7          	lui	a1,0xaaaab
    15bc:	aa958593          	add	a1,a1,-1367 # aaaaaaa9 <_end+0xaaaa5f49>
    15c0:	02b57633          	remu	a2,a0,a1
    15c4:	3cc2a223          	sw	a2,964(t0)

000015c8 <inst_259>:
    15c8:	0000b537          	lui	a0,0xb
    15cc:	50450513          	add	a0,a0,1284 # b504 <_end+0x69a4>
    15d0:	00400593          	li	a1,4
    15d4:	02b57633          	remu	a2,a0,a1
    15d8:	3cc2a423          	sw	a2,968(t0)

000015dc <inst_260>:
    15dc:	0000b537          	lui	a0,0xb
    15e0:	50450513          	add	a0,a0,1284 # b504 <_end+0x69a4>
    15e4:	333335b7          	lui	a1,0x33333
    15e8:	33258593          	add	a1,a1,818 # 33333332 <_end+0x3332e7d2>
    15ec:	02b57633          	remu	a2,a0,a1
    15f0:	3cc2a623          	sw	a2,972(t0)

000015f4 <inst_261>:
    15f4:	0000b537          	lui	a0,0xb
    15f8:	50450513          	add	a0,a0,1284 # b504 <_end+0x69a4>
    15fc:	666665b7          	lui	a1,0x66666
    1600:	66558593          	add	a1,a1,1637 # 66666665 <_end+0x66661b05>
    1604:	02b57633          	remu	a2,a0,a1
    1608:	3cc2a823          	sw	a2,976(t0)

0000160c <inst_262>:
    160c:	0000b537          	lui	a0,0xb
    1610:	50450513          	add	a0,a0,1284 # b504 <_end+0x69a4>
    1614:	0000b5b7          	lui	a1,0xb
    1618:	50358593          	add	a1,a1,1283 # b503 <_end+0x69a3>
    161c:	02b57633          	remu	a2,a0,a1
    1620:	3cc2aa23          	sw	a2,980(t0)

00001624 <inst_263>:
    1624:	0000b537          	lui	a0,0xb
    1628:	50450513          	add	a0,a0,1284 # b504 <_end+0x69a4>
    162c:	000105b7          	lui	a1,0x10
    1630:	ffe58593          	add	a1,a1,-2 # fffe <_end+0xb49e>
    1634:	02b57633          	remu	a2,a0,a1
    1638:	3cc2ac23          	sw	a2,984(t0)

0000163c <inst_264>:
    163c:	0000b537          	lui	a0,0xb
    1640:	50450513          	add	a0,a0,1284 # b504 <_end+0x69a4>
    1644:	555555b7          	lui	a1,0x55555
    1648:	55658593          	add	a1,a1,1366 # 55555556 <_end+0x555509f6>
    164c:	02b57633          	remu	a2,a0,a1
    1650:	3cc2ae23          	sw	a2,988(t0)

00001654 <inst_265>:
    1654:	0000b537          	lui	a0,0xb
    1658:	50450513          	add	a0,a0,1284 # b504 <_end+0x69a4>
    165c:	aaaab5b7          	lui	a1,0xaaaab
    1660:	aab58593          	add	a1,a1,-1365 # aaaaaaab <_end+0xaaaa5f4b>
    1664:	02b57633          	remu	a2,a0,a1
    1668:	3ec2a023          	sw	a2,992(t0)

0000166c <inst_266>:
    166c:	0000b537          	lui	a0,0xb
    1670:	50450513          	add	a0,a0,1284 # b504 <_end+0x69a4>
    1674:	00600593          	li	a1,6
    1678:	02b57633          	remu	a2,a0,a1
    167c:	3ec2a223          	sw	a2,996(t0)

00001680 <inst_267>:
    1680:	0000b537          	lui	a0,0xb
    1684:	50450513          	add	a0,a0,1284 # b504 <_end+0x69a4>
    1688:	333335b7          	lui	a1,0x33333
    168c:	33458593          	add	a1,a1,820 # 33333334 <_end+0x3332e7d4>
    1690:	02b57633          	remu	a2,a0,a1
    1694:	3ec2a423          	sw	a2,1000(t0)

00001698 <inst_268>:
    1698:	0000b537          	lui	a0,0xb
    169c:	50450513          	add	a0,a0,1284 # b504 <_end+0x69a4>
    16a0:	666665b7          	lui	a1,0x66666
    16a4:	66758593          	add	a1,a1,1639 # 66666667 <_end+0x66661b07>
    16a8:	02b57633          	remu	a2,a0,a1
    16ac:	3ec2a623          	sw	a2,1004(t0)

000016b0 <inst_269>:
    16b0:	0000b537          	lui	a0,0xb
    16b4:	50450513          	add	a0,a0,1284 # b504 <_end+0x69a4>
    16b8:	0000b5b7          	lui	a1,0xb
    16bc:	50558593          	add	a1,a1,1285 # b505 <_end+0x69a5>
    16c0:	02b57633          	remu	a2,a0,a1
    16c4:	3ec2a823          	sw	a2,1008(t0)

000016c8 <inst_270>:
    16c8:	0000b537          	lui	a0,0xb
    16cc:	50450513          	add	a0,a0,1284 # b504 <_end+0x69a4>
    16d0:	00100593          	li	a1,1
    16d4:	02b57633          	remu	a2,a0,a1
    16d8:	3ec2aa23          	sw	a2,1012(t0)

000016dc <inst_271>:
    16dc:	0000b537          	lui	a0,0xb
    16e0:	50450513          	add	a0,a0,1284 # b504 <_end+0x69a4>
    16e4:	000105b7          	lui	a1,0x10
    16e8:	02b57633          	remu	a2,a0,a1
    16ec:	3ec2ac23          	sw	a2,1016(t0)

000016f0 <inst_272>:
    16f0:	00000513          	li	a0,0
    16f4:	00300593          	li	a1,3
    16f8:	02b57633          	remu	a2,a0,a1
    16fc:	3ec2ae23          	sw	a2,1020(t0)

00001700 <inst_273>:
    1700:	00000513          	li	a0,0
    1704:	555555b7          	lui	a1,0x55555
    1708:	55558593          	add	a1,a1,1365 # 55555555 <_end+0x555509f5>
    170c:	02b57633          	remu	a2,a0,a1
    1710:	40c2a023          	sw	a2,1024(t0)

00001714 <inst_274>:
    1714:	00000513          	li	a0,0
    1718:	aaaab5b7          	lui	a1,0xaaaab
    171c:	aaa58593          	add	a1,a1,-1366 # aaaaaaaa <_end+0xaaaa5f4a>
    1720:	02b57633          	remu	a2,a0,a1
    1724:	40c2a223          	sw	a2,1028(t0)

00001728 <inst_275>:
    1728:	00000513          	li	a0,0
    172c:	00500593          	li	a1,5
    1730:	02b57633          	remu	a2,a0,a1
    1734:	40c2a423          	sw	a2,1032(t0)

00001738 <inst_276>:
    1738:	00000513          	li	a0,0
    173c:	333335b7          	lui	a1,0x33333
    1740:	33358593          	add	a1,a1,819 # 33333333 <_end+0x3332e7d3>
    1744:	02b57633          	remu	a2,a0,a1
    1748:	40c2a623          	sw	a2,1036(t0)

0000174c <inst_277>:
    174c:	00000513          	li	a0,0
    1750:	0000b5b7          	lui	a1,0xb
    1754:	50458593          	add	a1,a1,1284 # b504 <_end+0x69a4>
    1758:	02b57633          	remu	a2,a0,a1
    175c:	40c2a823          	sw	a2,1040(t0)

00001760 <inst_278>:
    1760:	00000513          	li	a0,0
    1764:	00000593          	li	a1,0
    1768:	02b57633          	remu	a2,a0,a1
    176c:	40c2aa23          	sw	a2,1044(t0)

00001770 <inst_279>:
    1770:	00000513          	li	a0,0
    1774:	000105b7          	lui	a1,0x10
    1778:	fff58593          	add	a1,a1,-1 # ffff <_end+0xb49f>
    177c:	02b57633          	remu	a2,a0,a1
    1780:	40c2ac23          	sw	a2,1048(t0)

00001784 <inst_280>:
    1784:	00000513          	li	a0,0
    1788:	00200593          	li	a1,2
    178c:	02b57633          	remu	a2,a0,a1
    1790:	40c2ae23          	sw	a2,1052(t0)

00001794 <inst_281>:
    1794:	00000513          	li	a0,0
    1798:	555555b7          	lui	a1,0x55555
    179c:	55458593          	add	a1,a1,1364 # 55555554 <_end+0x555509f4>
    17a0:	02b57633          	remu	a2,a0,a1
    17a4:	42c2a023          	sw	a2,1056(t0)

000017a8 <inst_282>:
    17a8:	00000513          	li	a0,0
    17ac:	aaaab5b7          	lui	a1,0xaaaab
    17b0:	aa958593          	add	a1,a1,-1367 # aaaaaaa9 <_end+0xaaaa5f49>
    17b4:	02b57633          	remu	a2,a0,a1
    17b8:	42c2a223          	sw	a2,1060(t0)

000017bc <inst_283>:
    17bc:	00000513          	li	a0,0
    17c0:	00400593          	li	a1,4
    17c4:	02b57633          	remu	a2,a0,a1
    17c8:	42c2a423          	sw	a2,1064(t0)

000017cc <inst_284>:
    17cc:	00000513          	li	a0,0
    17d0:	333335b7          	lui	a1,0x33333
    17d4:	33258593          	add	a1,a1,818 # 33333332 <_end+0x3332e7d2>
    17d8:	02b57633          	remu	a2,a0,a1
    17dc:	42c2a623          	sw	a2,1068(t0)

000017e0 <inst_285>:
    17e0:	00000513          	li	a0,0
    17e4:	666665b7          	lui	a1,0x66666
    17e8:	66558593          	add	a1,a1,1637 # 66666665 <_end+0x66661b05>
    17ec:	02b57633          	remu	a2,a0,a1
    17f0:	42c2a823          	sw	a2,1072(t0)

000017f4 <inst_286>:
    17f4:	00000513          	li	a0,0
    17f8:	0000b5b7          	lui	a1,0xb
    17fc:	50358593          	add	a1,a1,1283 # b503 <_end+0x69a3>
    1800:	02b57633          	remu	a2,a0,a1
    1804:	42c2aa23          	sw	a2,1076(t0)

00001808 <inst_287>:
    1808:	00000513          	li	a0,0
    180c:	000105b7          	lui	a1,0x10
    1810:	ffe58593          	add	a1,a1,-2 # fffe <_end+0xb49e>
    1814:	02b57633          	remu	a2,a0,a1
    1818:	42c2ac23          	sw	a2,1080(t0)

0000181c <inst_288>:
    181c:	00000513          	li	a0,0
    1820:	555555b7          	lui	a1,0x55555
    1824:	55658593          	add	a1,a1,1366 # 55555556 <_end+0x555509f6>
    1828:	02b57633          	remu	a2,a0,a1
    182c:	42c2ae23          	sw	a2,1084(t0)

00001830 <inst_289>:
    1830:	00000513          	li	a0,0
    1834:	aaaab5b7          	lui	a1,0xaaaab
    1838:	aab58593          	add	a1,a1,-1365 # aaaaaaab <_end+0xaaaa5f4b>
    183c:	02b57633          	remu	a2,a0,a1
    1840:	44c2a023          	sw	a2,1088(t0)

00001844 <inst_290>:
    1844:	00000513          	li	a0,0
    1848:	00600593          	li	a1,6
    184c:	02b57633          	remu	a2,a0,a1
    1850:	44c2a223          	sw	a2,1092(t0)

00001854 <inst_291>:
    1854:	00000513          	li	a0,0
    1858:	333335b7          	lui	a1,0x33333
    185c:	33458593          	add	a1,a1,820 # 33333334 <_end+0x3332e7d4>
    1860:	02b57633          	remu	a2,a0,a1
    1864:	44c2a423          	sw	a2,1096(t0)

00001868 <inst_292>:
    1868:	00000513          	li	a0,0
    186c:	666665b7          	lui	a1,0x66666
    1870:	66758593          	add	a1,a1,1639 # 66666667 <_end+0x66661b07>
    1874:	02b57633          	remu	a2,a0,a1
    1878:	44c2a623          	sw	a2,1100(t0)

0000187c <inst_293>:
    187c:	00000513          	li	a0,0
    1880:	0000b5b7          	lui	a1,0xb
    1884:	50558593          	add	a1,a1,1285 # b505 <_end+0x69a5>
    1888:	02b57633          	remu	a2,a0,a1
    188c:	44c2a823          	sw	a2,1104(t0)

00001890 <inst_294>:
    1890:	00000513          	li	a0,0
    1894:	00100593          	li	a1,1
    1898:	02b57633          	remu	a2,a0,a1
    189c:	44c2aa23          	sw	a2,1108(t0)

000018a0 <inst_295>:
    18a0:	00000513          	li	a0,0
    18a4:	000105b7          	lui	a1,0x10
    18a8:	02b57633          	remu	a2,a0,a1
    18ac:	44c2ac23          	sw	a2,1112(t0)

000018b0 <inst_296>:
    18b0:	00010537          	lui	a0,0x10
    18b4:	fff50513          	add	a0,a0,-1 # ffff <_end+0xb49f>
    18b8:	00300593          	li	a1,3
    18bc:	02b57633          	remu	a2,a0,a1
    18c0:	44c2ae23          	sw	a2,1116(t0)

000018c4 <inst_297>:
    18c4:	00010537          	lui	a0,0x10
    18c8:	fff50513          	add	a0,a0,-1 # ffff <_end+0xb49f>
    18cc:	555555b7          	lui	a1,0x55555
    18d0:	55558593          	add	a1,a1,1365 # 55555555 <_end+0x555509f5>
    18d4:	02b57633          	remu	a2,a0,a1
    18d8:	46c2a023          	sw	a2,1120(t0)

000018dc <inst_298>:
    18dc:	00010537          	lui	a0,0x10
    18e0:	fff50513          	add	a0,a0,-1 # ffff <_end+0xb49f>
    18e4:	aaaab5b7          	lui	a1,0xaaaab
    18e8:	aaa58593          	add	a1,a1,-1366 # aaaaaaaa <_end+0xaaaa5f4a>
    18ec:	02b57633          	remu	a2,a0,a1
    18f0:	46c2a223          	sw	a2,1124(t0)

000018f4 <inst_299>:
    18f4:	00010537          	lui	a0,0x10
    18f8:	fff50513          	add	a0,a0,-1 # ffff <_end+0xb49f>
    18fc:	00500593          	li	a1,5
    1900:	02b57633          	remu	a2,a0,a1
    1904:	46c2a423          	sw	a2,1128(t0)

00001908 <inst_300>:
    1908:	00010537          	lui	a0,0x10
    190c:	fff50513          	add	a0,a0,-1 # ffff <_end+0xb49f>
    1910:	333335b7          	lui	a1,0x33333
    1914:	33358593          	add	a1,a1,819 # 33333333 <_end+0x3332e7d3>
    1918:	02b57633          	remu	a2,a0,a1
    191c:	46c2a623          	sw	a2,1132(t0)

00001920 <inst_301>:
    1920:	00010537          	lui	a0,0x10
    1924:	fff50513          	add	a0,a0,-1 # ffff <_end+0xb49f>
    1928:	666665b7          	lui	a1,0x66666
    192c:	66658593          	add	a1,a1,1638 # 66666666 <_end+0x66661b06>
    1930:	02b57633          	remu	a2,a0,a1
    1934:	46c2a823          	sw	a2,1136(t0)

00001938 <inst_302>:
    1938:	00010537          	lui	a0,0x10
    193c:	fff50513          	add	a0,a0,-1 # ffff <_end+0xb49f>
    1940:	0000b5b7          	lui	a1,0xb
    1944:	50458593          	add	a1,a1,1284 # b504 <_end+0x69a4>
    1948:	02b57633          	remu	a2,a0,a1
    194c:	46c2aa23          	sw	a2,1140(t0)

00001950 <inst_303>:
    1950:	00010537          	lui	a0,0x10
    1954:	fff50513          	add	a0,a0,-1 # ffff <_end+0xb49f>
    1958:	00000593          	li	a1,0
    195c:	02b57633          	remu	a2,a0,a1
    1960:	46c2ac23          	sw	a2,1144(t0)

00001964 <inst_304>:
    1964:	00010537          	lui	a0,0x10
    1968:	fff50513          	add	a0,a0,-1 # ffff <_end+0xb49f>
    196c:	000105b7          	lui	a1,0x10
    1970:	fff58593          	add	a1,a1,-1 # ffff <_end+0xb49f>
    1974:	02b57633          	remu	a2,a0,a1
    1978:	46c2ae23          	sw	a2,1148(t0)

0000197c <inst_305>:
    197c:	00010537          	lui	a0,0x10
    1980:	fff50513          	add	a0,a0,-1 # ffff <_end+0xb49f>
    1984:	00200593          	li	a1,2
    1988:	02b57633          	remu	a2,a0,a1
    198c:	48c2a023          	sw	a2,1152(t0)

00001990 <inst_306>:
    1990:	00010537          	lui	a0,0x10
    1994:	fff50513          	add	a0,a0,-1 # ffff <_end+0xb49f>
    1998:	555555b7          	lui	a1,0x55555
    199c:	55458593          	add	a1,a1,1364 # 55555554 <_end+0x555509f4>
    19a0:	02b57633          	remu	a2,a0,a1
    19a4:	48c2a223          	sw	a2,1156(t0)

000019a8 <inst_307>:
    19a8:	00010537          	lui	a0,0x10
    19ac:	fff50513          	add	a0,a0,-1 # ffff <_end+0xb49f>
    19b0:	aaaab5b7          	lui	a1,0xaaaab
    19b4:	aa958593          	add	a1,a1,-1367 # aaaaaaa9 <_end+0xaaaa5f49>
    19b8:	02b57633          	remu	a2,a0,a1
    19bc:	48c2a423          	sw	a2,1160(t0)

000019c0 <inst_308>:
    19c0:	00010537          	lui	a0,0x10
    19c4:	fff50513          	add	a0,a0,-1 # ffff <_end+0xb49f>
    19c8:	00400593          	li	a1,4
    19cc:	02b57633          	remu	a2,a0,a1
    19d0:	48c2a623          	sw	a2,1164(t0)

000019d4 <inst_309>:
    19d4:	00010537          	lui	a0,0x10
    19d8:	fff50513          	add	a0,a0,-1 # ffff <_end+0xb49f>
    19dc:	333335b7          	lui	a1,0x33333
    19e0:	33258593          	add	a1,a1,818 # 33333332 <_end+0x3332e7d2>
    19e4:	02b57633          	remu	a2,a0,a1
    19e8:	48c2a823          	sw	a2,1168(t0)

000019ec <inst_310>:
    19ec:	00010537          	lui	a0,0x10
    19f0:	fff50513          	add	a0,a0,-1 # ffff <_end+0xb49f>
    19f4:	666665b7          	lui	a1,0x66666
    19f8:	66558593          	add	a1,a1,1637 # 66666665 <_end+0x66661b05>
    19fc:	02b57633          	remu	a2,a0,a1
    1a00:	48c2aa23          	sw	a2,1172(t0)

00001a04 <inst_311>:
    1a04:	00010537          	lui	a0,0x10
    1a08:	fff50513          	add	a0,a0,-1 # ffff <_end+0xb49f>
    1a0c:	0000b5b7          	lui	a1,0xb
    1a10:	50358593          	add	a1,a1,1283 # b503 <_end+0x69a3>
    1a14:	02b57633          	remu	a2,a0,a1
    1a18:	48c2ac23          	sw	a2,1176(t0)

00001a1c <inst_312>:
    1a1c:	00010537          	lui	a0,0x10
    1a20:	fff50513          	add	a0,a0,-1 # ffff <_end+0xb49f>
    1a24:	000105b7          	lui	a1,0x10
    1a28:	ffe58593          	add	a1,a1,-2 # fffe <_end+0xb49e>
    1a2c:	02b57633          	remu	a2,a0,a1
    1a30:	48c2ae23          	sw	a2,1180(t0)

00001a34 <inst_313>:
    1a34:	00010537          	lui	a0,0x10
    1a38:	fff50513          	add	a0,a0,-1 # ffff <_end+0xb49f>
    1a3c:	555555b7          	lui	a1,0x55555
    1a40:	55658593          	add	a1,a1,1366 # 55555556 <_end+0x555509f6>
    1a44:	02b57633          	remu	a2,a0,a1
    1a48:	4ac2a023          	sw	a2,1184(t0)

00001a4c <inst_314>:
    1a4c:	00010537          	lui	a0,0x10
    1a50:	fff50513          	add	a0,a0,-1 # ffff <_end+0xb49f>
    1a54:	aaaab5b7          	lui	a1,0xaaaab
    1a58:	aab58593          	add	a1,a1,-1365 # aaaaaaab <_end+0xaaaa5f4b>
    1a5c:	02b57633          	remu	a2,a0,a1
    1a60:	4ac2a223          	sw	a2,1188(t0)

00001a64 <inst_315>:
    1a64:	00010537          	lui	a0,0x10
    1a68:	fff50513          	add	a0,a0,-1 # ffff <_end+0xb49f>
    1a6c:	00600593          	li	a1,6
    1a70:	02b57633          	remu	a2,a0,a1
    1a74:	4ac2a423          	sw	a2,1192(t0)

00001a78 <inst_316>:
    1a78:	00010537          	lui	a0,0x10
    1a7c:	fff50513          	add	a0,a0,-1 # ffff <_end+0xb49f>
    1a80:	333335b7          	lui	a1,0x33333
    1a84:	33458593          	add	a1,a1,820 # 33333334 <_end+0x3332e7d4>
    1a88:	02b57633          	remu	a2,a0,a1
    1a8c:	4ac2a623          	sw	a2,1196(t0)

00001a90 <inst_317>:
    1a90:	00010537          	lui	a0,0x10
    1a94:	fff50513          	add	a0,a0,-1 # ffff <_end+0xb49f>
    1a98:	666665b7          	lui	a1,0x66666
    1a9c:	66758593          	add	a1,a1,1639 # 66666667 <_end+0x66661b07>
    1aa0:	02b57633          	remu	a2,a0,a1
    1aa4:	4ac2a823          	sw	a2,1200(t0)

00001aa8 <inst_318>:
    1aa8:	00010537          	lui	a0,0x10
    1aac:	fff50513          	add	a0,a0,-1 # ffff <_end+0xb49f>
    1ab0:	0000b5b7          	lui	a1,0xb
    1ab4:	50558593          	add	a1,a1,1285 # b505 <_end+0x69a5>
    1ab8:	02b57633          	remu	a2,a0,a1
    1abc:	4ac2aa23          	sw	a2,1204(t0)

00001ac0 <inst_319>:
    1ac0:	00010537          	lui	a0,0x10
    1ac4:	fff50513          	add	a0,a0,-1 # ffff <_end+0xb49f>
    1ac8:	00100593          	li	a1,1
    1acc:	02b57633          	remu	a2,a0,a1
    1ad0:	4ac2ac23          	sw	a2,1208(t0)

00001ad4 <inst_320>:
    1ad4:	00010537          	lui	a0,0x10
    1ad8:	fff50513          	add	a0,a0,-1 # ffff <_end+0xb49f>
    1adc:	000105b7          	lui	a1,0x10
    1ae0:	02b57633          	remu	a2,a0,a1
    1ae4:	4ac2ae23          	sw	a2,1212(t0)

00001ae8 <inst_321>:
    1ae8:	00200513          	li	a0,2
    1aec:	00300593          	li	a1,3
    1af0:	02b57633          	remu	a2,a0,a1
    1af4:	4cc2a023          	sw	a2,1216(t0)

00001af8 <inst_322>:
    1af8:	00200513          	li	a0,2
    1afc:	555555b7          	lui	a1,0x55555
    1b00:	55558593          	add	a1,a1,1365 # 55555555 <_end+0x555509f5>
    1b04:	02b57633          	remu	a2,a0,a1
    1b08:	4cc2a223          	sw	a2,1220(t0)

00001b0c <inst_323>:
    1b0c:	00200513          	li	a0,2
    1b10:	aaaab5b7          	lui	a1,0xaaaab
    1b14:	aaa58593          	add	a1,a1,-1366 # aaaaaaaa <_end+0xaaaa5f4a>
    1b18:	02b57633          	remu	a2,a0,a1
    1b1c:	4cc2a423          	sw	a2,1224(t0)

00001b20 <inst_324>:
    1b20:	00200513          	li	a0,2
    1b24:	00500593          	li	a1,5
    1b28:	02b57633          	remu	a2,a0,a1
    1b2c:	4cc2a623          	sw	a2,1228(t0)

00001b30 <inst_325>:
    1b30:	00200513          	li	a0,2
    1b34:	333335b7          	lui	a1,0x33333
    1b38:	33358593          	add	a1,a1,819 # 33333333 <_end+0x3332e7d3>
    1b3c:	02b57633          	remu	a2,a0,a1
    1b40:	4cc2a823          	sw	a2,1232(t0)

00001b44 <inst_326>:
    1b44:	00200513          	li	a0,2
    1b48:	666665b7          	lui	a1,0x66666
    1b4c:	66658593          	add	a1,a1,1638 # 66666666 <_end+0x66661b06>
    1b50:	02b57633          	remu	a2,a0,a1
    1b54:	4cc2aa23          	sw	a2,1236(t0)

00001b58 <inst_327>:
    1b58:	00200513          	li	a0,2
    1b5c:	0000b5b7          	lui	a1,0xb
    1b60:	50458593          	add	a1,a1,1284 # b504 <_end+0x69a4>
    1b64:	02b57633          	remu	a2,a0,a1
    1b68:	4cc2ac23          	sw	a2,1240(t0)

00001b6c <inst_328>:
    1b6c:	00200513          	li	a0,2
    1b70:	00000593          	li	a1,0
    1b74:	02b57633          	remu	a2,a0,a1
    1b78:	4cc2ae23          	sw	a2,1244(t0)

00001b7c <inst_329>:
    1b7c:	00200513          	li	a0,2
    1b80:	000105b7          	lui	a1,0x10
    1b84:	fff58593          	add	a1,a1,-1 # ffff <_end+0xb49f>
    1b88:	02b57633          	remu	a2,a0,a1
    1b8c:	4ec2a023          	sw	a2,1248(t0)

00001b90 <inst_330>:
    1b90:	00200513          	li	a0,2
    1b94:	00200593          	li	a1,2
    1b98:	02b57633          	remu	a2,a0,a1
    1b9c:	4ec2a223          	sw	a2,1252(t0)

00001ba0 <inst_331>:
    1ba0:	00200513          	li	a0,2
    1ba4:	555555b7          	lui	a1,0x55555
    1ba8:	55458593          	add	a1,a1,1364 # 55555554 <_end+0x555509f4>
    1bac:	02b57633          	remu	a2,a0,a1
    1bb0:	4ec2a423          	sw	a2,1256(t0)

00001bb4 <inst_332>:
    1bb4:	00200513          	li	a0,2
    1bb8:	aaaab5b7          	lui	a1,0xaaaab
    1bbc:	aa958593          	add	a1,a1,-1367 # aaaaaaa9 <_end+0xaaaa5f49>
    1bc0:	02b57633          	remu	a2,a0,a1
    1bc4:	4ec2a623          	sw	a2,1260(t0)

00001bc8 <inst_333>:
    1bc8:	00200513          	li	a0,2
    1bcc:	00400593          	li	a1,4
    1bd0:	02b57633          	remu	a2,a0,a1
    1bd4:	4ec2a823          	sw	a2,1264(t0)

00001bd8 <inst_334>:
    1bd8:	00200513          	li	a0,2
    1bdc:	333335b7          	lui	a1,0x33333
    1be0:	33258593          	add	a1,a1,818 # 33333332 <_end+0x3332e7d2>
    1be4:	02b57633          	remu	a2,a0,a1
    1be8:	4ec2aa23          	sw	a2,1268(t0)

00001bec <inst_335>:
    1bec:	00200513          	li	a0,2
    1bf0:	666665b7          	lui	a1,0x66666
    1bf4:	66558593          	add	a1,a1,1637 # 66666665 <_end+0x66661b05>
    1bf8:	02b57633          	remu	a2,a0,a1
    1bfc:	4ec2ac23          	sw	a2,1272(t0)

00001c00 <inst_336>:
    1c00:	00200513          	li	a0,2
    1c04:	0000b5b7          	lui	a1,0xb
    1c08:	50358593          	add	a1,a1,1283 # b503 <_end+0x69a3>
    1c0c:	02b57633          	remu	a2,a0,a1
    1c10:	4ec2ae23          	sw	a2,1276(t0)

00001c14 <inst_337>:
    1c14:	00200513          	li	a0,2
    1c18:	000105b7          	lui	a1,0x10
    1c1c:	ffe58593          	add	a1,a1,-2 # fffe <_end+0xb49e>
    1c20:	02b57633          	remu	a2,a0,a1
    1c24:	50c2a023          	sw	a2,1280(t0)

00001c28 <inst_338>:
    1c28:	00200513          	li	a0,2
    1c2c:	555555b7          	lui	a1,0x55555
    1c30:	55658593          	add	a1,a1,1366 # 55555556 <_end+0x555509f6>
    1c34:	02b57633          	remu	a2,a0,a1
    1c38:	50c2a223          	sw	a2,1284(t0)

00001c3c <inst_339>:
    1c3c:	00200513          	li	a0,2
    1c40:	aaaab5b7          	lui	a1,0xaaaab
    1c44:	aab58593          	add	a1,a1,-1365 # aaaaaaab <_end+0xaaaa5f4b>
    1c48:	02b57633          	remu	a2,a0,a1
    1c4c:	50c2a423          	sw	a2,1288(t0)

00001c50 <inst_340>:
    1c50:	00200513          	li	a0,2
    1c54:	00600593          	li	a1,6
    1c58:	02b57633          	remu	a2,a0,a1
    1c5c:	50c2a623          	sw	a2,1292(t0)

00001c60 <inst_341>:
    1c60:	00200513          	li	a0,2
    1c64:	333335b7          	lui	a1,0x33333
    1c68:	33458593          	add	a1,a1,820 # 33333334 <_end+0x3332e7d4>
    1c6c:	02b57633          	remu	a2,a0,a1
    1c70:	50c2a823          	sw	a2,1296(t0)

00001c74 <inst_342>:
    1c74:	00200513          	li	a0,2
    1c78:	666665b7          	lui	a1,0x66666
    1c7c:	66758593          	add	a1,a1,1639 # 66666667 <_end+0x66661b07>
    1c80:	02b57633          	remu	a2,a0,a1
    1c84:	50c2aa23          	sw	a2,1300(t0)

00001c88 <inst_343>:
    1c88:	00200513          	li	a0,2
    1c8c:	0000b5b7          	lui	a1,0xb
    1c90:	50558593          	add	a1,a1,1285 # b505 <_end+0x69a5>
    1c94:	02b57633          	remu	a2,a0,a1
    1c98:	50c2ac23          	sw	a2,1304(t0)

00001c9c <inst_344>:
    1c9c:	00200513          	li	a0,2
    1ca0:	00100593          	li	a1,1
    1ca4:	02b57633          	remu	a2,a0,a1
    1ca8:	50c2ae23          	sw	a2,1308(t0)

00001cac <inst_345>:
    1cac:	00200513          	li	a0,2
    1cb0:	000105b7          	lui	a1,0x10
    1cb4:	02b57633          	remu	a2,a0,a1
    1cb8:	52c2a023          	sw	a2,1312(t0)

00001cbc <inst_346>:
    1cbc:	55555537          	lui	a0,0x55555
    1cc0:	55450513          	add	a0,a0,1364 # 55555554 <_end+0x555509f4>
    1cc4:	00300593          	li	a1,3
    1cc8:	02b57633          	remu	a2,a0,a1
    1ccc:	52c2a223          	sw	a2,1316(t0)

00001cd0 <inst_347>:
    1cd0:	55555537          	lui	a0,0x55555
    1cd4:	55450513          	add	a0,a0,1364 # 55555554 <_end+0x555509f4>
    1cd8:	555555b7          	lui	a1,0x55555
    1cdc:	55558593          	add	a1,a1,1365 # 55555555 <_end+0x555509f5>
    1ce0:	02b57633          	remu	a2,a0,a1
    1ce4:	52c2a423          	sw	a2,1320(t0)

00001ce8 <inst_348>:
    1ce8:	55555537          	lui	a0,0x55555
    1cec:	55450513          	add	a0,a0,1364 # 55555554 <_end+0x555509f4>
    1cf0:	aaaab5b7          	lui	a1,0xaaaab
    1cf4:	aaa58593          	add	a1,a1,-1366 # aaaaaaaa <_end+0xaaaa5f4a>
    1cf8:	02b57633          	remu	a2,a0,a1
    1cfc:	52c2a623          	sw	a2,1324(t0)

00001d00 <inst_349>:
    1d00:	55555537          	lui	a0,0x55555
    1d04:	55450513          	add	a0,a0,1364 # 55555554 <_end+0x555509f4>
    1d08:	00500593          	li	a1,5
    1d0c:	02b57633          	remu	a2,a0,a1
    1d10:	52c2a823          	sw	a2,1328(t0)

00001d14 <inst_350>:
    1d14:	55555537          	lui	a0,0x55555
    1d18:	55450513          	add	a0,a0,1364 # 55555554 <_end+0x555509f4>
    1d1c:	333335b7          	lui	a1,0x33333
    1d20:	33358593          	add	a1,a1,819 # 33333333 <_end+0x3332e7d3>
    1d24:	02b57633          	remu	a2,a0,a1
    1d28:	52c2aa23          	sw	a2,1332(t0)

00001d2c <inst_351>:
    1d2c:	55555537          	lui	a0,0x55555
    1d30:	55450513          	add	a0,a0,1364 # 55555554 <_end+0x555509f4>
    1d34:	666665b7          	lui	a1,0x66666
    1d38:	66658593          	add	a1,a1,1638 # 66666666 <_end+0x66661b06>
    1d3c:	02b57633          	remu	a2,a0,a1
    1d40:	52c2ac23          	sw	a2,1336(t0)

00001d44 <inst_352>:
    1d44:	55555537          	lui	a0,0x55555
    1d48:	55450513          	add	a0,a0,1364 # 55555554 <_end+0x555509f4>
    1d4c:	0000b5b7          	lui	a1,0xb
    1d50:	50458593          	add	a1,a1,1284 # b504 <_end+0x69a4>
    1d54:	02b57633          	remu	a2,a0,a1
    1d58:	52c2ae23          	sw	a2,1340(t0)

00001d5c <inst_353>:
    1d5c:	55555537          	lui	a0,0x55555
    1d60:	55450513          	add	a0,a0,1364 # 55555554 <_end+0x555509f4>
    1d64:	00000593          	li	a1,0
    1d68:	02b57633          	remu	a2,a0,a1
    1d6c:	54c2a023          	sw	a2,1344(t0)

00001d70 <inst_354>:
    1d70:	55555537          	lui	a0,0x55555
    1d74:	55450513          	add	a0,a0,1364 # 55555554 <_end+0x555509f4>
    1d78:	000105b7          	lui	a1,0x10
    1d7c:	fff58593          	add	a1,a1,-1 # ffff <_end+0xb49f>
    1d80:	02b57633          	remu	a2,a0,a1
    1d84:	54c2a223          	sw	a2,1348(t0)

00001d88 <inst_355>:
    1d88:	55555537          	lui	a0,0x55555
    1d8c:	55450513          	add	a0,a0,1364 # 55555554 <_end+0x555509f4>
    1d90:	00200593          	li	a1,2
    1d94:	02b57633          	remu	a2,a0,a1
    1d98:	54c2a423          	sw	a2,1352(t0)

00001d9c <inst_356>:
    1d9c:	55555537          	lui	a0,0x55555
    1da0:	55450513          	add	a0,a0,1364 # 55555554 <_end+0x555509f4>
    1da4:	555555b7          	lui	a1,0x55555
    1da8:	55458593          	add	a1,a1,1364 # 55555554 <_end+0x555509f4>
    1dac:	02b57633          	remu	a2,a0,a1
    1db0:	54c2a623          	sw	a2,1356(t0)

00001db4 <inst_357>:
    1db4:	55555537          	lui	a0,0x55555
    1db8:	55450513          	add	a0,a0,1364 # 55555554 <_end+0x555509f4>
    1dbc:	aaaab5b7          	lui	a1,0xaaaab
    1dc0:	aa958593          	add	a1,a1,-1367 # aaaaaaa9 <_end+0xaaaa5f49>
    1dc4:	02b57633          	remu	a2,a0,a1
    1dc8:	54c2a823          	sw	a2,1360(t0)

00001dcc <inst_358>:
    1dcc:	55555537          	lui	a0,0x55555
    1dd0:	55450513          	add	a0,a0,1364 # 55555554 <_end+0x555509f4>
    1dd4:	00400593          	li	a1,4
    1dd8:	02b57633          	remu	a2,a0,a1
    1ddc:	54c2aa23          	sw	a2,1364(t0)

00001de0 <inst_359>:
    1de0:	55555537          	lui	a0,0x55555
    1de4:	55450513          	add	a0,a0,1364 # 55555554 <_end+0x555509f4>
    1de8:	333335b7          	lui	a1,0x33333
    1dec:	33258593          	add	a1,a1,818 # 33333332 <_end+0x3332e7d2>
    1df0:	02b57633          	remu	a2,a0,a1
    1df4:	54c2ac23          	sw	a2,1368(t0)

00001df8 <inst_360>:
    1df8:	55555537          	lui	a0,0x55555
    1dfc:	55450513          	add	a0,a0,1364 # 55555554 <_end+0x555509f4>
    1e00:	666665b7          	lui	a1,0x66666
    1e04:	66558593          	add	a1,a1,1637 # 66666665 <_end+0x66661b05>
    1e08:	02b57633          	remu	a2,a0,a1
    1e0c:	54c2ae23          	sw	a2,1372(t0)

00001e10 <inst_361>:
    1e10:	55555537          	lui	a0,0x55555
    1e14:	55450513          	add	a0,a0,1364 # 55555554 <_end+0x555509f4>
    1e18:	0000b5b7          	lui	a1,0xb
    1e1c:	50358593          	add	a1,a1,1283 # b503 <_end+0x69a3>
    1e20:	02b57633          	remu	a2,a0,a1
    1e24:	56c2a023          	sw	a2,1376(t0)

00001e28 <inst_362>:
    1e28:	55555537          	lui	a0,0x55555
    1e2c:	55450513          	add	a0,a0,1364 # 55555554 <_end+0x555509f4>
    1e30:	000105b7          	lui	a1,0x10
    1e34:	ffe58593          	add	a1,a1,-2 # fffe <_end+0xb49e>
    1e38:	02b57633          	remu	a2,a0,a1
    1e3c:	56c2a223          	sw	a2,1380(t0)

00001e40 <inst_363>:
    1e40:	55555537          	lui	a0,0x55555
    1e44:	55450513          	add	a0,a0,1364 # 55555554 <_end+0x555509f4>
    1e48:	555555b7          	lui	a1,0x55555
    1e4c:	55658593          	add	a1,a1,1366 # 55555556 <_end+0x555509f6>
    1e50:	02b57633          	remu	a2,a0,a1
    1e54:	56c2a423          	sw	a2,1384(t0)

00001e58 <inst_364>:
    1e58:	55555537          	lui	a0,0x55555
    1e5c:	55450513          	add	a0,a0,1364 # 55555554 <_end+0x555509f4>
    1e60:	aaaab5b7          	lui	a1,0xaaaab
    1e64:	aab58593          	add	a1,a1,-1365 # aaaaaaab <_end+0xaaaa5f4b>
    1e68:	02b57633          	remu	a2,a0,a1
    1e6c:	56c2a623          	sw	a2,1388(t0)

00001e70 <inst_365>:
    1e70:	55555537          	lui	a0,0x55555
    1e74:	55450513          	add	a0,a0,1364 # 55555554 <_end+0x555509f4>
    1e78:	00600593          	li	a1,6
    1e7c:	02b57633          	remu	a2,a0,a1
    1e80:	56c2a823          	sw	a2,1392(t0)

00001e84 <inst_366>:
    1e84:	55555537          	lui	a0,0x55555
    1e88:	55450513          	add	a0,a0,1364 # 55555554 <_end+0x555509f4>
    1e8c:	333335b7          	lui	a1,0x33333
    1e90:	33458593          	add	a1,a1,820 # 33333334 <_end+0x3332e7d4>
    1e94:	02b57633          	remu	a2,a0,a1
    1e98:	56c2aa23          	sw	a2,1396(t0)

00001e9c <inst_367>:
    1e9c:	55555537          	lui	a0,0x55555
    1ea0:	55450513          	add	a0,a0,1364 # 55555554 <_end+0x555509f4>
    1ea4:	666665b7          	lui	a1,0x66666
    1ea8:	66758593          	add	a1,a1,1639 # 66666667 <_end+0x66661b07>
    1eac:	02b57633          	remu	a2,a0,a1
    1eb0:	56c2ac23          	sw	a2,1400(t0)

00001eb4 <inst_368>:
    1eb4:	55555537          	lui	a0,0x55555
    1eb8:	55450513          	add	a0,a0,1364 # 55555554 <_end+0x555509f4>
    1ebc:	0000b5b7          	lui	a1,0xb
    1ec0:	50558593          	add	a1,a1,1285 # b505 <_end+0x69a5>
    1ec4:	02b57633          	remu	a2,a0,a1
    1ec8:	56c2ae23          	sw	a2,1404(t0)

00001ecc <inst_369>:
    1ecc:	55555537          	lui	a0,0x55555
    1ed0:	55450513          	add	a0,a0,1364 # 55555554 <_end+0x555509f4>
    1ed4:	00100593          	li	a1,1
    1ed8:	02b57633          	remu	a2,a0,a1
    1edc:	58c2a023          	sw	a2,1408(t0)

00001ee0 <inst_370>:
    1ee0:	55555537          	lui	a0,0x55555
    1ee4:	55450513          	add	a0,a0,1364 # 55555554 <_end+0x555509f4>
    1ee8:	000105b7          	lui	a1,0x10
    1eec:	02b57633          	remu	a2,a0,a1
    1ef0:	58c2a223          	sw	a2,1412(t0)

00001ef4 <inst_371>:
    1ef4:	aaaab537          	lui	a0,0xaaaab
    1ef8:	aa950513          	add	a0,a0,-1367 # aaaaaaa9 <_end+0xaaaa5f49>
    1efc:	00300593          	li	a1,3
    1f00:	02b57633          	remu	a2,a0,a1
    1f04:	58c2a423          	sw	a2,1416(t0)

00001f08 <inst_372>:
    1f08:	aaaab537          	lui	a0,0xaaaab
    1f0c:	aa950513          	add	a0,a0,-1367 # aaaaaaa9 <_end+0xaaaa5f49>
    1f10:	555555b7          	lui	a1,0x55555
    1f14:	55558593          	add	a1,a1,1365 # 55555555 <_end+0x555509f5>
    1f18:	02b57633          	remu	a2,a0,a1
    1f1c:	58c2a623          	sw	a2,1420(t0)

00001f20 <inst_373>:
    1f20:	aaaab537          	lui	a0,0xaaaab
    1f24:	aa950513          	add	a0,a0,-1367 # aaaaaaa9 <_end+0xaaaa5f49>
    1f28:	aaaab5b7          	lui	a1,0xaaaab
    1f2c:	aaa58593          	add	a1,a1,-1366 # aaaaaaaa <_end+0xaaaa5f4a>
    1f30:	02b57633          	remu	a2,a0,a1
    1f34:	58c2a823          	sw	a2,1424(t0)

00001f38 <inst_374>:
    1f38:	aaaab537          	lui	a0,0xaaaab
    1f3c:	aa950513          	add	a0,a0,-1367 # aaaaaaa9 <_end+0xaaaa5f49>
    1f40:	00500593          	li	a1,5
    1f44:	02b57633          	remu	a2,a0,a1
    1f48:	58c2aa23          	sw	a2,1428(t0)

00001f4c <inst_375>:
    1f4c:	aaaab537          	lui	a0,0xaaaab
    1f50:	aa950513          	add	a0,a0,-1367 # aaaaaaa9 <_end+0xaaaa5f49>
    1f54:	333335b7          	lui	a1,0x33333
    1f58:	33358593          	add	a1,a1,819 # 33333333 <_end+0x3332e7d3>
    1f5c:	02b57633          	remu	a2,a0,a1
    1f60:	58c2ac23          	sw	a2,1432(t0)

00001f64 <inst_376>:
    1f64:	aaaab537          	lui	a0,0xaaaab
    1f68:	aa950513          	add	a0,a0,-1367 # aaaaaaa9 <_end+0xaaaa5f49>
    1f6c:	666665b7          	lui	a1,0x66666
    1f70:	66658593          	add	a1,a1,1638 # 66666666 <_end+0x66661b06>
    1f74:	02b57633          	remu	a2,a0,a1
    1f78:	58c2ae23          	sw	a2,1436(t0)

00001f7c <inst_377>:
    1f7c:	aaaab537          	lui	a0,0xaaaab
    1f80:	aa950513          	add	a0,a0,-1367 # aaaaaaa9 <_end+0xaaaa5f49>
    1f84:	0000b5b7          	lui	a1,0xb
    1f88:	50458593          	add	a1,a1,1284 # b504 <_end+0x69a4>
    1f8c:	02b57633          	remu	a2,a0,a1
    1f90:	5ac2a023          	sw	a2,1440(t0)

00001f94 <inst_378>:
    1f94:	aaaab537          	lui	a0,0xaaaab
    1f98:	aa950513          	add	a0,a0,-1367 # aaaaaaa9 <_end+0xaaaa5f49>
    1f9c:	00000593          	li	a1,0
    1fa0:	02b57633          	remu	a2,a0,a1
    1fa4:	5ac2a223          	sw	a2,1444(t0)

00001fa8 <inst_379>:
    1fa8:	aaaab537          	lui	a0,0xaaaab
    1fac:	aa950513          	add	a0,a0,-1367 # aaaaaaa9 <_end+0xaaaa5f49>
    1fb0:	000105b7          	lui	a1,0x10
    1fb4:	fff58593          	add	a1,a1,-1 # ffff <_end+0xb49f>
    1fb8:	02b57633          	remu	a2,a0,a1
    1fbc:	5ac2a423          	sw	a2,1448(t0)

00001fc0 <inst_380>:
    1fc0:	aaaab537          	lui	a0,0xaaaab
    1fc4:	aa950513          	add	a0,a0,-1367 # aaaaaaa9 <_end+0xaaaa5f49>
    1fc8:	00200593          	li	a1,2
    1fcc:	02b57633          	remu	a2,a0,a1
    1fd0:	5ac2a623          	sw	a2,1452(t0)

00001fd4 <inst_381>:
    1fd4:	aaaab537          	lui	a0,0xaaaab
    1fd8:	aa950513          	add	a0,a0,-1367 # aaaaaaa9 <_end+0xaaaa5f49>
    1fdc:	555555b7          	lui	a1,0x55555
    1fe0:	55458593          	add	a1,a1,1364 # 55555554 <_end+0x555509f4>
    1fe4:	02b57633          	remu	a2,a0,a1
    1fe8:	5ac2a823          	sw	a2,1456(t0)

00001fec <inst_382>:
    1fec:	aaaab537          	lui	a0,0xaaaab
    1ff0:	aa950513          	add	a0,a0,-1367 # aaaaaaa9 <_end+0xaaaa5f49>
    1ff4:	aaaab5b7          	lui	a1,0xaaaab
    1ff8:	aa958593          	add	a1,a1,-1367 # aaaaaaa9 <_end+0xaaaa5f49>
    1ffc:	02b57633          	remu	a2,a0,a1
    2000:	5ac2aa23          	sw	a2,1460(t0)

00002004 <inst_383>:
    2004:	aaaab537          	lui	a0,0xaaaab
    2008:	aa950513          	add	a0,a0,-1367 # aaaaaaa9 <_end+0xaaaa5f49>
    200c:	00400593          	li	a1,4
    2010:	02b57633          	remu	a2,a0,a1
    2014:	5ac2ac23          	sw	a2,1464(t0)

00002018 <inst_384>:
    2018:	aaaab537          	lui	a0,0xaaaab
    201c:	aa950513          	add	a0,a0,-1367 # aaaaaaa9 <_end+0xaaaa5f49>
    2020:	333335b7          	lui	a1,0x33333
    2024:	33258593          	add	a1,a1,818 # 33333332 <_end+0x3332e7d2>
    2028:	02b57633          	remu	a2,a0,a1
    202c:	5ac2ae23          	sw	a2,1468(t0)

00002030 <inst_385>:
    2030:	aaaab537          	lui	a0,0xaaaab
    2034:	aa950513          	add	a0,a0,-1367 # aaaaaaa9 <_end+0xaaaa5f49>
    2038:	666665b7          	lui	a1,0x66666
    203c:	66558593          	add	a1,a1,1637 # 66666665 <_end+0x66661b05>
    2040:	02b57633          	remu	a2,a0,a1
    2044:	5cc2a023          	sw	a2,1472(t0)

00002048 <inst_386>:
    2048:	aaaab537          	lui	a0,0xaaaab
    204c:	aa950513          	add	a0,a0,-1367 # aaaaaaa9 <_end+0xaaaa5f49>
    2050:	0000b5b7          	lui	a1,0xb
    2054:	50358593          	add	a1,a1,1283 # b503 <_end+0x69a3>
    2058:	02b57633          	remu	a2,a0,a1
    205c:	5cc2a223          	sw	a2,1476(t0)

00002060 <inst_387>:
    2060:	aaaab537          	lui	a0,0xaaaab
    2064:	aa950513          	add	a0,a0,-1367 # aaaaaaa9 <_end+0xaaaa5f49>
    2068:	000105b7          	lui	a1,0x10
    206c:	ffe58593          	add	a1,a1,-2 # fffe <_end+0xb49e>
    2070:	02b57633          	remu	a2,a0,a1
    2074:	5cc2a423          	sw	a2,1480(t0)

00002078 <inst_388>:
    2078:	aaaab537          	lui	a0,0xaaaab
    207c:	aa950513          	add	a0,a0,-1367 # aaaaaaa9 <_end+0xaaaa5f49>
    2080:	555555b7          	lui	a1,0x55555
    2084:	55658593          	add	a1,a1,1366 # 55555556 <_end+0x555509f6>
    2088:	02b57633          	remu	a2,a0,a1
    208c:	5cc2a623          	sw	a2,1484(t0)

00002090 <inst_389>:
    2090:	aaaab537          	lui	a0,0xaaaab
    2094:	aa950513          	add	a0,a0,-1367 # aaaaaaa9 <_end+0xaaaa5f49>
    2098:	aaaab5b7          	lui	a1,0xaaaab
    209c:	aab58593          	add	a1,a1,-1365 # aaaaaaab <_end+0xaaaa5f4b>
    20a0:	02b57633          	remu	a2,a0,a1
    20a4:	5cc2a823          	sw	a2,1488(t0)

000020a8 <inst_390>:
    20a8:	aaaab537          	lui	a0,0xaaaab
    20ac:	aa950513          	add	a0,a0,-1367 # aaaaaaa9 <_end+0xaaaa5f49>
    20b0:	00600593          	li	a1,6
    20b4:	02b57633          	remu	a2,a0,a1
    20b8:	5cc2aa23          	sw	a2,1492(t0)

000020bc <inst_391>:
    20bc:	aaaab537          	lui	a0,0xaaaab
    20c0:	aa950513          	add	a0,a0,-1367 # aaaaaaa9 <_end+0xaaaa5f49>
    20c4:	333335b7          	lui	a1,0x33333
    20c8:	33458593          	add	a1,a1,820 # 33333334 <_end+0x3332e7d4>
    20cc:	02b57633          	remu	a2,a0,a1
    20d0:	5cc2ac23          	sw	a2,1496(t0)

000020d4 <inst_392>:
    20d4:	aaaab537          	lui	a0,0xaaaab
    20d8:	aa950513          	add	a0,a0,-1367 # aaaaaaa9 <_end+0xaaaa5f49>
    20dc:	666665b7          	lui	a1,0x66666
    20e0:	66758593          	add	a1,a1,1639 # 66666667 <_end+0x66661b07>
    20e4:	02b57633          	remu	a2,a0,a1
    20e8:	5cc2ae23          	sw	a2,1500(t0)

000020ec <inst_393>:
    20ec:	aaaab537          	lui	a0,0xaaaab
    20f0:	aa950513          	add	a0,a0,-1367 # aaaaaaa9 <_end+0xaaaa5f49>
    20f4:	0000b5b7          	lui	a1,0xb
    20f8:	50558593          	add	a1,a1,1285 # b505 <_end+0x69a5>
    20fc:	02b57633          	remu	a2,a0,a1
    2100:	5ec2a023          	sw	a2,1504(t0)

00002104 <inst_394>:
    2104:	aaaab537          	lui	a0,0xaaaab
    2108:	aa950513          	add	a0,a0,-1367 # aaaaaaa9 <_end+0xaaaa5f49>
    210c:	00100593          	li	a1,1
    2110:	02b57633          	remu	a2,a0,a1
    2114:	5ec2a223          	sw	a2,1508(t0)

00002118 <inst_395>:
    2118:	aaaab537          	lui	a0,0xaaaab
    211c:	aa950513          	add	a0,a0,-1367 # aaaaaaa9 <_end+0xaaaa5f49>
    2120:	000105b7          	lui	a1,0x10
    2124:	02b57633          	remu	a2,a0,a1
    2128:	5ec2a423          	sw	a2,1512(t0)

0000212c <inst_396>:
    212c:	00400513          	li	a0,4
    2130:	00300593          	li	a1,3
    2134:	02b57633          	remu	a2,a0,a1
    2138:	5ec2a623          	sw	a2,1516(t0)

0000213c <inst_397>:
    213c:	00400513          	li	a0,4
    2140:	555555b7          	lui	a1,0x55555
    2144:	55558593          	add	a1,a1,1365 # 55555555 <_end+0x555509f5>
    2148:	02b57633          	remu	a2,a0,a1
    214c:	5ec2a823          	sw	a2,1520(t0)

00002150 <inst_398>:
    2150:	00400513          	li	a0,4
    2154:	aaaab5b7          	lui	a1,0xaaaab
    2158:	aaa58593          	add	a1,a1,-1366 # aaaaaaaa <_end+0xaaaa5f4a>
    215c:	02b57633          	remu	a2,a0,a1
    2160:	5ec2aa23          	sw	a2,1524(t0)

00002164 <inst_399>:
    2164:	00400513          	li	a0,4
    2168:	00500593          	li	a1,5
    216c:	02b57633          	remu	a2,a0,a1
    2170:	5ec2ac23          	sw	a2,1528(t0)

00002174 <inst_400>:
    2174:	00400513          	li	a0,4
    2178:	333335b7          	lui	a1,0x33333
    217c:	33358593          	add	a1,a1,819 # 33333333 <_end+0x3332e7d3>
    2180:	02b57633          	remu	a2,a0,a1
    2184:	5ec2ae23          	sw	a2,1532(t0)

00002188 <inst_401>:
    2188:	00400513          	li	a0,4
    218c:	666665b7          	lui	a1,0x66666
    2190:	66658593          	add	a1,a1,1638 # 66666666 <_end+0x66661b06>
    2194:	02b57633          	remu	a2,a0,a1
    2198:	60c2a023          	sw	a2,1536(t0)

0000219c <inst_402>:
    219c:	00400513          	li	a0,4
    21a0:	0000b5b7          	lui	a1,0xb
    21a4:	50458593          	add	a1,a1,1284 # b504 <_end+0x69a4>
    21a8:	02b57633          	remu	a2,a0,a1
    21ac:	60c2a223          	sw	a2,1540(t0)

000021b0 <inst_403>:
    21b0:	00400513          	li	a0,4
    21b4:	00000593          	li	a1,0
    21b8:	02b57633          	remu	a2,a0,a1
    21bc:	60c2a423          	sw	a2,1544(t0)

000021c0 <inst_404>:
    21c0:	00400513          	li	a0,4
    21c4:	000105b7          	lui	a1,0x10
    21c8:	fff58593          	add	a1,a1,-1 # ffff <_end+0xb49f>
    21cc:	02b57633          	remu	a2,a0,a1
    21d0:	60c2a623          	sw	a2,1548(t0)

000021d4 <inst_405>:
    21d4:	00400513          	li	a0,4
    21d8:	00200593          	li	a1,2
    21dc:	02b57633          	remu	a2,a0,a1
    21e0:	60c2a823          	sw	a2,1552(t0)

000021e4 <inst_406>:
    21e4:	00400513          	li	a0,4
    21e8:	555555b7          	lui	a1,0x55555
    21ec:	55458593          	add	a1,a1,1364 # 55555554 <_end+0x555509f4>
    21f0:	02b57633          	remu	a2,a0,a1
    21f4:	60c2aa23          	sw	a2,1556(t0)

000021f8 <inst_407>:
    21f8:	00400513          	li	a0,4
    21fc:	aaaab5b7          	lui	a1,0xaaaab
    2200:	aa958593          	add	a1,a1,-1367 # aaaaaaa9 <_end+0xaaaa5f49>
    2204:	02b57633          	remu	a2,a0,a1
    2208:	60c2ac23          	sw	a2,1560(t0)

0000220c <inst_408>:
    220c:	00400513          	li	a0,4
    2210:	00400593          	li	a1,4
    2214:	02b57633          	remu	a2,a0,a1
    2218:	60c2ae23          	sw	a2,1564(t0)

0000221c <inst_409>:
    221c:	00400513          	li	a0,4
    2220:	333335b7          	lui	a1,0x33333
    2224:	33258593          	add	a1,a1,818 # 33333332 <_end+0x3332e7d2>
    2228:	02b57633          	remu	a2,a0,a1
    222c:	62c2a023          	sw	a2,1568(t0)

00002230 <inst_410>:
    2230:	00400513          	li	a0,4
    2234:	666665b7          	lui	a1,0x66666
    2238:	66558593          	add	a1,a1,1637 # 66666665 <_end+0x66661b05>
    223c:	02b57633          	remu	a2,a0,a1
    2240:	62c2a223          	sw	a2,1572(t0)

00002244 <inst_411>:
    2244:	00400513          	li	a0,4
    2248:	0000b5b7          	lui	a1,0xb
    224c:	50358593          	add	a1,a1,1283 # b503 <_end+0x69a3>
    2250:	02b57633          	remu	a2,a0,a1
    2254:	62c2a423          	sw	a2,1576(t0)

00002258 <inst_412>:
    2258:	00400513          	li	a0,4
    225c:	000105b7          	lui	a1,0x10
    2260:	ffe58593          	add	a1,a1,-2 # fffe <_end+0xb49e>
    2264:	02b57633          	remu	a2,a0,a1
    2268:	62c2a623          	sw	a2,1580(t0)

0000226c <inst_413>:
    226c:	00400513          	li	a0,4
    2270:	555555b7          	lui	a1,0x55555
    2274:	55658593          	add	a1,a1,1366 # 55555556 <_end+0x555509f6>
    2278:	02b57633          	remu	a2,a0,a1
    227c:	62c2a823          	sw	a2,1584(t0)

00002280 <inst_414>:
    2280:	00400513          	li	a0,4
    2284:	aaaab5b7          	lui	a1,0xaaaab
    2288:	aab58593          	add	a1,a1,-1365 # aaaaaaab <_end+0xaaaa5f4b>
    228c:	02b57633          	remu	a2,a0,a1
    2290:	62c2aa23          	sw	a2,1588(t0)

00002294 <inst_415>:
    2294:	00400513          	li	a0,4
    2298:	00600593          	li	a1,6
    229c:	02b57633          	remu	a2,a0,a1
    22a0:	62c2ac23          	sw	a2,1592(t0)

000022a4 <inst_416>:
    22a4:	00400513          	li	a0,4
    22a8:	333335b7          	lui	a1,0x33333
    22ac:	33458593          	add	a1,a1,820 # 33333334 <_end+0x3332e7d4>
    22b0:	02b57633          	remu	a2,a0,a1
    22b4:	62c2ae23          	sw	a2,1596(t0)

000022b8 <inst_417>:
    22b8:	00400513          	li	a0,4
    22bc:	666665b7          	lui	a1,0x66666
    22c0:	66758593          	add	a1,a1,1639 # 66666667 <_end+0x66661b07>
    22c4:	02b57633          	remu	a2,a0,a1
    22c8:	64c2a023          	sw	a2,1600(t0)

000022cc <inst_418>:
    22cc:	00400513          	li	a0,4
    22d0:	0000b5b7          	lui	a1,0xb
    22d4:	50558593          	add	a1,a1,1285 # b505 <_end+0x69a5>
    22d8:	02b57633          	remu	a2,a0,a1
    22dc:	64c2a223          	sw	a2,1604(t0)

000022e0 <inst_419>:
    22e0:	00400513          	li	a0,4
    22e4:	00100593          	li	a1,1
    22e8:	02b57633          	remu	a2,a0,a1
    22ec:	64c2a423          	sw	a2,1608(t0)

000022f0 <inst_420>:
    22f0:	00400513          	li	a0,4
    22f4:	000105b7          	lui	a1,0x10
    22f8:	02b57633          	remu	a2,a0,a1
    22fc:	64c2a623          	sw	a2,1612(t0)

00002300 <inst_421>:
    2300:	33333537          	lui	a0,0x33333
    2304:	33250513          	add	a0,a0,818 # 33333332 <_end+0x3332e7d2>
    2308:	00300593          	li	a1,3
    230c:	02b57633          	remu	a2,a0,a1
    2310:	64c2a823          	sw	a2,1616(t0)

00002314 <inst_422>:
    2314:	33333537          	lui	a0,0x33333
    2318:	33250513          	add	a0,a0,818 # 33333332 <_end+0x3332e7d2>
    231c:	555555b7          	lui	a1,0x55555
    2320:	55558593          	add	a1,a1,1365 # 55555555 <_end+0x555509f5>
    2324:	02b57633          	remu	a2,a0,a1
    2328:	64c2aa23          	sw	a2,1620(t0)

0000232c <inst_423>:
    232c:	33333537          	lui	a0,0x33333
    2330:	33250513          	add	a0,a0,818 # 33333332 <_end+0x3332e7d2>
    2334:	aaaab5b7          	lui	a1,0xaaaab
    2338:	aaa58593          	add	a1,a1,-1366 # aaaaaaaa <_end+0xaaaa5f4a>
    233c:	02b57633          	remu	a2,a0,a1
    2340:	64c2ac23          	sw	a2,1624(t0)

00002344 <inst_424>:
    2344:	33333537          	lui	a0,0x33333
    2348:	33250513          	add	a0,a0,818 # 33333332 <_end+0x3332e7d2>
    234c:	00500593          	li	a1,5
    2350:	02b57633          	remu	a2,a0,a1
    2354:	64c2ae23          	sw	a2,1628(t0)

00002358 <inst_425>:
    2358:	33333537          	lui	a0,0x33333
    235c:	33250513          	add	a0,a0,818 # 33333332 <_end+0x3332e7d2>
    2360:	333335b7          	lui	a1,0x33333
    2364:	33358593          	add	a1,a1,819 # 33333333 <_end+0x3332e7d3>
    2368:	02b57633          	remu	a2,a0,a1
    236c:	66c2a023          	sw	a2,1632(t0)

00002370 <inst_426>:
    2370:	33333537          	lui	a0,0x33333
    2374:	33250513          	add	a0,a0,818 # 33333332 <_end+0x3332e7d2>
    2378:	666665b7          	lui	a1,0x66666
    237c:	66658593          	add	a1,a1,1638 # 66666666 <_end+0x66661b06>
    2380:	02b57633          	remu	a2,a0,a1
    2384:	66c2a223          	sw	a2,1636(t0)

00002388 <inst_427>:
    2388:	33333537          	lui	a0,0x33333
    238c:	33250513          	add	a0,a0,818 # 33333332 <_end+0x3332e7d2>
    2390:	0000b5b7          	lui	a1,0xb
    2394:	50458593          	add	a1,a1,1284 # b504 <_end+0x69a4>
    2398:	02b57633          	remu	a2,a0,a1
    239c:	66c2a423          	sw	a2,1640(t0)

000023a0 <inst_428>:
    23a0:	33333537          	lui	a0,0x33333
    23a4:	33250513          	add	a0,a0,818 # 33333332 <_end+0x3332e7d2>
    23a8:	00000593          	li	a1,0
    23ac:	02b57633          	remu	a2,a0,a1
    23b0:	66c2a623          	sw	a2,1644(t0)

000023b4 <inst_429>:
    23b4:	33333537          	lui	a0,0x33333
    23b8:	33250513          	add	a0,a0,818 # 33333332 <_end+0x3332e7d2>
    23bc:	000105b7          	lui	a1,0x10
    23c0:	fff58593          	add	a1,a1,-1 # ffff <_end+0xb49f>
    23c4:	02b57633          	remu	a2,a0,a1
    23c8:	66c2a823          	sw	a2,1648(t0)

000023cc <inst_430>:
    23cc:	33333537          	lui	a0,0x33333
    23d0:	33250513          	add	a0,a0,818 # 33333332 <_end+0x3332e7d2>
    23d4:	00200593          	li	a1,2
    23d8:	02b57633          	remu	a2,a0,a1
    23dc:	66c2aa23          	sw	a2,1652(t0)

000023e0 <inst_431>:
    23e0:	33333537          	lui	a0,0x33333
    23e4:	33250513          	add	a0,a0,818 # 33333332 <_end+0x3332e7d2>
    23e8:	555555b7          	lui	a1,0x55555
    23ec:	55458593          	add	a1,a1,1364 # 55555554 <_end+0x555509f4>
    23f0:	02b57633          	remu	a2,a0,a1
    23f4:	66c2ac23          	sw	a2,1656(t0)

000023f8 <inst_432>:
    23f8:	33333537          	lui	a0,0x33333
    23fc:	33250513          	add	a0,a0,818 # 33333332 <_end+0x3332e7d2>
    2400:	aaaab5b7          	lui	a1,0xaaaab
    2404:	aa958593          	add	a1,a1,-1367 # aaaaaaa9 <_end+0xaaaa5f49>
    2408:	02b57633          	remu	a2,a0,a1
    240c:	66c2ae23          	sw	a2,1660(t0)

00002410 <inst_433>:
    2410:	33333537          	lui	a0,0x33333
    2414:	33250513          	add	a0,a0,818 # 33333332 <_end+0x3332e7d2>
    2418:	00400593          	li	a1,4
    241c:	02b57633          	remu	a2,a0,a1
    2420:	68c2a023          	sw	a2,1664(t0)

00002424 <inst_434>:
    2424:	33333537          	lui	a0,0x33333
    2428:	33250513          	add	a0,a0,818 # 33333332 <_end+0x3332e7d2>
    242c:	333335b7          	lui	a1,0x33333
    2430:	33258593          	add	a1,a1,818 # 33333332 <_end+0x3332e7d2>
    2434:	02b57633          	remu	a2,a0,a1
    2438:	68c2a223          	sw	a2,1668(t0)

0000243c <inst_435>:
    243c:	33333537          	lui	a0,0x33333
    2440:	33250513          	add	a0,a0,818 # 33333332 <_end+0x3332e7d2>
    2444:	666665b7          	lui	a1,0x66666
    2448:	66558593          	add	a1,a1,1637 # 66666665 <_end+0x66661b05>
    244c:	02b57633          	remu	a2,a0,a1
    2450:	68c2a423          	sw	a2,1672(t0)

00002454 <inst_436>:
    2454:	33333537          	lui	a0,0x33333
    2458:	33250513          	add	a0,a0,818 # 33333332 <_end+0x3332e7d2>
    245c:	0000b5b7          	lui	a1,0xb
    2460:	50358593          	add	a1,a1,1283 # b503 <_end+0x69a3>
    2464:	02b57633          	remu	a2,a0,a1
    2468:	68c2a623          	sw	a2,1676(t0)

0000246c <inst_437>:
    246c:	33333537          	lui	a0,0x33333
    2470:	33250513          	add	a0,a0,818 # 33333332 <_end+0x3332e7d2>
    2474:	000105b7          	lui	a1,0x10
    2478:	ffe58593          	add	a1,a1,-2 # fffe <_end+0xb49e>
    247c:	02b57633          	remu	a2,a0,a1
    2480:	68c2a823          	sw	a2,1680(t0)

00002484 <inst_438>:
    2484:	33333537          	lui	a0,0x33333
    2488:	33250513          	add	a0,a0,818 # 33333332 <_end+0x3332e7d2>
    248c:	555555b7          	lui	a1,0x55555
    2490:	55658593          	add	a1,a1,1366 # 55555556 <_end+0x555509f6>
    2494:	02b57633          	remu	a2,a0,a1
    2498:	68c2aa23          	sw	a2,1684(t0)

0000249c <inst_439>:
    249c:	33333537          	lui	a0,0x33333
    24a0:	33250513          	add	a0,a0,818 # 33333332 <_end+0x3332e7d2>
    24a4:	aaaab5b7          	lui	a1,0xaaaab
    24a8:	aab58593          	add	a1,a1,-1365 # aaaaaaab <_end+0xaaaa5f4b>
    24ac:	02b57633          	remu	a2,a0,a1
    24b0:	68c2ac23          	sw	a2,1688(t0)

000024b4 <inst_440>:
    24b4:	33333537          	lui	a0,0x33333
    24b8:	33250513          	add	a0,a0,818 # 33333332 <_end+0x3332e7d2>
    24bc:	00600593          	li	a1,6
    24c0:	02b57633          	remu	a2,a0,a1
    24c4:	68c2ae23          	sw	a2,1692(t0)

000024c8 <inst_441>:
    24c8:	33333537          	lui	a0,0x33333
    24cc:	33250513          	add	a0,a0,818 # 33333332 <_end+0x3332e7d2>
    24d0:	333335b7          	lui	a1,0x33333
    24d4:	33458593          	add	a1,a1,820 # 33333334 <_end+0x3332e7d4>
    24d8:	02b57633          	remu	a2,a0,a1
    24dc:	6ac2a023          	sw	a2,1696(t0)

000024e0 <inst_442>:
    24e0:	33333537          	lui	a0,0x33333
    24e4:	33250513          	add	a0,a0,818 # 33333332 <_end+0x3332e7d2>
    24e8:	666665b7          	lui	a1,0x66666
    24ec:	66758593          	add	a1,a1,1639 # 66666667 <_end+0x66661b07>
    24f0:	02b57633          	remu	a2,a0,a1
    24f4:	6ac2a223          	sw	a2,1700(t0)

000024f8 <inst_443>:
    24f8:	33333537          	lui	a0,0x33333
    24fc:	33250513          	add	a0,a0,818 # 33333332 <_end+0x3332e7d2>
    2500:	0000b5b7          	lui	a1,0xb
    2504:	50558593          	add	a1,a1,1285 # b505 <_end+0x69a5>
    2508:	02b57633          	remu	a2,a0,a1
    250c:	6ac2a423          	sw	a2,1704(t0)

00002510 <inst_444>:
    2510:	33333537          	lui	a0,0x33333
    2514:	33250513          	add	a0,a0,818 # 33333332 <_end+0x3332e7d2>
    2518:	00100593          	li	a1,1
    251c:	02b57633          	remu	a2,a0,a1
    2520:	6ac2a623          	sw	a2,1708(t0)

00002524 <inst_445>:
    2524:	33333537          	lui	a0,0x33333
    2528:	33250513          	add	a0,a0,818 # 33333332 <_end+0x3332e7d2>
    252c:	000105b7          	lui	a1,0x10
    2530:	02b57633          	remu	a2,a0,a1
    2534:	6ac2a823          	sw	a2,1712(t0)

00002538 <inst_446>:
    2538:	66666537          	lui	a0,0x66666
    253c:	66550513          	add	a0,a0,1637 # 66666665 <_end+0x66661b05>
    2540:	00300593          	li	a1,3
    2544:	02b57633          	remu	a2,a0,a1
    2548:	6ac2aa23          	sw	a2,1716(t0)

0000254c <inst_447>:
    254c:	66666537          	lui	a0,0x66666
    2550:	66550513          	add	a0,a0,1637 # 66666665 <_end+0x66661b05>
    2554:	555555b7          	lui	a1,0x55555
    2558:	55558593          	add	a1,a1,1365 # 55555555 <_end+0x555509f5>
    255c:	02b57633          	remu	a2,a0,a1
    2560:	6ac2ac23          	sw	a2,1720(t0)

00002564 <inst_448>:
    2564:	66666537          	lui	a0,0x66666
    2568:	66550513          	add	a0,a0,1637 # 66666665 <_end+0x66661b05>
    256c:	aaaab5b7          	lui	a1,0xaaaab
    2570:	aaa58593          	add	a1,a1,-1366 # aaaaaaaa <_end+0xaaaa5f4a>
    2574:	02b57633          	remu	a2,a0,a1
    2578:	6ac2ae23          	sw	a2,1724(t0)

0000257c <inst_449>:
    257c:	66666537          	lui	a0,0x66666
    2580:	66550513          	add	a0,a0,1637 # 66666665 <_end+0x66661b05>
    2584:	00500593          	li	a1,5
    2588:	02b57633          	remu	a2,a0,a1
    258c:	6cc2a023          	sw	a2,1728(t0)

00002590 <inst_450>:
    2590:	66666537          	lui	a0,0x66666
    2594:	66550513          	add	a0,a0,1637 # 66666665 <_end+0x66661b05>
    2598:	333335b7          	lui	a1,0x33333
    259c:	33358593          	add	a1,a1,819 # 33333333 <_end+0x3332e7d3>
    25a0:	02b57633          	remu	a2,a0,a1
    25a4:	6cc2a223          	sw	a2,1732(t0)

000025a8 <inst_451>:
    25a8:	66666537          	lui	a0,0x66666
    25ac:	66550513          	add	a0,a0,1637 # 66666665 <_end+0x66661b05>
    25b0:	666665b7          	lui	a1,0x66666
    25b4:	66658593          	add	a1,a1,1638 # 66666666 <_end+0x66661b06>
    25b8:	02b57633          	remu	a2,a0,a1
    25bc:	6cc2a423          	sw	a2,1736(t0)

000025c0 <inst_452>:
    25c0:	66666537          	lui	a0,0x66666
    25c4:	66550513          	add	a0,a0,1637 # 66666665 <_end+0x66661b05>
    25c8:	0000b5b7          	lui	a1,0xb
    25cc:	50458593          	add	a1,a1,1284 # b504 <_end+0x69a4>
    25d0:	02b57633          	remu	a2,a0,a1
    25d4:	6cc2a623          	sw	a2,1740(t0)

000025d8 <inst_453>:
    25d8:	66666537          	lui	a0,0x66666
    25dc:	66550513          	add	a0,a0,1637 # 66666665 <_end+0x66661b05>
    25e0:	00000593          	li	a1,0
    25e4:	02b57633          	remu	a2,a0,a1
    25e8:	6cc2a823          	sw	a2,1744(t0)

000025ec <inst_454>:
    25ec:	66666537          	lui	a0,0x66666
    25f0:	66550513          	add	a0,a0,1637 # 66666665 <_end+0x66661b05>
    25f4:	000105b7          	lui	a1,0x10
    25f8:	fff58593          	add	a1,a1,-1 # ffff <_end+0xb49f>
    25fc:	02b57633          	remu	a2,a0,a1
    2600:	6cc2aa23          	sw	a2,1748(t0)

00002604 <inst_455>:
    2604:	66666537          	lui	a0,0x66666
    2608:	66550513          	add	a0,a0,1637 # 66666665 <_end+0x66661b05>
    260c:	00200593          	li	a1,2
    2610:	02b57633          	remu	a2,a0,a1
    2614:	6cc2ac23          	sw	a2,1752(t0)

00002618 <inst_456>:
    2618:	66666537          	lui	a0,0x66666
    261c:	66550513          	add	a0,a0,1637 # 66666665 <_end+0x66661b05>
    2620:	555555b7          	lui	a1,0x55555
    2624:	55458593          	add	a1,a1,1364 # 55555554 <_end+0x555509f4>
    2628:	02b57633          	remu	a2,a0,a1
    262c:	6cc2ae23          	sw	a2,1756(t0)

00002630 <inst_457>:
    2630:	66666537          	lui	a0,0x66666
    2634:	66550513          	add	a0,a0,1637 # 66666665 <_end+0x66661b05>
    2638:	aaaab5b7          	lui	a1,0xaaaab
    263c:	aa958593          	add	a1,a1,-1367 # aaaaaaa9 <_end+0xaaaa5f49>
    2640:	02b57633          	remu	a2,a0,a1
    2644:	6ec2a023          	sw	a2,1760(t0)

00002648 <inst_458>:
    2648:	66666537          	lui	a0,0x66666
    264c:	66550513          	add	a0,a0,1637 # 66666665 <_end+0x66661b05>
    2650:	00400593          	li	a1,4
    2654:	02b57633          	remu	a2,a0,a1
    2658:	6ec2a223          	sw	a2,1764(t0)

0000265c <inst_459>:
    265c:	66666537          	lui	a0,0x66666
    2660:	66550513          	add	a0,a0,1637 # 66666665 <_end+0x66661b05>
    2664:	333335b7          	lui	a1,0x33333
    2668:	33258593          	add	a1,a1,818 # 33333332 <_end+0x3332e7d2>
    266c:	02b57633          	remu	a2,a0,a1
    2670:	6ec2a423          	sw	a2,1768(t0)

00002674 <inst_460>:
    2674:	66666537          	lui	a0,0x66666
    2678:	66550513          	add	a0,a0,1637 # 66666665 <_end+0x66661b05>
    267c:	666665b7          	lui	a1,0x66666
    2680:	66558593          	add	a1,a1,1637 # 66666665 <_end+0x66661b05>
    2684:	02b57633          	remu	a2,a0,a1
    2688:	6ec2a623          	sw	a2,1772(t0)

0000268c <inst_461>:
    268c:	66666537          	lui	a0,0x66666
    2690:	66550513          	add	a0,a0,1637 # 66666665 <_end+0x66661b05>
    2694:	0000b5b7          	lui	a1,0xb
    2698:	50358593          	add	a1,a1,1283 # b503 <_end+0x69a3>
    269c:	02b57633          	remu	a2,a0,a1
    26a0:	6ec2a823          	sw	a2,1776(t0)

000026a4 <inst_462>:
    26a4:	66666537          	lui	a0,0x66666
    26a8:	66550513          	add	a0,a0,1637 # 66666665 <_end+0x66661b05>
    26ac:	000105b7          	lui	a1,0x10
    26b0:	ffe58593          	add	a1,a1,-2 # fffe <_end+0xb49e>
    26b4:	02b57633          	remu	a2,a0,a1
    26b8:	6ec2aa23          	sw	a2,1780(t0)

000026bc <inst_463>:
    26bc:	66666537          	lui	a0,0x66666
    26c0:	66550513          	add	a0,a0,1637 # 66666665 <_end+0x66661b05>
    26c4:	555555b7          	lui	a1,0x55555
    26c8:	55658593          	add	a1,a1,1366 # 55555556 <_end+0x555509f6>
    26cc:	02b57633          	remu	a2,a0,a1
    26d0:	6ec2ac23          	sw	a2,1784(t0)

000026d4 <inst_464>:
    26d4:	66666537          	lui	a0,0x66666
    26d8:	66550513          	add	a0,a0,1637 # 66666665 <_end+0x66661b05>
    26dc:	aaaab5b7          	lui	a1,0xaaaab
    26e0:	aab58593          	add	a1,a1,-1365 # aaaaaaab <_end+0xaaaa5f4b>
    26e4:	02b57633          	remu	a2,a0,a1
    26e8:	6ec2ae23          	sw	a2,1788(t0)

000026ec <inst_465>:
    26ec:	66666537          	lui	a0,0x66666
    26f0:	66550513          	add	a0,a0,1637 # 66666665 <_end+0x66661b05>
    26f4:	00100593          	li	a1,1
    26f8:	02b57633          	remu	a2,a0,a1
    26fc:	70c2a023          	sw	a2,1792(t0)

00002700 <inst_466>:
    2700:	66666537          	lui	a0,0x66666
    2704:	66550513          	add	a0,a0,1637 # 66666665 <_end+0x66661b05>
    2708:	000105b7          	lui	a1,0x10
    270c:	02b57633          	remu	a2,a0,a1
    2710:	70c2a223          	sw	a2,1796(t0)

00002714 <inst_467>:
    2714:	0000b537          	lui	a0,0xb
    2718:	50350513          	add	a0,a0,1283 # b503 <_end+0x69a3>
    271c:	00300593          	li	a1,3
    2720:	02b57633          	remu	a2,a0,a1
    2724:	70c2a423          	sw	a2,1800(t0)

00002728 <inst_468>:
    2728:	0000b537          	lui	a0,0xb
    272c:	50350513          	add	a0,a0,1283 # b503 <_end+0x69a3>
    2730:	555555b7          	lui	a1,0x55555
    2734:	55558593          	add	a1,a1,1365 # 55555555 <_end+0x555509f5>
    2738:	02b57633          	remu	a2,a0,a1
    273c:	70c2a623          	sw	a2,1804(t0)

00002740 <inst_469>:
    2740:	0000b537          	lui	a0,0xb
    2744:	50350513          	add	a0,a0,1283 # b503 <_end+0x69a3>
    2748:	aaaab5b7          	lui	a1,0xaaaab
    274c:	aaa58593          	add	a1,a1,-1366 # aaaaaaaa <_end+0xaaaa5f4a>
    2750:	02b57633          	remu	a2,a0,a1
    2754:	70c2a823          	sw	a2,1808(t0)

00002758 <inst_470>:
    2758:	0000b537          	lui	a0,0xb
    275c:	50350513          	add	a0,a0,1283 # b503 <_end+0x69a3>
    2760:	00500593          	li	a1,5
    2764:	02b57633          	remu	a2,a0,a1
    2768:	70c2aa23          	sw	a2,1812(t0)

0000276c <inst_471>:
    276c:	0000b537          	lui	a0,0xb
    2770:	50350513          	add	a0,a0,1283 # b503 <_end+0x69a3>
    2774:	333335b7          	lui	a1,0x33333
    2778:	33358593          	add	a1,a1,819 # 33333333 <_end+0x3332e7d3>
    277c:	02b57633          	remu	a2,a0,a1
    2780:	70c2ac23          	sw	a2,1816(t0)

00002784 <inst_472>:
    2784:	0000b537          	lui	a0,0xb
    2788:	50350513          	add	a0,a0,1283 # b503 <_end+0x69a3>
    278c:	666665b7          	lui	a1,0x66666
    2790:	66658593          	add	a1,a1,1638 # 66666666 <_end+0x66661b06>
    2794:	02b57633          	remu	a2,a0,a1
    2798:	70c2ae23          	sw	a2,1820(t0)

0000279c <inst_473>:
    279c:	0000b537          	lui	a0,0xb
    27a0:	50350513          	add	a0,a0,1283 # b503 <_end+0x69a3>
    27a4:	0000b5b7          	lui	a1,0xb
    27a8:	50458593          	add	a1,a1,1284 # b504 <_end+0x69a4>
    27ac:	02b57633          	remu	a2,a0,a1
    27b0:	72c2a023          	sw	a2,1824(t0)

000027b4 <inst_474>:
    27b4:	0000b537          	lui	a0,0xb
    27b8:	50350513          	add	a0,a0,1283 # b503 <_end+0x69a3>
    27bc:	00000593          	li	a1,0
    27c0:	02b57633          	remu	a2,a0,a1
    27c4:	72c2a223          	sw	a2,1828(t0)

000027c8 <inst_475>:
    27c8:	0000b537          	lui	a0,0xb
    27cc:	50350513          	add	a0,a0,1283 # b503 <_end+0x69a3>
    27d0:	000105b7          	lui	a1,0x10
    27d4:	fff58593          	add	a1,a1,-1 # ffff <_end+0xb49f>
    27d8:	02b57633          	remu	a2,a0,a1
    27dc:	72c2a423          	sw	a2,1832(t0)

000027e0 <inst_476>:
    27e0:	0000b537          	lui	a0,0xb
    27e4:	50350513          	add	a0,a0,1283 # b503 <_end+0x69a3>
    27e8:	00200593          	li	a1,2
    27ec:	02b57633          	remu	a2,a0,a1
    27f0:	72c2a623          	sw	a2,1836(t0)

000027f4 <inst_477>:
    27f4:	0000b537          	lui	a0,0xb
    27f8:	50350513          	add	a0,a0,1283 # b503 <_end+0x69a3>
    27fc:	555555b7          	lui	a1,0x55555
    2800:	55458593          	add	a1,a1,1364 # 55555554 <_end+0x555509f4>
    2804:	02b57633          	remu	a2,a0,a1
    2808:	72c2a823          	sw	a2,1840(t0)

0000280c <inst_478>:
    280c:	0000b537          	lui	a0,0xb
    2810:	50350513          	add	a0,a0,1283 # b503 <_end+0x69a3>
    2814:	aaaab5b7          	lui	a1,0xaaaab
    2818:	aa958593          	add	a1,a1,-1367 # aaaaaaa9 <_end+0xaaaa5f49>
    281c:	02b57633          	remu	a2,a0,a1
    2820:	72c2aa23          	sw	a2,1844(t0)

00002824 <inst_479>:
    2824:	0000b537          	lui	a0,0xb
    2828:	50350513          	add	a0,a0,1283 # b503 <_end+0x69a3>
    282c:	00400593          	li	a1,4
    2830:	02b57633          	remu	a2,a0,a1
    2834:	72c2ac23          	sw	a2,1848(t0)

00002838 <inst_480>:
    2838:	0000b537          	lui	a0,0xb
    283c:	50350513          	add	a0,a0,1283 # b503 <_end+0x69a3>
    2840:	333335b7          	lui	a1,0x33333
    2844:	33258593          	add	a1,a1,818 # 33333332 <_end+0x3332e7d2>
    2848:	02b57633          	remu	a2,a0,a1
    284c:	72c2ae23          	sw	a2,1852(t0)

00002850 <inst_481>:
    2850:	0000b537          	lui	a0,0xb
    2854:	50350513          	add	a0,a0,1283 # b503 <_end+0x69a3>
    2858:	666665b7          	lui	a1,0x66666
    285c:	66558593          	add	a1,a1,1637 # 66666665 <_end+0x66661b05>
    2860:	02b57633          	remu	a2,a0,a1
    2864:	74c2a023          	sw	a2,1856(t0)

00002868 <inst_482>:
    2868:	0000b537          	lui	a0,0xb
    286c:	50350513          	add	a0,a0,1283 # b503 <_end+0x69a3>
    2870:	0000b5b7          	lui	a1,0xb
    2874:	50358593          	add	a1,a1,1283 # b503 <_end+0x69a3>
    2878:	02b57633          	remu	a2,a0,a1
    287c:	74c2a223          	sw	a2,1860(t0)

00002880 <inst_483>:
    2880:	0000b537          	lui	a0,0xb
    2884:	50350513          	add	a0,a0,1283 # b503 <_end+0x69a3>
    2888:	000105b7          	lui	a1,0x10
    288c:	ffe58593          	add	a1,a1,-2 # fffe <_end+0xb49e>
    2890:	02b57633          	remu	a2,a0,a1
    2894:	74c2a423          	sw	a2,1864(t0)

00002898 <inst_484>:
    2898:	0000b537          	lui	a0,0xb
    289c:	50350513          	add	a0,a0,1283 # b503 <_end+0x69a3>
    28a0:	555555b7          	lui	a1,0x55555
    28a4:	55658593          	add	a1,a1,1366 # 55555556 <_end+0x555509f6>
    28a8:	02b57633          	remu	a2,a0,a1
    28ac:	74c2a623          	sw	a2,1868(t0)

000028b0 <inst_485>:
    28b0:	0000b537          	lui	a0,0xb
    28b4:	50350513          	add	a0,a0,1283 # b503 <_end+0x69a3>
    28b8:	aaaab5b7          	lui	a1,0xaaaab
    28bc:	aab58593          	add	a1,a1,-1365 # aaaaaaab <_end+0xaaaa5f4b>
    28c0:	02b57633          	remu	a2,a0,a1
    28c4:	74c2a823          	sw	a2,1872(t0)

000028c8 <inst_486>:
    28c8:	0000b537          	lui	a0,0xb
    28cc:	50350513          	add	a0,a0,1283 # b503 <_end+0x69a3>
    28d0:	00600593          	li	a1,6
    28d4:	02b57633          	remu	a2,a0,a1
    28d8:	74c2aa23          	sw	a2,1876(t0)

000028dc <inst_487>:
    28dc:	0000b537          	lui	a0,0xb
    28e0:	50350513          	add	a0,a0,1283 # b503 <_end+0x69a3>
    28e4:	333335b7          	lui	a1,0x33333
    28e8:	33458593          	add	a1,a1,820 # 33333334 <_end+0x3332e7d4>
    28ec:	02b57633          	remu	a2,a0,a1
    28f0:	74c2ac23          	sw	a2,1880(t0)

000028f4 <inst_488>:
    28f4:	0000b537          	lui	a0,0xb
    28f8:	50350513          	add	a0,a0,1283 # b503 <_end+0x69a3>
    28fc:	666665b7          	lui	a1,0x66666
    2900:	66758593          	add	a1,a1,1639 # 66666667 <_end+0x66661b07>
    2904:	02b57633          	remu	a2,a0,a1
    2908:	74c2ae23          	sw	a2,1884(t0)

0000290c <inst_489>:
    290c:	0000b537          	lui	a0,0xb
    2910:	50350513          	add	a0,a0,1283 # b503 <_end+0x69a3>
    2914:	0000b5b7          	lui	a1,0xb
    2918:	50558593          	add	a1,a1,1285 # b505 <_end+0x69a5>
    291c:	02b57633          	remu	a2,a0,a1
    2920:	76c2a023          	sw	a2,1888(t0)

00002924 <inst_490>:
    2924:	0000b537          	lui	a0,0xb
    2928:	50350513          	add	a0,a0,1283 # b503 <_end+0x69a3>
    292c:	00100593          	li	a1,1
    2930:	02b57633          	remu	a2,a0,a1
    2934:	76c2a223          	sw	a2,1892(t0)

00002938 <inst_491>:
    2938:	0000b537          	lui	a0,0xb
    293c:	50350513          	add	a0,a0,1283 # b503 <_end+0x69a3>
    2940:	000105b7          	lui	a1,0x10
    2944:	02b57633          	remu	a2,a0,a1
    2948:	76c2a423          	sw	a2,1896(t0)

0000294c <inst_492>:
    294c:	00010537          	lui	a0,0x10
    2950:	ffe50513          	add	a0,a0,-2 # fffe <_end+0xb49e>
    2954:	00300593          	li	a1,3
    2958:	02b57633          	remu	a2,a0,a1
    295c:	76c2a623          	sw	a2,1900(t0)

00002960 <inst_493>:
    2960:	00010537          	lui	a0,0x10
    2964:	ffe50513          	add	a0,a0,-2 # fffe <_end+0xb49e>
    2968:	555555b7          	lui	a1,0x55555
    296c:	55558593          	add	a1,a1,1365 # 55555555 <_end+0x555509f5>
    2970:	02b57633          	remu	a2,a0,a1
    2974:	76c2a823          	sw	a2,1904(t0)

00002978 <inst_494>:
    2978:	00010537          	lui	a0,0x10
    297c:	ffe50513          	add	a0,a0,-2 # fffe <_end+0xb49e>
    2980:	aaaab5b7          	lui	a1,0xaaaab
    2984:	aaa58593          	add	a1,a1,-1366 # aaaaaaaa <_end+0xaaaa5f4a>
    2988:	02b57633          	remu	a2,a0,a1
    298c:	76c2aa23          	sw	a2,1908(t0)

00002990 <inst_495>:
    2990:	00010537          	lui	a0,0x10
    2994:	ffe50513          	add	a0,a0,-2 # fffe <_end+0xb49e>
    2998:	00500593          	li	a1,5
    299c:	02b57633          	remu	a2,a0,a1
    29a0:	76c2ac23          	sw	a2,1912(t0)

000029a4 <inst_496>:
    29a4:	00010537          	lui	a0,0x10
    29a8:	ffe50513          	add	a0,a0,-2 # fffe <_end+0xb49e>
    29ac:	333335b7          	lui	a1,0x33333
    29b0:	33358593          	add	a1,a1,819 # 33333333 <_end+0x3332e7d3>
    29b4:	02b57633          	remu	a2,a0,a1
    29b8:	76c2ae23          	sw	a2,1916(t0)

000029bc <inst_497>:
    29bc:	00010537          	lui	a0,0x10
    29c0:	ffe50513          	add	a0,a0,-2 # fffe <_end+0xb49e>
    29c4:	666665b7          	lui	a1,0x66666
    29c8:	66658593          	add	a1,a1,1638 # 66666666 <_end+0x66661b06>
    29cc:	02b57633          	remu	a2,a0,a1
    29d0:	78c2a023          	sw	a2,1920(t0)

000029d4 <inst_498>:
    29d4:	00010537          	lui	a0,0x10
    29d8:	ffe50513          	add	a0,a0,-2 # fffe <_end+0xb49e>
    29dc:	0000b5b7          	lui	a1,0xb
    29e0:	50458593          	add	a1,a1,1284 # b504 <_end+0x69a4>
    29e4:	02b57633          	remu	a2,a0,a1
    29e8:	78c2a223          	sw	a2,1924(t0)

000029ec <inst_499>:
    29ec:	00010537          	lui	a0,0x10
    29f0:	ffe50513          	add	a0,a0,-2 # fffe <_end+0xb49e>
    29f4:	00000593          	li	a1,0
    29f8:	02b57633          	remu	a2,a0,a1
    29fc:	78c2a423          	sw	a2,1928(t0)

00002a00 <inst_500>:
    2a00:	00010537          	lui	a0,0x10
    2a04:	ffe50513          	add	a0,a0,-2 # fffe <_end+0xb49e>
    2a08:	000105b7          	lui	a1,0x10
    2a0c:	fff58593          	add	a1,a1,-1 # ffff <_end+0xb49f>
    2a10:	02b57633          	remu	a2,a0,a1
    2a14:	78c2a623          	sw	a2,1932(t0)

00002a18 <inst_501>:
    2a18:	00010537          	lui	a0,0x10
    2a1c:	ffe50513          	add	a0,a0,-2 # fffe <_end+0xb49e>
    2a20:	00200593          	li	a1,2
    2a24:	02b57633          	remu	a2,a0,a1
    2a28:	78c2a823          	sw	a2,1936(t0)

00002a2c <inst_502>:
    2a2c:	00010537          	lui	a0,0x10
    2a30:	ffe50513          	add	a0,a0,-2 # fffe <_end+0xb49e>
    2a34:	555555b7          	lui	a1,0x55555
    2a38:	55458593          	add	a1,a1,1364 # 55555554 <_end+0x555509f4>
    2a3c:	02b57633          	remu	a2,a0,a1
    2a40:	78c2aa23          	sw	a2,1940(t0)

00002a44 <inst_503>:
    2a44:	00010537          	lui	a0,0x10
    2a48:	ffe50513          	add	a0,a0,-2 # fffe <_end+0xb49e>
    2a4c:	aaaab5b7          	lui	a1,0xaaaab
    2a50:	aa958593          	add	a1,a1,-1367 # aaaaaaa9 <_end+0xaaaa5f49>
    2a54:	02b57633          	remu	a2,a0,a1
    2a58:	78c2ac23          	sw	a2,1944(t0)

00002a5c <inst_504>:
    2a5c:	00010537          	lui	a0,0x10
    2a60:	ffe50513          	add	a0,a0,-2 # fffe <_end+0xb49e>
    2a64:	00400593          	li	a1,4
    2a68:	02b57633          	remu	a2,a0,a1
    2a6c:	78c2ae23          	sw	a2,1948(t0)

00002a70 <inst_505>:
    2a70:	00010537          	lui	a0,0x10
    2a74:	ffe50513          	add	a0,a0,-2 # fffe <_end+0xb49e>
    2a78:	333335b7          	lui	a1,0x33333
    2a7c:	33258593          	add	a1,a1,818 # 33333332 <_end+0x3332e7d2>
    2a80:	02b57633          	remu	a2,a0,a1
    2a84:	7ac2a023          	sw	a2,1952(t0)

00002a88 <inst_506>:
    2a88:	00010537          	lui	a0,0x10
    2a8c:	ffe50513          	add	a0,a0,-2 # fffe <_end+0xb49e>
    2a90:	666665b7          	lui	a1,0x66666
    2a94:	66558593          	add	a1,a1,1637 # 66666665 <_end+0x66661b05>
    2a98:	02b57633          	remu	a2,a0,a1
    2a9c:	7ac2a223          	sw	a2,1956(t0)

00002aa0 <inst_507>:
    2aa0:	00010537          	lui	a0,0x10
    2aa4:	ffe50513          	add	a0,a0,-2 # fffe <_end+0xb49e>
    2aa8:	0000b5b7          	lui	a1,0xb
    2aac:	50358593          	add	a1,a1,1283 # b503 <_end+0x69a3>
    2ab0:	02b57633          	remu	a2,a0,a1
    2ab4:	7ac2a423          	sw	a2,1960(t0)

00002ab8 <inst_508>:
    2ab8:	00010537          	lui	a0,0x10
    2abc:	ffe50513          	add	a0,a0,-2 # fffe <_end+0xb49e>
    2ac0:	000105b7          	lui	a1,0x10
    2ac4:	ffe58593          	add	a1,a1,-2 # fffe <_end+0xb49e>
    2ac8:	02b57633          	remu	a2,a0,a1
    2acc:	7ac2a623          	sw	a2,1964(t0)

00002ad0 <inst_509>:
    2ad0:	00010537          	lui	a0,0x10
    2ad4:	ffe50513          	add	a0,a0,-2 # fffe <_end+0xb49e>
    2ad8:	555555b7          	lui	a1,0x55555
    2adc:	55658593          	add	a1,a1,1366 # 55555556 <_end+0x555509f6>
    2ae0:	02b57633          	remu	a2,a0,a1
    2ae4:	7ac2a823          	sw	a2,1968(t0)

00002ae8 <inst_510>:
    2ae8:	00010537          	lui	a0,0x10
    2aec:	ffe50513          	add	a0,a0,-2 # fffe <_end+0xb49e>
    2af0:	aaaab5b7          	lui	a1,0xaaaab
    2af4:	aab58593          	add	a1,a1,-1365 # aaaaaaab <_end+0xaaaa5f4b>
    2af8:	02b57633          	remu	a2,a0,a1
    2afc:	7ac2aa23          	sw	a2,1972(t0)

00002b00 <inst_511>:
    2b00:	00010537          	lui	a0,0x10
    2b04:	ffe50513          	add	a0,a0,-2 # fffe <_end+0xb49e>
    2b08:	00600593          	li	a1,6
    2b0c:	02b57633          	remu	a2,a0,a1
    2b10:	7ac2ac23          	sw	a2,1976(t0)

00002b14 <inst_512>:
    2b14:	00010537          	lui	a0,0x10
    2b18:	ffe50513          	add	a0,a0,-2 # fffe <_end+0xb49e>
    2b1c:	333335b7          	lui	a1,0x33333
    2b20:	33458593          	add	a1,a1,820 # 33333334 <_end+0x3332e7d4>
    2b24:	02b57633          	remu	a2,a0,a1
    2b28:	7ac2ae23          	sw	a2,1980(t0)

00002b2c <inst_513>:
    2b2c:	00010537          	lui	a0,0x10
    2b30:	ffe50513          	add	a0,a0,-2 # fffe <_end+0xb49e>
    2b34:	666665b7          	lui	a1,0x66666
    2b38:	66758593          	add	a1,a1,1639 # 66666667 <_end+0x66661b07>
    2b3c:	02b57633          	remu	a2,a0,a1
    2b40:	7cc2a023          	sw	a2,1984(t0)

00002b44 <inst_514>:
    2b44:	00010537          	lui	a0,0x10
    2b48:	ffe50513          	add	a0,a0,-2 # fffe <_end+0xb49e>
    2b4c:	0000b5b7          	lui	a1,0xb
    2b50:	50558593          	add	a1,a1,1285 # b505 <_end+0x69a5>
    2b54:	02b57633          	remu	a2,a0,a1
    2b58:	7cc2a223          	sw	a2,1988(t0)

00002b5c <inst_515>:
    2b5c:	00010537          	lui	a0,0x10
    2b60:	ffe50513          	add	a0,a0,-2 # fffe <_end+0xb49e>
    2b64:	00100593          	li	a1,1
    2b68:	02b57633          	remu	a2,a0,a1
    2b6c:	7cc2a423          	sw	a2,1992(t0)

00002b70 <inst_516>:
    2b70:	00010537          	lui	a0,0x10
    2b74:	ffe50513          	add	a0,a0,-2 # fffe <_end+0xb49e>
    2b78:	000105b7          	lui	a1,0x10
    2b7c:	02b57633          	remu	a2,a0,a1
    2b80:	7cc2a623          	sw	a2,1996(t0)

00002b84 <inst_517>:
    2b84:	55555537          	lui	a0,0x55555
    2b88:	55650513          	add	a0,a0,1366 # 55555556 <_end+0x555509f6>
    2b8c:	00300593          	li	a1,3
    2b90:	02b57633          	remu	a2,a0,a1
    2b94:	7cc2a823          	sw	a2,2000(t0)

00002b98 <inst_518>:
    2b98:	55555537          	lui	a0,0x55555
    2b9c:	55650513          	add	a0,a0,1366 # 55555556 <_end+0x555509f6>
    2ba0:	555555b7          	lui	a1,0x55555
    2ba4:	55558593          	add	a1,a1,1365 # 55555555 <_end+0x555509f5>
    2ba8:	02b57633          	remu	a2,a0,a1
    2bac:	7cc2aa23          	sw	a2,2004(t0)

00002bb0 <inst_519>:
    2bb0:	55555537          	lui	a0,0x55555
    2bb4:	55650513          	add	a0,a0,1366 # 55555556 <_end+0x555509f6>
    2bb8:	aaaab5b7          	lui	a1,0xaaaab
    2bbc:	aaa58593          	add	a1,a1,-1366 # aaaaaaaa <_end+0xaaaa5f4a>
    2bc0:	02b57633          	remu	a2,a0,a1
    2bc4:	7cc2ac23          	sw	a2,2008(t0)

00002bc8 <inst_520>:
    2bc8:	55555537          	lui	a0,0x55555
    2bcc:	55650513          	add	a0,a0,1366 # 55555556 <_end+0x555509f6>
    2bd0:	00500593          	li	a1,5
    2bd4:	02b57633          	remu	a2,a0,a1
    2bd8:	7cc2ae23          	sw	a2,2012(t0)

00002bdc <inst_521>:
    2bdc:	55555537          	lui	a0,0x55555
    2be0:	55650513          	add	a0,a0,1366 # 55555556 <_end+0x555509f6>
    2be4:	333335b7          	lui	a1,0x33333
    2be8:	33358593          	add	a1,a1,819 # 33333333 <_end+0x3332e7d3>
    2bec:	02b57633          	remu	a2,a0,a1
    2bf0:	7ec2a023          	sw	a2,2016(t0)

00002bf4 <inst_522>:
    2bf4:	55555537          	lui	a0,0x55555
    2bf8:	55650513          	add	a0,a0,1366 # 55555556 <_end+0x555509f6>
    2bfc:	666665b7          	lui	a1,0x66666
    2c00:	66658593          	add	a1,a1,1638 # 66666666 <_end+0x66661b06>
    2c04:	02b57633          	remu	a2,a0,a1
    2c08:	7ec2a223          	sw	a2,2020(t0)

00002c0c <inst_523>:
    2c0c:	55555537          	lui	a0,0x55555
    2c10:	55650513          	add	a0,a0,1366 # 55555556 <_end+0x555509f6>
    2c14:	0000b5b7          	lui	a1,0xb
    2c18:	50458593          	add	a1,a1,1284 # b504 <_end+0x69a4>
    2c1c:	02b57633          	remu	a2,a0,a1
    2c20:	7ec2a423          	sw	a2,2024(t0)

00002c24 <inst_524>:
    2c24:	55555537          	lui	a0,0x55555
    2c28:	55650513          	add	a0,a0,1366 # 55555556 <_end+0x555509f6>
    2c2c:	00000593          	li	a1,0
    2c30:	02b57633          	remu	a2,a0,a1
    2c34:	7ec2a623          	sw	a2,2028(t0)

00002c38 <inst_525>:
    2c38:	55555537          	lui	a0,0x55555
    2c3c:	55650513          	add	a0,a0,1366 # 55555556 <_end+0x555509f6>
    2c40:	000105b7          	lui	a1,0x10
    2c44:	fff58593          	add	a1,a1,-1 # ffff <_end+0xb49f>
    2c48:	02b57633          	remu	a2,a0,a1
    2c4c:	7ec2a823          	sw	a2,2032(t0)

00002c50 <inst_526>:
    2c50:	55555537          	lui	a0,0x55555
    2c54:	55650513          	add	a0,a0,1366 # 55555556 <_end+0x555509f6>
    2c58:	00200593          	li	a1,2
    2c5c:	02b57633          	remu	a2,a0,a1
    2c60:	7ec2aa23          	sw	a2,2036(t0)

00002c64 <inst_527>:
    2c64:	55555537          	lui	a0,0x55555
    2c68:	55650513          	add	a0,a0,1366 # 55555556 <_end+0x555509f6>
    2c6c:	555555b7          	lui	a1,0x55555
    2c70:	55458593          	add	a1,a1,1364 # 55555554 <_end+0x555509f4>
    2c74:	02b57633          	remu	a2,a0,a1
    2c78:	7ec2ac23          	sw	a2,2040(t0)

00002c7c <inst_528>:
    2c7c:	55555537          	lui	a0,0x55555
    2c80:	55650513          	add	a0,a0,1366 # 55555556 <_end+0x555509f6>
    2c84:	aaaab5b7          	lui	a1,0xaaaab
    2c88:	aa958593          	add	a1,a1,-1367 # aaaaaaa9 <_end+0xaaaa5f49>
    2c8c:	02b57633          	remu	a2,a0,a1
    2c90:	7ec2ae23          	sw	a2,2044(t0)
    2c94:	00002297          	auipc	t0,0x2
    2c98:	bc028293          	add	t0,t0,-1088 # 4854 <signature_x5_1>

00002c9c <inst_529>:
    2c9c:	55555537          	lui	a0,0x55555
    2ca0:	55650513          	add	a0,a0,1366 # 55555556 <_end+0x555509f6>
    2ca4:	00400593          	li	a1,4
    2ca8:	02b57633          	remu	a2,a0,a1
    2cac:	00c2a023          	sw	a2,0(t0)

00002cb0 <inst_530>:
    2cb0:	55555537          	lui	a0,0x55555
    2cb4:	55650513          	add	a0,a0,1366 # 55555556 <_end+0x555509f6>
    2cb8:	333335b7          	lui	a1,0x33333
    2cbc:	33258593          	add	a1,a1,818 # 33333332 <_end+0x3332e7d2>
    2cc0:	02b57633          	remu	a2,a0,a1
    2cc4:	00c2a223          	sw	a2,4(t0)

00002cc8 <inst_531>:
    2cc8:	55555537          	lui	a0,0x55555
    2ccc:	55650513          	add	a0,a0,1366 # 55555556 <_end+0x555509f6>
    2cd0:	666665b7          	lui	a1,0x66666
    2cd4:	66558593          	add	a1,a1,1637 # 66666665 <_end+0x66661b05>
    2cd8:	02b57633          	remu	a2,a0,a1
    2cdc:	00c2a423          	sw	a2,8(t0)

00002ce0 <inst_532>:
    2ce0:	55555537          	lui	a0,0x55555
    2ce4:	55650513          	add	a0,a0,1366 # 55555556 <_end+0x555509f6>
    2ce8:	0000b5b7          	lui	a1,0xb
    2cec:	50358593          	add	a1,a1,1283 # b503 <_end+0x69a3>
    2cf0:	02b57633          	remu	a2,a0,a1
    2cf4:	00c2a623          	sw	a2,12(t0)

00002cf8 <inst_533>:
    2cf8:	55555537          	lui	a0,0x55555
    2cfc:	55650513          	add	a0,a0,1366 # 55555556 <_end+0x555509f6>
    2d00:	000105b7          	lui	a1,0x10
    2d04:	ffe58593          	add	a1,a1,-2 # fffe <_end+0xb49e>
    2d08:	02b57633          	remu	a2,a0,a1
    2d0c:	00c2a823          	sw	a2,16(t0)

00002d10 <inst_534>:
    2d10:	55555537          	lui	a0,0x55555
    2d14:	55650513          	add	a0,a0,1366 # 55555556 <_end+0x555509f6>
    2d18:	555555b7          	lui	a1,0x55555
    2d1c:	55658593          	add	a1,a1,1366 # 55555556 <_end+0x555509f6>
    2d20:	02b57633          	remu	a2,a0,a1
    2d24:	00c2aa23          	sw	a2,20(t0)

00002d28 <inst_535>:
    2d28:	55555537          	lui	a0,0x55555
    2d2c:	55650513          	add	a0,a0,1366 # 55555556 <_end+0x555509f6>
    2d30:	aaaab5b7          	lui	a1,0xaaaab
    2d34:	aab58593          	add	a1,a1,-1365 # aaaaaaab <_end+0xaaaa5f4b>
    2d38:	02b57633          	remu	a2,a0,a1
    2d3c:	00c2ac23          	sw	a2,24(t0)

00002d40 <inst_536>:
    2d40:	55555537          	lui	a0,0x55555
    2d44:	55650513          	add	a0,a0,1366 # 55555556 <_end+0x555509f6>
    2d48:	00600593          	li	a1,6
    2d4c:	02b57633          	remu	a2,a0,a1
    2d50:	00c2ae23          	sw	a2,28(t0)

00002d54 <inst_537>:
    2d54:	55555537          	lui	a0,0x55555
    2d58:	55650513          	add	a0,a0,1366 # 55555556 <_end+0x555509f6>
    2d5c:	333335b7          	lui	a1,0x33333
    2d60:	33458593          	add	a1,a1,820 # 33333334 <_end+0x3332e7d4>
    2d64:	02b57633          	remu	a2,a0,a1
    2d68:	02c2a023          	sw	a2,32(t0)

00002d6c <inst_538>:
    2d6c:	55555537          	lui	a0,0x55555
    2d70:	55650513          	add	a0,a0,1366 # 55555556 <_end+0x555509f6>
    2d74:	666665b7          	lui	a1,0x66666
    2d78:	66758593          	add	a1,a1,1639 # 66666667 <_end+0x66661b07>
    2d7c:	02b57633          	remu	a2,a0,a1
    2d80:	02c2a223          	sw	a2,36(t0)

00002d84 <inst_539>:
    2d84:	55555537          	lui	a0,0x55555
    2d88:	55650513          	add	a0,a0,1366 # 55555556 <_end+0x555509f6>
    2d8c:	0000b5b7          	lui	a1,0xb
    2d90:	50558593          	add	a1,a1,1285 # b505 <_end+0x69a5>
    2d94:	02b57633          	remu	a2,a0,a1
    2d98:	02c2a423          	sw	a2,40(t0)

00002d9c <inst_540>:
    2d9c:	55555537          	lui	a0,0x55555
    2da0:	55650513          	add	a0,a0,1366 # 55555556 <_end+0x555509f6>
    2da4:	00100593          	li	a1,1
    2da8:	02b57633          	remu	a2,a0,a1
    2dac:	02c2a623          	sw	a2,44(t0)

00002db0 <inst_541>:
    2db0:	55555537          	lui	a0,0x55555
    2db4:	55650513          	add	a0,a0,1366 # 55555556 <_end+0x555509f6>
    2db8:	000105b7          	lui	a1,0x10
    2dbc:	02b57633          	remu	a2,a0,a1
    2dc0:	02c2a823          	sw	a2,48(t0)

00002dc4 <inst_542>:
    2dc4:	aaaab537          	lui	a0,0xaaaab
    2dc8:	aab50513          	add	a0,a0,-1365 # aaaaaaab <_end+0xaaaa5f4b>
    2dcc:	00300593          	li	a1,3
    2dd0:	02b57633          	remu	a2,a0,a1
    2dd4:	02c2aa23          	sw	a2,52(t0)

00002dd8 <inst_543>:
    2dd8:	aaaab537          	lui	a0,0xaaaab
    2ddc:	aab50513          	add	a0,a0,-1365 # aaaaaaab <_end+0xaaaa5f4b>
    2de0:	555555b7          	lui	a1,0x55555
    2de4:	55558593          	add	a1,a1,1365 # 55555555 <_end+0x555509f5>
    2de8:	02b57633          	remu	a2,a0,a1
    2dec:	02c2ac23          	sw	a2,56(t0)

00002df0 <inst_544>:
    2df0:	aaaab537          	lui	a0,0xaaaab
    2df4:	aab50513          	add	a0,a0,-1365 # aaaaaaab <_end+0xaaaa5f4b>
    2df8:	aaaab5b7          	lui	a1,0xaaaab
    2dfc:	aaa58593          	add	a1,a1,-1366 # aaaaaaaa <_end+0xaaaa5f4a>
    2e00:	02b57633          	remu	a2,a0,a1
    2e04:	02c2ae23          	sw	a2,60(t0)

00002e08 <inst_545>:
    2e08:	aaaab537          	lui	a0,0xaaaab
    2e0c:	aab50513          	add	a0,a0,-1365 # aaaaaaab <_end+0xaaaa5f4b>
    2e10:	00500593          	li	a1,5
    2e14:	02b57633          	remu	a2,a0,a1
    2e18:	04c2a023          	sw	a2,64(t0)

00002e1c <inst_546>:
    2e1c:	aaaab537          	lui	a0,0xaaaab
    2e20:	aab50513          	add	a0,a0,-1365 # aaaaaaab <_end+0xaaaa5f4b>
    2e24:	333335b7          	lui	a1,0x33333
    2e28:	33358593          	add	a1,a1,819 # 33333333 <_end+0x3332e7d3>
    2e2c:	02b57633          	remu	a2,a0,a1
    2e30:	04c2a223          	sw	a2,68(t0)

00002e34 <inst_547>:
    2e34:	aaaab537          	lui	a0,0xaaaab
    2e38:	aab50513          	add	a0,a0,-1365 # aaaaaaab <_end+0xaaaa5f4b>
    2e3c:	666665b7          	lui	a1,0x66666
    2e40:	66658593          	add	a1,a1,1638 # 66666666 <_end+0x66661b06>
    2e44:	02b57633          	remu	a2,a0,a1
    2e48:	04c2a423          	sw	a2,72(t0)

00002e4c <inst_548>:
    2e4c:	aaaab537          	lui	a0,0xaaaab
    2e50:	aab50513          	add	a0,a0,-1365 # aaaaaaab <_end+0xaaaa5f4b>
    2e54:	0000b5b7          	lui	a1,0xb
    2e58:	50458593          	add	a1,a1,1284 # b504 <_end+0x69a4>
    2e5c:	02b57633          	remu	a2,a0,a1
    2e60:	04c2a623          	sw	a2,76(t0)

00002e64 <inst_549>:
    2e64:	aaaab537          	lui	a0,0xaaaab
    2e68:	aab50513          	add	a0,a0,-1365 # aaaaaaab <_end+0xaaaa5f4b>
    2e6c:	00000593          	li	a1,0
    2e70:	02b57633          	remu	a2,a0,a1
    2e74:	04c2a823          	sw	a2,80(t0)

00002e78 <inst_550>:
    2e78:	aaaab537          	lui	a0,0xaaaab
    2e7c:	aab50513          	add	a0,a0,-1365 # aaaaaaab <_end+0xaaaa5f4b>
    2e80:	000105b7          	lui	a1,0x10
    2e84:	fff58593          	add	a1,a1,-1 # ffff <_end+0xb49f>
    2e88:	02b57633          	remu	a2,a0,a1
    2e8c:	04c2aa23          	sw	a2,84(t0)

00002e90 <inst_551>:
    2e90:	aaaab537          	lui	a0,0xaaaab
    2e94:	aab50513          	add	a0,a0,-1365 # aaaaaaab <_end+0xaaaa5f4b>
    2e98:	00200593          	li	a1,2
    2e9c:	02b57633          	remu	a2,a0,a1
    2ea0:	04c2ac23          	sw	a2,88(t0)

00002ea4 <inst_552>:
    2ea4:	aaaab537          	lui	a0,0xaaaab
    2ea8:	aab50513          	add	a0,a0,-1365 # aaaaaaab <_end+0xaaaa5f4b>
    2eac:	555555b7          	lui	a1,0x55555
    2eb0:	55458593          	add	a1,a1,1364 # 55555554 <_end+0x555509f4>
    2eb4:	02b57633          	remu	a2,a0,a1
    2eb8:	04c2ae23          	sw	a2,92(t0)

00002ebc <inst_553>:
    2ebc:	aaaab537          	lui	a0,0xaaaab
    2ec0:	aab50513          	add	a0,a0,-1365 # aaaaaaab <_end+0xaaaa5f4b>
    2ec4:	aaaab5b7          	lui	a1,0xaaaab
    2ec8:	aa958593          	add	a1,a1,-1367 # aaaaaaa9 <_end+0xaaaa5f49>
    2ecc:	02b57633          	remu	a2,a0,a1
    2ed0:	06c2a023          	sw	a2,96(t0)

00002ed4 <inst_554>:
    2ed4:	aaaab537          	lui	a0,0xaaaab
    2ed8:	aab50513          	add	a0,a0,-1365 # aaaaaaab <_end+0xaaaa5f4b>
    2edc:	00400593          	li	a1,4
    2ee0:	02b57633          	remu	a2,a0,a1
    2ee4:	06c2a223          	sw	a2,100(t0)

00002ee8 <inst_555>:
    2ee8:	aaaab537          	lui	a0,0xaaaab
    2eec:	aab50513          	add	a0,a0,-1365 # aaaaaaab <_end+0xaaaa5f4b>
    2ef0:	333335b7          	lui	a1,0x33333
    2ef4:	33258593          	add	a1,a1,818 # 33333332 <_end+0x3332e7d2>
    2ef8:	02b57633          	remu	a2,a0,a1
    2efc:	06c2a423          	sw	a2,104(t0)

00002f00 <inst_556>:
    2f00:	aaaab537          	lui	a0,0xaaaab
    2f04:	aab50513          	add	a0,a0,-1365 # aaaaaaab <_end+0xaaaa5f4b>
    2f08:	666665b7          	lui	a1,0x66666
    2f0c:	66558593          	add	a1,a1,1637 # 66666665 <_end+0x66661b05>
    2f10:	02b57633          	remu	a2,a0,a1
    2f14:	06c2a623          	sw	a2,108(t0)

00002f18 <inst_557>:
    2f18:	aaaab537          	lui	a0,0xaaaab
    2f1c:	aab50513          	add	a0,a0,-1365 # aaaaaaab <_end+0xaaaa5f4b>
    2f20:	0000b5b7          	lui	a1,0xb
    2f24:	50358593          	add	a1,a1,1283 # b503 <_end+0x69a3>
    2f28:	02b57633          	remu	a2,a0,a1
    2f2c:	06c2a823          	sw	a2,112(t0)

00002f30 <inst_558>:
    2f30:	aaaab537          	lui	a0,0xaaaab
    2f34:	aab50513          	add	a0,a0,-1365 # aaaaaaab <_end+0xaaaa5f4b>
    2f38:	000105b7          	lui	a1,0x10
    2f3c:	ffe58593          	add	a1,a1,-2 # fffe <_end+0xb49e>
    2f40:	02b57633          	remu	a2,a0,a1
    2f44:	06c2aa23          	sw	a2,116(t0)

00002f48 <inst_559>:
    2f48:	aaaab537          	lui	a0,0xaaaab
    2f4c:	aab50513          	add	a0,a0,-1365 # aaaaaaab <_end+0xaaaa5f4b>
    2f50:	555555b7          	lui	a1,0x55555
    2f54:	55658593          	add	a1,a1,1366 # 55555556 <_end+0x555509f6>
    2f58:	02b57633          	remu	a2,a0,a1
    2f5c:	06c2ac23          	sw	a2,120(t0)

00002f60 <inst_560>:
    2f60:	aaaab537          	lui	a0,0xaaaab
    2f64:	aab50513          	add	a0,a0,-1365 # aaaaaaab <_end+0xaaaa5f4b>
    2f68:	aaaab5b7          	lui	a1,0xaaaab
    2f6c:	aab58593          	add	a1,a1,-1365 # aaaaaaab <_end+0xaaaa5f4b>
    2f70:	02b57633          	remu	a2,a0,a1
    2f74:	06c2ae23          	sw	a2,124(t0)

00002f78 <inst_561>:
    2f78:	aaaab537          	lui	a0,0xaaaab
    2f7c:	aab50513          	add	a0,a0,-1365 # aaaaaaab <_end+0xaaaa5f4b>
    2f80:	00600593          	li	a1,6
    2f84:	02b57633          	remu	a2,a0,a1
    2f88:	08c2a023          	sw	a2,128(t0)

00002f8c <inst_562>:
    2f8c:	aaaab537          	lui	a0,0xaaaab
    2f90:	aab50513          	add	a0,a0,-1365 # aaaaaaab <_end+0xaaaa5f4b>
    2f94:	333335b7          	lui	a1,0x33333
    2f98:	33458593          	add	a1,a1,820 # 33333334 <_end+0x3332e7d4>
    2f9c:	02b57633          	remu	a2,a0,a1
    2fa0:	08c2a223          	sw	a2,132(t0)

00002fa4 <inst_563>:
    2fa4:	aaaab537          	lui	a0,0xaaaab
    2fa8:	aab50513          	add	a0,a0,-1365 # aaaaaaab <_end+0xaaaa5f4b>
    2fac:	666665b7          	lui	a1,0x66666
    2fb0:	66758593          	add	a1,a1,1639 # 66666667 <_end+0x66661b07>
    2fb4:	02b57633          	remu	a2,a0,a1
    2fb8:	08c2a423          	sw	a2,136(t0)

00002fbc <inst_564>:
    2fbc:	aaaab537          	lui	a0,0xaaaab
    2fc0:	aab50513          	add	a0,a0,-1365 # aaaaaaab <_end+0xaaaa5f4b>
    2fc4:	0000b5b7          	lui	a1,0xb
    2fc8:	50558593          	add	a1,a1,1285 # b505 <_end+0x69a5>
    2fcc:	02b57633          	remu	a2,a0,a1
    2fd0:	08c2a623          	sw	a2,140(t0)

00002fd4 <inst_565>:
    2fd4:	aaaab537          	lui	a0,0xaaaab
    2fd8:	aab50513          	add	a0,a0,-1365 # aaaaaaab <_end+0xaaaa5f4b>
    2fdc:	00100593          	li	a1,1
    2fe0:	02b57633          	remu	a2,a0,a1
    2fe4:	08c2a823          	sw	a2,144(t0)

00002fe8 <inst_566>:
    2fe8:	aaaab537          	lui	a0,0xaaaab
    2fec:	aab50513          	add	a0,a0,-1365 # aaaaaaab <_end+0xaaaa5f4b>
    2ff0:	000105b7          	lui	a1,0x10
    2ff4:	02b57633          	remu	a2,a0,a1
    2ff8:	08c2aa23          	sw	a2,148(t0)

00002ffc <inst_567>:
    2ffc:	00600513          	li	a0,6
    3000:	00300593          	li	a1,3
    3004:	02b57633          	remu	a2,a0,a1
    3008:	08c2ac23          	sw	a2,152(t0)

0000300c <inst_568>:
    300c:	00600513          	li	a0,6
    3010:	555555b7          	lui	a1,0x55555
    3014:	55558593          	add	a1,a1,1365 # 55555555 <_end+0x555509f5>
    3018:	02b57633          	remu	a2,a0,a1
    301c:	08c2ae23          	sw	a2,156(t0)

00003020 <inst_569>:
    3020:	00600513          	li	a0,6
    3024:	aaaab5b7          	lui	a1,0xaaaab
    3028:	aaa58593          	add	a1,a1,-1366 # aaaaaaaa <_end+0xaaaa5f4a>
    302c:	02b57633          	remu	a2,a0,a1
    3030:	0ac2a023          	sw	a2,160(t0)

00003034 <inst_570>:
    3034:	00600513          	li	a0,6
    3038:	00500593          	li	a1,5
    303c:	02b57633          	remu	a2,a0,a1
    3040:	0ac2a223          	sw	a2,164(t0)

00003044 <inst_571>:
    3044:	00600513          	li	a0,6
    3048:	333335b7          	lui	a1,0x33333
    304c:	33358593          	add	a1,a1,819 # 33333333 <_end+0x3332e7d3>
    3050:	02b57633          	remu	a2,a0,a1
    3054:	0ac2a423          	sw	a2,168(t0)

00003058 <inst_572>:
    3058:	00600513          	li	a0,6
    305c:	666665b7          	lui	a1,0x66666
    3060:	66658593          	add	a1,a1,1638 # 66666666 <_end+0x66661b06>
    3064:	02b57633          	remu	a2,a0,a1
    3068:	0ac2a623          	sw	a2,172(t0)

0000306c <inst_573>:
    306c:	00600513          	li	a0,6
    3070:	0000b5b7          	lui	a1,0xb
    3074:	50458593          	add	a1,a1,1284 # b504 <_end+0x69a4>
    3078:	02b57633          	remu	a2,a0,a1
    307c:	0ac2a823          	sw	a2,176(t0)

00003080 <inst_574>:
    3080:	00600513          	li	a0,6
    3084:	00000593          	li	a1,0
    3088:	02b57633          	remu	a2,a0,a1
    308c:	0ac2aa23          	sw	a2,180(t0)

00003090 <inst_575>:
    3090:	00600513          	li	a0,6
    3094:	000105b7          	lui	a1,0x10
    3098:	fff58593          	add	a1,a1,-1 # ffff <_end+0xb49f>
    309c:	02b57633          	remu	a2,a0,a1
    30a0:	0ac2ac23          	sw	a2,184(t0)

000030a4 <inst_576>:
    30a4:	00600513          	li	a0,6
    30a8:	00200593          	li	a1,2
    30ac:	02b57633          	remu	a2,a0,a1
    30b0:	0ac2ae23          	sw	a2,188(t0)

000030b4 <inst_577>:
    30b4:	00600513          	li	a0,6
    30b8:	555555b7          	lui	a1,0x55555
    30bc:	55458593          	add	a1,a1,1364 # 55555554 <_end+0x555509f4>
    30c0:	02b57633          	remu	a2,a0,a1
    30c4:	0cc2a023          	sw	a2,192(t0)

000030c8 <inst_578>:
    30c8:	00600513          	li	a0,6
    30cc:	aaaab5b7          	lui	a1,0xaaaab
    30d0:	aa958593          	add	a1,a1,-1367 # aaaaaaa9 <_end+0xaaaa5f49>
    30d4:	02b57633          	remu	a2,a0,a1
    30d8:	0cc2a223          	sw	a2,196(t0)

000030dc <inst_579>:
    30dc:	00600513          	li	a0,6
    30e0:	00400593          	li	a1,4
    30e4:	02b57633          	remu	a2,a0,a1
    30e8:	0cc2a423          	sw	a2,200(t0)

000030ec <inst_580>:
    30ec:	00600513          	li	a0,6
    30f0:	333335b7          	lui	a1,0x33333
    30f4:	33258593          	add	a1,a1,818 # 33333332 <_end+0x3332e7d2>
    30f8:	02b57633          	remu	a2,a0,a1
    30fc:	0cc2a623          	sw	a2,204(t0)

00003100 <inst_581>:
    3100:	00600513          	li	a0,6
    3104:	666665b7          	lui	a1,0x66666
    3108:	66558593          	add	a1,a1,1637 # 66666665 <_end+0x66661b05>
    310c:	02b57633          	remu	a2,a0,a1
    3110:	0cc2a823          	sw	a2,208(t0)

00003114 <inst_582>:
    3114:	00600513          	li	a0,6
    3118:	0000b5b7          	lui	a1,0xb
    311c:	50358593          	add	a1,a1,1283 # b503 <_end+0x69a3>
    3120:	02b57633          	remu	a2,a0,a1
    3124:	0cc2aa23          	sw	a2,212(t0)

00003128 <inst_583>:
    3128:	00600513          	li	a0,6
    312c:	000105b7          	lui	a1,0x10
    3130:	ffe58593          	add	a1,a1,-2 # fffe <_end+0xb49e>
    3134:	02b57633          	remu	a2,a0,a1
    3138:	0cc2ac23          	sw	a2,216(t0)

0000313c <inst_584>:
    313c:	00600513          	li	a0,6
    3140:	555555b7          	lui	a1,0x55555
    3144:	55658593          	add	a1,a1,1366 # 55555556 <_end+0x555509f6>
    3148:	02b57633          	remu	a2,a0,a1
    314c:	0cc2ae23          	sw	a2,220(t0)

00003150 <inst_585>:
    3150:	00600513          	li	a0,6
    3154:	aaaab5b7          	lui	a1,0xaaaab
    3158:	aab58593          	add	a1,a1,-1365 # aaaaaaab <_end+0xaaaa5f4b>
    315c:	02b57633          	remu	a2,a0,a1
    3160:	0ec2a023          	sw	a2,224(t0)

00003164 <inst_586>:
    3164:	00600513          	li	a0,6
    3168:	00600593          	li	a1,6
    316c:	02b57633          	remu	a2,a0,a1
    3170:	0ec2a223          	sw	a2,228(t0)

00003174 <inst_587>:
    3174:	00600513          	li	a0,6
    3178:	333335b7          	lui	a1,0x33333
    317c:	33458593          	add	a1,a1,820 # 33333334 <_end+0x3332e7d4>
    3180:	02b57633          	remu	a2,a0,a1
    3184:	0ec2a423          	sw	a2,232(t0)

00003188 <inst_588>:
    3188:	00600513          	li	a0,6
    318c:	666665b7          	lui	a1,0x66666
    3190:	66758593          	add	a1,a1,1639 # 66666667 <_end+0x66661b07>
    3194:	02b57633          	remu	a2,a0,a1
    3198:	0ec2a623          	sw	a2,236(t0)

0000319c <inst_589>:
    319c:	00600513          	li	a0,6
    31a0:	0000b5b7          	lui	a1,0xb
    31a4:	50558593          	add	a1,a1,1285 # b505 <_end+0x69a5>
    31a8:	02b57633          	remu	a2,a0,a1
    31ac:	0ec2a823          	sw	a2,240(t0)

000031b0 <inst_590>:
    31b0:	00600513          	li	a0,6
    31b4:	00100593          	li	a1,1
    31b8:	02b57633          	remu	a2,a0,a1
    31bc:	0ec2aa23          	sw	a2,244(t0)

000031c0 <inst_591>:
    31c0:	00600513          	li	a0,6
    31c4:	000105b7          	lui	a1,0x10
    31c8:	02b57633          	remu	a2,a0,a1
    31cc:	0ec2ac23          	sw	a2,248(t0)

000031d0 <inst_592>:
    31d0:	33333537          	lui	a0,0x33333
    31d4:	33450513          	add	a0,a0,820 # 33333334 <_end+0x3332e7d4>
    31d8:	00300593          	li	a1,3
    31dc:	02b57633          	remu	a2,a0,a1
    31e0:	0ec2ae23          	sw	a2,252(t0)

000031e4 <inst_593>:
    31e4:	33333537          	lui	a0,0x33333
    31e8:	33450513          	add	a0,a0,820 # 33333334 <_end+0x3332e7d4>
    31ec:	555555b7          	lui	a1,0x55555
    31f0:	55558593          	add	a1,a1,1365 # 55555555 <_end+0x555509f5>
    31f4:	02b57633          	remu	a2,a0,a1
    31f8:	10c2a023          	sw	a2,256(t0)

000031fc <inst_594>:
    31fc:	33333537          	lui	a0,0x33333
    3200:	33450513          	add	a0,a0,820 # 33333334 <_end+0x3332e7d4>
    3204:	aaaab5b7          	lui	a1,0xaaaab
    3208:	aaa58593          	add	a1,a1,-1366 # aaaaaaaa <_end+0xaaaa5f4a>
    320c:	02b57633          	remu	a2,a0,a1
    3210:	10c2a223          	sw	a2,260(t0)

00003214 <inst_595>:
    3214:	33333537          	lui	a0,0x33333
    3218:	33450513          	add	a0,a0,820 # 33333334 <_end+0x3332e7d4>
    321c:	00500593          	li	a1,5
    3220:	02b57633          	remu	a2,a0,a1
    3224:	10c2a423          	sw	a2,264(t0)

00003228 <inst_596>:
    3228:	33333537          	lui	a0,0x33333
    322c:	33450513          	add	a0,a0,820 # 33333334 <_end+0x3332e7d4>
    3230:	333335b7          	lui	a1,0x33333
    3234:	33358593          	add	a1,a1,819 # 33333333 <_end+0x3332e7d3>
    3238:	02b57633          	remu	a2,a0,a1
    323c:	10c2a623          	sw	a2,268(t0)

00003240 <inst_597>:
    3240:	33333537          	lui	a0,0x33333
    3244:	33450513          	add	a0,a0,820 # 33333334 <_end+0x3332e7d4>
    3248:	666665b7          	lui	a1,0x66666
    324c:	66658593          	add	a1,a1,1638 # 66666666 <_end+0x66661b06>
    3250:	02b57633          	remu	a2,a0,a1
    3254:	10c2a823          	sw	a2,272(t0)

00003258 <inst_598>:
    3258:	33333537          	lui	a0,0x33333
    325c:	33450513          	add	a0,a0,820 # 33333334 <_end+0x3332e7d4>
    3260:	0000b5b7          	lui	a1,0xb
    3264:	50458593          	add	a1,a1,1284 # b504 <_end+0x69a4>
    3268:	02b57633          	remu	a2,a0,a1
    326c:	10c2aa23          	sw	a2,276(t0)

00003270 <inst_599>:
    3270:	33333537          	lui	a0,0x33333
    3274:	33450513          	add	a0,a0,820 # 33333334 <_end+0x3332e7d4>
    3278:	00000593          	li	a1,0
    327c:	02b57633          	remu	a2,a0,a1
    3280:	10c2ac23          	sw	a2,280(t0)

00003284 <inst_600>:
    3284:	33333537          	lui	a0,0x33333
    3288:	33450513          	add	a0,a0,820 # 33333334 <_end+0x3332e7d4>
    328c:	000105b7          	lui	a1,0x10
    3290:	fff58593          	add	a1,a1,-1 # ffff <_end+0xb49f>
    3294:	02b57633          	remu	a2,a0,a1
    3298:	10c2ae23          	sw	a2,284(t0)

0000329c <inst_601>:
    329c:	33333537          	lui	a0,0x33333
    32a0:	33450513          	add	a0,a0,820 # 33333334 <_end+0x3332e7d4>
    32a4:	00200593          	li	a1,2
    32a8:	02b57633          	remu	a2,a0,a1
    32ac:	12c2a023          	sw	a2,288(t0)

000032b0 <inst_602>:
    32b0:	33333537          	lui	a0,0x33333
    32b4:	33450513          	add	a0,a0,820 # 33333334 <_end+0x3332e7d4>
    32b8:	555555b7          	lui	a1,0x55555
    32bc:	55458593          	add	a1,a1,1364 # 55555554 <_end+0x555509f4>
    32c0:	02b57633          	remu	a2,a0,a1
    32c4:	12c2a223          	sw	a2,292(t0)

000032c8 <inst_603>:
    32c8:	33333537          	lui	a0,0x33333
    32cc:	33450513          	add	a0,a0,820 # 33333334 <_end+0x3332e7d4>
    32d0:	aaaab5b7          	lui	a1,0xaaaab
    32d4:	aa958593          	add	a1,a1,-1367 # aaaaaaa9 <_end+0xaaaa5f49>
    32d8:	02b57633          	remu	a2,a0,a1
    32dc:	12c2a423          	sw	a2,296(t0)

000032e0 <inst_604>:
    32e0:	33333537          	lui	a0,0x33333
    32e4:	33450513          	add	a0,a0,820 # 33333334 <_end+0x3332e7d4>
    32e8:	00400593          	li	a1,4
    32ec:	02b57633          	remu	a2,a0,a1
    32f0:	12c2a623          	sw	a2,300(t0)

000032f4 <inst_605>:
    32f4:	33333537          	lui	a0,0x33333
    32f8:	33450513          	add	a0,a0,820 # 33333334 <_end+0x3332e7d4>
    32fc:	333335b7          	lui	a1,0x33333
    3300:	33258593          	add	a1,a1,818 # 33333332 <_end+0x3332e7d2>
    3304:	02b57633          	remu	a2,a0,a1
    3308:	12c2a823          	sw	a2,304(t0)

0000330c <inst_606>:
    330c:	33333537          	lui	a0,0x33333
    3310:	33450513          	add	a0,a0,820 # 33333334 <_end+0x3332e7d4>
    3314:	666665b7          	lui	a1,0x66666
    3318:	66558593          	add	a1,a1,1637 # 66666665 <_end+0x66661b05>
    331c:	02b57633          	remu	a2,a0,a1
    3320:	12c2aa23          	sw	a2,308(t0)

00003324 <inst_607>:
    3324:	33333537          	lui	a0,0x33333
    3328:	33450513          	add	a0,a0,820 # 33333334 <_end+0x3332e7d4>
    332c:	0000b5b7          	lui	a1,0xb
    3330:	50358593          	add	a1,a1,1283 # b503 <_end+0x69a3>
    3334:	02b57633          	remu	a2,a0,a1
    3338:	12c2ac23          	sw	a2,312(t0)

0000333c <inst_608>:
    333c:	33333537          	lui	a0,0x33333
    3340:	33450513          	add	a0,a0,820 # 33333334 <_end+0x3332e7d4>
    3344:	000105b7          	lui	a1,0x10
    3348:	ffe58593          	add	a1,a1,-2 # fffe <_end+0xb49e>
    334c:	02b57633          	remu	a2,a0,a1
    3350:	12c2ae23          	sw	a2,316(t0)

00003354 <inst_609>:
    3354:	33333537          	lui	a0,0x33333
    3358:	33450513          	add	a0,a0,820 # 33333334 <_end+0x3332e7d4>
    335c:	555555b7          	lui	a1,0x55555
    3360:	55658593          	add	a1,a1,1366 # 55555556 <_end+0x555509f6>
    3364:	02b57633          	remu	a2,a0,a1
    3368:	14c2a023          	sw	a2,320(t0)

0000336c <inst_610>:
    336c:	33333537          	lui	a0,0x33333
    3370:	33450513          	add	a0,a0,820 # 33333334 <_end+0x3332e7d4>
    3374:	aaaab5b7          	lui	a1,0xaaaab
    3378:	aab58593          	add	a1,a1,-1365 # aaaaaaab <_end+0xaaaa5f4b>
    337c:	02b57633          	remu	a2,a0,a1
    3380:	14c2a223          	sw	a2,324(t0)

00003384 <inst_611>:
    3384:	33333537          	lui	a0,0x33333
    3388:	33450513          	add	a0,a0,820 # 33333334 <_end+0x3332e7d4>
    338c:	00600593          	li	a1,6
    3390:	02b57633          	remu	a2,a0,a1
    3394:	14c2a423          	sw	a2,328(t0)

00003398 <inst_612>:
    3398:	33333537          	lui	a0,0x33333
    339c:	33450513          	add	a0,a0,820 # 33333334 <_end+0x3332e7d4>
    33a0:	333335b7          	lui	a1,0x33333
    33a4:	33458593          	add	a1,a1,820 # 33333334 <_end+0x3332e7d4>
    33a8:	02b57633          	remu	a2,a0,a1
    33ac:	14c2a623          	sw	a2,332(t0)

000033b0 <inst_613>:
    33b0:	33333537          	lui	a0,0x33333
    33b4:	33450513          	add	a0,a0,820 # 33333334 <_end+0x3332e7d4>
    33b8:	666665b7          	lui	a1,0x66666
    33bc:	66758593          	add	a1,a1,1639 # 66666667 <_end+0x66661b07>
    33c0:	02b57633          	remu	a2,a0,a1
    33c4:	14c2a823          	sw	a2,336(t0)

000033c8 <inst_614>:
    33c8:	33333537          	lui	a0,0x33333
    33cc:	33450513          	add	a0,a0,820 # 33333334 <_end+0x3332e7d4>
    33d0:	0000b5b7          	lui	a1,0xb
    33d4:	50558593          	add	a1,a1,1285 # b505 <_end+0x69a5>
    33d8:	02b57633          	remu	a2,a0,a1
    33dc:	14c2aa23          	sw	a2,340(t0)

000033e0 <inst_615>:
    33e0:	33333537          	lui	a0,0x33333
    33e4:	33450513          	add	a0,a0,820 # 33333334 <_end+0x3332e7d4>
    33e8:	00100593          	li	a1,1
    33ec:	02b57633          	remu	a2,a0,a1
    33f0:	14c2ac23          	sw	a2,344(t0)

000033f4 <inst_616>:
    33f4:	33333537          	lui	a0,0x33333
    33f8:	33450513          	add	a0,a0,820 # 33333334 <_end+0x3332e7d4>
    33fc:	000105b7          	lui	a1,0x10
    3400:	02b57633          	remu	a2,a0,a1
    3404:	14c2ae23          	sw	a2,348(t0)

00003408 <inst_617>:
    3408:	66666537          	lui	a0,0x66666
    340c:	66750513          	add	a0,a0,1639 # 66666667 <_end+0x66661b07>
    3410:	00300593          	li	a1,3
    3414:	02b57633          	remu	a2,a0,a1
    3418:	16c2a023          	sw	a2,352(t0)

0000341c <inst_618>:
    341c:	66666537          	lui	a0,0x66666
    3420:	66750513          	add	a0,a0,1639 # 66666667 <_end+0x66661b07>
    3424:	555555b7          	lui	a1,0x55555
    3428:	55558593          	add	a1,a1,1365 # 55555555 <_end+0x555509f5>
    342c:	02b57633          	remu	a2,a0,a1
    3430:	16c2a223          	sw	a2,356(t0)

00003434 <inst_619>:
    3434:	66666537          	lui	a0,0x66666
    3438:	66750513          	add	a0,a0,1639 # 66666667 <_end+0x66661b07>
    343c:	aaaab5b7          	lui	a1,0xaaaab
    3440:	aaa58593          	add	a1,a1,-1366 # aaaaaaaa <_end+0xaaaa5f4a>
    3444:	02b57633          	remu	a2,a0,a1
    3448:	16c2a423          	sw	a2,360(t0)

0000344c <inst_620>:
    344c:	66666537          	lui	a0,0x66666
    3450:	66750513          	add	a0,a0,1639 # 66666667 <_end+0x66661b07>
    3454:	00500593          	li	a1,5
    3458:	02b57633          	remu	a2,a0,a1
    345c:	16c2a623          	sw	a2,364(t0)

00003460 <inst_621>:
    3460:	66666537          	lui	a0,0x66666
    3464:	66750513          	add	a0,a0,1639 # 66666667 <_end+0x66661b07>
    3468:	333335b7          	lui	a1,0x33333
    346c:	33358593          	add	a1,a1,819 # 33333333 <_end+0x3332e7d3>
    3470:	02b57633          	remu	a2,a0,a1
    3474:	16c2a823          	sw	a2,368(t0)

00003478 <inst_622>:
    3478:	66666537          	lui	a0,0x66666
    347c:	66750513          	add	a0,a0,1639 # 66666667 <_end+0x66661b07>
    3480:	666665b7          	lui	a1,0x66666
    3484:	66658593          	add	a1,a1,1638 # 66666666 <_end+0x66661b06>
    3488:	02b57633          	remu	a2,a0,a1
    348c:	16c2aa23          	sw	a2,372(t0)

00003490 <inst_623>:
    3490:	66666537          	lui	a0,0x66666
    3494:	66750513          	add	a0,a0,1639 # 66666667 <_end+0x66661b07>
    3498:	0000b5b7          	lui	a1,0xb
    349c:	50458593          	add	a1,a1,1284 # b504 <_end+0x69a4>
    34a0:	02b57633          	remu	a2,a0,a1
    34a4:	16c2ac23          	sw	a2,376(t0)

000034a8 <inst_624>:
    34a8:	66666537          	lui	a0,0x66666
    34ac:	66750513          	add	a0,a0,1639 # 66666667 <_end+0x66661b07>
    34b0:	00000593          	li	a1,0
    34b4:	02b57633          	remu	a2,a0,a1
    34b8:	16c2ae23          	sw	a2,380(t0)

000034bc <inst_625>:
    34bc:	66666537          	lui	a0,0x66666
    34c0:	66750513          	add	a0,a0,1639 # 66666667 <_end+0x66661b07>
    34c4:	000105b7          	lui	a1,0x10
    34c8:	fff58593          	add	a1,a1,-1 # ffff <_end+0xb49f>
    34cc:	02b57633          	remu	a2,a0,a1
    34d0:	18c2a023          	sw	a2,384(t0)

000034d4 <inst_626>:
    34d4:	66666537          	lui	a0,0x66666
    34d8:	66750513          	add	a0,a0,1639 # 66666667 <_end+0x66661b07>
    34dc:	00200593          	li	a1,2
    34e0:	02b57633          	remu	a2,a0,a1
    34e4:	18c2a223          	sw	a2,388(t0)

000034e8 <inst_627>:
    34e8:	66666537          	lui	a0,0x66666
    34ec:	66750513          	add	a0,a0,1639 # 66666667 <_end+0x66661b07>
    34f0:	555555b7          	lui	a1,0x55555
    34f4:	55458593          	add	a1,a1,1364 # 55555554 <_end+0x555509f4>
    34f8:	02b57633          	remu	a2,a0,a1
    34fc:	18c2a423          	sw	a2,392(t0)

00003500 <inst_628>:
    3500:	66666537          	lui	a0,0x66666
    3504:	66750513          	add	a0,a0,1639 # 66666667 <_end+0x66661b07>
    3508:	aaaab5b7          	lui	a1,0xaaaab
    350c:	aa958593          	add	a1,a1,-1367 # aaaaaaa9 <_end+0xaaaa5f49>
    3510:	02b57633          	remu	a2,a0,a1
    3514:	18c2a623          	sw	a2,396(t0)

00003518 <inst_629>:
    3518:	66666537          	lui	a0,0x66666
    351c:	66750513          	add	a0,a0,1639 # 66666667 <_end+0x66661b07>
    3520:	00400593          	li	a1,4
    3524:	02b57633          	remu	a2,a0,a1
    3528:	18c2a823          	sw	a2,400(t0)

0000352c <inst_630>:
    352c:	66666537          	lui	a0,0x66666
    3530:	66750513          	add	a0,a0,1639 # 66666667 <_end+0x66661b07>
    3534:	333335b7          	lui	a1,0x33333
    3538:	33258593          	add	a1,a1,818 # 33333332 <_end+0x3332e7d2>
    353c:	02b57633          	remu	a2,a0,a1
    3540:	18c2aa23          	sw	a2,404(t0)

00003544 <inst_631>:
    3544:	66666537          	lui	a0,0x66666
    3548:	66750513          	add	a0,a0,1639 # 66666667 <_end+0x66661b07>
    354c:	666665b7          	lui	a1,0x66666
    3550:	66558593          	add	a1,a1,1637 # 66666665 <_end+0x66661b05>
    3554:	02b57633          	remu	a2,a0,a1
    3558:	18c2ac23          	sw	a2,408(t0)

0000355c <inst_632>:
    355c:	66666537          	lui	a0,0x66666
    3560:	66750513          	add	a0,a0,1639 # 66666667 <_end+0x66661b07>
    3564:	0000b5b7          	lui	a1,0xb
    3568:	50358593          	add	a1,a1,1283 # b503 <_end+0x69a3>
    356c:	02b57633          	remu	a2,a0,a1
    3570:	18c2ae23          	sw	a2,412(t0)

00003574 <inst_633>:
    3574:	66666537          	lui	a0,0x66666
    3578:	66750513          	add	a0,a0,1639 # 66666667 <_end+0x66661b07>
    357c:	000105b7          	lui	a1,0x10
    3580:	ffe58593          	add	a1,a1,-2 # fffe <_end+0xb49e>
    3584:	02b57633          	remu	a2,a0,a1
    3588:	1ac2a023          	sw	a2,416(t0)

0000358c <inst_634>:
    358c:	66666537          	lui	a0,0x66666
    3590:	66750513          	add	a0,a0,1639 # 66666667 <_end+0x66661b07>
    3594:	555555b7          	lui	a1,0x55555
    3598:	55658593          	add	a1,a1,1366 # 55555556 <_end+0x555509f6>
    359c:	02b57633          	remu	a2,a0,a1
    35a0:	1ac2a223          	sw	a2,420(t0)

000035a4 <inst_635>:
    35a4:	66666537          	lui	a0,0x66666
    35a8:	66750513          	add	a0,a0,1639 # 66666667 <_end+0x66661b07>
    35ac:	aaaab5b7          	lui	a1,0xaaaab
    35b0:	aab58593          	add	a1,a1,-1365 # aaaaaaab <_end+0xaaaa5f4b>
    35b4:	02b57633          	remu	a2,a0,a1
    35b8:	1ac2a423          	sw	a2,424(t0)

000035bc <inst_636>:
    35bc:	66666537          	lui	a0,0x66666
    35c0:	66750513          	add	a0,a0,1639 # 66666667 <_end+0x66661b07>
    35c4:	00600593          	li	a1,6
    35c8:	02b57633          	remu	a2,a0,a1
    35cc:	1ac2a623          	sw	a2,428(t0)

000035d0 <inst_637>:
    35d0:	66666537          	lui	a0,0x66666
    35d4:	66750513          	add	a0,a0,1639 # 66666667 <_end+0x66661b07>
    35d8:	333335b7          	lui	a1,0x33333
    35dc:	33458593          	add	a1,a1,820 # 33333334 <_end+0x3332e7d4>
    35e0:	02b57633          	remu	a2,a0,a1
    35e4:	1ac2a823          	sw	a2,432(t0)

000035e8 <inst_638>:
    35e8:	66666537          	lui	a0,0x66666
    35ec:	66750513          	add	a0,a0,1639 # 66666667 <_end+0x66661b07>
    35f0:	666665b7          	lui	a1,0x66666
    35f4:	66758593          	add	a1,a1,1639 # 66666667 <_end+0x66661b07>
    35f8:	02b57633          	remu	a2,a0,a1
    35fc:	1ac2aa23          	sw	a2,436(t0)

00003600 <inst_639>:
    3600:	66666537          	lui	a0,0x66666
    3604:	66750513          	add	a0,a0,1639 # 66666667 <_end+0x66661b07>
    3608:	0000b5b7          	lui	a1,0xb
    360c:	50558593          	add	a1,a1,1285 # b505 <_end+0x69a5>
    3610:	02b57633          	remu	a2,a0,a1
    3614:	1ac2ac23          	sw	a2,440(t0)

00003618 <inst_640>:
    3618:	66666537          	lui	a0,0x66666
    361c:	66750513          	add	a0,a0,1639 # 66666667 <_end+0x66661b07>
    3620:	00100593          	li	a1,1
    3624:	02b57633          	remu	a2,a0,a1
    3628:	1ac2ae23          	sw	a2,444(t0)

0000362c <inst_641>:
    362c:	66666537          	lui	a0,0x66666
    3630:	66750513          	add	a0,a0,1639 # 66666667 <_end+0x66661b07>
    3634:	000105b7          	lui	a1,0x10
    3638:	02b57633          	remu	a2,a0,a1
    363c:	1cc2a023          	sw	a2,448(t0)

00003640 <inst_642>:
    3640:	0000b537          	lui	a0,0xb
    3644:	50550513          	add	a0,a0,1285 # b505 <_end+0x69a5>
    3648:	00300593          	li	a1,3
    364c:	02b57633          	remu	a2,a0,a1
    3650:	1cc2a223          	sw	a2,452(t0)

00003654 <inst_643>:
    3654:	0000b537          	lui	a0,0xb
    3658:	50550513          	add	a0,a0,1285 # b505 <_end+0x69a5>
    365c:	555555b7          	lui	a1,0x55555
    3660:	55558593          	add	a1,a1,1365 # 55555555 <_end+0x555509f5>
    3664:	02b57633          	remu	a2,a0,a1
    3668:	1cc2a423          	sw	a2,456(t0)

0000366c <inst_644>:
    366c:	0000b537          	lui	a0,0xb
    3670:	50550513          	add	a0,a0,1285 # b505 <_end+0x69a5>
    3674:	aaaab5b7          	lui	a1,0xaaaab
    3678:	aaa58593          	add	a1,a1,-1366 # aaaaaaaa <_end+0xaaaa5f4a>
    367c:	02b57633          	remu	a2,a0,a1
    3680:	1cc2a623          	sw	a2,460(t0)

00003684 <inst_645>:
    3684:	0000b537          	lui	a0,0xb
    3688:	50550513          	add	a0,a0,1285 # b505 <_end+0x69a5>
    368c:	00500593          	li	a1,5
    3690:	02b57633          	remu	a2,a0,a1
    3694:	1cc2a823          	sw	a2,464(t0)

00003698 <inst_646>:
    3698:	0000b537          	lui	a0,0xb
    369c:	50550513          	add	a0,a0,1285 # b505 <_end+0x69a5>
    36a0:	333335b7          	lui	a1,0x33333
    36a4:	33358593          	add	a1,a1,819 # 33333333 <_end+0x3332e7d3>
    36a8:	02b57633          	remu	a2,a0,a1
    36ac:	1cc2aa23          	sw	a2,468(t0)

000036b0 <inst_647>:
    36b0:	0000b537          	lui	a0,0xb
    36b4:	50550513          	add	a0,a0,1285 # b505 <_end+0x69a5>
    36b8:	666665b7          	lui	a1,0x66666
    36bc:	66658593          	add	a1,a1,1638 # 66666666 <_end+0x66661b06>
    36c0:	02b57633          	remu	a2,a0,a1
    36c4:	1cc2ac23          	sw	a2,472(t0)

000036c8 <inst_648>:
    36c8:	0000b537          	lui	a0,0xb
    36cc:	50550513          	add	a0,a0,1285 # b505 <_end+0x69a5>
    36d0:	0000b5b7          	lui	a1,0xb
    36d4:	50458593          	add	a1,a1,1284 # b504 <_end+0x69a4>
    36d8:	02b57633          	remu	a2,a0,a1
    36dc:	1cc2ae23          	sw	a2,476(t0)

000036e0 <inst_649>:
    36e0:	0000b537          	lui	a0,0xb
    36e4:	50550513          	add	a0,a0,1285 # b505 <_end+0x69a5>
    36e8:	00000593          	li	a1,0
    36ec:	02b57633          	remu	a2,a0,a1
    36f0:	1ec2a023          	sw	a2,480(t0)

000036f4 <inst_650>:
    36f4:	0000b537          	lui	a0,0xb
    36f8:	50550513          	add	a0,a0,1285 # b505 <_end+0x69a5>
    36fc:	000105b7          	lui	a1,0x10
    3700:	fff58593          	add	a1,a1,-1 # ffff <_end+0xb49f>
    3704:	02b57633          	remu	a2,a0,a1
    3708:	1ec2a223          	sw	a2,484(t0)

0000370c <inst_651>:
    370c:	0000b537          	lui	a0,0xb
    3710:	50550513          	add	a0,a0,1285 # b505 <_end+0x69a5>
    3714:	00200593          	li	a1,2
    3718:	02b57633          	remu	a2,a0,a1
    371c:	1ec2a423          	sw	a2,488(t0)

00003720 <inst_652>:
    3720:	0000b537          	lui	a0,0xb
    3724:	50550513          	add	a0,a0,1285 # b505 <_end+0x69a5>
    3728:	555555b7          	lui	a1,0x55555
    372c:	55458593          	add	a1,a1,1364 # 55555554 <_end+0x555509f4>
    3730:	02b57633          	remu	a2,a0,a1
    3734:	1ec2a623          	sw	a2,492(t0)

00003738 <inst_653>:
    3738:	0000b537          	lui	a0,0xb
    373c:	50550513          	add	a0,a0,1285 # b505 <_end+0x69a5>
    3740:	aaaab5b7          	lui	a1,0xaaaab
    3744:	aa958593          	add	a1,a1,-1367 # aaaaaaa9 <_end+0xaaaa5f49>
    3748:	02b57633          	remu	a2,a0,a1
    374c:	1ec2a823          	sw	a2,496(t0)

00003750 <inst_654>:
    3750:	0000b537          	lui	a0,0xb
    3754:	50550513          	add	a0,a0,1285 # b505 <_end+0x69a5>
    3758:	00400593          	li	a1,4
    375c:	02b57633          	remu	a2,a0,a1
    3760:	1ec2aa23          	sw	a2,500(t0)

00003764 <inst_655>:
    3764:	0000b537          	lui	a0,0xb
    3768:	50550513          	add	a0,a0,1285 # b505 <_end+0x69a5>
    376c:	333335b7          	lui	a1,0x33333
    3770:	33258593          	add	a1,a1,818 # 33333332 <_end+0x3332e7d2>
    3774:	02b57633          	remu	a2,a0,a1
    3778:	1ec2ac23          	sw	a2,504(t0)

0000377c <inst_656>:
    377c:	0000b537          	lui	a0,0xb
    3780:	50550513          	add	a0,a0,1285 # b505 <_end+0x69a5>
    3784:	666665b7          	lui	a1,0x66666
    3788:	66558593          	add	a1,a1,1637 # 66666665 <_end+0x66661b05>
    378c:	02b57633          	remu	a2,a0,a1
    3790:	1ec2ae23          	sw	a2,508(t0)

00003794 <inst_657>:
    3794:	0000b537          	lui	a0,0xb
    3798:	50550513          	add	a0,a0,1285 # b505 <_end+0x69a5>
    379c:	0000b5b7          	lui	a1,0xb
    37a0:	50358593          	add	a1,a1,1283 # b503 <_end+0x69a3>
    37a4:	02b57633          	remu	a2,a0,a1
    37a8:	20c2a023          	sw	a2,512(t0)

000037ac <inst_658>:
    37ac:	0000b537          	lui	a0,0xb
    37b0:	50550513          	add	a0,a0,1285 # b505 <_end+0x69a5>
    37b4:	000105b7          	lui	a1,0x10
    37b8:	ffe58593          	add	a1,a1,-2 # fffe <_end+0xb49e>
    37bc:	02b57633          	remu	a2,a0,a1
    37c0:	20c2a223          	sw	a2,516(t0)

000037c4 <inst_659>:
    37c4:	0000b537          	lui	a0,0xb
    37c8:	50550513          	add	a0,a0,1285 # b505 <_end+0x69a5>
    37cc:	555555b7          	lui	a1,0x55555
    37d0:	55658593          	add	a1,a1,1366 # 55555556 <_end+0x555509f6>
    37d4:	02b57633          	remu	a2,a0,a1
    37d8:	20c2a423          	sw	a2,520(t0)

000037dc <inst_660>:
    37dc:	0000b537          	lui	a0,0xb
    37e0:	50550513          	add	a0,a0,1285 # b505 <_end+0x69a5>
    37e4:	aaaab5b7          	lui	a1,0xaaaab
    37e8:	aab58593          	add	a1,a1,-1365 # aaaaaaab <_end+0xaaaa5f4b>
    37ec:	02b57633          	remu	a2,a0,a1
    37f0:	20c2a623          	sw	a2,524(t0)

000037f4 <inst_661>:
    37f4:	0000b537          	lui	a0,0xb
    37f8:	50550513          	add	a0,a0,1285 # b505 <_end+0x69a5>
    37fc:	00600593          	li	a1,6
    3800:	02b57633          	remu	a2,a0,a1
    3804:	20c2a823          	sw	a2,528(t0)

00003808 <inst_662>:
    3808:	0000b537          	lui	a0,0xb
    380c:	50550513          	add	a0,a0,1285 # b505 <_end+0x69a5>
    3810:	333335b7          	lui	a1,0x33333
    3814:	33458593          	add	a1,a1,820 # 33333334 <_end+0x3332e7d4>
    3818:	02b57633          	remu	a2,a0,a1
    381c:	20c2aa23          	sw	a2,532(t0)

00003820 <inst_663>:
    3820:	0000b537          	lui	a0,0xb
    3824:	50550513          	add	a0,a0,1285 # b505 <_end+0x69a5>
    3828:	666665b7          	lui	a1,0x66666
    382c:	66758593          	add	a1,a1,1639 # 66666667 <_end+0x66661b07>
    3830:	02b57633          	remu	a2,a0,a1
    3834:	20c2ac23          	sw	a2,536(t0)

00003838 <inst_664>:
    3838:	0000b537          	lui	a0,0xb
    383c:	50550513          	add	a0,a0,1285 # b505 <_end+0x69a5>
    3840:	0000b5b7          	lui	a1,0xb
    3844:	50558593          	add	a1,a1,1285 # b505 <_end+0x69a5>
    3848:	02b57633          	remu	a2,a0,a1
    384c:	20c2ae23          	sw	a2,540(t0)

00003850 <inst_665>:
    3850:	0000b537          	lui	a0,0xb
    3854:	50550513          	add	a0,a0,1285 # b505 <_end+0x69a5>
    3858:	00100593          	li	a1,1
    385c:	02b57633          	remu	a2,a0,a1
    3860:	22c2a023          	sw	a2,544(t0)

00003864 <inst_666>:
    3864:	0000b537          	lui	a0,0xb
    3868:	50550513          	add	a0,a0,1285 # b505 <_end+0x69a5>
    386c:	000105b7          	lui	a1,0x10
    3870:	02b57633          	remu	a2,a0,a1
    3874:	22c2a223          	sw	a2,548(t0)

00003878 <inst_667>:
    3878:	00100513          	li	a0,1
    387c:	00300593          	li	a1,3
    3880:	02b57633          	remu	a2,a0,a1
    3884:	22c2a423          	sw	a2,552(t0)

00003888 <inst_668>:
    3888:	00100513          	li	a0,1
    388c:	555555b7          	lui	a1,0x55555
    3890:	55558593          	add	a1,a1,1365 # 55555555 <_end+0x555509f5>
    3894:	02b57633          	remu	a2,a0,a1
    3898:	22c2a623          	sw	a2,556(t0)

0000389c <inst_669>:
    389c:	00100513          	li	a0,1
    38a0:	aaaab5b7          	lui	a1,0xaaaab
    38a4:	aaa58593          	add	a1,a1,-1366 # aaaaaaaa <_end+0xaaaa5f4a>
    38a8:	02b57633          	remu	a2,a0,a1
    38ac:	22c2a823          	sw	a2,560(t0)

000038b0 <inst_670>:
    38b0:	00100513          	li	a0,1
    38b4:	00500593          	li	a1,5
    38b8:	02b57633          	remu	a2,a0,a1
    38bc:	22c2aa23          	sw	a2,564(t0)

000038c0 <inst_671>:
    38c0:	00100513          	li	a0,1
    38c4:	333335b7          	lui	a1,0x33333
    38c8:	33358593          	add	a1,a1,819 # 33333333 <_end+0x3332e7d3>
    38cc:	02b57633          	remu	a2,a0,a1
    38d0:	22c2ac23          	sw	a2,568(t0)

000038d4 <inst_672>:
    38d4:	00100513          	li	a0,1
    38d8:	666665b7          	lui	a1,0x66666
    38dc:	66658593          	add	a1,a1,1638 # 66666666 <_end+0x66661b06>
    38e0:	02b57633          	remu	a2,a0,a1
    38e4:	22c2ae23          	sw	a2,572(t0)

000038e8 <inst_673>:
    38e8:	00100513          	li	a0,1
    38ec:	0000b5b7          	lui	a1,0xb
    38f0:	50458593          	add	a1,a1,1284 # b504 <_end+0x69a4>
    38f4:	02b57633          	remu	a2,a0,a1
    38f8:	24c2a023          	sw	a2,576(t0)

000038fc <inst_674>:
    38fc:	00100513          	li	a0,1
    3900:	00000593          	li	a1,0
    3904:	02b57633          	remu	a2,a0,a1
    3908:	24c2a223          	sw	a2,580(t0)

0000390c <inst_675>:
    390c:	00100513          	li	a0,1
    3910:	000105b7          	lui	a1,0x10
    3914:	fff58593          	add	a1,a1,-1 # ffff <_end+0xb49f>
    3918:	02b57633          	remu	a2,a0,a1
    391c:	24c2a423          	sw	a2,584(t0)

00003920 <inst_676>:
    3920:	00100513          	li	a0,1
    3924:	00200593          	li	a1,2
    3928:	02b57633          	remu	a2,a0,a1
    392c:	24c2a623          	sw	a2,588(t0)

00003930 <inst_677>:
    3930:	00100513          	li	a0,1
    3934:	555555b7          	lui	a1,0x55555
    3938:	55458593          	add	a1,a1,1364 # 55555554 <_end+0x555509f4>
    393c:	02b57633          	remu	a2,a0,a1
    3940:	24c2a823          	sw	a2,592(t0)

00003944 <inst_678>:
    3944:	00100513          	li	a0,1
    3948:	aaaab5b7          	lui	a1,0xaaaab
    394c:	aa958593          	add	a1,a1,-1367 # aaaaaaa9 <_end+0xaaaa5f49>
    3950:	02b57633          	remu	a2,a0,a1
    3954:	24c2aa23          	sw	a2,596(t0)

00003958 <inst_679>:
    3958:	00100513          	li	a0,1
    395c:	00400593          	li	a1,4
    3960:	02b57633          	remu	a2,a0,a1
    3964:	24c2ac23          	sw	a2,600(t0)

00003968 <inst_680>:
    3968:	00100513          	li	a0,1
    396c:	333335b7          	lui	a1,0x33333
    3970:	33258593          	add	a1,a1,818 # 33333332 <_end+0x3332e7d2>
    3974:	02b57633          	remu	a2,a0,a1
    3978:	24c2ae23          	sw	a2,604(t0)

0000397c <inst_681>:
    397c:	00100513          	li	a0,1
    3980:	666665b7          	lui	a1,0x66666
    3984:	66558593          	add	a1,a1,1637 # 66666665 <_end+0x66661b05>
    3988:	02b57633          	remu	a2,a0,a1
    398c:	26c2a023          	sw	a2,608(t0)

00003990 <inst_682>:
    3990:	00100513          	li	a0,1
    3994:	0000b5b7          	lui	a1,0xb
    3998:	50358593          	add	a1,a1,1283 # b503 <_end+0x69a3>
    399c:	02b57633          	remu	a2,a0,a1
    39a0:	26c2a223          	sw	a2,612(t0)

000039a4 <inst_683>:
    39a4:	00100513          	li	a0,1
    39a8:	000105b7          	lui	a1,0x10
    39ac:	ffe58593          	add	a1,a1,-2 # fffe <_end+0xb49e>
    39b0:	02b57633          	remu	a2,a0,a1
    39b4:	26c2a423          	sw	a2,616(t0)

000039b8 <inst_684>:
    39b8:	00100513          	li	a0,1
    39bc:	555555b7          	lui	a1,0x55555
    39c0:	55658593          	add	a1,a1,1366 # 55555556 <_end+0x555509f6>
    39c4:	02b57633          	remu	a2,a0,a1
    39c8:	26c2a623          	sw	a2,620(t0)

000039cc <inst_685>:
    39cc:	00100513          	li	a0,1
    39d0:	aaaab5b7          	lui	a1,0xaaaab
    39d4:	aab58593          	add	a1,a1,-1365 # aaaaaaab <_end+0xaaaa5f4b>
    39d8:	02b57633          	remu	a2,a0,a1
    39dc:	26c2a823          	sw	a2,624(t0)

000039e0 <inst_686>:
    39e0:	00100513          	li	a0,1
    39e4:	00600593          	li	a1,6
    39e8:	02b57633          	remu	a2,a0,a1
    39ec:	26c2aa23          	sw	a2,628(t0)

000039f0 <inst_687>:
    39f0:	00100513          	li	a0,1
    39f4:	333335b7          	lui	a1,0x33333
    39f8:	33458593          	add	a1,a1,820 # 33333334 <_end+0x3332e7d4>
    39fc:	02b57633          	remu	a2,a0,a1
    3a00:	26c2ac23          	sw	a2,632(t0)

00003a04 <inst_688>:
    3a04:	00100513          	li	a0,1
    3a08:	666665b7          	lui	a1,0x66666
    3a0c:	66758593          	add	a1,a1,1639 # 66666667 <_end+0x66661b07>
    3a10:	02b57633          	remu	a2,a0,a1
    3a14:	26c2ae23          	sw	a2,636(t0)

00003a18 <inst_689>:
    3a18:	00100513          	li	a0,1
    3a1c:	0000b5b7          	lui	a1,0xb
    3a20:	50558593          	add	a1,a1,1285 # b505 <_end+0x69a5>
    3a24:	02b57633          	remu	a2,a0,a1
    3a28:	28c2a023          	sw	a2,640(t0)

00003a2c <inst_690>:
    3a2c:	00100513          	li	a0,1
    3a30:	00100593          	li	a1,1
    3a34:	02b57633          	remu	a2,a0,a1
    3a38:	28c2a223          	sw	a2,644(t0)

00003a3c <inst_691>:
    3a3c:	00100513          	li	a0,1
    3a40:	000105b7          	lui	a1,0x10
    3a44:	02b57633          	remu	a2,a0,a1
    3a48:	28c2a423          	sw	a2,648(t0)

00003a4c <inst_692>:
    3a4c:	00010537          	lui	a0,0x10
    3a50:	00300593          	li	a1,3
    3a54:	02b57633          	remu	a2,a0,a1
    3a58:	28c2a623          	sw	a2,652(t0)

00003a5c <inst_693>:
    3a5c:	00010537          	lui	a0,0x10
    3a60:	555555b7          	lui	a1,0x55555
    3a64:	55558593          	add	a1,a1,1365 # 55555555 <_end+0x555509f5>
    3a68:	02b57633          	remu	a2,a0,a1
    3a6c:	28c2a823          	sw	a2,656(t0)

00003a70 <inst_694>:
    3a70:	00010537          	lui	a0,0x10
    3a74:	aaaab5b7          	lui	a1,0xaaaab
    3a78:	aaa58593          	add	a1,a1,-1366 # aaaaaaaa <_end+0xaaaa5f4a>
    3a7c:	02b57633          	remu	a2,a0,a1
    3a80:	28c2aa23          	sw	a2,660(t0)

00003a84 <inst_695>:
    3a84:	00010537          	lui	a0,0x10
    3a88:	00500593          	li	a1,5
    3a8c:	02b57633          	remu	a2,a0,a1
    3a90:	28c2ac23          	sw	a2,664(t0)

00003a94 <inst_696>:
    3a94:	00010537          	lui	a0,0x10
    3a98:	333335b7          	lui	a1,0x33333
    3a9c:	33358593          	add	a1,a1,819 # 33333333 <_end+0x3332e7d3>
    3aa0:	02b57633          	remu	a2,a0,a1
    3aa4:	28c2ae23          	sw	a2,668(t0)

00003aa8 <inst_697>:
    3aa8:	00010537          	lui	a0,0x10
    3aac:	666665b7          	lui	a1,0x66666
    3ab0:	66658593          	add	a1,a1,1638 # 66666666 <_end+0x66661b06>
    3ab4:	02b57633          	remu	a2,a0,a1
    3ab8:	2ac2a023          	sw	a2,672(t0)

00003abc <inst_698>:
    3abc:	00010537          	lui	a0,0x10
    3ac0:	0000b5b7          	lui	a1,0xb
    3ac4:	50458593          	add	a1,a1,1284 # b504 <_end+0x69a4>
    3ac8:	02b57633          	remu	a2,a0,a1
    3acc:	2ac2a223          	sw	a2,676(t0)

00003ad0 <inst_699>:
    3ad0:	00010537          	lui	a0,0x10
    3ad4:	00000593          	li	a1,0
    3ad8:	02b57633          	remu	a2,a0,a1
    3adc:	2ac2a423          	sw	a2,680(t0)

00003ae0 <inst_700>:
    3ae0:	00010537          	lui	a0,0x10
    3ae4:	000105b7          	lui	a1,0x10
    3ae8:	fff58593          	add	a1,a1,-1 # ffff <_end+0xb49f>
    3aec:	02b57633          	remu	a2,a0,a1
    3af0:	2ac2a623          	sw	a2,684(t0)

00003af4 <inst_701>:
    3af4:	00010537          	lui	a0,0x10
    3af8:	00200593          	li	a1,2
    3afc:	02b57633          	remu	a2,a0,a1
    3b00:	2ac2a823          	sw	a2,688(t0)

00003b04 <inst_702>:
    3b04:	00010537          	lui	a0,0x10
    3b08:	555555b7          	lui	a1,0x55555
    3b0c:	55458593          	add	a1,a1,1364 # 55555554 <_end+0x555509f4>
    3b10:	02b57633          	remu	a2,a0,a1
    3b14:	2ac2aa23          	sw	a2,692(t0)

00003b18 <inst_703>:
    3b18:	00010537          	lui	a0,0x10
    3b1c:	aaaab5b7          	lui	a1,0xaaaab
    3b20:	aa958593          	add	a1,a1,-1367 # aaaaaaa9 <_end+0xaaaa5f49>
    3b24:	02b57633          	remu	a2,a0,a1
    3b28:	2ac2ac23          	sw	a2,696(t0)

00003b2c <inst_704>:
    3b2c:	00010537          	lui	a0,0x10
    3b30:	00400593          	li	a1,4
    3b34:	02b57633          	remu	a2,a0,a1
    3b38:	2ac2ae23          	sw	a2,700(t0)

00003b3c <inst_705>:
    3b3c:	00010537          	lui	a0,0x10
    3b40:	333335b7          	lui	a1,0x33333
    3b44:	33258593          	add	a1,a1,818 # 33333332 <_end+0x3332e7d2>
    3b48:	02b57633          	remu	a2,a0,a1
    3b4c:	2cc2a023          	sw	a2,704(t0)

00003b50 <inst_706>:
    3b50:	00010537          	lui	a0,0x10
    3b54:	666665b7          	lui	a1,0x66666
    3b58:	66558593          	add	a1,a1,1637 # 66666665 <_end+0x66661b05>
    3b5c:	02b57633          	remu	a2,a0,a1
    3b60:	2cc2a223          	sw	a2,708(t0)

00003b64 <inst_707>:
    3b64:	00010537          	lui	a0,0x10
    3b68:	0000b5b7          	lui	a1,0xb
    3b6c:	50358593          	add	a1,a1,1283 # b503 <_end+0x69a3>
    3b70:	02b57633          	remu	a2,a0,a1
    3b74:	2cc2a423          	sw	a2,712(t0)

00003b78 <inst_708>:
    3b78:	00010537          	lui	a0,0x10
    3b7c:	000105b7          	lui	a1,0x10
    3b80:	ffe58593          	add	a1,a1,-2 # fffe <_end+0xb49e>
    3b84:	02b57633          	remu	a2,a0,a1
    3b88:	2cc2a623          	sw	a2,716(t0)

00003b8c <inst_709>:
    3b8c:	00010537          	lui	a0,0x10
    3b90:	555555b7          	lui	a1,0x55555
    3b94:	55658593          	add	a1,a1,1366 # 55555556 <_end+0x555509f6>
    3b98:	02b57633          	remu	a2,a0,a1
    3b9c:	2cc2a823          	sw	a2,720(t0)

00003ba0 <inst_710>:
    3ba0:	00010537          	lui	a0,0x10
    3ba4:	aaaab5b7          	lui	a1,0xaaaab
    3ba8:	aab58593          	add	a1,a1,-1365 # aaaaaaab <_end+0xaaaa5f4b>
    3bac:	02b57633          	remu	a2,a0,a1
    3bb0:	2cc2aa23          	sw	a2,724(t0)

00003bb4 <inst_711>:
    3bb4:	00010537          	lui	a0,0x10
    3bb8:	00600593          	li	a1,6
    3bbc:	02b57633          	remu	a2,a0,a1
    3bc0:	2cc2ac23          	sw	a2,728(t0)

00003bc4 <inst_712>:
    3bc4:	00010537          	lui	a0,0x10
    3bc8:	666665b7          	lui	a1,0x66666
    3bcc:	66758593          	add	a1,a1,1639 # 66666667 <_end+0x66661b07>
    3bd0:	02b57633          	remu	a2,a0,a1
    3bd4:	2cc2ae23          	sw	a2,732(t0)

00003bd8 <inst_713>:
    3bd8:	00010537          	lui	a0,0x10
    3bdc:	0000b5b7          	lui	a1,0xb
    3be0:	50558593          	add	a1,a1,1285 # b505 <_end+0x69a5>
    3be4:	02b57633          	remu	a2,a0,a1
    3be8:	2ec2a023          	sw	a2,736(t0)

00003bec <inst_714>:
    3bec:	00010537          	lui	a0,0x10
    3bf0:	00100593          	li	a1,1
    3bf4:	02b57633          	remu	a2,a0,a1
    3bf8:	2ec2a223          	sw	a2,740(t0)

00003bfc <inst_715>:
    3bfc:	00010537          	lui	a0,0x10
    3c00:	000105b7          	lui	a1,0x10
    3c04:	02b57633          	remu	a2,a0,a1
    3c08:	2ec2a423          	sw	a2,744(t0)

00003c0c <inst_716>:
    3c0c:	66666537          	lui	a0,0x66666
    3c10:	66550513          	add	a0,a0,1637 # 66666665 <_end+0x66661b05>
    3c14:	00600593          	li	a1,6
    3c18:	02b57633          	remu	a2,a0,a1
    3c1c:	2ec2a623          	sw	a2,748(t0)

00003c20 <inst_717>:
    3c20:	66666537          	lui	a0,0x66666
    3c24:	66550513          	add	a0,a0,1637 # 66666665 <_end+0x66661b05>
    3c28:	333335b7          	lui	a1,0x33333
    3c2c:	33458593          	add	a1,a1,820 # 33333334 <_end+0x3332e7d4>
    3c30:	02b57633          	remu	a2,a0,a1
    3c34:	2ec2a823          	sw	a2,752(t0)

00003c38 <inst_718>:
    3c38:	66666537          	lui	a0,0x66666
    3c3c:	66550513          	add	a0,a0,1637 # 66666665 <_end+0x66661b05>
    3c40:	666665b7          	lui	a1,0x66666
    3c44:	66758593          	add	a1,a1,1639 # 66666667 <_end+0x66661b07>
    3c48:	02b57633          	remu	a2,a0,a1
    3c4c:	2ec2aa23          	sw	a2,756(t0)

00003c50 <inst_719>:
    3c50:	66666537          	lui	a0,0x66666
    3c54:	66550513          	add	a0,a0,1637 # 66666665 <_end+0x66661b05>
    3c58:	0000b5b7          	lui	a1,0xb
    3c5c:	50558593          	add	a1,a1,1285 # b505 <_end+0x69a5>
    3c60:	02b57633          	remu	a2,a0,a1
    3c64:	2ec2ac23          	sw	a2,760(t0)

00003c68 <inst_720>:
    3c68:	00800537          	lui	a0,0x800
    3c6c:	008005b7          	lui	a1,0x800
    3c70:	02b57633          	remu	a2,a0,a1
    3c74:	2ec2ae23          	sw	a2,764(t0)

00003c78 <inst_721>:
    3c78:	aaaab537          	lui	a0,0xaaaab
    3c7c:	aaa50513          	add	a0,a0,-1366 # aaaaaaaa <_end+0xaaaa5f4a>
    3c80:	00100593          	li	a1,1
    3c84:	02b57633          	remu	a2,a0,a1
    3c88:	30c2a023          	sw	a2,768(t0)

00003c8c <inst_722>:
    3c8c:	00100513          	li	a0,1
    3c90:	ffff85b7          	lui	a1,0xffff8
    3c94:	fff58593          	add	a1,a1,-1 # ffff7fff <_end+0xffff349f>
    3c98:	02b57633          	remu	a2,a0,a1
    3c9c:	30c2a223          	sw	a2,772(t0)

00003ca0 <inst_723>:
    3ca0:	ffff0537          	lui	a0,0xffff0
    3ca4:	fff50513          	add	a0,a0,-1 # fffeffff <_end+0xfffeb49f>
    3ca8:	000015b7          	lui	a1,0x1
    3cac:	02b57633          	remu	a2,a0,a1
    3cb0:	30c2a423          	sw	a2,776(t0)
    3cb4:	00000013          	nop
    3cb8:	00000013          	nop
    3cbc:	00000013          	nop

00003cc0 <rvtest_code_end>:
    3cc0:	00000517          	auipc	a0,0x0
    3cc4:	35050513          	add	a0,a0,848 # 4010 <data_begin>
    3cc8:	00001597          	auipc	a1,0x1
    3ccc:	e9858593          	add	a1,a1,-360 # 4b60 <_end>
    3cd0:	80001637          	lui	a2,0x80001
    3cd4:	0621                	add	a2,a2,8 # 80001008 <_end+0x7fffc4a8>

00003cd6 <compliance_halt_loop>:
    3cd6:	04b50763          	beq	a0,a1,3d24 <compliance_halt_break>
    3cda:	00450693          	add	a3,a0,4

00003cde <compliance_halt_loop2>:
    3cde:	16fd                	add	a3,a3,-1 # 1fffff <_end+0x1fb49f>
    3ce0:	00068703          	lb	a4,0(a3)
    3ce4:	40475793          	sra	a5,a4,0x4
    3ce8:	8bbd                	and	a5,a5,15
    3cea:	4829                	li	a6,10
    3cec:	0107c463          	blt	a5,a6,3cf4 <notLetter>
    3cf0:	02778793          	add	a5,a5,39 # 1027 <inst_194+0x13>

00003cf4 <notLetter>:
    3cf4:	03078793          	add	a5,a5,48
    3cf8:	00f60023          	sb	a5,0(a2)
    3cfc:	40075793          	sra	a5,a4,0x0
    3d00:	8bbd                	and	a5,a5,15
    3d02:	4829                	li	a6,10
    3d04:	0107c463          	blt	a5,a6,3d0c <notLetter2>
    3d08:	02778793          	add	a5,a5,39

00003d0c <notLetter2>:
    3d0c:	03078793          	add	a5,a5,48
    3d10:	00f60023          	sb	a5,0(a2)
    3d14:	fcd515e3          	bne	a0,a3,3cde <compliance_halt_loop2>
    3d18:	0511                	add	a0,a0,4
    3d1a:	4729                	li	a4,10
    3d1c:	00e60023          	sb	a4,0(a2)
    3d20:	bf5d                	j	3cd6 <compliance_halt_loop>
    3d22:	a009                	j	3d24 <compliance_halt_break>

00003d24 <compliance_halt_break>:
    3d24:	80001537          	lui	a0,0x80001
    3d28:	0525                	add	a0,a0,9 # 80001009 <_end+0x7fffc4a9>
    3d2a:	00d50023          	sb	a3,0(a0)
	...

Desensamblado de la sección .data:

00004000 <rvtest_data_begin>:
    4000:	cafe                	sw	t6,84(sp)
    4002:	babe                	.2byte	0xbabe

00004004 <rvtest_data_end>:
	...

00004010 <data_begin>:
    4010:	deadbeef          	jal	t4,fffdf5fa <_end+0xfffdaa9a>
    4014:	deadbeef          	jal	t4,fffdf5fe <_end+0xfffdaa9e>
    4018:	deadbeef          	jal	t4,fffdf602 <_end+0xfffdaaa2>
    401c:	deadbeef          	jal	t4,fffdf606 <_end+0xfffdaaa6>
    4020:	deadbeef          	jal	t4,fffdf60a <_end+0xfffdaaaa>
    4024:	deadbeef          	jal	t4,fffdf60e <_end+0xfffdaaae>
    4028:	deadbeef          	jal	t4,fffdf612 <_end+0xfffdaab2>
    402c:	deadbeef          	jal	t4,fffdf616 <_end+0xfffdaab6>
    4030:	deadbeef          	jal	t4,fffdf61a <_end+0xfffdaaba>
    4034:	deadbeef          	jal	t4,fffdf61e <_end+0xfffdaabe>
    4038:	deadbeef          	jal	t4,fffdf622 <_end+0xfffdaac2>
    403c:	deadbeef          	jal	t4,fffdf626 <_end+0xfffdaac6>
    4040:	deadbeef          	jal	t4,fffdf62a <_end+0xfffdaaca>
    4044:	deadbeef          	jal	t4,fffdf62e <_end+0xfffdaace>
    4048:	deadbeef          	jal	t4,fffdf632 <_end+0xfffdaad2>
    404c:	deadbeef          	jal	t4,fffdf636 <_end+0xfffdaad6>
    4050:	deadbeef          	jal	t4,fffdf63a <_end+0xfffdaada>

00004054 <signature_x5_0>:
    4054:	deadbeef          	jal	t4,fffdf63e <_end+0xfffdaade>
    4058:	deadbeef          	jal	t4,fffdf642 <_end+0xfffdaae2>
    405c:	deadbeef          	jal	t4,fffdf646 <_end+0xfffdaae6>
    4060:	deadbeef          	jal	t4,fffdf64a <_end+0xfffdaaea>
    4064:	deadbeef          	jal	t4,fffdf64e <_end+0xfffdaaee>
    4068:	deadbeef          	jal	t4,fffdf652 <_end+0xfffdaaf2>
    406c:	deadbeef          	jal	t4,fffdf656 <_end+0xfffdaaf6>
    4070:	deadbeef          	jal	t4,fffdf65a <_end+0xfffdaafa>
    4074:	deadbeef          	jal	t4,fffdf65e <_end+0xfffdaafe>
    4078:	deadbeef          	jal	t4,fffdf662 <_end+0xfffdab02>
    407c:	deadbeef          	jal	t4,fffdf666 <_end+0xfffdab06>
    4080:	deadbeef          	jal	t4,fffdf66a <_end+0xfffdab0a>
    4084:	deadbeef          	jal	t4,fffdf66e <_end+0xfffdab0e>
    4088:	deadbeef          	jal	t4,fffdf672 <_end+0xfffdab12>
    408c:	deadbeef          	jal	t4,fffdf676 <_end+0xfffdab16>
    4090:	deadbeef          	jal	t4,fffdf67a <_end+0xfffdab1a>
    4094:	deadbeef          	jal	t4,fffdf67e <_end+0xfffdab1e>
    4098:	deadbeef          	jal	t4,fffdf682 <_end+0xfffdab22>
    409c:	deadbeef          	jal	t4,fffdf686 <_end+0xfffdab26>
    40a0:	deadbeef          	jal	t4,fffdf68a <_end+0xfffdab2a>
    40a4:	deadbeef          	jal	t4,fffdf68e <_end+0xfffdab2e>
    40a8:	deadbeef          	jal	t4,fffdf692 <_end+0xfffdab32>
    40ac:	deadbeef          	jal	t4,fffdf696 <_end+0xfffdab36>
    40b0:	deadbeef          	jal	t4,fffdf69a <_end+0xfffdab3a>
    40b4:	deadbeef          	jal	t4,fffdf69e <_end+0xfffdab3e>
    40b8:	deadbeef          	jal	t4,fffdf6a2 <_end+0xfffdab42>
    40bc:	deadbeef          	jal	t4,fffdf6a6 <_end+0xfffdab46>
    40c0:	deadbeef          	jal	t4,fffdf6aa <_end+0xfffdab4a>
    40c4:	deadbeef          	jal	t4,fffdf6ae <_end+0xfffdab4e>
    40c8:	deadbeef          	jal	t4,fffdf6b2 <_end+0xfffdab52>
    40cc:	deadbeef          	jal	t4,fffdf6b6 <_end+0xfffdab56>
    40d0:	deadbeef          	jal	t4,fffdf6ba <_end+0xfffdab5a>
    40d4:	deadbeef          	jal	t4,fffdf6be <_end+0xfffdab5e>
    40d8:	deadbeef          	jal	t4,fffdf6c2 <_end+0xfffdab62>
    40dc:	deadbeef          	jal	t4,fffdf6c6 <_end+0xfffdab66>
    40e0:	deadbeef          	jal	t4,fffdf6ca <_end+0xfffdab6a>
    40e4:	deadbeef          	jal	t4,fffdf6ce <_end+0xfffdab6e>
    40e8:	deadbeef          	jal	t4,fffdf6d2 <_end+0xfffdab72>
    40ec:	deadbeef          	jal	t4,fffdf6d6 <_end+0xfffdab76>
    40f0:	deadbeef          	jal	t4,fffdf6da <_end+0xfffdab7a>
    40f4:	deadbeef          	jal	t4,fffdf6de <_end+0xfffdab7e>
    40f8:	deadbeef          	jal	t4,fffdf6e2 <_end+0xfffdab82>
    40fc:	deadbeef          	jal	t4,fffdf6e6 <_end+0xfffdab86>
    4100:	deadbeef          	jal	t4,fffdf6ea <_end+0xfffdab8a>
    4104:	deadbeef          	jal	t4,fffdf6ee <_end+0xfffdab8e>
    4108:	deadbeef          	jal	t4,fffdf6f2 <_end+0xfffdab92>
    410c:	deadbeef          	jal	t4,fffdf6f6 <_end+0xfffdab96>
    4110:	deadbeef          	jal	t4,fffdf6fa <_end+0xfffdab9a>
    4114:	deadbeef          	jal	t4,fffdf6fe <_end+0xfffdab9e>
    4118:	deadbeef          	jal	t4,fffdf702 <_end+0xfffdaba2>
    411c:	deadbeef          	jal	t4,fffdf706 <_end+0xfffdaba6>
    4120:	deadbeef          	jal	t4,fffdf70a <_end+0xfffdabaa>
    4124:	deadbeef          	jal	t4,fffdf70e <_end+0xfffdabae>
    4128:	deadbeef          	jal	t4,fffdf712 <_end+0xfffdabb2>
    412c:	deadbeef          	jal	t4,fffdf716 <_end+0xfffdabb6>
    4130:	deadbeef          	jal	t4,fffdf71a <_end+0xfffdabba>
    4134:	deadbeef          	jal	t4,fffdf71e <_end+0xfffdabbe>
    4138:	deadbeef          	jal	t4,fffdf722 <_end+0xfffdabc2>
    413c:	deadbeef          	jal	t4,fffdf726 <_end+0xfffdabc6>
    4140:	deadbeef          	jal	t4,fffdf72a <_end+0xfffdabca>
    4144:	deadbeef          	jal	t4,fffdf72e <_end+0xfffdabce>
    4148:	deadbeef          	jal	t4,fffdf732 <_end+0xfffdabd2>
    414c:	deadbeef          	jal	t4,fffdf736 <_end+0xfffdabd6>
    4150:	deadbeef          	jal	t4,fffdf73a <_end+0xfffdabda>
    4154:	deadbeef          	jal	t4,fffdf73e <_end+0xfffdabde>
    4158:	deadbeef          	jal	t4,fffdf742 <_end+0xfffdabe2>
    415c:	deadbeef          	jal	t4,fffdf746 <_end+0xfffdabe6>
    4160:	deadbeef          	jal	t4,fffdf74a <_end+0xfffdabea>
    4164:	deadbeef          	jal	t4,fffdf74e <_end+0xfffdabee>
    4168:	deadbeef          	jal	t4,fffdf752 <_end+0xfffdabf2>
    416c:	deadbeef          	jal	t4,fffdf756 <_end+0xfffdabf6>
    4170:	deadbeef          	jal	t4,fffdf75a <_end+0xfffdabfa>
    4174:	deadbeef          	jal	t4,fffdf75e <_end+0xfffdabfe>
    4178:	deadbeef          	jal	t4,fffdf762 <_end+0xfffdac02>
    417c:	deadbeef          	jal	t4,fffdf766 <_end+0xfffdac06>
    4180:	deadbeef          	jal	t4,fffdf76a <_end+0xfffdac0a>
    4184:	deadbeef          	jal	t4,fffdf76e <_end+0xfffdac0e>
    4188:	deadbeef          	jal	t4,fffdf772 <_end+0xfffdac12>
    418c:	deadbeef          	jal	t4,fffdf776 <_end+0xfffdac16>
    4190:	deadbeef          	jal	t4,fffdf77a <_end+0xfffdac1a>
    4194:	deadbeef          	jal	t4,fffdf77e <_end+0xfffdac1e>
    4198:	deadbeef          	jal	t4,fffdf782 <_end+0xfffdac22>
    419c:	deadbeef          	jal	t4,fffdf786 <_end+0xfffdac26>
    41a0:	deadbeef          	jal	t4,fffdf78a <_end+0xfffdac2a>
    41a4:	deadbeef          	jal	t4,fffdf78e <_end+0xfffdac2e>
    41a8:	deadbeef          	jal	t4,fffdf792 <_end+0xfffdac32>
    41ac:	deadbeef          	jal	t4,fffdf796 <_end+0xfffdac36>
    41b0:	deadbeef          	jal	t4,fffdf79a <_end+0xfffdac3a>
    41b4:	deadbeef          	jal	t4,fffdf79e <_end+0xfffdac3e>
    41b8:	deadbeef          	jal	t4,fffdf7a2 <_end+0xfffdac42>
    41bc:	deadbeef          	jal	t4,fffdf7a6 <_end+0xfffdac46>
    41c0:	deadbeef          	jal	t4,fffdf7aa <_end+0xfffdac4a>
    41c4:	deadbeef          	jal	t4,fffdf7ae <_end+0xfffdac4e>
    41c8:	deadbeef          	jal	t4,fffdf7b2 <_end+0xfffdac52>
    41cc:	deadbeef          	jal	t4,fffdf7b6 <_end+0xfffdac56>
    41d0:	deadbeef          	jal	t4,fffdf7ba <_end+0xfffdac5a>
    41d4:	deadbeef          	jal	t4,fffdf7be <_end+0xfffdac5e>
    41d8:	deadbeef          	jal	t4,fffdf7c2 <_end+0xfffdac62>
    41dc:	deadbeef          	jal	t4,fffdf7c6 <_end+0xfffdac66>
    41e0:	deadbeef          	jal	t4,fffdf7ca <_end+0xfffdac6a>
    41e4:	deadbeef          	jal	t4,fffdf7ce <_end+0xfffdac6e>
    41e8:	deadbeef          	jal	t4,fffdf7d2 <_end+0xfffdac72>
    41ec:	deadbeef          	jal	t4,fffdf7d6 <_end+0xfffdac76>
    41f0:	deadbeef          	jal	t4,fffdf7da <_end+0xfffdac7a>
    41f4:	deadbeef          	jal	t4,fffdf7de <_end+0xfffdac7e>
    41f8:	deadbeef          	jal	t4,fffdf7e2 <_end+0xfffdac82>
    41fc:	deadbeef          	jal	t4,fffdf7e6 <_end+0xfffdac86>
    4200:	deadbeef          	jal	t4,fffdf7ea <_end+0xfffdac8a>
    4204:	deadbeef          	jal	t4,fffdf7ee <_end+0xfffdac8e>
    4208:	deadbeef          	jal	t4,fffdf7f2 <_end+0xfffdac92>
    420c:	deadbeef          	jal	t4,fffdf7f6 <_end+0xfffdac96>
    4210:	deadbeef          	jal	t4,fffdf7fa <_end+0xfffdac9a>
    4214:	deadbeef          	jal	t4,fffdf7fe <_end+0xfffdac9e>
    4218:	deadbeef          	jal	t4,fffdf802 <_end+0xfffdaca2>
    421c:	deadbeef          	jal	t4,fffdf806 <_end+0xfffdaca6>
    4220:	deadbeef          	jal	t4,fffdf80a <_end+0xfffdacaa>
    4224:	deadbeef          	jal	t4,fffdf80e <_end+0xfffdacae>
    4228:	deadbeef          	jal	t4,fffdf812 <_end+0xfffdacb2>
    422c:	deadbeef          	jal	t4,fffdf816 <_end+0xfffdacb6>
    4230:	deadbeef          	jal	t4,fffdf81a <_end+0xfffdacba>
    4234:	deadbeef          	jal	t4,fffdf81e <_end+0xfffdacbe>
    4238:	deadbeef          	jal	t4,fffdf822 <_end+0xfffdacc2>
    423c:	deadbeef          	jal	t4,fffdf826 <_end+0xfffdacc6>
    4240:	deadbeef          	jal	t4,fffdf82a <_end+0xfffdacca>
    4244:	deadbeef          	jal	t4,fffdf82e <_end+0xfffdacce>
    4248:	deadbeef          	jal	t4,fffdf832 <_end+0xfffdacd2>
    424c:	deadbeef          	jal	t4,fffdf836 <_end+0xfffdacd6>
    4250:	deadbeef          	jal	t4,fffdf83a <_end+0xfffdacda>
    4254:	deadbeef          	jal	t4,fffdf83e <_end+0xfffdacde>
    4258:	deadbeef          	jal	t4,fffdf842 <_end+0xfffdace2>
    425c:	deadbeef          	jal	t4,fffdf846 <_end+0xfffdace6>
    4260:	deadbeef          	jal	t4,fffdf84a <_end+0xfffdacea>
    4264:	deadbeef          	jal	t4,fffdf84e <_end+0xfffdacee>
    4268:	deadbeef          	jal	t4,fffdf852 <_end+0xfffdacf2>
    426c:	deadbeef          	jal	t4,fffdf856 <_end+0xfffdacf6>
    4270:	deadbeef          	jal	t4,fffdf85a <_end+0xfffdacfa>
    4274:	deadbeef          	jal	t4,fffdf85e <_end+0xfffdacfe>
    4278:	deadbeef          	jal	t4,fffdf862 <_end+0xfffdad02>
    427c:	deadbeef          	jal	t4,fffdf866 <_end+0xfffdad06>
    4280:	deadbeef          	jal	t4,fffdf86a <_end+0xfffdad0a>
    4284:	deadbeef          	jal	t4,fffdf86e <_end+0xfffdad0e>
    4288:	deadbeef          	jal	t4,fffdf872 <_end+0xfffdad12>
    428c:	deadbeef          	jal	t4,fffdf876 <_end+0xfffdad16>
    4290:	deadbeef          	jal	t4,fffdf87a <_end+0xfffdad1a>
    4294:	deadbeef          	jal	t4,fffdf87e <_end+0xfffdad1e>
    4298:	deadbeef          	jal	t4,fffdf882 <_end+0xfffdad22>
    429c:	deadbeef          	jal	t4,fffdf886 <_end+0xfffdad26>
    42a0:	deadbeef          	jal	t4,fffdf88a <_end+0xfffdad2a>
    42a4:	deadbeef          	jal	t4,fffdf88e <_end+0xfffdad2e>
    42a8:	deadbeef          	jal	t4,fffdf892 <_end+0xfffdad32>
    42ac:	deadbeef          	jal	t4,fffdf896 <_end+0xfffdad36>
    42b0:	deadbeef          	jal	t4,fffdf89a <_end+0xfffdad3a>
    42b4:	deadbeef          	jal	t4,fffdf89e <_end+0xfffdad3e>
    42b8:	deadbeef          	jal	t4,fffdf8a2 <_end+0xfffdad42>
    42bc:	deadbeef          	jal	t4,fffdf8a6 <_end+0xfffdad46>
    42c0:	deadbeef          	jal	t4,fffdf8aa <_end+0xfffdad4a>
    42c4:	deadbeef          	jal	t4,fffdf8ae <_end+0xfffdad4e>
    42c8:	deadbeef          	jal	t4,fffdf8b2 <_end+0xfffdad52>
    42cc:	deadbeef          	jal	t4,fffdf8b6 <_end+0xfffdad56>
    42d0:	deadbeef          	jal	t4,fffdf8ba <_end+0xfffdad5a>
    42d4:	deadbeef          	jal	t4,fffdf8be <_end+0xfffdad5e>
    42d8:	deadbeef          	jal	t4,fffdf8c2 <_end+0xfffdad62>
    42dc:	deadbeef          	jal	t4,fffdf8c6 <_end+0xfffdad66>
    42e0:	deadbeef          	jal	t4,fffdf8ca <_end+0xfffdad6a>
    42e4:	deadbeef          	jal	t4,fffdf8ce <_end+0xfffdad6e>
    42e8:	deadbeef          	jal	t4,fffdf8d2 <_end+0xfffdad72>
    42ec:	deadbeef          	jal	t4,fffdf8d6 <_end+0xfffdad76>
    42f0:	deadbeef          	jal	t4,fffdf8da <_end+0xfffdad7a>
    42f4:	deadbeef          	jal	t4,fffdf8de <_end+0xfffdad7e>
    42f8:	deadbeef          	jal	t4,fffdf8e2 <_end+0xfffdad82>
    42fc:	deadbeef          	jal	t4,fffdf8e6 <_end+0xfffdad86>
    4300:	deadbeef          	jal	t4,fffdf8ea <_end+0xfffdad8a>
    4304:	deadbeef          	jal	t4,fffdf8ee <_end+0xfffdad8e>
    4308:	deadbeef          	jal	t4,fffdf8f2 <_end+0xfffdad92>
    430c:	deadbeef          	jal	t4,fffdf8f6 <_end+0xfffdad96>
    4310:	deadbeef          	jal	t4,fffdf8fa <_end+0xfffdad9a>
    4314:	deadbeef          	jal	t4,fffdf8fe <_end+0xfffdad9e>
    4318:	deadbeef          	jal	t4,fffdf902 <_end+0xfffdada2>
    431c:	deadbeef          	jal	t4,fffdf906 <_end+0xfffdada6>
    4320:	deadbeef          	jal	t4,fffdf90a <_end+0xfffdadaa>
    4324:	deadbeef          	jal	t4,fffdf90e <_end+0xfffdadae>
    4328:	deadbeef          	jal	t4,fffdf912 <_end+0xfffdadb2>
    432c:	deadbeef          	jal	t4,fffdf916 <_end+0xfffdadb6>
    4330:	deadbeef          	jal	t4,fffdf91a <_end+0xfffdadba>
    4334:	deadbeef          	jal	t4,fffdf91e <_end+0xfffdadbe>
    4338:	deadbeef          	jal	t4,fffdf922 <_end+0xfffdadc2>
    433c:	deadbeef          	jal	t4,fffdf926 <_end+0xfffdadc6>
    4340:	deadbeef          	jal	t4,fffdf92a <_end+0xfffdadca>
    4344:	deadbeef          	jal	t4,fffdf92e <_end+0xfffdadce>
    4348:	deadbeef          	jal	t4,fffdf932 <_end+0xfffdadd2>
    434c:	deadbeef          	jal	t4,fffdf936 <_end+0xfffdadd6>
    4350:	deadbeef          	jal	t4,fffdf93a <_end+0xfffdadda>
    4354:	deadbeef          	jal	t4,fffdf93e <_end+0xfffdadde>
    4358:	deadbeef          	jal	t4,fffdf942 <_end+0xfffdade2>
    435c:	deadbeef          	jal	t4,fffdf946 <_end+0xfffdade6>
    4360:	deadbeef          	jal	t4,fffdf94a <_end+0xfffdadea>
    4364:	deadbeef          	jal	t4,fffdf94e <_end+0xfffdadee>
    4368:	deadbeef          	jal	t4,fffdf952 <_end+0xfffdadf2>
    436c:	deadbeef          	jal	t4,fffdf956 <_end+0xfffdadf6>
    4370:	deadbeef          	jal	t4,fffdf95a <_end+0xfffdadfa>
    4374:	deadbeef          	jal	t4,fffdf95e <_end+0xfffdadfe>
    4378:	deadbeef          	jal	t4,fffdf962 <_end+0xfffdae02>
    437c:	deadbeef          	jal	t4,fffdf966 <_end+0xfffdae06>
    4380:	deadbeef          	jal	t4,fffdf96a <_end+0xfffdae0a>
    4384:	deadbeef          	jal	t4,fffdf96e <_end+0xfffdae0e>
    4388:	deadbeef          	jal	t4,fffdf972 <_end+0xfffdae12>
    438c:	deadbeef          	jal	t4,fffdf976 <_end+0xfffdae16>
    4390:	deadbeef          	jal	t4,fffdf97a <_end+0xfffdae1a>
    4394:	deadbeef          	jal	t4,fffdf97e <_end+0xfffdae1e>
    4398:	deadbeef          	jal	t4,fffdf982 <_end+0xfffdae22>
    439c:	deadbeef          	jal	t4,fffdf986 <_end+0xfffdae26>
    43a0:	deadbeef          	jal	t4,fffdf98a <_end+0xfffdae2a>
    43a4:	deadbeef          	jal	t4,fffdf98e <_end+0xfffdae2e>
    43a8:	deadbeef          	jal	t4,fffdf992 <_end+0xfffdae32>
    43ac:	deadbeef          	jal	t4,fffdf996 <_end+0xfffdae36>
    43b0:	deadbeef          	jal	t4,fffdf99a <_end+0xfffdae3a>
    43b4:	deadbeef          	jal	t4,fffdf99e <_end+0xfffdae3e>
    43b8:	deadbeef          	jal	t4,fffdf9a2 <_end+0xfffdae42>
    43bc:	deadbeef          	jal	t4,fffdf9a6 <_end+0xfffdae46>
    43c0:	deadbeef          	jal	t4,fffdf9aa <_end+0xfffdae4a>
    43c4:	deadbeef          	jal	t4,fffdf9ae <_end+0xfffdae4e>
    43c8:	deadbeef          	jal	t4,fffdf9b2 <_end+0xfffdae52>
    43cc:	deadbeef          	jal	t4,fffdf9b6 <_end+0xfffdae56>
    43d0:	deadbeef          	jal	t4,fffdf9ba <_end+0xfffdae5a>
    43d4:	deadbeef          	jal	t4,fffdf9be <_end+0xfffdae5e>
    43d8:	deadbeef          	jal	t4,fffdf9c2 <_end+0xfffdae62>
    43dc:	deadbeef          	jal	t4,fffdf9c6 <_end+0xfffdae66>
    43e0:	deadbeef          	jal	t4,fffdf9ca <_end+0xfffdae6a>
    43e4:	deadbeef          	jal	t4,fffdf9ce <_end+0xfffdae6e>
    43e8:	deadbeef          	jal	t4,fffdf9d2 <_end+0xfffdae72>
    43ec:	deadbeef          	jal	t4,fffdf9d6 <_end+0xfffdae76>
    43f0:	deadbeef          	jal	t4,fffdf9da <_end+0xfffdae7a>
    43f4:	deadbeef          	jal	t4,fffdf9de <_end+0xfffdae7e>
    43f8:	deadbeef          	jal	t4,fffdf9e2 <_end+0xfffdae82>
    43fc:	deadbeef          	jal	t4,fffdf9e6 <_end+0xfffdae86>
    4400:	deadbeef          	jal	t4,fffdf9ea <_end+0xfffdae8a>
    4404:	deadbeef          	jal	t4,fffdf9ee <_end+0xfffdae8e>
    4408:	deadbeef          	jal	t4,fffdf9f2 <_end+0xfffdae92>
    440c:	deadbeef          	jal	t4,fffdf9f6 <_end+0xfffdae96>
    4410:	deadbeef          	jal	t4,fffdf9fa <_end+0xfffdae9a>
    4414:	deadbeef          	jal	t4,fffdf9fe <_end+0xfffdae9e>
    4418:	deadbeef          	jal	t4,fffdfa02 <_end+0xfffdaea2>
    441c:	deadbeef          	jal	t4,fffdfa06 <_end+0xfffdaea6>
    4420:	deadbeef          	jal	t4,fffdfa0a <_end+0xfffdaeaa>
    4424:	deadbeef          	jal	t4,fffdfa0e <_end+0xfffdaeae>
    4428:	deadbeef          	jal	t4,fffdfa12 <_end+0xfffdaeb2>
    442c:	deadbeef          	jal	t4,fffdfa16 <_end+0xfffdaeb6>
    4430:	deadbeef          	jal	t4,fffdfa1a <_end+0xfffdaeba>
    4434:	deadbeef          	jal	t4,fffdfa1e <_end+0xfffdaebe>
    4438:	deadbeef          	jal	t4,fffdfa22 <_end+0xfffdaec2>
    443c:	deadbeef          	jal	t4,fffdfa26 <_end+0xfffdaec6>
    4440:	deadbeef          	jal	t4,fffdfa2a <_end+0xfffdaeca>
    4444:	deadbeef          	jal	t4,fffdfa2e <_end+0xfffdaece>
    4448:	deadbeef          	jal	t4,fffdfa32 <_end+0xfffdaed2>
    444c:	deadbeef          	jal	t4,fffdfa36 <_end+0xfffdaed6>
    4450:	deadbeef          	jal	t4,fffdfa3a <_end+0xfffdaeda>
    4454:	deadbeef          	jal	t4,fffdfa3e <_end+0xfffdaede>
    4458:	deadbeef          	jal	t4,fffdfa42 <_end+0xfffdaee2>
    445c:	deadbeef          	jal	t4,fffdfa46 <_end+0xfffdaee6>
    4460:	deadbeef          	jal	t4,fffdfa4a <_end+0xfffdaeea>
    4464:	deadbeef          	jal	t4,fffdfa4e <_end+0xfffdaeee>
    4468:	deadbeef          	jal	t4,fffdfa52 <_end+0xfffdaef2>
    446c:	deadbeef          	jal	t4,fffdfa56 <_end+0xfffdaef6>
    4470:	deadbeef          	jal	t4,fffdfa5a <_end+0xfffdaefa>
    4474:	deadbeef          	jal	t4,fffdfa5e <_end+0xfffdaefe>
    4478:	deadbeef          	jal	t4,fffdfa62 <_end+0xfffdaf02>
    447c:	deadbeef          	jal	t4,fffdfa66 <_end+0xfffdaf06>
    4480:	deadbeef          	jal	t4,fffdfa6a <_end+0xfffdaf0a>
    4484:	deadbeef          	jal	t4,fffdfa6e <_end+0xfffdaf0e>
    4488:	deadbeef          	jal	t4,fffdfa72 <_end+0xfffdaf12>
    448c:	deadbeef          	jal	t4,fffdfa76 <_end+0xfffdaf16>
    4490:	deadbeef          	jal	t4,fffdfa7a <_end+0xfffdaf1a>
    4494:	deadbeef          	jal	t4,fffdfa7e <_end+0xfffdaf1e>
    4498:	deadbeef          	jal	t4,fffdfa82 <_end+0xfffdaf22>
    449c:	deadbeef          	jal	t4,fffdfa86 <_end+0xfffdaf26>
    44a0:	deadbeef          	jal	t4,fffdfa8a <_end+0xfffdaf2a>
    44a4:	deadbeef          	jal	t4,fffdfa8e <_end+0xfffdaf2e>
    44a8:	deadbeef          	jal	t4,fffdfa92 <_end+0xfffdaf32>
    44ac:	deadbeef          	jal	t4,fffdfa96 <_end+0xfffdaf36>
    44b0:	deadbeef          	jal	t4,fffdfa9a <_end+0xfffdaf3a>
    44b4:	deadbeef          	jal	t4,fffdfa9e <_end+0xfffdaf3e>
    44b8:	deadbeef          	jal	t4,fffdfaa2 <_end+0xfffdaf42>
    44bc:	deadbeef          	jal	t4,fffdfaa6 <_end+0xfffdaf46>
    44c0:	deadbeef          	jal	t4,fffdfaaa <_end+0xfffdaf4a>
    44c4:	deadbeef          	jal	t4,fffdfaae <_end+0xfffdaf4e>
    44c8:	deadbeef          	jal	t4,fffdfab2 <_end+0xfffdaf52>
    44cc:	deadbeef          	jal	t4,fffdfab6 <_end+0xfffdaf56>
    44d0:	deadbeef          	jal	t4,fffdfaba <_end+0xfffdaf5a>
    44d4:	deadbeef          	jal	t4,fffdfabe <_end+0xfffdaf5e>
    44d8:	deadbeef          	jal	t4,fffdfac2 <_end+0xfffdaf62>
    44dc:	deadbeef          	jal	t4,fffdfac6 <_end+0xfffdaf66>
    44e0:	deadbeef          	jal	t4,fffdfaca <_end+0xfffdaf6a>
    44e4:	deadbeef          	jal	t4,fffdface <_end+0xfffdaf6e>
    44e8:	deadbeef          	jal	t4,fffdfad2 <_end+0xfffdaf72>
    44ec:	deadbeef          	jal	t4,fffdfad6 <_end+0xfffdaf76>
    44f0:	deadbeef          	jal	t4,fffdfada <_end+0xfffdaf7a>
    44f4:	deadbeef          	jal	t4,fffdfade <_end+0xfffdaf7e>
    44f8:	deadbeef          	jal	t4,fffdfae2 <_end+0xfffdaf82>
    44fc:	deadbeef          	jal	t4,fffdfae6 <_end+0xfffdaf86>
    4500:	deadbeef          	jal	t4,fffdfaea <_end+0xfffdaf8a>
    4504:	deadbeef          	jal	t4,fffdfaee <_end+0xfffdaf8e>
    4508:	deadbeef          	jal	t4,fffdfaf2 <_end+0xfffdaf92>
    450c:	deadbeef          	jal	t4,fffdfaf6 <_end+0xfffdaf96>
    4510:	deadbeef          	jal	t4,fffdfafa <_end+0xfffdaf9a>
    4514:	deadbeef          	jal	t4,fffdfafe <_end+0xfffdaf9e>
    4518:	deadbeef          	jal	t4,fffdfb02 <_end+0xfffdafa2>
    451c:	deadbeef          	jal	t4,fffdfb06 <_end+0xfffdafa6>
    4520:	deadbeef          	jal	t4,fffdfb0a <_end+0xfffdafaa>
    4524:	deadbeef          	jal	t4,fffdfb0e <_end+0xfffdafae>
    4528:	deadbeef          	jal	t4,fffdfb12 <_end+0xfffdafb2>
    452c:	deadbeef          	jal	t4,fffdfb16 <_end+0xfffdafb6>
    4530:	deadbeef          	jal	t4,fffdfb1a <_end+0xfffdafba>
    4534:	deadbeef          	jal	t4,fffdfb1e <_end+0xfffdafbe>
    4538:	deadbeef          	jal	t4,fffdfb22 <_end+0xfffdafc2>
    453c:	deadbeef          	jal	t4,fffdfb26 <_end+0xfffdafc6>
    4540:	deadbeef          	jal	t4,fffdfb2a <_end+0xfffdafca>
    4544:	deadbeef          	jal	t4,fffdfb2e <_end+0xfffdafce>
    4548:	deadbeef          	jal	t4,fffdfb32 <_end+0xfffdafd2>
    454c:	deadbeef          	jal	t4,fffdfb36 <_end+0xfffdafd6>
    4550:	deadbeef          	jal	t4,fffdfb3a <_end+0xfffdafda>
    4554:	deadbeef          	jal	t4,fffdfb3e <_end+0xfffdafde>
    4558:	deadbeef          	jal	t4,fffdfb42 <_end+0xfffdafe2>
    455c:	deadbeef          	jal	t4,fffdfb46 <_end+0xfffdafe6>
    4560:	deadbeef          	jal	t4,fffdfb4a <_end+0xfffdafea>
    4564:	deadbeef          	jal	t4,fffdfb4e <_end+0xfffdafee>
    4568:	deadbeef          	jal	t4,fffdfb52 <_end+0xfffdaff2>
    456c:	deadbeef          	jal	t4,fffdfb56 <_end+0xfffdaff6>
    4570:	deadbeef          	jal	t4,fffdfb5a <_end+0xfffdaffa>
    4574:	deadbeef          	jal	t4,fffdfb5e <_end+0xfffdaffe>
    4578:	deadbeef          	jal	t4,fffdfb62 <_end+0xfffdb002>
    457c:	deadbeef          	jal	t4,fffdfb66 <_end+0xfffdb006>
    4580:	deadbeef          	jal	t4,fffdfb6a <_end+0xfffdb00a>
    4584:	deadbeef          	jal	t4,fffdfb6e <_end+0xfffdb00e>
    4588:	deadbeef          	jal	t4,fffdfb72 <_end+0xfffdb012>
    458c:	deadbeef          	jal	t4,fffdfb76 <_end+0xfffdb016>
    4590:	deadbeef          	jal	t4,fffdfb7a <_end+0xfffdb01a>
    4594:	deadbeef          	jal	t4,fffdfb7e <_end+0xfffdb01e>
    4598:	deadbeef          	jal	t4,fffdfb82 <_end+0xfffdb022>
    459c:	deadbeef          	jal	t4,fffdfb86 <_end+0xfffdb026>
    45a0:	deadbeef          	jal	t4,fffdfb8a <_end+0xfffdb02a>
    45a4:	deadbeef          	jal	t4,fffdfb8e <_end+0xfffdb02e>
    45a8:	deadbeef          	jal	t4,fffdfb92 <_end+0xfffdb032>
    45ac:	deadbeef          	jal	t4,fffdfb96 <_end+0xfffdb036>
    45b0:	deadbeef          	jal	t4,fffdfb9a <_end+0xfffdb03a>
    45b4:	deadbeef          	jal	t4,fffdfb9e <_end+0xfffdb03e>
    45b8:	deadbeef          	jal	t4,fffdfba2 <_end+0xfffdb042>
    45bc:	deadbeef          	jal	t4,fffdfba6 <_end+0xfffdb046>
    45c0:	deadbeef          	jal	t4,fffdfbaa <_end+0xfffdb04a>
    45c4:	deadbeef          	jal	t4,fffdfbae <_end+0xfffdb04e>
    45c8:	deadbeef          	jal	t4,fffdfbb2 <_end+0xfffdb052>
    45cc:	deadbeef          	jal	t4,fffdfbb6 <_end+0xfffdb056>
    45d0:	deadbeef          	jal	t4,fffdfbba <_end+0xfffdb05a>
    45d4:	deadbeef          	jal	t4,fffdfbbe <_end+0xfffdb05e>
    45d8:	deadbeef          	jal	t4,fffdfbc2 <_end+0xfffdb062>
    45dc:	deadbeef          	jal	t4,fffdfbc6 <_end+0xfffdb066>
    45e0:	deadbeef          	jal	t4,fffdfbca <_end+0xfffdb06a>
    45e4:	deadbeef          	jal	t4,fffdfbce <_end+0xfffdb06e>
    45e8:	deadbeef          	jal	t4,fffdfbd2 <_end+0xfffdb072>
    45ec:	deadbeef          	jal	t4,fffdfbd6 <_end+0xfffdb076>
    45f0:	deadbeef          	jal	t4,fffdfbda <_end+0xfffdb07a>
    45f4:	deadbeef          	jal	t4,fffdfbde <_end+0xfffdb07e>
    45f8:	deadbeef          	jal	t4,fffdfbe2 <_end+0xfffdb082>
    45fc:	deadbeef          	jal	t4,fffdfbe6 <_end+0xfffdb086>
    4600:	deadbeef          	jal	t4,fffdfbea <_end+0xfffdb08a>
    4604:	deadbeef          	jal	t4,fffdfbee <_end+0xfffdb08e>
    4608:	deadbeef          	jal	t4,fffdfbf2 <_end+0xfffdb092>
    460c:	deadbeef          	jal	t4,fffdfbf6 <_end+0xfffdb096>
    4610:	deadbeef          	jal	t4,fffdfbfa <_end+0xfffdb09a>
    4614:	deadbeef          	jal	t4,fffdfbfe <_end+0xfffdb09e>
    4618:	deadbeef          	jal	t4,fffdfc02 <_end+0xfffdb0a2>
    461c:	deadbeef          	jal	t4,fffdfc06 <_end+0xfffdb0a6>
    4620:	deadbeef          	jal	t4,fffdfc0a <_end+0xfffdb0aa>
    4624:	deadbeef          	jal	t4,fffdfc0e <_end+0xfffdb0ae>
    4628:	deadbeef          	jal	t4,fffdfc12 <_end+0xfffdb0b2>
    462c:	deadbeef          	jal	t4,fffdfc16 <_end+0xfffdb0b6>
    4630:	deadbeef          	jal	t4,fffdfc1a <_end+0xfffdb0ba>
    4634:	deadbeef          	jal	t4,fffdfc1e <_end+0xfffdb0be>
    4638:	deadbeef          	jal	t4,fffdfc22 <_end+0xfffdb0c2>
    463c:	deadbeef          	jal	t4,fffdfc26 <_end+0xfffdb0c6>
    4640:	deadbeef          	jal	t4,fffdfc2a <_end+0xfffdb0ca>
    4644:	deadbeef          	jal	t4,fffdfc2e <_end+0xfffdb0ce>
    4648:	deadbeef          	jal	t4,fffdfc32 <_end+0xfffdb0d2>
    464c:	deadbeef          	jal	t4,fffdfc36 <_end+0xfffdb0d6>
    4650:	deadbeef          	jal	t4,fffdfc3a <_end+0xfffdb0da>
    4654:	deadbeef          	jal	t4,fffdfc3e <_end+0xfffdb0de>
    4658:	deadbeef          	jal	t4,fffdfc42 <_end+0xfffdb0e2>
    465c:	deadbeef          	jal	t4,fffdfc46 <_end+0xfffdb0e6>
    4660:	deadbeef          	jal	t4,fffdfc4a <_end+0xfffdb0ea>
    4664:	deadbeef          	jal	t4,fffdfc4e <_end+0xfffdb0ee>
    4668:	deadbeef          	jal	t4,fffdfc52 <_end+0xfffdb0f2>
    466c:	deadbeef          	jal	t4,fffdfc56 <_end+0xfffdb0f6>
    4670:	deadbeef          	jal	t4,fffdfc5a <_end+0xfffdb0fa>
    4674:	deadbeef          	jal	t4,fffdfc5e <_end+0xfffdb0fe>
    4678:	deadbeef          	jal	t4,fffdfc62 <_end+0xfffdb102>
    467c:	deadbeef          	jal	t4,fffdfc66 <_end+0xfffdb106>
    4680:	deadbeef          	jal	t4,fffdfc6a <_end+0xfffdb10a>
    4684:	deadbeef          	jal	t4,fffdfc6e <_end+0xfffdb10e>
    4688:	deadbeef          	jal	t4,fffdfc72 <_end+0xfffdb112>
    468c:	deadbeef          	jal	t4,fffdfc76 <_end+0xfffdb116>
    4690:	deadbeef          	jal	t4,fffdfc7a <_end+0xfffdb11a>
    4694:	deadbeef          	jal	t4,fffdfc7e <_end+0xfffdb11e>
    4698:	deadbeef          	jal	t4,fffdfc82 <_end+0xfffdb122>
    469c:	deadbeef          	jal	t4,fffdfc86 <_end+0xfffdb126>
    46a0:	deadbeef          	jal	t4,fffdfc8a <_end+0xfffdb12a>
    46a4:	deadbeef          	jal	t4,fffdfc8e <_end+0xfffdb12e>
    46a8:	deadbeef          	jal	t4,fffdfc92 <_end+0xfffdb132>
    46ac:	deadbeef          	jal	t4,fffdfc96 <_end+0xfffdb136>
    46b0:	deadbeef          	jal	t4,fffdfc9a <_end+0xfffdb13a>
    46b4:	deadbeef          	jal	t4,fffdfc9e <_end+0xfffdb13e>
    46b8:	deadbeef          	jal	t4,fffdfca2 <_end+0xfffdb142>
    46bc:	deadbeef          	jal	t4,fffdfca6 <_end+0xfffdb146>
    46c0:	deadbeef          	jal	t4,fffdfcaa <_end+0xfffdb14a>
    46c4:	deadbeef          	jal	t4,fffdfcae <_end+0xfffdb14e>
    46c8:	deadbeef          	jal	t4,fffdfcb2 <_end+0xfffdb152>
    46cc:	deadbeef          	jal	t4,fffdfcb6 <_end+0xfffdb156>
    46d0:	deadbeef          	jal	t4,fffdfcba <_end+0xfffdb15a>
    46d4:	deadbeef          	jal	t4,fffdfcbe <_end+0xfffdb15e>
    46d8:	deadbeef          	jal	t4,fffdfcc2 <_end+0xfffdb162>
    46dc:	deadbeef          	jal	t4,fffdfcc6 <_end+0xfffdb166>
    46e0:	deadbeef          	jal	t4,fffdfcca <_end+0xfffdb16a>
    46e4:	deadbeef          	jal	t4,fffdfcce <_end+0xfffdb16e>
    46e8:	deadbeef          	jal	t4,fffdfcd2 <_end+0xfffdb172>
    46ec:	deadbeef          	jal	t4,fffdfcd6 <_end+0xfffdb176>
    46f0:	deadbeef          	jal	t4,fffdfcda <_end+0xfffdb17a>
    46f4:	deadbeef          	jal	t4,fffdfcde <_end+0xfffdb17e>
    46f8:	deadbeef          	jal	t4,fffdfce2 <_end+0xfffdb182>
    46fc:	deadbeef          	jal	t4,fffdfce6 <_end+0xfffdb186>
    4700:	deadbeef          	jal	t4,fffdfcea <_end+0xfffdb18a>
    4704:	deadbeef          	jal	t4,fffdfcee <_end+0xfffdb18e>
    4708:	deadbeef          	jal	t4,fffdfcf2 <_end+0xfffdb192>
    470c:	deadbeef          	jal	t4,fffdfcf6 <_end+0xfffdb196>
    4710:	deadbeef          	jal	t4,fffdfcfa <_end+0xfffdb19a>
    4714:	deadbeef          	jal	t4,fffdfcfe <_end+0xfffdb19e>
    4718:	deadbeef          	jal	t4,fffdfd02 <_end+0xfffdb1a2>
    471c:	deadbeef          	jal	t4,fffdfd06 <_end+0xfffdb1a6>
    4720:	deadbeef          	jal	t4,fffdfd0a <_end+0xfffdb1aa>
    4724:	deadbeef          	jal	t4,fffdfd0e <_end+0xfffdb1ae>
    4728:	deadbeef          	jal	t4,fffdfd12 <_end+0xfffdb1b2>
    472c:	deadbeef          	jal	t4,fffdfd16 <_end+0xfffdb1b6>
    4730:	deadbeef          	jal	t4,fffdfd1a <_end+0xfffdb1ba>
    4734:	deadbeef          	jal	t4,fffdfd1e <_end+0xfffdb1be>
    4738:	deadbeef          	jal	t4,fffdfd22 <_end+0xfffdb1c2>
    473c:	deadbeef          	jal	t4,fffdfd26 <_end+0xfffdb1c6>
    4740:	deadbeef          	jal	t4,fffdfd2a <_end+0xfffdb1ca>
    4744:	deadbeef          	jal	t4,fffdfd2e <_end+0xfffdb1ce>
    4748:	deadbeef          	jal	t4,fffdfd32 <_end+0xfffdb1d2>
    474c:	deadbeef          	jal	t4,fffdfd36 <_end+0xfffdb1d6>
    4750:	deadbeef          	jal	t4,fffdfd3a <_end+0xfffdb1da>
    4754:	deadbeef          	jal	t4,fffdfd3e <_end+0xfffdb1de>
    4758:	deadbeef          	jal	t4,fffdfd42 <_end+0xfffdb1e2>
    475c:	deadbeef          	jal	t4,fffdfd46 <_end+0xfffdb1e6>
    4760:	deadbeef          	jal	t4,fffdfd4a <_end+0xfffdb1ea>
    4764:	deadbeef          	jal	t4,fffdfd4e <_end+0xfffdb1ee>
    4768:	deadbeef          	jal	t4,fffdfd52 <_end+0xfffdb1f2>
    476c:	deadbeef          	jal	t4,fffdfd56 <_end+0xfffdb1f6>
    4770:	deadbeef          	jal	t4,fffdfd5a <_end+0xfffdb1fa>
    4774:	deadbeef          	jal	t4,fffdfd5e <_end+0xfffdb1fe>
    4778:	deadbeef          	jal	t4,fffdfd62 <_end+0xfffdb202>
    477c:	deadbeef          	jal	t4,fffdfd66 <_end+0xfffdb206>
    4780:	deadbeef          	jal	t4,fffdfd6a <_end+0xfffdb20a>
    4784:	deadbeef          	jal	t4,fffdfd6e <_end+0xfffdb20e>
    4788:	deadbeef          	jal	t4,fffdfd72 <_end+0xfffdb212>
    478c:	deadbeef          	jal	t4,fffdfd76 <_end+0xfffdb216>
    4790:	deadbeef          	jal	t4,fffdfd7a <_end+0xfffdb21a>
    4794:	deadbeef          	jal	t4,fffdfd7e <_end+0xfffdb21e>
    4798:	deadbeef          	jal	t4,fffdfd82 <_end+0xfffdb222>
    479c:	deadbeef          	jal	t4,fffdfd86 <_end+0xfffdb226>
    47a0:	deadbeef          	jal	t4,fffdfd8a <_end+0xfffdb22a>
    47a4:	deadbeef          	jal	t4,fffdfd8e <_end+0xfffdb22e>
    47a8:	deadbeef          	jal	t4,fffdfd92 <_end+0xfffdb232>
    47ac:	deadbeef          	jal	t4,fffdfd96 <_end+0xfffdb236>
    47b0:	deadbeef          	jal	t4,fffdfd9a <_end+0xfffdb23a>
    47b4:	deadbeef          	jal	t4,fffdfd9e <_end+0xfffdb23e>
    47b8:	deadbeef          	jal	t4,fffdfda2 <_end+0xfffdb242>
    47bc:	deadbeef          	jal	t4,fffdfda6 <_end+0xfffdb246>
    47c0:	deadbeef          	jal	t4,fffdfdaa <_end+0xfffdb24a>
    47c4:	deadbeef          	jal	t4,fffdfdae <_end+0xfffdb24e>
    47c8:	deadbeef          	jal	t4,fffdfdb2 <_end+0xfffdb252>
    47cc:	deadbeef          	jal	t4,fffdfdb6 <_end+0xfffdb256>
    47d0:	deadbeef          	jal	t4,fffdfdba <_end+0xfffdb25a>
    47d4:	deadbeef          	jal	t4,fffdfdbe <_end+0xfffdb25e>
    47d8:	deadbeef          	jal	t4,fffdfdc2 <_end+0xfffdb262>
    47dc:	deadbeef          	jal	t4,fffdfdc6 <_end+0xfffdb266>
    47e0:	deadbeef          	jal	t4,fffdfdca <_end+0xfffdb26a>
    47e4:	deadbeef          	jal	t4,fffdfdce <_end+0xfffdb26e>
    47e8:	deadbeef          	jal	t4,fffdfdd2 <_end+0xfffdb272>
    47ec:	deadbeef          	jal	t4,fffdfdd6 <_end+0xfffdb276>
    47f0:	deadbeef          	jal	t4,fffdfdda <_end+0xfffdb27a>
    47f4:	deadbeef          	jal	t4,fffdfdde <_end+0xfffdb27e>
    47f8:	deadbeef          	jal	t4,fffdfde2 <_end+0xfffdb282>
    47fc:	deadbeef          	jal	t4,fffdfde6 <_end+0xfffdb286>
    4800:	deadbeef          	jal	t4,fffdfdea <_end+0xfffdb28a>
    4804:	deadbeef          	jal	t4,fffdfdee <_end+0xfffdb28e>
    4808:	deadbeef          	jal	t4,fffdfdf2 <_end+0xfffdb292>
    480c:	deadbeef          	jal	t4,fffdfdf6 <_end+0xfffdb296>
    4810:	deadbeef          	jal	t4,fffdfdfa <_end+0xfffdb29a>
    4814:	deadbeef          	jal	t4,fffdfdfe <_end+0xfffdb29e>
    4818:	deadbeef          	jal	t4,fffdfe02 <_end+0xfffdb2a2>
    481c:	deadbeef          	jal	t4,fffdfe06 <_end+0xfffdb2a6>
    4820:	deadbeef          	jal	t4,fffdfe0a <_end+0xfffdb2aa>
    4824:	deadbeef          	jal	t4,fffdfe0e <_end+0xfffdb2ae>
    4828:	deadbeef          	jal	t4,fffdfe12 <_end+0xfffdb2b2>
    482c:	deadbeef          	jal	t4,fffdfe16 <_end+0xfffdb2b6>
    4830:	deadbeef          	jal	t4,fffdfe1a <_end+0xfffdb2ba>
    4834:	deadbeef          	jal	t4,fffdfe1e <_end+0xfffdb2be>
    4838:	deadbeef          	jal	t4,fffdfe22 <_end+0xfffdb2c2>
    483c:	deadbeef          	jal	t4,fffdfe26 <_end+0xfffdb2c6>
    4840:	deadbeef          	jal	t4,fffdfe2a <_end+0xfffdb2ca>
    4844:	deadbeef          	jal	t4,fffdfe2e <_end+0xfffdb2ce>
    4848:	deadbeef          	jal	t4,fffdfe32 <_end+0xfffdb2d2>
    484c:	deadbeef          	jal	t4,fffdfe36 <_end+0xfffdb2d6>
    4850:	deadbeef          	jal	t4,fffdfe3a <_end+0xfffdb2da>

00004854 <signature_x5_1>:
    4854:	deadbeef          	jal	t4,fffdfe3e <_end+0xfffdb2de>
    4858:	deadbeef          	jal	t4,fffdfe42 <_end+0xfffdb2e2>
    485c:	deadbeef          	jal	t4,fffdfe46 <_end+0xfffdb2e6>
    4860:	deadbeef          	jal	t4,fffdfe4a <_end+0xfffdb2ea>
    4864:	deadbeef          	jal	t4,fffdfe4e <_end+0xfffdb2ee>
    4868:	deadbeef          	jal	t4,fffdfe52 <_end+0xfffdb2f2>
    486c:	deadbeef          	jal	t4,fffdfe56 <_end+0xfffdb2f6>
    4870:	deadbeef          	jal	t4,fffdfe5a <_end+0xfffdb2fa>
    4874:	deadbeef          	jal	t4,fffdfe5e <_end+0xfffdb2fe>
    4878:	deadbeef          	jal	t4,fffdfe62 <_end+0xfffdb302>
    487c:	deadbeef          	jal	t4,fffdfe66 <_end+0xfffdb306>
    4880:	deadbeef          	jal	t4,fffdfe6a <_end+0xfffdb30a>
    4884:	deadbeef          	jal	t4,fffdfe6e <_end+0xfffdb30e>
    4888:	deadbeef          	jal	t4,fffdfe72 <_end+0xfffdb312>
    488c:	deadbeef          	jal	t4,fffdfe76 <_end+0xfffdb316>
    4890:	deadbeef          	jal	t4,fffdfe7a <_end+0xfffdb31a>
    4894:	deadbeef          	jal	t4,fffdfe7e <_end+0xfffdb31e>
    4898:	deadbeef          	jal	t4,fffdfe82 <_end+0xfffdb322>
    489c:	deadbeef          	jal	t4,fffdfe86 <_end+0xfffdb326>
    48a0:	deadbeef          	jal	t4,fffdfe8a <_end+0xfffdb32a>
    48a4:	deadbeef          	jal	t4,fffdfe8e <_end+0xfffdb32e>
    48a8:	deadbeef          	jal	t4,fffdfe92 <_end+0xfffdb332>
    48ac:	deadbeef          	jal	t4,fffdfe96 <_end+0xfffdb336>
    48b0:	deadbeef          	jal	t4,fffdfe9a <_end+0xfffdb33a>
    48b4:	deadbeef          	jal	t4,fffdfe9e <_end+0xfffdb33e>
    48b8:	deadbeef          	jal	t4,fffdfea2 <_end+0xfffdb342>
    48bc:	deadbeef          	jal	t4,fffdfea6 <_end+0xfffdb346>
    48c0:	deadbeef          	jal	t4,fffdfeaa <_end+0xfffdb34a>
    48c4:	deadbeef          	jal	t4,fffdfeae <_end+0xfffdb34e>
    48c8:	deadbeef          	jal	t4,fffdfeb2 <_end+0xfffdb352>
    48cc:	deadbeef          	jal	t4,fffdfeb6 <_end+0xfffdb356>
    48d0:	deadbeef          	jal	t4,fffdfeba <_end+0xfffdb35a>
    48d4:	deadbeef          	jal	t4,fffdfebe <_end+0xfffdb35e>
    48d8:	deadbeef          	jal	t4,fffdfec2 <_end+0xfffdb362>
    48dc:	deadbeef          	jal	t4,fffdfec6 <_end+0xfffdb366>
    48e0:	deadbeef          	jal	t4,fffdfeca <_end+0xfffdb36a>
    48e4:	deadbeef          	jal	t4,fffdfece <_end+0xfffdb36e>
    48e8:	deadbeef          	jal	t4,fffdfed2 <_end+0xfffdb372>
    48ec:	deadbeef          	jal	t4,fffdfed6 <_end+0xfffdb376>
    48f0:	deadbeef          	jal	t4,fffdfeda <_end+0xfffdb37a>
    48f4:	deadbeef          	jal	t4,fffdfede <_end+0xfffdb37e>
    48f8:	deadbeef          	jal	t4,fffdfee2 <_end+0xfffdb382>
    48fc:	deadbeef          	jal	t4,fffdfee6 <_end+0xfffdb386>
    4900:	deadbeef          	jal	t4,fffdfeea <_end+0xfffdb38a>
    4904:	deadbeef          	jal	t4,fffdfeee <_end+0xfffdb38e>
    4908:	deadbeef          	jal	t4,fffdfef2 <_end+0xfffdb392>
    490c:	deadbeef          	jal	t4,fffdfef6 <_end+0xfffdb396>
    4910:	deadbeef          	jal	t4,fffdfefa <_end+0xfffdb39a>
    4914:	deadbeef          	jal	t4,fffdfefe <_end+0xfffdb39e>
    4918:	deadbeef          	jal	t4,fffdff02 <_end+0xfffdb3a2>
    491c:	deadbeef          	jal	t4,fffdff06 <_end+0xfffdb3a6>
    4920:	deadbeef          	jal	t4,fffdff0a <_end+0xfffdb3aa>
    4924:	deadbeef          	jal	t4,fffdff0e <_end+0xfffdb3ae>
    4928:	deadbeef          	jal	t4,fffdff12 <_end+0xfffdb3b2>
    492c:	deadbeef          	jal	t4,fffdff16 <_end+0xfffdb3b6>
    4930:	deadbeef          	jal	t4,fffdff1a <_end+0xfffdb3ba>
    4934:	deadbeef          	jal	t4,fffdff1e <_end+0xfffdb3be>
    4938:	deadbeef          	jal	t4,fffdff22 <_end+0xfffdb3c2>
    493c:	deadbeef          	jal	t4,fffdff26 <_end+0xfffdb3c6>
    4940:	deadbeef          	jal	t4,fffdff2a <_end+0xfffdb3ca>
    4944:	deadbeef          	jal	t4,fffdff2e <_end+0xfffdb3ce>
    4948:	deadbeef          	jal	t4,fffdff32 <_end+0xfffdb3d2>
    494c:	deadbeef          	jal	t4,fffdff36 <_end+0xfffdb3d6>
    4950:	deadbeef          	jal	t4,fffdff3a <_end+0xfffdb3da>
    4954:	deadbeef          	jal	t4,fffdff3e <_end+0xfffdb3de>
    4958:	deadbeef          	jal	t4,fffdff42 <_end+0xfffdb3e2>
    495c:	deadbeef          	jal	t4,fffdff46 <_end+0xfffdb3e6>
    4960:	deadbeef          	jal	t4,fffdff4a <_end+0xfffdb3ea>
    4964:	deadbeef          	jal	t4,fffdff4e <_end+0xfffdb3ee>
    4968:	deadbeef          	jal	t4,fffdff52 <_end+0xfffdb3f2>
    496c:	deadbeef          	jal	t4,fffdff56 <_end+0xfffdb3f6>
    4970:	deadbeef          	jal	t4,fffdff5a <_end+0xfffdb3fa>
    4974:	deadbeef          	jal	t4,fffdff5e <_end+0xfffdb3fe>
    4978:	deadbeef          	jal	t4,fffdff62 <_end+0xfffdb402>
    497c:	deadbeef          	jal	t4,fffdff66 <_end+0xfffdb406>
    4980:	deadbeef          	jal	t4,fffdff6a <_end+0xfffdb40a>
    4984:	deadbeef          	jal	t4,fffdff6e <_end+0xfffdb40e>
    4988:	deadbeef          	jal	t4,fffdff72 <_end+0xfffdb412>
    498c:	deadbeef          	jal	t4,fffdff76 <_end+0xfffdb416>
    4990:	deadbeef          	jal	t4,fffdff7a <_end+0xfffdb41a>
    4994:	deadbeef          	jal	t4,fffdff7e <_end+0xfffdb41e>
    4998:	deadbeef          	jal	t4,fffdff82 <_end+0xfffdb422>
    499c:	deadbeef          	jal	t4,fffdff86 <_end+0xfffdb426>
    49a0:	deadbeef          	jal	t4,fffdff8a <_end+0xfffdb42a>
    49a4:	deadbeef          	jal	t4,fffdff8e <_end+0xfffdb42e>
    49a8:	deadbeef          	jal	t4,fffdff92 <_end+0xfffdb432>
    49ac:	deadbeef          	jal	t4,fffdff96 <_end+0xfffdb436>
    49b0:	deadbeef          	jal	t4,fffdff9a <_end+0xfffdb43a>
    49b4:	deadbeef          	jal	t4,fffdff9e <_end+0xfffdb43e>
    49b8:	deadbeef          	jal	t4,fffdffa2 <_end+0xfffdb442>
    49bc:	deadbeef          	jal	t4,fffdffa6 <_end+0xfffdb446>
    49c0:	deadbeef          	jal	t4,fffdffaa <_end+0xfffdb44a>
    49c4:	deadbeef          	jal	t4,fffdffae <_end+0xfffdb44e>
    49c8:	deadbeef          	jal	t4,fffdffb2 <_end+0xfffdb452>
    49cc:	deadbeef          	jal	t4,fffdffb6 <_end+0xfffdb456>
    49d0:	deadbeef          	jal	t4,fffdffba <_end+0xfffdb45a>
    49d4:	deadbeef          	jal	t4,fffdffbe <_end+0xfffdb45e>
    49d8:	deadbeef          	jal	t4,fffdffc2 <_end+0xfffdb462>
    49dc:	deadbeef          	jal	t4,fffdffc6 <_end+0xfffdb466>
    49e0:	deadbeef          	jal	t4,fffdffca <_end+0xfffdb46a>
    49e4:	deadbeef          	jal	t4,fffdffce <_end+0xfffdb46e>
    49e8:	deadbeef          	jal	t4,fffdffd2 <_end+0xfffdb472>
    49ec:	deadbeef          	jal	t4,fffdffd6 <_end+0xfffdb476>
    49f0:	deadbeef          	jal	t4,fffdffda <_end+0xfffdb47a>
    49f4:	deadbeef          	jal	t4,fffdffde <_end+0xfffdb47e>
    49f8:	deadbeef          	jal	t4,fffdffe2 <_end+0xfffdb482>
    49fc:	deadbeef          	jal	t4,fffdffe6 <_end+0xfffdb486>
    4a00:	deadbeef          	jal	t4,fffdffea <_end+0xfffdb48a>
    4a04:	deadbeef          	jal	t4,fffdffee <_end+0xfffdb48e>
    4a08:	deadbeef          	jal	t4,fffdfff2 <_end+0xfffdb492>
    4a0c:	deadbeef          	jal	t4,fffdfff6 <_end+0xfffdb496>
    4a10:	deadbeef          	jal	t4,fffdfffa <_end+0xfffdb49a>
    4a14:	deadbeef          	jal	t4,fffdfffe <_end+0xfffdb49e>
    4a18:	deadbeef          	jal	t4,fffe0002 <_end+0xfffdb4a2>
    4a1c:	deadbeef          	jal	t4,fffe0006 <_end+0xfffdb4a6>
    4a20:	deadbeef          	jal	t4,fffe000a <_end+0xfffdb4aa>
    4a24:	deadbeef          	jal	t4,fffe000e <_end+0xfffdb4ae>
    4a28:	deadbeef          	jal	t4,fffe0012 <_end+0xfffdb4b2>
