
/home/alejandro/Escritorio/test_riscv2.5/riscv-compliance/work/rv32i_m/F/fadd_b3-01.elf:     formato del fichero elf32-littleriscv


Desensamblado de la sección .text.init:

00000000 <rvtest_entry_point>:
       0:	feedc0b7          	lui	ra,0xfeedc
       4:	ead08093          	add	ra,ra,-339 # feedbead <_end+0xfeecf87d>
       8:	ff76e137          	lui	sp,0xff76e
       c:	f5610113          	add	sp,sp,-170 # ff76df56 <_end+0xff761926>
      10:	7fbb71b7          	lui	gp,0x7fbb7
      14:	fab18193          	add	gp,gp,-85 # 7fbb6fab <_end+0x7fbaa97b>
      18:	bfddb237          	lui	tp,0xbfddb
      1c:	7d520213          	add	tp,tp,2005 # bfddb7d5 <_end+0xbfdcf1a5>
      20:	00000297          	auipc	t0,0x0
      24:	0d828293          	add	t0,t0,216 # f8 <rvtest_code_begin>
      28:	00008317          	auipc	t1,0x8
      2c:	fd830313          	add	t1,t1,-40 # 8000 <rvtest_data_begin>
      30:	b7fbb3b7          	lui	t2,0xb7fbb
      34:	6fa38393          	add	t2,t2,1786 # b7fbb6fa <_end+0xb7faf0ca>
      38:	5bfde437          	lui	s0,0x5bfde
      3c:	b7d40413          	add	s0,s0,-1155 # 5bfddb7d <_end+0x5bfd154d>
      40:	adfef4b7          	lui	s1,0xadfef
      44:	dbe48493          	add	s1,s1,-578 # adfeedbe <_end+0xadfe278e>
      48:	56ff7537          	lui	a0,0x56ff7
      4c:	6df50513          	add	a0,a0,1759 # 56ff76df <_end+0x56feb0af>
      50:	ab7fc5b7          	lui	a1,0xab7fc
      54:	b6f58593          	add	a1,a1,-1169 # ab7fbb6f <_end+0xab7ef53f>
      58:	d5bfe637          	lui	a2,0xd5bfe
      5c:	db760613          	add	a2,a2,-585 # d5bfddb7 <_end+0xd5bf1787>
      60:	eadff6b7          	lui	a3,0xeadff
      64:	edb68693          	add	a3,a3,-293 # eadfeedb <_end+0xeadf28ab>
      68:	f56ff737          	lui	a4,0xf56ff
      6c:	76d70713          	add	a4,a4,1901 # f56ff76d <_end+0xf56f313d>
      70:	fab807b7          	lui	a5,0xfab80
      74:	bb678793          	add	a5,a5,-1098 # fab7fbb6 <_end+0xfab73586>
      78:	7d5c0837          	lui	a6,0x7d5c0
      7c:	ddb80813          	add	a6,a6,-549 # 7d5bfddb <_end+0x7d5b37ab>
      80:	beae08b7          	lui	a7,0xbeae0
      84:	eed88893          	add	a7,a7,-275 # beadfeed <_end+0xbead38bd>
      88:	df570937          	lui	s2,0xdf570
      8c:	f7690913          	add	s2,s2,-138 # df56ff76 <_end+0xdf563946>
      90:	6fab89b7          	lui	s3,0x6fab8
      94:	fbb98993          	add	s3,s3,-69 # 6fab7fbb <_end+0x6faab98b>
      98:	b7d5ca37          	lui	s4,0xb7d5c
      9c:	fdda0a13          	add	s4,s4,-35 # b7d5bfdd <_end+0xb7d4f9ad>
      a0:	dbeaeab7          	lui	s5,0xdbeae
      a4:	feea8a93          	add	s5,s5,-18 # dbeadfee <_end+0xdbea19be>
      a8:	6df57b37          	lui	s6,0x6df57
      ac:	ff7b0b13          	add	s6,s6,-9 # 6df56ff7 <_end+0x6df4a9c7>
      b0:	b6fabbb7          	lui	s7,0xb6fab
      b4:	7fbb8b93          	add	s7,s7,2043 # b6fab7fb <_end+0xb6f9f1cb>
      b8:	db7d6c37          	lui	s8,0xdb7d6
      bc:	bfdc0c13          	add	s8,s8,-1027 # db7d5bfd <_end+0xdb7c95cd>
      c0:	edbebcb7          	lui	s9,0xedbeb
      c4:	dfec8c93          	add	s9,s9,-514 # edbeadfe <_end+0xedbde7ce>
      c8:	76df5d37          	lui	s10,0x76df5
      cc:	6ffd0d13          	add	s10,s10,1791 # 76df56ff <_end+0x76de90cf>
      d0:	bb6fbdb7          	lui	s11,0xbb6fb
      d4:	b7fd8d93          	add	s11,s11,-1153 # bb6fab7f <_end+0xbb6ee54f>
      d8:	ddb7de37          	lui	t3,0xddb7d
      dc:	5bfe0e13          	add	t3,t3,1471 # ddb7d5bf <_end+0xddb70f8f>
      e0:	eedbfeb7          	lui	t4,0xeedbf
      e4:	adfe8e93          	add	t4,t4,-1313 # eedbeadf <_end+0xeedb24af>
      e8:	f76dff37          	lui	t5,0xf76df
      ec:	56ff0f13          	add	t5,t5,1391 # f76df56f <_end+0xf76d2f3f>
      f0:	fbb70fb7          	lui	t6,0xfbb70
      f4:	ab7f8f93          	add	t6,t6,-1353 # fbb6fab7 <_end+0xfbb63487>

000000f8 <rvtest_code_begin>:
      f8:	00002537          	lui	a0,0x2
      fc:	30052073          	csrs	mstatus,a0
     100:	00008817          	auipc	a6,0x8
     104:	f0480813          	add	a6,a6,-252 # 8004 <test_fp>
     108:	0000a797          	auipc	a5,0xa
     10c:	21878793          	add	a5,a5,536 # a320 <data_begin>

00000110 <inst_0>:
     110:	00082987          	flw	fs3,0(a6)
     114:	00482987          	flw	fs3,4(a6)
     118:	00205073          	fsrmi	zero,0
     11c:	0139f9d3          	fadd.s	fs3,fs3,fs3
     120:	001028f3          	frflags	a7
     124:	0137a027          	fsw	fs3,0(a5)
     128:	0117a223          	sw	a7,4(a5)

0000012c <inst_1>:
     12c:	00882307          	flw	ft6,8(a6)
     130:	00c82807          	flw	fa6,12(a6)
     134:	00225073          	fsrmi	zero,4
     138:	01037853          	fadd.s	fa6,ft6,fa6
     13c:	001028f3          	frflags	a7
     140:	0107a427          	fsw	fa6,8(a5)
     144:	0117a623          	sw	a7,12(a5)

00000148 <inst_2>:
     148:	01082107          	flw	ft2,16(a6)
     14c:	01482507          	flw	fa0,20(a6)
     150:	0021d073          	fsrmi	zero,3
     154:	00a17153          	fadd.s	ft2,ft2,fa0
     158:	001028f3          	frflags	a7
     15c:	0027a827          	fsw	ft2,16(a5)
     160:	0117aa23          	sw	a7,20(a5)

00000164 <inst_3>:
     164:	01882487          	flw	fs1,24(a6)
     168:	01c82e87          	flw	ft9,28(a6)
     16c:	00215073          	fsrmi	zero,2
     170:	01d4fdd3          	fadd.s	fs11,fs1,ft9
     174:	001028f3          	frflags	a7
     178:	01b7ac27          	fsw	fs11,24(a5)
     17c:	0117ae23          	sw	a7,28(a5)

00000180 <inst_4>:
     180:	02082787          	flw	fa5,32(a6)
     184:	02482787          	flw	fa5,36(a6)
     188:	0020d073          	fsrmi	zero,1
     18c:	00f7f953          	fadd.s	fs2,fa5,fa5
     190:	001028f3          	frflags	a7
     194:	0327a027          	fsw	fs2,32(a5)
     198:	0317a223          	sw	a7,36(a5)

0000019c <inst_5>:
     19c:	02882a07          	flw	fs4,40(a6)
     1a0:	02c82187          	flw	ft3,44(a6)
     1a4:	00205073          	fsrmi	zero,0
     1a8:	003a7453          	fadd.s	fs0,fs4,ft3
     1ac:	001028f3          	frflags	a7
     1b0:	0287a427          	fsw	fs0,40(a5)
     1b4:	0317a623          	sw	a7,44(a5)

000001b8 <inst_6>:
     1b8:	03082287          	flw	ft5,48(a6)
     1bc:	03482d07          	flw	fs10,52(a6)
     1c0:	00225073          	fsrmi	zero,4
     1c4:	01a2f1d3          	fadd.s	ft3,ft5,fs10
     1c8:	001028f3          	frflags	a7
     1cc:	0237a827          	fsw	ft3,48(a5)
     1d0:	0317aa23          	sw	a7,52(a5)

000001d4 <inst_7>:
     1d4:	03882a87          	flw	fs5,56(a6)
     1d8:	03c82b07          	flw	fs6,60(a6)
     1dc:	0021d073          	fsrmi	zero,3
     1e0:	016af4d3          	fadd.s	fs1,fs5,fs6
     1e4:	001028f3          	frflags	a7
     1e8:	0297ac27          	fsw	fs1,56(a5)
     1ec:	0317ae23          	sw	a7,60(a5)

000001f0 <inst_8>:
     1f0:	04082607          	flw	fa2,64(a6)
     1f4:	04482b87          	flw	fs7,68(a6)
     1f8:	00215073          	fsrmi	zero,2
     1fc:	017676d3          	fadd.s	fa3,fa2,fs7
     200:	001028f3          	frflags	a7
     204:	04d7a027          	fsw	fa3,64(a5)
     208:	0517a223          	sw	a7,68(a5)

0000020c <inst_9>:
     20c:	04882187          	flw	ft3,72(a6)
     210:	04c82387          	flw	ft7,76(a6)
     214:	0020d073          	fsrmi	zero,1
     218:	0071f253          	fadd.s	ft4,ft3,ft7
     21c:	001028f3          	frflags	a7
     220:	0447a427          	fsw	ft4,72(a5)
     224:	0517a623          	sw	a7,76(a5)

00000228 <inst_10>:
     228:	05082887          	flw	fa7,80(a6)
     22c:	05482587          	flw	fa1,84(a6)
     230:	00205073          	fsrmi	zero,0
     234:	00b8fc53          	fadd.s	fs8,fa7,fa1
     238:	001028f3          	frflags	a7
     23c:	0587a827          	fsw	fs8,80(a5)
     240:	0517aa23          	sw	a7,84(a5)

00000244 <inst_11>:
     244:	05882087          	flw	ft1,88(a6)
     248:	05c82687          	flw	fa3,92(a6)
     24c:	00225073          	fsrmi	zero,4
     250:	00d0f553          	fadd.s	fa0,ft1,fa3
     254:	001028f3          	frflags	a7
     258:	04a7ac27          	fsw	fa0,88(a5)
     25c:	0517ae23          	sw	a7,92(a5)

00000260 <inst_12>:
     260:	06082007          	flw	ft0,96(a6)
     264:	06482f07          	flw	ft10,100(a6)
     268:	0021d073          	fsrmi	zero,3
     26c:	01e077d3          	fadd.s	fa5,ft0,ft10
     270:	001028f3          	frflags	a7
     274:	06f7a027          	fsw	fa5,96(a5)
     278:	0717a223          	sw	a7,100(a5)

0000027c <inst_13>:
     27c:	06882b87          	flw	fs7,104(a6)
     280:	06c82a07          	flw	fs4,108(a6)
     284:	00215073          	fsrmi	zero,2
     288:	014bfcd3          	fadd.s	fs9,fs7,fs4
     28c:	001028f3          	frflags	a7
     290:	0797a427          	fsw	fs9,104(a5)
     294:	0717a623          	sw	a7,108(a5)

00000298 <inst_14>:
     298:	07082c87          	flw	fs9,112(a6)
     29c:	07482307          	flw	ft6,116(a6)
     2a0:	0020d073          	fsrmi	zero,1
     2a4:	006cf753          	fadd.s	fa4,fs9,ft6
     2a8:	001028f3          	frflags	a7
     2ac:	06e7a827          	fsw	fa4,112(a5)
     2b0:	0717aa23          	sw	a7,116(a5)

000002b4 <inst_15>:
     2b4:	07882707          	flw	fa4,120(a6)
     2b8:	07c82487          	flw	fs1,124(a6)
     2bc:	00205073          	fsrmi	zero,0
     2c0:	009773d3          	fadd.s	ft7,fa4,fs1
     2c4:	001028f3          	frflags	a7
     2c8:	0677ac27          	fsw	ft7,120(a5)
     2cc:	0717ae23          	sw	a7,124(a5)

000002d0 <inst_16>:
     2d0:	08082e07          	flw	ft8,128(a6)
     2d4:	08482007          	flw	ft0,132(a6)
     2d8:	00225073          	fsrmi	zero,4
     2dc:	000e70d3          	fadd.s	ft1,ft8,ft0
     2e0:	001028f3          	frflags	a7
     2e4:	0817a027          	fsw	ft1,128(a5)
     2e8:	0917a223          	sw	a7,132(a5)

000002ec <inst_17>:
     2ec:	08882807          	flw	fa6,136(a6)
     2f0:	08c82407          	flw	fs0,140(a6)
     2f4:	0021d073          	fsrmi	zero,3
     2f8:	00887f53          	fadd.s	ft10,fa6,fs0
     2fc:	001028f3          	frflags	a7
     300:	09e7a427          	fsw	ft10,136(a5)
     304:	0917a623          	sw	a7,140(a5)

00000308 <inst_18>:
     308:	09082507          	flw	fa0,144(a6)
     30c:	09482707          	flw	fa4,148(a6)
     310:	00215073          	fsrmi	zero,2
     314:	00e57fd3          	fadd.s	ft11,fa0,fa4
     318:	001028f3          	frflags	a7
     31c:	09f7a827          	fsw	ft11,144(a5)
     320:	0917aa23          	sw	a7,148(a5)

00000324 <inst_19>:
     324:	09882387          	flw	ft7,152(a6)
     328:	09c82d87          	flw	fs11,156(a6)
     32c:	0020d073          	fsrmi	zero,1
     330:	01b3f8d3          	fadd.s	fa7,ft7,fs11
     334:	001028f3          	frflags	a7
     338:	0917ac27          	fsw	fa7,152(a5)
     33c:	0917ae23          	sw	a7,156(a5)

00000340 <inst_20>:
     340:	0a082907          	flw	fs2,160(a6)
     344:	0a482287          	flw	ft5,164(a6)
     348:	00205073          	fsrmi	zero,0
     34c:	00597e53          	fadd.s	ft8,fs2,ft5
     350:	001028f3          	frflags	a7
     354:	0bc7a027          	fsw	ft8,160(a5)
     358:	0b17a223          	sw	a7,164(a5)

0000035c <inst_21>:
     35c:	0a882f07          	flw	ft10,168(a6)
     360:	0ac82087          	flw	ft1,172(a6)
     364:	00225073          	fsrmi	zero,4
     368:	001f7653          	fadd.s	fa2,ft10,ft1
     36c:	001028f3          	frflags	a7
     370:	0ac7a427          	fsw	fa2,168(a5)
     374:	0b17a623          	sw	a7,172(a5)

00000378 <inst_22>:
     378:	0b082b07          	flw	fs6,176(a6)
     37c:	0b482887          	flw	fa7,180(a6)
     380:	0021d073          	fsrmi	zero,3
     384:	011b7bd3          	fadd.s	fs7,fs6,fa7
     388:	001028f3          	frflags	a7
     38c:	0b77a827          	fsw	fs7,176(a5)
     390:	0b17aa23          	sw	a7,180(a5)

00000394 <inst_23>:
     394:	0b882d87          	flw	fs11,184(a6)
     398:	0bc82c87          	flw	fs9,188(a6)
     39c:	00215073          	fsrmi	zero,2
     3a0:	019df053          	fadd.s	ft0,fs11,fs9
     3a4:	001028f3          	frflags	a7
     3a8:	0a07ac27          	fsw	ft0,184(a5)
     3ac:	0b17ae23          	sw	a7,188(a5)

000003b0 <inst_24>:
     3b0:	0c082687          	flw	fa3,192(a6)
     3b4:	0c482f87          	flw	ft11,196(a6)
     3b8:	0020d073          	fsrmi	zero,1
     3bc:	01f6f5d3          	fadd.s	fa1,fa3,ft11
     3c0:	001028f3          	frflags	a7
     3c4:	0cb7a027          	fsw	fa1,192(a5)
     3c8:	0d17a223          	sw	a7,196(a5)

000003cc <inst_25>:
     3cc:	0c882207          	flw	ft4,200(a6)
     3d0:	0cc82c07          	flw	fs8,204(a6)
     3d4:	00205073          	fsrmi	zero,0
     3d8:	01827b53          	fadd.s	fs6,ft4,fs8
     3dc:	001028f3          	frflags	a7
     3e0:	0d67a427          	fsw	fs6,200(a5)
     3e4:	0d17a623          	sw	a7,204(a5)

000003e8 <inst_26>:
     3e8:	0d082e87          	flw	ft9,208(a6)
     3ec:	0d482907          	flw	fs2,212(a6)
     3f0:	00225073          	fsrmi	zero,4
     3f4:	012ef2d3          	fadd.s	ft5,ft9,fs2
     3f8:	001028f3          	frflags	a7
     3fc:	0c57a827          	fsw	ft5,208(a5)
     400:	0d17aa23          	sw	a7,212(a5)

00000404 <inst_27>:
     404:	0d882407          	flw	fs0,216(a6)
     408:	0dc82107          	flw	ft2,220(a6)
     40c:	0021d073          	fsrmi	zero,3
     410:	00247d53          	fadd.s	fs10,fs0,ft2
     414:	001028f3          	frflags	a7
     418:	0da7ac27          	fsw	fs10,216(a5)
     41c:	0d17ae23          	sw	a7,220(a5)

00000420 <inst_28>:
     420:	0e082c07          	flw	fs8,224(a6)
     424:	0e482a87          	flw	fs5,228(a6)
     428:	00215073          	fsrmi	zero,2
     42c:	015c7353          	fadd.s	ft6,fs8,fs5
     430:	001028f3          	frflags	a7
     434:	0e67a027          	fsw	ft6,224(a5)
     438:	0f17a223          	sw	a7,228(a5)

0000043c <inst_29>:
     43c:	0e882f87          	flw	ft11,232(a6)
     440:	0ec82e07          	flw	ft8,236(a6)
     444:	0020d073          	fsrmi	zero,1
     448:	01cffad3          	fadd.s	fs5,ft11,ft8
     44c:	001028f3          	frflags	a7
     450:	0f57a427          	fsw	fs5,232(a5)
     454:	0f17a623          	sw	a7,236(a5)

00000458 <inst_30>:
     458:	0f082587          	flw	fa1,240(a6)
     45c:	0f482607          	flw	fa2,244(a6)
     460:	00205073          	fsrmi	zero,0
     464:	00c5fa53          	fadd.s	fs4,fa1,fa2
     468:	001028f3          	frflags	a7
     46c:	0f47a827          	fsw	fs4,240(a5)
     470:	0f17aa23          	sw	a7,244(a5)

00000474 <inst_31>:
     474:	0f882d07          	flw	fs10,248(a6)
     478:	0fc82207          	flw	ft4,252(a6)
     47c:	00225073          	fsrmi	zero,4
     480:	004d7ed3          	fadd.s	ft9,fs10,ft4
     484:	001028f3          	frflags	a7
     488:	0fd7ac27          	fsw	ft9,248(a5)
     48c:	0f17ae23          	sw	a7,252(a5)

00000490 <inst_32>:
     490:	10082507          	flw	fa0,256(a6)
     494:	10482587          	flw	fa1,260(a6)
     498:	0021d073          	fsrmi	zero,3
     49c:	00b57653          	fadd.s	fa2,fa0,fa1
     4a0:	001028f3          	frflags	a7
     4a4:	10c7a027          	fsw	fa2,256(a5)
     4a8:	1117a223          	sw	a7,260(a5)

000004ac <inst_33>:
     4ac:	10882507          	flw	fa0,264(a6)
     4b0:	10c82587          	flw	fa1,268(a6)
     4b4:	00215073          	fsrmi	zero,2
     4b8:	00b57653          	fadd.s	fa2,fa0,fa1
     4bc:	001028f3          	frflags	a7
     4c0:	10c7a427          	fsw	fa2,264(a5)
     4c4:	1117a623          	sw	a7,268(a5)

000004c8 <inst_34>:
     4c8:	11082507          	flw	fa0,272(a6)
     4cc:	11482587          	flw	fa1,276(a6)
     4d0:	0020d073          	fsrmi	zero,1
     4d4:	00b57653          	fadd.s	fa2,fa0,fa1
     4d8:	001028f3          	frflags	a7
     4dc:	10c7a827          	fsw	fa2,272(a5)
     4e0:	1117aa23          	sw	a7,276(a5)

000004e4 <inst_35>:
     4e4:	11882507          	flw	fa0,280(a6)
     4e8:	11c82587          	flw	fa1,284(a6)
     4ec:	00205073          	fsrmi	zero,0
     4f0:	00b57653          	fadd.s	fa2,fa0,fa1
     4f4:	001028f3          	frflags	a7
     4f8:	10c7ac27          	fsw	fa2,280(a5)
     4fc:	1117ae23          	sw	a7,284(a5)

00000500 <inst_36>:
     500:	12082507          	flw	fa0,288(a6)
     504:	12482587          	flw	fa1,292(a6)
     508:	00225073          	fsrmi	zero,4
     50c:	00b57653          	fadd.s	fa2,fa0,fa1
     510:	001028f3          	frflags	a7
     514:	12c7a027          	fsw	fa2,288(a5)
     518:	1317a223          	sw	a7,292(a5)

0000051c <inst_37>:
     51c:	12882507          	flw	fa0,296(a6)
     520:	12c82587          	flw	fa1,300(a6)
     524:	0021d073          	fsrmi	zero,3
     528:	00b57653          	fadd.s	fa2,fa0,fa1
     52c:	001028f3          	frflags	a7
     530:	12c7a427          	fsw	fa2,296(a5)
     534:	1317a623          	sw	a7,300(a5)

00000538 <inst_38>:
     538:	13082507          	flw	fa0,304(a6)
     53c:	13482587          	flw	fa1,308(a6)
     540:	00215073          	fsrmi	zero,2
     544:	00b57653          	fadd.s	fa2,fa0,fa1
     548:	001028f3          	frflags	a7
     54c:	12c7a827          	fsw	fa2,304(a5)
     550:	1317aa23          	sw	a7,308(a5)

00000554 <inst_39>:
     554:	13882507          	flw	fa0,312(a6)
     558:	13c82587          	flw	fa1,316(a6)
     55c:	0020d073          	fsrmi	zero,1
     560:	00b57653          	fadd.s	fa2,fa0,fa1
     564:	001028f3          	frflags	a7
     568:	12c7ac27          	fsw	fa2,312(a5)
     56c:	1317ae23          	sw	a7,316(a5)

00000570 <inst_40>:
     570:	14082507          	flw	fa0,320(a6)
     574:	14482587          	flw	fa1,324(a6)
     578:	00205073          	fsrmi	zero,0
     57c:	00b57653          	fadd.s	fa2,fa0,fa1
     580:	001028f3          	frflags	a7
     584:	14c7a027          	fsw	fa2,320(a5)
     588:	1517a223          	sw	a7,324(a5)

0000058c <inst_41>:
     58c:	14882507          	flw	fa0,328(a6)
     590:	14c82587          	flw	fa1,332(a6)
     594:	00225073          	fsrmi	zero,4
     598:	00b57653          	fadd.s	fa2,fa0,fa1
     59c:	001028f3          	frflags	a7
     5a0:	14c7a427          	fsw	fa2,328(a5)
     5a4:	1517a623          	sw	a7,332(a5)

000005a8 <inst_42>:
     5a8:	15082507          	flw	fa0,336(a6)
     5ac:	15482587          	flw	fa1,340(a6)
     5b0:	0021d073          	fsrmi	zero,3
     5b4:	00b57653          	fadd.s	fa2,fa0,fa1
     5b8:	001028f3          	frflags	a7
     5bc:	14c7a827          	fsw	fa2,336(a5)
     5c0:	1517aa23          	sw	a7,340(a5)

000005c4 <inst_43>:
     5c4:	15882507          	flw	fa0,344(a6)
     5c8:	15c82587          	flw	fa1,348(a6)
     5cc:	00215073          	fsrmi	zero,2
     5d0:	00b57653          	fadd.s	fa2,fa0,fa1
     5d4:	001028f3          	frflags	a7
     5d8:	14c7ac27          	fsw	fa2,344(a5)
     5dc:	1517ae23          	sw	a7,348(a5)

000005e0 <inst_44>:
     5e0:	16082507          	flw	fa0,352(a6)
     5e4:	16482587          	flw	fa1,356(a6)
     5e8:	0020d073          	fsrmi	zero,1
     5ec:	00b57653          	fadd.s	fa2,fa0,fa1
     5f0:	001028f3          	frflags	a7
     5f4:	16c7a027          	fsw	fa2,352(a5)
     5f8:	1717a223          	sw	a7,356(a5)

000005fc <inst_45>:
     5fc:	16882507          	flw	fa0,360(a6)
     600:	16c82587          	flw	fa1,364(a6)
     604:	00205073          	fsrmi	zero,0
     608:	00b57653          	fadd.s	fa2,fa0,fa1
     60c:	001028f3          	frflags	a7
     610:	16c7a427          	fsw	fa2,360(a5)
     614:	1717a623          	sw	a7,364(a5)

00000618 <inst_46>:
     618:	17082507          	flw	fa0,368(a6)
     61c:	17482587          	flw	fa1,372(a6)
     620:	00225073          	fsrmi	zero,4
     624:	00b57653          	fadd.s	fa2,fa0,fa1
     628:	001028f3          	frflags	a7
     62c:	16c7a827          	fsw	fa2,368(a5)
     630:	1717aa23          	sw	a7,372(a5)

00000634 <inst_47>:
     634:	17882507          	flw	fa0,376(a6)
     638:	17c82587          	flw	fa1,380(a6)
     63c:	0021d073          	fsrmi	zero,3
     640:	00b57653          	fadd.s	fa2,fa0,fa1
     644:	001028f3          	frflags	a7
     648:	16c7ac27          	fsw	fa2,376(a5)
     64c:	1717ae23          	sw	a7,380(a5)

00000650 <inst_48>:
     650:	18082507          	flw	fa0,384(a6)
     654:	18482587          	flw	fa1,388(a6)
     658:	00215073          	fsrmi	zero,2
     65c:	00b57653          	fadd.s	fa2,fa0,fa1
     660:	001028f3          	frflags	a7
     664:	18c7a027          	fsw	fa2,384(a5)
     668:	1917a223          	sw	a7,388(a5)

0000066c <inst_49>:
     66c:	18882507          	flw	fa0,392(a6)
     670:	18c82587          	flw	fa1,396(a6)
     674:	0020d073          	fsrmi	zero,1
     678:	00b57653          	fadd.s	fa2,fa0,fa1
     67c:	001028f3          	frflags	a7
     680:	18c7a427          	fsw	fa2,392(a5)
     684:	1917a623          	sw	a7,396(a5)

00000688 <inst_50>:
     688:	19082507          	flw	fa0,400(a6)
     68c:	19482587          	flw	fa1,404(a6)
     690:	00205073          	fsrmi	zero,0
     694:	00b57653          	fadd.s	fa2,fa0,fa1
     698:	001028f3          	frflags	a7
     69c:	18c7a827          	fsw	fa2,400(a5)
     6a0:	1917aa23          	sw	a7,404(a5)

000006a4 <inst_51>:
     6a4:	19882507          	flw	fa0,408(a6)
     6a8:	19c82587          	flw	fa1,412(a6)
     6ac:	00225073          	fsrmi	zero,4
     6b0:	00b57653          	fadd.s	fa2,fa0,fa1
     6b4:	001028f3          	frflags	a7
     6b8:	18c7ac27          	fsw	fa2,408(a5)
     6bc:	1917ae23          	sw	a7,412(a5)

000006c0 <inst_52>:
     6c0:	1a082507          	flw	fa0,416(a6)
     6c4:	1a482587          	flw	fa1,420(a6)
     6c8:	0021d073          	fsrmi	zero,3
     6cc:	00b57653          	fadd.s	fa2,fa0,fa1
     6d0:	001028f3          	frflags	a7
     6d4:	1ac7a027          	fsw	fa2,416(a5)
     6d8:	1b17a223          	sw	a7,420(a5)

000006dc <inst_53>:
     6dc:	1a882507          	flw	fa0,424(a6)
     6e0:	1ac82587          	flw	fa1,428(a6)
     6e4:	00215073          	fsrmi	zero,2
     6e8:	00b57653          	fadd.s	fa2,fa0,fa1
     6ec:	001028f3          	frflags	a7
     6f0:	1ac7a427          	fsw	fa2,424(a5)
     6f4:	1b17a623          	sw	a7,428(a5)

000006f8 <inst_54>:
     6f8:	1b082507          	flw	fa0,432(a6)
     6fc:	1b482587          	flw	fa1,436(a6)
     700:	0020d073          	fsrmi	zero,1
     704:	00b57653          	fadd.s	fa2,fa0,fa1
     708:	001028f3          	frflags	a7
     70c:	1ac7a827          	fsw	fa2,432(a5)
     710:	1b17aa23          	sw	a7,436(a5)

00000714 <inst_55>:
     714:	1b882507          	flw	fa0,440(a6)
     718:	1bc82587          	flw	fa1,444(a6)
     71c:	00205073          	fsrmi	zero,0
     720:	00b57653          	fadd.s	fa2,fa0,fa1
     724:	001028f3          	frflags	a7
     728:	1ac7ac27          	fsw	fa2,440(a5)
     72c:	1b17ae23          	sw	a7,444(a5)

00000730 <inst_56>:
     730:	1c082507          	flw	fa0,448(a6)
     734:	1c482587          	flw	fa1,452(a6)
     738:	00225073          	fsrmi	zero,4
     73c:	00b57653          	fadd.s	fa2,fa0,fa1
     740:	001028f3          	frflags	a7
     744:	1cc7a027          	fsw	fa2,448(a5)
     748:	1d17a223          	sw	a7,452(a5)

0000074c <inst_57>:
     74c:	1c882507          	flw	fa0,456(a6)
     750:	1cc82587          	flw	fa1,460(a6)
     754:	0021d073          	fsrmi	zero,3
     758:	00b57653          	fadd.s	fa2,fa0,fa1
     75c:	001028f3          	frflags	a7
     760:	1cc7a427          	fsw	fa2,456(a5)
     764:	1d17a623          	sw	a7,460(a5)

00000768 <inst_58>:
     768:	1d082507          	flw	fa0,464(a6)
     76c:	1d482587          	flw	fa1,468(a6)
     770:	00215073          	fsrmi	zero,2
     774:	00b57653          	fadd.s	fa2,fa0,fa1
     778:	001028f3          	frflags	a7
     77c:	1cc7a827          	fsw	fa2,464(a5)
     780:	1d17aa23          	sw	a7,468(a5)

00000784 <inst_59>:
     784:	1d882507          	flw	fa0,472(a6)
     788:	1dc82587          	flw	fa1,476(a6)
     78c:	0020d073          	fsrmi	zero,1
     790:	00b57653          	fadd.s	fa2,fa0,fa1
     794:	001028f3          	frflags	a7
     798:	1cc7ac27          	fsw	fa2,472(a5)
     79c:	1d17ae23          	sw	a7,476(a5)

000007a0 <inst_60>:
     7a0:	1e082507          	flw	fa0,480(a6)
     7a4:	1e482587          	flw	fa1,484(a6)
     7a8:	00205073          	fsrmi	zero,0
     7ac:	00b57653          	fadd.s	fa2,fa0,fa1
     7b0:	001028f3          	frflags	a7
     7b4:	1ec7a027          	fsw	fa2,480(a5)
     7b8:	1f17a223          	sw	a7,484(a5)

000007bc <inst_61>:
     7bc:	1e882507          	flw	fa0,488(a6)
     7c0:	1ec82587          	flw	fa1,492(a6)
     7c4:	00225073          	fsrmi	zero,4
     7c8:	00b57653          	fadd.s	fa2,fa0,fa1
     7cc:	001028f3          	frflags	a7
     7d0:	1ec7a427          	fsw	fa2,488(a5)
     7d4:	1f17a623          	sw	a7,492(a5)

000007d8 <inst_62>:
     7d8:	1f082507          	flw	fa0,496(a6)
     7dc:	1f482587          	flw	fa1,500(a6)
     7e0:	0021d073          	fsrmi	zero,3
     7e4:	00b57653          	fadd.s	fa2,fa0,fa1
     7e8:	001028f3          	frflags	a7
     7ec:	1ec7a827          	fsw	fa2,496(a5)
     7f0:	1f17aa23          	sw	a7,500(a5)

000007f4 <inst_63>:
     7f4:	1f882507          	flw	fa0,504(a6)
     7f8:	1fc82587          	flw	fa1,508(a6)
     7fc:	00215073          	fsrmi	zero,2
     800:	00b57653          	fadd.s	fa2,fa0,fa1
     804:	001028f3          	frflags	a7
     808:	1ec7ac27          	fsw	fa2,504(a5)
     80c:	1f17ae23          	sw	a7,508(a5)

00000810 <inst_64>:
     810:	20082507          	flw	fa0,512(a6)
     814:	20482587          	flw	fa1,516(a6)
     818:	0020d073          	fsrmi	zero,1
     81c:	00b57653          	fadd.s	fa2,fa0,fa1
     820:	001028f3          	frflags	a7
     824:	20c7a027          	fsw	fa2,512(a5)
     828:	2117a223          	sw	a7,516(a5)

0000082c <inst_65>:
     82c:	20882507          	flw	fa0,520(a6)
     830:	20c82587          	flw	fa1,524(a6)
     834:	00205073          	fsrmi	zero,0
     838:	00b57653          	fadd.s	fa2,fa0,fa1
     83c:	001028f3          	frflags	a7
     840:	20c7a427          	fsw	fa2,520(a5)
     844:	2117a623          	sw	a7,524(a5)

00000848 <inst_66>:
     848:	21082507          	flw	fa0,528(a6)
     84c:	21482587          	flw	fa1,532(a6)
     850:	00225073          	fsrmi	zero,4
     854:	00b57653          	fadd.s	fa2,fa0,fa1
     858:	001028f3          	frflags	a7
     85c:	20c7a827          	fsw	fa2,528(a5)
     860:	2117aa23          	sw	a7,532(a5)

00000864 <inst_67>:
     864:	21882507          	flw	fa0,536(a6)
     868:	21c82587          	flw	fa1,540(a6)
     86c:	0021d073          	fsrmi	zero,3
     870:	00b57653          	fadd.s	fa2,fa0,fa1
     874:	001028f3          	frflags	a7
     878:	20c7ac27          	fsw	fa2,536(a5)
     87c:	2117ae23          	sw	a7,540(a5)

00000880 <inst_68>:
     880:	22082507          	flw	fa0,544(a6)
     884:	22482587          	flw	fa1,548(a6)
     888:	00215073          	fsrmi	zero,2
     88c:	00b57653          	fadd.s	fa2,fa0,fa1
     890:	001028f3          	frflags	a7
     894:	22c7a027          	fsw	fa2,544(a5)
     898:	2317a223          	sw	a7,548(a5)

0000089c <inst_69>:
     89c:	22882507          	flw	fa0,552(a6)
     8a0:	22c82587          	flw	fa1,556(a6)
     8a4:	0020d073          	fsrmi	zero,1
     8a8:	00b57653          	fadd.s	fa2,fa0,fa1
     8ac:	001028f3          	frflags	a7
     8b0:	22c7a427          	fsw	fa2,552(a5)
     8b4:	2317a623          	sw	a7,556(a5)

000008b8 <inst_70>:
     8b8:	23082507          	flw	fa0,560(a6)
     8bc:	23482587          	flw	fa1,564(a6)
     8c0:	00205073          	fsrmi	zero,0
     8c4:	00b57653          	fadd.s	fa2,fa0,fa1
     8c8:	001028f3          	frflags	a7
     8cc:	22c7a827          	fsw	fa2,560(a5)
     8d0:	2317aa23          	sw	a7,564(a5)

000008d4 <inst_71>:
     8d4:	23882507          	flw	fa0,568(a6)
     8d8:	23c82587          	flw	fa1,572(a6)
     8dc:	00225073          	fsrmi	zero,4
     8e0:	00b57653          	fadd.s	fa2,fa0,fa1
     8e4:	001028f3          	frflags	a7
     8e8:	22c7ac27          	fsw	fa2,568(a5)
     8ec:	2317ae23          	sw	a7,572(a5)

000008f0 <inst_72>:
     8f0:	24082507          	flw	fa0,576(a6)
     8f4:	24482587          	flw	fa1,580(a6)
     8f8:	0021d073          	fsrmi	zero,3
     8fc:	00b57653          	fadd.s	fa2,fa0,fa1
     900:	001028f3          	frflags	a7
     904:	24c7a027          	fsw	fa2,576(a5)
     908:	2517a223          	sw	a7,580(a5)

0000090c <inst_73>:
     90c:	24882507          	flw	fa0,584(a6)
     910:	24c82587          	flw	fa1,588(a6)
     914:	00215073          	fsrmi	zero,2
     918:	00b57653          	fadd.s	fa2,fa0,fa1
     91c:	001028f3          	frflags	a7
     920:	24c7a427          	fsw	fa2,584(a5)
     924:	2517a623          	sw	a7,588(a5)

00000928 <inst_74>:
     928:	25082507          	flw	fa0,592(a6)
     92c:	25482587          	flw	fa1,596(a6)
     930:	0020d073          	fsrmi	zero,1
     934:	00b57653          	fadd.s	fa2,fa0,fa1
     938:	001028f3          	frflags	a7
     93c:	24c7a827          	fsw	fa2,592(a5)
     940:	2517aa23          	sw	a7,596(a5)

00000944 <inst_75>:
     944:	25882507          	flw	fa0,600(a6)
     948:	25c82587          	flw	fa1,604(a6)
     94c:	00205073          	fsrmi	zero,0
     950:	00b57653          	fadd.s	fa2,fa0,fa1
     954:	001028f3          	frflags	a7
     958:	24c7ac27          	fsw	fa2,600(a5)
     95c:	2517ae23          	sw	a7,604(a5)

00000960 <inst_76>:
     960:	26082507          	flw	fa0,608(a6)
     964:	26482587          	flw	fa1,612(a6)
     968:	00225073          	fsrmi	zero,4
     96c:	00b57653          	fadd.s	fa2,fa0,fa1
     970:	001028f3          	frflags	a7
     974:	26c7a027          	fsw	fa2,608(a5)
     978:	2717a223          	sw	a7,612(a5)

0000097c <inst_77>:
     97c:	26882507          	flw	fa0,616(a6)
     980:	26c82587          	flw	fa1,620(a6)
     984:	0021d073          	fsrmi	zero,3
     988:	00b57653          	fadd.s	fa2,fa0,fa1
     98c:	001028f3          	frflags	a7
     990:	26c7a427          	fsw	fa2,616(a5)
     994:	2717a623          	sw	a7,620(a5)

00000998 <inst_78>:
     998:	27082507          	flw	fa0,624(a6)
     99c:	27482587          	flw	fa1,628(a6)
     9a0:	00215073          	fsrmi	zero,2
     9a4:	00b57653          	fadd.s	fa2,fa0,fa1
     9a8:	001028f3          	frflags	a7
     9ac:	26c7a827          	fsw	fa2,624(a5)
     9b0:	2717aa23          	sw	a7,628(a5)

000009b4 <inst_79>:
     9b4:	27882507          	flw	fa0,632(a6)
     9b8:	27c82587          	flw	fa1,636(a6)
     9bc:	0020d073          	fsrmi	zero,1
     9c0:	00b57653          	fadd.s	fa2,fa0,fa1
     9c4:	001028f3          	frflags	a7
     9c8:	26c7ac27          	fsw	fa2,632(a5)
     9cc:	2717ae23          	sw	a7,636(a5)

000009d0 <inst_80>:
     9d0:	28082507          	flw	fa0,640(a6)
     9d4:	28482587          	flw	fa1,644(a6)
     9d8:	00205073          	fsrmi	zero,0
     9dc:	00b57653          	fadd.s	fa2,fa0,fa1
     9e0:	001028f3          	frflags	a7
     9e4:	28c7a027          	fsw	fa2,640(a5)
     9e8:	2917a223          	sw	a7,644(a5)

000009ec <inst_81>:
     9ec:	28882507          	flw	fa0,648(a6)
     9f0:	28c82587          	flw	fa1,652(a6)
     9f4:	00225073          	fsrmi	zero,4
     9f8:	00b57653          	fadd.s	fa2,fa0,fa1
     9fc:	001028f3          	frflags	a7
     a00:	28c7a427          	fsw	fa2,648(a5)
     a04:	2917a623          	sw	a7,652(a5)

00000a08 <inst_82>:
     a08:	29082507          	flw	fa0,656(a6)
     a0c:	29482587          	flw	fa1,660(a6)
     a10:	0021d073          	fsrmi	zero,3
     a14:	00b57653          	fadd.s	fa2,fa0,fa1
     a18:	001028f3          	frflags	a7
     a1c:	28c7a827          	fsw	fa2,656(a5)
     a20:	2917aa23          	sw	a7,660(a5)

00000a24 <inst_83>:
     a24:	29882507          	flw	fa0,664(a6)
     a28:	29c82587          	flw	fa1,668(a6)
     a2c:	00215073          	fsrmi	zero,2
     a30:	00b57653          	fadd.s	fa2,fa0,fa1
     a34:	001028f3          	frflags	a7
     a38:	28c7ac27          	fsw	fa2,664(a5)
     a3c:	2917ae23          	sw	a7,668(a5)

00000a40 <inst_84>:
     a40:	2a082507          	flw	fa0,672(a6)
     a44:	2a482587          	flw	fa1,676(a6)
     a48:	0020d073          	fsrmi	zero,1
     a4c:	00b57653          	fadd.s	fa2,fa0,fa1
     a50:	001028f3          	frflags	a7
     a54:	2ac7a027          	fsw	fa2,672(a5)
     a58:	2b17a223          	sw	a7,676(a5)

00000a5c <inst_85>:
     a5c:	2a882507          	flw	fa0,680(a6)
     a60:	2ac82587          	flw	fa1,684(a6)
     a64:	00205073          	fsrmi	zero,0
     a68:	00b57653          	fadd.s	fa2,fa0,fa1
     a6c:	001028f3          	frflags	a7
     a70:	2ac7a427          	fsw	fa2,680(a5)
     a74:	2b17a623          	sw	a7,684(a5)

00000a78 <inst_86>:
     a78:	2b082507          	flw	fa0,688(a6)
     a7c:	2b482587          	flw	fa1,692(a6)
     a80:	00225073          	fsrmi	zero,4
     a84:	00b57653          	fadd.s	fa2,fa0,fa1
     a88:	001028f3          	frflags	a7
     a8c:	2ac7a827          	fsw	fa2,688(a5)
     a90:	2b17aa23          	sw	a7,692(a5)

00000a94 <inst_87>:
     a94:	2b882507          	flw	fa0,696(a6)
     a98:	2bc82587          	flw	fa1,700(a6)
     a9c:	0021d073          	fsrmi	zero,3
     aa0:	00b57653          	fadd.s	fa2,fa0,fa1
     aa4:	001028f3          	frflags	a7
     aa8:	2ac7ac27          	fsw	fa2,696(a5)
     aac:	2b17ae23          	sw	a7,700(a5)

00000ab0 <inst_88>:
     ab0:	2c082507          	flw	fa0,704(a6)
     ab4:	2c482587          	flw	fa1,708(a6)
     ab8:	00215073          	fsrmi	zero,2
     abc:	00b57653          	fadd.s	fa2,fa0,fa1
     ac0:	001028f3          	frflags	a7
     ac4:	2cc7a027          	fsw	fa2,704(a5)
     ac8:	2d17a223          	sw	a7,708(a5)

00000acc <inst_89>:
     acc:	2c882507          	flw	fa0,712(a6)
     ad0:	2cc82587          	flw	fa1,716(a6)
     ad4:	0020d073          	fsrmi	zero,1
     ad8:	00b57653          	fadd.s	fa2,fa0,fa1
     adc:	001028f3          	frflags	a7
     ae0:	2cc7a427          	fsw	fa2,712(a5)
     ae4:	2d17a623          	sw	a7,716(a5)

00000ae8 <inst_90>:
     ae8:	2d082507          	flw	fa0,720(a6)
     aec:	2d482587          	flw	fa1,724(a6)
     af0:	00205073          	fsrmi	zero,0
     af4:	00b57653          	fadd.s	fa2,fa0,fa1
     af8:	001028f3          	frflags	a7
     afc:	2cc7a827          	fsw	fa2,720(a5)
     b00:	2d17aa23          	sw	a7,724(a5)

00000b04 <inst_91>:
     b04:	2d882507          	flw	fa0,728(a6)
     b08:	2dc82587          	flw	fa1,732(a6)
     b0c:	00225073          	fsrmi	zero,4
     b10:	00b57653          	fadd.s	fa2,fa0,fa1
     b14:	001028f3          	frflags	a7
     b18:	2cc7ac27          	fsw	fa2,728(a5)
     b1c:	2d17ae23          	sw	a7,732(a5)

00000b20 <inst_92>:
     b20:	2e082507          	flw	fa0,736(a6)
     b24:	2e482587          	flw	fa1,740(a6)
     b28:	0021d073          	fsrmi	zero,3
     b2c:	00b57653          	fadd.s	fa2,fa0,fa1
     b30:	001028f3          	frflags	a7
     b34:	2ec7a027          	fsw	fa2,736(a5)
     b38:	2f17a223          	sw	a7,740(a5)

00000b3c <inst_93>:
     b3c:	2e882507          	flw	fa0,744(a6)
     b40:	2ec82587          	flw	fa1,748(a6)
     b44:	00215073          	fsrmi	zero,2
     b48:	00b57653          	fadd.s	fa2,fa0,fa1
     b4c:	001028f3          	frflags	a7
     b50:	2ec7a427          	fsw	fa2,744(a5)
     b54:	2f17a623          	sw	a7,748(a5)

00000b58 <inst_94>:
     b58:	2f082507          	flw	fa0,752(a6)
     b5c:	2f482587          	flw	fa1,756(a6)
     b60:	0020d073          	fsrmi	zero,1
     b64:	00b57653          	fadd.s	fa2,fa0,fa1
     b68:	001028f3          	frflags	a7
     b6c:	2ec7a827          	fsw	fa2,752(a5)
     b70:	2f17aa23          	sw	a7,756(a5)

00000b74 <inst_95>:
     b74:	2f882507          	flw	fa0,760(a6)
     b78:	2fc82587          	flw	fa1,764(a6)
     b7c:	00205073          	fsrmi	zero,0
     b80:	00b57653          	fadd.s	fa2,fa0,fa1
     b84:	001028f3          	frflags	a7
     b88:	2ec7ac27          	fsw	fa2,760(a5)
     b8c:	2f17ae23          	sw	a7,764(a5)

00000b90 <inst_96>:
     b90:	30082507          	flw	fa0,768(a6)
     b94:	30482587          	flw	fa1,772(a6)
     b98:	00225073          	fsrmi	zero,4
     b9c:	00b57653          	fadd.s	fa2,fa0,fa1
     ba0:	001028f3          	frflags	a7
     ba4:	30c7a027          	fsw	fa2,768(a5)
     ba8:	3117a223          	sw	a7,772(a5)

00000bac <inst_97>:
     bac:	30882507          	flw	fa0,776(a6)
     bb0:	30c82587          	flw	fa1,780(a6)
     bb4:	0021d073          	fsrmi	zero,3
     bb8:	00b57653          	fadd.s	fa2,fa0,fa1
     bbc:	001028f3          	frflags	a7
     bc0:	30c7a427          	fsw	fa2,776(a5)
     bc4:	3117a623          	sw	a7,780(a5)

00000bc8 <inst_98>:
     bc8:	31082507          	flw	fa0,784(a6)
     bcc:	31482587          	flw	fa1,788(a6)
     bd0:	00215073          	fsrmi	zero,2
     bd4:	00b57653          	fadd.s	fa2,fa0,fa1
     bd8:	001028f3          	frflags	a7
     bdc:	30c7a827          	fsw	fa2,784(a5)
     be0:	3117aa23          	sw	a7,788(a5)

00000be4 <inst_99>:
     be4:	31882507          	flw	fa0,792(a6)
     be8:	31c82587          	flw	fa1,796(a6)
     bec:	0020d073          	fsrmi	zero,1
     bf0:	00b57653          	fadd.s	fa2,fa0,fa1
     bf4:	001028f3          	frflags	a7
     bf8:	30c7ac27          	fsw	fa2,792(a5)
     bfc:	3117ae23          	sw	a7,796(a5)

00000c00 <inst_100>:
     c00:	32082507          	flw	fa0,800(a6)
     c04:	32482587          	flw	fa1,804(a6)
     c08:	00205073          	fsrmi	zero,0
     c0c:	00b57653          	fadd.s	fa2,fa0,fa1
     c10:	001028f3          	frflags	a7
     c14:	32c7a027          	fsw	fa2,800(a5)
     c18:	3317a223          	sw	a7,804(a5)

00000c1c <inst_101>:
     c1c:	32882507          	flw	fa0,808(a6)
     c20:	32c82587          	flw	fa1,812(a6)
     c24:	00225073          	fsrmi	zero,4
     c28:	00b57653          	fadd.s	fa2,fa0,fa1
     c2c:	001028f3          	frflags	a7
     c30:	32c7a427          	fsw	fa2,808(a5)
     c34:	3317a623          	sw	a7,812(a5)

00000c38 <inst_102>:
     c38:	33082507          	flw	fa0,816(a6)
     c3c:	33482587          	flw	fa1,820(a6)
     c40:	0021d073          	fsrmi	zero,3
     c44:	00b57653          	fadd.s	fa2,fa0,fa1
     c48:	001028f3          	frflags	a7
     c4c:	32c7a827          	fsw	fa2,816(a5)
     c50:	3317aa23          	sw	a7,820(a5)

00000c54 <inst_103>:
     c54:	33882507          	flw	fa0,824(a6)
     c58:	33c82587          	flw	fa1,828(a6)
     c5c:	00215073          	fsrmi	zero,2
     c60:	00b57653          	fadd.s	fa2,fa0,fa1
     c64:	001028f3          	frflags	a7
     c68:	32c7ac27          	fsw	fa2,824(a5)
     c6c:	3317ae23          	sw	a7,828(a5)

00000c70 <inst_104>:
     c70:	34082507          	flw	fa0,832(a6)
     c74:	34482587          	flw	fa1,836(a6)
     c78:	0020d073          	fsrmi	zero,1
     c7c:	00b57653          	fadd.s	fa2,fa0,fa1
     c80:	001028f3          	frflags	a7
     c84:	34c7a027          	fsw	fa2,832(a5)
     c88:	3517a223          	sw	a7,836(a5)

00000c8c <inst_105>:
     c8c:	34882507          	flw	fa0,840(a6)
     c90:	34c82587          	flw	fa1,844(a6)
     c94:	00205073          	fsrmi	zero,0
     c98:	00b57653          	fadd.s	fa2,fa0,fa1
     c9c:	001028f3          	frflags	a7
     ca0:	34c7a427          	fsw	fa2,840(a5)
     ca4:	3517a623          	sw	a7,844(a5)

00000ca8 <inst_106>:
     ca8:	35082507          	flw	fa0,848(a6)
     cac:	35482587          	flw	fa1,852(a6)
     cb0:	00225073          	fsrmi	zero,4
     cb4:	00b57653          	fadd.s	fa2,fa0,fa1
     cb8:	001028f3          	frflags	a7
     cbc:	34c7a827          	fsw	fa2,848(a5)
     cc0:	3517aa23          	sw	a7,852(a5)

00000cc4 <inst_107>:
     cc4:	35882507          	flw	fa0,856(a6)
     cc8:	35c82587          	flw	fa1,860(a6)
     ccc:	0021d073          	fsrmi	zero,3
     cd0:	00b57653          	fadd.s	fa2,fa0,fa1
     cd4:	001028f3          	frflags	a7
     cd8:	34c7ac27          	fsw	fa2,856(a5)
     cdc:	3517ae23          	sw	a7,860(a5)

00000ce0 <inst_108>:
     ce0:	36082507          	flw	fa0,864(a6)
     ce4:	36482587          	flw	fa1,868(a6)
     ce8:	00215073          	fsrmi	zero,2
     cec:	00b57653          	fadd.s	fa2,fa0,fa1
     cf0:	001028f3          	frflags	a7
     cf4:	36c7a027          	fsw	fa2,864(a5)
     cf8:	3717a223          	sw	a7,868(a5)

00000cfc <inst_109>:
     cfc:	36882507          	flw	fa0,872(a6)
     d00:	36c82587          	flw	fa1,876(a6)
     d04:	0020d073          	fsrmi	zero,1
     d08:	00b57653          	fadd.s	fa2,fa0,fa1
     d0c:	001028f3          	frflags	a7
     d10:	36c7a427          	fsw	fa2,872(a5)
     d14:	3717a623          	sw	a7,876(a5)

00000d18 <inst_110>:
     d18:	37082507          	flw	fa0,880(a6)
     d1c:	37482587          	flw	fa1,884(a6)
     d20:	00205073          	fsrmi	zero,0
     d24:	00b57653          	fadd.s	fa2,fa0,fa1
     d28:	001028f3          	frflags	a7
     d2c:	36c7a827          	fsw	fa2,880(a5)
     d30:	3717aa23          	sw	a7,884(a5)

00000d34 <inst_111>:
     d34:	37882507          	flw	fa0,888(a6)
     d38:	37c82587          	flw	fa1,892(a6)
     d3c:	00225073          	fsrmi	zero,4
     d40:	00b57653          	fadd.s	fa2,fa0,fa1
     d44:	001028f3          	frflags	a7
     d48:	36c7ac27          	fsw	fa2,888(a5)
     d4c:	3717ae23          	sw	a7,892(a5)

00000d50 <inst_112>:
     d50:	38082507          	flw	fa0,896(a6)
     d54:	38482587          	flw	fa1,900(a6)
     d58:	0021d073          	fsrmi	zero,3
     d5c:	00b57653          	fadd.s	fa2,fa0,fa1
     d60:	001028f3          	frflags	a7
     d64:	38c7a027          	fsw	fa2,896(a5)
     d68:	3917a223          	sw	a7,900(a5)

00000d6c <inst_113>:
     d6c:	38882507          	flw	fa0,904(a6)
     d70:	38c82587          	flw	fa1,908(a6)
     d74:	00215073          	fsrmi	zero,2
     d78:	00b57653          	fadd.s	fa2,fa0,fa1
     d7c:	001028f3          	frflags	a7
     d80:	38c7a427          	fsw	fa2,904(a5)
     d84:	3917a623          	sw	a7,908(a5)

00000d88 <inst_114>:
     d88:	39082507          	flw	fa0,912(a6)
     d8c:	39482587          	flw	fa1,916(a6)
     d90:	0020d073          	fsrmi	zero,1
     d94:	00b57653          	fadd.s	fa2,fa0,fa1
     d98:	001028f3          	frflags	a7
     d9c:	38c7a827          	fsw	fa2,912(a5)
     da0:	3917aa23          	sw	a7,916(a5)

00000da4 <inst_115>:
     da4:	39882507          	flw	fa0,920(a6)
     da8:	39c82587          	flw	fa1,924(a6)
     dac:	00205073          	fsrmi	zero,0
     db0:	00b57653          	fadd.s	fa2,fa0,fa1
     db4:	001028f3          	frflags	a7
     db8:	38c7ac27          	fsw	fa2,920(a5)
     dbc:	3917ae23          	sw	a7,924(a5)

00000dc0 <inst_116>:
     dc0:	3a082507          	flw	fa0,928(a6)
     dc4:	3a482587          	flw	fa1,932(a6)
     dc8:	00225073          	fsrmi	zero,4
     dcc:	00b57653          	fadd.s	fa2,fa0,fa1
     dd0:	001028f3          	frflags	a7
     dd4:	3ac7a027          	fsw	fa2,928(a5)
     dd8:	3b17a223          	sw	a7,932(a5)

00000ddc <inst_117>:
     ddc:	3a882507          	flw	fa0,936(a6)
     de0:	3ac82587          	flw	fa1,940(a6)
     de4:	0021d073          	fsrmi	zero,3
     de8:	00b57653          	fadd.s	fa2,fa0,fa1
     dec:	001028f3          	frflags	a7
     df0:	3ac7a427          	fsw	fa2,936(a5)
     df4:	3b17a623          	sw	a7,940(a5)

00000df8 <inst_118>:
     df8:	3b082507          	flw	fa0,944(a6)
     dfc:	3b482587          	flw	fa1,948(a6)
     e00:	00215073          	fsrmi	zero,2
     e04:	00b57653          	fadd.s	fa2,fa0,fa1
     e08:	001028f3          	frflags	a7
     e0c:	3ac7a827          	fsw	fa2,944(a5)
     e10:	3b17aa23          	sw	a7,948(a5)

00000e14 <inst_119>:
     e14:	3b882507          	flw	fa0,952(a6)
     e18:	3bc82587          	flw	fa1,956(a6)
     e1c:	0020d073          	fsrmi	zero,1
     e20:	00b57653          	fadd.s	fa2,fa0,fa1
     e24:	001028f3          	frflags	a7
     e28:	3ac7ac27          	fsw	fa2,952(a5)
     e2c:	3b17ae23          	sw	a7,956(a5)

00000e30 <inst_120>:
     e30:	3c082507          	flw	fa0,960(a6)
     e34:	3c482587          	flw	fa1,964(a6)
     e38:	00205073          	fsrmi	zero,0
     e3c:	00b57653          	fadd.s	fa2,fa0,fa1
     e40:	001028f3          	frflags	a7
     e44:	3cc7a027          	fsw	fa2,960(a5)
     e48:	3d17a223          	sw	a7,964(a5)

00000e4c <inst_121>:
     e4c:	3c882507          	flw	fa0,968(a6)
     e50:	3cc82587          	flw	fa1,972(a6)
     e54:	00225073          	fsrmi	zero,4
     e58:	00b57653          	fadd.s	fa2,fa0,fa1
     e5c:	001028f3          	frflags	a7
     e60:	3cc7a427          	fsw	fa2,968(a5)
     e64:	3d17a623          	sw	a7,972(a5)

00000e68 <inst_122>:
     e68:	3d082507          	flw	fa0,976(a6)
     e6c:	3d482587          	flw	fa1,980(a6)
     e70:	0021d073          	fsrmi	zero,3
     e74:	00b57653          	fadd.s	fa2,fa0,fa1
     e78:	001028f3          	frflags	a7
     e7c:	3cc7a827          	fsw	fa2,976(a5)
     e80:	3d17aa23          	sw	a7,980(a5)

00000e84 <inst_123>:
     e84:	3d882507          	flw	fa0,984(a6)
     e88:	3dc82587          	flw	fa1,988(a6)
     e8c:	00215073          	fsrmi	zero,2
     e90:	00b57653          	fadd.s	fa2,fa0,fa1
     e94:	001028f3          	frflags	a7
     e98:	3cc7ac27          	fsw	fa2,984(a5)
     e9c:	3d17ae23          	sw	a7,988(a5)

00000ea0 <inst_124>:
     ea0:	3e082507          	flw	fa0,992(a6)
     ea4:	3e482587          	flw	fa1,996(a6)
     ea8:	0020d073          	fsrmi	zero,1
     eac:	00b57653          	fadd.s	fa2,fa0,fa1
     eb0:	001028f3          	frflags	a7
     eb4:	3ec7a027          	fsw	fa2,992(a5)
     eb8:	3f17a223          	sw	a7,996(a5)

00000ebc <inst_125>:
     ebc:	3e882507          	flw	fa0,1000(a6)
     ec0:	3ec82587          	flw	fa1,1004(a6)
     ec4:	00205073          	fsrmi	zero,0
     ec8:	00b57653          	fadd.s	fa2,fa0,fa1
     ecc:	001028f3          	frflags	a7
     ed0:	3ec7a427          	fsw	fa2,1000(a5)
     ed4:	3f17a623          	sw	a7,1004(a5)

00000ed8 <inst_126>:
     ed8:	3f082507          	flw	fa0,1008(a6)
     edc:	3f482587          	flw	fa1,1012(a6)
     ee0:	00225073          	fsrmi	zero,4
     ee4:	00b57653          	fadd.s	fa2,fa0,fa1
     ee8:	001028f3          	frflags	a7
     eec:	3ec7a827          	fsw	fa2,1008(a5)
     ef0:	3f17aa23          	sw	a7,1012(a5)

00000ef4 <inst_127>:
     ef4:	3f882507          	flw	fa0,1016(a6)
     ef8:	3fc82587          	flw	fa1,1020(a6)
     efc:	0021d073          	fsrmi	zero,3
     f00:	00b57653          	fadd.s	fa2,fa0,fa1
     f04:	001028f3          	frflags	a7
     f08:	3ec7ac27          	fsw	fa2,1016(a5)
     f0c:	3f17ae23          	sw	a7,1020(a5)

00000f10 <inst_128>:
     f10:	40082507          	flw	fa0,1024(a6)
     f14:	40482587          	flw	fa1,1028(a6)
     f18:	00215073          	fsrmi	zero,2
     f1c:	00b57653          	fadd.s	fa2,fa0,fa1
     f20:	001028f3          	frflags	a7
     f24:	40c7a027          	fsw	fa2,1024(a5)
     f28:	4117a223          	sw	a7,1028(a5)

00000f2c <inst_129>:
     f2c:	40882507          	flw	fa0,1032(a6)
     f30:	40c82587          	flw	fa1,1036(a6)
     f34:	0020d073          	fsrmi	zero,1
     f38:	00b57653          	fadd.s	fa2,fa0,fa1
     f3c:	001028f3          	frflags	a7
     f40:	40c7a427          	fsw	fa2,1032(a5)
     f44:	4117a623          	sw	a7,1036(a5)

00000f48 <inst_130>:
     f48:	41082507          	flw	fa0,1040(a6)
     f4c:	41482587          	flw	fa1,1044(a6)
     f50:	00205073          	fsrmi	zero,0
     f54:	00b57653          	fadd.s	fa2,fa0,fa1
     f58:	001028f3          	frflags	a7
     f5c:	40c7a827          	fsw	fa2,1040(a5)
     f60:	4117aa23          	sw	a7,1044(a5)

00000f64 <inst_131>:
     f64:	41882507          	flw	fa0,1048(a6)
     f68:	41c82587          	flw	fa1,1052(a6)
     f6c:	00225073          	fsrmi	zero,4
     f70:	00b57653          	fadd.s	fa2,fa0,fa1
     f74:	001028f3          	frflags	a7
     f78:	40c7ac27          	fsw	fa2,1048(a5)
     f7c:	4117ae23          	sw	a7,1052(a5)

00000f80 <inst_132>:
     f80:	42082507          	flw	fa0,1056(a6)
     f84:	42482587          	flw	fa1,1060(a6)
     f88:	0021d073          	fsrmi	zero,3
     f8c:	00b57653          	fadd.s	fa2,fa0,fa1
     f90:	001028f3          	frflags	a7
     f94:	42c7a027          	fsw	fa2,1056(a5)
     f98:	4317a223          	sw	a7,1060(a5)

00000f9c <inst_133>:
     f9c:	42882507          	flw	fa0,1064(a6)
     fa0:	42c82587          	flw	fa1,1068(a6)
     fa4:	00215073          	fsrmi	zero,2
     fa8:	00b57653          	fadd.s	fa2,fa0,fa1
     fac:	001028f3          	frflags	a7
     fb0:	42c7a427          	fsw	fa2,1064(a5)
     fb4:	4317a623          	sw	a7,1068(a5)

00000fb8 <inst_134>:
     fb8:	43082507          	flw	fa0,1072(a6)
     fbc:	43482587          	flw	fa1,1076(a6)
     fc0:	0020d073          	fsrmi	zero,1
     fc4:	00b57653          	fadd.s	fa2,fa0,fa1
     fc8:	001028f3          	frflags	a7
     fcc:	42c7a827          	fsw	fa2,1072(a5)
     fd0:	4317aa23          	sw	a7,1076(a5)

00000fd4 <inst_135>:
     fd4:	43882507          	flw	fa0,1080(a6)
     fd8:	43c82587          	flw	fa1,1084(a6)
     fdc:	00205073          	fsrmi	zero,0
     fe0:	00b57653          	fadd.s	fa2,fa0,fa1
     fe4:	001028f3          	frflags	a7
     fe8:	42c7ac27          	fsw	fa2,1080(a5)
     fec:	4317ae23          	sw	a7,1084(a5)

00000ff0 <inst_136>:
     ff0:	44082507          	flw	fa0,1088(a6)
     ff4:	44482587          	flw	fa1,1092(a6)
     ff8:	00225073          	fsrmi	zero,4
     ffc:	00b57653          	fadd.s	fa2,fa0,fa1
    1000:	001028f3          	frflags	a7
    1004:	44c7a027          	fsw	fa2,1088(a5)
    1008:	4517a223          	sw	a7,1092(a5)

0000100c <inst_137>:
    100c:	44882507          	flw	fa0,1096(a6)
    1010:	44c82587          	flw	fa1,1100(a6)
    1014:	0021d073          	fsrmi	zero,3
    1018:	00b57653          	fadd.s	fa2,fa0,fa1
    101c:	001028f3          	frflags	a7
    1020:	44c7a427          	fsw	fa2,1096(a5)
    1024:	4517a623          	sw	a7,1100(a5)

00001028 <inst_138>:
    1028:	45082507          	flw	fa0,1104(a6)
    102c:	45482587          	flw	fa1,1108(a6)
    1030:	00215073          	fsrmi	zero,2
    1034:	00b57653          	fadd.s	fa2,fa0,fa1
    1038:	001028f3          	frflags	a7
    103c:	44c7a827          	fsw	fa2,1104(a5)
    1040:	4517aa23          	sw	a7,1108(a5)

00001044 <inst_139>:
    1044:	45882507          	flw	fa0,1112(a6)
    1048:	45c82587          	flw	fa1,1116(a6)
    104c:	0020d073          	fsrmi	zero,1
    1050:	00b57653          	fadd.s	fa2,fa0,fa1
    1054:	001028f3          	frflags	a7
    1058:	44c7ac27          	fsw	fa2,1112(a5)
    105c:	4517ae23          	sw	a7,1116(a5)

00001060 <inst_140>:
    1060:	46082507          	flw	fa0,1120(a6)
    1064:	46482587          	flw	fa1,1124(a6)
    1068:	00205073          	fsrmi	zero,0
    106c:	00b57653          	fadd.s	fa2,fa0,fa1
    1070:	001028f3          	frflags	a7
    1074:	46c7a027          	fsw	fa2,1120(a5)
    1078:	4717a223          	sw	a7,1124(a5)

0000107c <inst_141>:
    107c:	46882507          	flw	fa0,1128(a6)
    1080:	46c82587          	flw	fa1,1132(a6)
    1084:	00225073          	fsrmi	zero,4
    1088:	00b57653          	fadd.s	fa2,fa0,fa1
    108c:	001028f3          	frflags	a7
    1090:	46c7a427          	fsw	fa2,1128(a5)
    1094:	4717a623          	sw	a7,1132(a5)

00001098 <inst_142>:
    1098:	47082507          	flw	fa0,1136(a6)
    109c:	47482587          	flw	fa1,1140(a6)
    10a0:	0021d073          	fsrmi	zero,3
    10a4:	00b57653          	fadd.s	fa2,fa0,fa1
    10a8:	001028f3          	frflags	a7
    10ac:	46c7a827          	fsw	fa2,1136(a5)
    10b0:	4717aa23          	sw	a7,1140(a5)

000010b4 <inst_143>:
    10b4:	47882507          	flw	fa0,1144(a6)
    10b8:	47c82587          	flw	fa1,1148(a6)
    10bc:	00215073          	fsrmi	zero,2
    10c0:	00b57653          	fadd.s	fa2,fa0,fa1
    10c4:	001028f3          	frflags	a7
    10c8:	46c7ac27          	fsw	fa2,1144(a5)
    10cc:	4717ae23          	sw	a7,1148(a5)

000010d0 <inst_144>:
    10d0:	48082507          	flw	fa0,1152(a6)
    10d4:	48482587          	flw	fa1,1156(a6)
    10d8:	0020d073          	fsrmi	zero,1
    10dc:	00b57653          	fadd.s	fa2,fa0,fa1
    10e0:	001028f3          	frflags	a7
    10e4:	48c7a027          	fsw	fa2,1152(a5)
    10e8:	4917a223          	sw	a7,1156(a5)

000010ec <inst_145>:
    10ec:	48882507          	flw	fa0,1160(a6)
    10f0:	48c82587          	flw	fa1,1164(a6)
    10f4:	00205073          	fsrmi	zero,0
    10f8:	00b57653          	fadd.s	fa2,fa0,fa1
    10fc:	001028f3          	frflags	a7
    1100:	48c7a427          	fsw	fa2,1160(a5)
    1104:	4917a623          	sw	a7,1164(a5)

00001108 <inst_146>:
    1108:	49082507          	flw	fa0,1168(a6)
    110c:	49482587          	flw	fa1,1172(a6)
    1110:	00225073          	fsrmi	zero,4
    1114:	00b57653          	fadd.s	fa2,fa0,fa1
    1118:	001028f3          	frflags	a7
    111c:	48c7a827          	fsw	fa2,1168(a5)
    1120:	4917aa23          	sw	a7,1172(a5)

00001124 <inst_147>:
    1124:	49882507          	flw	fa0,1176(a6)
    1128:	49c82587          	flw	fa1,1180(a6)
    112c:	0021d073          	fsrmi	zero,3
    1130:	00b57653          	fadd.s	fa2,fa0,fa1
    1134:	001028f3          	frflags	a7
    1138:	48c7ac27          	fsw	fa2,1176(a5)
    113c:	4917ae23          	sw	a7,1180(a5)

00001140 <inst_148>:
    1140:	4a082507          	flw	fa0,1184(a6)
    1144:	4a482587          	flw	fa1,1188(a6)
    1148:	00215073          	fsrmi	zero,2
    114c:	00b57653          	fadd.s	fa2,fa0,fa1
    1150:	001028f3          	frflags	a7
    1154:	4ac7a027          	fsw	fa2,1184(a5)
    1158:	4b17a223          	sw	a7,1188(a5)

0000115c <inst_149>:
    115c:	4a882507          	flw	fa0,1192(a6)
    1160:	4ac82587          	flw	fa1,1196(a6)
    1164:	0020d073          	fsrmi	zero,1
    1168:	00b57653          	fadd.s	fa2,fa0,fa1
    116c:	001028f3          	frflags	a7
    1170:	4ac7a427          	fsw	fa2,1192(a5)
    1174:	4b17a623          	sw	a7,1196(a5)

00001178 <inst_150>:
    1178:	4b082507          	flw	fa0,1200(a6)
    117c:	4b482587          	flw	fa1,1204(a6)
    1180:	00205073          	fsrmi	zero,0
    1184:	00b57653          	fadd.s	fa2,fa0,fa1
    1188:	001028f3          	frflags	a7
    118c:	4ac7a827          	fsw	fa2,1200(a5)
    1190:	4b17aa23          	sw	a7,1204(a5)

00001194 <inst_151>:
    1194:	4b882507          	flw	fa0,1208(a6)
    1198:	4bc82587          	flw	fa1,1212(a6)
    119c:	00225073          	fsrmi	zero,4
    11a0:	00b57653          	fadd.s	fa2,fa0,fa1
    11a4:	001028f3          	frflags	a7
    11a8:	4ac7ac27          	fsw	fa2,1208(a5)
    11ac:	4b17ae23          	sw	a7,1212(a5)

000011b0 <inst_152>:
    11b0:	4c082507          	flw	fa0,1216(a6)
    11b4:	4c482587          	flw	fa1,1220(a6)
    11b8:	0021d073          	fsrmi	zero,3
    11bc:	00b57653          	fadd.s	fa2,fa0,fa1
    11c0:	001028f3          	frflags	a7
    11c4:	4cc7a027          	fsw	fa2,1216(a5)
    11c8:	4d17a223          	sw	a7,1220(a5)

000011cc <inst_153>:
    11cc:	4c882507          	flw	fa0,1224(a6)
    11d0:	4cc82587          	flw	fa1,1228(a6)
    11d4:	00215073          	fsrmi	zero,2
    11d8:	00b57653          	fadd.s	fa2,fa0,fa1
    11dc:	001028f3          	frflags	a7
    11e0:	4cc7a427          	fsw	fa2,1224(a5)
    11e4:	4d17a623          	sw	a7,1228(a5)

000011e8 <inst_154>:
    11e8:	4d082507          	flw	fa0,1232(a6)
    11ec:	4d482587          	flw	fa1,1236(a6)
    11f0:	0020d073          	fsrmi	zero,1
    11f4:	00b57653          	fadd.s	fa2,fa0,fa1
    11f8:	001028f3          	frflags	a7
    11fc:	4cc7a827          	fsw	fa2,1232(a5)
    1200:	4d17aa23          	sw	a7,1236(a5)

00001204 <inst_155>:
    1204:	4d882507          	flw	fa0,1240(a6)
    1208:	4dc82587          	flw	fa1,1244(a6)
    120c:	00205073          	fsrmi	zero,0
    1210:	00b57653          	fadd.s	fa2,fa0,fa1
    1214:	001028f3          	frflags	a7
    1218:	4cc7ac27          	fsw	fa2,1240(a5)
    121c:	4d17ae23          	sw	a7,1244(a5)

00001220 <inst_156>:
    1220:	4e082507          	flw	fa0,1248(a6)
    1224:	4e482587          	flw	fa1,1252(a6)
    1228:	00225073          	fsrmi	zero,4
    122c:	00b57653          	fadd.s	fa2,fa0,fa1
    1230:	001028f3          	frflags	a7
    1234:	4ec7a027          	fsw	fa2,1248(a5)
    1238:	4f17a223          	sw	a7,1252(a5)

0000123c <inst_157>:
    123c:	4e882507          	flw	fa0,1256(a6)
    1240:	4ec82587          	flw	fa1,1260(a6)
    1244:	0021d073          	fsrmi	zero,3
    1248:	00b57653          	fadd.s	fa2,fa0,fa1
    124c:	001028f3          	frflags	a7
    1250:	4ec7a427          	fsw	fa2,1256(a5)
    1254:	4f17a623          	sw	a7,1260(a5)

00001258 <inst_158>:
    1258:	4f082507          	flw	fa0,1264(a6)
    125c:	4f482587          	flw	fa1,1268(a6)
    1260:	00215073          	fsrmi	zero,2
    1264:	00b57653          	fadd.s	fa2,fa0,fa1
    1268:	001028f3          	frflags	a7
    126c:	4ec7a827          	fsw	fa2,1264(a5)
    1270:	4f17aa23          	sw	a7,1268(a5)

00001274 <inst_159>:
    1274:	4f882507          	flw	fa0,1272(a6)
    1278:	4fc82587          	flw	fa1,1276(a6)
    127c:	0020d073          	fsrmi	zero,1
    1280:	00b57653          	fadd.s	fa2,fa0,fa1
    1284:	001028f3          	frflags	a7
    1288:	4ec7ac27          	fsw	fa2,1272(a5)
    128c:	4f17ae23          	sw	a7,1276(a5)

00001290 <inst_160>:
    1290:	50082507          	flw	fa0,1280(a6)
    1294:	50482587          	flw	fa1,1284(a6)
    1298:	00205073          	fsrmi	zero,0
    129c:	00b57653          	fadd.s	fa2,fa0,fa1
    12a0:	001028f3          	frflags	a7
    12a4:	50c7a027          	fsw	fa2,1280(a5)
    12a8:	5117a223          	sw	a7,1284(a5)

000012ac <inst_161>:
    12ac:	50882507          	flw	fa0,1288(a6)
    12b0:	50c82587          	flw	fa1,1292(a6)
    12b4:	00225073          	fsrmi	zero,4
    12b8:	00b57653          	fadd.s	fa2,fa0,fa1
    12bc:	001028f3          	frflags	a7
    12c0:	50c7a427          	fsw	fa2,1288(a5)
    12c4:	5117a623          	sw	a7,1292(a5)

000012c8 <inst_162>:
    12c8:	51082507          	flw	fa0,1296(a6)
    12cc:	51482587          	flw	fa1,1300(a6)
    12d0:	0021d073          	fsrmi	zero,3
    12d4:	00b57653          	fadd.s	fa2,fa0,fa1
    12d8:	001028f3          	frflags	a7
    12dc:	50c7a827          	fsw	fa2,1296(a5)
    12e0:	5117aa23          	sw	a7,1300(a5)

000012e4 <inst_163>:
    12e4:	51882507          	flw	fa0,1304(a6)
    12e8:	51c82587          	flw	fa1,1308(a6)
    12ec:	00215073          	fsrmi	zero,2
    12f0:	00b57653          	fadd.s	fa2,fa0,fa1
    12f4:	001028f3          	frflags	a7
    12f8:	50c7ac27          	fsw	fa2,1304(a5)
    12fc:	5117ae23          	sw	a7,1308(a5)

00001300 <inst_164>:
    1300:	52082507          	flw	fa0,1312(a6)
    1304:	52482587          	flw	fa1,1316(a6)
    1308:	0020d073          	fsrmi	zero,1
    130c:	00b57653          	fadd.s	fa2,fa0,fa1
    1310:	001028f3          	frflags	a7
    1314:	52c7a027          	fsw	fa2,1312(a5)
    1318:	5317a223          	sw	a7,1316(a5)

0000131c <inst_165>:
    131c:	52882507          	flw	fa0,1320(a6)
    1320:	52c82587          	flw	fa1,1324(a6)
    1324:	00205073          	fsrmi	zero,0
    1328:	00b57653          	fadd.s	fa2,fa0,fa1
    132c:	001028f3          	frflags	a7
    1330:	52c7a427          	fsw	fa2,1320(a5)
    1334:	5317a623          	sw	a7,1324(a5)

00001338 <inst_166>:
    1338:	53082507          	flw	fa0,1328(a6)
    133c:	53482587          	flw	fa1,1332(a6)
    1340:	00225073          	fsrmi	zero,4
    1344:	00b57653          	fadd.s	fa2,fa0,fa1
    1348:	001028f3          	frflags	a7
    134c:	52c7a827          	fsw	fa2,1328(a5)
    1350:	5317aa23          	sw	a7,1332(a5)

00001354 <inst_167>:
    1354:	53882507          	flw	fa0,1336(a6)
    1358:	53c82587          	flw	fa1,1340(a6)
    135c:	0021d073          	fsrmi	zero,3
    1360:	00b57653          	fadd.s	fa2,fa0,fa1
    1364:	001028f3          	frflags	a7
    1368:	52c7ac27          	fsw	fa2,1336(a5)
    136c:	5317ae23          	sw	a7,1340(a5)

00001370 <inst_168>:
    1370:	54082507          	flw	fa0,1344(a6)
    1374:	54482587          	flw	fa1,1348(a6)
    1378:	00215073          	fsrmi	zero,2
    137c:	00b57653          	fadd.s	fa2,fa0,fa1
    1380:	001028f3          	frflags	a7
    1384:	54c7a027          	fsw	fa2,1344(a5)
    1388:	5517a223          	sw	a7,1348(a5)

0000138c <inst_169>:
    138c:	54882507          	flw	fa0,1352(a6)
    1390:	54c82587          	flw	fa1,1356(a6)
    1394:	0020d073          	fsrmi	zero,1
    1398:	00b57653          	fadd.s	fa2,fa0,fa1
    139c:	001028f3          	frflags	a7
    13a0:	54c7a427          	fsw	fa2,1352(a5)
    13a4:	5517a623          	sw	a7,1356(a5)

000013a8 <inst_170>:
    13a8:	55082507          	flw	fa0,1360(a6)
    13ac:	55482587          	flw	fa1,1364(a6)
    13b0:	00205073          	fsrmi	zero,0
    13b4:	00b57653          	fadd.s	fa2,fa0,fa1
    13b8:	001028f3          	frflags	a7
    13bc:	54c7a827          	fsw	fa2,1360(a5)
    13c0:	5517aa23          	sw	a7,1364(a5)

000013c4 <inst_171>:
    13c4:	55882507          	flw	fa0,1368(a6)
    13c8:	55c82587          	flw	fa1,1372(a6)
    13cc:	00225073          	fsrmi	zero,4
    13d0:	00b57653          	fadd.s	fa2,fa0,fa1
    13d4:	001028f3          	frflags	a7
    13d8:	54c7ac27          	fsw	fa2,1368(a5)
    13dc:	5517ae23          	sw	a7,1372(a5)

000013e0 <inst_172>:
    13e0:	56082507          	flw	fa0,1376(a6)
    13e4:	56482587          	flw	fa1,1380(a6)
    13e8:	0021d073          	fsrmi	zero,3
    13ec:	00b57653          	fadd.s	fa2,fa0,fa1
    13f0:	001028f3          	frflags	a7
    13f4:	56c7a027          	fsw	fa2,1376(a5)
    13f8:	5717a223          	sw	a7,1380(a5)

000013fc <inst_173>:
    13fc:	56882507          	flw	fa0,1384(a6)
    1400:	56c82587          	flw	fa1,1388(a6)
    1404:	00215073          	fsrmi	zero,2
    1408:	00b57653          	fadd.s	fa2,fa0,fa1
    140c:	001028f3          	frflags	a7
    1410:	56c7a427          	fsw	fa2,1384(a5)
    1414:	5717a623          	sw	a7,1388(a5)

00001418 <inst_174>:
    1418:	57082507          	flw	fa0,1392(a6)
    141c:	57482587          	flw	fa1,1396(a6)
    1420:	0020d073          	fsrmi	zero,1
    1424:	00b57653          	fadd.s	fa2,fa0,fa1
    1428:	001028f3          	frflags	a7
    142c:	56c7a827          	fsw	fa2,1392(a5)
    1430:	5717aa23          	sw	a7,1396(a5)

00001434 <inst_175>:
    1434:	57882507          	flw	fa0,1400(a6)
    1438:	57c82587          	flw	fa1,1404(a6)
    143c:	00205073          	fsrmi	zero,0
    1440:	00b57653          	fadd.s	fa2,fa0,fa1
    1444:	001028f3          	frflags	a7
    1448:	56c7ac27          	fsw	fa2,1400(a5)
    144c:	5717ae23          	sw	a7,1404(a5)

00001450 <inst_176>:
    1450:	58082507          	flw	fa0,1408(a6)
    1454:	58482587          	flw	fa1,1412(a6)
    1458:	00225073          	fsrmi	zero,4
    145c:	00b57653          	fadd.s	fa2,fa0,fa1
    1460:	001028f3          	frflags	a7
    1464:	58c7a027          	fsw	fa2,1408(a5)
    1468:	5917a223          	sw	a7,1412(a5)

0000146c <inst_177>:
    146c:	58882507          	flw	fa0,1416(a6)
    1470:	58c82587          	flw	fa1,1420(a6)
    1474:	0021d073          	fsrmi	zero,3
    1478:	00b57653          	fadd.s	fa2,fa0,fa1
    147c:	001028f3          	frflags	a7
    1480:	58c7a427          	fsw	fa2,1416(a5)
    1484:	5917a623          	sw	a7,1420(a5)

00001488 <inst_178>:
    1488:	59082507          	flw	fa0,1424(a6)
    148c:	59482587          	flw	fa1,1428(a6)
    1490:	00215073          	fsrmi	zero,2
    1494:	00b57653          	fadd.s	fa2,fa0,fa1
    1498:	001028f3          	frflags	a7
    149c:	58c7a827          	fsw	fa2,1424(a5)
    14a0:	5917aa23          	sw	a7,1428(a5)

000014a4 <inst_179>:
    14a4:	59882507          	flw	fa0,1432(a6)
    14a8:	59c82587          	flw	fa1,1436(a6)
    14ac:	0020d073          	fsrmi	zero,1
    14b0:	00b57653          	fadd.s	fa2,fa0,fa1
    14b4:	001028f3          	frflags	a7
    14b8:	58c7ac27          	fsw	fa2,1432(a5)
    14bc:	5917ae23          	sw	a7,1436(a5)

000014c0 <inst_180>:
    14c0:	5a082507          	flw	fa0,1440(a6)
    14c4:	5a482587          	flw	fa1,1444(a6)
    14c8:	00205073          	fsrmi	zero,0
    14cc:	00b57653          	fadd.s	fa2,fa0,fa1
    14d0:	001028f3          	frflags	a7
    14d4:	5ac7a027          	fsw	fa2,1440(a5)
    14d8:	5b17a223          	sw	a7,1444(a5)

000014dc <inst_181>:
    14dc:	5a882507          	flw	fa0,1448(a6)
    14e0:	5ac82587          	flw	fa1,1452(a6)
    14e4:	00225073          	fsrmi	zero,4
    14e8:	00b57653          	fadd.s	fa2,fa0,fa1
    14ec:	001028f3          	frflags	a7
    14f0:	5ac7a427          	fsw	fa2,1448(a5)
    14f4:	5b17a623          	sw	a7,1452(a5)

000014f8 <inst_182>:
    14f8:	5b082507          	flw	fa0,1456(a6)
    14fc:	5b482587          	flw	fa1,1460(a6)
    1500:	0021d073          	fsrmi	zero,3
    1504:	00b57653          	fadd.s	fa2,fa0,fa1
    1508:	001028f3          	frflags	a7
    150c:	5ac7a827          	fsw	fa2,1456(a5)
    1510:	5b17aa23          	sw	a7,1460(a5)

00001514 <inst_183>:
    1514:	5b882507          	flw	fa0,1464(a6)
    1518:	5bc82587          	flw	fa1,1468(a6)
    151c:	00215073          	fsrmi	zero,2
    1520:	00b57653          	fadd.s	fa2,fa0,fa1
    1524:	001028f3          	frflags	a7
    1528:	5ac7ac27          	fsw	fa2,1464(a5)
    152c:	5b17ae23          	sw	a7,1468(a5)

00001530 <inst_184>:
    1530:	5c082507          	flw	fa0,1472(a6)
    1534:	5c482587          	flw	fa1,1476(a6)
    1538:	0020d073          	fsrmi	zero,1
    153c:	00b57653          	fadd.s	fa2,fa0,fa1
    1540:	001028f3          	frflags	a7
    1544:	5cc7a027          	fsw	fa2,1472(a5)
    1548:	5d17a223          	sw	a7,1476(a5)

0000154c <inst_185>:
    154c:	5c882507          	flw	fa0,1480(a6)
    1550:	5cc82587          	flw	fa1,1484(a6)
    1554:	00205073          	fsrmi	zero,0
    1558:	00b57653          	fadd.s	fa2,fa0,fa1
    155c:	001028f3          	frflags	a7
    1560:	5cc7a427          	fsw	fa2,1480(a5)
    1564:	5d17a623          	sw	a7,1484(a5)

00001568 <inst_186>:
    1568:	5d082507          	flw	fa0,1488(a6)
    156c:	5d482587          	flw	fa1,1492(a6)
    1570:	00225073          	fsrmi	zero,4
    1574:	00b57653          	fadd.s	fa2,fa0,fa1
    1578:	001028f3          	frflags	a7
    157c:	5cc7a827          	fsw	fa2,1488(a5)
    1580:	5d17aa23          	sw	a7,1492(a5)

00001584 <inst_187>:
    1584:	5d882507          	flw	fa0,1496(a6)
    1588:	5dc82587          	flw	fa1,1500(a6)
    158c:	0021d073          	fsrmi	zero,3
    1590:	00b57653          	fadd.s	fa2,fa0,fa1
    1594:	001028f3          	frflags	a7
    1598:	5cc7ac27          	fsw	fa2,1496(a5)
    159c:	5d17ae23          	sw	a7,1500(a5)

000015a0 <inst_188>:
    15a0:	5e082507          	flw	fa0,1504(a6)
    15a4:	5e482587          	flw	fa1,1508(a6)
    15a8:	00215073          	fsrmi	zero,2
    15ac:	00b57653          	fadd.s	fa2,fa0,fa1
    15b0:	001028f3          	frflags	a7
    15b4:	5ec7a027          	fsw	fa2,1504(a5)
    15b8:	5f17a223          	sw	a7,1508(a5)

000015bc <inst_189>:
    15bc:	5e882507          	flw	fa0,1512(a6)
    15c0:	5ec82587          	flw	fa1,1516(a6)
    15c4:	0020d073          	fsrmi	zero,1
    15c8:	00b57653          	fadd.s	fa2,fa0,fa1
    15cc:	001028f3          	frflags	a7
    15d0:	5ec7a427          	fsw	fa2,1512(a5)
    15d4:	5f17a623          	sw	a7,1516(a5)

000015d8 <inst_190>:
    15d8:	5f082507          	flw	fa0,1520(a6)
    15dc:	5f482587          	flw	fa1,1524(a6)
    15e0:	00205073          	fsrmi	zero,0
    15e4:	00b57653          	fadd.s	fa2,fa0,fa1
    15e8:	001028f3          	frflags	a7
    15ec:	5ec7a827          	fsw	fa2,1520(a5)
    15f0:	5f17aa23          	sw	a7,1524(a5)

000015f4 <inst_191>:
    15f4:	5f882507          	flw	fa0,1528(a6)
    15f8:	5fc82587          	flw	fa1,1532(a6)
    15fc:	00225073          	fsrmi	zero,4
    1600:	00b57653          	fadd.s	fa2,fa0,fa1
    1604:	001028f3          	frflags	a7
    1608:	5ec7ac27          	fsw	fa2,1528(a5)
    160c:	5f17ae23          	sw	a7,1532(a5)

00001610 <inst_192>:
    1610:	60082507          	flw	fa0,1536(a6)
    1614:	60482587          	flw	fa1,1540(a6)
    1618:	0021d073          	fsrmi	zero,3
    161c:	00b57653          	fadd.s	fa2,fa0,fa1
    1620:	001028f3          	frflags	a7
    1624:	60c7a027          	fsw	fa2,1536(a5)
    1628:	6117a223          	sw	a7,1540(a5)

0000162c <inst_193>:
    162c:	60882507          	flw	fa0,1544(a6)
    1630:	60c82587          	flw	fa1,1548(a6)
    1634:	00215073          	fsrmi	zero,2
    1638:	00b57653          	fadd.s	fa2,fa0,fa1
    163c:	001028f3          	frflags	a7
    1640:	60c7a427          	fsw	fa2,1544(a5)
    1644:	6117a623          	sw	a7,1548(a5)

00001648 <inst_194>:
    1648:	61082507          	flw	fa0,1552(a6)
    164c:	61482587          	flw	fa1,1556(a6)
    1650:	0020d073          	fsrmi	zero,1
    1654:	00b57653          	fadd.s	fa2,fa0,fa1
    1658:	001028f3          	frflags	a7
    165c:	60c7a827          	fsw	fa2,1552(a5)
    1660:	6117aa23          	sw	a7,1556(a5)

00001664 <inst_195>:
    1664:	61882507          	flw	fa0,1560(a6)
    1668:	61c82587          	flw	fa1,1564(a6)
    166c:	00205073          	fsrmi	zero,0
    1670:	00b57653          	fadd.s	fa2,fa0,fa1
    1674:	001028f3          	frflags	a7
    1678:	60c7ac27          	fsw	fa2,1560(a5)
    167c:	6117ae23          	sw	a7,1564(a5)

00001680 <inst_196>:
    1680:	62082507          	flw	fa0,1568(a6)
    1684:	62482587          	flw	fa1,1572(a6)
    1688:	00225073          	fsrmi	zero,4
    168c:	00b57653          	fadd.s	fa2,fa0,fa1
    1690:	001028f3          	frflags	a7
    1694:	62c7a027          	fsw	fa2,1568(a5)
    1698:	6317a223          	sw	a7,1572(a5)

0000169c <inst_197>:
    169c:	62882507          	flw	fa0,1576(a6)
    16a0:	62c82587          	flw	fa1,1580(a6)
    16a4:	0021d073          	fsrmi	zero,3
    16a8:	00b57653          	fadd.s	fa2,fa0,fa1
    16ac:	001028f3          	frflags	a7
    16b0:	62c7a427          	fsw	fa2,1576(a5)
    16b4:	6317a623          	sw	a7,1580(a5)

000016b8 <inst_198>:
    16b8:	63082507          	flw	fa0,1584(a6)
    16bc:	63482587          	flw	fa1,1588(a6)
    16c0:	00215073          	fsrmi	zero,2
    16c4:	00b57653          	fadd.s	fa2,fa0,fa1
    16c8:	001028f3          	frflags	a7
    16cc:	62c7a827          	fsw	fa2,1584(a5)
    16d0:	6317aa23          	sw	a7,1588(a5)

000016d4 <inst_199>:
    16d4:	63882507          	flw	fa0,1592(a6)
    16d8:	63c82587          	flw	fa1,1596(a6)
    16dc:	0020d073          	fsrmi	zero,1
    16e0:	00b57653          	fadd.s	fa2,fa0,fa1
    16e4:	001028f3          	frflags	a7
    16e8:	62c7ac27          	fsw	fa2,1592(a5)
    16ec:	6317ae23          	sw	a7,1596(a5)

000016f0 <inst_200>:
    16f0:	64082507          	flw	fa0,1600(a6)
    16f4:	64482587          	flw	fa1,1604(a6)
    16f8:	00205073          	fsrmi	zero,0
    16fc:	00b57653          	fadd.s	fa2,fa0,fa1
    1700:	001028f3          	frflags	a7
    1704:	64c7a027          	fsw	fa2,1600(a5)
    1708:	6517a223          	sw	a7,1604(a5)

0000170c <inst_201>:
    170c:	64882507          	flw	fa0,1608(a6)
    1710:	64c82587          	flw	fa1,1612(a6)
    1714:	00225073          	fsrmi	zero,4
    1718:	00b57653          	fadd.s	fa2,fa0,fa1
    171c:	001028f3          	frflags	a7
    1720:	64c7a427          	fsw	fa2,1608(a5)
    1724:	6517a623          	sw	a7,1612(a5)

00001728 <inst_202>:
    1728:	65082507          	flw	fa0,1616(a6)
    172c:	65482587          	flw	fa1,1620(a6)
    1730:	0021d073          	fsrmi	zero,3
    1734:	00b57653          	fadd.s	fa2,fa0,fa1
    1738:	001028f3          	frflags	a7
    173c:	64c7a827          	fsw	fa2,1616(a5)
    1740:	6517aa23          	sw	a7,1620(a5)

00001744 <inst_203>:
    1744:	65882507          	flw	fa0,1624(a6)
    1748:	65c82587          	flw	fa1,1628(a6)
    174c:	00215073          	fsrmi	zero,2
    1750:	00b57653          	fadd.s	fa2,fa0,fa1
    1754:	001028f3          	frflags	a7
    1758:	64c7ac27          	fsw	fa2,1624(a5)
    175c:	6517ae23          	sw	a7,1628(a5)

00001760 <inst_204>:
    1760:	66082507          	flw	fa0,1632(a6)
    1764:	66482587          	flw	fa1,1636(a6)
    1768:	0020d073          	fsrmi	zero,1
    176c:	00b57653          	fadd.s	fa2,fa0,fa1
    1770:	001028f3          	frflags	a7
    1774:	66c7a027          	fsw	fa2,1632(a5)
    1778:	6717a223          	sw	a7,1636(a5)

0000177c <inst_205>:
    177c:	66882507          	flw	fa0,1640(a6)
    1780:	66c82587          	flw	fa1,1644(a6)
    1784:	00205073          	fsrmi	zero,0
    1788:	00b57653          	fadd.s	fa2,fa0,fa1
    178c:	001028f3          	frflags	a7
    1790:	66c7a427          	fsw	fa2,1640(a5)
    1794:	6717a623          	sw	a7,1644(a5)

00001798 <inst_206>:
    1798:	67082507          	flw	fa0,1648(a6)
    179c:	67482587          	flw	fa1,1652(a6)
    17a0:	00225073          	fsrmi	zero,4
    17a4:	00b57653          	fadd.s	fa2,fa0,fa1
    17a8:	001028f3          	frflags	a7
    17ac:	66c7a827          	fsw	fa2,1648(a5)
    17b0:	6717aa23          	sw	a7,1652(a5)

000017b4 <inst_207>:
    17b4:	67882507          	flw	fa0,1656(a6)
    17b8:	67c82587          	flw	fa1,1660(a6)
    17bc:	0021d073          	fsrmi	zero,3
    17c0:	00b57653          	fadd.s	fa2,fa0,fa1
    17c4:	001028f3          	frflags	a7
    17c8:	66c7ac27          	fsw	fa2,1656(a5)
    17cc:	6717ae23          	sw	a7,1660(a5)

000017d0 <inst_208>:
    17d0:	68082507          	flw	fa0,1664(a6)
    17d4:	68482587          	flw	fa1,1668(a6)
    17d8:	00215073          	fsrmi	zero,2
    17dc:	00b57653          	fadd.s	fa2,fa0,fa1
    17e0:	001028f3          	frflags	a7
    17e4:	68c7a027          	fsw	fa2,1664(a5)
    17e8:	6917a223          	sw	a7,1668(a5)

000017ec <inst_209>:
    17ec:	68882507          	flw	fa0,1672(a6)
    17f0:	68c82587          	flw	fa1,1676(a6)
    17f4:	0020d073          	fsrmi	zero,1
    17f8:	00b57653          	fadd.s	fa2,fa0,fa1
    17fc:	001028f3          	frflags	a7
    1800:	68c7a427          	fsw	fa2,1672(a5)
    1804:	6917a623          	sw	a7,1676(a5)

00001808 <inst_210>:
    1808:	69082507          	flw	fa0,1680(a6)
    180c:	69482587          	flw	fa1,1684(a6)
    1810:	00205073          	fsrmi	zero,0
    1814:	00b57653          	fadd.s	fa2,fa0,fa1
    1818:	001028f3          	frflags	a7
    181c:	68c7a827          	fsw	fa2,1680(a5)
    1820:	6917aa23          	sw	a7,1684(a5)

00001824 <inst_211>:
    1824:	69882507          	flw	fa0,1688(a6)
    1828:	69c82587          	flw	fa1,1692(a6)
    182c:	00225073          	fsrmi	zero,4
    1830:	00b57653          	fadd.s	fa2,fa0,fa1
    1834:	001028f3          	frflags	a7
    1838:	68c7ac27          	fsw	fa2,1688(a5)
    183c:	6917ae23          	sw	a7,1692(a5)

00001840 <inst_212>:
    1840:	6a082507          	flw	fa0,1696(a6)
    1844:	6a482587          	flw	fa1,1700(a6)
    1848:	0021d073          	fsrmi	zero,3
    184c:	00b57653          	fadd.s	fa2,fa0,fa1
    1850:	001028f3          	frflags	a7
    1854:	6ac7a027          	fsw	fa2,1696(a5)
    1858:	6b17a223          	sw	a7,1700(a5)

0000185c <inst_213>:
    185c:	6a882507          	flw	fa0,1704(a6)
    1860:	6ac82587          	flw	fa1,1708(a6)
    1864:	00215073          	fsrmi	zero,2
    1868:	00b57653          	fadd.s	fa2,fa0,fa1
    186c:	001028f3          	frflags	a7
    1870:	6ac7a427          	fsw	fa2,1704(a5)
    1874:	6b17a623          	sw	a7,1708(a5)

00001878 <inst_214>:
    1878:	6b082507          	flw	fa0,1712(a6)
    187c:	6b482587          	flw	fa1,1716(a6)
    1880:	0020d073          	fsrmi	zero,1
    1884:	00b57653          	fadd.s	fa2,fa0,fa1
    1888:	001028f3          	frflags	a7
    188c:	6ac7a827          	fsw	fa2,1712(a5)
    1890:	6b17aa23          	sw	a7,1716(a5)

00001894 <inst_215>:
    1894:	6b882507          	flw	fa0,1720(a6)
    1898:	6bc82587          	flw	fa1,1724(a6)
    189c:	00205073          	fsrmi	zero,0
    18a0:	00b57653          	fadd.s	fa2,fa0,fa1
    18a4:	001028f3          	frflags	a7
    18a8:	6ac7ac27          	fsw	fa2,1720(a5)
    18ac:	6b17ae23          	sw	a7,1724(a5)

000018b0 <inst_216>:
    18b0:	6c082507          	flw	fa0,1728(a6)
    18b4:	6c482587          	flw	fa1,1732(a6)
    18b8:	00225073          	fsrmi	zero,4
    18bc:	00b57653          	fadd.s	fa2,fa0,fa1
    18c0:	001028f3          	frflags	a7
    18c4:	6cc7a027          	fsw	fa2,1728(a5)
    18c8:	6d17a223          	sw	a7,1732(a5)

000018cc <inst_217>:
    18cc:	6c882507          	flw	fa0,1736(a6)
    18d0:	6cc82587          	flw	fa1,1740(a6)
    18d4:	0021d073          	fsrmi	zero,3
    18d8:	00b57653          	fadd.s	fa2,fa0,fa1
    18dc:	001028f3          	frflags	a7
    18e0:	6cc7a427          	fsw	fa2,1736(a5)
    18e4:	6d17a623          	sw	a7,1740(a5)

000018e8 <inst_218>:
    18e8:	6d082507          	flw	fa0,1744(a6)
    18ec:	6d482587          	flw	fa1,1748(a6)
    18f0:	00215073          	fsrmi	zero,2
    18f4:	00b57653          	fadd.s	fa2,fa0,fa1
    18f8:	001028f3          	frflags	a7
    18fc:	6cc7a827          	fsw	fa2,1744(a5)
    1900:	6d17aa23          	sw	a7,1748(a5)

00001904 <inst_219>:
    1904:	6d882507          	flw	fa0,1752(a6)
    1908:	6dc82587          	flw	fa1,1756(a6)
    190c:	0020d073          	fsrmi	zero,1
    1910:	00b57653          	fadd.s	fa2,fa0,fa1
    1914:	001028f3          	frflags	a7
    1918:	6cc7ac27          	fsw	fa2,1752(a5)
    191c:	6d17ae23          	sw	a7,1756(a5)

00001920 <inst_220>:
    1920:	6e082507          	flw	fa0,1760(a6)
    1924:	6e482587          	flw	fa1,1764(a6)
    1928:	00205073          	fsrmi	zero,0
    192c:	00b57653          	fadd.s	fa2,fa0,fa1
    1930:	001028f3          	frflags	a7
    1934:	6ec7a027          	fsw	fa2,1760(a5)
    1938:	6f17a223          	sw	a7,1764(a5)

0000193c <inst_221>:
    193c:	6e882507          	flw	fa0,1768(a6)
    1940:	6ec82587          	flw	fa1,1772(a6)
    1944:	00225073          	fsrmi	zero,4
    1948:	00b57653          	fadd.s	fa2,fa0,fa1
    194c:	001028f3          	frflags	a7
    1950:	6ec7a427          	fsw	fa2,1768(a5)
    1954:	6f17a623          	sw	a7,1772(a5)

00001958 <inst_222>:
    1958:	6f082507          	flw	fa0,1776(a6)
    195c:	6f482587          	flw	fa1,1780(a6)
    1960:	0021d073          	fsrmi	zero,3
    1964:	00b57653          	fadd.s	fa2,fa0,fa1
    1968:	001028f3          	frflags	a7
    196c:	6ec7a827          	fsw	fa2,1776(a5)
    1970:	6f17aa23          	sw	a7,1780(a5)

00001974 <inst_223>:
    1974:	6f882507          	flw	fa0,1784(a6)
    1978:	6fc82587          	flw	fa1,1788(a6)
    197c:	00215073          	fsrmi	zero,2
    1980:	00b57653          	fadd.s	fa2,fa0,fa1
    1984:	001028f3          	frflags	a7
    1988:	6ec7ac27          	fsw	fa2,1784(a5)
    198c:	6f17ae23          	sw	a7,1788(a5)

00001990 <inst_224>:
    1990:	70082507          	flw	fa0,1792(a6)
    1994:	70482587          	flw	fa1,1796(a6)
    1998:	0020d073          	fsrmi	zero,1
    199c:	00b57653          	fadd.s	fa2,fa0,fa1
    19a0:	001028f3          	frflags	a7
    19a4:	70c7a027          	fsw	fa2,1792(a5)
    19a8:	7117a223          	sw	a7,1796(a5)

000019ac <inst_225>:
    19ac:	70882507          	flw	fa0,1800(a6)
    19b0:	70c82587          	flw	fa1,1804(a6)
    19b4:	00205073          	fsrmi	zero,0
    19b8:	00b57653          	fadd.s	fa2,fa0,fa1
    19bc:	001028f3          	frflags	a7
    19c0:	70c7a427          	fsw	fa2,1800(a5)
    19c4:	7117a623          	sw	a7,1804(a5)

000019c8 <inst_226>:
    19c8:	71082507          	flw	fa0,1808(a6)
    19cc:	71482587          	flw	fa1,1812(a6)
    19d0:	00225073          	fsrmi	zero,4
    19d4:	00b57653          	fadd.s	fa2,fa0,fa1
    19d8:	001028f3          	frflags	a7
    19dc:	70c7a827          	fsw	fa2,1808(a5)
    19e0:	7117aa23          	sw	a7,1812(a5)

000019e4 <inst_227>:
    19e4:	71882507          	flw	fa0,1816(a6)
    19e8:	71c82587          	flw	fa1,1820(a6)
    19ec:	0021d073          	fsrmi	zero,3
    19f0:	00b57653          	fadd.s	fa2,fa0,fa1
    19f4:	001028f3          	frflags	a7
    19f8:	70c7ac27          	fsw	fa2,1816(a5)
    19fc:	7117ae23          	sw	a7,1820(a5)

00001a00 <inst_228>:
    1a00:	72082507          	flw	fa0,1824(a6)
    1a04:	72482587          	flw	fa1,1828(a6)
    1a08:	00215073          	fsrmi	zero,2
    1a0c:	00b57653          	fadd.s	fa2,fa0,fa1
    1a10:	001028f3          	frflags	a7
    1a14:	72c7a027          	fsw	fa2,1824(a5)
    1a18:	7317a223          	sw	a7,1828(a5)

00001a1c <inst_229>:
    1a1c:	72882507          	flw	fa0,1832(a6)
    1a20:	72c82587          	flw	fa1,1836(a6)
    1a24:	0020d073          	fsrmi	zero,1
    1a28:	00b57653          	fadd.s	fa2,fa0,fa1
    1a2c:	001028f3          	frflags	a7
    1a30:	72c7a427          	fsw	fa2,1832(a5)
    1a34:	7317a623          	sw	a7,1836(a5)

00001a38 <inst_230>:
    1a38:	73082507          	flw	fa0,1840(a6)
    1a3c:	73482587          	flw	fa1,1844(a6)
    1a40:	00205073          	fsrmi	zero,0
    1a44:	00b57653          	fadd.s	fa2,fa0,fa1
    1a48:	001028f3          	frflags	a7
    1a4c:	72c7a827          	fsw	fa2,1840(a5)
    1a50:	7317aa23          	sw	a7,1844(a5)

00001a54 <inst_231>:
    1a54:	73882507          	flw	fa0,1848(a6)
    1a58:	73c82587          	flw	fa1,1852(a6)
    1a5c:	00225073          	fsrmi	zero,4
    1a60:	00b57653          	fadd.s	fa2,fa0,fa1
    1a64:	001028f3          	frflags	a7
    1a68:	72c7ac27          	fsw	fa2,1848(a5)
    1a6c:	7317ae23          	sw	a7,1852(a5)

00001a70 <inst_232>:
    1a70:	74082507          	flw	fa0,1856(a6)
    1a74:	74482587          	flw	fa1,1860(a6)
    1a78:	0021d073          	fsrmi	zero,3
    1a7c:	00b57653          	fadd.s	fa2,fa0,fa1
    1a80:	001028f3          	frflags	a7
    1a84:	74c7a027          	fsw	fa2,1856(a5)
    1a88:	7517a223          	sw	a7,1860(a5)

00001a8c <inst_233>:
    1a8c:	74882507          	flw	fa0,1864(a6)
    1a90:	74c82587          	flw	fa1,1868(a6)
    1a94:	00215073          	fsrmi	zero,2
    1a98:	00b57653          	fadd.s	fa2,fa0,fa1
    1a9c:	001028f3          	frflags	a7
    1aa0:	74c7a427          	fsw	fa2,1864(a5)
    1aa4:	7517a623          	sw	a7,1868(a5)

00001aa8 <inst_234>:
    1aa8:	75082507          	flw	fa0,1872(a6)
    1aac:	75482587          	flw	fa1,1876(a6)
    1ab0:	0020d073          	fsrmi	zero,1
    1ab4:	00b57653          	fadd.s	fa2,fa0,fa1
    1ab8:	001028f3          	frflags	a7
    1abc:	74c7a827          	fsw	fa2,1872(a5)
    1ac0:	7517aa23          	sw	a7,1876(a5)

00001ac4 <inst_235>:
    1ac4:	75882507          	flw	fa0,1880(a6)
    1ac8:	75c82587          	flw	fa1,1884(a6)
    1acc:	00205073          	fsrmi	zero,0
    1ad0:	00b57653          	fadd.s	fa2,fa0,fa1
    1ad4:	001028f3          	frflags	a7
    1ad8:	74c7ac27          	fsw	fa2,1880(a5)
    1adc:	7517ae23          	sw	a7,1884(a5)

00001ae0 <inst_236>:
    1ae0:	76082507          	flw	fa0,1888(a6)
    1ae4:	76482587          	flw	fa1,1892(a6)
    1ae8:	00225073          	fsrmi	zero,4
    1aec:	00b57653          	fadd.s	fa2,fa0,fa1
    1af0:	001028f3          	frflags	a7
    1af4:	76c7a027          	fsw	fa2,1888(a5)
    1af8:	7717a223          	sw	a7,1892(a5)

00001afc <inst_237>:
    1afc:	76882507          	flw	fa0,1896(a6)
    1b00:	76c82587          	flw	fa1,1900(a6)
    1b04:	0021d073          	fsrmi	zero,3
    1b08:	00b57653          	fadd.s	fa2,fa0,fa1
    1b0c:	001028f3          	frflags	a7
    1b10:	76c7a427          	fsw	fa2,1896(a5)
    1b14:	7717a623          	sw	a7,1900(a5)

00001b18 <inst_238>:
    1b18:	77082507          	flw	fa0,1904(a6)
    1b1c:	77482587          	flw	fa1,1908(a6)
    1b20:	00215073          	fsrmi	zero,2
    1b24:	00b57653          	fadd.s	fa2,fa0,fa1
    1b28:	001028f3          	frflags	a7
    1b2c:	76c7a827          	fsw	fa2,1904(a5)
    1b30:	7717aa23          	sw	a7,1908(a5)

00001b34 <inst_239>:
    1b34:	77882507          	flw	fa0,1912(a6)
    1b38:	77c82587          	flw	fa1,1916(a6)
    1b3c:	0020d073          	fsrmi	zero,1
    1b40:	00b57653          	fadd.s	fa2,fa0,fa1
    1b44:	001028f3          	frflags	a7
    1b48:	76c7ac27          	fsw	fa2,1912(a5)
    1b4c:	7717ae23          	sw	a7,1916(a5)

00001b50 <inst_240>:
    1b50:	78082507          	flw	fa0,1920(a6)
    1b54:	78482587          	flw	fa1,1924(a6)
    1b58:	00205073          	fsrmi	zero,0
    1b5c:	00b57653          	fadd.s	fa2,fa0,fa1
    1b60:	001028f3          	frflags	a7
    1b64:	78c7a027          	fsw	fa2,1920(a5)
    1b68:	7917a223          	sw	a7,1924(a5)

00001b6c <inst_241>:
    1b6c:	78882507          	flw	fa0,1928(a6)
    1b70:	78c82587          	flw	fa1,1932(a6)
    1b74:	00225073          	fsrmi	zero,4
    1b78:	00b57653          	fadd.s	fa2,fa0,fa1
    1b7c:	001028f3          	frflags	a7
    1b80:	78c7a427          	fsw	fa2,1928(a5)
    1b84:	7917a623          	sw	a7,1932(a5)

00001b88 <inst_242>:
    1b88:	79082507          	flw	fa0,1936(a6)
    1b8c:	79482587          	flw	fa1,1940(a6)
    1b90:	0021d073          	fsrmi	zero,3
    1b94:	00b57653          	fadd.s	fa2,fa0,fa1
    1b98:	001028f3          	frflags	a7
    1b9c:	78c7a827          	fsw	fa2,1936(a5)
    1ba0:	7917aa23          	sw	a7,1940(a5)

00001ba4 <inst_243>:
    1ba4:	79882507          	flw	fa0,1944(a6)
    1ba8:	79c82587          	flw	fa1,1948(a6)
    1bac:	00215073          	fsrmi	zero,2
    1bb0:	00b57653          	fadd.s	fa2,fa0,fa1
    1bb4:	001028f3          	frflags	a7
    1bb8:	78c7ac27          	fsw	fa2,1944(a5)
    1bbc:	7917ae23          	sw	a7,1948(a5)

00001bc0 <inst_244>:
    1bc0:	7a082507          	flw	fa0,1952(a6)
    1bc4:	7a482587          	flw	fa1,1956(a6)
    1bc8:	0020d073          	fsrmi	zero,1
    1bcc:	00b57653          	fadd.s	fa2,fa0,fa1
    1bd0:	001028f3          	frflags	a7
    1bd4:	7ac7a027          	fsw	fa2,1952(a5)
    1bd8:	7b17a223          	sw	a7,1956(a5)

00001bdc <inst_245>:
    1bdc:	7a882507          	flw	fa0,1960(a6)
    1be0:	7ac82587          	flw	fa1,1964(a6)
    1be4:	00205073          	fsrmi	zero,0
    1be8:	00b57653          	fadd.s	fa2,fa0,fa1
    1bec:	001028f3          	frflags	a7
    1bf0:	7ac7a427          	fsw	fa2,1960(a5)
    1bf4:	7b17a623          	sw	a7,1964(a5)

00001bf8 <inst_246>:
    1bf8:	7b082507          	flw	fa0,1968(a6)
    1bfc:	7b482587          	flw	fa1,1972(a6)
    1c00:	00225073          	fsrmi	zero,4
    1c04:	00b57653          	fadd.s	fa2,fa0,fa1
    1c08:	001028f3          	frflags	a7
    1c0c:	7ac7a827          	fsw	fa2,1968(a5)
    1c10:	7b17aa23          	sw	a7,1972(a5)

00001c14 <inst_247>:
    1c14:	7b882507          	flw	fa0,1976(a6)
    1c18:	7bc82587          	flw	fa1,1980(a6)
    1c1c:	0021d073          	fsrmi	zero,3
    1c20:	00b57653          	fadd.s	fa2,fa0,fa1
    1c24:	001028f3          	frflags	a7
    1c28:	7ac7ac27          	fsw	fa2,1976(a5)
    1c2c:	7b17ae23          	sw	a7,1980(a5)

00001c30 <inst_248>:
    1c30:	7c082507          	flw	fa0,1984(a6)
    1c34:	7c482587          	flw	fa1,1988(a6)
    1c38:	00215073          	fsrmi	zero,2
    1c3c:	00b57653          	fadd.s	fa2,fa0,fa1
    1c40:	001028f3          	frflags	a7
    1c44:	7cc7a027          	fsw	fa2,1984(a5)
    1c48:	7d17a223          	sw	a7,1988(a5)

00001c4c <inst_249>:
    1c4c:	7c882507          	flw	fa0,1992(a6)
    1c50:	7cc82587          	flw	fa1,1996(a6)
    1c54:	0020d073          	fsrmi	zero,1
    1c58:	00b57653          	fadd.s	fa2,fa0,fa1
    1c5c:	001028f3          	frflags	a7
    1c60:	7cc7a427          	fsw	fa2,1992(a5)
    1c64:	7d17a623          	sw	a7,1996(a5)

00001c68 <inst_250>:
    1c68:	7d082507          	flw	fa0,2000(a6)
    1c6c:	7d482587          	flw	fa1,2004(a6)
    1c70:	00205073          	fsrmi	zero,0
    1c74:	00b57653          	fadd.s	fa2,fa0,fa1
    1c78:	001028f3          	frflags	a7
    1c7c:	7cc7a827          	fsw	fa2,2000(a5)
    1c80:	7d17aa23          	sw	a7,2004(a5)

00001c84 <inst_251>:
    1c84:	7d882507          	flw	fa0,2008(a6)
    1c88:	7dc82587          	flw	fa1,2012(a6)
    1c8c:	00225073          	fsrmi	zero,4
    1c90:	00b57653          	fadd.s	fa2,fa0,fa1
    1c94:	001028f3          	frflags	a7
    1c98:	7cc7ac27          	fsw	fa2,2008(a5)
    1c9c:	7d17ae23          	sw	a7,2012(a5)

00001ca0 <inst_252>:
    1ca0:	7e082507          	flw	fa0,2016(a6)
    1ca4:	7e482587          	flw	fa1,2020(a6)
    1ca8:	0021d073          	fsrmi	zero,3
    1cac:	00b57653          	fadd.s	fa2,fa0,fa1
    1cb0:	001028f3          	frflags	a7
    1cb4:	7ec7a027          	fsw	fa2,2016(a5)
    1cb8:	7f17a223          	sw	a7,2020(a5)

00001cbc <inst_253>:
    1cbc:	7e882507          	flw	fa0,2024(a6)
    1cc0:	7ec82587          	flw	fa1,2028(a6)
    1cc4:	00215073          	fsrmi	zero,2
    1cc8:	00b57653          	fadd.s	fa2,fa0,fa1
    1ccc:	001028f3          	frflags	a7
    1cd0:	7ec7a427          	fsw	fa2,2024(a5)
    1cd4:	7f17a623          	sw	a7,2028(a5)
    1cd8:	7f080813          	add	a6,a6,2032
    1cdc:	00009797          	auipc	a5,0x9
    1ce0:	e3478793          	add	a5,a5,-460 # ab10 <signature_x15_2>

00001ce4 <inst_254>:
    1ce4:	00082507          	flw	fa0,0(a6)
    1ce8:	00482587          	flw	fa1,4(a6)
    1cec:	0020d073          	fsrmi	zero,1
    1cf0:	00b57653          	fadd.s	fa2,fa0,fa1
    1cf4:	001028f3          	frflags	a7
    1cf8:	00c7a027          	fsw	fa2,0(a5)
    1cfc:	0117a223          	sw	a7,4(a5)

00001d00 <inst_255>:
    1d00:	00882507          	flw	fa0,8(a6)
    1d04:	00c82587          	flw	fa1,12(a6)
    1d08:	00205073          	fsrmi	zero,0
    1d0c:	00b57653          	fadd.s	fa2,fa0,fa1
    1d10:	001028f3          	frflags	a7
    1d14:	00c7a427          	fsw	fa2,8(a5)
    1d18:	0117a623          	sw	a7,12(a5)

00001d1c <inst_256>:
    1d1c:	01082507          	flw	fa0,16(a6)
    1d20:	01482587          	flw	fa1,20(a6)
    1d24:	00225073          	fsrmi	zero,4
    1d28:	00b57653          	fadd.s	fa2,fa0,fa1
    1d2c:	001028f3          	frflags	a7
    1d30:	00c7a827          	fsw	fa2,16(a5)
    1d34:	0117aa23          	sw	a7,20(a5)

00001d38 <inst_257>:
    1d38:	01882507          	flw	fa0,24(a6)
    1d3c:	01c82587          	flw	fa1,28(a6)
    1d40:	0021d073          	fsrmi	zero,3
    1d44:	00b57653          	fadd.s	fa2,fa0,fa1
    1d48:	001028f3          	frflags	a7
    1d4c:	00c7ac27          	fsw	fa2,24(a5)
    1d50:	0117ae23          	sw	a7,28(a5)

00001d54 <inst_258>:
    1d54:	02082507          	flw	fa0,32(a6)
    1d58:	02482587          	flw	fa1,36(a6)
    1d5c:	00215073          	fsrmi	zero,2
    1d60:	00b57653          	fadd.s	fa2,fa0,fa1
    1d64:	001028f3          	frflags	a7
    1d68:	02c7a027          	fsw	fa2,32(a5)
    1d6c:	0317a223          	sw	a7,36(a5)

00001d70 <inst_259>:
    1d70:	02882507          	flw	fa0,40(a6)
    1d74:	02c82587          	flw	fa1,44(a6)
    1d78:	0020d073          	fsrmi	zero,1
    1d7c:	00b57653          	fadd.s	fa2,fa0,fa1
    1d80:	001028f3          	frflags	a7
    1d84:	02c7a427          	fsw	fa2,40(a5)
    1d88:	0317a623          	sw	a7,44(a5)

00001d8c <inst_260>:
    1d8c:	03082507          	flw	fa0,48(a6)
    1d90:	03482587          	flw	fa1,52(a6)
    1d94:	00205073          	fsrmi	zero,0
    1d98:	00b57653          	fadd.s	fa2,fa0,fa1
    1d9c:	001028f3          	frflags	a7
    1da0:	02c7a827          	fsw	fa2,48(a5)
    1da4:	0317aa23          	sw	a7,52(a5)

00001da8 <inst_261>:
    1da8:	03882507          	flw	fa0,56(a6)
    1dac:	03c82587          	flw	fa1,60(a6)
    1db0:	00225073          	fsrmi	zero,4
    1db4:	00b57653          	fadd.s	fa2,fa0,fa1
    1db8:	001028f3          	frflags	a7
    1dbc:	02c7ac27          	fsw	fa2,56(a5)
    1dc0:	0317ae23          	sw	a7,60(a5)

00001dc4 <inst_262>:
    1dc4:	04082507          	flw	fa0,64(a6)
    1dc8:	04482587          	flw	fa1,68(a6)
    1dcc:	0021d073          	fsrmi	zero,3
    1dd0:	00b57653          	fadd.s	fa2,fa0,fa1
    1dd4:	001028f3          	frflags	a7
    1dd8:	04c7a027          	fsw	fa2,64(a5)
    1ddc:	0517a223          	sw	a7,68(a5)

00001de0 <inst_263>:
    1de0:	04882507          	flw	fa0,72(a6)
    1de4:	04c82587          	flw	fa1,76(a6)
    1de8:	00215073          	fsrmi	zero,2
    1dec:	00b57653          	fadd.s	fa2,fa0,fa1
    1df0:	001028f3          	frflags	a7
    1df4:	04c7a427          	fsw	fa2,72(a5)
    1df8:	0517a623          	sw	a7,76(a5)

00001dfc <inst_264>:
    1dfc:	05082507          	flw	fa0,80(a6)
    1e00:	05482587          	flw	fa1,84(a6)
    1e04:	0020d073          	fsrmi	zero,1
    1e08:	00b57653          	fadd.s	fa2,fa0,fa1
    1e0c:	001028f3          	frflags	a7
    1e10:	04c7a827          	fsw	fa2,80(a5)
    1e14:	0517aa23          	sw	a7,84(a5)

00001e18 <inst_265>:
    1e18:	05882507          	flw	fa0,88(a6)
    1e1c:	05c82587          	flw	fa1,92(a6)
    1e20:	00205073          	fsrmi	zero,0
    1e24:	00b57653          	fadd.s	fa2,fa0,fa1
    1e28:	001028f3          	frflags	a7
    1e2c:	04c7ac27          	fsw	fa2,88(a5)
    1e30:	0517ae23          	sw	a7,92(a5)

00001e34 <inst_266>:
    1e34:	06082507          	flw	fa0,96(a6)
    1e38:	06482587          	flw	fa1,100(a6)
    1e3c:	00225073          	fsrmi	zero,4
    1e40:	00b57653          	fadd.s	fa2,fa0,fa1
    1e44:	001028f3          	frflags	a7
    1e48:	06c7a027          	fsw	fa2,96(a5)
    1e4c:	0717a223          	sw	a7,100(a5)

00001e50 <inst_267>:
    1e50:	06882507          	flw	fa0,104(a6)
    1e54:	06c82587          	flw	fa1,108(a6)
    1e58:	0021d073          	fsrmi	zero,3
    1e5c:	00b57653          	fadd.s	fa2,fa0,fa1
    1e60:	001028f3          	frflags	a7
    1e64:	06c7a427          	fsw	fa2,104(a5)
    1e68:	0717a623          	sw	a7,108(a5)

00001e6c <inst_268>:
    1e6c:	07082507          	flw	fa0,112(a6)
    1e70:	07482587          	flw	fa1,116(a6)
    1e74:	00215073          	fsrmi	zero,2
    1e78:	00b57653          	fadd.s	fa2,fa0,fa1
    1e7c:	001028f3          	frflags	a7
    1e80:	06c7a827          	fsw	fa2,112(a5)
    1e84:	0717aa23          	sw	a7,116(a5)

00001e88 <inst_269>:
    1e88:	07882507          	flw	fa0,120(a6)
    1e8c:	07c82587          	flw	fa1,124(a6)
    1e90:	0020d073          	fsrmi	zero,1
    1e94:	00b57653          	fadd.s	fa2,fa0,fa1
    1e98:	001028f3          	frflags	a7
    1e9c:	06c7ac27          	fsw	fa2,120(a5)
    1ea0:	0717ae23          	sw	a7,124(a5)

00001ea4 <inst_270>:
    1ea4:	08082507          	flw	fa0,128(a6)
    1ea8:	08482587          	flw	fa1,132(a6)
    1eac:	00205073          	fsrmi	zero,0
    1eb0:	00b57653          	fadd.s	fa2,fa0,fa1
    1eb4:	001028f3          	frflags	a7
    1eb8:	08c7a027          	fsw	fa2,128(a5)
    1ebc:	0917a223          	sw	a7,132(a5)

00001ec0 <inst_271>:
    1ec0:	08882507          	flw	fa0,136(a6)
    1ec4:	08c82587          	flw	fa1,140(a6)
    1ec8:	00225073          	fsrmi	zero,4
    1ecc:	00b57653          	fadd.s	fa2,fa0,fa1
    1ed0:	001028f3          	frflags	a7
    1ed4:	08c7a427          	fsw	fa2,136(a5)
    1ed8:	0917a623          	sw	a7,140(a5)

00001edc <inst_272>:
    1edc:	09082507          	flw	fa0,144(a6)
    1ee0:	09482587          	flw	fa1,148(a6)
    1ee4:	0021d073          	fsrmi	zero,3
    1ee8:	00b57653          	fadd.s	fa2,fa0,fa1
    1eec:	001028f3          	frflags	a7
    1ef0:	08c7a827          	fsw	fa2,144(a5)
    1ef4:	0917aa23          	sw	a7,148(a5)

00001ef8 <inst_273>:
    1ef8:	09882507          	flw	fa0,152(a6)
    1efc:	09c82587          	flw	fa1,156(a6)
    1f00:	00215073          	fsrmi	zero,2
    1f04:	00b57653          	fadd.s	fa2,fa0,fa1
    1f08:	001028f3          	frflags	a7
    1f0c:	08c7ac27          	fsw	fa2,152(a5)
    1f10:	0917ae23          	sw	a7,156(a5)

00001f14 <inst_274>:
    1f14:	0a082507          	flw	fa0,160(a6)
    1f18:	0a482587          	flw	fa1,164(a6)
    1f1c:	0020d073          	fsrmi	zero,1
    1f20:	00b57653          	fadd.s	fa2,fa0,fa1
    1f24:	001028f3          	frflags	a7
    1f28:	0ac7a027          	fsw	fa2,160(a5)
    1f2c:	0b17a223          	sw	a7,164(a5)

00001f30 <inst_275>:
    1f30:	0a882507          	flw	fa0,168(a6)
    1f34:	0ac82587          	flw	fa1,172(a6)
    1f38:	00205073          	fsrmi	zero,0
    1f3c:	00b57653          	fadd.s	fa2,fa0,fa1
    1f40:	001028f3          	frflags	a7
    1f44:	0ac7a427          	fsw	fa2,168(a5)
    1f48:	0b17a623          	sw	a7,172(a5)

00001f4c <inst_276>:
    1f4c:	0b082507          	flw	fa0,176(a6)
    1f50:	0b482587          	flw	fa1,180(a6)
    1f54:	00225073          	fsrmi	zero,4
    1f58:	00b57653          	fadd.s	fa2,fa0,fa1
    1f5c:	001028f3          	frflags	a7
    1f60:	0ac7a827          	fsw	fa2,176(a5)
    1f64:	0b17aa23          	sw	a7,180(a5)

00001f68 <inst_277>:
    1f68:	0b882507          	flw	fa0,184(a6)
    1f6c:	0bc82587          	flw	fa1,188(a6)
    1f70:	0021d073          	fsrmi	zero,3
    1f74:	00b57653          	fadd.s	fa2,fa0,fa1
    1f78:	001028f3          	frflags	a7
    1f7c:	0ac7ac27          	fsw	fa2,184(a5)
    1f80:	0b17ae23          	sw	a7,188(a5)

00001f84 <inst_278>:
    1f84:	0c082507          	flw	fa0,192(a6)
    1f88:	0c482587          	flw	fa1,196(a6)
    1f8c:	00215073          	fsrmi	zero,2
    1f90:	00b57653          	fadd.s	fa2,fa0,fa1
    1f94:	001028f3          	frflags	a7
    1f98:	0cc7a027          	fsw	fa2,192(a5)
    1f9c:	0d17a223          	sw	a7,196(a5)

00001fa0 <inst_279>:
    1fa0:	0c882507          	flw	fa0,200(a6)
    1fa4:	0cc82587          	flw	fa1,204(a6)
    1fa8:	0020d073          	fsrmi	zero,1
    1fac:	00b57653          	fadd.s	fa2,fa0,fa1
    1fb0:	001028f3          	frflags	a7
    1fb4:	0cc7a427          	fsw	fa2,200(a5)
    1fb8:	0d17a623          	sw	a7,204(a5)

00001fbc <inst_280>:
    1fbc:	0d082507          	flw	fa0,208(a6)
    1fc0:	0d482587          	flw	fa1,212(a6)
    1fc4:	00205073          	fsrmi	zero,0
    1fc8:	00b57653          	fadd.s	fa2,fa0,fa1
    1fcc:	001028f3          	frflags	a7
    1fd0:	0cc7a827          	fsw	fa2,208(a5)
    1fd4:	0d17aa23          	sw	a7,212(a5)

00001fd8 <inst_281>:
    1fd8:	0d882507          	flw	fa0,216(a6)
    1fdc:	0dc82587          	flw	fa1,220(a6)
    1fe0:	00225073          	fsrmi	zero,4
    1fe4:	00b57653          	fadd.s	fa2,fa0,fa1
    1fe8:	001028f3          	frflags	a7
    1fec:	0cc7ac27          	fsw	fa2,216(a5)
    1ff0:	0d17ae23          	sw	a7,220(a5)

00001ff4 <inst_282>:
    1ff4:	0e082507          	flw	fa0,224(a6)
    1ff8:	0e482587          	flw	fa1,228(a6)
    1ffc:	0021d073          	fsrmi	zero,3
    2000:	00b57653          	fadd.s	fa2,fa0,fa1
    2004:	001028f3          	frflags	a7
    2008:	0ec7a027          	fsw	fa2,224(a5)
    200c:	0f17a223          	sw	a7,228(a5)

00002010 <inst_283>:
    2010:	0e882507          	flw	fa0,232(a6)
    2014:	0ec82587          	flw	fa1,236(a6)
    2018:	00215073          	fsrmi	zero,2
    201c:	00b57653          	fadd.s	fa2,fa0,fa1
    2020:	001028f3          	frflags	a7
    2024:	0ec7a427          	fsw	fa2,232(a5)
    2028:	0f17a623          	sw	a7,236(a5)

0000202c <inst_284>:
    202c:	0f082507          	flw	fa0,240(a6)
    2030:	0f482587          	flw	fa1,244(a6)
    2034:	0020d073          	fsrmi	zero,1
    2038:	00b57653          	fadd.s	fa2,fa0,fa1
    203c:	001028f3          	frflags	a7
    2040:	0ec7a827          	fsw	fa2,240(a5)
    2044:	0f17aa23          	sw	a7,244(a5)

00002048 <inst_285>:
    2048:	0f882507          	flw	fa0,248(a6)
    204c:	0fc82587          	flw	fa1,252(a6)
    2050:	00205073          	fsrmi	zero,0
    2054:	00b57653          	fadd.s	fa2,fa0,fa1
    2058:	001028f3          	frflags	a7
    205c:	0ec7ac27          	fsw	fa2,248(a5)
    2060:	0f17ae23          	sw	a7,252(a5)

00002064 <inst_286>:
    2064:	10082507          	flw	fa0,256(a6)
    2068:	10482587          	flw	fa1,260(a6)
    206c:	00225073          	fsrmi	zero,4
    2070:	00b57653          	fadd.s	fa2,fa0,fa1
    2074:	001028f3          	frflags	a7
    2078:	10c7a027          	fsw	fa2,256(a5)
    207c:	1117a223          	sw	a7,260(a5)

00002080 <inst_287>:
    2080:	10882507          	flw	fa0,264(a6)
    2084:	10c82587          	flw	fa1,268(a6)
    2088:	0021d073          	fsrmi	zero,3
    208c:	00b57653          	fadd.s	fa2,fa0,fa1
    2090:	001028f3          	frflags	a7
    2094:	10c7a427          	fsw	fa2,264(a5)
    2098:	1117a623          	sw	a7,268(a5)

0000209c <inst_288>:
    209c:	11082507          	flw	fa0,272(a6)
    20a0:	11482587          	flw	fa1,276(a6)
    20a4:	00215073          	fsrmi	zero,2
    20a8:	00b57653          	fadd.s	fa2,fa0,fa1
    20ac:	001028f3          	frflags	a7
    20b0:	10c7a827          	fsw	fa2,272(a5)
    20b4:	1117aa23          	sw	a7,276(a5)

000020b8 <inst_289>:
    20b8:	11882507          	flw	fa0,280(a6)
    20bc:	11c82587          	flw	fa1,284(a6)
    20c0:	0020d073          	fsrmi	zero,1
    20c4:	00b57653          	fadd.s	fa2,fa0,fa1
    20c8:	001028f3          	frflags	a7
    20cc:	10c7ac27          	fsw	fa2,280(a5)
    20d0:	1117ae23          	sw	a7,284(a5)

000020d4 <inst_290>:
    20d4:	12082507          	flw	fa0,288(a6)
    20d8:	12482587          	flw	fa1,292(a6)
    20dc:	00205073          	fsrmi	zero,0
    20e0:	00b57653          	fadd.s	fa2,fa0,fa1
    20e4:	001028f3          	frflags	a7
    20e8:	12c7a027          	fsw	fa2,288(a5)
    20ec:	1317a223          	sw	a7,292(a5)

000020f0 <inst_291>:
    20f0:	12882507          	flw	fa0,296(a6)
    20f4:	12c82587          	flw	fa1,300(a6)
    20f8:	00225073          	fsrmi	zero,4
    20fc:	00b57653          	fadd.s	fa2,fa0,fa1
    2100:	001028f3          	frflags	a7
    2104:	12c7a427          	fsw	fa2,296(a5)
    2108:	1317a623          	sw	a7,300(a5)

0000210c <inst_292>:
    210c:	13082507          	flw	fa0,304(a6)
    2110:	13482587          	flw	fa1,308(a6)
    2114:	0021d073          	fsrmi	zero,3
    2118:	00b57653          	fadd.s	fa2,fa0,fa1
    211c:	001028f3          	frflags	a7
    2120:	12c7a827          	fsw	fa2,304(a5)
    2124:	1317aa23          	sw	a7,308(a5)

00002128 <inst_293>:
    2128:	13882507          	flw	fa0,312(a6)
    212c:	13c82587          	flw	fa1,316(a6)
    2130:	00215073          	fsrmi	zero,2
    2134:	00b57653          	fadd.s	fa2,fa0,fa1
    2138:	001028f3          	frflags	a7
    213c:	12c7ac27          	fsw	fa2,312(a5)
    2140:	1317ae23          	sw	a7,316(a5)

00002144 <inst_294>:
    2144:	14082507          	flw	fa0,320(a6)
    2148:	14482587          	flw	fa1,324(a6)
    214c:	0020d073          	fsrmi	zero,1
    2150:	00b57653          	fadd.s	fa2,fa0,fa1
    2154:	001028f3          	frflags	a7
    2158:	14c7a027          	fsw	fa2,320(a5)
    215c:	1517a223          	sw	a7,324(a5)

00002160 <inst_295>:
    2160:	14882507          	flw	fa0,328(a6)
    2164:	14c82587          	flw	fa1,332(a6)
    2168:	00205073          	fsrmi	zero,0
    216c:	00b57653          	fadd.s	fa2,fa0,fa1
    2170:	001028f3          	frflags	a7
    2174:	14c7a427          	fsw	fa2,328(a5)
    2178:	1517a623          	sw	a7,332(a5)

0000217c <inst_296>:
    217c:	15082507          	flw	fa0,336(a6)
    2180:	15482587          	flw	fa1,340(a6)
    2184:	00225073          	fsrmi	zero,4
    2188:	00b57653          	fadd.s	fa2,fa0,fa1
    218c:	001028f3          	frflags	a7
    2190:	14c7a827          	fsw	fa2,336(a5)
    2194:	1517aa23          	sw	a7,340(a5)

00002198 <inst_297>:
    2198:	15882507          	flw	fa0,344(a6)
    219c:	15c82587          	flw	fa1,348(a6)
    21a0:	0021d073          	fsrmi	zero,3
    21a4:	00b57653          	fadd.s	fa2,fa0,fa1
    21a8:	001028f3          	frflags	a7
    21ac:	14c7ac27          	fsw	fa2,344(a5)
    21b0:	1517ae23          	sw	a7,348(a5)

000021b4 <inst_298>:
    21b4:	16082507          	flw	fa0,352(a6)
    21b8:	16482587          	flw	fa1,356(a6)
    21bc:	00215073          	fsrmi	zero,2
    21c0:	00b57653          	fadd.s	fa2,fa0,fa1
    21c4:	001028f3          	frflags	a7
    21c8:	16c7a027          	fsw	fa2,352(a5)
    21cc:	1717a223          	sw	a7,356(a5)

000021d0 <inst_299>:
    21d0:	16882507          	flw	fa0,360(a6)
    21d4:	16c82587          	flw	fa1,364(a6)
    21d8:	0020d073          	fsrmi	zero,1
    21dc:	00b57653          	fadd.s	fa2,fa0,fa1
    21e0:	001028f3          	frflags	a7
    21e4:	16c7a427          	fsw	fa2,360(a5)
    21e8:	1717a623          	sw	a7,364(a5)

000021ec <inst_300>:
    21ec:	17082507          	flw	fa0,368(a6)
    21f0:	17482587          	flw	fa1,372(a6)
    21f4:	00205073          	fsrmi	zero,0
    21f8:	00b57653          	fadd.s	fa2,fa0,fa1
    21fc:	001028f3          	frflags	a7
    2200:	16c7a827          	fsw	fa2,368(a5)
    2204:	1717aa23          	sw	a7,372(a5)

00002208 <inst_301>:
    2208:	17882507          	flw	fa0,376(a6)
    220c:	17c82587          	flw	fa1,380(a6)
    2210:	00225073          	fsrmi	zero,4
    2214:	00b57653          	fadd.s	fa2,fa0,fa1
    2218:	001028f3          	frflags	a7
    221c:	16c7ac27          	fsw	fa2,376(a5)
    2220:	1717ae23          	sw	a7,380(a5)

00002224 <inst_302>:
    2224:	18082507          	flw	fa0,384(a6)
    2228:	18482587          	flw	fa1,388(a6)
    222c:	0021d073          	fsrmi	zero,3
    2230:	00b57653          	fadd.s	fa2,fa0,fa1
    2234:	001028f3          	frflags	a7
    2238:	18c7a027          	fsw	fa2,384(a5)
    223c:	1917a223          	sw	a7,388(a5)

00002240 <inst_303>:
    2240:	18882507          	flw	fa0,392(a6)
    2244:	18c82587          	flw	fa1,396(a6)
    2248:	00215073          	fsrmi	zero,2
    224c:	00b57653          	fadd.s	fa2,fa0,fa1
    2250:	001028f3          	frflags	a7
    2254:	18c7a427          	fsw	fa2,392(a5)
    2258:	1917a623          	sw	a7,396(a5)

0000225c <inst_304>:
    225c:	19082507          	flw	fa0,400(a6)
    2260:	19482587          	flw	fa1,404(a6)
    2264:	0020d073          	fsrmi	zero,1
    2268:	00b57653          	fadd.s	fa2,fa0,fa1
    226c:	001028f3          	frflags	a7
    2270:	18c7a827          	fsw	fa2,400(a5)
    2274:	1917aa23          	sw	a7,404(a5)

00002278 <inst_305>:
    2278:	19882507          	flw	fa0,408(a6)
    227c:	19c82587          	flw	fa1,412(a6)
    2280:	00205073          	fsrmi	zero,0
    2284:	00b57653          	fadd.s	fa2,fa0,fa1
    2288:	001028f3          	frflags	a7
    228c:	18c7ac27          	fsw	fa2,408(a5)
    2290:	1917ae23          	sw	a7,412(a5)

00002294 <inst_306>:
    2294:	1a082507          	flw	fa0,416(a6)
    2298:	1a482587          	flw	fa1,420(a6)
    229c:	00225073          	fsrmi	zero,4
    22a0:	00b57653          	fadd.s	fa2,fa0,fa1
    22a4:	001028f3          	frflags	a7
    22a8:	1ac7a027          	fsw	fa2,416(a5)
    22ac:	1b17a223          	sw	a7,420(a5)

000022b0 <inst_307>:
    22b0:	1a882507          	flw	fa0,424(a6)
    22b4:	1ac82587          	flw	fa1,428(a6)
    22b8:	0021d073          	fsrmi	zero,3
    22bc:	00b57653          	fadd.s	fa2,fa0,fa1
    22c0:	001028f3          	frflags	a7
    22c4:	1ac7a427          	fsw	fa2,424(a5)
    22c8:	1b17a623          	sw	a7,428(a5)

000022cc <inst_308>:
    22cc:	1b082507          	flw	fa0,432(a6)
    22d0:	1b482587          	flw	fa1,436(a6)
    22d4:	00215073          	fsrmi	zero,2
    22d8:	00b57653          	fadd.s	fa2,fa0,fa1
    22dc:	001028f3          	frflags	a7
    22e0:	1ac7a827          	fsw	fa2,432(a5)
    22e4:	1b17aa23          	sw	a7,436(a5)

000022e8 <inst_309>:
    22e8:	1b882507          	flw	fa0,440(a6)
    22ec:	1bc82587          	flw	fa1,444(a6)
    22f0:	0020d073          	fsrmi	zero,1
    22f4:	00b57653          	fadd.s	fa2,fa0,fa1
    22f8:	001028f3          	frflags	a7
    22fc:	1ac7ac27          	fsw	fa2,440(a5)
    2300:	1b17ae23          	sw	a7,444(a5)

00002304 <inst_310>:
    2304:	1c082507          	flw	fa0,448(a6)
    2308:	1c482587          	flw	fa1,452(a6)
    230c:	00205073          	fsrmi	zero,0
    2310:	00b57653          	fadd.s	fa2,fa0,fa1
    2314:	001028f3          	frflags	a7
    2318:	1cc7a027          	fsw	fa2,448(a5)
    231c:	1d17a223          	sw	a7,452(a5)

00002320 <inst_311>:
    2320:	1c882507          	flw	fa0,456(a6)
    2324:	1cc82587          	flw	fa1,460(a6)
    2328:	00225073          	fsrmi	zero,4
    232c:	00b57653          	fadd.s	fa2,fa0,fa1
    2330:	001028f3          	frflags	a7
    2334:	1cc7a427          	fsw	fa2,456(a5)
    2338:	1d17a623          	sw	a7,460(a5)

0000233c <inst_312>:
    233c:	1d082507          	flw	fa0,464(a6)
    2340:	1d482587          	flw	fa1,468(a6)
    2344:	0021d073          	fsrmi	zero,3
    2348:	00b57653          	fadd.s	fa2,fa0,fa1
    234c:	001028f3          	frflags	a7
    2350:	1cc7a827          	fsw	fa2,464(a5)
    2354:	1d17aa23          	sw	a7,468(a5)

00002358 <inst_313>:
    2358:	1d882507          	flw	fa0,472(a6)
    235c:	1dc82587          	flw	fa1,476(a6)
    2360:	00215073          	fsrmi	zero,2
    2364:	00b57653          	fadd.s	fa2,fa0,fa1
    2368:	001028f3          	frflags	a7
    236c:	1cc7ac27          	fsw	fa2,472(a5)
    2370:	1d17ae23          	sw	a7,476(a5)

00002374 <inst_314>:
    2374:	1e082507          	flw	fa0,480(a6)
    2378:	1e482587          	flw	fa1,484(a6)
    237c:	0020d073          	fsrmi	zero,1
    2380:	00b57653          	fadd.s	fa2,fa0,fa1
    2384:	001028f3          	frflags	a7
    2388:	1ec7a027          	fsw	fa2,480(a5)
    238c:	1f17a223          	sw	a7,484(a5)

00002390 <inst_315>:
    2390:	1e882507          	flw	fa0,488(a6)
    2394:	1ec82587          	flw	fa1,492(a6)
    2398:	00205073          	fsrmi	zero,0
    239c:	00b57653          	fadd.s	fa2,fa0,fa1
    23a0:	001028f3          	frflags	a7
    23a4:	1ec7a427          	fsw	fa2,488(a5)
    23a8:	1f17a623          	sw	a7,492(a5)

000023ac <inst_316>:
    23ac:	1f082507          	flw	fa0,496(a6)
    23b0:	1f482587          	flw	fa1,500(a6)
    23b4:	00225073          	fsrmi	zero,4
    23b8:	00b57653          	fadd.s	fa2,fa0,fa1
    23bc:	001028f3          	frflags	a7
    23c0:	1ec7a827          	fsw	fa2,496(a5)
    23c4:	1f17aa23          	sw	a7,500(a5)

000023c8 <inst_317>:
    23c8:	1f882507          	flw	fa0,504(a6)
    23cc:	1fc82587          	flw	fa1,508(a6)
    23d0:	0021d073          	fsrmi	zero,3
    23d4:	00b57653          	fadd.s	fa2,fa0,fa1
    23d8:	001028f3          	frflags	a7
    23dc:	1ec7ac27          	fsw	fa2,504(a5)
    23e0:	1f17ae23          	sw	a7,508(a5)

000023e4 <inst_318>:
    23e4:	20082507          	flw	fa0,512(a6)
    23e8:	20482587          	flw	fa1,516(a6)
    23ec:	00215073          	fsrmi	zero,2
    23f0:	00b57653          	fadd.s	fa2,fa0,fa1
    23f4:	001028f3          	frflags	a7
    23f8:	20c7a027          	fsw	fa2,512(a5)
    23fc:	2117a223          	sw	a7,516(a5)

00002400 <inst_319>:
    2400:	20882507          	flw	fa0,520(a6)
    2404:	20c82587          	flw	fa1,524(a6)
    2408:	0020d073          	fsrmi	zero,1
    240c:	00b57653          	fadd.s	fa2,fa0,fa1
    2410:	001028f3          	frflags	a7
    2414:	20c7a427          	fsw	fa2,520(a5)
    2418:	2117a623          	sw	a7,524(a5)

0000241c <inst_320>:
    241c:	21082507          	flw	fa0,528(a6)
    2420:	21482587          	flw	fa1,532(a6)
    2424:	00205073          	fsrmi	zero,0
    2428:	00b57653          	fadd.s	fa2,fa0,fa1
    242c:	001028f3          	frflags	a7
    2430:	20c7a827          	fsw	fa2,528(a5)
    2434:	2117aa23          	sw	a7,532(a5)

00002438 <inst_321>:
    2438:	21882507          	flw	fa0,536(a6)
    243c:	21c82587          	flw	fa1,540(a6)
    2440:	00225073          	fsrmi	zero,4
    2444:	00b57653          	fadd.s	fa2,fa0,fa1
    2448:	001028f3          	frflags	a7
    244c:	20c7ac27          	fsw	fa2,536(a5)
    2450:	2117ae23          	sw	a7,540(a5)

00002454 <inst_322>:
    2454:	22082507          	flw	fa0,544(a6)
    2458:	22482587          	flw	fa1,548(a6)
    245c:	0021d073          	fsrmi	zero,3
    2460:	00b57653          	fadd.s	fa2,fa0,fa1
    2464:	001028f3          	frflags	a7
    2468:	22c7a027          	fsw	fa2,544(a5)
    246c:	2317a223          	sw	a7,548(a5)

00002470 <inst_323>:
    2470:	22882507          	flw	fa0,552(a6)
    2474:	22c82587          	flw	fa1,556(a6)
    2478:	00215073          	fsrmi	zero,2
    247c:	00b57653          	fadd.s	fa2,fa0,fa1
    2480:	001028f3          	frflags	a7
    2484:	22c7a427          	fsw	fa2,552(a5)
    2488:	2317a623          	sw	a7,556(a5)

0000248c <inst_324>:
    248c:	23082507          	flw	fa0,560(a6)
    2490:	23482587          	flw	fa1,564(a6)
    2494:	0020d073          	fsrmi	zero,1
    2498:	00b57653          	fadd.s	fa2,fa0,fa1
    249c:	001028f3          	frflags	a7
    24a0:	22c7a827          	fsw	fa2,560(a5)
    24a4:	2317aa23          	sw	a7,564(a5)

000024a8 <inst_325>:
    24a8:	23882507          	flw	fa0,568(a6)
    24ac:	23c82587          	flw	fa1,572(a6)
    24b0:	00205073          	fsrmi	zero,0
    24b4:	00b57653          	fadd.s	fa2,fa0,fa1
    24b8:	001028f3          	frflags	a7
    24bc:	22c7ac27          	fsw	fa2,568(a5)
    24c0:	2317ae23          	sw	a7,572(a5)

000024c4 <inst_326>:
    24c4:	24082507          	flw	fa0,576(a6)
    24c8:	24482587          	flw	fa1,580(a6)
    24cc:	00225073          	fsrmi	zero,4
    24d0:	00b57653          	fadd.s	fa2,fa0,fa1
    24d4:	001028f3          	frflags	a7
    24d8:	24c7a027          	fsw	fa2,576(a5)
    24dc:	2517a223          	sw	a7,580(a5)

000024e0 <inst_327>:
    24e0:	24882507          	flw	fa0,584(a6)
    24e4:	24c82587          	flw	fa1,588(a6)
    24e8:	0021d073          	fsrmi	zero,3
    24ec:	00b57653          	fadd.s	fa2,fa0,fa1
    24f0:	001028f3          	frflags	a7
    24f4:	24c7a427          	fsw	fa2,584(a5)
    24f8:	2517a623          	sw	a7,588(a5)

000024fc <inst_328>:
    24fc:	25082507          	flw	fa0,592(a6)
    2500:	25482587          	flw	fa1,596(a6)
    2504:	00215073          	fsrmi	zero,2
    2508:	00b57653          	fadd.s	fa2,fa0,fa1
    250c:	001028f3          	frflags	a7
    2510:	24c7a827          	fsw	fa2,592(a5)
    2514:	2517aa23          	sw	a7,596(a5)

00002518 <inst_329>:
    2518:	25882507          	flw	fa0,600(a6)
    251c:	25c82587          	flw	fa1,604(a6)
    2520:	0020d073          	fsrmi	zero,1
    2524:	00b57653          	fadd.s	fa2,fa0,fa1
    2528:	001028f3          	frflags	a7
    252c:	24c7ac27          	fsw	fa2,600(a5)
    2530:	2517ae23          	sw	a7,604(a5)

00002534 <inst_330>:
    2534:	26082507          	flw	fa0,608(a6)
    2538:	26482587          	flw	fa1,612(a6)
    253c:	00205073          	fsrmi	zero,0
    2540:	00b57653          	fadd.s	fa2,fa0,fa1
    2544:	001028f3          	frflags	a7
    2548:	26c7a027          	fsw	fa2,608(a5)
    254c:	2717a223          	sw	a7,612(a5)

00002550 <inst_331>:
    2550:	26882507          	flw	fa0,616(a6)
    2554:	26c82587          	flw	fa1,620(a6)
    2558:	00225073          	fsrmi	zero,4
    255c:	00b57653          	fadd.s	fa2,fa0,fa1
    2560:	001028f3          	frflags	a7
    2564:	26c7a427          	fsw	fa2,616(a5)
    2568:	2717a623          	sw	a7,620(a5)

0000256c <inst_332>:
    256c:	27082507          	flw	fa0,624(a6)
    2570:	27482587          	flw	fa1,628(a6)
    2574:	0021d073          	fsrmi	zero,3
    2578:	00b57653          	fadd.s	fa2,fa0,fa1
    257c:	001028f3          	frflags	a7
    2580:	26c7a827          	fsw	fa2,624(a5)
    2584:	2717aa23          	sw	a7,628(a5)

00002588 <inst_333>:
    2588:	27882507          	flw	fa0,632(a6)
    258c:	27c82587          	flw	fa1,636(a6)
    2590:	00215073          	fsrmi	zero,2
    2594:	00b57653          	fadd.s	fa2,fa0,fa1
    2598:	001028f3          	frflags	a7
    259c:	26c7ac27          	fsw	fa2,632(a5)
    25a0:	2717ae23          	sw	a7,636(a5)

000025a4 <inst_334>:
    25a4:	28082507          	flw	fa0,640(a6)
    25a8:	28482587          	flw	fa1,644(a6)
    25ac:	0020d073          	fsrmi	zero,1
    25b0:	00b57653          	fadd.s	fa2,fa0,fa1
    25b4:	001028f3          	frflags	a7
    25b8:	28c7a027          	fsw	fa2,640(a5)
    25bc:	2917a223          	sw	a7,644(a5)

000025c0 <inst_335>:
    25c0:	28882507          	flw	fa0,648(a6)
    25c4:	28c82587          	flw	fa1,652(a6)
    25c8:	00205073          	fsrmi	zero,0
    25cc:	00b57653          	fadd.s	fa2,fa0,fa1
    25d0:	001028f3          	frflags	a7
    25d4:	28c7a427          	fsw	fa2,648(a5)
    25d8:	2917a623          	sw	a7,652(a5)

000025dc <inst_336>:
    25dc:	29082507          	flw	fa0,656(a6)
    25e0:	29482587          	flw	fa1,660(a6)
    25e4:	00225073          	fsrmi	zero,4
    25e8:	00b57653          	fadd.s	fa2,fa0,fa1
    25ec:	001028f3          	frflags	a7
    25f0:	28c7a827          	fsw	fa2,656(a5)
    25f4:	2917aa23          	sw	a7,660(a5)

000025f8 <inst_337>:
    25f8:	29882507          	flw	fa0,664(a6)
    25fc:	29c82587          	flw	fa1,668(a6)
    2600:	0021d073          	fsrmi	zero,3
    2604:	00b57653          	fadd.s	fa2,fa0,fa1
    2608:	001028f3          	frflags	a7
    260c:	28c7ac27          	fsw	fa2,664(a5)
    2610:	2917ae23          	sw	a7,668(a5)

00002614 <inst_338>:
    2614:	2a082507          	flw	fa0,672(a6)
    2618:	2a482587          	flw	fa1,676(a6)
    261c:	00215073          	fsrmi	zero,2
    2620:	00b57653          	fadd.s	fa2,fa0,fa1
    2624:	001028f3          	frflags	a7
    2628:	2ac7a027          	fsw	fa2,672(a5)
    262c:	2b17a223          	sw	a7,676(a5)

00002630 <inst_339>:
    2630:	2a882507          	flw	fa0,680(a6)
    2634:	2ac82587          	flw	fa1,684(a6)
    2638:	0020d073          	fsrmi	zero,1
    263c:	00b57653          	fadd.s	fa2,fa0,fa1
    2640:	001028f3          	frflags	a7
    2644:	2ac7a427          	fsw	fa2,680(a5)
    2648:	2b17a623          	sw	a7,684(a5)

0000264c <inst_340>:
    264c:	2b082507          	flw	fa0,688(a6)
    2650:	2b482587          	flw	fa1,692(a6)
    2654:	00205073          	fsrmi	zero,0
    2658:	00b57653          	fadd.s	fa2,fa0,fa1
    265c:	001028f3          	frflags	a7
    2660:	2ac7a827          	fsw	fa2,688(a5)
    2664:	2b17aa23          	sw	a7,692(a5)

00002668 <inst_341>:
    2668:	2b882507          	flw	fa0,696(a6)
    266c:	2bc82587          	flw	fa1,700(a6)
    2670:	00225073          	fsrmi	zero,4
    2674:	00b57653          	fadd.s	fa2,fa0,fa1
    2678:	001028f3          	frflags	a7
    267c:	2ac7ac27          	fsw	fa2,696(a5)
    2680:	2b17ae23          	sw	a7,700(a5)

00002684 <inst_342>:
    2684:	2c082507          	flw	fa0,704(a6)
    2688:	2c482587          	flw	fa1,708(a6)
    268c:	0021d073          	fsrmi	zero,3
    2690:	00b57653          	fadd.s	fa2,fa0,fa1
    2694:	001028f3          	frflags	a7
    2698:	2cc7a027          	fsw	fa2,704(a5)
    269c:	2d17a223          	sw	a7,708(a5)

000026a0 <inst_343>:
    26a0:	2c882507          	flw	fa0,712(a6)
    26a4:	2cc82587          	flw	fa1,716(a6)
    26a8:	00215073          	fsrmi	zero,2
    26ac:	00b57653          	fadd.s	fa2,fa0,fa1
    26b0:	001028f3          	frflags	a7
    26b4:	2cc7a427          	fsw	fa2,712(a5)
    26b8:	2d17a623          	sw	a7,716(a5)

000026bc <inst_344>:
    26bc:	2d082507          	flw	fa0,720(a6)
    26c0:	2d482587          	flw	fa1,724(a6)
    26c4:	0020d073          	fsrmi	zero,1
    26c8:	00b57653          	fadd.s	fa2,fa0,fa1
    26cc:	001028f3          	frflags	a7
    26d0:	2cc7a827          	fsw	fa2,720(a5)
    26d4:	2d17aa23          	sw	a7,724(a5)

000026d8 <inst_345>:
    26d8:	2d882507          	flw	fa0,728(a6)
    26dc:	2dc82587          	flw	fa1,732(a6)
    26e0:	00205073          	fsrmi	zero,0
    26e4:	00b57653          	fadd.s	fa2,fa0,fa1
    26e8:	001028f3          	frflags	a7
    26ec:	2cc7ac27          	fsw	fa2,728(a5)
    26f0:	2d17ae23          	sw	a7,732(a5)

000026f4 <inst_346>:
    26f4:	2e082507          	flw	fa0,736(a6)
    26f8:	2e482587          	flw	fa1,740(a6)
    26fc:	00225073          	fsrmi	zero,4
    2700:	00b57653          	fadd.s	fa2,fa0,fa1
    2704:	001028f3          	frflags	a7
    2708:	2ec7a027          	fsw	fa2,736(a5)
    270c:	2f17a223          	sw	a7,740(a5)

00002710 <inst_347>:
    2710:	2e882507          	flw	fa0,744(a6)
    2714:	2ec82587          	flw	fa1,748(a6)
    2718:	0021d073          	fsrmi	zero,3
    271c:	00b57653          	fadd.s	fa2,fa0,fa1
    2720:	001028f3          	frflags	a7
    2724:	2ec7a427          	fsw	fa2,744(a5)
    2728:	2f17a623          	sw	a7,748(a5)

0000272c <inst_348>:
    272c:	2f082507          	flw	fa0,752(a6)
    2730:	2f482587          	flw	fa1,756(a6)
    2734:	00215073          	fsrmi	zero,2
    2738:	00b57653          	fadd.s	fa2,fa0,fa1
    273c:	001028f3          	frflags	a7
    2740:	2ec7a827          	fsw	fa2,752(a5)
    2744:	2f17aa23          	sw	a7,756(a5)

00002748 <inst_349>:
    2748:	2f882507          	flw	fa0,760(a6)
    274c:	2fc82587          	flw	fa1,764(a6)
    2750:	0020d073          	fsrmi	zero,1
    2754:	00b57653          	fadd.s	fa2,fa0,fa1
    2758:	001028f3          	frflags	a7
    275c:	2ec7ac27          	fsw	fa2,760(a5)
    2760:	2f17ae23          	sw	a7,764(a5)

00002764 <inst_350>:
    2764:	30082507          	flw	fa0,768(a6)
    2768:	30482587          	flw	fa1,772(a6)
    276c:	00205073          	fsrmi	zero,0
    2770:	00b57653          	fadd.s	fa2,fa0,fa1
    2774:	001028f3          	frflags	a7
    2778:	30c7a027          	fsw	fa2,768(a5)
    277c:	3117a223          	sw	a7,772(a5)

00002780 <inst_351>:
    2780:	30882507          	flw	fa0,776(a6)
    2784:	30c82587          	flw	fa1,780(a6)
    2788:	00225073          	fsrmi	zero,4
    278c:	00b57653          	fadd.s	fa2,fa0,fa1
    2790:	001028f3          	frflags	a7
    2794:	30c7a427          	fsw	fa2,776(a5)
    2798:	3117a623          	sw	a7,780(a5)

0000279c <inst_352>:
    279c:	31082507          	flw	fa0,784(a6)
    27a0:	31482587          	flw	fa1,788(a6)
    27a4:	0021d073          	fsrmi	zero,3
    27a8:	00b57653          	fadd.s	fa2,fa0,fa1
    27ac:	001028f3          	frflags	a7
    27b0:	30c7a827          	fsw	fa2,784(a5)
    27b4:	3117aa23          	sw	a7,788(a5)

000027b8 <inst_353>:
    27b8:	31882507          	flw	fa0,792(a6)
    27bc:	31c82587          	flw	fa1,796(a6)
    27c0:	00215073          	fsrmi	zero,2
    27c4:	00b57653          	fadd.s	fa2,fa0,fa1
    27c8:	001028f3          	frflags	a7
    27cc:	30c7ac27          	fsw	fa2,792(a5)
    27d0:	3117ae23          	sw	a7,796(a5)

000027d4 <inst_354>:
    27d4:	32082507          	flw	fa0,800(a6)
    27d8:	32482587          	flw	fa1,804(a6)
    27dc:	0020d073          	fsrmi	zero,1
    27e0:	00b57653          	fadd.s	fa2,fa0,fa1
    27e4:	001028f3          	frflags	a7
    27e8:	32c7a027          	fsw	fa2,800(a5)
    27ec:	3317a223          	sw	a7,804(a5)

000027f0 <inst_355>:
    27f0:	32882507          	flw	fa0,808(a6)
    27f4:	32c82587          	flw	fa1,812(a6)
    27f8:	00205073          	fsrmi	zero,0
    27fc:	00b57653          	fadd.s	fa2,fa0,fa1
    2800:	001028f3          	frflags	a7
    2804:	32c7a427          	fsw	fa2,808(a5)
    2808:	3317a623          	sw	a7,812(a5)

0000280c <inst_356>:
    280c:	33082507          	flw	fa0,816(a6)
    2810:	33482587          	flw	fa1,820(a6)
    2814:	00225073          	fsrmi	zero,4
    2818:	00b57653          	fadd.s	fa2,fa0,fa1
    281c:	001028f3          	frflags	a7
    2820:	32c7a827          	fsw	fa2,816(a5)
    2824:	3317aa23          	sw	a7,820(a5)

00002828 <inst_357>:
    2828:	33882507          	flw	fa0,824(a6)
    282c:	33c82587          	flw	fa1,828(a6)
    2830:	0021d073          	fsrmi	zero,3
    2834:	00b57653          	fadd.s	fa2,fa0,fa1
    2838:	001028f3          	frflags	a7
    283c:	32c7ac27          	fsw	fa2,824(a5)
    2840:	3317ae23          	sw	a7,828(a5)

00002844 <inst_358>:
    2844:	34082507          	flw	fa0,832(a6)
    2848:	34482587          	flw	fa1,836(a6)
    284c:	00215073          	fsrmi	zero,2
    2850:	00b57653          	fadd.s	fa2,fa0,fa1
    2854:	001028f3          	frflags	a7
    2858:	34c7a027          	fsw	fa2,832(a5)
    285c:	3517a223          	sw	a7,836(a5)

00002860 <inst_359>:
    2860:	34882507          	flw	fa0,840(a6)
    2864:	34c82587          	flw	fa1,844(a6)
    2868:	0020d073          	fsrmi	zero,1
    286c:	00b57653          	fadd.s	fa2,fa0,fa1
    2870:	001028f3          	frflags	a7
    2874:	34c7a427          	fsw	fa2,840(a5)
    2878:	3517a623          	sw	a7,844(a5)

0000287c <inst_360>:
    287c:	35082507          	flw	fa0,848(a6)
    2880:	35482587          	flw	fa1,852(a6)
    2884:	00205073          	fsrmi	zero,0
    2888:	00b57653          	fadd.s	fa2,fa0,fa1
    288c:	001028f3          	frflags	a7
    2890:	34c7a827          	fsw	fa2,848(a5)
    2894:	3517aa23          	sw	a7,852(a5)

00002898 <inst_361>:
    2898:	35882507          	flw	fa0,856(a6)
    289c:	35c82587          	flw	fa1,860(a6)
    28a0:	00225073          	fsrmi	zero,4
    28a4:	00b57653          	fadd.s	fa2,fa0,fa1
    28a8:	001028f3          	frflags	a7
    28ac:	34c7ac27          	fsw	fa2,856(a5)
    28b0:	3517ae23          	sw	a7,860(a5)

000028b4 <inst_362>:
    28b4:	36082507          	flw	fa0,864(a6)
    28b8:	36482587          	flw	fa1,868(a6)
    28bc:	0021d073          	fsrmi	zero,3
    28c0:	00b57653          	fadd.s	fa2,fa0,fa1
    28c4:	001028f3          	frflags	a7
    28c8:	36c7a027          	fsw	fa2,864(a5)
    28cc:	3717a223          	sw	a7,868(a5)

000028d0 <inst_363>:
    28d0:	36882507          	flw	fa0,872(a6)
    28d4:	36c82587          	flw	fa1,876(a6)
    28d8:	00215073          	fsrmi	zero,2
    28dc:	00b57653          	fadd.s	fa2,fa0,fa1
    28e0:	001028f3          	frflags	a7
    28e4:	36c7a427          	fsw	fa2,872(a5)
    28e8:	3717a623          	sw	a7,876(a5)

000028ec <inst_364>:
    28ec:	37082507          	flw	fa0,880(a6)
    28f0:	37482587          	flw	fa1,884(a6)
    28f4:	0020d073          	fsrmi	zero,1
    28f8:	00b57653          	fadd.s	fa2,fa0,fa1
    28fc:	001028f3          	frflags	a7
    2900:	36c7a827          	fsw	fa2,880(a5)
    2904:	3717aa23          	sw	a7,884(a5)

00002908 <inst_365>:
    2908:	37882507          	flw	fa0,888(a6)
    290c:	37c82587          	flw	fa1,892(a6)
    2910:	00205073          	fsrmi	zero,0
    2914:	00b57653          	fadd.s	fa2,fa0,fa1
    2918:	001028f3          	frflags	a7
    291c:	36c7ac27          	fsw	fa2,888(a5)
    2920:	3717ae23          	sw	a7,892(a5)

00002924 <inst_366>:
    2924:	38082507          	flw	fa0,896(a6)
    2928:	38482587          	flw	fa1,900(a6)
    292c:	00225073          	fsrmi	zero,4
    2930:	00b57653          	fadd.s	fa2,fa0,fa1
    2934:	001028f3          	frflags	a7
    2938:	38c7a027          	fsw	fa2,896(a5)
    293c:	3917a223          	sw	a7,900(a5)

00002940 <inst_367>:
    2940:	38882507          	flw	fa0,904(a6)
    2944:	38c82587          	flw	fa1,908(a6)
    2948:	0021d073          	fsrmi	zero,3
    294c:	00b57653          	fadd.s	fa2,fa0,fa1
    2950:	001028f3          	frflags	a7
    2954:	38c7a427          	fsw	fa2,904(a5)
    2958:	3917a623          	sw	a7,908(a5)

0000295c <inst_368>:
    295c:	39082507          	flw	fa0,912(a6)
    2960:	39482587          	flw	fa1,916(a6)
    2964:	00215073          	fsrmi	zero,2
    2968:	00b57653          	fadd.s	fa2,fa0,fa1
    296c:	001028f3          	frflags	a7
    2970:	38c7a827          	fsw	fa2,912(a5)
    2974:	3917aa23          	sw	a7,916(a5)

00002978 <inst_369>:
    2978:	39882507          	flw	fa0,920(a6)
    297c:	39c82587          	flw	fa1,924(a6)
    2980:	0020d073          	fsrmi	zero,1
    2984:	00b57653          	fadd.s	fa2,fa0,fa1
    2988:	001028f3          	frflags	a7
    298c:	38c7ac27          	fsw	fa2,920(a5)
    2990:	3917ae23          	sw	a7,924(a5)

00002994 <inst_370>:
    2994:	3a082507          	flw	fa0,928(a6)
    2998:	3a482587          	flw	fa1,932(a6)
    299c:	00205073          	fsrmi	zero,0
    29a0:	00b57653          	fadd.s	fa2,fa0,fa1
    29a4:	001028f3          	frflags	a7
    29a8:	3ac7a027          	fsw	fa2,928(a5)
    29ac:	3b17a223          	sw	a7,932(a5)

000029b0 <inst_371>:
    29b0:	3a882507          	flw	fa0,936(a6)
    29b4:	3ac82587          	flw	fa1,940(a6)
    29b8:	00225073          	fsrmi	zero,4
    29bc:	00b57653          	fadd.s	fa2,fa0,fa1
    29c0:	001028f3          	frflags	a7
    29c4:	3ac7a427          	fsw	fa2,936(a5)
    29c8:	3b17a623          	sw	a7,940(a5)

000029cc <inst_372>:
    29cc:	3b082507          	flw	fa0,944(a6)
    29d0:	3b482587          	flw	fa1,948(a6)
    29d4:	0021d073          	fsrmi	zero,3
    29d8:	00b57653          	fadd.s	fa2,fa0,fa1
    29dc:	001028f3          	frflags	a7
    29e0:	3ac7a827          	fsw	fa2,944(a5)
    29e4:	3b17aa23          	sw	a7,948(a5)

000029e8 <inst_373>:
    29e8:	3b882507          	flw	fa0,952(a6)
    29ec:	3bc82587          	flw	fa1,956(a6)
    29f0:	00215073          	fsrmi	zero,2
    29f4:	00b57653          	fadd.s	fa2,fa0,fa1
    29f8:	001028f3          	frflags	a7
    29fc:	3ac7ac27          	fsw	fa2,952(a5)
    2a00:	3b17ae23          	sw	a7,956(a5)

00002a04 <inst_374>:
    2a04:	3c082507          	flw	fa0,960(a6)
    2a08:	3c482587          	flw	fa1,964(a6)
    2a0c:	0020d073          	fsrmi	zero,1
    2a10:	00b57653          	fadd.s	fa2,fa0,fa1
    2a14:	001028f3          	frflags	a7
    2a18:	3cc7a027          	fsw	fa2,960(a5)
    2a1c:	3d17a223          	sw	a7,964(a5)

00002a20 <inst_375>:
    2a20:	3c882507          	flw	fa0,968(a6)
    2a24:	3cc82587          	flw	fa1,972(a6)
    2a28:	00205073          	fsrmi	zero,0
    2a2c:	00b57653          	fadd.s	fa2,fa0,fa1
    2a30:	001028f3          	frflags	a7
    2a34:	3cc7a427          	fsw	fa2,968(a5)
    2a38:	3d17a623          	sw	a7,972(a5)

00002a3c <inst_376>:
    2a3c:	3d082507          	flw	fa0,976(a6)
    2a40:	3d482587          	flw	fa1,980(a6)
    2a44:	00225073          	fsrmi	zero,4
    2a48:	00b57653          	fadd.s	fa2,fa0,fa1
    2a4c:	001028f3          	frflags	a7
    2a50:	3cc7a827          	fsw	fa2,976(a5)
    2a54:	3d17aa23          	sw	a7,980(a5)

00002a58 <inst_377>:
    2a58:	3d882507          	flw	fa0,984(a6)
    2a5c:	3dc82587          	flw	fa1,988(a6)
    2a60:	0021d073          	fsrmi	zero,3
    2a64:	00b57653          	fadd.s	fa2,fa0,fa1
    2a68:	001028f3          	frflags	a7
    2a6c:	3cc7ac27          	fsw	fa2,984(a5)
    2a70:	3d17ae23          	sw	a7,988(a5)

00002a74 <inst_378>:
    2a74:	3e082507          	flw	fa0,992(a6)
    2a78:	3e482587          	flw	fa1,996(a6)
    2a7c:	00215073          	fsrmi	zero,2
    2a80:	00b57653          	fadd.s	fa2,fa0,fa1
    2a84:	001028f3          	frflags	a7
    2a88:	3ec7a027          	fsw	fa2,992(a5)
    2a8c:	3f17a223          	sw	a7,996(a5)

00002a90 <inst_379>:
    2a90:	3e882507          	flw	fa0,1000(a6)
    2a94:	3ec82587          	flw	fa1,1004(a6)
    2a98:	0020d073          	fsrmi	zero,1
    2a9c:	00b57653          	fadd.s	fa2,fa0,fa1
    2aa0:	001028f3          	frflags	a7
    2aa4:	3ec7a427          	fsw	fa2,1000(a5)
    2aa8:	3f17a623          	sw	a7,1004(a5)

00002aac <inst_380>:
    2aac:	3f082507          	flw	fa0,1008(a6)
    2ab0:	3f482587          	flw	fa1,1012(a6)
    2ab4:	00205073          	fsrmi	zero,0
    2ab8:	00b57653          	fadd.s	fa2,fa0,fa1
    2abc:	001028f3          	frflags	a7
    2ac0:	3ec7a827          	fsw	fa2,1008(a5)
    2ac4:	3f17aa23          	sw	a7,1012(a5)

00002ac8 <inst_381>:
    2ac8:	3f882507          	flw	fa0,1016(a6)
    2acc:	3fc82587          	flw	fa1,1020(a6)
    2ad0:	00225073          	fsrmi	zero,4
    2ad4:	00b57653          	fadd.s	fa2,fa0,fa1
    2ad8:	001028f3          	frflags	a7
    2adc:	3ec7ac27          	fsw	fa2,1016(a5)
    2ae0:	3f17ae23          	sw	a7,1020(a5)

00002ae4 <inst_382>:
    2ae4:	40082507          	flw	fa0,1024(a6)
    2ae8:	40482587          	flw	fa1,1028(a6)
    2aec:	0021d073          	fsrmi	zero,3
    2af0:	00b57653          	fadd.s	fa2,fa0,fa1
    2af4:	001028f3          	frflags	a7
    2af8:	40c7a027          	fsw	fa2,1024(a5)
    2afc:	4117a223          	sw	a7,1028(a5)

00002b00 <inst_383>:
    2b00:	40882507          	flw	fa0,1032(a6)
    2b04:	40c82587          	flw	fa1,1036(a6)
    2b08:	00215073          	fsrmi	zero,2
    2b0c:	00b57653          	fadd.s	fa2,fa0,fa1
    2b10:	001028f3          	frflags	a7
    2b14:	40c7a427          	fsw	fa2,1032(a5)
    2b18:	4117a623          	sw	a7,1036(a5)

00002b1c <inst_384>:
    2b1c:	41082507          	flw	fa0,1040(a6)
    2b20:	41482587          	flw	fa1,1044(a6)
    2b24:	0020d073          	fsrmi	zero,1
    2b28:	00b57653          	fadd.s	fa2,fa0,fa1
    2b2c:	001028f3          	frflags	a7
    2b30:	40c7a827          	fsw	fa2,1040(a5)
    2b34:	4117aa23          	sw	a7,1044(a5)

00002b38 <inst_385>:
    2b38:	41882507          	flw	fa0,1048(a6)
    2b3c:	41c82587          	flw	fa1,1052(a6)
    2b40:	00205073          	fsrmi	zero,0
    2b44:	00b57653          	fadd.s	fa2,fa0,fa1
    2b48:	001028f3          	frflags	a7
    2b4c:	40c7ac27          	fsw	fa2,1048(a5)
    2b50:	4117ae23          	sw	a7,1052(a5)

00002b54 <inst_386>:
    2b54:	42082507          	flw	fa0,1056(a6)
    2b58:	42482587          	flw	fa1,1060(a6)
    2b5c:	00225073          	fsrmi	zero,4
    2b60:	00b57653          	fadd.s	fa2,fa0,fa1
    2b64:	001028f3          	frflags	a7
    2b68:	42c7a027          	fsw	fa2,1056(a5)
    2b6c:	4317a223          	sw	a7,1060(a5)

00002b70 <inst_387>:
    2b70:	42882507          	flw	fa0,1064(a6)
    2b74:	42c82587          	flw	fa1,1068(a6)
    2b78:	0021d073          	fsrmi	zero,3
    2b7c:	00b57653          	fadd.s	fa2,fa0,fa1
    2b80:	001028f3          	frflags	a7
    2b84:	42c7a427          	fsw	fa2,1064(a5)
    2b88:	4317a623          	sw	a7,1068(a5)

00002b8c <inst_388>:
    2b8c:	43082507          	flw	fa0,1072(a6)
    2b90:	43482587          	flw	fa1,1076(a6)
    2b94:	00215073          	fsrmi	zero,2
    2b98:	00b57653          	fadd.s	fa2,fa0,fa1
    2b9c:	001028f3          	frflags	a7
    2ba0:	42c7a827          	fsw	fa2,1072(a5)
    2ba4:	4317aa23          	sw	a7,1076(a5)

00002ba8 <inst_389>:
    2ba8:	43882507          	flw	fa0,1080(a6)
    2bac:	43c82587          	flw	fa1,1084(a6)
    2bb0:	0020d073          	fsrmi	zero,1
    2bb4:	00b57653          	fadd.s	fa2,fa0,fa1
    2bb8:	001028f3          	frflags	a7
    2bbc:	42c7ac27          	fsw	fa2,1080(a5)
    2bc0:	4317ae23          	sw	a7,1084(a5)

00002bc4 <inst_390>:
    2bc4:	44082507          	flw	fa0,1088(a6)
    2bc8:	44482587          	flw	fa1,1092(a6)
    2bcc:	00205073          	fsrmi	zero,0
    2bd0:	00b57653          	fadd.s	fa2,fa0,fa1
    2bd4:	001028f3          	frflags	a7
    2bd8:	44c7a027          	fsw	fa2,1088(a5)
    2bdc:	4517a223          	sw	a7,1092(a5)

00002be0 <inst_391>:
    2be0:	44882507          	flw	fa0,1096(a6)
    2be4:	44c82587          	flw	fa1,1100(a6)
    2be8:	00225073          	fsrmi	zero,4
    2bec:	00b57653          	fadd.s	fa2,fa0,fa1
    2bf0:	001028f3          	frflags	a7
    2bf4:	44c7a427          	fsw	fa2,1096(a5)
    2bf8:	4517a623          	sw	a7,1100(a5)

00002bfc <inst_392>:
    2bfc:	45082507          	flw	fa0,1104(a6)
    2c00:	45482587          	flw	fa1,1108(a6)
    2c04:	0021d073          	fsrmi	zero,3
    2c08:	00b57653          	fadd.s	fa2,fa0,fa1
    2c0c:	001028f3          	frflags	a7
    2c10:	44c7a827          	fsw	fa2,1104(a5)
    2c14:	4517aa23          	sw	a7,1108(a5)

00002c18 <inst_393>:
    2c18:	45882507          	flw	fa0,1112(a6)
    2c1c:	45c82587          	flw	fa1,1116(a6)
    2c20:	00215073          	fsrmi	zero,2
    2c24:	00b57653          	fadd.s	fa2,fa0,fa1
    2c28:	001028f3          	frflags	a7
    2c2c:	44c7ac27          	fsw	fa2,1112(a5)
    2c30:	4517ae23          	sw	a7,1116(a5)

00002c34 <inst_394>:
    2c34:	46082507          	flw	fa0,1120(a6)
    2c38:	46482587          	flw	fa1,1124(a6)
    2c3c:	0020d073          	fsrmi	zero,1
    2c40:	00b57653          	fadd.s	fa2,fa0,fa1
    2c44:	001028f3          	frflags	a7
    2c48:	46c7a027          	fsw	fa2,1120(a5)
    2c4c:	4717a223          	sw	a7,1124(a5)

00002c50 <inst_395>:
    2c50:	46882507          	flw	fa0,1128(a6)
    2c54:	46c82587          	flw	fa1,1132(a6)
    2c58:	00205073          	fsrmi	zero,0
    2c5c:	00b57653          	fadd.s	fa2,fa0,fa1
    2c60:	001028f3          	frflags	a7
    2c64:	46c7a427          	fsw	fa2,1128(a5)
    2c68:	4717a623          	sw	a7,1132(a5)

00002c6c <inst_396>:
    2c6c:	47082507          	flw	fa0,1136(a6)
    2c70:	47482587          	flw	fa1,1140(a6)
    2c74:	00225073          	fsrmi	zero,4
    2c78:	00b57653          	fadd.s	fa2,fa0,fa1
    2c7c:	001028f3          	frflags	a7
    2c80:	46c7a827          	fsw	fa2,1136(a5)
    2c84:	4717aa23          	sw	a7,1140(a5)

00002c88 <inst_397>:
    2c88:	47882507          	flw	fa0,1144(a6)
    2c8c:	47c82587          	flw	fa1,1148(a6)
    2c90:	0021d073          	fsrmi	zero,3
    2c94:	00b57653          	fadd.s	fa2,fa0,fa1
    2c98:	001028f3          	frflags	a7
    2c9c:	46c7ac27          	fsw	fa2,1144(a5)
    2ca0:	4717ae23          	sw	a7,1148(a5)

00002ca4 <inst_398>:
    2ca4:	48082507          	flw	fa0,1152(a6)
    2ca8:	48482587          	flw	fa1,1156(a6)
    2cac:	00215073          	fsrmi	zero,2
    2cb0:	00b57653          	fadd.s	fa2,fa0,fa1
    2cb4:	001028f3          	frflags	a7
    2cb8:	48c7a027          	fsw	fa2,1152(a5)
    2cbc:	4917a223          	sw	a7,1156(a5)

00002cc0 <inst_399>:
    2cc0:	48882507          	flw	fa0,1160(a6)
    2cc4:	48c82587          	flw	fa1,1164(a6)
    2cc8:	0020d073          	fsrmi	zero,1
    2ccc:	00b57653          	fadd.s	fa2,fa0,fa1
    2cd0:	001028f3          	frflags	a7
    2cd4:	48c7a427          	fsw	fa2,1160(a5)
    2cd8:	4917a623          	sw	a7,1164(a5)

00002cdc <inst_400>:
    2cdc:	49082507          	flw	fa0,1168(a6)
    2ce0:	49482587          	flw	fa1,1172(a6)
    2ce4:	00205073          	fsrmi	zero,0
    2ce8:	00b57653          	fadd.s	fa2,fa0,fa1
    2cec:	001028f3          	frflags	a7
    2cf0:	48c7a827          	fsw	fa2,1168(a5)
    2cf4:	4917aa23          	sw	a7,1172(a5)

00002cf8 <inst_401>:
    2cf8:	49882507          	flw	fa0,1176(a6)
    2cfc:	49c82587          	flw	fa1,1180(a6)
    2d00:	00225073          	fsrmi	zero,4
    2d04:	00b57653          	fadd.s	fa2,fa0,fa1
    2d08:	001028f3          	frflags	a7
    2d0c:	48c7ac27          	fsw	fa2,1176(a5)
    2d10:	4917ae23          	sw	a7,1180(a5)

00002d14 <inst_402>:
    2d14:	4a082507          	flw	fa0,1184(a6)
    2d18:	4a482587          	flw	fa1,1188(a6)
    2d1c:	0021d073          	fsrmi	zero,3
    2d20:	00b57653          	fadd.s	fa2,fa0,fa1
    2d24:	001028f3          	frflags	a7
    2d28:	4ac7a027          	fsw	fa2,1184(a5)
    2d2c:	4b17a223          	sw	a7,1188(a5)

00002d30 <inst_403>:
    2d30:	4a882507          	flw	fa0,1192(a6)
    2d34:	4ac82587          	flw	fa1,1196(a6)
    2d38:	00215073          	fsrmi	zero,2
    2d3c:	00b57653          	fadd.s	fa2,fa0,fa1
    2d40:	001028f3          	frflags	a7
    2d44:	4ac7a427          	fsw	fa2,1192(a5)
    2d48:	4b17a623          	sw	a7,1196(a5)

00002d4c <inst_404>:
    2d4c:	4b082507          	flw	fa0,1200(a6)
    2d50:	4b482587          	flw	fa1,1204(a6)
    2d54:	0020d073          	fsrmi	zero,1
    2d58:	00b57653          	fadd.s	fa2,fa0,fa1
    2d5c:	001028f3          	frflags	a7
    2d60:	4ac7a827          	fsw	fa2,1200(a5)
    2d64:	4b17aa23          	sw	a7,1204(a5)

00002d68 <inst_405>:
    2d68:	4b882507          	flw	fa0,1208(a6)
    2d6c:	4bc82587          	flw	fa1,1212(a6)
    2d70:	00205073          	fsrmi	zero,0
    2d74:	00b57653          	fadd.s	fa2,fa0,fa1
    2d78:	001028f3          	frflags	a7
    2d7c:	4ac7ac27          	fsw	fa2,1208(a5)
    2d80:	4b17ae23          	sw	a7,1212(a5)

00002d84 <inst_406>:
    2d84:	4c082507          	flw	fa0,1216(a6)
    2d88:	4c482587          	flw	fa1,1220(a6)
    2d8c:	00225073          	fsrmi	zero,4
    2d90:	00b57653          	fadd.s	fa2,fa0,fa1
    2d94:	001028f3          	frflags	a7
    2d98:	4cc7a027          	fsw	fa2,1216(a5)
    2d9c:	4d17a223          	sw	a7,1220(a5)

00002da0 <inst_407>:
    2da0:	4c882507          	flw	fa0,1224(a6)
    2da4:	4cc82587          	flw	fa1,1228(a6)
    2da8:	0021d073          	fsrmi	zero,3
    2dac:	00b57653          	fadd.s	fa2,fa0,fa1
    2db0:	001028f3          	frflags	a7
    2db4:	4cc7a427          	fsw	fa2,1224(a5)
    2db8:	4d17a623          	sw	a7,1228(a5)

00002dbc <inst_408>:
    2dbc:	4d082507          	flw	fa0,1232(a6)
    2dc0:	4d482587          	flw	fa1,1236(a6)
    2dc4:	00215073          	fsrmi	zero,2
    2dc8:	00b57653          	fadd.s	fa2,fa0,fa1
    2dcc:	001028f3          	frflags	a7
    2dd0:	4cc7a827          	fsw	fa2,1232(a5)
    2dd4:	4d17aa23          	sw	a7,1236(a5)

00002dd8 <inst_409>:
    2dd8:	4d882507          	flw	fa0,1240(a6)
    2ddc:	4dc82587          	flw	fa1,1244(a6)
    2de0:	0020d073          	fsrmi	zero,1
    2de4:	00b57653          	fadd.s	fa2,fa0,fa1
    2de8:	001028f3          	frflags	a7
    2dec:	4cc7ac27          	fsw	fa2,1240(a5)
    2df0:	4d17ae23          	sw	a7,1244(a5)

00002df4 <inst_410>:
    2df4:	4e082507          	flw	fa0,1248(a6)
    2df8:	4e482587          	flw	fa1,1252(a6)
    2dfc:	00205073          	fsrmi	zero,0
    2e00:	00b57653          	fadd.s	fa2,fa0,fa1
    2e04:	001028f3          	frflags	a7
    2e08:	4ec7a027          	fsw	fa2,1248(a5)
    2e0c:	4f17a223          	sw	a7,1252(a5)

00002e10 <inst_411>:
    2e10:	4e882507          	flw	fa0,1256(a6)
    2e14:	4ec82587          	flw	fa1,1260(a6)
    2e18:	00225073          	fsrmi	zero,4
    2e1c:	00b57653          	fadd.s	fa2,fa0,fa1
    2e20:	001028f3          	frflags	a7
    2e24:	4ec7a427          	fsw	fa2,1256(a5)
    2e28:	4f17a623          	sw	a7,1260(a5)

00002e2c <inst_412>:
    2e2c:	4f082507          	flw	fa0,1264(a6)
    2e30:	4f482587          	flw	fa1,1268(a6)
    2e34:	0021d073          	fsrmi	zero,3
    2e38:	00b57653          	fadd.s	fa2,fa0,fa1
    2e3c:	001028f3          	frflags	a7
    2e40:	4ec7a827          	fsw	fa2,1264(a5)
    2e44:	4f17aa23          	sw	a7,1268(a5)

00002e48 <inst_413>:
    2e48:	4f882507          	flw	fa0,1272(a6)
    2e4c:	4fc82587          	flw	fa1,1276(a6)
    2e50:	00215073          	fsrmi	zero,2
    2e54:	00b57653          	fadd.s	fa2,fa0,fa1
    2e58:	001028f3          	frflags	a7
    2e5c:	4ec7ac27          	fsw	fa2,1272(a5)
    2e60:	4f17ae23          	sw	a7,1276(a5)

00002e64 <inst_414>:
    2e64:	50082507          	flw	fa0,1280(a6)
    2e68:	50482587          	flw	fa1,1284(a6)
    2e6c:	0020d073          	fsrmi	zero,1
    2e70:	00b57653          	fadd.s	fa2,fa0,fa1
    2e74:	001028f3          	frflags	a7
    2e78:	50c7a027          	fsw	fa2,1280(a5)
    2e7c:	5117a223          	sw	a7,1284(a5)

00002e80 <inst_415>:
    2e80:	50882507          	flw	fa0,1288(a6)
    2e84:	50c82587          	flw	fa1,1292(a6)
    2e88:	00205073          	fsrmi	zero,0
    2e8c:	00b57653          	fadd.s	fa2,fa0,fa1
    2e90:	001028f3          	frflags	a7
    2e94:	50c7a427          	fsw	fa2,1288(a5)
    2e98:	5117a623          	sw	a7,1292(a5)

00002e9c <inst_416>:
    2e9c:	51082507          	flw	fa0,1296(a6)
    2ea0:	51482587          	flw	fa1,1300(a6)
    2ea4:	00225073          	fsrmi	zero,4
    2ea8:	00b57653          	fadd.s	fa2,fa0,fa1
    2eac:	001028f3          	frflags	a7
    2eb0:	50c7a827          	fsw	fa2,1296(a5)
    2eb4:	5117aa23          	sw	a7,1300(a5)

00002eb8 <inst_417>:
    2eb8:	51882507          	flw	fa0,1304(a6)
    2ebc:	51c82587          	flw	fa1,1308(a6)
    2ec0:	0021d073          	fsrmi	zero,3
    2ec4:	00b57653          	fadd.s	fa2,fa0,fa1
    2ec8:	001028f3          	frflags	a7
    2ecc:	50c7ac27          	fsw	fa2,1304(a5)
    2ed0:	5117ae23          	sw	a7,1308(a5)

00002ed4 <inst_418>:
    2ed4:	52082507          	flw	fa0,1312(a6)
    2ed8:	52482587          	flw	fa1,1316(a6)
    2edc:	00215073          	fsrmi	zero,2
    2ee0:	00b57653          	fadd.s	fa2,fa0,fa1
    2ee4:	001028f3          	frflags	a7
    2ee8:	52c7a027          	fsw	fa2,1312(a5)
    2eec:	5317a223          	sw	a7,1316(a5)

00002ef0 <inst_419>:
    2ef0:	52882507          	flw	fa0,1320(a6)
    2ef4:	52c82587          	flw	fa1,1324(a6)
    2ef8:	0020d073          	fsrmi	zero,1
    2efc:	00b57653          	fadd.s	fa2,fa0,fa1
    2f00:	001028f3          	frflags	a7
    2f04:	52c7a427          	fsw	fa2,1320(a5)
    2f08:	5317a623          	sw	a7,1324(a5)

00002f0c <inst_420>:
    2f0c:	53082507          	flw	fa0,1328(a6)
    2f10:	53482587          	flw	fa1,1332(a6)
    2f14:	00205073          	fsrmi	zero,0
    2f18:	00b57653          	fadd.s	fa2,fa0,fa1
    2f1c:	001028f3          	frflags	a7
    2f20:	52c7a827          	fsw	fa2,1328(a5)
    2f24:	5317aa23          	sw	a7,1332(a5)

00002f28 <inst_421>:
    2f28:	53882507          	flw	fa0,1336(a6)
    2f2c:	53c82587          	flw	fa1,1340(a6)
    2f30:	00225073          	fsrmi	zero,4
    2f34:	00b57653          	fadd.s	fa2,fa0,fa1
    2f38:	001028f3          	frflags	a7
    2f3c:	52c7ac27          	fsw	fa2,1336(a5)
    2f40:	5317ae23          	sw	a7,1340(a5)

00002f44 <inst_422>:
    2f44:	54082507          	flw	fa0,1344(a6)
    2f48:	54482587          	flw	fa1,1348(a6)
    2f4c:	0021d073          	fsrmi	zero,3
    2f50:	00b57653          	fadd.s	fa2,fa0,fa1
    2f54:	001028f3          	frflags	a7
    2f58:	54c7a027          	fsw	fa2,1344(a5)
    2f5c:	5517a223          	sw	a7,1348(a5)

00002f60 <inst_423>:
    2f60:	54882507          	flw	fa0,1352(a6)
    2f64:	54c82587          	flw	fa1,1356(a6)
    2f68:	00215073          	fsrmi	zero,2
    2f6c:	00b57653          	fadd.s	fa2,fa0,fa1
    2f70:	001028f3          	frflags	a7
    2f74:	54c7a427          	fsw	fa2,1352(a5)
    2f78:	5517a623          	sw	a7,1356(a5)

00002f7c <inst_424>:
    2f7c:	55082507          	flw	fa0,1360(a6)
    2f80:	55482587          	flw	fa1,1364(a6)
    2f84:	0020d073          	fsrmi	zero,1
    2f88:	00b57653          	fadd.s	fa2,fa0,fa1
    2f8c:	001028f3          	frflags	a7
    2f90:	54c7a827          	fsw	fa2,1360(a5)
    2f94:	5517aa23          	sw	a7,1364(a5)

00002f98 <inst_425>:
    2f98:	55882507          	flw	fa0,1368(a6)
    2f9c:	55c82587          	flw	fa1,1372(a6)
    2fa0:	00205073          	fsrmi	zero,0
    2fa4:	00b57653          	fadd.s	fa2,fa0,fa1
    2fa8:	001028f3          	frflags	a7
    2fac:	54c7ac27          	fsw	fa2,1368(a5)
    2fb0:	5517ae23          	sw	a7,1372(a5)

00002fb4 <inst_426>:
    2fb4:	56082507          	flw	fa0,1376(a6)
    2fb8:	56482587          	flw	fa1,1380(a6)
    2fbc:	00225073          	fsrmi	zero,4
    2fc0:	00b57653          	fadd.s	fa2,fa0,fa1
    2fc4:	001028f3          	frflags	a7
    2fc8:	56c7a027          	fsw	fa2,1376(a5)
    2fcc:	5717a223          	sw	a7,1380(a5)

00002fd0 <inst_427>:
    2fd0:	56882507          	flw	fa0,1384(a6)
    2fd4:	56c82587          	flw	fa1,1388(a6)
    2fd8:	0021d073          	fsrmi	zero,3
    2fdc:	00b57653          	fadd.s	fa2,fa0,fa1
    2fe0:	001028f3          	frflags	a7
    2fe4:	56c7a427          	fsw	fa2,1384(a5)
    2fe8:	5717a623          	sw	a7,1388(a5)

00002fec <inst_428>:
    2fec:	57082507          	flw	fa0,1392(a6)
    2ff0:	57482587          	flw	fa1,1396(a6)
    2ff4:	00215073          	fsrmi	zero,2
    2ff8:	00b57653          	fadd.s	fa2,fa0,fa1
    2ffc:	001028f3          	frflags	a7
    3000:	56c7a827          	fsw	fa2,1392(a5)
    3004:	5717aa23          	sw	a7,1396(a5)

00003008 <inst_429>:
    3008:	57882507          	flw	fa0,1400(a6)
    300c:	57c82587          	flw	fa1,1404(a6)
    3010:	0020d073          	fsrmi	zero,1
    3014:	00b57653          	fadd.s	fa2,fa0,fa1
    3018:	001028f3          	frflags	a7
    301c:	56c7ac27          	fsw	fa2,1400(a5)
    3020:	5717ae23          	sw	a7,1404(a5)

00003024 <inst_430>:
    3024:	58082507          	flw	fa0,1408(a6)
    3028:	58482587          	flw	fa1,1412(a6)
    302c:	00205073          	fsrmi	zero,0
    3030:	00b57653          	fadd.s	fa2,fa0,fa1
    3034:	001028f3          	frflags	a7
    3038:	58c7a027          	fsw	fa2,1408(a5)
    303c:	5917a223          	sw	a7,1412(a5)

00003040 <inst_431>:
    3040:	58882507          	flw	fa0,1416(a6)
    3044:	58c82587          	flw	fa1,1420(a6)
    3048:	00225073          	fsrmi	zero,4
    304c:	00b57653          	fadd.s	fa2,fa0,fa1
    3050:	001028f3          	frflags	a7
    3054:	58c7a427          	fsw	fa2,1416(a5)
    3058:	5917a623          	sw	a7,1420(a5)

0000305c <inst_432>:
    305c:	59082507          	flw	fa0,1424(a6)
    3060:	59482587          	flw	fa1,1428(a6)
    3064:	0021d073          	fsrmi	zero,3
    3068:	00b57653          	fadd.s	fa2,fa0,fa1
    306c:	001028f3          	frflags	a7
    3070:	58c7a827          	fsw	fa2,1424(a5)
    3074:	5917aa23          	sw	a7,1428(a5)

00003078 <inst_433>:
    3078:	59882507          	flw	fa0,1432(a6)
    307c:	59c82587          	flw	fa1,1436(a6)
    3080:	00215073          	fsrmi	zero,2
    3084:	00b57653          	fadd.s	fa2,fa0,fa1
    3088:	001028f3          	frflags	a7
    308c:	58c7ac27          	fsw	fa2,1432(a5)
    3090:	5917ae23          	sw	a7,1436(a5)

00003094 <inst_434>:
    3094:	5a082507          	flw	fa0,1440(a6)
    3098:	5a482587          	flw	fa1,1444(a6)
    309c:	0020d073          	fsrmi	zero,1
    30a0:	00b57653          	fadd.s	fa2,fa0,fa1
    30a4:	001028f3          	frflags	a7
    30a8:	5ac7a027          	fsw	fa2,1440(a5)
    30ac:	5b17a223          	sw	a7,1444(a5)

000030b0 <inst_435>:
    30b0:	5a882507          	flw	fa0,1448(a6)
    30b4:	5ac82587          	flw	fa1,1452(a6)
    30b8:	00205073          	fsrmi	zero,0
    30bc:	00b57653          	fadd.s	fa2,fa0,fa1
    30c0:	001028f3          	frflags	a7
    30c4:	5ac7a427          	fsw	fa2,1448(a5)
    30c8:	5b17a623          	sw	a7,1452(a5)

000030cc <inst_436>:
    30cc:	5b082507          	flw	fa0,1456(a6)
    30d0:	5b482587          	flw	fa1,1460(a6)
    30d4:	00225073          	fsrmi	zero,4
    30d8:	00b57653          	fadd.s	fa2,fa0,fa1
    30dc:	001028f3          	frflags	a7
    30e0:	5ac7a827          	fsw	fa2,1456(a5)
    30e4:	5b17aa23          	sw	a7,1460(a5)

000030e8 <inst_437>:
    30e8:	5b882507          	flw	fa0,1464(a6)
    30ec:	5bc82587          	flw	fa1,1468(a6)
    30f0:	0021d073          	fsrmi	zero,3
    30f4:	00b57653          	fadd.s	fa2,fa0,fa1
    30f8:	001028f3          	frflags	a7
    30fc:	5ac7ac27          	fsw	fa2,1464(a5)
    3100:	5b17ae23          	sw	a7,1468(a5)

00003104 <inst_438>:
    3104:	5c082507          	flw	fa0,1472(a6)
    3108:	5c482587          	flw	fa1,1476(a6)
    310c:	00215073          	fsrmi	zero,2
    3110:	00b57653          	fadd.s	fa2,fa0,fa1
    3114:	001028f3          	frflags	a7
    3118:	5cc7a027          	fsw	fa2,1472(a5)
    311c:	5d17a223          	sw	a7,1476(a5)

00003120 <inst_439>:
    3120:	5c882507          	flw	fa0,1480(a6)
    3124:	5cc82587          	flw	fa1,1484(a6)
    3128:	0020d073          	fsrmi	zero,1
    312c:	00b57653          	fadd.s	fa2,fa0,fa1
    3130:	001028f3          	frflags	a7
    3134:	5cc7a427          	fsw	fa2,1480(a5)
    3138:	5d17a623          	sw	a7,1484(a5)

0000313c <inst_440>:
    313c:	5d082507          	flw	fa0,1488(a6)
    3140:	5d482587          	flw	fa1,1492(a6)
    3144:	00205073          	fsrmi	zero,0
    3148:	00b57653          	fadd.s	fa2,fa0,fa1
    314c:	001028f3          	frflags	a7
    3150:	5cc7a827          	fsw	fa2,1488(a5)
    3154:	5d17aa23          	sw	a7,1492(a5)

00003158 <inst_441>:
    3158:	5d882507          	flw	fa0,1496(a6)
    315c:	5dc82587          	flw	fa1,1500(a6)
    3160:	00225073          	fsrmi	zero,4
    3164:	00b57653          	fadd.s	fa2,fa0,fa1
    3168:	001028f3          	frflags	a7
    316c:	5cc7ac27          	fsw	fa2,1496(a5)
    3170:	5d17ae23          	sw	a7,1500(a5)

00003174 <inst_442>:
    3174:	5e082507          	flw	fa0,1504(a6)
    3178:	5e482587          	flw	fa1,1508(a6)
    317c:	0021d073          	fsrmi	zero,3
    3180:	00b57653          	fadd.s	fa2,fa0,fa1
    3184:	001028f3          	frflags	a7
    3188:	5ec7a027          	fsw	fa2,1504(a5)
    318c:	5f17a223          	sw	a7,1508(a5)

00003190 <inst_443>:
    3190:	5e882507          	flw	fa0,1512(a6)
    3194:	5ec82587          	flw	fa1,1516(a6)
    3198:	00215073          	fsrmi	zero,2
    319c:	00b57653          	fadd.s	fa2,fa0,fa1
    31a0:	001028f3          	frflags	a7
    31a4:	5ec7a427          	fsw	fa2,1512(a5)
    31a8:	5f17a623          	sw	a7,1516(a5)

000031ac <inst_444>:
    31ac:	5f082507          	flw	fa0,1520(a6)
    31b0:	5f482587          	flw	fa1,1524(a6)
    31b4:	0020d073          	fsrmi	zero,1
    31b8:	00b57653          	fadd.s	fa2,fa0,fa1
    31bc:	001028f3          	frflags	a7
    31c0:	5ec7a827          	fsw	fa2,1520(a5)
    31c4:	5f17aa23          	sw	a7,1524(a5)

000031c8 <inst_445>:
    31c8:	5f882507          	flw	fa0,1528(a6)
    31cc:	5fc82587          	flw	fa1,1532(a6)
    31d0:	00205073          	fsrmi	zero,0
    31d4:	00b57653          	fadd.s	fa2,fa0,fa1
    31d8:	001028f3          	frflags	a7
    31dc:	5ec7ac27          	fsw	fa2,1528(a5)
    31e0:	5f17ae23          	sw	a7,1532(a5)

000031e4 <inst_446>:
    31e4:	60082507          	flw	fa0,1536(a6)
    31e8:	60482587          	flw	fa1,1540(a6)
    31ec:	00225073          	fsrmi	zero,4
    31f0:	00b57653          	fadd.s	fa2,fa0,fa1
    31f4:	001028f3          	frflags	a7
    31f8:	60c7a027          	fsw	fa2,1536(a5)
    31fc:	6117a223          	sw	a7,1540(a5)

00003200 <inst_447>:
    3200:	60882507          	flw	fa0,1544(a6)
    3204:	60c82587          	flw	fa1,1548(a6)
    3208:	0021d073          	fsrmi	zero,3
    320c:	00b57653          	fadd.s	fa2,fa0,fa1
    3210:	001028f3          	frflags	a7
    3214:	60c7a427          	fsw	fa2,1544(a5)
    3218:	6117a623          	sw	a7,1548(a5)

0000321c <inst_448>:
    321c:	61082507          	flw	fa0,1552(a6)
    3220:	61482587          	flw	fa1,1556(a6)
    3224:	00215073          	fsrmi	zero,2
    3228:	00b57653          	fadd.s	fa2,fa0,fa1
    322c:	001028f3          	frflags	a7
    3230:	60c7a827          	fsw	fa2,1552(a5)
    3234:	6117aa23          	sw	a7,1556(a5)

00003238 <inst_449>:
    3238:	61882507          	flw	fa0,1560(a6)
    323c:	61c82587          	flw	fa1,1564(a6)
    3240:	0020d073          	fsrmi	zero,1
    3244:	00b57653          	fadd.s	fa2,fa0,fa1
    3248:	001028f3          	frflags	a7
    324c:	60c7ac27          	fsw	fa2,1560(a5)
    3250:	6117ae23          	sw	a7,1564(a5)

00003254 <inst_450>:
    3254:	62082507          	flw	fa0,1568(a6)
    3258:	62482587          	flw	fa1,1572(a6)
    325c:	00205073          	fsrmi	zero,0
    3260:	00b57653          	fadd.s	fa2,fa0,fa1
    3264:	001028f3          	frflags	a7
    3268:	62c7a027          	fsw	fa2,1568(a5)
    326c:	6317a223          	sw	a7,1572(a5)

00003270 <inst_451>:
    3270:	62882507          	flw	fa0,1576(a6)
    3274:	62c82587          	flw	fa1,1580(a6)
    3278:	00225073          	fsrmi	zero,4
    327c:	00b57653          	fadd.s	fa2,fa0,fa1
    3280:	001028f3          	frflags	a7
    3284:	62c7a427          	fsw	fa2,1576(a5)
    3288:	6317a623          	sw	a7,1580(a5)

0000328c <inst_452>:
    328c:	63082507          	flw	fa0,1584(a6)
    3290:	63482587          	flw	fa1,1588(a6)
    3294:	0021d073          	fsrmi	zero,3
    3298:	00b57653          	fadd.s	fa2,fa0,fa1
    329c:	001028f3          	frflags	a7
    32a0:	62c7a827          	fsw	fa2,1584(a5)
    32a4:	6317aa23          	sw	a7,1588(a5)

000032a8 <inst_453>:
    32a8:	63882507          	flw	fa0,1592(a6)
    32ac:	63c82587          	flw	fa1,1596(a6)
    32b0:	00215073          	fsrmi	zero,2
    32b4:	00b57653          	fadd.s	fa2,fa0,fa1
    32b8:	001028f3          	frflags	a7
    32bc:	62c7ac27          	fsw	fa2,1592(a5)
    32c0:	6317ae23          	sw	a7,1596(a5)

000032c4 <inst_454>:
    32c4:	64082507          	flw	fa0,1600(a6)
    32c8:	64482587          	flw	fa1,1604(a6)
    32cc:	0020d073          	fsrmi	zero,1
    32d0:	00b57653          	fadd.s	fa2,fa0,fa1
    32d4:	001028f3          	frflags	a7
    32d8:	64c7a027          	fsw	fa2,1600(a5)
    32dc:	6517a223          	sw	a7,1604(a5)

000032e0 <inst_455>:
    32e0:	64882507          	flw	fa0,1608(a6)
    32e4:	64c82587          	flw	fa1,1612(a6)
    32e8:	00205073          	fsrmi	zero,0
    32ec:	00b57653          	fadd.s	fa2,fa0,fa1
    32f0:	001028f3          	frflags	a7
    32f4:	64c7a427          	fsw	fa2,1608(a5)
    32f8:	6517a623          	sw	a7,1612(a5)

000032fc <inst_456>:
    32fc:	65082507          	flw	fa0,1616(a6)
    3300:	65482587          	flw	fa1,1620(a6)
    3304:	00225073          	fsrmi	zero,4
    3308:	00b57653          	fadd.s	fa2,fa0,fa1
    330c:	001028f3          	frflags	a7
    3310:	64c7a827          	fsw	fa2,1616(a5)
    3314:	6517aa23          	sw	a7,1620(a5)

00003318 <inst_457>:
    3318:	65882507          	flw	fa0,1624(a6)
    331c:	65c82587          	flw	fa1,1628(a6)
    3320:	0021d073          	fsrmi	zero,3
    3324:	00b57653          	fadd.s	fa2,fa0,fa1
    3328:	001028f3          	frflags	a7
    332c:	64c7ac27          	fsw	fa2,1624(a5)
    3330:	6517ae23          	sw	a7,1628(a5)

00003334 <inst_458>:
    3334:	66082507          	flw	fa0,1632(a6)
    3338:	66482587          	flw	fa1,1636(a6)
    333c:	00215073          	fsrmi	zero,2
    3340:	00b57653          	fadd.s	fa2,fa0,fa1
    3344:	001028f3          	frflags	a7
    3348:	66c7a027          	fsw	fa2,1632(a5)
    334c:	6717a223          	sw	a7,1636(a5)

00003350 <inst_459>:
    3350:	66882507          	flw	fa0,1640(a6)
    3354:	66c82587          	flw	fa1,1644(a6)
    3358:	0020d073          	fsrmi	zero,1
    335c:	00b57653          	fadd.s	fa2,fa0,fa1
    3360:	001028f3          	frflags	a7
    3364:	66c7a427          	fsw	fa2,1640(a5)
    3368:	6717a623          	sw	a7,1644(a5)

0000336c <inst_460>:
    336c:	67082507          	flw	fa0,1648(a6)
    3370:	67482587          	flw	fa1,1652(a6)
    3374:	00205073          	fsrmi	zero,0
    3378:	00b57653          	fadd.s	fa2,fa0,fa1
    337c:	001028f3          	frflags	a7
    3380:	66c7a827          	fsw	fa2,1648(a5)
    3384:	6717aa23          	sw	a7,1652(a5)

00003388 <inst_461>:
    3388:	67882507          	flw	fa0,1656(a6)
    338c:	67c82587          	flw	fa1,1660(a6)
    3390:	00225073          	fsrmi	zero,4
    3394:	00b57653          	fadd.s	fa2,fa0,fa1
    3398:	001028f3          	frflags	a7
    339c:	66c7ac27          	fsw	fa2,1656(a5)
    33a0:	6717ae23          	sw	a7,1660(a5)

000033a4 <inst_462>:
    33a4:	68082507          	flw	fa0,1664(a6)
    33a8:	68482587          	flw	fa1,1668(a6)
    33ac:	0021d073          	fsrmi	zero,3
    33b0:	00b57653          	fadd.s	fa2,fa0,fa1
    33b4:	001028f3          	frflags	a7
    33b8:	68c7a027          	fsw	fa2,1664(a5)
    33bc:	6917a223          	sw	a7,1668(a5)

000033c0 <inst_463>:
    33c0:	68882507          	flw	fa0,1672(a6)
    33c4:	68c82587          	flw	fa1,1676(a6)
    33c8:	00215073          	fsrmi	zero,2
    33cc:	00b57653          	fadd.s	fa2,fa0,fa1
    33d0:	001028f3          	frflags	a7
    33d4:	68c7a427          	fsw	fa2,1672(a5)
    33d8:	6917a623          	sw	a7,1676(a5)

000033dc <inst_464>:
    33dc:	69082507          	flw	fa0,1680(a6)
    33e0:	69482587          	flw	fa1,1684(a6)
    33e4:	0020d073          	fsrmi	zero,1
    33e8:	00b57653          	fadd.s	fa2,fa0,fa1
    33ec:	001028f3          	frflags	a7
    33f0:	68c7a827          	fsw	fa2,1680(a5)
    33f4:	6917aa23          	sw	a7,1684(a5)

000033f8 <inst_465>:
    33f8:	69882507          	flw	fa0,1688(a6)
    33fc:	69c82587          	flw	fa1,1692(a6)
    3400:	00205073          	fsrmi	zero,0
    3404:	00b57653          	fadd.s	fa2,fa0,fa1
    3408:	001028f3          	frflags	a7
    340c:	68c7ac27          	fsw	fa2,1688(a5)
    3410:	6917ae23          	sw	a7,1692(a5)

00003414 <inst_466>:
    3414:	6a082507          	flw	fa0,1696(a6)
    3418:	6a482587          	flw	fa1,1700(a6)
    341c:	00225073          	fsrmi	zero,4
    3420:	00b57653          	fadd.s	fa2,fa0,fa1
    3424:	001028f3          	frflags	a7
    3428:	6ac7a027          	fsw	fa2,1696(a5)
    342c:	6b17a223          	sw	a7,1700(a5)

00003430 <inst_467>:
    3430:	6a882507          	flw	fa0,1704(a6)
    3434:	6ac82587          	flw	fa1,1708(a6)
    3438:	0021d073          	fsrmi	zero,3
    343c:	00b57653          	fadd.s	fa2,fa0,fa1
    3440:	001028f3          	frflags	a7
    3444:	6ac7a427          	fsw	fa2,1704(a5)
    3448:	6b17a623          	sw	a7,1708(a5)

0000344c <inst_468>:
    344c:	6b082507          	flw	fa0,1712(a6)
    3450:	6b482587          	flw	fa1,1716(a6)
    3454:	00215073          	fsrmi	zero,2
    3458:	00b57653          	fadd.s	fa2,fa0,fa1
    345c:	001028f3          	frflags	a7
    3460:	6ac7a827          	fsw	fa2,1712(a5)
    3464:	6b17aa23          	sw	a7,1716(a5)

00003468 <inst_469>:
    3468:	6b882507          	flw	fa0,1720(a6)
    346c:	6bc82587          	flw	fa1,1724(a6)
    3470:	0020d073          	fsrmi	zero,1
    3474:	00b57653          	fadd.s	fa2,fa0,fa1
    3478:	001028f3          	frflags	a7
    347c:	6ac7ac27          	fsw	fa2,1720(a5)
    3480:	6b17ae23          	sw	a7,1724(a5)

00003484 <inst_470>:
    3484:	6c082507          	flw	fa0,1728(a6)
    3488:	6c482587          	flw	fa1,1732(a6)
    348c:	00205073          	fsrmi	zero,0
    3490:	00b57653          	fadd.s	fa2,fa0,fa1
    3494:	001028f3          	frflags	a7
    3498:	6cc7a027          	fsw	fa2,1728(a5)
    349c:	6d17a223          	sw	a7,1732(a5)

000034a0 <inst_471>:
    34a0:	6c882507          	flw	fa0,1736(a6)
    34a4:	6cc82587          	flw	fa1,1740(a6)
    34a8:	00225073          	fsrmi	zero,4
    34ac:	00b57653          	fadd.s	fa2,fa0,fa1
    34b0:	001028f3          	frflags	a7
    34b4:	6cc7a427          	fsw	fa2,1736(a5)
    34b8:	6d17a623          	sw	a7,1740(a5)

000034bc <inst_472>:
    34bc:	6d082507          	flw	fa0,1744(a6)
    34c0:	6d482587          	flw	fa1,1748(a6)
    34c4:	0021d073          	fsrmi	zero,3
    34c8:	00b57653          	fadd.s	fa2,fa0,fa1
    34cc:	001028f3          	frflags	a7
    34d0:	6cc7a827          	fsw	fa2,1744(a5)
    34d4:	6d17aa23          	sw	a7,1748(a5)

000034d8 <inst_473>:
    34d8:	6d882507          	flw	fa0,1752(a6)
    34dc:	6dc82587          	flw	fa1,1756(a6)
    34e0:	00215073          	fsrmi	zero,2
    34e4:	00b57653          	fadd.s	fa2,fa0,fa1
    34e8:	001028f3          	frflags	a7
    34ec:	6cc7ac27          	fsw	fa2,1752(a5)
    34f0:	6d17ae23          	sw	a7,1756(a5)

000034f4 <inst_474>:
    34f4:	6e082507          	flw	fa0,1760(a6)
    34f8:	6e482587          	flw	fa1,1764(a6)
    34fc:	0020d073          	fsrmi	zero,1
    3500:	00b57653          	fadd.s	fa2,fa0,fa1
    3504:	001028f3          	frflags	a7
    3508:	6ec7a027          	fsw	fa2,1760(a5)
    350c:	6f17a223          	sw	a7,1764(a5)

00003510 <inst_475>:
    3510:	6e882507          	flw	fa0,1768(a6)
    3514:	6ec82587          	flw	fa1,1772(a6)
    3518:	00205073          	fsrmi	zero,0
    351c:	00b57653          	fadd.s	fa2,fa0,fa1
    3520:	001028f3          	frflags	a7
    3524:	6ec7a427          	fsw	fa2,1768(a5)
    3528:	6f17a623          	sw	a7,1772(a5)

0000352c <inst_476>:
    352c:	6f082507          	flw	fa0,1776(a6)
    3530:	6f482587          	flw	fa1,1780(a6)
    3534:	00225073          	fsrmi	zero,4
    3538:	00b57653          	fadd.s	fa2,fa0,fa1
    353c:	001028f3          	frflags	a7
    3540:	6ec7a827          	fsw	fa2,1776(a5)
    3544:	6f17aa23          	sw	a7,1780(a5)

00003548 <inst_477>:
    3548:	6f882507          	flw	fa0,1784(a6)
    354c:	6fc82587          	flw	fa1,1788(a6)
    3550:	0021d073          	fsrmi	zero,3
    3554:	00b57653          	fadd.s	fa2,fa0,fa1
    3558:	001028f3          	frflags	a7
    355c:	6ec7ac27          	fsw	fa2,1784(a5)
    3560:	6f17ae23          	sw	a7,1788(a5)

00003564 <inst_478>:
    3564:	70082507          	flw	fa0,1792(a6)
    3568:	70482587          	flw	fa1,1796(a6)
    356c:	00215073          	fsrmi	zero,2
    3570:	00b57653          	fadd.s	fa2,fa0,fa1
    3574:	001028f3          	frflags	a7
    3578:	70c7a027          	fsw	fa2,1792(a5)
    357c:	7117a223          	sw	a7,1796(a5)

00003580 <inst_479>:
    3580:	70882507          	flw	fa0,1800(a6)
    3584:	70c82587          	flw	fa1,1804(a6)
    3588:	0020d073          	fsrmi	zero,1
    358c:	00b57653          	fadd.s	fa2,fa0,fa1
    3590:	001028f3          	frflags	a7
    3594:	70c7a427          	fsw	fa2,1800(a5)
    3598:	7117a623          	sw	a7,1804(a5)

0000359c <inst_480>:
    359c:	71082507          	flw	fa0,1808(a6)
    35a0:	71482587          	flw	fa1,1812(a6)
    35a4:	00205073          	fsrmi	zero,0
    35a8:	00b57653          	fadd.s	fa2,fa0,fa1
    35ac:	001028f3          	frflags	a7
    35b0:	70c7a827          	fsw	fa2,1808(a5)
    35b4:	7117aa23          	sw	a7,1812(a5)

000035b8 <inst_481>:
    35b8:	71882507          	flw	fa0,1816(a6)
    35bc:	71c82587          	flw	fa1,1820(a6)
    35c0:	00225073          	fsrmi	zero,4
    35c4:	00b57653          	fadd.s	fa2,fa0,fa1
    35c8:	001028f3          	frflags	a7
    35cc:	70c7ac27          	fsw	fa2,1816(a5)
    35d0:	7117ae23          	sw	a7,1820(a5)

000035d4 <inst_482>:
    35d4:	72082507          	flw	fa0,1824(a6)
    35d8:	72482587          	flw	fa1,1828(a6)
    35dc:	0021d073          	fsrmi	zero,3
    35e0:	00b57653          	fadd.s	fa2,fa0,fa1
    35e4:	001028f3          	frflags	a7
    35e8:	72c7a027          	fsw	fa2,1824(a5)
    35ec:	7317a223          	sw	a7,1828(a5)

000035f0 <inst_483>:
    35f0:	72882507          	flw	fa0,1832(a6)
    35f4:	72c82587          	flw	fa1,1836(a6)
    35f8:	00215073          	fsrmi	zero,2
    35fc:	00b57653          	fadd.s	fa2,fa0,fa1
    3600:	001028f3          	frflags	a7
    3604:	72c7a427          	fsw	fa2,1832(a5)
    3608:	7317a623          	sw	a7,1836(a5)

0000360c <inst_484>:
    360c:	73082507          	flw	fa0,1840(a6)
    3610:	73482587          	flw	fa1,1844(a6)
    3614:	0020d073          	fsrmi	zero,1
    3618:	00b57653          	fadd.s	fa2,fa0,fa1
    361c:	001028f3          	frflags	a7
    3620:	72c7a827          	fsw	fa2,1840(a5)
    3624:	7317aa23          	sw	a7,1844(a5)

00003628 <inst_485>:
    3628:	73882507          	flw	fa0,1848(a6)
    362c:	73c82587          	flw	fa1,1852(a6)
    3630:	00205073          	fsrmi	zero,0
    3634:	00b57653          	fadd.s	fa2,fa0,fa1
    3638:	001028f3          	frflags	a7
    363c:	72c7ac27          	fsw	fa2,1848(a5)
    3640:	7317ae23          	sw	a7,1852(a5)

00003644 <inst_486>:
    3644:	74082507          	flw	fa0,1856(a6)
    3648:	74482587          	flw	fa1,1860(a6)
    364c:	00225073          	fsrmi	zero,4
    3650:	00b57653          	fadd.s	fa2,fa0,fa1
    3654:	001028f3          	frflags	a7
    3658:	74c7a027          	fsw	fa2,1856(a5)
    365c:	7517a223          	sw	a7,1860(a5)

00003660 <inst_487>:
    3660:	74882507          	flw	fa0,1864(a6)
    3664:	74c82587          	flw	fa1,1868(a6)
    3668:	0021d073          	fsrmi	zero,3
    366c:	00b57653          	fadd.s	fa2,fa0,fa1
    3670:	001028f3          	frflags	a7
    3674:	74c7a427          	fsw	fa2,1864(a5)
    3678:	7517a623          	sw	a7,1868(a5)

0000367c <inst_488>:
    367c:	75082507          	flw	fa0,1872(a6)
    3680:	75482587          	flw	fa1,1876(a6)
    3684:	00215073          	fsrmi	zero,2
    3688:	00b57653          	fadd.s	fa2,fa0,fa1
    368c:	001028f3          	frflags	a7
    3690:	74c7a827          	fsw	fa2,1872(a5)
    3694:	7517aa23          	sw	a7,1876(a5)

00003698 <inst_489>:
    3698:	75882507          	flw	fa0,1880(a6)
    369c:	75c82587          	flw	fa1,1884(a6)
    36a0:	0020d073          	fsrmi	zero,1
    36a4:	00b57653          	fadd.s	fa2,fa0,fa1
    36a8:	001028f3          	frflags	a7
    36ac:	74c7ac27          	fsw	fa2,1880(a5)
    36b0:	7517ae23          	sw	a7,1884(a5)

000036b4 <inst_490>:
    36b4:	76082507          	flw	fa0,1888(a6)
    36b8:	76482587          	flw	fa1,1892(a6)
    36bc:	00205073          	fsrmi	zero,0
    36c0:	00b57653          	fadd.s	fa2,fa0,fa1
    36c4:	001028f3          	frflags	a7
    36c8:	76c7a027          	fsw	fa2,1888(a5)
    36cc:	7717a223          	sw	a7,1892(a5)

000036d0 <inst_491>:
    36d0:	76882507          	flw	fa0,1896(a6)
    36d4:	76c82587          	flw	fa1,1900(a6)
    36d8:	00225073          	fsrmi	zero,4
    36dc:	00b57653          	fadd.s	fa2,fa0,fa1
    36e0:	001028f3          	frflags	a7
    36e4:	76c7a427          	fsw	fa2,1896(a5)
    36e8:	7717a623          	sw	a7,1900(a5)

000036ec <inst_492>:
    36ec:	77082507          	flw	fa0,1904(a6)
    36f0:	77482587          	flw	fa1,1908(a6)
    36f4:	0021d073          	fsrmi	zero,3
    36f8:	00b57653          	fadd.s	fa2,fa0,fa1
    36fc:	001028f3          	frflags	a7
    3700:	76c7a827          	fsw	fa2,1904(a5)
    3704:	7717aa23          	sw	a7,1908(a5)

00003708 <inst_493>:
    3708:	77882507          	flw	fa0,1912(a6)
    370c:	77c82587          	flw	fa1,1916(a6)
    3710:	00215073          	fsrmi	zero,2
    3714:	00b57653          	fadd.s	fa2,fa0,fa1
    3718:	001028f3          	frflags	a7
    371c:	76c7ac27          	fsw	fa2,1912(a5)
    3720:	7717ae23          	sw	a7,1916(a5)

00003724 <inst_494>:
    3724:	78082507          	flw	fa0,1920(a6)
    3728:	78482587          	flw	fa1,1924(a6)
    372c:	0020d073          	fsrmi	zero,1
    3730:	00b57653          	fadd.s	fa2,fa0,fa1
    3734:	001028f3          	frflags	a7
    3738:	78c7a027          	fsw	fa2,1920(a5)
    373c:	7917a223          	sw	a7,1924(a5)

00003740 <inst_495>:
    3740:	78882507          	flw	fa0,1928(a6)
    3744:	78c82587          	flw	fa1,1932(a6)
    3748:	00205073          	fsrmi	zero,0
    374c:	00b57653          	fadd.s	fa2,fa0,fa1
    3750:	001028f3          	frflags	a7
    3754:	78c7a427          	fsw	fa2,1928(a5)
    3758:	7917a623          	sw	a7,1932(a5)

0000375c <inst_496>:
    375c:	79082507          	flw	fa0,1936(a6)
    3760:	79482587          	flw	fa1,1940(a6)
    3764:	00225073          	fsrmi	zero,4
    3768:	00b57653          	fadd.s	fa2,fa0,fa1
    376c:	001028f3          	frflags	a7
    3770:	78c7a827          	fsw	fa2,1936(a5)
    3774:	7917aa23          	sw	a7,1940(a5)

00003778 <inst_497>:
    3778:	79882507          	flw	fa0,1944(a6)
    377c:	79c82587          	flw	fa1,1948(a6)
    3780:	0021d073          	fsrmi	zero,3
    3784:	00b57653          	fadd.s	fa2,fa0,fa1
    3788:	001028f3          	frflags	a7
    378c:	78c7ac27          	fsw	fa2,1944(a5)
    3790:	7917ae23          	sw	a7,1948(a5)

00003794 <inst_498>:
    3794:	7a082507          	flw	fa0,1952(a6)
    3798:	7a482587          	flw	fa1,1956(a6)
    379c:	00215073          	fsrmi	zero,2
    37a0:	00b57653          	fadd.s	fa2,fa0,fa1
    37a4:	001028f3          	frflags	a7
    37a8:	7ac7a027          	fsw	fa2,1952(a5)
    37ac:	7b17a223          	sw	a7,1956(a5)

000037b0 <inst_499>:
    37b0:	7a882507          	flw	fa0,1960(a6)
    37b4:	7ac82587          	flw	fa1,1964(a6)
    37b8:	0020d073          	fsrmi	zero,1
    37bc:	00b57653          	fadd.s	fa2,fa0,fa1
    37c0:	001028f3          	frflags	a7
    37c4:	7ac7a427          	fsw	fa2,1960(a5)
    37c8:	7b17a623          	sw	a7,1964(a5)

000037cc <inst_500>:
    37cc:	7b082507          	flw	fa0,1968(a6)
    37d0:	7b482587          	flw	fa1,1972(a6)
    37d4:	00205073          	fsrmi	zero,0
    37d8:	00b57653          	fadd.s	fa2,fa0,fa1
    37dc:	001028f3          	frflags	a7
    37e0:	7ac7a827          	fsw	fa2,1968(a5)
    37e4:	7b17aa23          	sw	a7,1972(a5)

000037e8 <inst_501>:
    37e8:	7b882507          	flw	fa0,1976(a6)
    37ec:	7bc82587          	flw	fa1,1980(a6)
    37f0:	00225073          	fsrmi	zero,4
    37f4:	00b57653          	fadd.s	fa2,fa0,fa1
    37f8:	001028f3          	frflags	a7
    37fc:	7ac7ac27          	fsw	fa2,1976(a5)
    3800:	7b17ae23          	sw	a7,1980(a5)

00003804 <inst_502>:
    3804:	7c082507          	flw	fa0,1984(a6)
    3808:	7c482587          	flw	fa1,1988(a6)
    380c:	0021d073          	fsrmi	zero,3
    3810:	00b57653          	fadd.s	fa2,fa0,fa1
    3814:	001028f3          	frflags	a7
    3818:	7cc7a027          	fsw	fa2,1984(a5)
    381c:	7d17a223          	sw	a7,1988(a5)

00003820 <inst_503>:
    3820:	7c882507          	flw	fa0,1992(a6)
    3824:	7cc82587          	flw	fa1,1996(a6)
    3828:	00215073          	fsrmi	zero,2
    382c:	00b57653          	fadd.s	fa2,fa0,fa1
    3830:	001028f3          	frflags	a7
    3834:	7cc7a427          	fsw	fa2,1992(a5)
    3838:	7d17a623          	sw	a7,1996(a5)

0000383c <inst_504>:
    383c:	7d082507          	flw	fa0,2000(a6)
    3840:	7d482587          	flw	fa1,2004(a6)
    3844:	0020d073          	fsrmi	zero,1
    3848:	00b57653          	fadd.s	fa2,fa0,fa1
    384c:	001028f3          	frflags	a7
    3850:	7cc7a827          	fsw	fa2,2000(a5)
    3854:	7d17aa23          	sw	a7,2004(a5)

00003858 <inst_505>:
    3858:	7d882507          	flw	fa0,2008(a6)
    385c:	7dc82587          	flw	fa1,2012(a6)
    3860:	00205073          	fsrmi	zero,0
    3864:	00b57653          	fadd.s	fa2,fa0,fa1
    3868:	001028f3          	frflags	a7
    386c:	7cc7ac27          	fsw	fa2,2008(a5)
    3870:	7d17ae23          	sw	a7,2012(a5)

00003874 <inst_506>:
    3874:	7e082507          	flw	fa0,2016(a6)
    3878:	7e482587          	flw	fa1,2020(a6)
    387c:	00225073          	fsrmi	zero,4
    3880:	00b57653          	fadd.s	fa2,fa0,fa1
    3884:	001028f3          	frflags	a7
    3888:	7ec7a027          	fsw	fa2,2016(a5)
    388c:	7f17a223          	sw	a7,2020(a5)

00003890 <inst_507>:
    3890:	7e882507          	flw	fa0,2024(a6)
    3894:	7ec82587          	flw	fa1,2028(a6)
    3898:	0021d073          	fsrmi	zero,3
    389c:	00b57653          	fadd.s	fa2,fa0,fa1
    38a0:	001028f3          	frflags	a7
    38a4:	7ec7a427          	fsw	fa2,2024(a5)
    38a8:	7f17a623          	sw	a7,2028(a5)
    38ac:	7f080813          	add	a6,a6,2032
    38b0:	00008797          	auipc	a5,0x8
    38b4:	a5078793          	add	a5,a5,-1456 # b300 <signature_x15_3>

000038b8 <inst_508>:
    38b8:	00082507          	flw	fa0,0(a6)
    38bc:	00482587          	flw	fa1,4(a6)
    38c0:	00215073          	fsrmi	zero,2
    38c4:	00b57653          	fadd.s	fa2,fa0,fa1
    38c8:	001028f3          	frflags	a7
    38cc:	00c7a027          	fsw	fa2,0(a5)
    38d0:	0117a223          	sw	a7,4(a5)

000038d4 <inst_509>:
    38d4:	00882507          	flw	fa0,8(a6)
    38d8:	00c82587          	flw	fa1,12(a6)
    38dc:	0020d073          	fsrmi	zero,1
    38e0:	00b57653          	fadd.s	fa2,fa0,fa1
    38e4:	001028f3          	frflags	a7
    38e8:	00c7a427          	fsw	fa2,8(a5)
    38ec:	0117a623          	sw	a7,12(a5)

000038f0 <inst_510>:
    38f0:	01082507          	flw	fa0,16(a6)
    38f4:	01482587          	flw	fa1,20(a6)
    38f8:	00205073          	fsrmi	zero,0
    38fc:	00b57653          	fadd.s	fa2,fa0,fa1
    3900:	001028f3          	frflags	a7
    3904:	00c7a827          	fsw	fa2,16(a5)
    3908:	0117aa23          	sw	a7,20(a5)

0000390c <inst_511>:
    390c:	01882507          	flw	fa0,24(a6)
    3910:	01c82587          	flw	fa1,28(a6)
    3914:	00225073          	fsrmi	zero,4
    3918:	00b57653          	fadd.s	fa2,fa0,fa1
    391c:	001028f3          	frflags	a7
    3920:	00c7ac27          	fsw	fa2,24(a5)
    3924:	0117ae23          	sw	a7,28(a5)

00003928 <inst_512>:
    3928:	02082507          	flw	fa0,32(a6)
    392c:	02482587          	flw	fa1,36(a6)
    3930:	0021d073          	fsrmi	zero,3
    3934:	00b57653          	fadd.s	fa2,fa0,fa1
    3938:	001028f3          	frflags	a7
    393c:	02c7a027          	fsw	fa2,32(a5)
    3940:	0317a223          	sw	a7,36(a5)

00003944 <inst_513>:
    3944:	02882507          	flw	fa0,40(a6)
    3948:	02c82587          	flw	fa1,44(a6)
    394c:	00215073          	fsrmi	zero,2
    3950:	00b57653          	fadd.s	fa2,fa0,fa1
    3954:	001028f3          	frflags	a7
    3958:	02c7a427          	fsw	fa2,40(a5)
    395c:	0317a623          	sw	a7,44(a5)

00003960 <inst_514>:
    3960:	03082507          	flw	fa0,48(a6)
    3964:	03482587          	flw	fa1,52(a6)
    3968:	0020d073          	fsrmi	zero,1
    396c:	00b57653          	fadd.s	fa2,fa0,fa1
    3970:	001028f3          	frflags	a7
    3974:	02c7a827          	fsw	fa2,48(a5)
    3978:	0317aa23          	sw	a7,52(a5)

0000397c <inst_515>:
    397c:	03882507          	flw	fa0,56(a6)
    3980:	03c82587          	flw	fa1,60(a6)
    3984:	00205073          	fsrmi	zero,0
    3988:	00b57653          	fadd.s	fa2,fa0,fa1
    398c:	001028f3          	frflags	a7
    3990:	02c7ac27          	fsw	fa2,56(a5)
    3994:	0317ae23          	sw	a7,60(a5)

00003998 <inst_516>:
    3998:	04082507          	flw	fa0,64(a6)
    399c:	04482587          	flw	fa1,68(a6)
    39a0:	00225073          	fsrmi	zero,4
    39a4:	00b57653          	fadd.s	fa2,fa0,fa1
    39a8:	001028f3          	frflags	a7
    39ac:	04c7a027          	fsw	fa2,64(a5)
    39b0:	0517a223          	sw	a7,68(a5)

000039b4 <inst_517>:
    39b4:	04882507          	flw	fa0,72(a6)
    39b8:	04c82587          	flw	fa1,76(a6)
    39bc:	0021d073          	fsrmi	zero,3
    39c0:	00b57653          	fadd.s	fa2,fa0,fa1
    39c4:	001028f3          	frflags	a7
    39c8:	04c7a427          	fsw	fa2,72(a5)
    39cc:	0517a623          	sw	a7,76(a5)

000039d0 <inst_518>:
    39d0:	05082507          	flw	fa0,80(a6)
    39d4:	05482587          	flw	fa1,84(a6)
    39d8:	00215073          	fsrmi	zero,2
    39dc:	00b57653          	fadd.s	fa2,fa0,fa1
    39e0:	001028f3          	frflags	a7
    39e4:	04c7a827          	fsw	fa2,80(a5)
    39e8:	0517aa23          	sw	a7,84(a5)

000039ec <inst_519>:
    39ec:	05882507          	flw	fa0,88(a6)
    39f0:	05c82587          	flw	fa1,92(a6)
    39f4:	0020d073          	fsrmi	zero,1
    39f8:	00b57653          	fadd.s	fa2,fa0,fa1
    39fc:	001028f3          	frflags	a7
    3a00:	04c7ac27          	fsw	fa2,88(a5)
    3a04:	0517ae23          	sw	a7,92(a5)

00003a08 <inst_520>:
    3a08:	06082507          	flw	fa0,96(a6)
    3a0c:	06482587          	flw	fa1,100(a6)
    3a10:	00205073          	fsrmi	zero,0
    3a14:	00b57653          	fadd.s	fa2,fa0,fa1
    3a18:	001028f3          	frflags	a7
    3a1c:	06c7a027          	fsw	fa2,96(a5)
    3a20:	0717a223          	sw	a7,100(a5)

00003a24 <inst_521>:
    3a24:	06882507          	flw	fa0,104(a6)
    3a28:	06c82587          	flw	fa1,108(a6)
    3a2c:	00225073          	fsrmi	zero,4
    3a30:	00b57653          	fadd.s	fa2,fa0,fa1
    3a34:	001028f3          	frflags	a7
    3a38:	06c7a427          	fsw	fa2,104(a5)
    3a3c:	0717a623          	sw	a7,108(a5)

00003a40 <inst_522>:
    3a40:	07082507          	flw	fa0,112(a6)
    3a44:	07482587          	flw	fa1,116(a6)
    3a48:	0021d073          	fsrmi	zero,3
    3a4c:	00b57653          	fadd.s	fa2,fa0,fa1
    3a50:	001028f3          	frflags	a7
    3a54:	06c7a827          	fsw	fa2,112(a5)
    3a58:	0717aa23          	sw	a7,116(a5)

00003a5c <inst_523>:
    3a5c:	07882507          	flw	fa0,120(a6)
    3a60:	07c82587          	flw	fa1,124(a6)
    3a64:	00215073          	fsrmi	zero,2
    3a68:	00b57653          	fadd.s	fa2,fa0,fa1
    3a6c:	001028f3          	frflags	a7
    3a70:	06c7ac27          	fsw	fa2,120(a5)
    3a74:	0717ae23          	sw	a7,124(a5)

00003a78 <inst_524>:
    3a78:	08082507          	flw	fa0,128(a6)
    3a7c:	08482587          	flw	fa1,132(a6)
    3a80:	0020d073          	fsrmi	zero,1
    3a84:	00b57653          	fadd.s	fa2,fa0,fa1
    3a88:	001028f3          	frflags	a7
    3a8c:	08c7a027          	fsw	fa2,128(a5)
    3a90:	0917a223          	sw	a7,132(a5)

00003a94 <inst_525>:
    3a94:	08882507          	flw	fa0,136(a6)
    3a98:	08c82587          	flw	fa1,140(a6)
    3a9c:	00205073          	fsrmi	zero,0
    3aa0:	00b57653          	fadd.s	fa2,fa0,fa1
    3aa4:	001028f3          	frflags	a7
    3aa8:	08c7a427          	fsw	fa2,136(a5)
    3aac:	0917a623          	sw	a7,140(a5)

00003ab0 <inst_526>:
    3ab0:	09082507          	flw	fa0,144(a6)
    3ab4:	09482587          	flw	fa1,148(a6)
    3ab8:	00225073          	fsrmi	zero,4
    3abc:	00b57653          	fadd.s	fa2,fa0,fa1
    3ac0:	001028f3          	frflags	a7
    3ac4:	08c7a827          	fsw	fa2,144(a5)
    3ac8:	0917aa23          	sw	a7,148(a5)

00003acc <inst_527>:
    3acc:	09882507          	flw	fa0,152(a6)
    3ad0:	09c82587          	flw	fa1,156(a6)
    3ad4:	0021d073          	fsrmi	zero,3
    3ad8:	00b57653          	fadd.s	fa2,fa0,fa1
    3adc:	001028f3          	frflags	a7
    3ae0:	08c7ac27          	fsw	fa2,152(a5)
    3ae4:	0917ae23          	sw	a7,156(a5)

00003ae8 <inst_528>:
    3ae8:	0a082507          	flw	fa0,160(a6)
    3aec:	0a482587          	flw	fa1,164(a6)
    3af0:	00215073          	fsrmi	zero,2
    3af4:	00b57653          	fadd.s	fa2,fa0,fa1
    3af8:	001028f3          	frflags	a7
    3afc:	0ac7a027          	fsw	fa2,160(a5)
    3b00:	0b17a223          	sw	a7,164(a5)

00003b04 <inst_529>:
    3b04:	0a882507          	flw	fa0,168(a6)
    3b08:	0ac82587          	flw	fa1,172(a6)
    3b0c:	0020d073          	fsrmi	zero,1
    3b10:	00b57653          	fadd.s	fa2,fa0,fa1
    3b14:	001028f3          	frflags	a7
    3b18:	0ac7a427          	fsw	fa2,168(a5)
    3b1c:	0b17a623          	sw	a7,172(a5)

00003b20 <inst_530>:
    3b20:	0b082507          	flw	fa0,176(a6)
    3b24:	0b482587          	flw	fa1,180(a6)
    3b28:	00205073          	fsrmi	zero,0
    3b2c:	00b57653          	fadd.s	fa2,fa0,fa1
    3b30:	001028f3          	frflags	a7
    3b34:	0ac7a827          	fsw	fa2,176(a5)
    3b38:	0b17aa23          	sw	a7,180(a5)

00003b3c <inst_531>:
    3b3c:	0b882507          	flw	fa0,184(a6)
    3b40:	0bc82587          	flw	fa1,188(a6)
    3b44:	00225073          	fsrmi	zero,4
    3b48:	00b57653          	fadd.s	fa2,fa0,fa1
    3b4c:	001028f3          	frflags	a7
    3b50:	0ac7ac27          	fsw	fa2,184(a5)
    3b54:	0b17ae23          	sw	a7,188(a5)

00003b58 <inst_532>:
    3b58:	0c082507          	flw	fa0,192(a6)
    3b5c:	0c482587          	flw	fa1,196(a6)
    3b60:	0021d073          	fsrmi	zero,3
    3b64:	00b57653          	fadd.s	fa2,fa0,fa1
    3b68:	001028f3          	frflags	a7
    3b6c:	0cc7a027          	fsw	fa2,192(a5)
    3b70:	0d17a223          	sw	a7,196(a5)

00003b74 <inst_533>:
    3b74:	0c882507          	flw	fa0,200(a6)
    3b78:	0cc82587          	flw	fa1,204(a6)
    3b7c:	00215073          	fsrmi	zero,2
    3b80:	00b57653          	fadd.s	fa2,fa0,fa1
    3b84:	001028f3          	frflags	a7
    3b88:	0cc7a427          	fsw	fa2,200(a5)
    3b8c:	0d17a623          	sw	a7,204(a5)

00003b90 <inst_534>:
    3b90:	0d082507          	flw	fa0,208(a6)
    3b94:	0d482587          	flw	fa1,212(a6)
    3b98:	0020d073          	fsrmi	zero,1
    3b9c:	00b57653          	fadd.s	fa2,fa0,fa1
    3ba0:	001028f3          	frflags	a7
    3ba4:	0cc7a827          	fsw	fa2,208(a5)
    3ba8:	0d17aa23          	sw	a7,212(a5)

00003bac <inst_535>:
    3bac:	0d882507          	flw	fa0,216(a6)
    3bb0:	0dc82587          	flw	fa1,220(a6)
    3bb4:	00205073          	fsrmi	zero,0
    3bb8:	00b57653          	fadd.s	fa2,fa0,fa1
    3bbc:	001028f3          	frflags	a7
    3bc0:	0cc7ac27          	fsw	fa2,216(a5)
    3bc4:	0d17ae23          	sw	a7,220(a5)

00003bc8 <inst_536>:
    3bc8:	0e082507          	flw	fa0,224(a6)
    3bcc:	0e482587          	flw	fa1,228(a6)
    3bd0:	00225073          	fsrmi	zero,4
    3bd4:	00b57653          	fadd.s	fa2,fa0,fa1
    3bd8:	001028f3          	frflags	a7
    3bdc:	0ec7a027          	fsw	fa2,224(a5)
    3be0:	0f17a223          	sw	a7,228(a5)

00003be4 <inst_537>:
    3be4:	0e882507          	flw	fa0,232(a6)
    3be8:	0ec82587          	flw	fa1,236(a6)
    3bec:	0021d073          	fsrmi	zero,3
    3bf0:	00b57653          	fadd.s	fa2,fa0,fa1
    3bf4:	001028f3          	frflags	a7
    3bf8:	0ec7a427          	fsw	fa2,232(a5)
    3bfc:	0f17a623          	sw	a7,236(a5)

00003c00 <inst_538>:
    3c00:	0f082507          	flw	fa0,240(a6)
    3c04:	0f482587          	flw	fa1,244(a6)
    3c08:	00215073          	fsrmi	zero,2
    3c0c:	00b57653          	fadd.s	fa2,fa0,fa1
    3c10:	001028f3          	frflags	a7
    3c14:	0ec7a827          	fsw	fa2,240(a5)
    3c18:	0f17aa23          	sw	a7,244(a5)

00003c1c <inst_539>:
    3c1c:	0f882507          	flw	fa0,248(a6)
    3c20:	0fc82587          	flw	fa1,252(a6)
    3c24:	0020d073          	fsrmi	zero,1
    3c28:	00b57653          	fadd.s	fa2,fa0,fa1
    3c2c:	001028f3          	frflags	a7
    3c30:	0ec7ac27          	fsw	fa2,248(a5)
    3c34:	0f17ae23          	sw	a7,252(a5)

00003c38 <inst_540>:
    3c38:	10082507          	flw	fa0,256(a6)
    3c3c:	10482587          	flw	fa1,260(a6)
    3c40:	00205073          	fsrmi	zero,0
    3c44:	00b57653          	fadd.s	fa2,fa0,fa1
    3c48:	001028f3          	frflags	a7
    3c4c:	10c7a027          	fsw	fa2,256(a5)
    3c50:	1117a223          	sw	a7,260(a5)

00003c54 <inst_541>:
    3c54:	10882507          	flw	fa0,264(a6)
    3c58:	10c82587          	flw	fa1,268(a6)
    3c5c:	00225073          	fsrmi	zero,4
    3c60:	00b57653          	fadd.s	fa2,fa0,fa1
    3c64:	001028f3          	frflags	a7
    3c68:	10c7a427          	fsw	fa2,264(a5)
    3c6c:	1117a623          	sw	a7,268(a5)

00003c70 <inst_542>:
    3c70:	11082507          	flw	fa0,272(a6)
    3c74:	11482587          	flw	fa1,276(a6)
    3c78:	0021d073          	fsrmi	zero,3
    3c7c:	00b57653          	fadd.s	fa2,fa0,fa1
    3c80:	001028f3          	frflags	a7
    3c84:	10c7a827          	fsw	fa2,272(a5)
    3c88:	1117aa23          	sw	a7,276(a5)

00003c8c <inst_543>:
    3c8c:	11882507          	flw	fa0,280(a6)
    3c90:	11c82587          	flw	fa1,284(a6)
    3c94:	00215073          	fsrmi	zero,2
    3c98:	00b57653          	fadd.s	fa2,fa0,fa1
    3c9c:	001028f3          	frflags	a7
    3ca0:	10c7ac27          	fsw	fa2,280(a5)
    3ca4:	1117ae23          	sw	a7,284(a5)

00003ca8 <inst_544>:
    3ca8:	12082507          	flw	fa0,288(a6)
    3cac:	12482587          	flw	fa1,292(a6)
    3cb0:	0020d073          	fsrmi	zero,1
    3cb4:	00b57653          	fadd.s	fa2,fa0,fa1
    3cb8:	001028f3          	frflags	a7
    3cbc:	12c7a027          	fsw	fa2,288(a5)
    3cc0:	1317a223          	sw	a7,292(a5)

00003cc4 <inst_545>:
    3cc4:	12882507          	flw	fa0,296(a6)
    3cc8:	12c82587          	flw	fa1,300(a6)
    3ccc:	00205073          	fsrmi	zero,0
    3cd0:	00b57653          	fadd.s	fa2,fa0,fa1
    3cd4:	001028f3          	frflags	a7
    3cd8:	12c7a427          	fsw	fa2,296(a5)
    3cdc:	1317a623          	sw	a7,300(a5)

00003ce0 <inst_546>:
    3ce0:	13082507          	flw	fa0,304(a6)
    3ce4:	13482587          	flw	fa1,308(a6)
    3ce8:	00225073          	fsrmi	zero,4
    3cec:	00b57653          	fadd.s	fa2,fa0,fa1
    3cf0:	001028f3          	frflags	a7
    3cf4:	12c7a827          	fsw	fa2,304(a5)
    3cf8:	1317aa23          	sw	a7,308(a5)

00003cfc <inst_547>:
    3cfc:	13882507          	flw	fa0,312(a6)
    3d00:	13c82587          	flw	fa1,316(a6)
    3d04:	0021d073          	fsrmi	zero,3
    3d08:	00b57653          	fadd.s	fa2,fa0,fa1
    3d0c:	001028f3          	frflags	a7
    3d10:	12c7ac27          	fsw	fa2,312(a5)
    3d14:	1317ae23          	sw	a7,316(a5)

00003d18 <inst_548>:
    3d18:	14082507          	flw	fa0,320(a6)
    3d1c:	14482587          	flw	fa1,324(a6)
    3d20:	00215073          	fsrmi	zero,2
    3d24:	00b57653          	fadd.s	fa2,fa0,fa1
    3d28:	001028f3          	frflags	a7
    3d2c:	14c7a027          	fsw	fa2,320(a5)
    3d30:	1517a223          	sw	a7,324(a5)

00003d34 <inst_549>:
    3d34:	14882507          	flw	fa0,328(a6)
    3d38:	14c82587          	flw	fa1,332(a6)
    3d3c:	0020d073          	fsrmi	zero,1
    3d40:	00b57653          	fadd.s	fa2,fa0,fa1
    3d44:	001028f3          	frflags	a7
    3d48:	14c7a427          	fsw	fa2,328(a5)
    3d4c:	1517a623          	sw	a7,332(a5)

00003d50 <inst_550>:
    3d50:	15082507          	flw	fa0,336(a6)
    3d54:	15482587          	flw	fa1,340(a6)
    3d58:	00205073          	fsrmi	zero,0
    3d5c:	00b57653          	fadd.s	fa2,fa0,fa1
    3d60:	001028f3          	frflags	a7
    3d64:	14c7a827          	fsw	fa2,336(a5)
    3d68:	1517aa23          	sw	a7,340(a5)

00003d6c <inst_551>:
    3d6c:	15882507          	flw	fa0,344(a6)
    3d70:	15c82587          	flw	fa1,348(a6)
    3d74:	00225073          	fsrmi	zero,4
    3d78:	00b57653          	fadd.s	fa2,fa0,fa1
    3d7c:	001028f3          	frflags	a7
    3d80:	14c7ac27          	fsw	fa2,344(a5)
    3d84:	1517ae23          	sw	a7,348(a5)

00003d88 <inst_552>:
    3d88:	16082507          	flw	fa0,352(a6)
    3d8c:	16482587          	flw	fa1,356(a6)
    3d90:	0021d073          	fsrmi	zero,3
    3d94:	00b57653          	fadd.s	fa2,fa0,fa1
    3d98:	001028f3          	frflags	a7
    3d9c:	16c7a027          	fsw	fa2,352(a5)
    3da0:	1717a223          	sw	a7,356(a5)

00003da4 <inst_553>:
    3da4:	16882507          	flw	fa0,360(a6)
    3da8:	16c82587          	flw	fa1,364(a6)
    3dac:	00215073          	fsrmi	zero,2
    3db0:	00b57653          	fadd.s	fa2,fa0,fa1
    3db4:	001028f3          	frflags	a7
    3db8:	16c7a427          	fsw	fa2,360(a5)
    3dbc:	1717a623          	sw	a7,364(a5)

00003dc0 <inst_554>:
    3dc0:	17082507          	flw	fa0,368(a6)
    3dc4:	17482587          	flw	fa1,372(a6)
    3dc8:	0020d073          	fsrmi	zero,1
    3dcc:	00b57653          	fadd.s	fa2,fa0,fa1
    3dd0:	001028f3          	frflags	a7
    3dd4:	16c7a827          	fsw	fa2,368(a5)
    3dd8:	1717aa23          	sw	a7,372(a5)

00003ddc <inst_555>:
    3ddc:	17882507          	flw	fa0,376(a6)
    3de0:	17c82587          	flw	fa1,380(a6)
    3de4:	00205073          	fsrmi	zero,0
    3de8:	00b57653          	fadd.s	fa2,fa0,fa1
    3dec:	001028f3          	frflags	a7
    3df0:	16c7ac27          	fsw	fa2,376(a5)
    3df4:	1717ae23          	sw	a7,380(a5)

00003df8 <inst_556>:
    3df8:	18082507          	flw	fa0,384(a6)
    3dfc:	18482587          	flw	fa1,388(a6)
    3e00:	00225073          	fsrmi	zero,4
    3e04:	00b57653          	fadd.s	fa2,fa0,fa1
    3e08:	001028f3          	frflags	a7
    3e0c:	18c7a027          	fsw	fa2,384(a5)
    3e10:	1917a223          	sw	a7,388(a5)

00003e14 <inst_557>:
    3e14:	18882507          	flw	fa0,392(a6)
    3e18:	18c82587          	flw	fa1,396(a6)
    3e1c:	0021d073          	fsrmi	zero,3
    3e20:	00b57653          	fadd.s	fa2,fa0,fa1
    3e24:	001028f3          	frflags	a7
    3e28:	18c7a427          	fsw	fa2,392(a5)
    3e2c:	1917a623          	sw	a7,396(a5)

00003e30 <inst_558>:
    3e30:	19082507          	flw	fa0,400(a6)
    3e34:	19482587          	flw	fa1,404(a6)
    3e38:	00215073          	fsrmi	zero,2
    3e3c:	00b57653          	fadd.s	fa2,fa0,fa1
    3e40:	001028f3          	frflags	a7
    3e44:	18c7a827          	fsw	fa2,400(a5)
    3e48:	1917aa23          	sw	a7,404(a5)

00003e4c <inst_559>:
    3e4c:	19882507          	flw	fa0,408(a6)
    3e50:	19c82587          	flw	fa1,412(a6)
    3e54:	0020d073          	fsrmi	zero,1
    3e58:	00b57653          	fadd.s	fa2,fa0,fa1
    3e5c:	001028f3          	frflags	a7
    3e60:	18c7ac27          	fsw	fa2,408(a5)
    3e64:	1917ae23          	sw	a7,412(a5)

00003e68 <inst_560>:
    3e68:	1a082507          	flw	fa0,416(a6)
    3e6c:	1a482587          	flw	fa1,420(a6)
    3e70:	00205073          	fsrmi	zero,0
    3e74:	00b57653          	fadd.s	fa2,fa0,fa1
    3e78:	001028f3          	frflags	a7
    3e7c:	1ac7a027          	fsw	fa2,416(a5)
    3e80:	1b17a223          	sw	a7,420(a5)

00003e84 <inst_561>:
    3e84:	1a882507          	flw	fa0,424(a6)
    3e88:	1ac82587          	flw	fa1,428(a6)
    3e8c:	00225073          	fsrmi	zero,4
    3e90:	00b57653          	fadd.s	fa2,fa0,fa1
    3e94:	001028f3          	frflags	a7
    3e98:	1ac7a427          	fsw	fa2,424(a5)
    3e9c:	1b17a623          	sw	a7,428(a5)

00003ea0 <inst_562>:
    3ea0:	1b082507          	flw	fa0,432(a6)
    3ea4:	1b482587          	flw	fa1,436(a6)
    3ea8:	0021d073          	fsrmi	zero,3
    3eac:	00b57653          	fadd.s	fa2,fa0,fa1
    3eb0:	001028f3          	frflags	a7
    3eb4:	1ac7a827          	fsw	fa2,432(a5)
    3eb8:	1b17aa23          	sw	a7,436(a5)

00003ebc <inst_563>:
    3ebc:	1b882507          	flw	fa0,440(a6)
    3ec0:	1bc82587          	flw	fa1,444(a6)
    3ec4:	00215073          	fsrmi	zero,2
    3ec8:	00b57653          	fadd.s	fa2,fa0,fa1
    3ecc:	001028f3          	frflags	a7
    3ed0:	1ac7ac27          	fsw	fa2,440(a5)
    3ed4:	1b17ae23          	sw	a7,444(a5)

00003ed8 <inst_564>:
    3ed8:	1c082507          	flw	fa0,448(a6)
    3edc:	1c482587          	flw	fa1,452(a6)
    3ee0:	0020d073          	fsrmi	zero,1
    3ee4:	00b57653          	fadd.s	fa2,fa0,fa1
    3ee8:	001028f3          	frflags	a7
    3eec:	1cc7a027          	fsw	fa2,448(a5)
    3ef0:	1d17a223          	sw	a7,452(a5)

00003ef4 <inst_565>:
    3ef4:	1c882507          	flw	fa0,456(a6)
    3ef8:	1cc82587          	flw	fa1,460(a6)
    3efc:	00205073          	fsrmi	zero,0
    3f00:	00b57653          	fadd.s	fa2,fa0,fa1
    3f04:	001028f3          	frflags	a7
    3f08:	1cc7a427          	fsw	fa2,456(a5)
    3f0c:	1d17a623          	sw	a7,460(a5)

00003f10 <inst_566>:
    3f10:	1d082507          	flw	fa0,464(a6)
    3f14:	1d482587          	flw	fa1,468(a6)
    3f18:	00225073          	fsrmi	zero,4
    3f1c:	00b57653          	fadd.s	fa2,fa0,fa1
    3f20:	001028f3          	frflags	a7
    3f24:	1cc7a827          	fsw	fa2,464(a5)
    3f28:	1d17aa23          	sw	a7,468(a5)

00003f2c <inst_567>:
    3f2c:	1d882507          	flw	fa0,472(a6)
    3f30:	1dc82587          	flw	fa1,476(a6)
    3f34:	0021d073          	fsrmi	zero,3
    3f38:	00b57653          	fadd.s	fa2,fa0,fa1
    3f3c:	001028f3          	frflags	a7
    3f40:	1cc7ac27          	fsw	fa2,472(a5)
    3f44:	1d17ae23          	sw	a7,476(a5)

00003f48 <inst_568>:
    3f48:	1e082507          	flw	fa0,480(a6)
    3f4c:	1e482587          	flw	fa1,484(a6)
    3f50:	00215073          	fsrmi	zero,2
    3f54:	00b57653          	fadd.s	fa2,fa0,fa1
    3f58:	001028f3          	frflags	a7
    3f5c:	1ec7a027          	fsw	fa2,480(a5)
    3f60:	1f17a223          	sw	a7,484(a5)

00003f64 <inst_569>:
    3f64:	1e882507          	flw	fa0,488(a6)
    3f68:	1ec82587          	flw	fa1,492(a6)
    3f6c:	0020d073          	fsrmi	zero,1
    3f70:	00b57653          	fadd.s	fa2,fa0,fa1
    3f74:	001028f3          	frflags	a7
    3f78:	1ec7a427          	fsw	fa2,488(a5)
    3f7c:	1f17a623          	sw	a7,492(a5)

00003f80 <inst_570>:
    3f80:	1f082507          	flw	fa0,496(a6)
    3f84:	1f482587          	flw	fa1,500(a6)
    3f88:	00205073          	fsrmi	zero,0
    3f8c:	00b57653          	fadd.s	fa2,fa0,fa1
    3f90:	001028f3          	frflags	a7
    3f94:	1ec7a827          	fsw	fa2,496(a5)
    3f98:	1f17aa23          	sw	a7,500(a5)

00003f9c <inst_571>:
    3f9c:	1f882507          	flw	fa0,504(a6)
    3fa0:	1fc82587          	flw	fa1,508(a6)
    3fa4:	00225073          	fsrmi	zero,4
    3fa8:	00b57653          	fadd.s	fa2,fa0,fa1
    3fac:	001028f3          	frflags	a7
    3fb0:	1ec7ac27          	fsw	fa2,504(a5)
    3fb4:	1f17ae23          	sw	a7,508(a5)

00003fb8 <inst_572>:
    3fb8:	20082507          	flw	fa0,512(a6)
    3fbc:	20482587          	flw	fa1,516(a6)
    3fc0:	0021d073          	fsrmi	zero,3
    3fc4:	00b57653          	fadd.s	fa2,fa0,fa1
    3fc8:	001028f3          	frflags	a7
    3fcc:	20c7a027          	fsw	fa2,512(a5)
    3fd0:	2117a223          	sw	a7,516(a5)

00003fd4 <inst_573>:
    3fd4:	20882507          	flw	fa0,520(a6)
    3fd8:	20c82587          	flw	fa1,524(a6)
    3fdc:	00215073          	fsrmi	zero,2
    3fe0:	00b57653          	fadd.s	fa2,fa0,fa1
    3fe4:	001028f3          	frflags	a7
    3fe8:	20c7a427          	fsw	fa2,520(a5)
    3fec:	2117a623          	sw	a7,524(a5)

00003ff0 <inst_574>:
    3ff0:	21082507          	flw	fa0,528(a6)
    3ff4:	21482587          	flw	fa1,532(a6)
    3ff8:	0020d073          	fsrmi	zero,1
    3ffc:	00b57653          	fadd.s	fa2,fa0,fa1
    4000:	001028f3          	frflags	a7
    4004:	20c7a827          	fsw	fa2,528(a5)
    4008:	2117aa23          	sw	a7,532(a5)

0000400c <inst_575>:
    400c:	21882507          	flw	fa0,536(a6)
    4010:	21c82587          	flw	fa1,540(a6)
    4014:	00205073          	fsrmi	zero,0
    4018:	00b57653          	fadd.s	fa2,fa0,fa1
    401c:	001028f3          	frflags	a7
    4020:	20c7ac27          	fsw	fa2,536(a5)
    4024:	2117ae23          	sw	a7,540(a5)

00004028 <inst_576>:
    4028:	22082507          	flw	fa0,544(a6)
    402c:	22482587          	flw	fa1,548(a6)
    4030:	00225073          	fsrmi	zero,4
    4034:	00b57653          	fadd.s	fa2,fa0,fa1
    4038:	001028f3          	frflags	a7
    403c:	22c7a027          	fsw	fa2,544(a5)
    4040:	2317a223          	sw	a7,548(a5)

00004044 <inst_577>:
    4044:	22882507          	flw	fa0,552(a6)
    4048:	22c82587          	flw	fa1,556(a6)
    404c:	0021d073          	fsrmi	zero,3
    4050:	00b57653          	fadd.s	fa2,fa0,fa1
    4054:	001028f3          	frflags	a7
    4058:	22c7a427          	fsw	fa2,552(a5)
    405c:	2317a623          	sw	a7,556(a5)

00004060 <inst_578>:
    4060:	23082507          	flw	fa0,560(a6)
    4064:	23482587          	flw	fa1,564(a6)
    4068:	00215073          	fsrmi	zero,2
    406c:	00b57653          	fadd.s	fa2,fa0,fa1
    4070:	001028f3          	frflags	a7
    4074:	22c7a827          	fsw	fa2,560(a5)
    4078:	2317aa23          	sw	a7,564(a5)

0000407c <inst_579>:
    407c:	23882507          	flw	fa0,568(a6)
    4080:	23c82587          	flw	fa1,572(a6)
    4084:	0020d073          	fsrmi	zero,1
    4088:	00b57653          	fadd.s	fa2,fa0,fa1
    408c:	001028f3          	frflags	a7
    4090:	22c7ac27          	fsw	fa2,568(a5)
    4094:	2317ae23          	sw	a7,572(a5)

00004098 <inst_580>:
    4098:	24082507          	flw	fa0,576(a6)
    409c:	24482587          	flw	fa1,580(a6)
    40a0:	00205073          	fsrmi	zero,0
    40a4:	00b57653          	fadd.s	fa2,fa0,fa1
    40a8:	001028f3          	frflags	a7
    40ac:	24c7a027          	fsw	fa2,576(a5)
    40b0:	2517a223          	sw	a7,580(a5)

000040b4 <inst_581>:
    40b4:	24882507          	flw	fa0,584(a6)
    40b8:	24c82587          	flw	fa1,588(a6)
    40bc:	00225073          	fsrmi	zero,4
    40c0:	00b57653          	fadd.s	fa2,fa0,fa1
    40c4:	001028f3          	frflags	a7
    40c8:	24c7a427          	fsw	fa2,584(a5)
    40cc:	2517a623          	sw	a7,588(a5)

000040d0 <inst_582>:
    40d0:	25082507          	flw	fa0,592(a6)
    40d4:	25482587          	flw	fa1,596(a6)
    40d8:	0021d073          	fsrmi	zero,3
    40dc:	00b57653          	fadd.s	fa2,fa0,fa1
    40e0:	001028f3          	frflags	a7
    40e4:	24c7a827          	fsw	fa2,592(a5)
    40e8:	2517aa23          	sw	a7,596(a5)

000040ec <inst_583>:
    40ec:	25882507          	flw	fa0,600(a6)
    40f0:	25c82587          	flw	fa1,604(a6)
    40f4:	00215073          	fsrmi	zero,2
    40f8:	00b57653          	fadd.s	fa2,fa0,fa1
    40fc:	001028f3          	frflags	a7
    4100:	24c7ac27          	fsw	fa2,600(a5)
    4104:	2517ae23          	sw	a7,604(a5)

00004108 <inst_584>:
    4108:	26082507          	flw	fa0,608(a6)
    410c:	26482587          	flw	fa1,612(a6)
    4110:	0020d073          	fsrmi	zero,1
    4114:	00b57653          	fadd.s	fa2,fa0,fa1
    4118:	001028f3          	frflags	a7
    411c:	26c7a027          	fsw	fa2,608(a5)
    4120:	2717a223          	sw	a7,612(a5)

00004124 <inst_585>:
    4124:	26882507          	flw	fa0,616(a6)
    4128:	26c82587          	flw	fa1,620(a6)
    412c:	00205073          	fsrmi	zero,0
    4130:	00b57653          	fadd.s	fa2,fa0,fa1
    4134:	001028f3          	frflags	a7
    4138:	26c7a427          	fsw	fa2,616(a5)
    413c:	2717a623          	sw	a7,620(a5)

00004140 <inst_586>:
    4140:	27082507          	flw	fa0,624(a6)
    4144:	27482587          	flw	fa1,628(a6)
    4148:	00225073          	fsrmi	zero,4
    414c:	00b57653          	fadd.s	fa2,fa0,fa1
    4150:	001028f3          	frflags	a7
    4154:	26c7a827          	fsw	fa2,624(a5)
    4158:	2717aa23          	sw	a7,628(a5)

0000415c <inst_587>:
    415c:	27882507          	flw	fa0,632(a6)
    4160:	27c82587          	flw	fa1,636(a6)
    4164:	0021d073          	fsrmi	zero,3
    4168:	00b57653          	fadd.s	fa2,fa0,fa1
    416c:	001028f3          	frflags	a7
    4170:	26c7ac27          	fsw	fa2,632(a5)
    4174:	2717ae23          	sw	a7,636(a5)

00004178 <inst_588>:
    4178:	28082507          	flw	fa0,640(a6)
    417c:	28482587          	flw	fa1,644(a6)
    4180:	00215073          	fsrmi	zero,2
    4184:	00b57653          	fadd.s	fa2,fa0,fa1
    4188:	001028f3          	frflags	a7
    418c:	28c7a027          	fsw	fa2,640(a5)
    4190:	2917a223          	sw	a7,644(a5)

00004194 <inst_589>:
    4194:	28882507          	flw	fa0,648(a6)
    4198:	28c82587          	flw	fa1,652(a6)
    419c:	0020d073          	fsrmi	zero,1
    41a0:	00b57653          	fadd.s	fa2,fa0,fa1
    41a4:	001028f3          	frflags	a7
    41a8:	28c7a427          	fsw	fa2,648(a5)
    41ac:	2917a623          	sw	a7,652(a5)

000041b0 <inst_590>:
    41b0:	29082507          	flw	fa0,656(a6)
    41b4:	29482587          	flw	fa1,660(a6)
    41b8:	00205073          	fsrmi	zero,0
    41bc:	00b57653          	fadd.s	fa2,fa0,fa1
    41c0:	001028f3          	frflags	a7
    41c4:	28c7a827          	fsw	fa2,656(a5)
    41c8:	2917aa23          	sw	a7,660(a5)

000041cc <inst_591>:
    41cc:	29882507          	flw	fa0,664(a6)
    41d0:	29c82587          	flw	fa1,668(a6)
    41d4:	00225073          	fsrmi	zero,4
    41d8:	00b57653          	fadd.s	fa2,fa0,fa1
    41dc:	001028f3          	frflags	a7
    41e0:	28c7ac27          	fsw	fa2,664(a5)
    41e4:	2917ae23          	sw	a7,668(a5)

000041e8 <inst_592>:
    41e8:	2a082507          	flw	fa0,672(a6)
    41ec:	2a482587          	flw	fa1,676(a6)
    41f0:	0021d073          	fsrmi	zero,3
    41f4:	00b57653          	fadd.s	fa2,fa0,fa1
    41f8:	001028f3          	frflags	a7
    41fc:	2ac7a027          	fsw	fa2,672(a5)
    4200:	2b17a223          	sw	a7,676(a5)

00004204 <inst_593>:
    4204:	2a882507          	flw	fa0,680(a6)
    4208:	2ac82587          	flw	fa1,684(a6)
    420c:	00215073          	fsrmi	zero,2
    4210:	00b57653          	fadd.s	fa2,fa0,fa1
    4214:	001028f3          	frflags	a7
    4218:	2ac7a427          	fsw	fa2,680(a5)
    421c:	2b17a623          	sw	a7,684(a5)

00004220 <inst_594>:
    4220:	2b082507          	flw	fa0,688(a6)
    4224:	2b482587          	flw	fa1,692(a6)
    4228:	0020d073          	fsrmi	zero,1
    422c:	00b57653          	fadd.s	fa2,fa0,fa1
    4230:	001028f3          	frflags	a7
    4234:	2ac7a827          	fsw	fa2,688(a5)
    4238:	2b17aa23          	sw	a7,692(a5)

0000423c <inst_595>:
    423c:	2b882507          	flw	fa0,696(a6)
    4240:	2bc82587          	flw	fa1,700(a6)
    4244:	00205073          	fsrmi	zero,0
    4248:	00b57653          	fadd.s	fa2,fa0,fa1
    424c:	001028f3          	frflags	a7
    4250:	2ac7ac27          	fsw	fa2,696(a5)
    4254:	2b17ae23          	sw	a7,700(a5)

00004258 <inst_596>:
    4258:	2c082507          	flw	fa0,704(a6)
    425c:	2c482587          	flw	fa1,708(a6)
    4260:	00225073          	fsrmi	zero,4
    4264:	00b57653          	fadd.s	fa2,fa0,fa1
    4268:	001028f3          	frflags	a7
    426c:	2cc7a027          	fsw	fa2,704(a5)
    4270:	2d17a223          	sw	a7,708(a5)

00004274 <inst_597>:
    4274:	2c882507          	flw	fa0,712(a6)
    4278:	2cc82587          	flw	fa1,716(a6)
    427c:	0021d073          	fsrmi	zero,3
    4280:	00b57653          	fadd.s	fa2,fa0,fa1
    4284:	001028f3          	frflags	a7
    4288:	2cc7a427          	fsw	fa2,712(a5)
    428c:	2d17a623          	sw	a7,716(a5)

00004290 <inst_598>:
    4290:	2d082507          	flw	fa0,720(a6)
    4294:	2d482587          	flw	fa1,724(a6)
    4298:	00215073          	fsrmi	zero,2
    429c:	00b57653          	fadd.s	fa2,fa0,fa1
    42a0:	001028f3          	frflags	a7
    42a4:	2cc7a827          	fsw	fa2,720(a5)
    42a8:	2d17aa23          	sw	a7,724(a5)

000042ac <inst_599>:
    42ac:	2d882507          	flw	fa0,728(a6)
    42b0:	2dc82587          	flw	fa1,732(a6)
    42b4:	0020d073          	fsrmi	zero,1
    42b8:	00b57653          	fadd.s	fa2,fa0,fa1
    42bc:	001028f3          	frflags	a7
    42c0:	2cc7ac27          	fsw	fa2,728(a5)
    42c4:	2d17ae23          	sw	a7,732(a5)

000042c8 <inst_600>:
    42c8:	2e082507          	flw	fa0,736(a6)
    42cc:	2e482587          	flw	fa1,740(a6)
    42d0:	00205073          	fsrmi	zero,0
    42d4:	00b57653          	fadd.s	fa2,fa0,fa1
    42d8:	001028f3          	frflags	a7
    42dc:	2ec7a027          	fsw	fa2,736(a5)
    42e0:	2f17a223          	sw	a7,740(a5)

000042e4 <inst_601>:
    42e4:	2e882507          	flw	fa0,744(a6)
    42e8:	2ec82587          	flw	fa1,748(a6)
    42ec:	00225073          	fsrmi	zero,4
    42f0:	00b57653          	fadd.s	fa2,fa0,fa1
    42f4:	001028f3          	frflags	a7
    42f8:	2ec7a427          	fsw	fa2,744(a5)
    42fc:	2f17a623          	sw	a7,748(a5)

00004300 <inst_602>:
    4300:	2f082507          	flw	fa0,752(a6)
    4304:	2f482587          	flw	fa1,756(a6)
    4308:	0021d073          	fsrmi	zero,3
    430c:	00b57653          	fadd.s	fa2,fa0,fa1
    4310:	001028f3          	frflags	a7
    4314:	2ec7a827          	fsw	fa2,752(a5)
    4318:	2f17aa23          	sw	a7,756(a5)

0000431c <inst_603>:
    431c:	2f882507          	flw	fa0,760(a6)
    4320:	2fc82587          	flw	fa1,764(a6)
    4324:	00215073          	fsrmi	zero,2
    4328:	00b57653          	fadd.s	fa2,fa0,fa1
    432c:	001028f3          	frflags	a7
    4330:	2ec7ac27          	fsw	fa2,760(a5)
    4334:	2f17ae23          	sw	a7,764(a5)

00004338 <inst_604>:
    4338:	30082507          	flw	fa0,768(a6)
    433c:	30482587          	flw	fa1,772(a6)
    4340:	0020d073          	fsrmi	zero,1
    4344:	00b57653          	fadd.s	fa2,fa0,fa1
    4348:	001028f3          	frflags	a7
    434c:	30c7a027          	fsw	fa2,768(a5)
    4350:	3117a223          	sw	a7,772(a5)

00004354 <inst_605>:
    4354:	30882507          	flw	fa0,776(a6)
    4358:	30c82587          	flw	fa1,780(a6)
    435c:	00205073          	fsrmi	zero,0
    4360:	00b57653          	fadd.s	fa2,fa0,fa1
    4364:	001028f3          	frflags	a7
    4368:	30c7a427          	fsw	fa2,776(a5)
    436c:	3117a623          	sw	a7,780(a5)

00004370 <inst_606>:
    4370:	31082507          	flw	fa0,784(a6)
    4374:	31482587          	flw	fa1,788(a6)
    4378:	00225073          	fsrmi	zero,4
    437c:	00b57653          	fadd.s	fa2,fa0,fa1
    4380:	001028f3          	frflags	a7
    4384:	30c7a827          	fsw	fa2,784(a5)
    4388:	3117aa23          	sw	a7,788(a5)

0000438c <inst_607>:
    438c:	31882507          	flw	fa0,792(a6)
    4390:	31c82587          	flw	fa1,796(a6)
    4394:	0021d073          	fsrmi	zero,3
    4398:	00b57653          	fadd.s	fa2,fa0,fa1
    439c:	001028f3          	frflags	a7
    43a0:	30c7ac27          	fsw	fa2,792(a5)
    43a4:	3117ae23          	sw	a7,796(a5)

000043a8 <inst_608>:
    43a8:	32082507          	flw	fa0,800(a6)
    43ac:	32482587          	flw	fa1,804(a6)
    43b0:	00215073          	fsrmi	zero,2
    43b4:	00b57653          	fadd.s	fa2,fa0,fa1
    43b8:	001028f3          	frflags	a7
    43bc:	32c7a027          	fsw	fa2,800(a5)
    43c0:	3317a223          	sw	a7,804(a5)

000043c4 <inst_609>:
    43c4:	32882507          	flw	fa0,808(a6)
    43c8:	32c82587          	flw	fa1,812(a6)
    43cc:	0020d073          	fsrmi	zero,1
    43d0:	00b57653          	fadd.s	fa2,fa0,fa1
    43d4:	001028f3          	frflags	a7
    43d8:	32c7a427          	fsw	fa2,808(a5)
    43dc:	3317a623          	sw	a7,812(a5)

000043e0 <inst_610>:
    43e0:	33082507          	flw	fa0,816(a6)
    43e4:	33482587          	flw	fa1,820(a6)
    43e8:	00205073          	fsrmi	zero,0
    43ec:	00b57653          	fadd.s	fa2,fa0,fa1
    43f0:	001028f3          	frflags	a7
    43f4:	32c7a827          	fsw	fa2,816(a5)
    43f8:	3317aa23          	sw	a7,820(a5)

000043fc <inst_611>:
    43fc:	33882507          	flw	fa0,824(a6)
    4400:	33c82587          	flw	fa1,828(a6)
    4404:	00225073          	fsrmi	zero,4
    4408:	00b57653          	fadd.s	fa2,fa0,fa1
    440c:	001028f3          	frflags	a7
    4410:	32c7ac27          	fsw	fa2,824(a5)
    4414:	3317ae23          	sw	a7,828(a5)

00004418 <inst_612>:
    4418:	34082507          	flw	fa0,832(a6)
    441c:	34482587          	flw	fa1,836(a6)
    4420:	0021d073          	fsrmi	zero,3
    4424:	00b57653          	fadd.s	fa2,fa0,fa1
    4428:	001028f3          	frflags	a7
    442c:	34c7a027          	fsw	fa2,832(a5)
    4430:	3517a223          	sw	a7,836(a5)

00004434 <inst_613>:
    4434:	34882507          	flw	fa0,840(a6)
    4438:	34c82587          	flw	fa1,844(a6)
    443c:	00215073          	fsrmi	zero,2
    4440:	00b57653          	fadd.s	fa2,fa0,fa1
    4444:	001028f3          	frflags	a7
    4448:	34c7a427          	fsw	fa2,840(a5)
    444c:	3517a623          	sw	a7,844(a5)

00004450 <inst_614>:
    4450:	35082507          	flw	fa0,848(a6)
    4454:	35482587          	flw	fa1,852(a6)
    4458:	0020d073          	fsrmi	zero,1
    445c:	00b57653          	fadd.s	fa2,fa0,fa1
    4460:	001028f3          	frflags	a7
    4464:	34c7a827          	fsw	fa2,848(a5)
    4468:	3517aa23          	sw	a7,852(a5)

0000446c <inst_615>:
    446c:	35882507          	flw	fa0,856(a6)
    4470:	35c82587          	flw	fa1,860(a6)
    4474:	00205073          	fsrmi	zero,0
    4478:	00b57653          	fadd.s	fa2,fa0,fa1
    447c:	001028f3          	frflags	a7
    4480:	34c7ac27          	fsw	fa2,856(a5)
    4484:	3517ae23          	sw	a7,860(a5)

00004488 <inst_616>:
    4488:	36082507          	flw	fa0,864(a6)
    448c:	36482587          	flw	fa1,868(a6)
    4490:	00225073          	fsrmi	zero,4
    4494:	00b57653          	fadd.s	fa2,fa0,fa1
    4498:	001028f3          	frflags	a7
    449c:	36c7a027          	fsw	fa2,864(a5)
    44a0:	3717a223          	sw	a7,868(a5)

000044a4 <inst_617>:
    44a4:	36882507          	flw	fa0,872(a6)
    44a8:	36c82587          	flw	fa1,876(a6)
    44ac:	0021d073          	fsrmi	zero,3
    44b0:	00b57653          	fadd.s	fa2,fa0,fa1
    44b4:	001028f3          	frflags	a7
    44b8:	36c7a427          	fsw	fa2,872(a5)
    44bc:	3717a623          	sw	a7,876(a5)

000044c0 <inst_618>:
    44c0:	37082507          	flw	fa0,880(a6)
    44c4:	37482587          	flw	fa1,884(a6)
    44c8:	00215073          	fsrmi	zero,2
    44cc:	00b57653          	fadd.s	fa2,fa0,fa1
    44d0:	001028f3          	frflags	a7
    44d4:	36c7a827          	fsw	fa2,880(a5)
    44d8:	3717aa23          	sw	a7,884(a5)

000044dc <inst_619>:
    44dc:	37882507          	flw	fa0,888(a6)
    44e0:	37c82587          	flw	fa1,892(a6)
    44e4:	0020d073          	fsrmi	zero,1
    44e8:	00b57653          	fadd.s	fa2,fa0,fa1
    44ec:	001028f3          	frflags	a7
    44f0:	36c7ac27          	fsw	fa2,888(a5)
    44f4:	3717ae23          	sw	a7,892(a5)

000044f8 <inst_620>:
    44f8:	38082507          	flw	fa0,896(a6)
    44fc:	38482587          	flw	fa1,900(a6)
    4500:	00205073          	fsrmi	zero,0
    4504:	00b57653          	fadd.s	fa2,fa0,fa1
    4508:	001028f3          	frflags	a7
    450c:	38c7a027          	fsw	fa2,896(a5)
    4510:	3917a223          	sw	a7,900(a5)

00004514 <inst_621>:
    4514:	38882507          	flw	fa0,904(a6)
    4518:	38c82587          	flw	fa1,908(a6)
    451c:	00225073          	fsrmi	zero,4
    4520:	00b57653          	fadd.s	fa2,fa0,fa1
    4524:	001028f3          	frflags	a7
    4528:	38c7a427          	fsw	fa2,904(a5)
    452c:	3917a623          	sw	a7,908(a5)

00004530 <inst_622>:
    4530:	39082507          	flw	fa0,912(a6)
    4534:	39482587          	flw	fa1,916(a6)
    4538:	0021d073          	fsrmi	zero,3
    453c:	00b57653          	fadd.s	fa2,fa0,fa1
    4540:	001028f3          	frflags	a7
    4544:	38c7a827          	fsw	fa2,912(a5)
    4548:	3917aa23          	sw	a7,916(a5)

0000454c <inst_623>:
    454c:	39882507          	flw	fa0,920(a6)
    4550:	39c82587          	flw	fa1,924(a6)
    4554:	00215073          	fsrmi	zero,2
    4558:	00b57653          	fadd.s	fa2,fa0,fa1
    455c:	001028f3          	frflags	a7
    4560:	38c7ac27          	fsw	fa2,920(a5)
    4564:	3917ae23          	sw	a7,924(a5)

00004568 <inst_624>:
    4568:	3a082507          	flw	fa0,928(a6)
    456c:	3a482587          	flw	fa1,932(a6)
    4570:	0020d073          	fsrmi	zero,1
    4574:	00b57653          	fadd.s	fa2,fa0,fa1
    4578:	001028f3          	frflags	a7
    457c:	3ac7a027          	fsw	fa2,928(a5)
    4580:	3b17a223          	sw	a7,932(a5)

00004584 <inst_625>:
    4584:	3a882507          	flw	fa0,936(a6)
    4588:	3ac82587          	flw	fa1,940(a6)
    458c:	00205073          	fsrmi	zero,0
    4590:	00b57653          	fadd.s	fa2,fa0,fa1
    4594:	001028f3          	frflags	a7
    4598:	3ac7a427          	fsw	fa2,936(a5)
    459c:	3b17a623          	sw	a7,940(a5)

000045a0 <inst_626>:
    45a0:	3b082507          	flw	fa0,944(a6)
    45a4:	3b482587          	flw	fa1,948(a6)
    45a8:	00225073          	fsrmi	zero,4
    45ac:	00b57653          	fadd.s	fa2,fa0,fa1
    45b0:	001028f3          	frflags	a7
    45b4:	3ac7a827          	fsw	fa2,944(a5)
    45b8:	3b17aa23          	sw	a7,948(a5)

000045bc <inst_627>:
    45bc:	3b882507          	flw	fa0,952(a6)
    45c0:	3bc82587          	flw	fa1,956(a6)
    45c4:	0021d073          	fsrmi	zero,3
    45c8:	00b57653          	fadd.s	fa2,fa0,fa1
    45cc:	001028f3          	frflags	a7
    45d0:	3ac7ac27          	fsw	fa2,952(a5)
    45d4:	3b17ae23          	sw	a7,956(a5)

000045d8 <inst_628>:
    45d8:	3c082507          	flw	fa0,960(a6)
    45dc:	3c482587          	flw	fa1,964(a6)
    45e0:	00215073          	fsrmi	zero,2
    45e4:	00b57653          	fadd.s	fa2,fa0,fa1
    45e8:	001028f3          	frflags	a7
    45ec:	3cc7a027          	fsw	fa2,960(a5)
    45f0:	3d17a223          	sw	a7,964(a5)

000045f4 <inst_629>:
    45f4:	3c882507          	flw	fa0,968(a6)
    45f8:	3cc82587          	flw	fa1,972(a6)
    45fc:	0020d073          	fsrmi	zero,1
    4600:	00b57653          	fadd.s	fa2,fa0,fa1
    4604:	001028f3          	frflags	a7
    4608:	3cc7a427          	fsw	fa2,968(a5)
    460c:	3d17a623          	sw	a7,972(a5)

00004610 <inst_630>:
    4610:	3d082507          	flw	fa0,976(a6)
    4614:	3d482587          	flw	fa1,980(a6)
    4618:	00205073          	fsrmi	zero,0
    461c:	00b57653          	fadd.s	fa2,fa0,fa1
    4620:	001028f3          	frflags	a7
    4624:	3cc7a827          	fsw	fa2,976(a5)
    4628:	3d17aa23          	sw	a7,980(a5)

0000462c <inst_631>:
    462c:	3d882507          	flw	fa0,984(a6)
    4630:	3dc82587          	flw	fa1,988(a6)
    4634:	00225073          	fsrmi	zero,4
    4638:	00b57653          	fadd.s	fa2,fa0,fa1
    463c:	001028f3          	frflags	a7
    4640:	3cc7ac27          	fsw	fa2,984(a5)
    4644:	3d17ae23          	sw	a7,988(a5)

00004648 <inst_632>:
    4648:	3e082507          	flw	fa0,992(a6)
    464c:	3e482587          	flw	fa1,996(a6)
    4650:	0021d073          	fsrmi	zero,3
    4654:	00b57653          	fadd.s	fa2,fa0,fa1
    4658:	001028f3          	frflags	a7
    465c:	3ec7a027          	fsw	fa2,992(a5)
    4660:	3f17a223          	sw	a7,996(a5)

00004664 <inst_633>:
    4664:	3e882507          	flw	fa0,1000(a6)
    4668:	3ec82587          	flw	fa1,1004(a6)
    466c:	00215073          	fsrmi	zero,2
    4670:	00b57653          	fadd.s	fa2,fa0,fa1
    4674:	001028f3          	frflags	a7
    4678:	3ec7a427          	fsw	fa2,1000(a5)
    467c:	3f17a623          	sw	a7,1004(a5)

00004680 <inst_634>:
    4680:	3f082507          	flw	fa0,1008(a6)
    4684:	3f482587          	flw	fa1,1012(a6)
    4688:	0020d073          	fsrmi	zero,1
    468c:	00b57653          	fadd.s	fa2,fa0,fa1
    4690:	001028f3          	frflags	a7
    4694:	3ec7a827          	fsw	fa2,1008(a5)
    4698:	3f17aa23          	sw	a7,1012(a5)

0000469c <inst_635>:
    469c:	3f882507          	flw	fa0,1016(a6)
    46a0:	3fc82587          	flw	fa1,1020(a6)
    46a4:	00205073          	fsrmi	zero,0
    46a8:	00b57653          	fadd.s	fa2,fa0,fa1
    46ac:	001028f3          	frflags	a7
    46b0:	3ec7ac27          	fsw	fa2,1016(a5)
    46b4:	3f17ae23          	sw	a7,1020(a5)

000046b8 <inst_636>:
    46b8:	40082507          	flw	fa0,1024(a6)
    46bc:	40482587          	flw	fa1,1028(a6)
    46c0:	00225073          	fsrmi	zero,4
    46c4:	00b57653          	fadd.s	fa2,fa0,fa1
    46c8:	001028f3          	frflags	a7
    46cc:	40c7a027          	fsw	fa2,1024(a5)
    46d0:	4117a223          	sw	a7,1028(a5)

000046d4 <inst_637>:
    46d4:	40882507          	flw	fa0,1032(a6)
    46d8:	40c82587          	flw	fa1,1036(a6)
    46dc:	0021d073          	fsrmi	zero,3
    46e0:	00b57653          	fadd.s	fa2,fa0,fa1
    46e4:	001028f3          	frflags	a7
    46e8:	40c7a427          	fsw	fa2,1032(a5)
    46ec:	4117a623          	sw	a7,1036(a5)

000046f0 <inst_638>:
    46f0:	41082507          	flw	fa0,1040(a6)
    46f4:	41482587          	flw	fa1,1044(a6)
    46f8:	00215073          	fsrmi	zero,2
    46fc:	00b57653          	fadd.s	fa2,fa0,fa1
    4700:	001028f3          	frflags	a7
    4704:	40c7a827          	fsw	fa2,1040(a5)
    4708:	4117aa23          	sw	a7,1044(a5)

0000470c <inst_639>:
    470c:	41882507          	flw	fa0,1048(a6)
    4710:	41c82587          	flw	fa1,1052(a6)
    4714:	0020d073          	fsrmi	zero,1
    4718:	00b57653          	fadd.s	fa2,fa0,fa1
    471c:	001028f3          	frflags	a7
    4720:	40c7ac27          	fsw	fa2,1048(a5)
    4724:	4117ae23          	sw	a7,1052(a5)

00004728 <inst_640>:
    4728:	42082507          	flw	fa0,1056(a6)
    472c:	42482587          	flw	fa1,1060(a6)
    4730:	00205073          	fsrmi	zero,0
    4734:	00b57653          	fadd.s	fa2,fa0,fa1
    4738:	001028f3          	frflags	a7
    473c:	42c7a027          	fsw	fa2,1056(a5)
    4740:	4317a223          	sw	a7,1060(a5)

00004744 <inst_641>:
    4744:	42882507          	flw	fa0,1064(a6)
    4748:	42c82587          	flw	fa1,1068(a6)
    474c:	00225073          	fsrmi	zero,4
    4750:	00b57653          	fadd.s	fa2,fa0,fa1
    4754:	001028f3          	frflags	a7
    4758:	42c7a427          	fsw	fa2,1064(a5)
    475c:	4317a623          	sw	a7,1068(a5)

00004760 <inst_642>:
    4760:	43082507          	flw	fa0,1072(a6)
    4764:	43482587          	flw	fa1,1076(a6)
    4768:	0021d073          	fsrmi	zero,3
    476c:	00b57653          	fadd.s	fa2,fa0,fa1
    4770:	001028f3          	frflags	a7
    4774:	42c7a827          	fsw	fa2,1072(a5)
    4778:	4317aa23          	sw	a7,1076(a5)

0000477c <inst_643>:
    477c:	43882507          	flw	fa0,1080(a6)
    4780:	43c82587          	flw	fa1,1084(a6)
    4784:	00215073          	fsrmi	zero,2
    4788:	00b57653          	fadd.s	fa2,fa0,fa1
    478c:	001028f3          	frflags	a7
    4790:	42c7ac27          	fsw	fa2,1080(a5)
    4794:	4317ae23          	sw	a7,1084(a5)

00004798 <inst_644>:
    4798:	44082507          	flw	fa0,1088(a6)
    479c:	44482587          	flw	fa1,1092(a6)
    47a0:	0020d073          	fsrmi	zero,1
    47a4:	00b57653          	fadd.s	fa2,fa0,fa1
    47a8:	001028f3          	frflags	a7
    47ac:	44c7a027          	fsw	fa2,1088(a5)
    47b0:	4517a223          	sw	a7,1092(a5)

000047b4 <inst_645>:
    47b4:	44882507          	flw	fa0,1096(a6)
    47b8:	44c82587          	flw	fa1,1100(a6)
    47bc:	00205073          	fsrmi	zero,0
    47c0:	00b57653          	fadd.s	fa2,fa0,fa1
    47c4:	001028f3          	frflags	a7
    47c8:	44c7a427          	fsw	fa2,1096(a5)
    47cc:	4517a623          	sw	a7,1100(a5)

000047d0 <inst_646>:
    47d0:	45082507          	flw	fa0,1104(a6)
    47d4:	45482587          	flw	fa1,1108(a6)
    47d8:	00225073          	fsrmi	zero,4
    47dc:	00b57653          	fadd.s	fa2,fa0,fa1
    47e0:	001028f3          	frflags	a7
    47e4:	44c7a827          	fsw	fa2,1104(a5)
    47e8:	4517aa23          	sw	a7,1108(a5)

000047ec <inst_647>:
    47ec:	45882507          	flw	fa0,1112(a6)
    47f0:	45c82587          	flw	fa1,1116(a6)
    47f4:	0021d073          	fsrmi	zero,3
    47f8:	00b57653          	fadd.s	fa2,fa0,fa1
    47fc:	001028f3          	frflags	a7
    4800:	44c7ac27          	fsw	fa2,1112(a5)
    4804:	4517ae23          	sw	a7,1116(a5)

00004808 <inst_648>:
    4808:	46082507          	flw	fa0,1120(a6)
    480c:	46482587          	flw	fa1,1124(a6)
    4810:	00215073          	fsrmi	zero,2
    4814:	00b57653          	fadd.s	fa2,fa0,fa1
    4818:	001028f3          	frflags	a7
    481c:	46c7a027          	fsw	fa2,1120(a5)
    4820:	4717a223          	sw	a7,1124(a5)

00004824 <inst_649>:
    4824:	46882507          	flw	fa0,1128(a6)
    4828:	46c82587          	flw	fa1,1132(a6)
    482c:	0020d073          	fsrmi	zero,1
    4830:	00b57653          	fadd.s	fa2,fa0,fa1
    4834:	001028f3          	frflags	a7
    4838:	46c7a427          	fsw	fa2,1128(a5)
    483c:	4717a623          	sw	a7,1132(a5)

00004840 <inst_650>:
    4840:	47082507          	flw	fa0,1136(a6)
    4844:	47482587          	flw	fa1,1140(a6)
    4848:	00205073          	fsrmi	zero,0
    484c:	00b57653          	fadd.s	fa2,fa0,fa1
    4850:	001028f3          	frflags	a7
    4854:	46c7a827          	fsw	fa2,1136(a5)
    4858:	4717aa23          	sw	a7,1140(a5)

0000485c <inst_651>:
    485c:	47882507          	flw	fa0,1144(a6)
    4860:	47c82587          	flw	fa1,1148(a6)
    4864:	00225073          	fsrmi	zero,4
    4868:	00b57653          	fadd.s	fa2,fa0,fa1
    486c:	001028f3          	frflags	a7
    4870:	46c7ac27          	fsw	fa2,1144(a5)
    4874:	4717ae23          	sw	a7,1148(a5)

00004878 <inst_652>:
    4878:	48082507          	flw	fa0,1152(a6)
    487c:	48482587          	flw	fa1,1156(a6)
    4880:	0021d073          	fsrmi	zero,3
    4884:	00b57653          	fadd.s	fa2,fa0,fa1
    4888:	001028f3          	frflags	a7
    488c:	48c7a027          	fsw	fa2,1152(a5)
    4890:	4917a223          	sw	a7,1156(a5)

00004894 <inst_653>:
    4894:	48882507          	flw	fa0,1160(a6)
    4898:	48c82587          	flw	fa1,1164(a6)
    489c:	00215073          	fsrmi	zero,2
    48a0:	00b57653          	fadd.s	fa2,fa0,fa1
    48a4:	001028f3          	frflags	a7
    48a8:	48c7a427          	fsw	fa2,1160(a5)
    48ac:	4917a623          	sw	a7,1164(a5)

000048b0 <inst_654>:
    48b0:	49082507          	flw	fa0,1168(a6)
    48b4:	49482587          	flw	fa1,1172(a6)
    48b8:	0020d073          	fsrmi	zero,1
    48bc:	00b57653          	fadd.s	fa2,fa0,fa1
    48c0:	001028f3          	frflags	a7
    48c4:	48c7a827          	fsw	fa2,1168(a5)
    48c8:	4917aa23          	sw	a7,1172(a5)

000048cc <inst_655>:
    48cc:	49882507          	flw	fa0,1176(a6)
    48d0:	49c82587          	flw	fa1,1180(a6)
    48d4:	00205073          	fsrmi	zero,0
    48d8:	00b57653          	fadd.s	fa2,fa0,fa1
    48dc:	001028f3          	frflags	a7
    48e0:	48c7ac27          	fsw	fa2,1176(a5)
    48e4:	4917ae23          	sw	a7,1180(a5)

000048e8 <inst_656>:
    48e8:	4a082507          	flw	fa0,1184(a6)
    48ec:	4a482587          	flw	fa1,1188(a6)
    48f0:	00225073          	fsrmi	zero,4
    48f4:	00b57653          	fadd.s	fa2,fa0,fa1
    48f8:	001028f3          	frflags	a7
    48fc:	4ac7a027          	fsw	fa2,1184(a5)
    4900:	4b17a223          	sw	a7,1188(a5)

00004904 <inst_657>:
    4904:	4a882507          	flw	fa0,1192(a6)
    4908:	4ac82587          	flw	fa1,1196(a6)
    490c:	0021d073          	fsrmi	zero,3
    4910:	00b57653          	fadd.s	fa2,fa0,fa1
    4914:	001028f3          	frflags	a7
    4918:	4ac7a427          	fsw	fa2,1192(a5)
    491c:	4b17a623          	sw	a7,1196(a5)

00004920 <inst_658>:
    4920:	4b082507          	flw	fa0,1200(a6)
    4924:	4b482587          	flw	fa1,1204(a6)
    4928:	00215073          	fsrmi	zero,2
    492c:	00b57653          	fadd.s	fa2,fa0,fa1
    4930:	001028f3          	frflags	a7
    4934:	4ac7a827          	fsw	fa2,1200(a5)
    4938:	4b17aa23          	sw	a7,1204(a5)

0000493c <inst_659>:
    493c:	4b882507          	flw	fa0,1208(a6)
    4940:	4bc82587          	flw	fa1,1212(a6)
    4944:	0020d073          	fsrmi	zero,1
    4948:	00b57653          	fadd.s	fa2,fa0,fa1
    494c:	001028f3          	frflags	a7
    4950:	4ac7ac27          	fsw	fa2,1208(a5)
    4954:	4b17ae23          	sw	a7,1212(a5)

00004958 <inst_660>:
    4958:	4c082507          	flw	fa0,1216(a6)
    495c:	4c482587          	flw	fa1,1220(a6)
    4960:	00205073          	fsrmi	zero,0
    4964:	00b57653          	fadd.s	fa2,fa0,fa1
    4968:	001028f3          	frflags	a7
    496c:	4cc7a027          	fsw	fa2,1216(a5)
    4970:	4d17a223          	sw	a7,1220(a5)

00004974 <inst_661>:
    4974:	4c882507          	flw	fa0,1224(a6)
    4978:	4cc82587          	flw	fa1,1228(a6)
    497c:	00225073          	fsrmi	zero,4
    4980:	00b57653          	fadd.s	fa2,fa0,fa1
    4984:	001028f3          	frflags	a7
    4988:	4cc7a427          	fsw	fa2,1224(a5)
    498c:	4d17a623          	sw	a7,1228(a5)

00004990 <inst_662>:
    4990:	4d082507          	flw	fa0,1232(a6)
    4994:	4d482587          	flw	fa1,1236(a6)
    4998:	0021d073          	fsrmi	zero,3
    499c:	00b57653          	fadd.s	fa2,fa0,fa1
    49a0:	001028f3          	frflags	a7
    49a4:	4cc7a827          	fsw	fa2,1232(a5)
    49a8:	4d17aa23          	sw	a7,1236(a5)

000049ac <inst_663>:
    49ac:	4d882507          	flw	fa0,1240(a6)
    49b0:	4dc82587          	flw	fa1,1244(a6)
    49b4:	00215073          	fsrmi	zero,2
    49b8:	00b57653          	fadd.s	fa2,fa0,fa1
    49bc:	001028f3          	frflags	a7
    49c0:	4cc7ac27          	fsw	fa2,1240(a5)
    49c4:	4d17ae23          	sw	a7,1244(a5)

000049c8 <inst_664>:
    49c8:	4e082507          	flw	fa0,1248(a6)
    49cc:	4e482587          	flw	fa1,1252(a6)
    49d0:	0020d073          	fsrmi	zero,1
    49d4:	00b57653          	fadd.s	fa2,fa0,fa1
    49d8:	001028f3          	frflags	a7
    49dc:	4ec7a027          	fsw	fa2,1248(a5)
    49e0:	4f17a223          	sw	a7,1252(a5)

000049e4 <inst_665>:
    49e4:	4e882507          	flw	fa0,1256(a6)
    49e8:	4ec82587          	flw	fa1,1260(a6)
    49ec:	00205073          	fsrmi	zero,0
    49f0:	00b57653          	fadd.s	fa2,fa0,fa1
    49f4:	001028f3          	frflags	a7
    49f8:	4ec7a427          	fsw	fa2,1256(a5)
    49fc:	4f17a623          	sw	a7,1260(a5)

00004a00 <inst_666>:
    4a00:	4f082507          	flw	fa0,1264(a6)
    4a04:	4f482587          	flw	fa1,1268(a6)
    4a08:	00225073          	fsrmi	zero,4
    4a0c:	00b57653          	fadd.s	fa2,fa0,fa1
    4a10:	001028f3          	frflags	a7
    4a14:	4ec7a827          	fsw	fa2,1264(a5)
    4a18:	4f17aa23          	sw	a7,1268(a5)

00004a1c <inst_667>:
    4a1c:	4f882507          	flw	fa0,1272(a6)
    4a20:	4fc82587          	flw	fa1,1276(a6)
    4a24:	0021d073          	fsrmi	zero,3
    4a28:	00b57653          	fadd.s	fa2,fa0,fa1
    4a2c:	001028f3          	frflags	a7
    4a30:	4ec7ac27          	fsw	fa2,1272(a5)
    4a34:	4f17ae23          	sw	a7,1276(a5)

00004a38 <inst_668>:
    4a38:	50082507          	flw	fa0,1280(a6)
    4a3c:	50482587          	flw	fa1,1284(a6)
    4a40:	00215073          	fsrmi	zero,2
    4a44:	00b57653          	fadd.s	fa2,fa0,fa1
    4a48:	001028f3          	frflags	a7
    4a4c:	50c7a027          	fsw	fa2,1280(a5)
    4a50:	5117a223          	sw	a7,1284(a5)

00004a54 <inst_669>:
    4a54:	50882507          	flw	fa0,1288(a6)
    4a58:	50c82587          	flw	fa1,1292(a6)
    4a5c:	0020d073          	fsrmi	zero,1
    4a60:	00b57653          	fadd.s	fa2,fa0,fa1
    4a64:	001028f3          	frflags	a7
    4a68:	50c7a427          	fsw	fa2,1288(a5)
    4a6c:	5117a623          	sw	a7,1292(a5)

00004a70 <inst_670>:
    4a70:	51082507          	flw	fa0,1296(a6)
    4a74:	51482587          	flw	fa1,1300(a6)
    4a78:	00205073          	fsrmi	zero,0
    4a7c:	00b57653          	fadd.s	fa2,fa0,fa1
    4a80:	001028f3          	frflags	a7
    4a84:	50c7a827          	fsw	fa2,1296(a5)
    4a88:	5117aa23          	sw	a7,1300(a5)

00004a8c <inst_671>:
    4a8c:	51882507          	flw	fa0,1304(a6)
    4a90:	51c82587          	flw	fa1,1308(a6)
    4a94:	00225073          	fsrmi	zero,4
    4a98:	00b57653          	fadd.s	fa2,fa0,fa1
    4a9c:	001028f3          	frflags	a7
    4aa0:	50c7ac27          	fsw	fa2,1304(a5)
    4aa4:	5117ae23          	sw	a7,1308(a5)

00004aa8 <inst_672>:
    4aa8:	52082507          	flw	fa0,1312(a6)
    4aac:	52482587          	flw	fa1,1316(a6)
    4ab0:	0021d073          	fsrmi	zero,3
    4ab4:	00b57653          	fadd.s	fa2,fa0,fa1
    4ab8:	001028f3          	frflags	a7
    4abc:	52c7a027          	fsw	fa2,1312(a5)
    4ac0:	5317a223          	sw	a7,1316(a5)

00004ac4 <inst_673>:
    4ac4:	52882507          	flw	fa0,1320(a6)
    4ac8:	52c82587          	flw	fa1,1324(a6)
    4acc:	00215073          	fsrmi	zero,2
    4ad0:	00b57653          	fadd.s	fa2,fa0,fa1
    4ad4:	001028f3          	frflags	a7
    4ad8:	52c7a427          	fsw	fa2,1320(a5)
    4adc:	5317a623          	sw	a7,1324(a5)

00004ae0 <inst_674>:
    4ae0:	53082507          	flw	fa0,1328(a6)
    4ae4:	53482587          	flw	fa1,1332(a6)
    4ae8:	0020d073          	fsrmi	zero,1
    4aec:	00b57653          	fadd.s	fa2,fa0,fa1
    4af0:	001028f3          	frflags	a7
    4af4:	52c7a827          	fsw	fa2,1328(a5)
    4af8:	5317aa23          	sw	a7,1332(a5)

00004afc <inst_675>:
    4afc:	53882507          	flw	fa0,1336(a6)
    4b00:	53c82587          	flw	fa1,1340(a6)
    4b04:	00205073          	fsrmi	zero,0
    4b08:	00b57653          	fadd.s	fa2,fa0,fa1
    4b0c:	001028f3          	frflags	a7
    4b10:	52c7ac27          	fsw	fa2,1336(a5)
    4b14:	5317ae23          	sw	a7,1340(a5)

00004b18 <inst_676>:
    4b18:	54082507          	flw	fa0,1344(a6)
    4b1c:	54482587          	flw	fa1,1348(a6)
    4b20:	00225073          	fsrmi	zero,4
    4b24:	00b57653          	fadd.s	fa2,fa0,fa1
    4b28:	001028f3          	frflags	a7
    4b2c:	54c7a027          	fsw	fa2,1344(a5)
    4b30:	5517a223          	sw	a7,1348(a5)

00004b34 <inst_677>:
    4b34:	54882507          	flw	fa0,1352(a6)
    4b38:	54c82587          	flw	fa1,1356(a6)
    4b3c:	0021d073          	fsrmi	zero,3
    4b40:	00b57653          	fadd.s	fa2,fa0,fa1
    4b44:	001028f3          	frflags	a7
    4b48:	54c7a427          	fsw	fa2,1352(a5)
    4b4c:	5517a623          	sw	a7,1356(a5)

00004b50 <inst_678>:
    4b50:	55082507          	flw	fa0,1360(a6)
    4b54:	55482587          	flw	fa1,1364(a6)
    4b58:	00215073          	fsrmi	zero,2
    4b5c:	00b57653          	fadd.s	fa2,fa0,fa1
    4b60:	001028f3          	frflags	a7
    4b64:	54c7a827          	fsw	fa2,1360(a5)
    4b68:	5517aa23          	sw	a7,1364(a5)

00004b6c <inst_679>:
    4b6c:	55882507          	flw	fa0,1368(a6)
    4b70:	55c82587          	flw	fa1,1372(a6)
    4b74:	0020d073          	fsrmi	zero,1
    4b78:	00b57653          	fadd.s	fa2,fa0,fa1
    4b7c:	001028f3          	frflags	a7
    4b80:	54c7ac27          	fsw	fa2,1368(a5)
    4b84:	5517ae23          	sw	a7,1372(a5)

00004b88 <inst_680>:
    4b88:	56082507          	flw	fa0,1376(a6)
    4b8c:	56482587          	flw	fa1,1380(a6)
    4b90:	00205073          	fsrmi	zero,0
    4b94:	00b57653          	fadd.s	fa2,fa0,fa1
    4b98:	001028f3          	frflags	a7
    4b9c:	56c7a027          	fsw	fa2,1376(a5)
    4ba0:	5717a223          	sw	a7,1380(a5)

00004ba4 <inst_681>:
    4ba4:	56882507          	flw	fa0,1384(a6)
    4ba8:	56c82587          	flw	fa1,1388(a6)
    4bac:	00225073          	fsrmi	zero,4
    4bb0:	00b57653          	fadd.s	fa2,fa0,fa1
    4bb4:	001028f3          	frflags	a7
    4bb8:	56c7a427          	fsw	fa2,1384(a5)
    4bbc:	5717a623          	sw	a7,1388(a5)

00004bc0 <inst_682>:
    4bc0:	57082507          	flw	fa0,1392(a6)
    4bc4:	57482587          	flw	fa1,1396(a6)
    4bc8:	0021d073          	fsrmi	zero,3
    4bcc:	00b57653          	fadd.s	fa2,fa0,fa1
    4bd0:	001028f3          	frflags	a7
    4bd4:	56c7a827          	fsw	fa2,1392(a5)
    4bd8:	5717aa23          	sw	a7,1396(a5)

00004bdc <inst_683>:
    4bdc:	57882507          	flw	fa0,1400(a6)
    4be0:	57c82587          	flw	fa1,1404(a6)
    4be4:	00215073          	fsrmi	zero,2
    4be8:	00b57653          	fadd.s	fa2,fa0,fa1
    4bec:	001028f3          	frflags	a7
    4bf0:	56c7ac27          	fsw	fa2,1400(a5)
    4bf4:	5717ae23          	sw	a7,1404(a5)

00004bf8 <inst_684>:
    4bf8:	58082507          	flw	fa0,1408(a6)
    4bfc:	58482587          	flw	fa1,1412(a6)
    4c00:	0020d073          	fsrmi	zero,1
    4c04:	00b57653          	fadd.s	fa2,fa0,fa1
    4c08:	001028f3          	frflags	a7
    4c0c:	58c7a027          	fsw	fa2,1408(a5)
    4c10:	5917a223          	sw	a7,1412(a5)

00004c14 <inst_685>:
    4c14:	58882507          	flw	fa0,1416(a6)
    4c18:	58c82587          	flw	fa1,1420(a6)
    4c1c:	00205073          	fsrmi	zero,0
    4c20:	00b57653          	fadd.s	fa2,fa0,fa1
    4c24:	001028f3          	frflags	a7
    4c28:	58c7a427          	fsw	fa2,1416(a5)
    4c2c:	5917a623          	sw	a7,1420(a5)

00004c30 <inst_686>:
    4c30:	59082507          	flw	fa0,1424(a6)
    4c34:	59482587          	flw	fa1,1428(a6)
    4c38:	00225073          	fsrmi	zero,4
    4c3c:	00b57653          	fadd.s	fa2,fa0,fa1
    4c40:	001028f3          	frflags	a7
    4c44:	58c7a827          	fsw	fa2,1424(a5)
    4c48:	5917aa23          	sw	a7,1428(a5)

00004c4c <inst_687>:
    4c4c:	59882507          	flw	fa0,1432(a6)
    4c50:	59c82587          	flw	fa1,1436(a6)
    4c54:	0021d073          	fsrmi	zero,3
    4c58:	00b57653          	fadd.s	fa2,fa0,fa1
    4c5c:	001028f3          	frflags	a7
    4c60:	58c7ac27          	fsw	fa2,1432(a5)
    4c64:	5917ae23          	sw	a7,1436(a5)

00004c68 <inst_688>:
    4c68:	5a082507          	flw	fa0,1440(a6)
    4c6c:	5a482587          	flw	fa1,1444(a6)
    4c70:	00215073          	fsrmi	zero,2
    4c74:	00b57653          	fadd.s	fa2,fa0,fa1
    4c78:	001028f3          	frflags	a7
    4c7c:	5ac7a027          	fsw	fa2,1440(a5)
    4c80:	5b17a223          	sw	a7,1444(a5)

00004c84 <inst_689>:
    4c84:	5a882507          	flw	fa0,1448(a6)
    4c88:	5ac82587          	flw	fa1,1452(a6)
    4c8c:	0020d073          	fsrmi	zero,1
    4c90:	00b57653          	fadd.s	fa2,fa0,fa1
    4c94:	001028f3          	frflags	a7
    4c98:	5ac7a427          	fsw	fa2,1448(a5)
    4c9c:	5b17a623          	sw	a7,1452(a5)

00004ca0 <inst_690>:
    4ca0:	5b082507          	flw	fa0,1456(a6)
    4ca4:	5b482587          	flw	fa1,1460(a6)
    4ca8:	00205073          	fsrmi	zero,0
    4cac:	00b57653          	fadd.s	fa2,fa0,fa1
    4cb0:	001028f3          	frflags	a7
    4cb4:	5ac7a827          	fsw	fa2,1456(a5)
    4cb8:	5b17aa23          	sw	a7,1460(a5)

00004cbc <inst_691>:
    4cbc:	5b882507          	flw	fa0,1464(a6)
    4cc0:	5bc82587          	flw	fa1,1468(a6)
    4cc4:	00225073          	fsrmi	zero,4
    4cc8:	00b57653          	fadd.s	fa2,fa0,fa1
    4ccc:	001028f3          	frflags	a7
    4cd0:	5ac7ac27          	fsw	fa2,1464(a5)
    4cd4:	5b17ae23          	sw	a7,1468(a5)

00004cd8 <inst_692>:
    4cd8:	5c082507          	flw	fa0,1472(a6)
    4cdc:	5c482587          	flw	fa1,1476(a6)
    4ce0:	0021d073          	fsrmi	zero,3
    4ce4:	00b57653          	fadd.s	fa2,fa0,fa1
    4ce8:	001028f3          	frflags	a7
    4cec:	5cc7a027          	fsw	fa2,1472(a5)
    4cf0:	5d17a223          	sw	a7,1476(a5)

00004cf4 <inst_693>:
    4cf4:	5c882507          	flw	fa0,1480(a6)
    4cf8:	5cc82587          	flw	fa1,1484(a6)
    4cfc:	00215073          	fsrmi	zero,2
    4d00:	00b57653          	fadd.s	fa2,fa0,fa1
    4d04:	001028f3          	frflags	a7
    4d08:	5cc7a427          	fsw	fa2,1480(a5)
    4d0c:	5d17a623          	sw	a7,1484(a5)

00004d10 <inst_694>:
    4d10:	5d082507          	flw	fa0,1488(a6)
    4d14:	5d482587          	flw	fa1,1492(a6)
    4d18:	0020d073          	fsrmi	zero,1
    4d1c:	00b57653          	fadd.s	fa2,fa0,fa1
    4d20:	001028f3          	frflags	a7
    4d24:	5cc7a827          	fsw	fa2,1488(a5)
    4d28:	5d17aa23          	sw	a7,1492(a5)

00004d2c <inst_695>:
    4d2c:	5d882507          	flw	fa0,1496(a6)
    4d30:	5dc82587          	flw	fa1,1500(a6)
    4d34:	00205073          	fsrmi	zero,0
    4d38:	00b57653          	fadd.s	fa2,fa0,fa1
    4d3c:	001028f3          	frflags	a7
    4d40:	5cc7ac27          	fsw	fa2,1496(a5)
    4d44:	5d17ae23          	sw	a7,1500(a5)

00004d48 <inst_696>:
    4d48:	5e082507          	flw	fa0,1504(a6)
    4d4c:	5e482587          	flw	fa1,1508(a6)
    4d50:	00225073          	fsrmi	zero,4
    4d54:	00b57653          	fadd.s	fa2,fa0,fa1
    4d58:	001028f3          	frflags	a7
    4d5c:	5ec7a027          	fsw	fa2,1504(a5)
    4d60:	5f17a223          	sw	a7,1508(a5)

00004d64 <inst_697>:
    4d64:	5e882507          	flw	fa0,1512(a6)
    4d68:	5ec82587          	flw	fa1,1516(a6)
    4d6c:	0021d073          	fsrmi	zero,3
    4d70:	00b57653          	fadd.s	fa2,fa0,fa1
    4d74:	001028f3          	frflags	a7
    4d78:	5ec7a427          	fsw	fa2,1512(a5)
    4d7c:	5f17a623          	sw	a7,1516(a5)

00004d80 <inst_698>:
    4d80:	5f082507          	flw	fa0,1520(a6)
    4d84:	5f482587          	flw	fa1,1524(a6)
    4d88:	00215073          	fsrmi	zero,2
    4d8c:	00b57653          	fadd.s	fa2,fa0,fa1
    4d90:	001028f3          	frflags	a7
    4d94:	5ec7a827          	fsw	fa2,1520(a5)
    4d98:	5f17aa23          	sw	a7,1524(a5)

00004d9c <inst_699>:
    4d9c:	5f882507          	flw	fa0,1528(a6)
    4da0:	5fc82587          	flw	fa1,1532(a6)
    4da4:	0020d073          	fsrmi	zero,1
    4da8:	00b57653          	fadd.s	fa2,fa0,fa1
    4dac:	001028f3          	frflags	a7
    4db0:	5ec7ac27          	fsw	fa2,1528(a5)
    4db4:	5f17ae23          	sw	a7,1532(a5)

00004db8 <inst_700>:
    4db8:	60082507          	flw	fa0,1536(a6)
    4dbc:	60482587          	flw	fa1,1540(a6)
    4dc0:	00205073          	fsrmi	zero,0
    4dc4:	00b57653          	fadd.s	fa2,fa0,fa1
    4dc8:	001028f3          	frflags	a7
    4dcc:	60c7a027          	fsw	fa2,1536(a5)
    4dd0:	6117a223          	sw	a7,1540(a5)

00004dd4 <inst_701>:
    4dd4:	60882507          	flw	fa0,1544(a6)
    4dd8:	60c82587          	flw	fa1,1548(a6)
    4ddc:	00225073          	fsrmi	zero,4
    4de0:	00b57653          	fadd.s	fa2,fa0,fa1
    4de4:	001028f3          	frflags	a7
    4de8:	60c7a427          	fsw	fa2,1544(a5)
    4dec:	6117a623          	sw	a7,1548(a5)

00004df0 <inst_702>:
    4df0:	61082507          	flw	fa0,1552(a6)
    4df4:	61482587          	flw	fa1,1556(a6)
    4df8:	0021d073          	fsrmi	zero,3
    4dfc:	00b57653          	fadd.s	fa2,fa0,fa1
    4e00:	001028f3          	frflags	a7
    4e04:	60c7a827          	fsw	fa2,1552(a5)
    4e08:	6117aa23          	sw	a7,1556(a5)

00004e0c <inst_703>:
    4e0c:	61882507          	flw	fa0,1560(a6)
    4e10:	61c82587          	flw	fa1,1564(a6)
    4e14:	00215073          	fsrmi	zero,2
    4e18:	00b57653          	fadd.s	fa2,fa0,fa1
    4e1c:	001028f3          	frflags	a7
    4e20:	60c7ac27          	fsw	fa2,1560(a5)
    4e24:	6117ae23          	sw	a7,1564(a5)

00004e28 <inst_704>:
    4e28:	62082507          	flw	fa0,1568(a6)
    4e2c:	62482587          	flw	fa1,1572(a6)
    4e30:	0020d073          	fsrmi	zero,1
    4e34:	00b57653          	fadd.s	fa2,fa0,fa1
    4e38:	001028f3          	frflags	a7
    4e3c:	62c7a027          	fsw	fa2,1568(a5)
    4e40:	6317a223          	sw	a7,1572(a5)

00004e44 <inst_705>:
    4e44:	62882507          	flw	fa0,1576(a6)
    4e48:	62c82587          	flw	fa1,1580(a6)
    4e4c:	00205073          	fsrmi	zero,0
    4e50:	00b57653          	fadd.s	fa2,fa0,fa1
    4e54:	001028f3          	frflags	a7
    4e58:	62c7a427          	fsw	fa2,1576(a5)
    4e5c:	6317a623          	sw	a7,1580(a5)

00004e60 <inst_706>:
    4e60:	63082507          	flw	fa0,1584(a6)
    4e64:	63482587          	flw	fa1,1588(a6)
    4e68:	00225073          	fsrmi	zero,4
    4e6c:	00b57653          	fadd.s	fa2,fa0,fa1
    4e70:	001028f3          	frflags	a7
    4e74:	62c7a827          	fsw	fa2,1584(a5)
    4e78:	6317aa23          	sw	a7,1588(a5)

00004e7c <inst_707>:
    4e7c:	63882507          	flw	fa0,1592(a6)
    4e80:	63c82587          	flw	fa1,1596(a6)
    4e84:	0021d073          	fsrmi	zero,3
    4e88:	00b57653          	fadd.s	fa2,fa0,fa1
    4e8c:	001028f3          	frflags	a7
    4e90:	62c7ac27          	fsw	fa2,1592(a5)
    4e94:	6317ae23          	sw	a7,1596(a5)

00004e98 <inst_708>:
    4e98:	64082507          	flw	fa0,1600(a6)
    4e9c:	64482587          	flw	fa1,1604(a6)
    4ea0:	00215073          	fsrmi	zero,2
    4ea4:	00b57653          	fadd.s	fa2,fa0,fa1
    4ea8:	001028f3          	frflags	a7
    4eac:	64c7a027          	fsw	fa2,1600(a5)
    4eb0:	6517a223          	sw	a7,1604(a5)

00004eb4 <inst_709>:
    4eb4:	64882507          	flw	fa0,1608(a6)
    4eb8:	64c82587          	flw	fa1,1612(a6)
    4ebc:	0020d073          	fsrmi	zero,1
    4ec0:	00b57653          	fadd.s	fa2,fa0,fa1
    4ec4:	001028f3          	frflags	a7
    4ec8:	64c7a427          	fsw	fa2,1608(a5)
    4ecc:	6517a623          	sw	a7,1612(a5)

00004ed0 <inst_710>:
    4ed0:	65082507          	flw	fa0,1616(a6)
    4ed4:	65482587          	flw	fa1,1620(a6)
    4ed8:	00205073          	fsrmi	zero,0
    4edc:	00b57653          	fadd.s	fa2,fa0,fa1
    4ee0:	001028f3          	frflags	a7
    4ee4:	64c7a827          	fsw	fa2,1616(a5)
    4ee8:	6517aa23          	sw	a7,1620(a5)

00004eec <inst_711>:
    4eec:	65882507          	flw	fa0,1624(a6)
    4ef0:	65c82587          	flw	fa1,1628(a6)
    4ef4:	00225073          	fsrmi	zero,4
    4ef8:	00b57653          	fadd.s	fa2,fa0,fa1
    4efc:	001028f3          	frflags	a7
    4f00:	64c7ac27          	fsw	fa2,1624(a5)
    4f04:	6517ae23          	sw	a7,1628(a5)

00004f08 <inst_712>:
    4f08:	66082507          	flw	fa0,1632(a6)
    4f0c:	66482587          	flw	fa1,1636(a6)
    4f10:	0021d073          	fsrmi	zero,3
    4f14:	00b57653          	fadd.s	fa2,fa0,fa1
    4f18:	001028f3          	frflags	a7
    4f1c:	66c7a027          	fsw	fa2,1632(a5)
    4f20:	6717a223          	sw	a7,1636(a5)

00004f24 <inst_713>:
    4f24:	66882507          	flw	fa0,1640(a6)
    4f28:	66c82587          	flw	fa1,1644(a6)
    4f2c:	00215073          	fsrmi	zero,2
    4f30:	00b57653          	fadd.s	fa2,fa0,fa1
    4f34:	001028f3          	frflags	a7
    4f38:	66c7a427          	fsw	fa2,1640(a5)
    4f3c:	6717a623          	sw	a7,1644(a5)

00004f40 <inst_714>:
    4f40:	67082507          	flw	fa0,1648(a6)
    4f44:	67482587          	flw	fa1,1652(a6)
    4f48:	0020d073          	fsrmi	zero,1
    4f4c:	00b57653          	fadd.s	fa2,fa0,fa1
    4f50:	001028f3          	frflags	a7
    4f54:	66c7a827          	fsw	fa2,1648(a5)
    4f58:	6717aa23          	sw	a7,1652(a5)

00004f5c <inst_715>:
    4f5c:	67882507          	flw	fa0,1656(a6)
    4f60:	67c82587          	flw	fa1,1660(a6)
    4f64:	00205073          	fsrmi	zero,0
    4f68:	00b57653          	fadd.s	fa2,fa0,fa1
    4f6c:	001028f3          	frflags	a7
    4f70:	66c7ac27          	fsw	fa2,1656(a5)
    4f74:	6717ae23          	sw	a7,1660(a5)

00004f78 <inst_716>:
    4f78:	68082507          	flw	fa0,1664(a6)
    4f7c:	68482587          	flw	fa1,1668(a6)
    4f80:	00225073          	fsrmi	zero,4
    4f84:	00b57653          	fadd.s	fa2,fa0,fa1
    4f88:	001028f3          	frflags	a7
    4f8c:	68c7a027          	fsw	fa2,1664(a5)
    4f90:	6917a223          	sw	a7,1668(a5)

00004f94 <inst_717>:
    4f94:	68882507          	flw	fa0,1672(a6)
    4f98:	68c82587          	flw	fa1,1676(a6)
    4f9c:	0021d073          	fsrmi	zero,3
    4fa0:	00b57653          	fadd.s	fa2,fa0,fa1
    4fa4:	001028f3          	frflags	a7
    4fa8:	68c7a427          	fsw	fa2,1672(a5)
    4fac:	6917a623          	sw	a7,1676(a5)

00004fb0 <inst_718>:
    4fb0:	69082507          	flw	fa0,1680(a6)
    4fb4:	69482587          	flw	fa1,1684(a6)
    4fb8:	00215073          	fsrmi	zero,2
    4fbc:	00b57653          	fadd.s	fa2,fa0,fa1
    4fc0:	001028f3          	frflags	a7
    4fc4:	68c7a827          	fsw	fa2,1680(a5)
    4fc8:	6917aa23          	sw	a7,1684(a5)

00004fcc <inst_719>:
    4fcc:	69882507          	flw	fa0,1688(a6)
    4fd0:	69c82587          	flw	fa1,1692(a6)
    4fd4:	0020d073          	fsrmi	zero,1
    4fd8:	00b57653          	fadd.s	fa2,fa0,fa1
    4fdc:	001028f3          	frflags	a7
    4fe0:	68c7ac27          	fsw	fa2,1688(a5)
    4fe4:	6917ae23          	sw	a7,1692(a5)

00004fe8 <inst_720>:
    4fe8:	6a082507          	flw	fa0,1696(a6)
    4fec:	6a482587          	flw	fa1,1700(a6)
    4ff0:	00205073          	fsrmi	zero,0
    4ff4:	00b57653          	fadd.s	fa2,fa0,fa1
    4ff8:	001028f3          	frflags	a7
    4ffc:	6ac7a027          	fsw	fa2,1696(a5)
    5000:	6b17a223          	sw	a7,1700(a5)

00005004 <inst_721>:
    5004:	6a882507          	flw	fa0,1704(a6)
    5008:	6ac82587          	flw	fa1,1708(a6)
    500c:	00225073          	fsrmi	zero,4
    5010:	00b57653          	fadd.s	fa2,fa0,fa1
    5014:	001028f3          	frflags	a7
    5018:	6ac7a427          	fsw	fa2,1704(a5)
    501c:	6b17a623          	sw	a7,1708(a5)

00005020 <inst_722>:
    5020:	6b082507          	flw	fa0,1712(a6)
    5024:	6b482587          	flw	fa1,1716(a6)
    5028:	0021d073          	fsrmi	zero,3
    502c:	00b57653          	fadd.s	fa2,fa0,fa1
    5030:	001028f3          	frflags	a7
    5034:	6ac7a827          	fsw	fa2,1712(a5)
    5038:	6b17aa23          	sw	a7,1716(a5)

0000503c <inst_723>:
    503c:	6b882507          	flw	fa0,1720(a6)
    5040:	6bc82587          	flw	fa1,1724(a6)
    5044:	00215073          	fsrmi	zero,2
    5048:	00b57653          	fadd.s	fa2,fa0,fa1
    504c:	001028f3          	frflags	a7
    5050:	6ac7ac27          	fsw	fa2,1720(a5)
    5054:	6b17ae23          	sw	a7,1724(a5)

00005058 <inst_724>:
    5058:	6c082507          	flw	fa0,1728(a6)
    505c:	6c482587          	flw	fa1,1732(a6)
    5060:	0020d073          	fsrmi	zero,1
    5064:	00b57653          	fadd.s	fa2,fa0,fa1
    5068:	001028f3          	frflags	a7
    506c:	6cc7a027          	fsw	fa2,1728(a5)
    5070:	6d17a223          	sw	a7,1732(a5)

00005074 <inst_725>:
    5074:	6c882507          	flw	fa0,1736(a6)
    5078:	6cc82587          	flw	fa1,1740(a6)
    507c:	00205073          	fsrmi	zero,0
    5080:	00b57653          	fadd.s	fa2,fa0,fa1
    5084:	001028f3          	frflags	a7
    5088:	6cc7a427          	fsw	fa2,1736(a5)
    508c:	6d17a623          	sw	a7,1740(a5)

00005090 <inst_726>:
    5090:	6d082507          	flw	fa0,1744(a6)
    5094:	6d482587          	flw	fa1,1748(a6)
    5098:	00225073          	fsrmi	zero,4
    509c:	00b57653          	fadd.s	fa2,fa0,fa1
    50a0:	001028f3          	frflags	a7
    50a4:	6cc7a827          	fsw	fa2,1744(a5)
    50a8:	6d17aa23          	sw	a7,1748(a5)

000050ac <inst_727>:
    50ac:	6d882507          	flw	fa0,1752(a6)
    50b0:	6dc82587          	flw	fa1,1756(a6)
    50b4:	0021d073          	fsrmi	zero,3
    50b8:	00b57653          	fadd.s	fa2,fa0,fa1
    50bc:	001028f3          	frflags	a7
    50c0:	6cc7ac27          	fsw	fa2,1752(a5)
    50c4:	6d17ae23          	sw	a7,1756(a5)

000050c8 <inst_728>:
    50c8:	6e082507          	flw	fa0,1760(a6)
    50cc:	6e482587          	flw	fa1,1764(a6)
    50d0:	00215073          	fsrmi	zero,2
    50d4:	00b57653          	fadd.s	fa2,fa0,fa1
    50d8:	001028f3          	frflags	a7
    50dc:	6ec7a027          	fsw	fa2,1760(a5)
    50e0:	6f17a223          	sw	a7,1764(a5)

000050e4 <inst_729>:
    50e4:	6e882507          	flw	fa0,1768(a6)
    50e8:	6ec82587          	flw	fa1,1772(a6)
    50ec:	0020d073          	fsrmi	zero,1
    50f0:	00b57653          	fadd.s	fa2,fa0,fa1
    50f4:	001028f3          	frflags	a7
    50f8:	6ec7a427          	fsw	fa2,1768(a5)
    50fc:	6f17a623          	sw	a7,1772(a5)

00005100 <inst_730>:
    5100:	6f082507          	flw	fa0,1776(a6)
    5104:	6f482587          	flw	fa1,1780(a6)
    5108:	00205073          	fsrmi	zero,0
    510c:	00b57653          	fadd.s	fa2,fa0,fa1
    5110:	001028f3          	frflags	a7
    5114:	6ec7a827          	fsw	fa2,1776(a5)
    5118:	6f17aa23          	sw	a7,1780(a5)

0000511c <inst_731>:
    511c:	6f882507          	flw	fa0,1784(a6)
    5120:	6fc82587          	flw	fa1,1788(a6)
    5124:	00225073          	fsrmi	zero,4
    5128:	00b57653          	fadd.s	fa2,fa0,fa1
    512c:	001028f3          	frflags	a7
    5130:	6ec7ac27          	fsw	fa2,1784(a5)
    5134:	6f17ae23          	sw	a7,1788(a5)

00005138 <inst_732>:
    5138:	70082507          	flw	fa0,1792(a6)
    513c:	70482587          	flw	fa1,1796(a6)
    5140:	0021d073          	fsrmi	zero,3
    5144:	00b57653          	fadd.s	fa2,fa0,fa1
    5148:	001028f3          	frflags	a7
    514c:	70c7a027          	fsw	fa2,1792(a5)
    5150:	7117a223          	sw	a7,1796(a5)

00005154 <inst_733>:
    5154:	70882507          	flw	fa0,1800(a6)
    5158:	70c82587          	flw	fa1,1804(a6)
    515c:	00215073          	fsrmi	zero,2
    5160:	00b57653          	fadd.s	fa2,fa0,fa1
    5164:	001028f3          	frflags	a7
    5168:	70c7a427          	fsw	fa2,1800(a5)
    516c:	7117a623          	sw	a7,1804(a5)

00005170 <inst_734>:
    5170:	71082507          	flw	fa0,1808(a6)
    5174:	71482587          	flw	fa1,1812(a6)
    5178:	0020d073          	fsrmi	zero,1
    517c:	00b57653          	fadd.s	fa2,fa0,fa1
    5180:	001028f3          	frflags	a7
    5184:	70c7a827          	fsw	fa2,1808(a5)
    5188:	7117aa23          	sw	a7,1812(a5)

0000518c <inst_735>:
    518c:	71882507          	flw	fa0,1816(a6)
    5190:	71c82587          	flw	fa1,1820(a6)
    5194:	00205073          	fsrmi	zero,0
    5198:	00b57653          	fadd.s	fa2,fa0,fa1
    519c:	001028f3          	frflags	a7
    51a0:	70c7ac27          	fsw	fa2,1816(a5)
    51a4:	7117ae23          	sw	a7,1820(a5)

000051a8 <inst_736>:
    51a8:	72082507          	flw	fa0,1824(a6)
    51ac:	72482587          	flw	fa1,1828(a6)
    51b0:	00225073          	fsrmi	zero,4
    51b4:	00b57653          	fadd.s	fa2,fa0,fa1
    51b8:	001028f3          	frflags	a7
    51bc:	72c7a027          	fsw	fa2,1824(a5)
    51c0:	7317a223          	sw	a7,1828(a5)

000051c4 <inst_737>:
    51c4:	72882507          	flw	fa0,1832(a6)
    51c8:	72c82587          	flw	fa1,1836(a6)
    51cc:	0021d073          	fsrmi	zero,3
    51d0:	00b57653          	fadd.s	fa2,fa0,fa1
    51d4:	001028f3          	frflags	a7
    51d8:	72c7a427          	fsw	fa2,1832(a5)
    51dc:	7317a623          	sw	a7,1836(a5)

000051e0 <inst_738>:
    51e0:	73082507          	flw	fa0,1840(a6)
    51e4:	73482587          	flw	fa1,1844(a6)
    51e8:	00215073          	fsrmi	zero,2
    51ec:	00b57653          	fadd.s	fa2,fa0,fa1
    51f0:	001028f3          	frflags	a7
    51f4:	72c7a827          	fsw	fa2,1840(a5)
    51f8:	7317aa23          	sw	a7,1844(a5)

000051fc <inst_739>:
    51fc:	73882507          	flw	fa0,1848(a6)
    5200:	73c82587          	flw	fa1,1852(a6)
    5204:	0020d073          	fsrmi	zero,1
    5208:	00b57653          	fadd.s	fa2,fa0,fa1
    520c:	001028f3          	frflags	a7
    5210:	72c7ac27          	fsw	fa2,1848(a5)
    5214:	7317ae23          	sw	a7,1852(a5)

00005218 <inst_740>:
    5218:	74082507          	flw	fa0,1856(a6)
    521c:	74482587          	flw	fa1,1860(a6)
