
/home/alejandro/Escritorio/test_riscv2.5/riscv-compliance/work/rv32i_m/F/fadd_b10-01.elf:     formato del fichero elf32-littleriscv


Desensamblado de la sección .text.init:

00000000 <rvtest_entry_point>:
   0:	feedc0b7          	lui	ra,0xfeedc
   4:	ead08093          	add	ra,ra,-339 # feedbead <_end+0xfeeda9dd>
   8:	ff76e137          	lui	sp,0xff76e
   c:	f5610113          	add	sp,sp,-170 # ff76df56 <_end+0xff76ca86>
  10:	7fbb71b7          	lui	gp,0x7fbb7
  14:	fab18193          	add	gp,gp,-85 # 7fbb6fab <_end+0x7fbb5adb>
  18:	bfddb237          	lui	tp,0xbfddb
  1c:	7d520213          	add	tp,tp,2005 # bfddb7d5 <_end+0xbfdda305>
  20:	00000297          	auipc	t0,0x0
  24:	0d828293          	add	t0,t0,216 # f8 <rvtest_code_begin>
  28:	00001317          	auipc	t1,0x1
  2c:	fd830313          	add	t1,t1,-40 # 1000 <rvtest_data_begin>
  30:	b7fbb3b7          	lui	t2,0xb7fbb
  34:	6fa38393          	add	t2,t2,1786 # b7fbb6fa <_end+0xb7fba22a>
  38:	5bfde437          	lui	s0,0x5bfde
  3c:	b7d40413          	add	s0,s0,-1155 # 5bfddb7d <_end+0x5bfdc6ad>
  40:	adfef4b7          	lui	s1,0xadfef
  44:	dbe48493          	add	s1,s1,-578 # adfeedbe <_end+0xadfed8ee>
  48:	56ff7537          	lui	a0,0x56ff7
  4c:	6df50513          	add	a0,a0,1759 # 56ff76df <_end+0x56ff620f>
  50:	ab7fc5b7          	lui	a1,0xab7fc
  54:	b6f58593          	add	a1,a1,-1169 # ab7fbb6f <_end+0xab7fa69f>
  58:	d5bfe637          	lui	a2,0xd5bfe
  5c:	db760613          	add	a2,a2,-585 # d5bfddb7 <_end+0xd5bfc8e7>
  60:	eadff6b7          	lui	a3,0xeadff
  64:	edb68693          	add	a3,a3,-293 # eadfeedb <_end+0xeadfda0b>
  68:	f56ff737          	lui	a4,0xf56ff
  6c:	76d70713          	add	a4,a4,1901 # f56ff76d <_end+0xf56fe29d>
  70:	fab807b7          	lui	a5,0xfab80
  74:	bb678793          	add	a5,a5,-1098 # fab7fbb6 <_end+0xfab7e6e6>
  78:	7d5c0837          	lui	a6,0x7d5c0
  7c:	ddb80813          	add	a6,a6,-549 # 7d5bfddb <_end+0x7d5be90b>
  80:	beae08b7          	lui	a7,0xbeae0
  84:	eed88893          	add	a7,a7,-275 # beadfeed <_end+0xbeadea1d>
  88:	df570937          	lui	s2,0xdf570
  8c:	f7690913          	add	s2,s2,-138 # df56ff76 <_end+0xdf56eaa6>
  90:	6fab89b7          	lui	s3,0x6fab8
  94:	fbb98993          	add	s3,s3,-69 # 6fab7fbb <_end+0x6fab6aeb>
  98:	b7d5ca37          	lui	s4,0xb7d5c
  9c:	fdda0a13          	add	s4,s4,-35 # b7d5bfdd <_end+0xb7d5ab0d>
  a0:	dbeaeab7          	lui	s5,0xdbeae
  a4:	feea8a93          	add	s5,s5,-18 # dbeadfee <_end+0xdbeacb1e>
  a8:	6df57b37          	lui	s6,0x6df57
  ac:	ff7b0b13          	add	s6,s6,-9 # 6df56ff7 <_end+0x6df55b27>
  b0:	b6fabbb7          	lui	s7,0xb6fab
  b4:	7fbb8b93          	add	s7,s7,2043 # b6fab7fb <_end+0xb6faa32b>
  b8:	db7d6c37          	lui	s8,0xdb7d6
  bc:	bfdc0c13          	add	s8,s8,-1027 # db7d5bfd <_end+0xdb7d472d>
  c0:	edbebcb7          	lui	s9,0xedbeb
  c4:	dfec8c93          	add	s9,s9,-514 # edbeadfe <_end+0xedbe992e>
  c8:	76df5d37          	lui	s10,0x76df5
  cc:	6ffd0d13          	add	s10,s10,1791 # 76df56ff <_end+0x76df422f>
  d0:	bb6fbdb7          	lui	s11,0xbb6fb
  d4:	b7fd8d93          	add	s11,s11,-1153 # bb6fab7f <_end+0xbb6f96af>
  d8:	ddb7de37          	lui	t3,0xddb7d
  dc:	5bfe0e13          	add	t3,t3,1471 # ddb7d5bf <_end+0xddb7c0ef>
  e0:	eedbfeb7          	lui	t4,0xeedbf
  e4:	adfe8e93          	add	t4,t4,-1313 # eedbeadf <_end+0xeedbd60f>
  e8:	f76dff37          	lui	t5,0xf76df
  ec:	56ff0f13          	add	t5,t5,1391 # f76df56f <_end+0xf76de09f>
  f0:	fbb70fb7          	lui	t6,0xfbb70
  f4:	ab7f8f93          	add	t6,t6,-1353 # fbb6fab7 <_end+0xfbb6e5e7>

000000f8 <rvtest_code_begin>:
  f8:	00002537          	lui	a0,0x2
  fc:	30052073          	csrs	mstatus,a0
 100:	00001817          	auipc	a6,0x1
 104:	f0480813          	add	a6,a6,-252 # 1004 <test_fp>
 108:	00001797          	auipc	a5,0x1
 10c:	16878793          	add	a5,a5,360 # 1270 <data_begin>

00000110 <inst_0>:
 110:	00082007          	flw	ft0,0(a6)
 114:	00482007          	flw	ft0,4(a6)
 118:	00205073          	fsrmi	zero,0
 11c:	00007053          	fadd.s	ft0,ft0,ft0
 120:	001028f3          	frflags	a7
 124:	0007a027          	fsw	ft0,0(a5)
 128:	0117a223          	sw	a7,4(a5)

0000012c <inst_1>:
 12c:	00882e87          	flw	ft9,8(a6)
 130:	00c82907          	flw	fs2,12(a6)
 134:	00205073          	fsrmi	zero,0
 138:	012ef953          	fadd.s	fs2,ft9,fs2
 13c:	001028f3          	frflags	a7
 140:	0127a427          	fsw	fs2,8(a5)
 144:	0117a623          	sw	a7,12(a5)

00000148 <inst_2>:
 148:	01082a07          	flw	fs4,16(a6)
 14c:	01482207          	flw	ft4,20(a6)
 150:	00205073          	fsrmi	zero,0
 154:	004a7a53          	fadd.s	fs4,fs4,ft4
 158:	001028f3          	frflags	a7
 15c:	0147a827          	fsw	fs4,16(a5)
 160:	0117aa23          	sw	a7,20(a5)

00000164 <inst_3>:
 164:	01882d07          	flw	fs10,24(a6)
 168:	01c82687          	flw	fa3,28(a6)
 16c:	00205073          	fsrmi	zero,0
 170:	00dd73d3          	fadd.s	ft7,fs10,fa3
 174:	001028f3          	frflags	a7
 178:	0077ac27          	fsw	ft7,24(a5)
 17c:	0117ae23          	sw	a7,28(a5)

00000180 <inst_4>:
 180:	02082287          	flw	ft5,32(a6)
 184:	02482287          	flw	ft5,36(a6)
 188:	00205073          	fsrmi	zero,0
 18c:	0052f6d3          	fadd.s	fa3,ft5,ft5
 190:	001028f3          	frflags	a7
 194:	02d7a027          	fsw	fa3,32(a5)
 198:	0317a223          	sw	a7,36(a5)

0000019c <inst_5>:
 19c:	02882587          	flw	fa1,40(a6)
 1a0:	02c82987          	flw	fs3,44(a6)
 1a4:	00205073          	fsrmi	zero,0
 1a8:	0135fe53          	fadd.s	ft8,fa1,fs3
 1ac:	001028f3          	frflags	a7
 1b0:	03c7a427          	fsw	ft8,40(a5)
 1b4:	0317a623          	sw	a7,44(a5)

000001b8 <inst_6>:
 1b8:	03082907          	flw	fs2,48(a6)
 1bc:	03482e87          	flw	ft9,52(a6)
 1c0:	00205073          	fsrmi	zero,0
 1c4:	01d97dd3          	fadd.s	fs11,fs2,ft9
 1c8:	001028f3          	frflags	a7
 1cc:	03b7a827          	fsw	fs11,48(a5)
 1d0:	0317aa23          	sw	a7,52(a5)

000001d4 <inst_7>:
 1d4:	03882b07          	flw	fs6,56(a6)
 1d8:	03c82107          	flw	ft2,60(a6)
 1dc:	00205073          	fsrmi	zero,0
 1e0:	002b74d3          	fadd.s	fs1,fs6,ft2
 1e4:	001028f3          	frflags	a7
 1e8:	0297ac27          	fsw	fs1,56(a5)
 1ec:	0317ae23          	sw	a7,60(a5)

000001f0 <inst_8>:
 1f0:	04082307          	flw	ft6,64(a6)
 1f4:	04482b07          	flw	fs6,68(a6)
 1f8:	00205073          	fsrmi	zero,0
 1fc:	01637fd3          	fadd.s	ft11,ft6,fs6
 200:	001028f3          	frflags	a7
 204:	05f7a027          	fsw	ft11,64(a5)
 208:	0517a223          	sw	a7,68(a5)

0000020c <inst_9>:
 20c:	04882607          	flw	fa2,72(a6)
 210:	04c82a87          	flw	fs5,76(a6)
 214:	00205073          	fsrmi	zero,0
 218:	01567cd3          	fadd.s	fs9,fa2,fs5
 21c:	001028f3          	frflags	a7
 220:	0597a427          	fsw	fs9,72(a5)
 224:	0517a623          	sw	a7,76(a5)

00000228 <inst_10>:
 228:	05082807          	flw	fa6,80(a6)
 22c:	05482b87          	flw	fs7,84(a6)
 230:	00205073          	fsrmi	zero,0
 234:	01787f53          	fadd.s	ft10,fa6,fs7
 238:	001028f3          	frflags	a7
 23c:	05e7a827          	fsw	ft10,80(a5)
 240:	0517aa23          	sw	a7,84(a5)

00000244 <inst_11>:
 244:	05882687          	flw	fa3,88(a6)
 248:	05c82d87          	flw	fs11,92(a6)
 24c:	00205073          	fsrmi	zero,0
 250:	01b6fb53          	fadd.s	fs6,fa3,fs11
 254:	001028f3          	frflags	a7
 258:	0567ac27          	fsw	fs6,88(a5)
 25c:	0517ae23          	sw	a7,92(a5)

00000260 <inst_12>:
 260:	06082a87          	flw	fs5,96(a6)
 264:	06482307          	flw	ft6,100(a6)
 268:	00205073          	fsrmi	zero,0
 26c:	006af253          	fadd.s	ft4,fs5,ft6
 270:	001028f3          	frflags	a7
 274:	0647a027          	fsw	ft4,96(a5)
 278:	0717a223          	sw	a7,100(a5)

0000027c <inst_13>:
 27c:	06882787          	flw	fa5,104(a6)
 280:	06c82c07          	flw	fs8,108(a6)
 284:	00205073          	fsrmi	zero,0
 288:	0187fbd3          	fadd.s	fs7,fa5,fs8
 28c:	001028f3          	frflags	a7
 290:	0777a427          	fsw	fs7,104(a5)
 294:	0717a623          	sw	a7,108(a5)

00000298 <inst_14>:
 298:	07082487          	flw	fs1,112(a6)
 29c:	07482e07          	flw	ft8,116(a6)
 2a0:	00205073          	fsrmi	zero,0
 2a4:	01c4fad3          	fadd.s	fs5,fs1,ft8
 2a8:	001028f3          	frflags	a7
 2ac:	0757a827          	fsw	fs5,112(a5)
 2b0:	0717aa23          	sw	a7,116(a5)

000002b4 <inst_15>:
 2b4:	07882107          	flw	ft2,120(a6)
 2b8:	07c82887          	flw	fa7,124(a6)
 2bc:	00205073          	fsrmi	zero,0
 2c0:	01117c53          	fadd.s	fs8,ft2,fa7
 2c4:	001028f3          	frflags	a7
 2c8:	0787ac27          	fsw	fs8,120(a5)
 2cc:	0717ae23          	sw	a7,124(a5)

000002d0 <inst_16>:
 2d0:	08082c07          	flw	fs8,128(a6)
 2d4:	08482187          	flw	ft3,132(a6)
 2d8:	00205073          	fsrmi	zero,0
 2dc:	003c7ed3          	fadd.s	ft9,fs8,ft3
 2e0:	001028f3          	frflags	a7
 2e4:	09d7a027          	fsw	ft9,128(a5)
 2e8:	0917a223          	sw	a7,132(a5)

000002ec <inst_17>:
 2ec:	08882507          	flw	fa0,136(a6)
 2f0:	08c82c87          	flw	fs9,140(a6)
 2f4:	00205073          	fsrmi	zero,0
 2f8:	019572d3          	fadd.s	ft5,fa0,fs9
 2fc:	001028f3          	frflags	a7
 300:	0857a427          	fsw	ft5,136(a5)
 304:	0917a623          	sw	a7,140(a5)

00000308 <inst_18>:
 308:	09082d87          	flw	fs11,144(a6)
 30c:	09482787          	flw	fa5,148(a6)
 310:	00205073          	fsrmi	zero,0
 314:	00fdf553          	fadd.s	fa0,fs11,fa5
 318:	001028f3          	frflags	a7
 31c:	08a7a827          	fsw	fa0,144(a5)
 320:	0917aa23          	sw	a7,148(a5)

00000324 <inst_19>:
 324:	09882987          	flw	fs3,152(a6)
 328:	09c82707          	flw	fa4,156(a6)
 32c:	00205073          	fsrmi	zero,0
 330:	00e9f653          	fadd.s	fa2,fs3,fa4
 334:	001028f3          	frflags	a7
 338:	08c7ac27          	fsw	fa2,152(a5)
 33c:	0917ae23          	sw	a7,156(a5)

00000340 <inst_20>:
 340:	0a082087          	flw	ft1,160(a6)
 344:	0a482487          	flw	fs1,164(a6)
 348:	00205073          	fsrmi	zero,0
 34c:	0090f5d3          	fadd.s	fa1,ft1,fs1
 350:	001028f3          	frflags	a7
 354:	0ab7a027          	fsw	fa1,160(a5)
 358:	0b17a223          	sw	a7,164(a5)

0000035c <inst_21>:
 35c:	0a882707          	flw	fa4,168(a6)
 360:	0ac82087          	flw	ft1,172(a6)
 364:	00205073          	fsrmi	zero,0
 368:	00177453          	fadd.s	fs0,fa4,ft1
 36c:	001028f3          	frflags	a7
 370:	0a87a427          	fsw	fs0,168(a5)
 374:	0b17a623          	sw	a7,172(a5)

00000378 <inst_22>:
 378:	0b082187          	flw	ft3,176(a6)
 37c:	0b482407          	flw	fs0,180(a6)
 380:	00205073          	fsrmi	zero,0
 384:	0081f8d3          	fadd.s	fa7,ft3,fs0
 388:	001028f3          	frflags	a7
 38c:	0b17a827          	fsw	fa7,176(a5)
 390:	0b17aa23          	sw	a7,180(a5)

00000394 <inst_23>:
 394:	0b882887          	flw	fa7,184(a6)
 398:	0bc82387          	flw	ft7,188(a6)
 39c:	00205073          	fsrmi	zero,0
 3a0:	0078f0d3          	fadd.s	ft1,fa7,ft7
 3a4:	001028f3          	frflags	a7
 3a8:	0a17ac27          	fsw	ft1,184(a5)
 3ac:	0b17ae23          	sw	a7,188(a5)

000003b0 <inst_24>:
 3b0:	0c082e07          	flw	ft8,192(a6)
 3b4:	0c482587          	flw	fa1,196(a6)
 3b8:	00205073          	fsrmi	zero,0
 3bc:	00be7353          	fadd.s	ft6,ft8,fa1
 3c0:	001028f3          	frflags	a7
 3c4:	0c67a027          	fsw	ft6,192(a5)
 3c8:	0d17a223          	sw	a7,196(a5)

000003cc <inst_25>:
 3cc:	0c882c87          	flw	fs9,200(a6)
 3d0:	0cc82f87          	flw	ft11,204(a6)
 3d4:	00205073          	fsrmi	zero,0
 3d8:	01fcfd53          	fadd.s	fs10,fs9,ft11
 3dc:	001028f3          	frflags	a7
 3e0:	0da7a427          	fsw	fs10,200(a5)
 3e4:	0d17a623          	sw	a7,204(a5)

000003e8 <inst_26>:
 3e8:	0d082f87          	flw	ft11,208(a6)
 3ec:	0d482d07          	flw	fs10,212(a6)
 3f0:	00205073          	fsrmi	zero,0
 3f4:	01aff853          	fadd.s	fa6,ft11,fs10
 3f8:	001028f3          	frflags	a7
 3fc:	0d07a827          	fsw	fa6,208(a5)
 400:	0d17aa23          	sw	a7,212(a5)

00000404 <inst_27>:
 404:	0d882407          	flw	fs0,216(a6)
 408:	0dc82f07          	flw	ft10,220(a6)
 40c:	00205073          	fsrmi	zero,0
 410:	01e47753          	fadd.s	fa4,fs0,ft10
 414:	001028f3          	frflags	a7
 418:	0ce7ac27          	fsw	fa4,216(a5)
 41c:	0d17ae23          	sw	a7,220(a5)

00000420 <inst_28>:
 420:	0e082387          	flw	ft7,224(a6)
 424:	0e482607          	flw	fa2,228(a6)
 428:	00205073          	fsrmi	zero,0
 42c:	00c3f153          	fadd.s	ft2,ft7,fa2
 430:	001028f3          	frflags	a7
 434:	0e27a027          	fsw	ft2,224(a5)
 438:	0f17a223          	sw	a7,228(a5)

0000043c <inst_29>:
 43c:	0e882207          	flw	ft4,232(a6)
 440:	0ec82807          	flw	fa6,236(a6)
 444:	00205073          	fsrmi	zero,0
 448:	010279d3          	fadd.s	fs3,ft4,fa6
 44c:	001028f3          	frflags	a7
 450:	0f37a427          	fsw	fs3,232(a5)
 454:	0f17a623          	sw	a7,236(a5)

00000458 <inst_30>:
 458:	0f082b87          	flw	fs7,240(a6)
 45c:	0f482a07          	flw	fs4,244(a6)
 460:	00205073          	fsrmi	zero,0
 464:	014bf1d3          	fadd.s	ft3,fs7,fs4
 468:	001028f3          	frflags	a7
 46c:	0e37a827          	fsw	ft3,240(a5)
 470:	0f17aa23          	sw	a7,244(a5)

00000474 <inst_31>:
 474:	0f882f07          	flw	ft10,248(a6)
 478:	0fc82507          	flw	fa0,252(a6)
 47c:	00205073          	fsrmi	zero,0
 480:	00af77d3          	fadd.s	fa5,ft10,fa0
 484:	001028f3          	frflags	a7
 488:	0ef7ac27          	fsw	fa5,248(a5)
 48c:	0f17ae23          	sw	a7,252(a5)

00000490 <inst_32>:
 490:	10082507          	flw	fa0,256(a6)
 494:	10482587          	flw	fa1,260(a6)
 498:	00205073          	fsrmi	zero,0
 49c:	00b57653          	fadd.s	fa2,fa0,fa1
 4a0:	001028f3          	frflags	a7
 4a4:	10c7a027          	fsw	fa2,256(a5)
 4a8:	1117a223          	sw	a7,260(a5)

000004ac <inst_33>:
 4ac:	10882507          	flw	fa0,264(a6)
 4b0:	10c82587          	flw	fa1,268(a6)
 4b4:	00205073          	fsrmi	zero,0
 4b8:	00b57653          	fadd.s	fa2,fa0,fa1
 4bc:	001028f3          	frflags	a7
 4c0:	10c7a427          	fsw	fa2,264(a5)
 4c4:	1117a623          	sw	a7,268(a5)

000004c8 <inst_34>:
 4c8:	11082507          	flw	fa0,272(a6)
 4cc:	11482587          	flw	fa1,276(a6)
 4d0:	00205073          	fsrmi	zero,0
 4d4:	00b57653          	fadd.s	fa2,fa0,fa1
 4d8:	001028f3          	frflags	a7
 4dc:	10c7a827          	fsw	fa2,272(a5)
 4e0:	1117aa23          	sw	a7,276(a5)

000004e4 <inst_35>:
 4e4:	11882507          	flw	fa0,280(a6)
 4e8:	11c82587          	flw	fa1,284(a6)
 4ec:	00205073          	fsrmi	zero,0
 4f0:	00b57653          	fadd.s	fa2,fa0,fa1
 4f4:	001028f3          	frflags	a7
 4f8:	10c7ac27          	fsw	fa2,280(a5)
 4fc:	1117ae23          	sw	a7,284(a5)

00000500 <inst_36>:
 500:	12082507          	flw	fa0,288(a6)
 504:	12482587          	flw	fa1,292(a6)
 508:	00205073          	fsrmi	zero,0
 50c:	00b57653          	fadd.s	fa2,fa0,fa1
 510:	001028f3          	frflags	a7
 514:	12c7a027          	fsw	fa2,288(a5)
 518:	1317a223          	sw	a7,292(a5)

0000051c <inst_37>:
 51c:	12882507          	flw	fa0,296(a6)
 520:	12c82587          	flw	fa1,300(a6)
 524:	00205073          	fsrmi	zero,0
 528:	00b57653          	fadd.s	fa2,fa0,fa1
 52c:	001028f3          	frflags	a7
 530:	12c7a427          	fsw	fa2,296(a5)
 534:	1317a623          	sw	a7,300(a5)

00000538 <inst_38>:
 538:	13082507          	flw	fa0,304(a6)
 53c:	13482587          	flw	fa1,308(a6)
 540:	00205073          	fsrmi	zero,0
 544:	00b57653          	fadd.s	fa2,fa0,fa1
 548:	001028f3          	frflags	a7
 54c:	12c7a827          	fsw	fa2,304(a5)
 550:	1317aa23          	sw	a7,308(a5)

00000554 <inst_39>:
 554:	13882507          	flw	fa0,312(a6)
 558:	13c82587          	flw	fa1,316(a6)
 55c:	00205073          	fsrmi	zero,0
 560:	00b57653          	fadd.s	fa2,fa0,fa1
 564:	001028f3          	frflags	a7
 568:	12c7ac27          	fsw	fa2,312(a5)
 56c:	1317ae23          	sw	a7,316(a5)

00000570 <inst_40>:
 570:	14082507          	flw	fa0,320(a6)
 574:	14482587          	flw	fa1,324(a6)
 578:	00205073          	fsrmi	zero,0
 57c:	00b57653          	fadd.s	fa2,fa0,fa1
 580:	001028f3          	frflags	a7
 584:	14c7a027          	fsw	fa2,320(a5)
 588:	1517a223          	sw	a7,324(a5)

0000058c <inst_41>:
 58c:	14882507          	flw	fa0,328(a6)
 590:	14c82587          	flw	fa1,332(a6)
 594:	00205073          	fsrmi	zero,0
 598:	00b57653          	fadd.s	fa2,fa0,fa1
 59c:	001028f3          	frflags	a7
 5a0:	14c7a427          	fsw	fa2,328(a5)
 5a4:	1517a623          	sw	a7,332(a5)

000005a8 <inst_42>:
 5a8:	15082507          	flw	fa0,336(a6)
 5ac:	15482587          	flw	fa1,340(a6)
 5b0:	00205073          	fsrmi	zero,0
 5b4:	00b57653          	fadd.s	fa2,fa0,fa1
 5b8:	001028f3          	frflags	a7
 5bc:	14c7a827          	fsw	fa2,336(a5)
 5c0:	1517aa23          	sw	a7,340(a5)

000005c4 <inst_43>:
 5c4:	15882507          	flw	fa0,344(a6)
 5c8:	15c82587          	flw	fa1,348(a6)
 5cc:	00205073          	fsrmi	zero,0
 5d0:	00b57653          	fadd.s	fa2,fa0,fa1
 5d4:	001028f3          	frflags	a7
 5d8:	14c7ac27          	fsw	fa2,344(a5)
 5dc:	1517ae23          	sw	a7,348(a5)

000005e0 <inst_44>:
 5e0:	16082507          	flw	fa0,352(a6)
 5e4:	16482587          	flw	fa1,356(a6)
 5e8:	00205073          	fsrmi	zero,0
 5ec:	00b57653          	fadd.s	fa2,fa0,fa1
 5f0:	001028f3          	frflags	a7
 5f4:	16c7a027          	fsw	fa2,352(a5)
 5f8:	1717a223          	sw	a7,356(a5)

000005fc <inst_45>:
 5fc:	16882507          	flw	fa0,360(a6)
 600:	16c82587          	flw	fa1,364(a6)
 604:	00205073          	fsrmi	zero,0
 608:	00b57653          	fadd.s	fa2,fa0,fa1
 60c:	001028f3          	frflags	a7
 610:	16c7a427          	fsw	fa2,360(a5)
 614:	1717a623          	sw	a7,364(a5)

00000618 <inst_46>:
 618:	17082507          	flw	fa0,368(a6)
 61c:	17482587          	flw	fa1,372(a6)
 620:	00205073          	fsrmi	zero,0
 624:	00b57653          	fadd.s	fa2,fa0,fa1
 628:	001028f3          	frflags	a7
 62c:	16c7a827          	fsw	fa2,368(a5)
 630:	1717aa23          	sw	a7,372(a5)

00000634 <inst_47>:
 634:	17882507          	flw	fa0,376(a6)
 638:	17c82587          	flw	fa1,380(a6)
 63c:	00205073          	fsrmi	zero,0
 640:	00b57653          	fadd.s	fa2,fa0,fa1
 644:	001028f3          	frflags	a7
 648:	16c7ac27          	fsw	fa2,376(a5)
 64c:	1717ae23          	sw	a7,380(a5)

00000650 <inst_48>:
 650:	18082507          	flw	fa0,384(a6)
 654:	18482587          	flw	fa1,388(a6)
 658:	00205073          	fsrmi	zero,0
 65c:	00b57653          	fadd.s	fa2,fa0,fa1
 660:	001028f3          	frflags	a7
 664:	18c7a027          	fsw	fa2,384(a5)
 668:	1917a223          	sw	a7,388(a5)

0000066c <inst_49>:
 66c:	18882507          	flw	fa0,392(a6)
 670:	18c82587          	flw	fa1,396(a6)
 674:	00205073          	fsrmi	zero,0
 678:	00b57653          	fadd.s	fa2,fa0,fa1
 67c:	001028f3          	frflags	a7
 680:	18c7a427          	fsw	fa2,392(a5)
 684:	1917a623          	sw	a7,396(a5)

00000688 <inst_50>:
 688:	19082507          	flw	fa0,400(a6)
 68c:	19482587          	flw	fa1,404(a6)
 690:	00205073          	fsrmi	zero,0
 694:	00b57653          	fadd.s	fa2,fa0,fa1
 698:	001028f3          	frflags	a7
 69c:	18c7a827          	fsw	fa2,400(a5)
 6a0:	1917aa23          	sw	a7,404(a5)

000006a4 <inst_51>:
 6a4:	19882507          	flw	fa0,408(a6)
 6a8:	19c82587          	flw	fa1,412(a6)
 6ac:	00205073          	fsrmi	zero,0
 6b0:	00b57653          	fadd.s	fa2,fa0,fa1
 6b4:	001028f3          	frflags	a7
 6b8:	18c7ac27          	fsw	fa2,408(a5)
 6bc:	1917ae23          	sw	a7,412(a5)

000006c0 <inst_52>:
 6c0:	1a082507          	flw	fa0,416(a6)
 6c4:	1a482587          	flw	fa1,420(a6)
 6c8:	00205073          	fsrmi	zero,0
 6cc:	00b57653          	fadd.s	fa2,fa0,fa1
 6d0:	001028f3          	frflags	a7
 6d4:	1ac7a027          	fsw	fa2,416(a5)
 6d8:	1b17a223          	sw	a7,420(a5)

000006dc <inst_53>:
 6dc:	1a882507          	flw	fa0,424(a6)
 6e0:	1ac82587          	flw	fa1,428(a6)
 6e4:	00205073          	fsrmi	zero,0
 6e8:	00b57653          	fadd.s	fa2,fa0,fa1
 6ec:	001028f3          	frflags	a7
 6f0:	1ac7a427          	fsw	fa2,424(a5)
 6f4:	1b17a623          	sw	a7,428(a5)

000006f8 <inst_54>:
 6f8:	1b082507          	flw	fa0,432(a6)
 6fc:	1b482587          	flw	fa1,436(a6)
 700:	00205073          	fsrmi	zero,0
 704:	00b57653          	fadd.s	fa2,fa0,fa1
 708:	001028f3          	frflags	a7
 70c:	1ac7a827          	fsw	fa2,432(a5)
 710:	1b17aa23          	sw	a7,436(a5)

00000714 <inst_55>:
 714:	1b882507          	flw	fa0,440(a6)
 718:	1bc82587          	flw	fa1,444(a6)
 71c:	00205073          	fsrmi	zero,0
 720:	00b57653          	fadd.s	fa2,fa0,fa1
 724:	001028f3          	frflags	a7
 728:	1ac7ac27          	fsw	fa2,440(a5)
 72c:	1b17ae23          	sw	a7,444(a5)

00000730 <inst_56>:
 730:	1c082507          	flw	fa0,448(a6)
 734:	1c482587          	flw	fa1,452(a6)
 738:	00205073          	fsrmi	zero,0
 73c:	00b57653          	fadd.s	fa2,fa0,fa1
 740:	001028f3          	frflags	a7
 744:	1cc7a027          	fsw	fa2,448(a5)
 748:	1d17a223          	sw	a7,452(a5)

0000074c <inst_57>:
 74c:	1c882507          	flw	fa0,456(a6)
 750:	1cc82587          	flw	fa1,460(a6)
 754:	00205073          	fsrmi	zero,0
 758:	00b57653          	fadd.s	fa2,fa0,fa1
 75c:	001028f3          	frflags	a7
 760:	1cc7a427          	fsw	fa2,456(a5)
 764:	1d17a623          	sw	a7,460(a5)

00000768 <inst_58>:
 768:	1d082507          	flw	fa0,464(a6)
 76c:	1d482587          	flw	fa1,468(a6)
 770:	00205073          	fsrmi	zero,0
 774:	00b57653          	fadd.s	fa2,fa0,fa1
 778:	001028f3          	frflags	a7
 77c:	1cc7a827          	fsw	fa2,464(a5)
 780:	1d17aa23          	sw	a7,468(a5)

00000784 <inst_59>:
 784:	1d882507          	flw	fa0,472(a6)
 788:	1dc82587          	flw	fa1,476(a6)
 78c:	00205073          	fsrmi	zero,0
 790:	00b57653          	fadd.s	fa2,fa0,fa1
 794:	001028f3          	frflags	a7
 798:	1cc7ac27          	fsw	fa2,472(a5)
 79c:	1d17ae23          	sw	a7,476(a5)

000007a0 <inst_60>:
 7a0:	1e082507          	flw	fa0,480(a6)
 7a4:	1e482587          	flw	fa1,484(a6)
 7a8:	00205073          	fsrmi	zero,0
 7ac:	00b57653          	fadd.s	fa2,fa0,fa1
 7b0:	001028f3          	frflags	a7
 7b4:	1ec7a027          	fsw	fa2,480(a5)
 7b8:	1f17a223          	sw	a7,484(a5)

000007bc <inst_61>:
 7bc:	1e882507          	flw	fa0,488(a6)
 7c0:	1ec82587          	flw	fa1,492(a6)
 7c4:	00205073          	fsrmi	zero,0
 7c8:	00b57653          	fadd.s	fa2,fa0,fa1
 7cc:	001028f3          	frflags	a7
 7d0:	1ec7a427          	fsw	fa2,488(a5)
 7d4:	1f17a623          	sw	a7,492(a5)

000007d8 <inst_62>:
 7d8:	1f082507          	flw	fa0,496(a6)
 7dc:	1f482587          	flw	fa1,500(a6)
 7e0:	00205073          	fsrmi	zero,0
 7e4:	00b57653          	fadd.s	fa2,fa0,fa1
 7e8:	001028f3          	frflags	a7
 7ec:	1ec7a827          	fsw	fa2,496(a5)
 7f0:	1f17aa23          	sw	a7,500(a5)

000007f4 <inst_63>:
 7f4:	1f882507          	flw	fa0,504(a6)
 7f8:	1fc82587          	flw	fa1,508(a6)
 7fc:	00205073          	fsrmi	zero,0
 800:	00b57653          	fadd.s	fa2,fa0,fa1
 804:	001028f3          	frflags	a7
 808:	1ec7ac27          	fsw	fa2,504(a5)
 80c:	1f17ae23          	sw	a7,508(a5)

00000810 <inst_64>:
 810:	20082507          	flw	fa0,512(a6)
 814:	20482587          	flw	fa1,516(a6)
 818:	00205073          	fsrmi	zero,0
 81c:	00b57653          	fadd.s	fa2,fa0,fa1
 820:	001028f3          	frflags	a7
 824:	20c7a027          	fsw	fa2,512(a5)
 828:	2117a223          	sw	a7,516(a5)

0000082c <inst_65>:
 82c:	20882507          	flw	fa0,520(a6)
 830:	20c82587          	flw	fa1,524(a6)
 834:	00205073          	fsrmi	zero,0
 838:	00b57653          	fadd.s	fa2,fa0,fa1
 83c:	001028f3          	frflags	a7
 840:	20c7a427          	fsw	fa2,520(a5)
 844:	2117a623          	sw	a7,524(a5)

00000848 <inst_66>:
 848:	21082507          	flw	fa0,528(a6)
 84c:	21482587          	flw	fa1,532(a6)
 850:	00205073          	fsrmi	zero,0
 854:	00b57653          	fadd.s	fa2,fa0,fa1
 858:	001028f3          	frflags	a7
 85c:	20c7a827          	fsw	fa2,528(a5)
 860:	2117aa23          	sw	a7,532(a5)

00000864 <inst_67>:
 864:	21882507          	flw	fa0,536(a6)
 868:	21c82587          	flw	fa1,540(a6)
 86c:	00205073          	fsrmi	zero,0
 870:	00b57653          	fadd.s	fa2,fa0,fa1
 874:	001028f3          	frflags	a7
 878:	20c7ac27          	fsw	fa2,536(a5)
 87c:	2117ae23          	sw	a7,540(a5)

00000880 <inst_68>:
 880:	22082507          	flw	fa0,544(a6)
 884:	22482587          	flw	fa1,548(a6)
 888:	00205073          	fsrmi	zero,0
 88c:	00b57653          	fadd.s	fa2,fa0,fa1
 890:	001028f3          	frflags	a7
 894:	22c7a027          	fsw	fa2,544(a5)
 898:	2317a223          	sw	a7,548(a5)

0000089c <inst_69>:
 89c:	22882507          	flw	fa0,552(a6)
 8a0:	22c82587          	flw	fa1,556(a6)
 8a4:	00205073          	fsrmi	zero,0
 8a8:	00b57653          	fadd.s	fa2,fa0,fa1
 8ac:	001028f3          	frflags	a7
 8b0:	22c7a427          	fsw	fa2,552(a5)
 8b4:	2317a623          	sw	a7,556(a5)

000008b8 <inst_70>:
 8b8:	23082507          	flw	fa0,560(a6)
 8bc:	23482587          	flw	fa1,564(a6)
 8c0:	00205073          	fsrmi	zero,0
 8c4:	00b57653          	fadd.s	fa2,fa0,fa1
 8c8:	001028f3          	frflags	a7
 8cc:	22c7a827          	fsw	fa2,560(a5)
 8d0:	2317aa23          	sw	a7,564(a5)

000008d4 <inst_71>:
 8d4:	23882507          	flw	fa0,568(a6)
 8d8:	23c82587          	flw	fa1,572(a6)
 8dc:	00205073          	fsrmi	zero,0
 8e0:	00b57653          	fadd.s	fa2,fa0,fa1
 8e4:	001028f3          	frflags	a7
 8e8:	22c7ac27          	fsw	fa2,568(a5)
 8ec:	2317ae23          	sw	a7,572(a5)

000008f0 <inst_72>:
 8f0:	24082507          	flw	fa0,576(a6)
 8f4:	24482587          	flw	fa1,580(a6)
 8f8:	00205073          	fsrmi	zero,0
 8fc:	00b57653          	fadd.s	fa2,fa0,fa1
 900:	001028f3          	frflags	a7
 904:	24c7a027          	fsw	fa2,576(a5)
 908:	2517a223          	sw	a7,580(a5)

0000090c <inst_73>:
 90c:	24882507          	flw	fa0,584(a6)
 910:	24c82587          	flw	fa1,588(a6)
 914:	00205073          	fsrmi	zero,0
 918:	00b57653          	fadd.s	fa2,fa0,fa1
 91c:	001028f3          	frflags	a7
 920:	24c7a427          	fsw	fa2,584(a5)
 924:	2517a623          	sw	a7,588(a5)

00000928 <inst_74>:
 928:	25082507          	flw	fa0,592(a6)
 92c:	25482587          	flw	fa1,596(a6)
 930:	00205073          	fsrmi	zero,0
 934:	00b57653          	fadd.s	fa2,fa0,fa1
 938:	001028f3          	frflags	a7
 93c:	24c7a827          	fsw	fa2,592(a5)
 940:	2517aa23          	sw	a7,596(a5)

00000944 <inst_75>:
 944:	25882507          	flw	fa0,600(a6)
 948:	25c82587          	flw	fa1,604(a6)
 94c:	00205073          	fsrmi	zero,0
 950:	00b57653          	fadd.s	fa2,fa0,fa1
 954:	001028f3          	frflags	a7
 958:	24c7ac27          	fsw	fa2,600(a5)
 95c:	2517ae23          	sw	a7,604(a5)

00000960 <rvtest_code_end>:
 960:	00001517          	auipc	a0,0x1
 964:	91050513          	add	a0,a0,-1776 # 1270 <data_begin>
 968:	00001597          	auipc	a1,0x1
 96c:	b6858593          	add	a1,a1,-1176 # 14d0 <_end>
 970:	80001637          	lui	a2,0x80001
 974:	00860613          	add	a2,a2,8 # 80001008 <_end+0x7ffffb38>

00000978 <compliance_halt_loop>:
 978:	06b50063          	beq	a0,a1,9d8 <compliance_halt_break>
 97c:	00450693          	add	a3,a0,4

00000980 <compliance_halt_loop2>:
 980:	fff68693          	add	a3,a3,-1
 984:	00068703          	lb	a4,0(a3)
 988:	40475793          	sra	a5,a4,0x4
 98c:	00f7f793          	and	a5,a5,15
 990:	00a00813          	li	a6,10
 994:	0107c463          	blt	a5,a6,99c <notLetter>
 998:	02778793          	add	a5,a5,39

0000099c <notLetter>:
 99c:	03078793          	add	a5,a5,48
 9a0:	00f60023          	sb	a5,0(a2)
 9a4:	40075793          	sra	a5,a4,0x0
 9a8:	00f7f793          	and	a5,a5,15
 9ac:	00a00813          	li	a6,10
 9b0:	0107c463          	blt	a5,a6,9b8 <notLetter2>
 9b4:	02778793          	add	a5,a5,39

000009b8 <notLetter2>:
 9b8:	03078793          	add	a5,a5,48
 9bc:	00f60023          	sb	a5,0(a2)
 9c0:	fcd510e3          	bne	a0,a3,980 <compliance_halt_loop2>
 9c4:	00450513          	add	a0,a0,4
 9c8:	00a00713          	li	a4,10
 9cc:	00e60023          	sb	a4,0(a2)
 9d0:	fa9ff06f          	j	978 <compliance_halt_loop>
 9d4:	0040006f          	j	9d8 <compliance_halt_break>

000009d8 <compliance_halt_break>:
 9d8:	80001537          	lui	a0,0x80001
 9dc:	00950513          	add	a0,a0,9 # 80001009 <_end+0x7ffffb39>
 9e0:	00d50023          	sb	a3,0(a0)
	...

Desensamblado de la sección .data:

00001000 <rvtest_data_begin>:
    1000:	cafe                	.2byte	0xcafe
    1002:	babe                	.2byte	0xbabe

00001004 <test_fp>:
    1004:	0524                	.2byte	0x524
    1006:	7a26                	.2byte	0x7a26
    1008:	0524                	.2byte	0x524
    100a:	7a26                	.2byte	0x7a26
    100c:	0524                	.2byte	0x524
    100e:	7a26                	.2byte	0x7a26
    1010:	ffff                	.2byte	0xffff
    1012:	7f7f                	.2byte	0x7f7f
    1014:	0524                	.2byte	0x524
    1016:	7a26                	.2byte	0x7a26
    1018:	7a150517          	auipc	a0,0x7a150
    101c:	0524                	.2byte	0x524
    101e:	7a26                	.2byte	0x7a26
    1020:	6e8c                	.2byte	0x6e8c
    1022:	786e                	.2byte	0x786e
    1024:	0524                	.2byte	0x524
    1026:	7a26                	.2byte	0x7a26
    1028:	0524                	.2byte	0x524
    102a:	7a26                	.2byte	0x7a26
    102c:	0524                	.2byte	0x524
    102e:	7a26                	.2byte	0x7a26
    1030:	751898ab          	.4byte	0x751898ab
    1034:	0524                	.2byte	0x524
    1036:	7a26                	.2byte	0x7a26
    1038:	2779                	.2byte	0x2779
    103a:	7374                	.2byte	0x7374
    103c:	0524                	.2byte	0x524
    103e:	7a26                	.2byte	0x7a26
    1040:	71c352c7          	fmsub.s	ft5,ft6,ft8,fa4,unknown
    1044:	0524                	.2byte	0x524
    1046:	7a26                	.2byte	0x7a26
    1048:	4239                	.2byte	0x4239
    104a:	701c                	.2byte	0x701c
    104c:	0524                	.2byte	0x524
    104e:	7a26                	.2byte	0x7a26
    1050:	038e                	.2byte	0x38e
    1052:	6e7a                	.2byte	0x6e7a
    1054:	0524                	.2byte	0x524
    1056:	7a26                	.2byte	0x7a26
    1058:	02d8                	.2byte	0x2d8
    105a:	6cc8                	.2byte	0x6cc8
    105c:	0524                	.2byte	0x524
    105e:	7a26                	.2byte	0x7a26
    1060:	0246                	.2byte	0x246
    1062:	6b20                	.2byte	0x6b20
    1064:	0524                	.2byte	0x524
    1066:	7a26                	.2byte	0x7a26
    1068:	01d2                	.2byte	0x1d2
    106a:	6980                	.2byte	0x6980
    106c:	0524                	.2byte	0x524
    106e:	7a26                	.2byte	0x7a26
    1070:	cfb6                	.2byte	0xcfb6
    1072:	67cc                	.2byte	0x67cc
    1074:	0524                	.2byte	0x524
    1076:	7a26                	.2byte	0x7a26
    1078:	d95e                	.2byte	0xd95e
    107a:	05246623          	.4byte	0x5246623
    107e:	7a26                	.2byte	0x7a26
    1080:	6483144b          	.4byte	0x6483144b
    1084:	0524                	.2byte	0x524
    1086:	7a26                	.2byte	0x7a26
    1088:	62d1ba13          	sltiu	s4,gp,1581
    108c:	0524                	.2byte	0x524
    108e:	7a26                	.2byte	0x7a26
    1090:	6127c80f          	.4byte	0x6127c80f
    1094:	0524                	.2byte	0x524
    1096:	7a26                	.2byte	0x7a26
    1098:	39a5                	.2byte	0x39a5
    109a:	5f86                	.2byte	0x5f86
    109c:	0524                	.2byte	0x524
    109e:	7a26                	.2byte	0x7a26
    10a0:	c2a2                	.2byte	0xc2a2
    10a2:	5dd6                	.2byte	0x5dd6
    10a4:	0524                	.2byte	0x524
    10a6:	7a26                	.2byte	0x7a26
    10a8:	cee8                	.2byte	0xcee8
    10aa:	05245c2b          	.4byte	0x5245c2b
    10ae:	7a26                	.2byte	0x7a26
    10b0:	5a897253          	.4byte	0x5a897253
    10b4:	0524                	.2byte	0x524
    10b6:	7a26                	.2byte	0x7a26
    10b8:	ea1f 58db 0524      	.byte	0x1f, 0xea, 0xdb, 0x58, 0x24, 0x05
    10be:	7a26                	.2byte	0x7a26
    10c0:	ee7f 572f 0524 7a26 	.byte	0x7f, 0xee, 0x2f, 0x57, 0x24, 0x05, 0x26, 0x7a, 0xcc, 0xbe, 0x8c, 0x55, 0x24, 0x05, 0x26, 0x7a, 0x47, 0x31, 0xe1, 0x53, 0x24, 0x05
    10c8:	becc 558c 0524 7a26 
    10d0:	3147 53e1 0524 
    10d6:	7a26                	.2byte	0x7a26
    10d8:	276c                	.2byte	0x276c
    10da:	5234                	.2byte	0x5234
    10dc:	0524                	.2byte	0x524
    10de:	7a26                	.2byte	0x7a26
    10e0:	1f89                	.2byte	0x1f89
    10e2:	5090                	.2byte	0x5090
    10e4:	0524                	.2byte	0x524
    10e6:	7a26                	.2byte	0x7a26
    10e8:	98dc                	.2byte	0x98dc
    10ea:	4ee6                	.2byte	0x4ee6
    10ec:	0524                	.2byte	0x524
    10ee:	7a26                	.2byte	0x7a26
    10f0:	7a4a                	.2byte	0x7a4a
    10f2:	4d38                	.2byte	0x4d38
    10f4:	0524                	.2byte	0x524
    10f6:	7a26                	.2byte	0x7a26
    10f8:	9508                	.2byte	0x9508
    10fa:	05244b93          	xor	s7,s0,82
    10fe:	7a26                	.2byte	0x7a26
    1100:	21a6                	.2byte	0x21a6
    1102:	49ec                	.2byte	0x49ec
    1104:	0524                	.2byte	0x524
    1106:	7a26                	.2byte	0x7a26
    1108:	e7b8                	.2byte	0xe7b8
    110a:	483c                	.2byte	0x483c
    110c:	0524                	.2byte	0x524
    110e:	7a26                	.2byte	0x7a26
    1110:	1fc6                	.2byte	0x1fc6
    1112:	05244697          	auipc	a3,0x5244
    1116:	7a26                	.2byte	0x7a26
    1118:	cc71                	.2byte	0xcc71
    111a:	44f1                	.2byte	0x44f1
    111c:	0524                	.2byte	0x524
    111e:	7a26                	.2byte	0x7a26
    1120:	705a                	.2byte	0x705a
    1122:	4341                	.2byte	0x4341
    1124:	0524                	.2byte	0x524
    1126:	7a26                	.2byte	0x7a26
    1128:	c048                	.2byte	0xc048
    112a:	419a                	.2byte	0x419a
    112c:	0524                	.2byte	0x524
    112e:	7a26                	.2byte	0x7a26
    1130:	9a0d                	.2byte	0x9a0d
    1132:	05243ff7          	.4byte	0x5243ff7
    1136:	7a26                	.2byte	0x7a26
    1138:	3e4614d7          	.4byte	0x3e4614d7
    113c:	0524                	.2byte	0x524
    113e:	7a26                	.2byte	0x7a26
    1140:	7712                	.2byte	0x7712
    1142:	3c9e                	.2byte	0x3c9e
    1144:	0524                	.2byte	0x524
    1146:	7a26                	.2byte	0x7a26
    1148:	8b51                	.2byte	0x8b51
    114a:	3afd                	.2byte	0x3afd
    114c:	0524                	.2byte	0x524
    114e:	7a26                	.2byte	0x7a26
    1150:	d5da                	.2byte	0xd5da
    1152:	394a                	.2byte	0x394a
    1154:	0524                	.2byte	0x524
    1156:	7a26                	.2byte	0x7a26
    1158:	44ae                	.2byte	0x44ae
    115a:	37a2                	.2byte	0x37a2
    115c:	0524                	.2byte	0x524
    115e:	7a26                	.2byte	0x7a26
    1160:	3601d08b          	.4byte	0x3601d08b
    1164:	0524                	.2byte	0x524
    1166:	7a26                	.2byte	0x7a26
    1168:	344fb413          	sltiu	s0,t6,836
    116c:	0524                	.2byte	0x524
    116e:	7a26                	.2byte	0x7a26
    1170:	29a8                	.2byte	0x29a8
    1172:	32a6                	.2byte	0x32a6
    1174:	0524                	.2byte	0x524
    1176:	7a26                	.2byte	0x7a26
    1178:	ee20                	.2byte	0xee20
    117a:	3104                	.2byte	0x3104
    117c:	0524                	.2byte	0x524
    117e:	7a26                	.2byte	0x7a26
    1180:	b034                	.2byte	0xb034
    1182:	2f54                	.2byte	0x2f54
    1184:	0524                	.2byte	0x524
    1186:	7a26                	.2byte	0x7a26
    1188:	2690                	.2byte	0x2690
    118a:	2daa                	.2byte	0x2daa
    118c:	0524                	.2byte	0x524
    118e:	7a26                	.2byte	0x7a26
    1190:	1ed9                	.2byte	0x1ed9
    1192:	2c08                	.2byte	0x2c08
    1194:	0524                	.2byte	0x524
    1196:	7a26                	.2byte	0x7a26
    1198:	caf6                	.2byte	0xcaf6
    119a:	2a59                	.2byte	0x2a59
    119c:	0524                	.2byte	0x524
    119e:	7a26                	.2byte	0x7a26
    11a0:	3bf8                	.2byte	0x3bf8
    11a2:	28ae                	.2byte	0x28ae
    11a4:	0524                	.2byte	0x524
    11a6:	7a26                	.2byte	0x7a26
    11a8:	632c                	.2byte	0x632c
    11aa:	0524270b          	.4byte	0x524270b
    11ae:	7a26                	.2byte	0x7a26
    11b0:	0514                	.2byte	0x514
    11b2:	255f 0524 7a26      	.byte	0x5f, 0x25, 0x24, 0x05, 0x26, 0x7a
    11b8:	6a76                	.2byte	0x6a76
    11ba:	23b2                	.2byte	0x23b2
    11bc:	0524                	.2byte	0x524
    11be:	7a26                	.2byte	0x7a26
    11c0:	bb92                	.2byte	0xbb92
    11c2:	220e                	.2byte	0x220e
    11c4:	0524                	.2byte	0x524
    11c6:	7a26                	.2byte	0x7a26
    11c8:	5f50                	.2byte	0x5f50
    11ca:	2064                	.2byte	0x2064
    11cc:	0524                	.2byte	0x524
    11ce:	7a26                	.2byte	0x7a26
    11d0:	b2a6                	.2byte	0xb2a6
    11d2:	1eb6                	.2byte	0x1eb6
    11d4:	0524                	.2byte	0x524
    11d6:	7a26                	.2byte	0x7a26
    11d8:	2885                	.2byte	0x2885
    11da:	1d12                	.2byte	0x1d12
    11dc:	0524                	.2byte	0x524
    11de:	7a26                	.2byte	0x7a26
    11e0:	1b69da6f          	jal	s4,9e396 <_end+0x9cec6>
    11e4:	0524                	.2byte	0x524
    11e6:	7a26                	.2byte	0x7a26
    11e8:	1525                	.2byte	0x1525
    11ea:	052419bb          	.4byte	0x52419bb
    11ee:	7a26                	.2byte	0x7a26
    11f0:	aa84                	.2byte	0xaa84
    11f2:	1815                	.2byte	0x1815
    11f4:	0524                	.2byte	0x524
    11f6:	7a26                	.2byte	0x7a26
    11f8:	773a                	.2byte	0x773a
    11fa:	0524166f          	jal	a2,4224c <_end+0x40d7c>
    11fe:	7a26                	.2byte	0x7a26
    1200:	9295                	.2byte	0x9295
    1202:	052414bf 42107a26 	.8byte	0x42107a26052414bf
    120a:	1319                	.2byte	0x1319
    120c:	0524                	.2byte	0x524
    120e:	7a26                	.2byte	0x7a26
    1210:	3681                	.2byte	0x3681
    1212:	1175                	.2byte	0x1175
    1214:	0524                	.2byte	0x524
    1216:	7a26                	.2byte	0x7a26
    1218:	2b9a                	.2byte	0x2b9a
    121a:	0fc4                	.2byte	0xfc4
    121c:	0524                	.2byte	0x524
    121e:	7a26                	.2byte	0x7a26
    1220:	0e1cefaf          	.4byte	0xe1cefaf
    1224:	0524                	.2byte	0x524
    1226:	7a26                	.2byte	0x7a26
    1228:	1918                	.2byte	0x1918
    122a:	05240c7b          	.4byte	0x5240c7b
    122e:	7a26                	.2byte	0x7a26
    1230:	e0e0                	.2byte	0xe0e0
    1232:	0ac8                	.2byte	0xac8
    1234:	0524                	.2byte	0x524
    1236:	7a26                	.2byte	0x7a26
    1238:	b3e6                	.2byte	0xb3e6
    123a:	0920                	.2byte	0x920
    123c:	0524                	.2byte	0x524
    123e:	7a26                	.2byte	0x7a26
    1240:	07808feb          	.4byte	0x7808feb
    1244:	0524                	.2byte	0x524
    1246:	7a26                	.2byte	0x7a26
    1248:	b312                	.2byte	0xb312
    124a:	05cd                	.2byte	0x5cd
    124c:	0524                	.2byte	0x524
    124e:	7a26                	.2byte	0x7a26
    1250:	8f41                	.2byte	0x8f41
    1252:	0424                	.2byte	0x424
    1254:	0524                	.2byte	0x524
    1256:	7a26                	.2byte	0x7a26
    1258:	0000                	.2byte	0x0
    125a:	0000                	.2byte	0x0
    125c:	0524                	.2byte	0x524
    125e:	7a26                	.2byte	0x7a26
    1260:	bed6                	.2byte	0xbed6
    1262:	76be                	.2byte	0x76be

00001264 <rvtest_data_end>:
	...

00001270 <data_begin>:
    1270:	deadbeef          	jal	t4,fffdc85a <_end+0xfffdb38a>
    1274:	deadbeef          	jal	t4,fffdc85e <_end+0xfffdb38e>
    1278:	deadbeef          	jal	t4,fffdc862 <_end+0xfffdb392>
    127c:	deadbeef          	jal	t4,fffdc866 <_end+0xfffdb396>
    1280:	deadbeef          	jal	t4,fffdc86a <_end+0xfffdb39a>
    1284:	deadbeef          	jal	t4,fffdc86e <_end+0xfffdb39e>
    1288:	deadbeef          	jal	t4,fffdc872 <_end+0xfffdb3a2>
    128c:	deadbeef          	jal	t4,fffdc876 <_end+0xfffdb3a6>
    1290:	deadbeef          	jal	t4,fffdc87a <_end+0xfffdb3aa>
    1294:	deadbeef          	jal	t4,fffdc87e <_end+0xfffdb3ae>
    1298:	deadbeef          	jal	t4,fffdc882 <_end+0xfffdb3b2>
    129c:	deadbeef          	jal	t4,fffdc886 <_end+0xfffdb3b6>
    12a0:	deadbeef          	jal	t4,fffdc88a <_end+0xfffdb3ba>
    12a4:	deadbeef          	jal	t4,fffdc88e <_end+0xfffdb3be>
    12a8:	deadbeef          	jal	t4,fffdc892 <_end+0xfffdb3c2>
    12ac:	deadbeef          	jal	t4,fffdc896 <_end+0xfffdb3c6>
    12b0:	deadbeef          	jal	t4,fffdc89a <_end+0xfffdb3ca>
    12b4:	deadbeef          	jal	t4,fffdc89e <_end+0xfffdb3ce>
    12b8:	deadbeef          	jal	t4,fffdc8a2 <_end+0xfffdb3d2>
    12bc:	deadbeef          	jal	t4,fffdc8a6 <_end+0xfffdb3d6>
    12c0:	deadbeef          	jal	t4,fffdc8aa <_end+0xfffdb3da>
    12c4:	deadbeef          	jal	t4,fffdc8ae <_end+0xfffdb3de>
    12c8:	deadbeef          	jal	t4,fffdc8b2 <_end+0xfffdb3e2>
    12cc:	deadbeef          	jal	t4,fffdc8b6 <_end+0xfffdb3e6>
    12d0:	deadbeef          	jal	t4,fffdc8ba <_end+0xfffdb3ea>
    12d4:	deadbeef          	jal	t4,fffdc8be <_end+0xfffdb3ee>
    12d8:	deadbeef          	jal	t4,fffdc8c2 <_end+0xfffdb3f2>
    12dc:	deadbeef          	jal	t4,fffdc8c6 <_end+0xfffdb3f6>
    12e0:	deadbeef          	jal	t4,fffdc8ca <_end+0xfffdb3fa>
    12e4:	deadbeef          	jal	t4,fffdc8ce <_end+0xfffdb3fe>
    12e8:	deadbeef          	jal	t4,fffdc8d2 <_end+0xfffdb402>
    12ec:	deadbeef          	jal	t4,fffdc8d6 <_end+0xfffdb406>
    12f0:	deadbeef          	jal	t4,fffdc8da <_end+0xfffdb40a>
    12f4:	deadbeef          	jal	t4,fffdc8de <_end+0xfffdb40e>
    12f8:	deadbeef          	jal	t4,fffdc8e2 <_end+0xfffdb412>
    12fc:	deadbeef          	jal	t4,fffdc8e6 <_end+0xfffdb416>
    1300:	deadbeef          	jal	t4,fffdc8ea <_end+0xfffdb41a>
    1304:	deadbeef          	jal	t4,fffdc8ee <_end+0xfffdb41e>
    1308:	deadbeef          	jal	t4,fffdc8f2 <_end+0xfffdb422>
    130c:	deadbeef          	jal	t4,fffdc8f6 <_end+0xfffdb426>
    1310:	deadbeef          	jal	t4,fffdc8fa <_end+0xfffdb42a>
    1314:	deadbeef          	jal	t4,fffdc8fe <_end+0xfffdb42e>
    1318:	deadbeef          	jal	t4,fffdc902 <_end+0xfffdb432>
    131c:	deadbeef          	jal	t4,fffdc906 <_end+0xfffdb436>
    1320:	deadbeef          	jal	t4,fffdc90a <_end+0xfffdb43a>
    1324:	deadbeef          	jal	t4,fffdc90e <_end+0xfffdb43e>
    1328:	deadbeef          	jal	t4,fffdc912 <_end+0xfffdb442>
    132c:	deadbeef          	jal	t4,fffdc916 <_end+0xfffdb446>
    1330:	deadbeef          	jal	t4,fffdc91a <_end+0xfffdb44a>
    1334:	deadbeef          	jal	t4,fffdc91e <_end+0xfffdb44e>
    1338:	deadbeef          	jal	t4,fffdc922 <_end+0xfffdb452>
    133c:	deadbeef          	jal	t4,fffdc926 <_end+0xfffdb456>
    1340:	deadbeef          	jal	t4,fffdc92a <_end+0xfffdb45a>
    1344:	deadbeef          	jal	t4,fffdc92e <_end+0xfffdb45e>
    1348:	deadbeef          	jal	t4,fffdc932 <_end+0xfffdb462>
    134c:	deadbeef          	jal	t4,fffdc936 <_end+0xfffdb466>
    1350:	deadbeef          	jal	t4,fffdc93a <_end+0xfffdb46a>
    1354:	deadbeef          	jal	t4,fffdc93e <_end+0xfffdb46e>
    1358:	deadbeef          	jal	t4,fffdc942 <_end+0xfffdb472>
    135c:	deadbeef          	jal	t4,fffdc946 <_end+0xfffdb476>
    1360:	deadbeef          	jal	t4,fffdc94a <_end+0xfffdb47a>
    1364:	deadbeef          	jal	t4,fffdc94e <_end+0xfffdb47e>
    1368:	deadbeef          	jal	t4,fffdc952 <_end+0xfffdb482>
    136c:	deadbeef          	jal	t4,fffdc956 <_end+0xfffdb486>
    1370:	deadbeef          	jal	t4,fffdc95a <_end+0xfffdb48a>
    1374:	deadbeef          	jal	t4,fffdc95e <_end+0xfffdb48e>
    1378:	deadbeef          	jal	t4,fffdc962 <_end+0xfffdb492>
    137c:	deadbeef          	jal	t4,fffdc966 <_end+0xfffdb496>
    1380:	deadbeef          	jal	t4,fffdc96a <_end+0xfffdb49a>
    1384:	deadbeef          	jal	t4,fffdc96e <_end+0xfffdb49e>
    1388:	deadbeef          	jal	t4,fffdc972 <_end+0xfffdb4a2>
    138c:	deadbeef          	jal	t4,fffdc976 <_end+0xfffdb4a6>
    1390:	deadbeef          	jal	t4,fffdc97a <_end+0xfffdb4aa>
    1394:	deadbeef          	jal	t4,fffdc97e <_end+0xfffdb4ae>
    1398:	deadbeef          	jal	t4,fffdc982 <_end+0xfffdb4b2>
    139c:	deadbeef          	jal	t4,fffdc986 <_end+0xfffdb4b6>
    13a0:	deadbeef          	jal	t4,fffdc98a <_end+0xfffdb4ba>
    13a4:	deadbeef          	jal	t4,fffdc98e <_end+0xfffdb4be>
    13a8:	deadbeef          	jal	t4,fffdc992 <_end+0xfffdb4c2>
    13ac:	deadbeef          	jal	t4,fffdc996 <_end+0xfffdb4c6>
    13b0:	deadbeef          	jal	t4,fffdc99a <_end+0xfffdb4ca>
    13b4:	deadbeef          	jal	t4,fffdc99e <_end+0xfffdb4ce>
    13b8:	deadbeef          	jal	t4,fffdc9a2 <_end+0xfffdb4d2>
    13bc:	deadbeef          	jal	t4,fffdc9a6 <_end+0xfffdb4d6>
    13c0:	deadbeef          	jal	t4,fffdc9aa <_end+0xfffdb4da>
    13c4:	deadbeef          	jal	t4,fffdc9ae <_end+0xfffdb4de>
    13c8:	deadbeef          	jal	t4,fffdc9b2 <_end+0xfffdb4e2>
    13cc:	deadbeef          	jal	t4,fffdc9b6 <_end+0xfffdb4e6>
    13d0:	deadbeef          	jal	t4,fffdc9ba <_end+0xfffdb4ea>
    13d4:	deadbeef          	jal	t4,fffdc9be <_end+0xfffdb4ee>
    13d8:	deadbeef          	jal	t4,fffdc9c2 <_end+0xfffdb4f2>
    13dc:	deadbeef          	jal	t4,fffdc9c6 <_end+0xfffdb4f6>
    13e0:	deadbeef          	jal	t4,fffdc9ca <_end+0xfffdb4fa>
    13e4:	deadbeef          	jal	t4,fffdc9ce <_end+0xfffdb4fe>
    13e8:	deadbeef          	jal	t4,fffdc9d2 <_end+0xfffdb502>
    13ec:	deadbeef          	jal	t4,fffdc9d6 <_end+0xfffdb506>
    13f0:	deadbeef          	jal	t4,fffdc9da <_end+0xfffdb50a>
    13f4:	deadbeef          	jal	t4,fffdc9de <_end+0xfffdb50e>
    13f8:	deadbeef          	jal	t4,fffdc9e2 <_end+0xfffdb512>
    13fc:	deadbeef          	jal	t4,fffdc9e6 <_end+0xfffdb516>
    1400:	deadbeef          	jal	t4,fffdc9ea <_end+0xfffdb51a>
    1404:	deadbeef          	jal	t4,fffdc9ee <_end+0xfffdb51e>
    1408:	deadbeef          	jal	t4,fffdc9f2 <_end+0xfffdb522>
    140c:	deadbeef          	jal	t4,fffdc9f6 <_end+0xfffdb526>
    1410:	deadbeef          	jal	t4,fffdc9fa <_end+0xfffdb52a>
    1414:	deadbeef          	jal	t4,fffdc9fe <_end+0xfffdb52e>
    1418:	deadbeef          	jal	t4,fffdca02 <_end+0xfffdb532>
    141c:	deadbeef          	jal	t4,fffdca06 <_end+0xfffdb536>
    1420:	deadbeef          	jal	t4,fffdca0a <_end+0xfffdb53a>
    1424:	deadbeef          	jal	t4,fffdca0e <_end+0xfffdb53e>
    1428:	deadbeef          	jal	t4,fffdca12 <_end+0xfffdb542>
    142c:	deadbeef          	jal	t4,fffdca16 <_end+0xfffdb546>
    1430:	deadbeef          	jal	t4,fffdca1a <_end+0xfffdb54a>
    1434:	deadbeef          	jal	t4,fffdca1e <_end+0xfffdb54e>
    1438:	deadbeef          	jal	t4,fffdca22 <_end+0xfffdb552>
    143c:	deadbeef          	jal	t4,fffdca26 <_end+0xfffdb556>
    1440:	deadbeef          	jal	t4,fffdca2a <_end+0xfffdb55a>
    1444:	deadbeef          	jal	t4,fffdca2e <_end+0xfffdb55e>
    1448:	deadbeef          	jal	t4,fffdca32 <_end+0xfffdb562>
    144c:	deadbeef          	jal	t4,fffdca36 <_end+0xfffdb566>
    1450:	deadbeef          	jal	t4,fffdca3a <_end+0xfffdb56a>
    1454:	deadbeef          	jal	t4,fffdca3e <_end+0xfffdb56e>
    1458:	deadbeef          	jal	t4,fffdca42 <_end+0xfffdb572>
    145c:	deadbeef          	jal	t4,fffdca46 <_end+0xfffdb576>
    1460:	deadbeef          	jal	t4,fffdca4a <_end+0xfffdb57a>
    1464:	deadbeef          	jal	t4,fffdca4e <_end+0xfffdb57e>
    1468:	deadbeef          	jal	t4,fffdca52 <_end+0xfffdb582>
    146c:	deadbeef          	jal	t4,fffdca56 <_end+0xfffdb586>
    1470:	deadbeef          	jal	t4,fffdca5a <_end+0xfffdb58a>
    1474:	deadbeef          	jal	t4,fffdca5e <_end+0xfffdb58e>
    1478:	deadbeef          	jal	t4,fffdca62 <_end+0xfffdb592>
    147c:	deadbeef          	jal	t4,fffdca66 <_end+0xfffdb596>
    1480:	deadbeef          	jal	t4,fffdca6a <_end+0xfffdb59a>
    1484:	deadbeef          	jal	t4,fffdca6e <_end+0xfffdb59e>
    1488:	deadbeef          	jal	t4,fffdca72 <_end+0xfffdb5a2>
    148c:	deadbeef          	jal	t4,fffdca76 <_end+0xfffdb5a6>
    1490:	deadbeef          	jal	t4,fffdca7a <_end+0xfffdb5aa>
    1494:	deadbeef          	jal	t4,fffdca7e <_end+0xfffdb5ae>
    1498:	deadbeef          	jal	t4,fffdca82 <_end+0xfffdb5b2>
    149c:	deadbeef          	jal	t4,fffdca86 <_end+0xfffdb5b6>
    14a0:	deadbeef          	jal	t4,fffdca8a <_end+0xfffdb5ba>
    14a4:	deadbeef          	jal	t4,fffdca8e <_end+0xfffdb5be>
    14a8:	deadbeef          	jal	t4,fffdca92 <_end+0xfffdb5c2>
    14ac:	deadbeef          	jal	t4,fffdca96 <_end+0xfffdb5c6>
    14b0:	deadbeef          	jal	t4,fffdca9a <_end+0xfffdb5ca>
    14b4:	deadbeef          	jal	t4,fffdca9e <_end+0xfffdb5ce>
    14b8:	deadbeef          	jal	t4,fffdcaa2 <_end+0xfffdb5d2>
    14bc:	deadbeef          	jal	t4,fffdcaa6 <_end+0xfffdb5d6>
    14c0:	deadbeef          	jal	t4,fffdcaaa <_end+0xfffdb5da>
    14c4:	deadbeef          	jal	t4,fffdcaae <_end+0xfffdb5de>
    14c8:	deadbeef          	jal	t4,fffdcab2 <_end+0xfffdb5e2>
    14cc:	deadbeef          	jal	t4,fffdcab6 <_end+0xfffdb5e6>

Desensamblado de la sección .riscv.attributes:

00000000 <.riscv.attributes>:
   0:	2241                	.2byte	0x2241
   2:	0000                	.2byte	0x0
   4:	7200                	.2byte	0x7200
   6:	7369                	.2byte	0x7369
   8:	01007663          	bgeu	zero,a6,14 <rvtest_entry_point+0x14>
   c:	0018                	.2byte	0x18
   e:	0000                	.2byte	0x0
  10:	7205                	.2byte	0x7205
  12:	3376                	.2byte	0x3376
  14:	6932                	.2byte	0x6932
  16:	7032                	.2byte	0x7032
  18:	5f30                	.2byte	0x5f30
  1a:	3266                	.2byte	0x3266
  1c:	3070                	.2byte	0x3070
  1e:	0800                	.2byte	0x800
  20:	0a01                	.2byte	0xa01
  22:	0b              	Address 0x22 is out of bounds.

