
/home/alejandro/Escritorio/test_riscv2.5/riscv-compliance/work/rv32i_m/F/fadd_b13-01.elf:     formato del fichero elf32-littleriscv


Desensamblado de la sección .text.init:

00000000 <rvtest_entry_point>:
       0:	feedc0b7          	lui	ra,0xfeedc
       4:	ead08093          	add	ra,ra,-339 # feedbead <_end+0xfeed91fd>
       8:	ff76e137          	lui	sp,0xff76e
       c:	f5610113          	add	sp,sp,-170 # ff76df56 <_end+0xff76b2a6>
      10:	7fbb71b7          	lui	gp,0x7fbb7
      14:	fab18193          	add	gp,gp,-85 # 7fbb6fab <_end+0x7fbb42fb>
      18:	bfddb237          	lui	tp,0xbfddb
      1c:	7d520213          	add	tp,tp,2005 # bfddb7d5 <_end+0xbfdd8b25>
      20:	00000297          	auipc	t0,0x0
      24:	0d828293          	add	t0,t0,216 # f8 <rvtest_code_begin>
      28:	00002317          	auipc	t1,0x2
      2c:	fd830313          	add	t1,t1,-40 # 2000 <rvtest_data_begin>
      30:	b7fbb3b7          	lui	t2,0xb7fbb
      34:	6fa38393          	add	t2,t2,1786 # b7fbb6fa <_end+0xb7fb8a4a>
      38:	5bfde437          	lui	s0,0x5bfde
      3c:	b7d40413          	add	s0,s0,-1155 # 5bfddb7d <_end+0x5bfdaecd>
      40:	adfef4b7          	lui	s1,0xadfef
      44:	dbe48493          	add	s1,s1,-578 # adfeedbe <_end+0xadfec10e>
      48:	56ff7537          	lui	a0,0x56ff7
      4c:	6df50513          	add	a0,a0,1759 # 56ff76df <_end+0x56ff4a2f>
      50:	ab7fc5b7          	lui	a1,0xab7fc
      54:	b6f58593          	add	a1,a1,-1169 # ab7fbb6f <_end+0xab7f8ebf>
      58:	d5bfe637          	lui	a2,0xd5bfe
      5c:	db760613          	add	a2,a2,-585 # d5bfddb7 <_end+0xd5bfb107>
      60:	eadff6b7          	lui	a3,0xeadff
      64:	edb68693          	add	a3,a3,-293 # eadfeedb <_end+0xeadfc22b>
      68:	f56ff737          	lui	a4,0xf56ff
      6c:	76d70713          	add	a4,a4,1901 # f56ff76d <_end+0xf56fcabd>
      70:	fab807b7          	lui	a5,0xfab80
      74:	bb678793          	add	a5,a5,-1098 # fab7fbb6 <_end+0xfab7cf06>
      78:	7d5c0837          	lui	a6,0x7d5c0
      7c:	ddb80813          	add	a6,a6,-549 # 7d5bfddb <_end+0x7d5bd12b>
      80:	beae08b7          	lui	a7,0xbeae0
      84:	eed88893          	add	a7,a7,-275 # beadfeed <_end+0xbeadd23d>
      88:	df570937          	lui	s2,0xdf570
      8c:	f7690913          	add	s2,s2,-138 # df56ff76 <_end+0xdf56d2c6>
      90:	6fab89b7          	lui	s3,0x6fab8
      94:	fbb98993          	add	s3,s3,-69 # 6fab7fbb <_end+0x6fab530b>
      98:	b7d5ca37          	lui	s4,0xb7d5c
      9c:	fdda0a13          	add	s4,s4,-35 # b7d5bfdd <_end+0xb7d5932d>
      a0:	dbeaeab7          	lui	s5,0xdbeae
      a4:	feea8a93          	add	s5,s5,-18 # dbeadfee <_end+0xdbeab33e>
      a8:	6df57b37          	lui	s6,0x6df57
      ac:	ff7b0b13          	add	s6,s6,-9 # 6df56ff7 <_end+0x6df54347>
      b0:	b6fabbb7          	lui	s7,0xb6fab
      b4:	7fbb8b93          	add	s7,s7,2043 # b6fab7fb <_end+0xb6fa8b4b>
      b8:	db7d6c37          	lui	s8,0xdb7d6
      bc:	bfdc0c13          	add	s8,s8,-1027 # db7d5bfd <_end+0xdb7d2f4d>
      c0:	edbebcb7          	lui	s9,0xedbeb
      c4:	dfec8c93          	add	s9,s9,-514 # edbeadfe <_end+0xedbe814e>
      c8:	76df5d37          	lui	s10,0x76df5
      cc:	6ffd0d13          	add	s10,s10,1791 # 76df56ff <_end+0x76df2a4f>
      d0:	bb6fbdb7          	lui	s11,0xbb6fb
      d4:	b7fd8d93          	add	s11,s11,-1153 # bb6fab7f <_end+0xbb6f7ecf>
      d8:	ddb7de37          	lui	t3,0xddb7d
      dc:	5bfe0e13          	add	t3,t3,1471 # ddb7d5bf <_end+0xddb7a90f>
      e0:	eedbfeb7          	lui	t4,0xeedbf
      e4:	adfe8e93          	add	t4,t4,-1313 # eedbeadf <_end+0xeedbbe2f>
      e8:	f76dff37          	lui	t5,0xf76df
      ec:	56ff0f13          	add	t5,t5,1391 # f76df56f <_end+0xf76dc8bf>
      f0:	fbb70fb7          	lui	t6,0xfbb70
      f4:	ab7f8f93          	add	t6,t6,-1353 # fbb6fab7 <_end+0xfbb6ce07>

000000f8 <rvtest_code_begin>:
      f8:	00002537          	lui	a0,0x2
      fc:	30052073          	csrs	mstatus,a0
     100:	00002817          	auipc	a6,0x2
     104:	f0480813          	add	a6,a6,-252 # 2004 <test_fp>
     108:	00002797          	auipc	a5,0x2
     10c:	55878793          	add	a5,a5,1368 # 2660 <data_begin>

00000110 <inst_0>:
     110:	00082c87          	flw	fs9,0(a6)
     114:	00482c87          	flw	fs9,4(a6)
     118:	00205073          	fsrmi	zero,0
     11c:	019cfcd3          	fadd.s	fs9,fs9,fs9
     120:	001028f3          	frflags	a7
     124:	0197a027          	fsw	fs9,0(a5)
     128:	0117a223          	sw	a7,4(a5)

0000012c <inst_1>:
     12c:	00882087          	flw	ft1,8(a6)
     130:	00c82887          	flw	fa7,12(a6)
     134:	00205073          	fsrmi	zero,0
     138:	0110f8d3          	fadd.s	fa7,ft1,fa7
     13c:	001028f3          	frflags	a7
     140:	0117a427          	fsw	fa7,8(a5)
     144:	0117a623          	sw	a7,12(a5)

00000148 <inst_2>:
     148:	01082807          	flw	fa6,16(a6)
     14c:	01482907          	flw	fs2,20(a6)
     150:	00205073          	fsrmi	zero,0
     154:	01287853          	fadd.s	fa6,fa6,fs2
     158:	001028f3          	frflags	a7
     15c:	0107a827          	fsw	fa6,16(a5)
     160:	0117aa23          	sw	a7,20(a5)

00000164 <inst_3>:
     164:	01882207          	flw	ft4,24(a6)
     168:	01c82687          	flw	fa3,28(a6)
     16c:	00205073          	fsrmi	zero,0
     170:	00d27953          	fadd.s	fs2,ft4,fa3
     174:	001028f3          	frflags	a7
     178:	0127ac27          	fsw	fs2,24(a5)
     17c:	0117ae23          	sw	a7,28(a5)

00000180 <inst_4>:
     180:	02082d87          	flw	fs11,32(a6)
     184:	02482d87          	flw	fs11,36(a6)
     188:	00205073          	fsrmi	zero,0
     18c:	01bdf9d3          	fadd.s	fs3,fs11,fs11
     190:	001028f3          	frflags	a7
     194:	0337a027          	fsw	fs3,32(a5)
     198:	0317a223          	sw	a7,36(a5)

0000019c <inst_5>:
     19c:	02882687          	flw	fa3,40(a6)
     1a0:	02c82507          	flw	fa0,44(a6)
     1a4:	00205073          	fsrmi	zero,0
     1a8:	00a6fb53          	fadd.s	fs6,fa3,fa0
     1ac:	001028f3          	frflags	a7
     1b0:	0367a427          	fsw	fs6,40(a5)
     1b4:	0317a623          	sw	a7,44(a5)

000001b8 <inst_6>:
     1b8:	03082707          	flw	fa4,48(a6)
     1bc:	03482307          	flw	ft6,52(a6)
     1c0:	00205073          	fsrmi	zero,0
     1c4:	00677bd3          	fadd.s	fs7,fa4,ft6
     1c8:	001028f3          	frflags	a7
     1cc:	0377a827          	fsw	fs7,48(a5)
     1d0:	0317aa23          	sw	a7,52(a5)

000001d4 <inst_7>:
     1d4:	03882187          	flw	ft3,56(a6)
     1d8:	03c82407          	flw	fs0,60(a6)
     1dc:	00205073          	fsrmi	zero,0
     1e0:	0081f4d3          	fadd.s	fs1,ft3,fs0
     1e4:	001028f3          	frflags	a7
     1e8:	0297ac27          	fsw	fs1,56(a5)
     1ec:	0317ae23          	sw	a7,60(a5)

000001f0 <inst_8>:
     1f0:	04082007          	flw	ft0,64(a6)
     1f4:	04482e07          	flw	ft8,68(a6)
     1f8:	00205073          	fsrmi	zero,0
     1fc:	01c07353          	fadd.s	ft6,ft0,ft8
     200:	001028f3          	frflags	a7
     204:	0467a027          	fsw	ft6,64(a5)
     208:	0517a223          	sw	a7,68(a5)

0000020c <inst_9>:
     20c:	04882407          	flw	fs0,72(a6)
     210:	04c82f87          	flw	ft11,76(a6)
     214:	00205073          	fsrmi	zero,0
     218:	01f47653          	fadd.s	fa2,fs0,ft11
     21c:	001028f3          	frflags	a7
     220:	04c7a427          	fsw	fa2,72(a5)
     224:	0517a623          	sw	a7,76(a5)

00000228 <inst_10>:
     228:	05082b87          	flw	fs7,80(a6)
     22c:	05482f07          	flw	ft10,84(a6)
     230:	00205073          	fsrmi	zero,0
     234:	01ebf1d3          	fadd.s	ft3,fs7,ft10
     238:	001028f3          	frflags	a7
     23c:	0437a827          	fsw	ft3,80(a5)
     240:	0517aa23          	sw	a7,84(a5)

00000244 <inst_11>:
     244:	05882487          	flw	fs1,88(a6)
     248:	05c82987          	flw	fs3,92(a6)
     24c:	00205073          	fsrmi	zero,0
     250:	0134f153          	fadd.s	ft2,fs1,fs3
     254:	001028f3          	frflags	a7
     258:	0427ac27          	fsw	ft2,88(a5)
     25c:	0517ae23          	sw	a7,92(a5)

00000260 <inst_12>:
     260:	06082607          	flw	fa2,96(a6)
     264:	06482c07          	flw	fs8,100(a6)
     268:	00205073          	fsrmi	zero,0
     26c:	01867453          	fadd.s	fs0,fa2,fs8
     270:	001028f3          	frflags	a7
     274:	0687a027          	fsw	fs0,96(a5)
     278:	0717a223          	sw	a7,100(a5)

0000027c <inst_13>:
     27c:	06882507          	flw	fa0,104(a6)
     280:	06c82a07          	flw	fs4,108(a6)
     284:	00205073          	fsrmi	zero,0
     288:	014576d3          	fadd.s	fa3,fa0,fs4
     28c:	001028f3          	frflags	a7
     290:	06d7a427          	fsw	fa3,104(a5)
     294:	0717a623          	sw	a7,108(a5)

00000298 <inst_14>:
     298:	07082787          	flw	fa5,112(a6)
     29c:	07482b07          	flw	fs6,116(a6)
     2a0:	00205073          	fsrmi	zero,0
     2a4:	0167f053          	fadd.s	ft0,fa5,fs6
     2a8:	001028f3          	frflags	a7
     2ac:	0607a827          	fsw	ft0,112(a5)
     2b0:	0717aa23          	sw	a7,116(a5)

000002b4 <inst_15>:
     2b4:	07882a07          	flw	fs4,120(a6)
     2b8:	07c82787          	flw	fa5,124(a6)
     2bc:	00205073          	fsrmi	zero,0
     2c0:	00fa72d3          	fadd.s	ft5,fs4,fa5
     2c4:	001028f3          	frflags	a7
     2c8:	0657ac27          	fsw	ft5,120(a5)
     2cc:	0717ae23          	sw	a7,124(a5)

000002d0 <inst_16>:
     2d0:	08082387          	flw	ft7,128(a6)
     2d4:	08482607          	flw	fa2,132(a6)
     2d8:	00205073          	fsrmi	zero,0
     2dc:	00c3fe53          	fadd.s	ft8,ft7,fa2
     2e0:	001028f3          	frflags	a7
     2e4:	09c7a027          	fsw	ft8,128(a5)
     2e8:	0917a223          	sw	a7,132(a5)

000002ec <inst_17>:
     2ec:	08882f07          	flw	ft10,136(a6)
     2f0:	08c82087          	flw	ft1,140(a6)
     2f4:	00205073          	fsrmi	zero,0
     2f8:	001f7c53          	fadd.s	fs8,ft10,ft1
     2fc:	001028f3          	frflags	a7
     300:	0987a427          	fsw	fs8,136(a5)
     304:	0917a623          	sw	a7,140(a5)

00000308 <inst_18>:
     308:	09082887          	flw	fa7,144(a6)
     30c:	09482107          	flw	ft2,148(a6)
     310:	00205073          	fsrmi	zero,0
     314:	0028f5d3          	fadd.s	fa1,fa7,ft2
     318:	001028f3          	frflags	a7
     31c:	08b7a827          	fsw	fa1,144(a5)
     320:	0917aa23          	sw	a7,148(a5)

00000324 <inst_19>:
     324:	09882907          	flw	fs2,152(a6)
     328:	09c82387          	flw	ft7,156(a6)
     32c:	00205073          	fsrmi	zero,0
     330:	00797fd3          	fadd.s	ft11,fs2,ft7
     334:	001028f3          	frflags	a7
     338:	09f7ac27          	fsw	ft11,152(a5)
     33c:	0917ae23          	sw	a7,156(a5)

00000340 <inst_20>:
     340:	0a082d07          	flw	fs10,160(a6)
     344:	0a482207          	flw	ft4,164(a6)
     348:	00205073          	fsrmi	zero,0
     34c:	004d7f53          	fadd.s	ft10,fs10,ft4
     350:	001028f3          	frflags	a7
     354:	0be7a027          	fsw	ft10,160(a5)
     358:	0b17a223          	sw	a7,164(a5)

0000035c <inst_21>:
     35c:	0a882f87          	flw	ft11,168(a6)
     360:	0ac82d07          	flw	fs10,172(a6)
     364:	00205073          	fsrmi	zero,0
     368:	01affed3          	fadd.s	ft9,ft11,fs10
     36c:	001028f3          	frflags	a7
     370:	0bd7a427          	fsw	ft9,168(a5)
     374:	0b17a623          	sw	a7,172(a5)

00000378 <inst_22>:
     378:	0b082c07          	flw	fs8,176(a6)
     37c:	0b482707          	flw	fa4,180(a6)
     380:	00205073          	fsrmi	zero,0
     384:	00ec73d3          	fadd.s	ft7,fs8,fa4
     388:	001028f3          	frflags	a7
     38c:	0a77a827          	fsw	ft7,176(a5)
     390:	0b17aa23          	sw	a7,180(a5)

00000394 <inst_23>:
     394:	0b882987          	flw	fs3,184(a6)
     398:	0bc82487          	flw	fs1,188(a6)
     39c:	00205073          	fsrmi	zero,0
     3a0:	0099f7d3          	fadd.s	fa5,fs3,fs1
     3a4:	001028f3          	frflags	a7
     3a8:	0af7ac27          	fsw	fa5,184(a5)
     3ac:	0b17ae23          	sw	a7,188(a5)

000003b0 <inst_24>:
     3b0:	0c082a87          	flw	fs5,192(a6)
     3b4:	0c482e87          	flw	ft9,196(a6)
     3b8:	00205073          	fsrmi	zero,0
     3bc:	01dafa53          	fadd.s	fs4,fs5,ft9
     3c0:	001028f3          	frflags	a7
     3c4:	0d47a027          	fsw	fs4,192(a5)
     3c8:	0d17a223          	sw	a7,196(a5)

000003cc <inst_25>:
     3cc:	0c882b07          	flw	fs6,200(a6)
     3d0:	0cc82b87          	flw	fs7,204(a6)
     3d4:	00205073          	fsrmi	zero,0
     3d8:	017b7ad3          	fadd.s	fs5,fs6,fs7
     3dc:	001028f3          	frflags	a7
     3e0:	0d57a427          	fsw	fs5,200(a5)
     3e4:	0d17a623          	sw	a7,204(a5)

000003e8 <inst_26>:
     3e8:	0d082e07          	flw	ft8,208(a6)
     3ec:	0d482287          	flw	ft5,212(a6)
     3f0:	00205073          	fsrmi	zero,0
     3f4:	005e7553          	fadd.s	fa0,ft8,ft5
     3f8:	001028f3          	frflags	a7
     3fc:	0ca7a827          	fsw	fa0,208(a5)
     400:	0d17aa23          	sw	a7,212(a5)

00000404 <inst_27>:
     404:	0d882107          	flw	ft2,216(a6)
     408:	0dc82587          	flw	fa1,220(a6)
     40c:	00205073          	fsrmi	zero,0
     410:	00b17253          	fadd.s	ft4,ft2,fa1
     414:	001028f3          	frflags	a7
     418:	0c47ac27          	fsw	ft4,216(a5)
     41c:	0d17ae23          	sw	a7,220(a5)

00000420 <inst_28>:
     420:	0e082287          	flw	ft5,224(a6)
     424:	0e482807          	flw	fa6,228(a6)
     428:	00205073          	fsrmi	zero,0
     42c:	0102f0d3          	fadd.s	ft1,ft5,fa6
     430:	001028f3          	frflags	a7
     434:	0e17a027          	fsw	ft1,224(a5)
     438:	0f17a223          	sw	a7,228(a5)

0000043c <inst_29>:
     43c:	0e882e87          	flw	ft9,232(a6)
     440:	0ec82187          	flw	ft3,236(a6)
     444:	00205073          	fsrmi	zero,0
     448:	003efdd3          	fadd.s	fs11,ft9,ft3
     44c:	001028f3          	frflags	a7
     450:	0fb7a427          	fsw	fs11,232(a5)
     454:	0f17a623          	sw	a7,236(a5)

00000458 <inst_30>:
     458:	0f082307          	flw	ft6,240(a6)
     45c:	0f482007          	flw	ft0,244(a6)
     460:	00205073          	fsrmi	zero,0
     464:	00037753          	fadd.s	fa4,ft6,ft0
     468:	001028f3          	frflags	a7
     46c:	0ee7a827          	fsw	fa4,240(a5)
     470:	0f17aa23          	sw	a7,244(a5)

00000474 <inst_31>:
     474:	0f882587          	flw	fa1,248(a6)
     478:	0fc82a87          	flw	fs5,252(a6)
     47c:	00205073          	fsrmi	zero,0
     480:	0155fd53          	fadd.s	fs10,fa1,fs5
     484:	001028f3          	frflags	a7
     488:	0fa7ac27          	fsw	fs10,248(a5)
     48c:	0f17ae23          	sw	a7,252(a5)

00000490 <inst_32>:
     490:	10082507          	flw	fa0,256(a6)
     494:	10482587          	flw	fa1,260(a6)
     498:	00205073          	fsrmi	zero,0
     49c:	00b57653          	fadd.s	fa2,fa0,fa1
     4a0:	001028f3          	frflags	a7
     4a4:	10c7a027          	fsw	fa2,256(a5)
     4a8:	1117a223          	sw	a7,260(a5)

000004ac <inst_33>:
     4ac:	10882507          	flw	fa0,264(a6)
     4b0:	10c82587          	flw	fa1,268(a6)
     4b4:	00205073          	fsrmi	zero,0
     4b8:	00b57653          	fadd.s	fa2,fa0,fa1
     4bc:	001028f3          	frflags	a7
     4c0:	10c7a427          	fsw	fa2,264(a5)
     4c4:	1117a623          	sw	a7,268(a5)

000004c8 <inst_34>:
     4c8:	11082507          	flw	fa0,272(a6)
     4cc:	11482587          	flw	fa1,276(a6)
     4d0:	00205073          	fsrmi	zero,0
     4d4:	00b57653          	fadd.s	fa2,fa0,fa1
     4d8:	001028f3          	frflags	a7
     4dc:	10c7a827          	fsw	fa2,272(a5)
     4e0:	1117aa23          	sw	a7,276(a5)

000004e4 <inst_35>:
     4e4:	11882507          	flw	fa0,280(a6)
     4e8:	11c82587          	flw	fa1,284(a6)
     4ec:	00205073          	fsrmi	zero,0
     4f0:	00b57653          	fadd.s	fa2,fa0,fa1
     4f4:	001028f3          	frflags	a7
     4f8:	10c7ac27          	fsw	fa2,280(a5)
     4fc:	1117ae23          	sw	a7,284(a5)

00000500 <inst_36>:
     500:	12082507          	flw	fa0,288(a6)
     504:	12482587          	flw	fa1,292(a6)
     508:	00205073          	fsrmi	zero,0
     50c:	00b57653          	fadd.s	fa2,fa0,fa1
     510:	001028f3          	frflags	a7
     514:	12c7a027          	fsw	fa2,288(a5)
     518:	1317a223          	sw	a7,292(a5)

0000051c <inst_37>:
     51c:	12882507          	flw	fa0,296(a6)
     520:	12c82587          	flw	fa1,300(a6)
     524:	00205073          	fsrmi	zero,0
     528:	00b57653          	fadd.s	fa2,fa0,fa1
     52c:	001028f3          	frflags	a7
     530:	12c7a427          	fsw	fa2,296(a5)
     534:	1317a623          	sw	a7,300(a5)

00000538 <inst_38>:
     538:	13082507          	flw	fa0,304(a6)
     53c:	13482587          	flw	fa1,308(a6)
     540:	00205073          	fsrmi	zero,0
     544:	00b57653          	fadd.s	fa2,fa0,fa1
     548:	001028f3          	frflags	a7
     54c:	12c7a827          	fsw	fa2,304(a5)
     550:	1317aa23          	sw	a7,308(a5)

00000554 <inst_39>:
     554:	13882507          	flw	fa0,312(a6)
     558:	13c82587          	flw	fa1,316(a6)
     55c:	00205073          	fsrmi	zero,0
     560:	00b57653          	fadd.s	fa2,fa0,fa1
     564:	001028f3          	frflags	a7
     568:	12c7ac27          	fsw	fa2,312(a5)
     56c:	1317ae23          	sw	a7,316(a5)

00000570 <inst_40>:
     570:	14082507          	flw	fa0,320(a6)
     574:	14482587          	flw	fa1,324(a6)
     578:	00205073          	fsrmi	zero,0
     57c:	00b57653          	fadd.s	fa2,fa0,fa1
     580:	001028f3          	frflags	a7
     584:	14c7a027          	fsw	fa2,320(a5)
     588:	1517a223          	sw	a7,324(a5)

0000058c <inst_41>:
     58c:	14882507          	flw	fa0,328(a6)
     590:	14c82587          	flw	fa1,332(a6)
     594:	00205073          	fsrmi	zero,0
     598:	00b57653          	fadd.s	fa2,fa0,fa1
     59c:	001028f3          	frflags	a7
     5a0:	14c7a427          	fsw	fa2,328(a5)
     5a4:	1517a623          	sw	a7,332(a5)

000005a8 <inst_42>:
     5a8:	15082507          	flw	fa0,336(a6)
     5ac:	15482587          	flw	fa1,340(a6)
     5b0:	00205073          	fsrmi	zero,0
     5b4:	00b57653          	fadd.s	fa2,fa0,fa1
     5b8:	001028f3          	frflags	a7
     5bc:	14c7a827          	fsw	fa2,336(a5)
     5c0:	1517aa23          	sw	a7,340(a5)

000005c4 <inst_43>:
     5c4:	15882507          	flw	fa0,344(a6)
     5c8:	15c82587          	flw	fa1,348(a6)
     5cc:	00205073          	fsrmi	zero,0
     5d0:	00b57653          	fadd.s	fa2,fa0,fa1
     5d4:	001028f3          	frflags	a7
     5d8:	14c7ac27          	fsw	fa2,344(a5)
     5dc:	1517ae23          	sw	a7,348(a5)

000005e0 <inst_44>:
     5e0:	16082507          	flw	fa0,352(a6)
     5e4:	16482587          	flw	fa1,356(a6)
     5e8:	00205073          	fsrmi	zero,0
     5ec:	00b57653          	fadd.s	fa2,fa0,fa1
     5f0:	001028f3          	frflags	a7
     5f4:	16c7a027          	fsw	fa2,352(a5)
     5f8:	1717a223          	sw	a7,356(a5)

000005fc <inst_45>:
     5fc:	16882507          	flw	fa0,360(a6)
     600:	16c82587          	flw	fa1,364(a6)
     604:	00205073          	fsrmi	zero,0
     608:	00b57653          	fadd.s	fa2,fa0,fa1
     60c:	001028f3          	frflags	a7
     610:	16c7a427          	fsw	fa2,360(a5)
     614:	1717a623          	sw	a7,364(a5)

00000618 <inst_46>:
     618:	17082507          	flw	fa0,368(a6)
     61c:	17482587          	flw	fa1,372(a6)
     620:	00205073          	fsrmi	zero,0
     624:	00b57653          	fadd.s	fa2,fa0,fa1
     628:	001028f3          	frflags	a7
     62c:	16c7a827          	fsw	fa2,368(a5)
     630:	1717aa23          	sw	a7,372(a5)

00000634 <inst_47>:
     634:	17882507          	flw	fa0,376(a6)
     638:	17c82587          	flw	fa1,380(a6)
     63c:	00205073          	fsrmi	zero,0
     640:	00b57653          	fadd.s	fa2,fa0,fa1
     644:	001028f3          	frflags	a7
     648:	16c7ac27          	fsw	fa2,376(a5)
     64c:	1717ae23          	sw	a7,380(a5)

00000650 <inst_48>:
     650:	18082507          	flw	fa0,384(a6)
     654:	18482587          	flw	fa1,388(a6)
     658:	00205073          	fsrmi	zero,0
     65c:	00b57653          	fadd.s	fa2,fa0,fa1
     660:	001028f3          	frflags	a7
     664:	18c7a027          	fsw	fa2,384(a5)
     668:	1917a223          	sw	a7,388(a5)

0000066c <inst_49>:
     66c:	18882507          	flw	fa0,392(a6)
     670:	18c82587          	flw	fa1,396(a6)
     674:	00205073          	fsrmi	zero,0
     678:	00b57653          	fadd.s	fa2,fa0,fa1
     67c:	001028f3          	frflags	a7
     680:	18c7a427          	fsw	fa2,392(a5)
     684:	1917a623          	sw	a7,396(a5)

00000688 <inst_50>:
     688:	19082507          	flw	fa0,400(a6)
     68c:	19482587          	flw	fa1,404(a6)
     690:	00205073          	fsrmi	zero,0
     694:	00b57653          	fadd.s	fa2,fa0,fa1
     698:	001028f3          	frflags	a7
     69c:	18c7a827          	fsw	fa2,400(a5)
     6a0:	1917aa23          	sw	a7,404(a5)

000006a4 <inst_51>:
     6a4:	19882507          	flw	fa0,408(a6)
     6a8:	19c82587          	flw	fa1,412(a6)
     6ac:	00205073          	fsrmi	zero,0
     6b0:	00b57653          	fadd.s	fa2,fa0,fa1
     6b4:	001028f3          	frflags	a7
     6b8:	18c7ac27          	fsw	fa2,408(a5)
     6bc:	1917ae23          	sw	a7,412(a5)

000006c0 <inst_52>:
     6c0:	1a082507          	flw	fa0,416(a6)
     6c4:	1a482587          	flw	fa1,420(a6)
     6c8:	00205073          	fsrmi	zero,0
     6cc:	00b57653          	fadd.s	fa2,fa0,fa1
     6d0:	001028f3          	frflags	a7
     6d4:	1ac7a027          	fsw	fa2,416(a5)
     6d8:	1b17a223          	sw	a7,420(a5)

000006dc <inst_53>:
     6dc:	1a882507          	flw	fa0,424(a6)
     6e0:	1ac82587          	flw	fa1,428(a6)
     6e4:	00205073          	fsrmi	zero,0
     6e8:	00b57653          	fadd.s	fa2,fa0,fa1
     6ec:	001028f3          	frflags	a7
     6f0:	1ac7a427          	fsw	fa2,424(a5)
     6f4:	1b17a623          	sw	a7,428(a5)

000006f8 <inst_54>:
     6f8:	1b082507          	flw	fa0,432(a6)
     6fc:	1b482587          	flw	fa1,436(a6)
     700:	00205073          	fsrmi	zero,0
     704:	00b57653          	fadd.s	fa2,fa0,fa1
     708:	001028f3          	frflags	a7
     70c:	1ac7a827          	fsw	fa2,432(a5)
     710:	1b17aa23          	sw	a7,436(a5)

00000714 <inst_55>:
     714:	1b882507          	flw	fa0,440(a6)
     718:	1bc82587          	flw	fa1,444(a6)
     71c:	00205073          	fsrmi	zero,0
     720:	00b57653          	fadd.s	fa2,fa0,fa1
     724:	001028f3          	frflags	a7
     728:	1ac7ac27          	fsw	fa2,440(a5)
     72c:	1b17ae23          	sw	a7,444(a5)

00000730 <inst_56>:
     730:	1c082507          	flw	fa0,448(a6)
     734:	1c482587          	flw	fa1,452(a6)
     738:	00205073          	fsrmi	zero,0
     73c:	00b57653          	fadd.s	fa2,fa0,fa1
     740:	001028f3          	frflags	a7
     744:	1cc7a027          	fsw	fa2,448(a5)
     748:	1d17a223          	sw	a7,452(a5)

0000074c <inst_57>:
     74c:	1c882507          	flw	fa0,456(a6)
     750:	1cc82587          	flw	fa1,460(a6)
     754:	00205073          	fsrmi	zero,0
     758:	00b57653          	fadd.s	fa2,fa0,fa1
     75c:	001028f3          	frflags	a7
     760:	1cc7a427          	fsw	fa2,456(a5)
     764:	1d17a623          	sw	a7,460(a5)

00000768 <inst_58>:
     768:	1d082507          	flw	fa0,464(a6)
     76c:	1d482587          	flw	fa1,468(a6)
     770:	00205073          	fsrmi	zero,0
     774:	00b57653          	fadd.s	fa2,fa0,fa1
     778:	001028f3          	frflags	a7
     77c:	1cc7a827          	fsw	fa2,464(a5)
     780:	1d17aa23          	sw	a7,468(a5)

00000784 <inst_59>:
     784:	1d882507          	flw	fa0,472(a6)
     788:	1dc82587          	flw	fa1,476(a6)
     78c:	00205073          	fsrmi	zero,0
     790:	00b57653          	fadd.s	fa2,fa0,fa1
     794:	001028f3          	frflags	a7
     798:	1cc7ac27          	fsw	fa2,472(a5)
     79c:	1d17ae23          	sw	a7,476(a5)

000007a0 <inst_60>:
     7a0:	1e082507          	flw	fa0,480(a6)
     7a4:	1e482587          	flw	fa1,484(a6)
     7a8:	00205073          	fsrmi	zero,0
     7ac:	00b57653          	fadd.s	fa2,fa0,fa1
     7b0:	001028f3          	frflags	a7
     7b4:	1ec7a027          	fsw	fa2,480(a5)
     7b8:	1f17a223          	sw	a7,484(a5)

000007bc <inst_61>:
     7bc:	1e882507          	flw	fa0,488(a6)
     7c0:	1ec82587          	flw	fa1,492(a6)
     7c4:	00205073          	fsrmi	zero,0
     7c8:	00b57653          	fadd.s	fa2,fa0,fa1
     7cc:	001028f3          	frflags	a7
     7d0:	1ec7a427          	fsw	fa2,488(a5)
     7d4:	1f17a623          	sw	a7,492(a5)

000007d8 <inst_62>:
     7d8:	1f082507          	flw	fa0,496(a6)
     7dc:	1f482587          	flw	fa1,500(a6)
     7e0:	00205073          	fsrmi	zero,0
     7e4:	00b57653          	fadd.s	fa2,fa0,fa1
     7e8:	001028f3          	frflags	a7
     7ec:	1ec7a827          	fsw	fa2,496(a5)
     7f0:	1f17aa23          	sw	a7,500(a5)

000007f4 <inst_63>:
     7f4:	1f882507          	flw	fa0,504(a6)
     7f8:	1fc82587          	flw	fa1,508(a6)
     7fc:	00205073          	fsrmi	zero,0
     800:	00b57653          	fadd.s	fa2,fa0,fa1
     804:	001028f3          	frflags	a7
     808:	1ec7ac27          	fsw	fa2,504(a5)
     80c:	1f17ae23          	sw	a7,508(a5)

00000810 <inst_64>:
     810:	20082507          	flw	fa0,512(a6)
     814:	20482587          	flw	fa1,516(a6)
     818:	00205073          	fsrmi	zero,0
     81c:	00b57653          	fadd.s	fa2,fa0,fa1
     820:	001028f3          	frflags	a7
     824:	20c7a027          	fsw	fa2,512(a5)
     828:	2117a223          	sw	a7,516(a5)

0000082c <inst_65>:
     82c:	20882507          	flw	fa0,520(a6)
     830:	20c82587          	flw	fa1,524(a6)
     834:	00205073          	fsrmi	zero,0
     838:	00b57653          	fadd.s	fa2,fa0,fa1
     83c:	001028f3          	frflags	a7
     840:	20c7a427          	fsw	fa2,520(a5)
     844:	2117a623          	sw	a7,524(a5)

00000848 <inst_66>:
     848:	21082507          	flw	fa0,528(a6)
     84c:	21482587          	flw	fa1,532(a6)
     850:	00205073          	fsrmi	zero,0
     854:	00b57653          	fadd.s	fa2,fa0,fa1
     858:	001028f3          	frflags	a7
     85c:	20c7a827          	fsw	fa2,528(a5)
     860:	2117aa23          	sw	a7,532(a5)

00000864 <inst_67>:
     864:	21882507          	flw	fa0,536(a6)
     868:	21c82587          	flw	fa1,540(a6)
     86c:	00205073          	fsrmi	zero,0
     870:	00b57653          	fadd.s	fa2,fa0,fa1
     874:	001028f3          	frflags	a7
     878:	20c7ac27          	fsw	fa2,536(a5)
     87c:	2117ae23          	sw	a7,540(a5)

00000880 <inst_68>:
     880:	22082507          	flw	fa0,544(a6)
     884:	22482587          	flw	fa1,548(a6)
     888:	00205073          	fsrmi	zero,0
     88c:	00b57653          	fadd.s	fa2,fa0,fa1
     890:	001028f3          	frflags	a7
     894:	22c7a027          	fsw	fa2,544(a5)
     898:	2317a223          	sw	a7,548(a5)

0000089c <inst_69>:
     89c:	22882507          	flw	fa0,552(a6)
     8a0:	22c82587          	flw	fa1,556(a6)
     8a4:	00205073          	fsrmi	zero,0
     8a8:	00b57653          	fadd.s	fa2,fa0,fa1
     8ac:	001028f3          	frflags	a7
     8b0:	22c7a427          	fsw	fa2,552(a5)
     8b4:	2317a623          	sw	a7,556(a5)

000008b8 <inst_70>:
     8b8:	23082507          	flw	fa0,560(a6)
     8bc:	23482587          	flw	fa1,564(a6)
     8c0:	00205073          	fsrmi	zero,0
     8c4:	00b57653          	fadd.s	fa2,fa0,fa1
     8c8:	001028f3          	frflags	a7
     8cc:	22c7a827          	fsw	fa2,560(a5)
     8d0:	2317aa23          	sw	a7,564(a5)

000008d4 <inst_71>:
     8d4:	23882507          	flw	fa0,568(a6)
     8d8:	23c82587          	flw	fa1,572(a6)
     8dc:	00205073          	fsrmi	zero,0
     8e0:	00b57653          	fadd.s	fa2,fa0,fa1
     8e4:	001028f3          	frflags	a7
     8e8:	22c7ac27          	fsw	fa2,568(a5)
     8ec:	2317ae23          	sw	a7,572(a5)

000008f0 <inst_72>:
     8f0:	24082507          	flw	fa0,576(a6)
     8f4:	24482587          	flw	fa1,580(a6)
     8f8:	00205073          	fsrmi	zero,0
     8fc:	00b57653          	fadd.s	fa2,fa0,fa1
     900:	001028f3          	frflags	a7
     904:	24c7a027          	fsw	fa2,576(a5)
     908:	2517a223          	sw	a7,580(a5)

0000090c <inst_73>:
     90c:	24882507          	flw	fa0,584(a6)
     910:	24c82587          	flw	fa1,588(a6)
     914:	00205073          	fsrmi	zero,0
     918:	00b57653          	fadd.s	fa2,fa0,fa1
     91c:	001028f3          	frflags	a7
     920:	24c7a427          	fsw	fa2,584(a5)
     924:	2517a623          	sw	a7,588(a5)

00000928 <inst_74>:
     928:	25082507          	flw	fa0,592(a6)
     92c:	25482587          	flw	fa1,596(a6)
     930:	00205073          	fsrmi	zero,0
     934:	00b57653          	fadd.s	fa2,fa0,fa1
     938:	001028f3          	frflags	a7
     93c:	24c7a827          	fsw	fa2,592(a5)
     940:	2517aa23          	sw	a7,596(a5)

00000944 <inst_75>:
     944:	25882507          	flw	fa0,600(a6)
     948:	25c82587          	flw	fa1,604(a6)
     94c:	00205073          	fsrmi	zero,0
     950:	00b57653          	fadd.s	fa2,fa0,fa1
     954:	001028f3          	frflags	a7
     958:	24c7ac27          	fsw	fa2,600(a5)
     95c:	2517ae23          	sw	a7,604(a5)

00000960 <inst_76>:
     960:	26082507          	flw	fa0,608(a6)
     964:	26482587          	flw	fa1,612(a6)
     968:	00205073          	fsrmi	zero,0
     96c:	00b57653          	fadd.s	fa2,fa0,fa1
     970:	001028f3          	frflags	a7
     974:	26c7a027          	fsw	fa2,608(a5)
     978:	2717a223          	sw	a7,612(a5)

0000097c <inst_77>:
     97c:	26882507          	flw	fa0,616(a6)
     980:	26c82587          	flw	fa1,620(a6)
     984:	00205073          	fsrmi	zero,0
     988:	00b57653          	fadd.s	fa2,fa0,fa1
     98c:	001028f3          	frflags	a7
     990:	26c7a427          	fsw	fa2,616(a5)
     994:	2717a623          	sw	a7,620(a5)

00000998 <inst_78>:
     998:	27082507          	flw	fa0,624(a6)
     99c:	27482587          	flw	fa1,628(a6)
     9a0:	00205073          	fsrmi	zero,0
     9a4:	00b57653          	fadd.s	fa2,fa0,fa1
     9a8:	001028f3          	frflags	a7
     9ac:	26c7a827          	fsw	fa2,624(a5)
     9b0:	2717aa23          	sw	a7,628(a5)

000009b4 <inst_79>:
     9b4:	27882507          	flw	fa0,632(a6)
     9b8:	27c82587          	flw	fa1,636(a6)
     9bc:	00205073          	fsrmi	zero,0
     9c0:	00b57653          	fadd.s	fa2,fa0,fa1
     9c4:	001028f3          	frflags	a7
     9c8:	26c7ac27          	fsw	fa2,632(a5)
     9cc:	2717ae23          	sw	a7,636(a5)

000009d0 <inst_80>:
     9d0:	28082507          	flw	fa0,640(a6)
     9d4:	28482587          	flw	fa1,644(a6)
     9d8:	00205073          	fsrmi	zero,0
     9dc:	00b57653          	fadd.s	fa2,fa0,fa1
     9e0:	001028f3          	frflags	a7
     9e4:	28c7a027          	fsw	fa2,640(a5)
     9e8:	2917a223          	sw	a7,644(a5)

000009ec <inst_81>:
     9ec:	28882507          	flw	fa0,648(a6)
     9f0:	28c82587          	flw	fa1,652(a6)
     9f4:	00205073          	fsrmi	zero,0
     9f8:	00b57653          	fadd.s	fa2,fa0,fa1
     9fc:	001028f3          	frflags	a7
     a00:	28c7a427          	fsw	fa2,648(a5)
     a04:	2917a623          	sw	a7,652(a5)

00000a08 <inst_82>:
     a08:	29082507          	flw	fa0,656(a6)
     a0c:	29482587          	flw	fa1,660(a6)
     a10:	00205073          	fsrmi	zero,0
     a14:	00b57653          	fadd.s	fa2,fa0,fa1
     a18:	001028f3          	frflags	a7
     a1c:	28c7a827          	fsw	fa2,656(a5)
     a20:	2917aa23          	sw	a7,660(a5)

00000a24 <inst_83>:
     a24:	29882507          	flw	fa0,664(a6)
     a28:	29c82587          	flw	fa1,668(a6)
     a2c:	00205073          	fsrmi	zero,0
     a30:	00b57653          	fadd.s	fa2,fa0,fa1
     a34:	001028f3          	frflags	a7
     a38:	28c7ac27          	fsw	fa2,664(a5)
     a3c:	2917ae23          	sw	a7,668(a5)

00000a40 <inst_84>:
     a40:	2a082507          	flw	fa0,672(a6)
     a44:	2a482587          	flw	fa1,676(a6)
     a48:	00205073          	fsrmi	zero,0
     a4c:	00b57653          	fadd.s	fa2,fa0,fa1
     a50:	001028f3          	frflags	a7
     a54:	2ac7a027          	fsw	fa2,672(a5)
     a58:	2b17a223          	sw	a7,676(a5)

00000a5c <inst_85>:
     a5c:	2a882507          	flw	fa0,680(a6)
     a60:	2ac82587          	flw	fa1,684(a6)
     a64:	00205073          	fsrmi	zero,0
     a68:	00b57653          	fadd.s	fa2,fa0,fa1
     a6c:	001028f3          	frflags	a7
     a70:	2ac7a427          	fsw	fa2,680(a5)
     a74:	2b17a623          	sw	a7,684(a5)

00000a78 <inst_86>:
     a78:	2b082507          	flw	fa0,688(a6)
     a7c:	2b482587          	flw	fa1,692(a6)
     a80:	00205073          	fsrmi	zero,0
     a84:	00b57653          	fadd.s	fa2,fa0,fa1
     a88:	001028f3          	frflags	a7
     a8c:	2ac7a827          	fsw	fa2,688(a5)
     a90:	2b17aa23          	sw	a7,692(a5)

00000a94 <inst_87>:
     a94:	2b882507          	flw	fa0,696(a6)
     a98:	2bc82587          	flw	fa1,700(a6)
     a9c:	00205073          	fsrmi	zero,0
     aa0:	00b57653          	fadd.s	fa2,fa0,fa1
     aa4:	001028f3          	frflags	a7
     aa8:	2ac7ac27          	fsw	fa2,696(a5)
     aac:	2b17ae23          	sw	a7,700(a5)

00000ab0 <inst_88>:
     ab0:	2c082507          	flw	fa0,704(a6)
     ab4:	2c482587          	flw	fa1,708(a6)
     ab8:	00205073          	fsrmi	zero,0
     abc:	00b57653          	fadd.s	fa2,fa0,fa1
     ac0:	001028f3          	frflags	a7
     ac4:	2cc7a027          	fsw	fa2,704(a5)
     ac8:	2d17a223          	sw	a7,708(a5)

00000acc <inst_89>:
     acc:	2c882507          	flw	fa0,712(a6)
     ad0:	2cc82587          	flw	fa1,716(a6)
     ad4:	00205073          	fsrmi	zero,0
     ad8:	00b57653          	fadd.s	fa2,fa0,fa1
     adc:	001028f3          	frflags	a7
     ae0:	2cc7a427          	fsw	fa2,712(a5)
     ae4:	2d17a623          	sw	a7,716(a5)

00000ae8 <inst_90>:
     ae8:	2d082507          	flw	fa0,720(a6)
     aec:	2d482587          	flw	fa1,724(a6)
     af0:	00205073          	fsrmi	zero,0
     af4:	00b57653          	fadd.s	fa2,fa0,fa1
     af8:	001028f3          	frflags	a7
     afc:	2cc7a827          	fsw	fa2,720(a5)
     b00:	2d17aa23          	sw	a7,724(a5)

00000b04 <inst_91>:
     b04:	2d882507          	flw	fa0,728(a6)
     b08:	2dc82587          	flw	fa1,732(a6)
     b0c:	00205073          	fsrmi	zero,0
     b10:	00b57653          	fadd.s	fa2,fa0,fa1
     b14:	001028f3          	frflags	a7
     b18:	2cc7ac27          	fsw	fa2,728(a5)
     b1c:	2d17ae23          	sw	a7,732(a5)

00000b20 <inst_92>:
     b20:	2e082507          	flw	fa0,736(a6)
     b24:	2e482587          	flw	fa1,740(a6)
     b28:	00205073          	fsrmi	zero,0
     b2c:	00b57653          	fadd.s	fa2,fa0,fa1
     b30:	001028f3          	frflags	a7
     b34:	2ec7a027          	fsw	fa2,736(a5)
     b38:	2f17a223          	sw	a7,740(a5)

00000b3c <inst_93>:
     b3c:	2e882507          	flw	fa0,744(a6)
     b40:	2ec82587          	flw	fa1,748(a6)
     b44:	00205073          	fsrmi	zero,0
     b48:	00b57653          	fadd.s	fa2,fa0,fa1
     b4c:	001028f3          	frflags	a7
     b50:	2ec7a427          	fsw	fa2,744(a5)
     b54:	2f17a623          	sw	a7,748(a5)

00000b58 <inst_94>:
     b58:	2f082507          	flw	fa0,752(a6)
     b5c:	2f482587          	flw	fa1,756(a6)
     b60:	00205073          	fsrmi	zero,0
     b64:	00b57653          	fadd.s	fa2,fa0,fa1
     b68:	001028f3          	frflags	a7
     b6c:	2ec7a827          	fsw	fa2,752(a5)
     b70:	2f17aa23          	sw	a7,756(a5)

00000b74 <inst_95>:
     b74:	2f882507          	flw	fa0,760(a6)
     b78:	2fc82587          	flw	fa1,764(a6)
     b7c:	00205073          	fsrmi	zero,0
     b80:	00b57653          	fadd.s	fa2,fa0,fa1
     b84:	001028f3          	frflags	a7
     b88:	2ec7ac27          	fsw	fa2,760(a5)
     b8c:	2f17ae23          	sw	a7,764(a5)

00000b90 <inst_96>:
     b90:	30082507          	flw	fa0,768(a6)
     b94:	30482587          	flw	fa1,772(a6)
     b98:	00205073          	fsrmi	zero,0
     b9c:	00b57653          	fadd.s	fa2,fa0,fa1
     ba0:	001028f3          	frflags	a7
     ba4:	30c7a027          	fsw	fa2,768(a5)
     ba8:	3117a223          	sw	a7,772(a5)

00000bac <inst_97>:
     bac:	30882507          	flw	fa0,776(a6)
     bb0:	30c82587          	flw	fa1,780(a6)
     bb4:	00205073          	fsrmi	zero,0
     bb8:	00b57653          	fadd.s	fa2,fa0,fa1
     bbc:	001028f3          	frflags	a7
     bc0:	30c7a427          	fsw	fa2,776(a5)
     bc4:	3117a623          	sw	a7,780(a5)

00000bc8 <inst_98>:
     bc8:	31082507          	flw	fa0,784(a6)
     bcc:	31482587          	flw	fa1,788(a6)
     bd0:	00205073          	fsrmi	zero,0
     bd4:	00b57653          	fadd.s	fa2,fa0,fa1
     bd8:	001028f3          	frflags	a7
     bdc:	30c7a827          	fsw	fa2,784(a5)
     be0:	3117aa23          	sw	a7,788(a5)

00000be4 <inst_99>:
     be4:	31882507          	flw	fa0,792(a6)
     be8:	31c82587          	flw	fa1,796(a6)
     bec:	00205073          	fsrmi	zero,0
     bf0:	00b57653          	fadd.s	fa2,fa0,fa1
     bf4:	001028f3          	frflags	a7
     bf8:	30c7ac27          	fsw	fa2,792(a5)
     bfc:	3117ae23          	sw	a7,796(a5)

00000c00 <inst_100>:
     c00:	32082507          	flw	fa0,800(a6)
     c04:	32482587          	flw	fa1,804(a6)
     c08:	00205073          	fsrmi	zero,0
     c0c:	00b57653          	fadd.s	fa2,fa0,fa1
     c10:	001028f3          	frflags	a7
     c14:	32c7a027          	fsw	fa2,800(a5)
     c18:	3317a223          	sw	a7,804(a5)

00000c1c <inst_101>:
     c1c:	32882507          	flw	fa0,808(a6)
     c20:	32c82587          	flw	fa1,812(a6)
     c24:	00205073          	fsrmi	zero,0
     c28:	00b57653          	fadd.s	fa2,fa0,fa1
     c2c:	001028f3          	frflags	a7
     c30:	32c7a427          	fsw	fa2,808(a5)
     c34:	3317a623          	sw	a7,812(a5)

00000c38 <inst_102>:
     c38:	33082507          	flw	fa0,816(a6)
     c3c:	33482587          	flw	fa1,820(a6)
     c40:	00205073          	fsrmi	zero,0
     c44:	00b57653          	fadd.s	fa2,fa0,fa1
     c48:	001028f3          	frflags	a7
     c4c:	32c7a827          	fsw	fa2,816(a5)
     c50:	3317aa23          	sw	a7,820(a5)

00000c54 <inst_103>:
     c54:	33882507          	flw	fa0,824(a6)
     c58:	33c82587          	flw	fa1,828(a6)
     c5c:	00205073          	fsrmi	zero,0
     c60:	00b57653          	fadd.s	fa2,fa0,fa1
     c64:	001028f3          	frflags	a7
     c68:	32c7ac27          	fsw	fa2,824(a5)
     c6c:	3317ae23          	sw	a7,828(a5)

00000c70 <inst_104>:
     c70:	34082507          	flw	fa0,832(a6)
     c74:	34482587          	flw	fa1,836(a6)
     c78:	00205073          	fsrmi	zero,0
     c7c:	00b57653          	fadd.s	fa2,fa0,fa1
     c80:	001028f3          	frflags	a7
     c84:	34c7a027          	fsw	fa2,832(a5)
     c88:	3517a223          	sw	a7,836(a5)

00000c8c <inst_105>:
     c8c:	34882507          	flw	fa0,840(a6)
     c90:	34c82587          	flw	fa1,844(a6)
     c94:	00205073          	fsrmi	zero,0
     c98:	00b57653          	fadd.s	fa2,fa0,fa1
     c9c:	001028f3          	frflags	a7
     ca0:	34c7a427          	fsw	fa2,840(a5)
     ca4:	3517a623          	sw	a7,844(a5)

00000ca8 <inst_106>:
     ca8:	35082507          	flw	fa0,848(a6)
     cac:	35482587          	flw	fa1,852(a6)
     cb0:	00205073          	fsrmi	zero,0
     cb4:	00b57653          	fadd.s	fa2,fa0,fa1
     cb8:	001028f3          	frflags	a7
     cbc:	34c7a827          	fsw	fa2,848(a5)
     cc0:	3517aa23          	sw	a7,852(a5)

00000cc4 <inst_107>:
     cc4:	35882507          	flw	fa0,856(a6)
     cc8:	35c82587          	flw	fa1,860(a6)
     ccc:	00205073          	fsrmi	zero,0
     cd0:	00b57653          	fadd.s	fa2,fa0,fa1
     cd4:	001028f3          	frflags	a7
     cd8:	34c7ac27          	fsw	fa2,856(a5)
     cdc:	3517ae23          	sw	a7,860(a5)

00000ce0 <inst_108>:
     ce0:	36082507          	flw	fa0,864(a6)
     ce4:	36482587          	flw	fa1,868(a6)
     ce8:	00205073          	fsrmi	zero,0
     cec:	00b57653          	fadd.s	fa2,fa0,fa1
     cf0:	001028f3          	frflags	a7
     cf4:	36c7a027          	fsw	fa2,864(a5)
     cf8:	3717a223          	sw	a7,868(a5)

00000cfc <inst_109>:
     cfc:	36882507          	flw	fa0,872(a6)
     d00:	36c82587          	flw	fa1,876(a6)
     d04:	00205073          	fsrmi	zero,0
     d08:	00b57653          	fadd.s	fa2,fa0,fa1
     d0c:	001028f3          	frflags	a7
     d10:	36c7a427          	fsw	fa2,872(a5)
     d14:	3717a623          	sw	a7,876(a5)

00000d18 <inst_110>:
     d18:	37082507          	flw	fa0,880(a6)
     d1c:	37482587          	flw	fa1,884(a6)
     d20:	00205073          	fsrmi	zero,0
     d24:	00b57653          	fadd.s	fa2,fa0,fa1
     d28:	001028f3          	frflags	a7
     d2c:	36c7a827          	fsw	fa2,880(a5)
     d30:	3717aa23          	sw	a7,884(a5)

00000d34 <inst_111>:
     d34:	37882507          	flw	fa0,888(a6)
     d38:	37c82587          	flw	fa1,892(a6)
     d3c:	00205073          	fsrmi	zero,0
     d40:	00b57653          	fadd.s	fa2,fa0,fa1
     d44:	001028f3          	frflags	a7
     d48:	36c7ac27          	fsw	fa2,888(a5)
     d4c:	3717ae23          	sw	a7,892(a5)

00000d50 <inst_112>:
     d50:	38082507          	flw	fa0,896(a6)
     d54:	38482587          	flw	fa1,900(a6)
     d58:	00205073          	fsrmi	zero,0
     d5c:	00b57653          	fadd.s	fa2,fa0,fa1
     d60:	001028f3          	frflags	a7
     d64:	38c7a027          	fsw	fa2,896(a5)
     d68:	3917a223          	sw	a7,900(a5)

00000d6c <inst_113>:
     d6c:	38882507          	flw	fa0,904(a6)
     d70:	38c82587          	flw	fa1,908(a6)
     d74:	00205073          	fsrmi	zero,0
     d78:	00b57653          	fadd.s	fa2,fa0,fa1
     d7c:	001028f3          	frflags	a7
     d80:	38c7a427          	fsw	fa2,904(a5)
     d84:	3917a623          	sw	a7,908(a5)

00000d88 <inst_114>:
     d88:	39082507          	flw	fa0,912(a6)
     d8c:	39482587          	flw	fa1,916(a6)
     d90:	00205073          	fsrmi	zero,0
     d94:	00b57653          	fadd.s	fa2,fa0,fa1
     d98:	001028f3          	frflags	a7
     d9c:	38c7a827          	fsw	fa2,912(a5)
     da0:	3917aa23          	sw	a7,916(a5)

00000da4 <inst_115>:
     da4:	39882507          	flw	fa0,920(a6)
     da8:	39c82587          	flw	fa1,924(a6)
     dac:	00205073          	fsrmi	zero,0
     db0:	00b57653          	fadd.s	fa2,fa0,fa1
     db4:	001028f3          	frflags	a7
     db8:	38c7ac27          	fsw	fa2,920(a5)
     dbc:	3917ae23          	sw	a7,924(a5)

00000dc0 <inst_116>:
     dc0:	3a082507          	flw	fa0,928(a6)
     dc4:	3a482587          	flw	fa1,932(a6)
     dc8:	00205073          	fsrmi	zero,0
     dcc:	00b57653          	fadd.s	fa2,fa0,fa1
     dd0:	001028f3          	frflags	a7
     dd4:	3ac7a027          	fsw	fa2,928(a5)
     dd8:	3b17a223          	sw	a7,932(a5)

00000ddc <inst_117>:
     ddc:	3a882507          	flw	fa0,936(a6)
     de0:	3ac82587          	flw	fa1,940(a6)
     de4:	00205073          	fsrmi	zero,0
     de8:	00b57653          	fadd.s	fa2,fa0,fa1
     dec:	001028f3          	frflags	a7
     df0:	3ac7a427          	fsw	fa2,936(a5)
     df4:	3b17a623          	sw	a7,940(a5)

00000df8 <inst_118>:
     df8:	3b082507          	flw	fa0,944(a6)
     dfc:	3b482587          	flw	fa1,948(a6)
     e00:	00205073          	fsrmi	zero,0
     e04:	00b57653          	fadd.s	fa2,fa0,fa1
     e08:	001028f3          	frflags	a7
     e0c:	3ac7a827          	fsw	fa2,944(a5)
     e10:	3b17aa23          	sw	a7,948(a5)

00000e14 <inst_119>:
     e14:	3b882507          	flw	fa0,952(a6)
     e18:	3bc82587          	flw	fa1,956(a6)
     e1c:	00205073          	fsrmi	zero,0
     e20:	00b57653          	fadd.s	fa2,fa0,fa1
     e24:	001028f3          	frflags	a7
     e28:	3ac7ac27          	fsw	fa2,952(a5)
     e2c:	3b17ae23          	sw	a7,956(a5)

00000e30 <inst_120>:
     e30:	3c082507          	flw	fa0,960(a6)
     e34:	3c482587          	flw	fa1,964(a6)
     e38:	00205073          	fsrmi	zero,0
     e3c:	00b57653          	fadd.s	fa2,fa0,fa1
     e40:	001028f3          	frflags	a7
     e44:	3cc7a027          	fsw	fa2,960(a5)
     e48:	3d17a223          	sw	a7,964(a5)

00000e4c <inst_121>:
     e4c:	3c882507          	flw	fa0,968(a6)
     e50:	3cc82587          	flw	fa1,972(a6)
     e54:	00205073          	fsrmi	zero,0
     e58:	00b57653          	fadd.s	fa2,fa0,fa1
     e5c:	001028f3          	frflags	a7
     e60:	3cc7a427          	fsw	fa2,968(a5)
     e64:	3d17a623          	sw	a7,972(a5)

00000e68 <inst_122>:
     e68:	3d082507          	flw	fa0,976(a6)
     e6c:	3d482587          	flw	fa1,980(a6)
     e70:	00205073          	fsrmi	zero,0
     e74:	00b57653          	fadd.s	fa2,fa0,fa1
     e78:	001028f3          	frflags	a7
     e7c:	3cc7a827          	fsw	fa2,976(a5)
     e80:	3d17aa23          	sw	a7,980(a5)

00000e84 <inst_123>:
     e84:	3d882507          	flw	fa0,984(a6)
     e88:	3dc82587          	flw	fa1,988(a6)
     e8c:	00205073          	fsrmi	zero,0
     e90:	00b57653          	fadd.s	fa2,fa0,fa1
     e94:	001028f3          	frflags	a7
     e98:	3cc7ac27          	fsw	fa2,984(a5)
     e9c:	3d17ae23          	sw	a7,988(a5)

00000ea0 <inst_124>:
     ea0:	3e082507          	flw	fa0,992(a6)
     ea4:	3e482587          	flw	fa1,996(a6)
     ea8:	00205073          	fsrmi	zero,0
     eac:	00b57653          	fadd.s	fa2,fa0,fa1
     eb0:	001028f3          	frflags	a7
     eb4:	3ec7a027          	fsw	fa2,992(a5)
     eb8:	3f17a223          	sw	a7,996(a5)

00000ebc <inst_125>:
     ebc:	3e882507          	flw	fa0,1000(a6)
     ec0:	3ec82587          	flw	fa1,1004(a6)
     ec4:	00205073          	fsrmi	zero,0
     ec8:	00b57653          	fadd.s	fa2,fa0,fa1
     ecc:	001028f3          	frflags	a7
     ed0:	3ec7a427          	fsw	fa2,1000(a5)
     ed4:	3f17a623          	sw	a7,1004(a5)

00000ed8 <inst_126>:
     ed8:	3f082507          	flw	fa0,1008(a6)
     edc:	3f482587          	flw	fa1,1012(a6)
     ee0:	00205073          	fsrmi	zero,0
     ee4:	00b57653          	fadd.s	fa2,fa0,fa1
     ee8:	001028f3          	frflags	a7
     eec:	3ec7a827          	fsw	fa2,1008(a5)
     ef0:	3f17aa23          	sw	a7,1012(a5)

00000ef4 <inst_127>:
     ef4:	3f882507          	flw	fa0,1016(a6)
     ef8:	3fc82587          	flw	fa1,1020(a6)
     efc:	00205073          	fsrmi	zero,0
     f00:	00b57653          	fadd.s	fa2,fa0,fa1
     f04:	001028f3          	frflags	a7
     f08:	3ec7ac27          	fsw	fa2,1016(a5)
     f0c:	3f17ae23          	sw	a7,1020(a5)

00000f10 <inst_128>:
     f10:	40082507          	flw	fa0,1024(a6)
     f14:	40482587          	flw	fa1,1028(a6)
     f18:	00205073          	fsrmi	zero,0
     f1c:	00b57653          	fadd.s	fa2,fa0,fa1
     f20:	001028f3          	frflags	a7
     f24:	40c7a027          	fsw	fa2,1024(a5)
     f28:	4117a223          	sw	a7,1028(a5)

00000f2c <inst_129>:
     f2c:	40882507          	flw	fa0,1032(a6)
     f30:	40c82587          	flw	fa1,1036(a6)
     f34:	00205073          	fsrmi	zero,0
     f38:	00b57653          	fadd.s	fa2,fa0,fa1
     f3c:	001028f3          	frflags	a7
     f40:	40c7a427          	fsw	fa2,1032(a5)
     f44:	4117a623          	sw	a7,1036(a5)

00000f48 <inst_130>:
     f48:	41082507          	flw	fa0,1040(a6)
     f4c:	41482587          	flw	fa1,1044(a6)
     f50:	00205073          	fsrmi	zero,0
     f54:	00b57653          	fadd.s	fa2,fa0,fa1
     f58:	001028f3          	frflags	a7
     f5c:	40c7a827          	fsw	fa2,1040(a5)
     f60:	4117aa23          	sw	a7,1044(a5)

00000f64 <inst_131>:
     f64:	41882507          	flw	fa0,1048(a6)
     f68:	41c82587          	flw	fa1,1052(a6)
     f6c:	00205073          	fsrmi	zero,0
     f70:	00b57653          	fadd.s	fa2,fa0,fa1
     f74:	001028f3          	frflags	a7
     f78:	40c7ac27          	fsw	fa2,1048(a5)
     f7c:	4117ae23          	sw	a7,1052(a5)

00000f80 <inst_132>:
     f80:	42082507          	flw	fa0,1056(a6)
     f84:	42482587          	flw	fa1,1060(a6)
     f88:	00205073          	fsrmi	zero,0
     f8c:	00b57653          	fadd.s	fa2,fa0,fa1
     f90:	001028f3          	frflags	a7
     f94:	42c7a027          	fsw	fa2,1056(a5)
     f98:	4317a223          	sw	a7,1060(a5)

00000f9c <inst_133>:
     f9c:	42882507          	flw	fa0,1064(a6)
     fa0:	42c82587          	flw	fa1,1068(a6)
     fa4:	00205073          	fsrmi	zero,0
     fa8:	00b57653          	fadd.s	fa2,fa0,fa1
     fac:	001028f3          	frflags	a7
     fb0:	42c7a427          	fsw	fa2,1064(a5)
     fb4:	4317a623          	sw	a7,1068(a5)

00000fb8 <inst_134>:
     fb8:	43082507          	flw	fa0,1072(a6)
     fbc:	43482587          	flw	fa1,1076(a6)
     fc0:	00205073          	fsrmi	zero,0
     fc4:	00b57653          	fadd.s	fa2,fa0,fa1
     fc8:	001028f3          	frflags	a7
     fcc:	42c7a827          	fsw	fa2,1072(a5)
     fd0:	4317aa23          	sw	a7,1076(a5)

00000fd4 <inst_135>:
     fd4:	43882507          	flw	fa0,1080(a6)
     fd8:	43c82587          	flw	fa1,1084(a6)
     fdc:	00205073          	fsrmi	zero,0
     fe0:	00b57653          	fadd.s	fa2,fa0,fa1
     fe4:	001028f3          	frflags	a7
     fe8:	42c7ac27          	fsw	fa2,1080(a5)
     fec:	4317ae23          	sw	a7,1084(a5)

00000ff0 <inst_136>:
     ff0:	44082507          	flw	fa0,1088(a6)
     ff4:	44482587          	flw	fa1,1092(a6)
     ff8:	00205073          	fsrmi	zero,0
     ffc:	00b57653          	fadd.s	fa2,fa0,fa1
    1000:	001028f3          	frflags	a7
    1004:	44c7a027          	fsw	fa2,1088(a5)
    1008:	4517a223          	sw	a7,1092(a5)

0000100c <inst_137>:
    100c:	44882507          	flw	fa0,1096(a6)
    1010:	44c82587          	flw	fa1,1100(a6)
    1014:	00205073          	fsrmi	zero,0
    1018:	00b57653          	fadd.s	fa2,fa0,fa1
    101c:	001028f3          	frflags	a7
    1020:	44c7a427          	fsw	fa2,1096(a5)
    1024:	4517a623          	sw	a7,1100(a5)

00001028 <inst_138>:
    1028:	45082507          	flw	fa0,1104(a6)
    102c:	45482587          	flw	fa1,1108(a6)
    1030:	00205073          	fsrmi	zero,0
    1034:	00b57653          	fadd.s	fa2,fa0,fa1
    1038:	001028f3          	frflags	a7
    103c:	44c7a827          	fsw	fa2,1104(a5)
    1040:	4517aa23          	sw	a7,1108(a5)

00001044 <inst_139>:
    1044:	45882507          	flw	fa0,1112(a6)
    1048:	45c82587          	flw	fa1,1116(a6)
    104c:	00205073          	fsrmi	zero,0
    1050:	00b57653          	fadd.s	fa2,fa0,fa1
    1054:	001028f3          	frflags	a7
    1058:	44c7ac27          	fsw	fa2,1112(a5)
    105c:	4517ae23          	sw	a7,1116(a5)

00001060 <inst_140>:
    1060:	46082507          	flw	fa0,1120(a6)
    1064:	46482587          	flw	fa1,1124(a6)
    1068:	00205073          	fsrmi	zero,0
    106c:	00b57653          	fadd.s	fa2,fa0,fa1
    1070:	001028f3          	frflags	a7
    1074:	46c7a027          	fsw	fa2,1120(a5)
    1078:	4717a223          	sw	a7,1124(a5)

0000107c <inst_141>:
    107c:	46882507          	flw	fa0,1128(a6)
    1080:	46c82587          	flw	fa1,1132(a6)
    1084:	00205073          	fsrmi	zero,0
    1088:	00b57653          	fadd.s	fa2,fa0,fa1
    108c:	001028f3          	frflags	a7
    1090:	46c7a427          	fsw	fa2,1128(a5)
    1094:	4717a623          	sw	a7,1132(a5)

00001098 <inst_142>:
    1098:	47082507          	flw	fa0,1136(a6)
    109c:	47482587          	flw	fa1,1140(a6)
    10a0:	00205073          	fsrmi	zero,0
    10a4:	00b57653          	fadd.s	fa2,fa0,fa1
    10a8:	001028f3          	frflags	a7
    10ac:	46c7a827          	fsw	fa2,1136(a5)
    10b0:	4717aa23          	sw	a7,1140(a5)

000010b4 <inst_143>:
    10b4:	47882507          	flw	fa0,1144(a6)
    10b8:	47c82587          	flw	fa1,1148(a6)
    10bc:	00205073          	fsrmi	zero,0
    10c0:	00b57653          	fadd.s	fa2,fa0,fa1
    10c4:	001028f3          	frflags	a7
    10c8:	46c7ac27          	fsw	fa2,1144(a5)
    10cc:	4717ae23          	sw	a7,1148(a5)

000010d0 <inst_144>:
    10d0:	48082507          	flw	fa0,1152(a6)
    10d4:	48482587          	flw	fa1,1156(a6)
    10d8:	00205073          	fsrmi	zero,0
    10dc:	00b57653          	fadd.s	fa2,fa0,fa1
    10e0:	001028f3          	frflags	a7
    10e4:	48c7a027          	fsw	fa2,1152(a5)
    10e8:	4917a223          	sw	a7,1156(a5)

000010ec <inst_145>:
    10ec:	48882507          	flw	fa0,1160(a6)
    10f0:	48c82587          	flw	fa1,1164(a6)
    10f4:	00205073          	fsrmi	zero,0
    10f8:	00b57653          	fadd.s	fa2,fa0,fa1
    10fc:	001028f3          	frflags	a7
    1100:	48c7a427          	fsw	fa2,1160(a5)
    1104:	4917a623          	sw	a7,1164(a5)

00001108 <inst_146>:
    1108:	49082507          	flw	fa0,1168(a6)
    110c:	49482587          	flw	fa1,1172(a6)
    1110:	00205073          	fsrmi	zero,0
    1114:	00b57653          	fadd.s	fa2,fa0,fa1
    1118:	001028f3          	frflags	a7
    111c:	48c7a827          	fsw	fa2,1168(a5)
    1120:	4917aa23          	sw	a7,1172(a5)

00001124 <inst_147>:
    1124:	49882507          	flw	fa0,1176(a6)
    1128:	49c82587          	flw	fa1,1180(a6)
    112c:	00205073          	fsrmi	zero,0
    1130:	00b57653          	fadd.s	fa2,fa0,fa1
    1134:	001028f3          	frflags	a7
    1138:	48c7ac27          	fsw	fa2,1176(a5)
    113c:	4917ae23          	sw	a7,1180(a5)

00001140 <inst_148>:
    1140:	4a082507          	flw	fa0,1184(a6)
    1144:	4a482587          	flw	fa1,1188(a6)
    1148:	00205073          	fsrmi	zero,0
    114c:	00b57653          	fadd.s	fa2,fa0,fa1
    1150:	001028f3          	frflags	a7
    1154:	4ac7a027          	fsw	fa2,1184(a5)
    1158:	4b17a223          	sw	a7,1188(a5)

0000115c <inst_149>:
    115c:	4a882507          	flw	fa0,1192(a6)
    1160:	4ac82587          	flw	fa1,1196(a6)
    1164:	00205073          	fsrmi	zero,0
    1168:	00b57653          	fadd.s	fa2,fa0,fa1
    116c:	001028f3          	frflags	a7
    1170:	4ac7a427          	fsw	fa2,1192(a5)
    1174:	4b17a623          	sw	a7,1196(a5)

00001178 <inst_150>:
    1178:	4b082507          	flw	fa0,1200(a6)
    117c:	4b482587          	flw	fa1,1204(a6)
    1180:	00205073          	fsrmi	zero,0
    1184:	00b57653          	fadd.s	fa2,fa0,fa1
    1188:	001028f3          	frflags	a7
    118c:	4ac7a827          	fsw	fa2,1200(a5)
    1190:	4b17aa23          	sw	a7,1204(a5)

00001194 <inst_151>:
    1194:	4b882507          	flw	fa0,1208(a6)
    1198:	4bc82587          	flw	fa1,1212(a6)
    119c:	00205073          	fsrmi	zero,0
    11a0:	00b57653          	fadd.s	fa2,fa0,fa1
    11a4:	001028f3          	frflags	a7
    11a8:	4ac7ac27          	fsw	fa2,1208(a5)
    11ac:	4b17ae23          	sw	a7,1212(a5)

000011b0 <inst_152>:
    11b0:	4c082507          	flw	fa0,1216(a6)
    11b4:	4c482587          	flw	fa1,1220(a6)
    11b8:	00205073          	fsrmi	zero,0
    11bc:	00b57653          	fadd.s	fa2,fa0,fa1
    11c0:	001028f3          	frflags	a7
    11c4:	4cc7a027          	fsw	fa2,1216(a5)
    11c8:	4d17a223          	sw	a7,1220(a5)

000011cc <inst_153>:
    11cc:	4c882507          	flw	fa0,1224(a6)
    11d0:	4cc82587          	flw	fa1,1228(a6)
    11d4:	00205073          	fsrmi	zero,0
    11d8:	00b57653          	fadd.s	fa2,fa0,fa1
    11dc:	001028f3          	frflags	a7
    11e0:	4cc7a427          	fsw	fa2,1224(a5)
    11e4:	4d17a623          	sw	a7,1228(a5)

000011e8 <inst_154>:
    11e8:	4d082507          	flw	fa0,1232(a6)
    11ec:	4d482587          	flw	fa1,1236(a6)
    11f0:	00205073          	fsrmi	zero,0
    11f4:	00b57653          	fadd.s	fa2,fa0,fa1
    11f8:	001028f3          	frflags	a7
    11fc:	4cc7a827          	fsw	fa2,1232(a5)
    1200:	4d17aa23          	sw	a7,1236(a5)

00001204 <inst_155>:
    1204:	4d882507          	flw	fa0,1240(a6)
    1208:	4dc82587          	flw	fa1,1244(a6)
    120c:	00205073          	fsrmi	zero,0
    1210:	00b57653          	fadd.s	fa2,fa0,fa1
    1214:	001028f3          	frflags	a7
    1218:	4cc7ac27          	fsw	fa2,1240(a5)
    121c:	4d17ae23          	sw	a7,1244(a5)

00001220 <inst_156>:
    1220:	4e082507          	flw	fa0,1248(a6)
    1224:	4e482587          	flw	fa1,1252(a6)
    1228:	00205073          	fsrmi	zero,0
    122c:	00b57653          	fadd.s	fa2,fa0,fa1
    1230:	001028f3          	frflags	a7
    1234:	4ec7a027          	fsw	fa2,1248(a5)
    1238:	4f17a223          	sw	a7,1252(a5)

0000123c <inst_157>:
    123c:	4e882507          	flw	fa0,1256(a6)
    1240:	4ec82587          	flw	fa1,1260(a6)
    1244:	00205073          	fsrmi	zero,0
    1248:	00b57653          	fadd.s	fa2,fa0,fa1
    124c:	001028f3          	frflags	a7
    1250:	4ec7a427          	fsw	fa2,1256(a5)
    1254:	4f17a623          	sw	a7,1260(a5)

00001258 <inst_158>:
    1258:	4f082507          	flw	fa0,1264(a6)
    125c:	4f482587          	flw	fa1,1268(a6)
    1260:	00205073          	fsrmi	zero,0
    1264:	00b57653          	fadd.s	fa2,fa0,fa1
    1268:	001028f3          	frflags	a7
    126c:	4ec7a827          	fsw	fa2,1264(a5)
    1270:	4f17aa23          	sw	a7,1268(a5)

00001274 <inst_159>:
    1274:	4f882507          	flw	fa0,1272(a6)
    1278:	4fc82587          	flw	fa1,1276(a6)
    127c:	00205073          	fsrmi	zero,0
    1280:	00b57653          	fadd.s	fa2,fa0,fa1
    1284:	001028f3          	frflags	a7
    1288:	4ec7ac27          	fsw	fa2,1272(a5)
    128c:	4f17ae23          	sw	a7,1276(a5)

00001290 <inst_160>:
    1290:	50082507          	flw	fa0,1280(a6)
    1294:	50482587          	flw	fa1,1284(a6)
    1298:	00205073          	fsrmi	zero,0
    129c:	00b57653          	fadd.s	fa2,fa0,fa1
    12a0:	001028f3          	frflags	a7
    12a4:	50c7a027          	fsw	fa2,1280(a5)
    12a8:	5117a223          	sw	a7,1284(a5)

000012ac <inst_161>:
    12ac:	50882507          	flw	fa0,1288(a6)
    12b0:	50c82587          	flw	fa1,1292(a6)
    12b4:	00205073          	fsrmi	zero,0
    12b8:	00b57653          	fadd.s	fa2,fa0,fa1
    12bc:	001028f3          	frflags	a7
    12c0:	50c7a427          	fsw	fa2,1288(a5)
    12c4:	5117a623          	sw	a7,1292(a5)

000012c8 <inst_162>:
    12c8:	51082507          	flw	fa0,1296(a6)
    12cc:	51482587          	flw	fa1,1300(a6)
    12d0:	00205073          	fsrmi	zero,0
    12d4:	00b57653          	fadd.s	fa2,fa0,fa1
    12d8:	001028f3          	frflags	a7
    12dc:	50c7a827          	fsw	fa2,1296(a5)
    12e0:	5117aa23          	sw	a7,1300(a5)

000012e4 <inst_163>:
    12e4:	51882507          	flw	fa0,1304(a6)
    12e8:	51c82587          	flw	fa1,1308(a6)
    12ec:	00205073          	fsrmi	zero,0
    12f0:	00b57653          	fadd.s	fa2,fa0,fa1
    12f4:	001028f3          	frflags	a7
    12f8:	50c7ac27          	fsw	fa2,1304(a5)
    12fc:	5117ae23          	sw	a7,1308(a5)

00001300 <inst_164>:
    1300:	52082507          	flw	fa0,1312(a6)
    1304:	52482587          	flw	fa1,1316(a6)
    1308:	00205073          	fsrmi	zero,0
    130c:	00b57653          	fadd.s	fa2,fa0,fa1
    1310:	001028f3          	frflags	a7
    1314:	52c7a027          	fsw	fa2,1312(a5)
    1318:	5317a223          	sw	a7,1316(a5)

0000131c <inst_165>:
    131c:	52882507          	flw	fa0,1320(a6)
    1320:	52c82587          	flw	fa1,1324(a6)
    1324:	00205073          	fsrmi	zero,0
    1328:	00b57653          	fadd.s	fa2,fa0,fa1
    132c:	001028f3          	frflags	a7
    1330:	52c7a427          	fsw	fa2,1320(a5)
    1334:	5317a623          	sw	a7,1324(a5)

00001338 <inst_166>:
    1338:	53082507          	flw	fa0,1328(a6)
    133c:	53482587          	flw	fa1,1332(a6)
    1340:	00205073          	fsrmi	zero,0
    1344:	00b57653          	fadd.s	fa2,fa0,fa1
    1348:	001028f3          	frflags	a7
    134c:	52c7a827          	fsw	fa2,1328(a5)
    1350:	5317aa23          	sw	a7,1332(a5)

00001354 <inst_167>:
    1354:	53882507          	flw	fa0,1336(a6)
    1358:	53c82587          	flw	fa1,1340(a6)
    135c:	00205073          	fsrmi	zero,0
    1360:	00b57653          	fadd.s	fa2,fa0,fa1
    1364:	001028f3          	frflags	a7
    1368:	52c7ac27          	fsw	fa2,1336(a5)
    136c:	5317ae23          	sw	a7,1340(a5)

00001370 <inst_168>:
    1370:	54082507          	flw	fa0,1344(a6)
    1374:	54482587          	flw	fa1,1348(a6)
    1378:	00205073          	fsrmi	zero,0
    137c:	00b57653          	fadd.s	fa2,fa0,fa1
    1380:	001028f3          	frflags	a7
    1384:	54c7a027          	fsw	fa2,1344(a5)
    1388:	5517a223          	sw	a7,1348(a5)

0000138c <inst_169>:
    138c:	54882507          	flw	fa0,1352(a6)
    1390:	54c82587          	flw	fa1,1356(a6)
    1394:	00205073          	fsrmi	zero,0
    1398:	00b57653          	fadd.s	fa2,fa0,fa1
    139c:	001028f3          	frflags	a7
    13a0:	54c7a427          	fsw	fa2,1352(a5)
    13a4:	5517a623          	sw	a7,1356(a5)

000013a8 <inst_170>:
    13a8:	55082507          	flw	fa0,1360(a6)
    13ac:	55482587          	flw	fa1,1364(a6)
    13b0:	00205073          	fsrmi	zero,0
    13b4:	00b57653          	fadd.s	fa2,fa0,fa1
    13b8:	001028f3          	frflags	a7
    13bc:	54c7a827          	fsw	fa2,1360(a5)
    13c0:	5517aa23          	sw	a7,1364(a5)

000013c4 <inst_171>:
    13c4:	55882507          	flw	fa0,1368(a6)
    13c8:	55c82587          	flw	fa1,1372(a6)
    13cc:	00205073          	fsrmi	zero,0
    13d0:	00b57653          	fadd.s	fa2,fa0,fa1
    13d4:	001028f3          	frflags	a7
    13d8:	54c7ac27          	fsw	fa2,1368(a5)
    13dc:	5517ae23          	sw	a7,1372(a5)

000013e0 <inst_172>:
    13e0:	56082507          	flw	fa0,1376(a6)
    13e4:	56482587          	flw	fa1,1380(a6)
    13e8:	00205073          	fsrmi	zero,0
    13ec:	00b57653          	fadd.s	fa2,fa0,fa1
    13f0:	001028f3          	frflags	a7
    13f4:	56c7a027          	fsw	fa2,1376(a5)
    13f8:	5717a223          	sw	a7,1380(a5)

000013fc <inst_173>:
    13fc:	56882507          	flw	fa0,1384(a6)
    1400:	56c82587          	flw	fa1,1388(a6)
    1404:	00205073          	fsrmi	zero,0
    1408:	00b57653          	fadd.s	fa2,fa0,fa1
    140c:	001028f3          	frflags	a7
    1410:	56c7a427          	fsw	fa2,1384(a5)
    1414:	5717a623          	sw	a7,1388(a5)

00001418 <inst_174>:
    1418:	57082507          	flw	fa0,1392(a6)
    141c:	57482587          	flw	fa1,1396(a6)
    1420:	00205073          	fsrmi	zero,0
    1424:	00b57653          	fadd.s	fa2,fa0,fa1
    1428:	001028f3          	frflags	a7
    142c:	56c7a827          	fsw	fa2,1392(a5)
    1430:	5717aa23          	sw	a7,1396(a5)

00001434 <inst_175>:
    1434:	57882507          	flw	fa0,1400(a6)
    1438:	57c82587          	flw	fa1,1404(a6)
    143c:	00205073          	fsrmi	zero,0
    1440:	00b57653          	fadd.s	fa2,fa0,fa1
    1444:	001028f3          	frflags	a7
    1448:	56c7ac27          	fsw	fa2,1400(a5)
    144c:	5717ae23          	sw	a7,1404(a5)

00001450 <inst_176>:
    1450:	58082507          	flw	fa0,1408(a6)
    1454:	58482587          	flw	fa1,1412(a6)
    1458:	00205073          	fsrmi	zero,0
    145c:	00b57653          	fadd.s	fa2,fa0,fa1
    1460:	001028f3          	frflags	a7
    1464:	58c7a027          	fsw	fa2,1408(a5)
    1468:	5917a223          	sw	a7,1412(a5)

0000146c <inst_177>:
    146c:	58882507          	flw	fa0,1416(a6)
    1470:	58c82587          	flw	fa1,1420(a6)
    1474:	00205073          	fsrmi	zero,0
    1478:	00b57653          	fadd.s	fa2,fa0,fa1
    147c:	001028f3          	frflags	a7
    1480:	58c7a427          	fsw	fa2,1416(a5)
    1484:	5917a623          	sw	a7,1420(a5)

00001488 <inst_178>:
    1488:	59082507          	flw	fa0,1424(a6)
    148c:	59482587          	flw	fa1,1428(a6)
    1490:	00205073          	fsrmi	zero,0
    1494:	00b57653          	fadd.s	fa2,fa0,fa1
    1498:	001028f3          	frflags	a7
    149c:	58c7a827          	fsw	fa2,1424(a5)
    14a0:	5917aa23          	sw	a7,1428(a5)

000014a4 <inst_179>:
    14a4:	59882507          	flw	fa0,1432(a6)
    14a8:	59c82587          	flw	fa1,1436(a6)
    14ac:	00205073          	fsrmi	zero,0
    14b0:	00b57653          	fadd.s	fa2,fa0,fa1
    14b4:	001028f3          	frflags	a7
    14b8:	58c7ac27          	fsw	fa2,1432(a5)
    14bc:	5917ae23          	sw	a7,1436(a5)

000014c0 <inst_180>:
    14c0:	5a082507          	flw	fa0,1440(a6)
    14c4:	5a482587          	flw	fa1,1444(a6)
    14c8:	00205073          	fsrmi	zero,0
    14cc:	00b57653          	fadd.s	fa2,fa0,fa1
    14d0:	001028f3          	frflags	a7
    14d4:	5ac7a027          	fsw	fa2,1440(a5)
    14d8:	5b17a223          	sw	a7,1444(a5)

000014dc <inst_181>:
    14dc:	5a882507          	flw	fa0,1448(a6)
    14e0:	5ac82587          	flw	fa1,1452(a6)
    14e4:	00205073          	fsrmi	zero,0
    14e8:	00b57653          	fadd.s	fa2,fa0,fa1
    14ec:	001028f3          	frflags	a7
    14f0:	5ac7a427          	fsw	fa2,1448(a5)
    14f4:	5b17a623          	sw	a7,1452(a5)

000014f8 <inst_182>:
    14f8:	5b082507          	flw	fa0,1456(a6)
    14fc:	5b482587          	flw	fa1,1460(a6)
    1500:	00205073          	fsrmi	zero,0
    1504:	00b57653          	fadd.s	fa2,fa0,fa1
    1508:	001028f3          	frflags	a7
    150c:	5ac7a827          	fsw	fa2,1456(a5)
    1510:	5b17aa23          	sw	a7,1460(a5)

00001514 <inst_183>:
    1514:	5b882507          	flw	fa0,1464(a6)
    1518:	5bc82587          	flw	fa1,1468(a6)
    151c:	00205073          	fsrmi	zero,0
    1520:	00b57653          	fadd.s	fa2,fa0,fa1
    1524:	001028f3          	frflags	a7
    1528:	5ac7ac27          	fsw	fa2,1464(a5)
    152c:	5b17ae23          	sw	a7,1468(a5)

00001530 <inst_184>:
    1530:	5c082507          	flw	fa0,1472(a6)
    1534:	5c482587          	flw	fa1,1476(a6)
    1538:	00205073          	fsrmi	zero,0
    153c:	00b57653          	fadd.s	fa2,fa0,fa1
    1540:	001028f3          	frflags	a7
    1544:	5cc7a027          	fsw	fa2,1472(a5)
    1548:	5d17a223          	sw	a7,1476(a5)

0000154c <inst_185>:
    154c:	5c882507          	flw	fa0,1480(a6)
    1550:	5cc82587          	flw	fa1,1484(a6)
    1554:	00205073          	fsrmi	zero,0
    1558:	00b57653          	fadd.s	fa2,fa0,fa1
    155c:	001028f3          	frflags	a7
    1560:	5cc7a427          	fsw	fa2,1480(a5)
    1564:	5d17a623          	sw	a7,1484(a5)

00001568 <inst_186>:
    1568:	5d082507          	flw	fa0,1488(a6)
    156c:	5d482587          	flw	fa1,1492(a6)
    1570:	00205073          	fsrmi	zero,0
    1574:	00b57653          	fadd.s	fa2,fa0,fa1
    1578:	001028f3          	frflags	a7
    157c:	5cc7a827          	fsw	fa2,1488(a5)
    1580:	5d17aa23          	sw	a7,1492(a5)

00001584 <inst_187>:
    1584:	5d882507          	flw	fa0,1496(a6)
    1588:	5dc82587          	flw	fa1,1500(a6)
    158c:	00205073          	fsrmi	zero,0
    1590:	00b57653          	fadd.s	fa2,fa0,fa1
    1594:	001028f3          	frflags	a7
    1598:	5cc7ac27          	fsw	fa2,1496(a5)
    159c:	5d17ae23          	sw	a7,1500(a5)

000015a0 <inst_188>:
    15a0:	5e082507          	flw	fa0,1504(a6)
    15a4:	5e482587          	flw	fa1,1508(a6)
    15a8:	00205073          	fsrmi	zero,0
    15ac:	00b57653          	fadd.s	fa2,fa0,fa1
    15b0:	001028f3          	frflags	a7
    15b4:	5ec7a027          	fsw	fa2,1504(a5)
    15b8:	5f17a223          	sw	a7,1508(a5)

000015bc <inst_189>:
    15bc:	5e882507          	flw	fa0,1512(a6)
    15c0:	5ec82587          	flw	fa1,1516(a6)
    15c4:	00205073          	fsrmi	zero,0
    15c8:	00b57653          	fadd.s	fa2,fa0,fa1
    15cc:	001028f3          	frflags	a7
    15d0:	5ec7a427          	fsw	fa2,1512(a5)
    15d4:	5f17a623          	sw	a7,1516(a5)

000015d8 <inst_190>:
    15d8:	5f082507          	flw	fa0,1520(a6)
    15dc:	5f482587          	flw	fa1,1524(a6)
    15e0:	00205073          	fsrmi	zero,0
    15e4:	00b57653          	fadd.s	fa2,fa0,fa1
    15e8:	001028f3          	frflags	a7
    15ec:	5ec7a827          	fsw	fa2,1520(a5)
    15f0:	5f17aa23          	sw	a7,1524(a5)

000015f4 <inst_191>:
    15f4:	5f882507          	flw	fa0,1528(a6)
    15f8:	5fc82587          	flw	fa1,1532(a6)
    15fc:	00205073          	fsrmi	zero,0
    1600:	00b57653          	fadd.s	fa2,fa0,fa1
    1604:	001028f3          	frflags	a7
    1608:	5ec7ac27          	fsw	fa2,1528(a5)
    160c:	5f17ae23          	sw	a7,1532(a5)

00001610 <inst_192>:
    1610:	60082507          	flw	fa0,1536(a6)
    1614:	60482587          	flw	fa1,1540(a6)
    1618:	00205073          	fsrmi	zero,0
    161c:	00b57653          	fadd.s	fa2,fa0,fa1
    1620:	001028f3          	frflags	a7
    1624:	60c7a027          	fsw	fa2,1536(a5)
    1628:	6117a223          	sw	a7,1540(a5)

0000162c <inst_193>:
    162c:	60882507          	flw	fa0,1544(a6)
    1630:	60c82587          	flw	fa1,1548(a6)
    1634:	00205073          	fsrmi	zero,0
    1638:	00b57653          	fadd.s	fa2,fa0,fa1
    163c:	001028f3          	frflags	a7
    1640:	60c7a427          	fsw	fa2,1544(a5)
    1644:	6117a623          	sw	a7,1548(a5)

00001648 <inst_194>:
    1648:	61082507          	flw	fa0,1552(a6)
    164c:	61482587          	flw	fa1,1556(a6)
    1650:	00205073          	fsrmi	zero,0
    1654:	00b57653          	fadd.s	fa2,fa0,fa1
    1658:	001028f3          	frflags	a7
    165c:	60c7a827          	fsw	fa2,1552(a5)
    1660:	6117aa23          	sw	a7,1556(a5)

00001664 <inst_195>:
    1664:	61882507          	flw	fa0,1560(a6)
    1668:	61c82587          	flw	fa1,1564(a6)
    166c:	00205073          	fsrmi	zero,0
    1670:	00b57653          	fadd.s	fa2,fa0,fa1
    1674:	001028f3          	frflags	a7
    1678:	60c7ac27          	fsw	fa2,1560(a5)
    167c:	6117ae23          	sw	a7,1564(a5)

00001680 <inst_196>:
    1680:	62082507          	flw	fa0,1568(a6)
    1684:	62482587          	flw	fa1,1572(a6)
    1688:	00205073          	fsrmi	zero,0
    168c:	00b57653          	fadd.s	fa2,fa0,fa1
    1690:	001028f3          	frflags	a7
    1694:	62c7a027          	fsw	fa2,1568(a5)
    1698:	6317a223          	sw	a7,1572(a5)

0000169c <inst_197>:
    169c:	62882507          	flw	fa0,1576(a6)
    16a0:	62c82587          	flw	fa1,1580(a6)
    16a4:	00205073          	fsrmi	zero,0
    16a8:	00b57653          	fadd.s	fa2,fa0,fa1
    16ac:	001028f3          	frflags	a7
    16b0:	62c7a427          	fsw	fa2,1576(a5)
    16b4:	6317a623          	sw	a7,1580(a5)

000016b8 <inst_198>:
    16b8:	63082507          	flw	fa0,1584(a6)
    16bc:	63482587          	flw	fa1,1588(a6)
    16c0:	00205073          	fsrmi	zero,0
    16c4:	00b57653          	fadd.s	fa2,fa0,fa1
    16c8:	001028f3          	frflags	a7
    16cc:	62c7a827          	fsw	fa2,1584(a5)
    16d0:	6317aa23          	sw	a7,1588(a5)

000016d4 <inst_199>:
    16d4:	63882507          	flw	fa0,1592(a6)
    16d8:	63c82587          	flw	fa1,1596(a6)
    16dc:	00205073          	fsrmi	zero,0
    16e0:	00b57653          	fadd.s	fa2,fa0,fa1
    16e4:	001028f3          	frflags	a7
    16e8:	62c7ac27          	fsw	fa2,1592(a5)
    16ec:	6317ae23          	sw	a7,1596(a5)

000016f0 <inst_200>:
    16f0:	64082507          	flw	fa0,1600(a6)
    16f4:	64482587          	flw	fa1,1604(a6)
    16f8:	00205073          	fsrmi	zero,0
    16fc:	00b57653          	fadd.s	fa2,fa0,fa1
    1700:	001028f3          	frflags	a7
    1704:	64c7a027          	fsw	fa2,1600(a5)
    1708:	6517a223          	sw	a7,1604(a5)

0000170c <inst_201>:
    170c:	64882507          	flw	fa0,1608(a6)
    1710:	64c82587          	flw	fa1,1612(a6)
    1714:	00205073          	fsrmi	zero,0
    1718:	00b57653          	fadd.s	fa2,fa0,fa1
    171c:	001028f3          	frflags	a7
    1720:	64c7a427          	fsw	fa2,1608(a5)
    1724:	6517a623          	sw	a7,1612(a5)
    1728:	00000013          	nop
    172c:	00000013          	nop

00001730 <rvtest_code_end>:
    1730:	00001517          	auipc	a0,0x1
    1734:	f3050513          	add	a0,a0,-208 # 2660 <data_begin>
    1738:	00001597          	auipc	a1,0x1
    173c:	57858593          	add	a1,a1,1400 # 2cb0 <_end>
    1740:	80001637          	lui	a2,0x80001
    1744:	00860613          	add	a2,a2,8 # 80001008 <_end+0x7fffe358>

00001748 <compliance_halt_loop>:
    1748:	06b50063          	beq	a0,a1,17a8 <compliance_halt_break>
    174c:	00450693          	add	a3,a0,4

00001750 <compliance_halt_loop2>:
    1750:	fff68693          	add	a3,a3,-1
    1754:	00068703          	lb	a4,0(a3)
    1758:	40475793          	sra	a5,a4,0x4
    175c:	00f7f793          	and	a5,a5,15
    1760:	00a00813          	li	a6,10
    1764:	0107c463          	blt	a5,a6,176c <notLetter>
    1768:	02778793          	add	a5,a5,39

0000176c <notLetter>:
    176c:	03078793          	add	a5,a5,48
    1770:	00f60023          	sb	a5,0(a2)
    1774:	40075793          	sra	a5,a4,0x0
    1778:	00f7f793          	and	a5,a5,15
    177c:	00a00813          	li	a6,10
    1780:	0107c463          	blt	a5,a6,1788 <notLetter2>
    1784:	02778793          	add	a5,a5,39

00001788 <notLetter2>:
    1788:	03078793          	add	a5,a5,48
    178c:	00f60023          	sb	a5,0(a2)
    1790:	fcd510e3          	bne	a0,a3,1750 <compliance_halt_loop2>
    1794:	00450513          	add	a0,a0,4
    1798:	00a00713          	li	a4,10
    179c:	00e60023          	sb	a4,0(a2)
    17a0:	fa9ff06f          	j	1748 <compliance_halt_loop>
    17a4:	0040006f          	j	17a8 <compliance_halt_break>

000017a8 <compliance_halt_break>:
    17a8:	80001537          	lui	a0,0x80001
    17ac:	00950513          	add	a0,a0,9 # 80001009 <_end+0x7fffe359>
    17b0:	00d50023          	sb	a3,0(a0)
	...

Desensamblado de la sección .data:

00002000 <rvtest_data_begin>:
    2000:	cafe                	.2byte	0xcafe
    2002:	babe                	.2byte	0xbabe

00002004 <test_fp>:
    2004:	2105                	.2byte	0x2105
    2006:	7f22                	.2byte	0x7f22
    2008:	2105                	.2byte	0x2105
    200a:	7f22                	.2byte	0x7f22
    200c:	2c54                	.2byte	0x2c54
    200e:	7ee1                	.2byte	0x7ee1
    2010:	2c54                	.2byte	0x2c54
    2012:	fee1                	.2byte	0xfee1
    2014:	e134                	.2byte	0xe134
    2016:	e1347f17          	auipc	t5,0xe1347
    201a:	88a3ff17          	auipc	t5,0x88a3f
    201e:	7f1e                	.2byte	0x7f1e
    2020:	ff1e88a3          	sb	a7,-15(t4)
    2024:	7ecd998f          	.4byte	0x7ecd998f
    2028:	7ecd998f          	.4byte	0x7ecd998f
    202c:	e8ee                	.2byte	0xe8ee
    202e:	7f2d                	.2byte	0x7f2d
    2030:	e8ee                	.2byte	0xe8ee
    2032:	ff2d                	.2byte	0xff2d
    2034:	7f3e2ea7          	fsw	fs3,2045(t3)
    2038:	ff3e2ea7          	fsw	fs3,-3(t3)
    203c:	7f1a94c3          	.4byte	0x7f1a94c3
    2040:	ff1a94c3          	.4byte	0xff1a94c3
    2044:	5df5                	.2byte	0x5df5
    2046:	7edc                	.2byte	0x7edc
    2048:	5df5                	.2byte	0x5df5
    204a:	fedc                	.2byte	0xfedc
    204c:	0265                	.2byte	0x265
    204e:	7f2d                	.2byte	0x7f2d
    2050:	0265                	.2byte	0x265
    2052:	ff2d                	.2byte	0xff2d
    2054:	f88a                	.2byte	0xf88a
    2056:	7f39                	.2byte	0x7f39
    2058:	f88a                	.2byte	0xf88a
    205a:	ff39                	.2byte	0xff39
    205c:	7de49633          	.4byte	0x7de49633
    2060:	fde49633          	.4byte	0xfde49633
    2064:	e57e                	.2byte	0xe57e
    2066:	7e7d                	.2byte	0x7e7d
    2068:	e57e                	.2byte	0xe57e
    206a:	fe7d                	.2byte	0xfe7d
    206c:	d2e4                	.2byte	0xd2e4
    206e:	d2e47c3b          	.4byte	0xd2e47c3b
    2072:	de9ffc3b          	.4byte	0xde9ffc3b
    2076:	7e2c                	.2byte	0x7e2c
    2078:	de9f fe2c d3f0      	.byte	0x9f, 0xde, 0x2c, 0xfe, 0xf0, 0xd3
    207e:	7f26                	.2byte	0x7f26
    2080:	d3f0                	.2byte	0xd3f0
    2082:	ff26                	.2byte	0xff26
    2084:	daf1                	.2byte	0xdaf1
    2086:	daf17d4b          	.4byte	0xdaf17d4b
    208a:	e19bfd4b          	fnmsub.s	fs10,fs7,fs9,ft8
    208e:	7f09                	.2byte	0x7f09
    2090:	ff09e19b          	.4byte	0xff09e19b
    2094:	ba5d                	.2byte	0xba5d
    2096:	7f21                	.2byte	0x7f21
    2098:	ba5d                	.2byte	0xba5d
    209a:	ff21                	.2byte	0xff21
    209c:	4909                	.2byte	0x4909
    209e:	7e45                	.2byte	0x7e45
    20a0:	4909                	.2byte	0x4909
    20a2:	fe45                	.2byte	0xfe45
    20a4:	eac0                	.2byte	0xeac0
    20a6:	7cd9                	.2byte	0x7cd9
    20a8:	eac0                	.2byte	0xeac0
    20aa:	fcd9                	.2byte	0xfcd9
    20ac:	9c0a                	.2byte	0x9c0a
    20ae:	7f2c                	.2byte	0x7f2c
    20b0:	9c0a                	.2byte	0x9c0a
    20b2:	ff2c                	.2byte	0xff2c
    20b4:	a504                	.2byte	0xa504
    20b6:	7e82                	.2byte	0x7e82
    20b8:	a504                	.2byte	0xa504
    20ba:	fe82                	.2byte	0xfe82
    20bc:	7eea26e3          	.4byte	0x7eea26e3
    20c0:	feea26e3          	.4byte	0xfeea26e3
    20c4:	a730                	.2byte	0xa730
    20c6:	7f00                	.2byte	0x7f00
    20c8:	a730                	.2byte	0xa730
    20ca:	ff00                	.2byte	0xff00
    20cc:	7ebf66bb          	.4byte	0x7ebf66bb
    20d0:	febf66bb          	.4byte	0xfebf66bb
    20d4:	12ad                	.2byte	0x12ad
    20d6:	7f30                	.2byte	0x7f30
    20d8:	12ad                	.2byte	0x12ad
    20da:	ff30                	.2byte	0xff30
    20dc:	7f288293          	add	t0,a7,2034
    20e0:	ff288293          	add	t0,a7,-14
    20e4:	de44                	.2byte	0xde44
    20e6:	de447e9b          	.4byte	0xde447e9b
    20ea:	bbe2fe9b          	.4byte	0xbbe2fe9b
    20ee:	7f3c                	.2byte	0x7f3c
    20f0:	bbe2                	.2byte	0xbbe2
    20f2:	ff3c                	.2byte	0xff3c
    20f4:	7de87317          	auipc	t1,0x7de87
    20f8:	fde87317          	auipc	t1,0xfde87
    20fc:	2a0d                	.2byte	0x2a0d
    20fe:	7e91                	.2byte	0x7e91
    2100:	2a0d                	.2byte	0x2a0d
    2102:	fe91                	.2byte	0xfe91
    2104:	ccec                	.2byte	0xccec
    2106:	7de0                	.2byte	0x7de0
    2108:	ccec                	.2byte	0xccec
    210a:	fde0                	.2byte	0xfde0
    210c:	0231                	.2byte	0x231
    210e:	7f36                	.2byte	0x7f36
    2110:	0231                	.2byte	0x231
    2112:	ff36                	.2byte	0xff36
    2114:	2776                	.2byte	0x2776
    2116:	7e1f 2776 fe1f      	.byte	0x1f, 0x7e, 0x76, 0x27, 0x1f, 0xfe
    211c:	a56c                	.2byte	0xa56c
    211e:	7db6                	.2byte	0x7db6
    2120:	a56c                	.2byte	0xa56c
    2122:	fdb6                	.2byte	0xfdb6
    2124:	6b3e                	.2byte	0x6b3e
    2126:	7ead                	.2byte	0x7ead
    2128:	6b3e                	.2byte	0x6b3e
    212a:	fead                	.2byte	0xfead
    212c:	c8e8                	.2byte	0xc8e8
    212e:	7f06                	.2byte	0x7f06
    2130:	c8e8                	.2byte	0xc8e8
    2132:	ff06                	.2byte	0xff06
    2134:	2bee                	.2byte	0x2bee
    2136:	7d44                	.2byte	0x7d44
    2138:	2bee                	.2byte	0x2bee
    213a:	fd44                	.2byte	0xfd44
    213c:	7ea596bf fea596bf 	.8byte	0xfea596bf7ea596bf
    2144:	6246                	.2byte	0x6246
    2146:	7e48                	.2byte	0x7e48
    2148:	6246                	.2byte	0x6246
    214a:	fe48                	.2byte	0xfe48
    214c:	7074                	.2byte	0x7074
    214e:	7e8d                	.2byte	0x7e8d
    2150:	7074                	.2byte	0x7074
    2152:	fe8d                	.2byte	0xfe8d
    2154:	6d14                	.2byte	0x6d14
    2156:	7f02                	.2byte	0x7f02
    2158:	6d14                	.2byte	0x6d14
    215a:	ff02                	.2byte	0xff02
    215c:	a12e                	.2byte	0xa12e
    215e:	a12e7ebb          	.4byte	0xa12e7ebb
    2162:	4c23febb          	.4byte	0x4c23febb
    2166:	4c237ec7          	.4byte	0x4c237ec7
    216a:	f240fec7          	.4byte	0xf240fec7
    216e:	7bc0                	.2byte	0x7bc0
    2170:	f240                	.2byte	0xf240
    2172:	fbc0                	.2byte	0xfbc0
    2174:	f996                	.2byte	0xf996
    2176:	f9967f0f          	.4byte	0xf9967f0f
    217a:	3e7eff0f          	.4byte	0x3e7eff0f
    217e:	7d4a                	.2byte	0x7d4a
    2180:	3e7e                	.2byte	0x3e7e
    2182:	fd4a                	.2byte	0xfd4a
    2184:	1d98                	.2byte	0x1d98
    2186:	1d987f3b          	.4byte	0x1d987f3b
    218a:	ab3fff3b          	.4byte	0xab3fff3b
    218e:	7ef0                	.2byte	0x7ef0
    2190:	fef0ab3f 7f2bb989 	.8byte	0x7f2bb989fef0ab3f
    2198:	b989                	.2byte	0xb989
    219a:	dc90ff2b          	.4byte	0xdc90ff2b
    219e:	dc907e67          	.4byte	0xdc907e67
    21a2:	5281fe67          	.4byte	0x5281fe67
    21a6:	7f06                	.2byte	0x7f06
    21a8:	5281                	.2byte	0x5281
    21aa:	ff06                	.2byte	0xff06
    21ac:	7e83f653          	.4byte	0x7e83f653
    21b0:	fe83f653          	.4byte	0xfe83f653
    21b4:	7160                	.2byte	0x7160
    21b6:	7f21                	.2byte	0x7f21
    21b8:	7160                	.2byte	0x7160
    21ba:	ff21                	.2byte	0xff21
    21bc:	7655                	.2byte	0x7655
    21be:	7f2e                	.2byte	0x7f2e
    21c0:	7655                	.2byte	0x7655
    21c2:	ff2e                	.2byte	0xff2e
    21c4:	40ca                	.2byte	0x40ca
    21c6:	7e9f 40ca fe9f      	.byte	0x9f, 0x7e, 0xca, 0x40, 0x9f, 0xfe
    21cc:	7e9ad123          	.4byte	0x7e9ad123
    21d0:	fe9ad123          	.4byte	0xfe9ad123
    21d4:	d9ed                	.2byte	0xd9ed
    21d6:	7ec8                	.2byte	0x7ec8
    21d8:	d9ed                	.2byte	0xd9ed
    21da:	fec8                	.2byte	0xfec8
    21dc:	3e58                	.2byte	0x3e58
    21de:	7d14                	.2byte	0x7d14
    21e0:	3e58                	.2byte	0x3e58
    21e2:	fd14                	.2byte	0xfd14
    21e4:	93aa                	.2byte	0x93aa
    21e6:	93aa7eb7          	lui	t4,0x93aa7
    21ea:	9e32feb7          	lui	t4,0x9e32f
    21ee:	7ed2                	.2byte	0x7ed2
    21f0:	9e32                	.2byte	0x9e32
    21f2:	fed2                	.2byte	0xfed2
    21f4:	5c14                	.2byte	0x5c14
    21f6:	7e5e                	.2byte	0x7e5e
    21f8:	5c14                	.2byte	0x5c14
    21fa:	fe5e                	.2byte	0xfe5e
    21fc:	b095                	.2byte	0xb095
    21fe:	b0957dfb          	.4byte	0xb0957dfb
    2202:	4960fdfb          	.4byte	0x4960fdfb
    2206:	7eee                	.2byte	0x7eee
    2208:	4960                	.2byte	0x4960
    220a:	feee                	.2byte	0xfeee
    220c:	f3ae                	.2byte	0xf3ae
    220e:	7f09                	.2byte	0x7f09
    2210:	f3ae                	.2byte	0xf3ae
    2212:	ff09                	.2byte	0xff09
    2214:	0760                	.2byte	0x760
    2216:	7e80                	.2byte	0x7e80
    2218:	0760                	.2byte	0x760
    221a:	fe80                	.2byte	0xfe80
    221c:	a799                	.2byte	0xa799
    221e:	7bda                	.2byte	0x7bda
    2220:	a799                	.2byte	0xa799
    2222:	fbda                	.2byte	0xfbda
    2224:	7e1f9fcf          	.4byte	0x7e1f9fcf
    2228:	fe1f9fcf          	.4byte	0xfe1f9fcf
    222c:	0540                	.2byte	0x540
    222e:	05407e8f          	.4byte	0x5407e8f
    2232:	5201fe8f          	.4byte	0x5201fe8f
    2236:	7f2d                	.2byte	0x7f2d
    2238:	5201                	.2byte	0x5201
    223a:	ff2d                	.2byte	0xff2d
    223c:	a8b0                	.2byte	0xa8b0
    223e:	a8b07efb          	.4byte	0xa8b07efb
    2242:	d579fefb          	.4byte	0xd579fefb
    2246:	d5797f0f          	.4byte	0xd5797f0f
    224a:	b100ff0f          	.4byte	0xb100ff0f
    224e:	7f2e                	.2byte	0x7f2e
    2250:	b100                	.2byte	0xb100
    2252:	ff2e                	.2byte	0xff2e
    2254:	ba7d                	.2byte	0xba7d
    2256:	7f35                	.2byte	0x7f35
    2258:	ba7d                	.2byte	0xba7d
    225a:	ff35                	.2byte	0xff35
    225c:	c05a                	.2byte	0xc05a
    225e:	7f02                	.2byte	0x7f02
    2260:	c05a                	.2byte	0xc05a
    2262:	ff02                	.2byte	0xff02
    2264:	7c643dc7          	.4byte	0x7c643dc7
    2268:	fc643dc7          	.4byte	0xfc643dc7
    226c:	65d9                	.2byte	0x65d9
    226e:	65d97f27          	.4byte	0x65d97f27
    2272:	e697ff27          	.4byte	0xe697ff27
    2276:	7ef9                	.2byte	0x7ef9
    2278:	fef9e697          	auipc	a3,0xfef9e
    227c:	ef18                	.2byte	0xef18
    227e:	7dcc                	.2byte	0x7dcc
    2280:	ef18                	.2byte	0xef18
    2282:	fdcc                	.2byte	0xfdcc
    2284:	7f18212b          	.4byte	0x7f18212b
    2288:	ff18212b          	.4byte	0xff18212b
    228c:	7e52faef          	jal	s5,32270 <_end+0x2f5c0>
    2290:	fe52faef          	jal	s5,fff32274 <_end+0xfff2f5c4>
    2294:	54d1                	.2byte	0x54d1
    2296:	7e98                	.2byte	0x7e98
    2298:	54d1                	.2byte	0x54d1
    229a:	fe98                	.2byte	0xfe98
    229c:	e0a5                	.2byte	0xe0a5
    229e:	7d99                	.2byte	0x7d99
    22a0:	e0a5                	.2byte	0xe0a5
    22a2:	fd99                	.2byte	0xfd99
    22a4:	06d8                	.2byte	0x6d8
    22a6:	06d87e57          	.4byte	0x6d87e57
    22aa:	5162fe57          	.4byte	0x5162fe57
    22ae:	7ef9                	.2byte	0x7ef9
    22b0:	5162                	.2byte	0x5162
    22b2:	fef9                	.2byte	0xfef9
    22b4:	325d                	.2byte	0x325d
    22b6:	7d96                	.2byte	0x7d96
    22b8:	325d                	.2byte	0x325d
    22ba:	fd96                	.2byte	0xfd96
    22bc:	f6e4                	.2byte	0xf6e4
    22be:	7f1d                	.2byte	0x7f1d
    22c0:	f6e4                	.2byte	0xf6e4
    22c2:	ff1d                	.2byte	0xff1d
    22c4:	b9ea                	.2byte	0xb9ea
    22c6:	7f09                	.2byte	0x7f09
    22c8:	b9ea                	.2byte	0xb9ea
    22ca:	ff09                	.2byte	0xff09
    22cc:	7e72d2f3          	csrrw	t0,0x7e7,5
    22d0:	fe72d2f3          	csrrw	t0,0xfe7,5
    22d4:	7e9a4c33          	.4byte	0x7e9a4c33
    22d8:	fe9a4c33          	.4byte	0xfe9a4c33
    22dc:	4e72                	.2byte	0x4e72
    22de:	4e727f0b          	.4byte	0x4e727f0b
    22e2:	1b27ff0b          	.4byte	0x1b27ff0b
    22e6:	1b277ef3          	csrrc	t4,0x1b2,14
    22ea:	628efef3          	csrrc	t4,0x628,29
    22ee:	7e10                	.2byte	0x7e10
    22f0:	628e                	.2byte	0x628e
    22f2:	fe10                	.2byte	0xfe10
    22f4:	00cd                	.2byte	0xcd
    22f6:	7f28                	.2byte	0x7f28
    22f8:	00cd                	.2byte	0xcd
    22fa:	ff28                	.2byte	0xff28
    22fc:	495f 7eb3 495f      	.byte	0x5f, 0x49, 0xb3, 0x7e, 0x5f, 0x49
    2302:	eb73feb3          	.4byte	0xeb73feb3
    2306:	7ebd                	.2byte	0x7ebd
    2308:	febdeb73          	csrrs	s6,0xfeb,27
    230c:	0d95                	.2byte	0xd95
    230e:	7f11                	.2byte	0x7f11
    2310:	0d95                	.2byte	0xd95
    2312:	ff11                	.2byte	0xff11
    2314:	7ebb1c27          	.4byte	0x7ebb1c27
    2318:	febb1c27          	.4byte	0xfebb1c27
    231c:	34e1                	.2byte	0x34e1
    231e:	7df2                	.2byte	0x7df2
    2320:	34e1                	.2byte	0x34e1
    2322:	fdf2                	.2byte	0xfdf2
    2324:	03e6                	.2byte	0x3e6
    2326:	03e67eab          	.4byte	0x3e67eab
    232a:	4880feab          	.4byte	0x4880feab
    232e:	7efe                	.2byte	0x7efe
    2330:	4880                	.2byte	0x4880
    2332:	fefe                	.2byte	0xfefe
    2334:	c054                	.2byte	0xc054
    2336:	7f06                	.2byte	0x7f06
    2338:	c054                	.2byte	0xc054
    233a:	ff06                	.2byte	0xff06
    233c:	21ce                	.2byte	0x21ce
    233e:	7e9f 21ce fe9f      	.byte	0x9f, 0x7e, 0xce, 0x21, 0x9f, 0xfe
    2344:	7f2814cf          	.4byte	0x7f2814cf
    2348:	ff2814cf          	.4byte	0xff2814cf
    234c:	c2e8                	.2byte	0xc2e8
    234e:	7ef4                	.2byte	0x7ef4
    2350:	c2e8                	.2byte	0xc2e8
    2352:	fef4                	.2byte	0xfef4
    2354:	6905                	.2byte	0x6905
    2356:	7e80                	.2byte	0x7e80
    2358:	6905                	.2byte	0x6905
    235a:	fe80                	.2byte	0xfe80
    235c:	d64c                	.2byte	0xd64c
    235e:	7a95                	.2byte	0x7a95
    2360:	d64c                	.2byte	0xd64c
    2362:	fa95                	.2byte	0xfa95
    2364:	22f1                	.2byte	0x22f1
    2366:	7e9f 22f1 fe9f      	.byte	0x9f, 0x7e, 0xf1, 0x22, 0x9f, 0xfe
    236c:	661e                	.2byte	0x661e
    236e:	7f09                	.2byte	0x7f09
    2370:	661e                	.2byte	0x661e
    2372:	ff09                	.2byte	0xff09
    2374:	5bf2                	.2byte	0x5bf2
    2376:	5bf27ef3          	csrrc	t4,0x5bf,4
    237a:	eee9fef3          	csrrc	t4,0xeee,19
    237e:	7e89                	.2byte	0x7e89
    2380:	eee9                	.2byte	0xeee9
    2382:	fe89                	.2byte	0xfe89
    2384:	412e                	.2byte	0x412e
    2386:	412e7e87          	.4byte	0x412e7e87
    238a:	6b8efe87          	.4byte	0x6b8efe87
    238e:	7e38                	.2byte	0x7e38
    2390:	6b8e                	.2byte	0x6b8e
    2392:	fe38                	.2byte	0xfe38
    2394:	612e                	.2byte	0x612e
    2396:	7d0c                	.2byte	0x7d0c
    2398:	612e                	.2byte	0x612e
    239a:	fd0c                	.2byte	0xfd0c
    239c:	61dc                	.2byte	0x61dc
    239e:	7f0e                	.2byte	0x7f0e
    23a0:	61dc                	.2byte	0x61dc
    23a2:	ff0e                	.2byte	0xff0e
    23a4:	453d                	.2byte	0x453d
    23a6:	453d7ed7          	.4byte	0x453d7ed7
    23aa:	d4b8fed7          	.4byte	0xd4b8fed7
    23ae:	7f20                	.2byte	0x7f20
    23b0:	d4b8                	.2byte	0xd4b8
    23b2:	ff20                	.2byte	0xff20
    23b4:	30c5                	.2byte	0x30c5
    23b6:	30c57e6f          	jal	t3,596c2 <_end+0x56a12>
    23ba:	8a0efe6f          	jal	t3,ffff145a <_end+0xfffee7aa>
    23be:	7eda                	.2byte	0x7eda
    23c0:	8a0e                	.2byte	0x8a0e
    23c2:	feda                	.2byte	0xfeda
    23c4:	1aa9                	.2byte	0x1aa9
    23c6:	7eb5                	.2byte	0x7eb5
    23c8:	1aa9                	.2byte	0x1aa9
    23ca:	feb5                	.2byte	0xfeb5
    23cc:	d93c                	.2byte	0xd93c
    23ce:	7ea9                	.2byte	0x7ea9
    23d0:	d93c                	.2byte	0xd93c
    23d2:	fea9                	.2byte	0xfea9
    23d4:	8722                	.2byte	0x8722
    23d6:	7e40                	.2byte	0x7e40
    23d8:	8722                	.2byte	0x8722
    23da:	fe40                	.2byte	0xfe40
    23dc:	524e                	.2byte	0x524e
    23de:	7f22                	.2byte	0x7f22
    23e0:	524e                	.2byte	0x524e
    23e2:	ff22                	.2byte	0xff22
    23e4:	551e                	.2byte	0x551e
    23e6:	7d32                	.2byte	0x7d32
    23e8:	551e                	.2byte	0x551e
    23ea:	fd32                	.2byte	0xfd32
    23ec:	25a0                	.2byte	0x25a0
    23ee:	7f01                	.2byte	0x7f01
    23f0:	25a0                	.2byte	0x25a0
    23f2:	ff01                	.2byte	0xff01
    23f4:	593a                	.2byte	0x593a
    23f6:	7f30                	.2byte	0x7f30
    23f8:	593a                	.2byte	0x593a
    23fa:	ff30                	.2byte	0xff30
    23fc:	7784                	.2byte	0x7784
    23fe:	7f0c                	.2byte	0x7f0c
    2400:	7784                	.2byte	0x7784
    2402:	ff0c                	.2byte	0xff0c
    2404:	1af1                	.2byte	0x1af1
    2406:	7e19                	.2byte	0x7e19
    2408:	1af1                	.2byte	0x1af1
    240a:	fe19                	.2byte	0xfe19
    240c:	03d8                	.2byte	0x3d8
    240e:	03d87d9b          	.4byte	0x3d87d9b
    2412:	657bfd9b          	.4byte	0x657bfd9b
    2416:	7ec1                	.2byte	0x7ec1
    2418:	fec1657b          	.4byte	0xfec1657b
    241c:	7e86834b          	.4byte	0x7e86834b
    2420:	fe86834b          	.4byte	0xfe86834b
    2424:	98cc                	.2byte	0x98cc
    2426:	7e29                	.2byte	0x7e29
    2428:	98cc                	.2byte	0x98cc
    242a:	fe29                	.2byte	0xfe29
    242c:	e782                	.2byte	0xe782
    242e:	e7827d9b          	.4byte	0xe7827d9b
    2432:	f9e4fd9b          	.4byte	0xf9e4fd9b
    2436:	f9e47c8b          	.4byte	0xf9e47c8b
    243a:	be4bfc8b          	.4byte	0xbe4bfc8b
    243e:	7f19                	.2byte	0x7f19
    2440:	ff19be4b          	.4byte	0xff19be4b
    2444:	7dbe4d8f          	.4byte	0x7dbe4d8f
    2448:	fdbe4d8f          	.4byte	0xfdbe4d8f
    244c:	7f38849b          	.4byte	0x7f38849b
    2450:	ff38849b          	.4byte	0xff38849b
    2454:	97b9                	.2byte	0x97b9
    2456:	7cdf 97b9 fcdf      	.byte	0xdf, 0x7c, 0xb9, 0x97, 0xdf, 0xfc
    245c:	223c                	.2byte	0x223c
    245e:	7e8e                	.2byte	0x7e8e
    2460:	223c                	.2byte	0x223c
    2462:	fe8e                	.2byte	0xfe8e
    2464:	2a79                	.2byte	0x2a79
    2466:	7edd                	.2byte	0x7edd
    2468:	2a79                	.2byte	0x2a79
    246a:	fedd                	.2byte	0xfedd
    246c:	7ef3d707          	.4byte	0x7ef3d707
    2470:	fef3d707          	.4byte	0xfef3d707
    2474:	ac50                	.2byte	0xac50
    2476:	7f02                	.2byte	0x7f02
    2478:	ac50                	.2byte	0xac50
    247a:	ff02                	.2byte	0xff02
    247c:	b91a                	.2byte	0xb91a
    247e:	7f2e                	.2byte	0x7f2e
    2480:	b91a                	.2byte	0xb91a
    2482:	ff2e                	.2byte	0xff2e
    2484:	f584                	.2byte	0xf584
    2486:	7d0a                	.2byte	0x7d0a
    2488:	f584                	.2byte	0xf584
    248a:	fd0a                	.2byte	0xfd0a
    248c:	ce7f 7de0 ce7f fde0 	.byte	0x7f, 0xce, 0xe0, 0x7d, 0x7f, 0xce, 0xe0, 0xfd, 0xc2, 0xa7, 0x1c, 0x7f, 0xc2, 0xa7, 0x1c, 0xff, 0x57, 0x8f
    2494:	a7c2 7f1c a7c2 ff1c 
    249c:	8f57 
    249e:	7f18                	.2byte	0x7f18
    24a0:	ff188f57          	.4byte	0xff188f57
    24a4:	7db3eb13          	or	s6,t2,2011
    24a8:	fdb3eb13          	or	s6,t2,-37
    24ac:	a6be                	.2byte	0xa6be
    24ae:	7e3a                	.2byte	0x7e3a
    24b0:	a6be                	.2byte	0xa6be
    24b2:	fe3a                	.2byte	0xfe3a
    24b4:	fa00                	.2byte	0xfa00
    24b6:	7ef1                	.2byte	0x7ef1
    24b8:	fa00                	.2byte	0xfa00
    24ba:	fef1                	.2byte	0xfef1
    24bc:	7eeb4f07          	.4byte	0x7eeb4f07
    24c0:	feeb4f07          	.4byte	0xfeeb4f07
    24c4:	7f185183          	lhu	gp,2033(a6)
    24c8:	ff185183          	lhu	gp,-15(a6)
    24cc:	4810                	.2byte	0x4810
    24ce:	48107f3f 0427ff3f 	.8byte	0x427ff3f48107f3f
    24d6:	7ead                	.2byte	0x7ead
    24d8:	fead0427          	.4byte	0xfead0427
    24dc:	7f365ad7          	.4byte	0x7f365ad7
    24e0:	ff365ad7          	.4byte	0xff365ad7
    24e4:	d8f4                	.2byte	0xd8f4
    24e6:	d8f47f2b          	.4byte	0xd8f47f2b
    24ea:	d52cff2b          	.4byte	0xd52cff2b
    24ee:	d52c7f1b          	.4byte	0xd52c7f1b
    24f2:	6a16ff1b          	.4byte	0x6a16ff1b
    24f6:	6a167f07          	.4byte	0x6a167f07
    24fa:	9722ff07          	.4byte	0x9722ff07
    24fe:	97227ecf          	.4byte	0x97227ecf
    2502:	7300fecf          	.4byte	0x7300fecf
    2506:	7f2c                	.2byte	0x7f2c
    2508:	7300                	.2byte	0x7300
    250a:	ff2c                	.2byte	0xff2c
    250c:	4a05                	.2byte	0x4a05
    250e:	7f31                	.2byte	0x7f31
    2510:	4a05                	.2byte	0x4a05
    2512:	ff31                	.2byte	0xff31
    2514:	7f1175bf ff1175bf 	.8byte	0xff1175bf7f1175bf
    251c:	fce6                	.2byte	0xfce6
    251e:	7eb6                	.2byte	0x7eb6
    2520:	fce6                	.2byte	0xfce6
    2522:	feb6                	.2byte	0xfeb6
    2524:	4e0d                	.2byte	0x4e0d
    2526:	4e0d7eeb          	.4byte	0x4e0d7eeb
    252a:	73d9feeb          	.4byte	0x73d9feeb
    252e:	7e11                	.2byte	0x7e11
    2530:	73d9                	.2byte	0x73d9
    2532:	fe11                	.2byte	0xfe11
    2534:	7edd0ccb          	.4byte	0x7edd0ccb
    2538:	fedd0ccb          	.4byte	0xfedd0ccb
    253c:	f961                	.2byte	0xf961
    253e:	7ee4                	.2byte	0x7ee4
    2540:	f961                	.2byte	0xf961
    2542:	fee4                	.2byte	0xfee4
    2544:	7ee1a51b          	.4byte	0x7ee1a51b
    2548:	fee1a51b          	.4byte	0xfee1a51b
    254c:	7f390e97          	auipc	t4,0x7f390
    2550:	ff390e97          	auipc	t4,0xff390
    2554:	60ac                	.2byte	0x60ac
    2556:	7f1c                	.2byte	0x7f1c
    2558:	60ac                	.2byte	0x60ac
    255a:	ff1c                	.2byte	0xff1c
    255c:	7f07a8e7          	.4byte	0x7f07a8e7
    2560:	ff07a8e7          	.4byte	0xff07a8e7
    2564:	8349                	.2byte	0x8349
    2566:	83497da7          	.4byte	0x83497da7
    256a:	0c98fda7          	.4byte	0xc98fda7
    256e:	0c987ec3          	.4byte	0xc987ec3
    2572:	2129fec3          	fmadd.s	ft9,fs3,fs2,ft4
    2576:	21297d77          	.4byte	0x21297d77
    257a:	35e0fd77          	.4byte	0x35e0fd77
    257e:	7f1a                	.2byte	0x7f1a
    2580:	35e0                	.2byte	0x35e0
    2582:	ff1a                	.2byte	0xff1a
    2584:	41cc                	.2byte	0x41cc
    2586:	41cc7e37          	lui	t3,0x41cc7
    258a:	bd51fe37          	lui	t3,0xbd51f
    258e:	7e12                	.2byte	0x7e12
    2590:	bd51                	.2byte	0xbd51
    2592:	fe12                	.2byte	0xfe12
    2594:	c1c6                	.2byte	0xc1c6
    2596:	7e79                	.2byte	0x7e79
    2598:	c1c6                	.2byte	0xc1c6
    259a:	fe79                	.2byte	0xfe79
    259c:	9468                	.2byte	0x9468
    259e:	7f26                	.2byte	0x7f26
    25a0:	9468                	.2byte	0x9468
    25a2:	ff26                	.2byte	0xff26
    25a4:	affa                	.2byte	0xaffa
    25a6:	7a60                	.2byte	0x7a60
    25a8:	affa                	.2byte	0xaffa
    25aa:	fa60                	.2byte	0xfa60
    25ac:	7f1e5ec7          	.4byte	0x7f1e5ec7
    25b0:	ff1e5ec7          	.4byte	0xff1e5ec7
    25b4:	2eec                	.2byte	0x2eec
    25b6:	7f0a                	.2byte	0x7f0a
    25b8:	2eec                	.2byte	0x2eec
    25ba:	ff0a                	.2byte	0xff0a
    25bc:	b355                	.2byte	0xb355
    25be:	7ed2                	.2byte	0x7ed2
    25c0:	b355                	.2byte	0xb355
    25c2:	fed2                	.2byte	0xfed2
    25c4:	0ede                	.2byte	0xede
    25c6:	7e48                	.2byte	0x7e48
    25c8:	0ede                	.2byte	0xede
    25ca:	fe48                	.2byte	0xfe48
    25cc:	7eb72bf7          	.4byte	0x7eb72bf7
    25d0:	feb72bf7          	.4byte	0xfeb72bf7
    25d4:	4c51                	.2byte	0x4c51
    25d6:	4c517f2f          	.4byte	0x4c517f2f
    25da:	b8d3ff2f          	.4byte	0xb8d3ff2f
    25de:	7ea6                	.2byte	0x7ea6
    25e0:	fea6b8d3          	.4byte	0xfea6b8d3
    25e4:	4d84                	.2byte	0x4d84
    25e6:	7eb5                	.2byte	0x7eb5
    25e8:	4d84                	.2byte	0x4d84
    25ea:	feb5                	.2byte	0xfeb5
    25ec:	93b2                	.2byte	0x93b2
    25ee:	7f2c                	.2byte	0x7f2c
    25f0:	93b2                	.2byte	0x93b2
    25f2:	ff2c                	.2byte	0xff2c
    25f4:	317d                	.2byte	0x317d
    25f6:	7e6e                	.2byte	0x7e6e
    25f8:	317d                	.2byte	0x317d
    25fa:	fe6e                	.2byte	0xfe6e
    25fc:	7f1b8fcb          	.4byte	0x7f1b8fcb
    2600:	ff1b8fcb          	.4byte	0xff1b8fcb
    2604:	abd8                	.2byte	0xabd8
    2606:	7f2e                	.2byte	0x7f2e
    2608:	abd8                	.2byte	0xabd8
    260a:	ff2e                	.2byte	0xff2e
    260c:	7424                	.2byte	0x7424
    260e:	7eed                	.2byte	0x7eed
    2610:	7424                	.2byte	0x7424
    2612:	feed                	.2byte	0xfeed
    2614:	7392                	.2byte	0x7392
    2616:	7e58                	.2byte	0x7e58
    2618:	7392                	.2byte	0x7392
    261a:	fe58                	.2byte	0xfe58
    261c:	5b90                	.2byte	0x5b90
    261e:	7f2e                	.2byte	0x7f2e
    2620:	5b90                	.2byte	0x5b90
    2622:	ff2e                	.2byte	0xff2e
    2624:	0362                	.2byte	0x362
    2626:	03627eb7          	lui	t4,0x3627
    262a:	7d44feb7          	lui	t4,0x7d44f
    262e:	7f16                	.2byte	0x7f16
    2630:	7d44                	.2byte	0x7d44
    2632:	ff16                	.2byte	0xff16
    2634:	5459                	.2byte	0x5459
    2636:	7ec4                	.2byte	0x7ec4
    2638:	5459                	.2byte	0x5459
    263a:	fec4                	.2byte	0xfec4
    263c:	7fdd                	.2byte	0x7fdd
    263e:	7ea1                	.2byte	0x7ea1
    2640:	7fdd                	.2byte	0x7fdd
    2642:	fea1                	.2byte	0xfea1
    2644:	2105                	.2byte	0x2105
    2646:	7f22                	.2byte	0x7f22
    2648:	2105                	.2byte	0x2105
    264a:	ff22                	.2byte	0xff22
    264c:	7ecd998f          	.4byte	0x7ecd998f
    2650:	fecd998f          	.4byte	0xfecd998f

00002654 <rvtest_data_end>:
	...

00002660 <data_begin>:
    2660:	deadbeef          	jal	t4,fffddc4a <_end+0xfffdaf9a>
    2664:	deadbeef          	jal	t4,fffddc4e <_end+0xfffdaf9e>
    2668:	deadbeef          	jal	t4,fffddc52 <_end+0xfffdafa2>
    266c:	deadbeef          	jal	t4,fffddc56 <_end+0xfffdafa6>
    2670:	deadbeef          	jal	t4,fffddc5a <_end+0xfffdafaa>
    2674:	deadbeef          	jal	t4,fffddc5e <_end+0xfffdafae>
    2678:	deadbeef          	jal	t4,fffddc62 <_end+0xfffdafb2>
    267c:	deadbeef          	jal	t4,fffddc66 <_end+0xfffdafb6>
    2680:	deadbeef          	jal	t4,fffddc6a <_end+0xfffdafba>
    2684:	deadbeef          	jal	t4,fffddc6e <_end+0xfffdafbe>
    2688:	deadbeef          	jal	t4,fffddc72 <_end+0xfffdafc2>
    268c:	deadbeef          	jal	t4,fffddc76 <_end+0xfffdafc6>
    2690:	deadbeef          	jal	t4,fffddc7a <_end+0xfffdafca>
    2694:	deadbeef          	jal	t4,fffddc7e <_end+0xfffdafce>
    2698:	deadbeef          	jal	t4,fffddc82 <_end+0xfffdafd2>
    269c:	deadbeef          	jal	t4,fffddc86 <_end+0xfffdafd6>
    26a0:	deadbeef          	jal	t4,fffddc8a <_end+0xfffdafda>
    26a4:	deadbeef          	jal	t4,fffddc8e <_end+0xfffdafde>
    26a8:	deadbeef          	jal	t4,fffddc92 <_end+0xfffdafe2>
    26ac:	deadbeef          	jal	t4,fffddc96 <_end+0xfffdafe6>
    26b0:	deadbeef          	jal	t4,fffddc9a <_end+0xfffdafea>
    26b4:	deadbeef          	jal	t4,fffddc9e <_end+0xfffdafee>
    26b8:	deadbeef          	jal	t4,fffddca2 <_end+0xfffdaff2>
    26bc:	deadbeef          	jal	t4,fffddca6 <_end+0xfffdaff6>
    26c0:	deadbeef          	jal	t4,fffddcaa <_end+0xfffdaffa>
    26c4:	deadbeef          	jal	t4,fffddcae <_end+0xfffdaffe>
    26c8:	deadbeef          	jal	t4,fffddcb2 <_end+0xfffdb002>
    26cc:	deadbeef          	jal	t4,fffddcb6 <_end+0xfffdb006>
    26d0:	deadbeef          	jal	t4,fffddcba <_end+0xfffdb00a>
    26d4:	deadbeef          	jal	t4,fffddcbe <_end+0xfffdb00e>
    26d8:	deadbeef          	jal	t4,fffddcc2 <_end+0xfffdb012>
    26dc:	deadbeef          	jal	t4,fffddcc6 <_end+0xfffdb016>
    26e0:	deadbeef          	jal	t4,fffddcca <_end+0xfffdb01a>
    26e4:	deadbeef          	jal	t4,fffddcce <_end+0xfffdb01e>
    26e8:	deadbeef          	jal	t4,fffddcd2 <_end+0xfffdb022>
    26ec:	deadbeef          	jal	t4,fffddcd6 <_end+0xfffdb026>
    26f0:	deadbeef          	jal	t4,fffddcda <_end+0xfffdb02a>
    26f4:	deadbeef          	jal	t4,fffddcde <_end+0xfffdb02e>
    26f8:	deadbeef          	jal	t4,fffddce2 <_end+0xfffdb032>
    26fc:	deadbeef          	jal	t4,fffddce6 <_end+0xfffdb036>
    2700:	deadbeef          	jal	t4,fffddcea <_end+0xfffdb03a>
    2704:	deadbeef          	jal	t4,fffddcee <_end+0xfffdb03e>
    2708:	deadbeef          	jal	t4,fffddcf2 <_end+0xfffdb042>
    270c:	deadbeef          	jal	t4,fffddcf6 <_end+0xfffdb046>
    2710:	deadbeef          	jal	t4,fffddcfa <_end+0xfffdb04a>
    2714:	deadbeef          	jal	t4,fffddcfe <_end+0xfffdb04e>
    2718:	deadbeef          	jal	t4,fffddd02 <_end+0xfffdb052>
    271c:	deadbeef          	jal	t4,fffddd06 <_end+0xfffdb056>
    2720:	deadbeef          	jal	t4,fffddd0a <_end+0xfffdb05a>
    2724:	deadbeef          	jal	t4,fffddd0e <_end+0xfffdb05e>
    2728:	deadbeef          	jal	t4,fffddd12 <_end+0xfffdb062>
    272c:	deadbeef          	jal	t4,fffddd16 <_end+0xfffdb066>
    2730:	deadbeef          	jal	t4,fffddd1a <_end+0xfffdb06a>
    2734:	deadbeef          	jal	t4,fffddd1e <_end+0xfffdb06e>
    2738:	deadbeef          	jal	t4,fffddd22 <_end+0xfffdb072>
    273c:	deadbeef          	jal	t4,fffddd26 <_end+0xfffdb076>
    2740:	deadbeef          	jal	t4,fffddd2a <_end+0xfffdb07a>
    2744:	deadbeef          	jal	t4,fffddd2e <_end+0xfffdb07e>
    2748:	deadbeef          	jal	t4,fffddd32 <_end+0xfffdb082>
    274c:	deadbeef          	jal	t4,fffddd36 <_end+0xfffdb086>
    2750:	deadbeef          	jal	t4,fffddd3a <_end+0xfffdb08a>
    2754:	deadbeef          	jal	t4,fffddd3e <_end+0xfffdb08e>
    2758:	deadbeef          	jal	t4,fffddd42 <_end+0xfffdb092>
    275c:	deadbeef          	jal	t4,fffddd46 <_end+0xfffdb096>
    2760:	deadbeef          	jal	t4,fffddd4a <_end+0xfffdb09a>
    2764:	deadbeef          	jal	t4,fffddd4e <_end+0xfffdb09e>
    2768:	deadbeef          	jal	t4,fffddd52 <_end+0xfffdb0a2>
    276c:	deadbeef          	jal	t4,fffddd56 <_end+0xfffdb0a6>
    2770:	deadbeef          	jal	t4,fffddd5a <_end+0xfffdb0aa>
    2774:	deadbeef          	jal	t4,fffddd5e <_end+0xfffdb0ae>
    2778:	deadbeef          	jal	t4,fffddd62 <_end+0xfffdb0b2>
    277c:	deadbeef          	jal	t4,fffddd66 <_end+0xfffdb0b6>
    2780:	deadbeef          	jal	t4,fffddd6a <_end+0xfffdb0ba>
    2784:	deadbeef          	jal	t4,fffddd6e <_end+0xfffdb0be>
    2788:	deadbeef          	jal	t4,fffddd72 <_end+0xfffdb0c2>
    278c:	deadbeef          	jal	t4,fffddd76 <_end+0xfffdb0c6>
    2790:	deadbeef          	jal	t4,fffddd7a <_end+0xfffdb0ca>
    2794:	deadbeef          	jal	t4,fffddd7e <_end+0xfffdb0ce>
    2798:	deadbeef          	jal	t4,fffddd82 <_end+0xfffdb0d2>
    279c:	deadbeef          	jal	t4,fffddd86 <_end+0xfffdb0d6>
    27a0:	deadbeef          	jal	t4,fffddd8a <_end+0xfffdb0da>
    27a4:	deadbeef          	jal	t4,fffddd8e <_end+0xfffdb0de>
    27a8:	deadbeef          	jal	t4,fffddd92 <_end+0xfffdb0e2>
    27ac:	deadbeef          	jal	t4,fffddd96 <_end+0xfffdb0e6>
    27b0:	deadbeef          	jal	t4,fffddd9a <_end+0xfffdb0ea>
    27b4:	deadbeef          	jal	t4,fffddd9e <_end+0xfffdb0ee>
    27b8:	deadbeef          	jal	t4,fffddda2 <_end+0xfffdb0f2>
    27bc:	deadbeef          	jal	t4,fffddda6 <_end+0xfffdb0f6>
    27c0:	deadbeef          	jal	t4,fffdddaa <_end+0xfffdb0fa>
    27c4:	deadbeef          	jal	t4,fffdddae <_end+0xfffdb0fe>
    27c8:	deadbeef          	jal	t4,fffdddb2 <_end+0xfffdb102>
    27cc:	deadbeef          	jal	t4,fffdddb6 <_end+0xfffdb106>
    27d0:	deadbeef          	jal	t4,fffdddba <_end+0xfffdb10a>
    27d4:	deadbeef          	jal	t4,fffdddbe <_end+0xfffdb10e>
    27d8:	deadbeef          	jal	t4,fffdddc2 <_end+0xfffdb112>
    27dc:	deadbeef          	jal	t4,fffdddc6 <_end+0xfffdb116>
    27e0:	deadbeef          	jal	t4,fffdddca <_end+0xfffdb11a>
    27e4:	deadbeef          	jal	t4,fffdddce <_end+0xfffdb11e>
    27e8:	deadbeef          	jal	t4,fffdddd2 <_end+0xfffdb122>
    27ec:	deadbeef          	jal	t4,fffdddd6 <_end+0xfffdb126>
    27f0:	deadbeef          	jal	t4,fffdddda <_end+0xfffdb12a>
    27f4:	deadbeef          	jal	t4,fffdddde <_end+0xfffdb12e>
    27f8:	deadbeef          	jal	t4,fffddde2 <_end+0xfffdb132>
    27fc:	deadbeef          	jal	t4,fffddde6 <_end+0xfffdb136>
    2800:	deadbeef          	jal	t4,fffdddea <_end+0xfffdb13a>
    2804:	deadbeef          	jal	t4,fffdddee <_end+0xfffdb13e>
    2808:	deadbeef          	jal	t4,fffdddf2 <_end+0xfffdb142>
    280c:	deadbeef          	jal	t4,fffdddf6 <_end+0xfffdb146>
    2810:	deadbeef          	jal	t4,fffdddfa <_end+0xfffdb14a>
    2814:	deadbeef          	jal	t4,fffdddfe <_end+0xfffdb14e>
    2818:	deadbeef          	jal	t4,fffdde02 <_end+0xfffdb152>
    281c:	deadbeef          	jal	t4,fffdde06 <_end+0xfffdb156>
    2820:	deadbeef          	jal	t4,fffdde0a <_end+0xfffdb15a>
    2824:	deadbeef          	jal	t4,fffdde0e <_end+0xfffdb15e>
    2828:	deadbeef          	jal	t4,fffdde12 <_end+0xfffdb162>
    282c:	deadbeef          	jal	t4,fffdde16 <_end+0xfffdb166>
    2830:	deadbeef          	jal	t4,fffdde1a <_end+0xfffdb16a>
    2834:	deadbeef          	jal	t4,fffdde1e <_end+0xfffdb16e>
    2838:	deadbeef          	jal	t4,fffdde22 <_end+0xfffdb172>
    283c:	deadbeef          	jal	t4,fffdde26 <_end+0xfffdb176>
    2840:	deadbeef          	jal	t4,fffdde2a <_end+0xfffdb17a>
    2844:	deadbeef          	jal	t4,fffdde2e <_end+0xfffdb17e>
    2848:	deadbeef          	jal	t4,fffdde32 <_end+0xfffdb182>
    284c:	deadbeef          	jal	t4,fffdde36 <_end+0xfffdb186>
    2850:	deadbeef          	jal	t4,fffdde3a <_end+0xfffdb18a>
    2854:	deadbeef          	jal	t4,fffdde3e <_end+0xfffdb18e>
    2858:	deadbeef          	jal	t4,fffdde42 <_end+0xfffdb192>
    285c:	deadbeef          	jal	t4,fffdde46 <_end+0xfffdb196>
    2860:	deadbeef          	jal	t4,fffdde4a <_end+0xfffdb19a>
    2864:	deadbeef          	jal	t4,fffdde4e <_end+0xfffdb19e>
    2868:	deadbeef          	jal	t4,fffdde52 <_end+0xfffdb1a2>
    286c:	deadbeef          	jal	t4,fffdde56 <_end+0xfffdb1a6>
    2870:	deadbeef          	jal	t4,fffdde5a <_end+0xfffdb1aa>
    2874:	deadbeef          	jal	t4,fffdde5e <_end+0xfffdb1ae>
    2878:	deadbeef          	jal	t4,fffdde62 <_end+0xfffdb1b2>
    287c:	deadbeef          	jal	t4,fffdde66 <_end+0xfffdb1b6>
    2880:	deadbeef          	jal	t4,fffdde6a <_end+0xfffdb1ba>
    2884:	deadbeef          	jal	t4,fffdde6e <_end+0xfffdb1be>
    2888:	deadbeef          	jal	t4,fffdde72 <_end+0xfffdb1c2>
    288c:	deadbeef          	jal	t4,fffdde76 <_end+0xfffdb1c6>
    2890:	deadbeef          	jal	t4,fffdde7a <_end+0xfffdb1ca>
    2894:	deadbeef          	jal	t4,fffdde7e <_end+0xfffdb1ce>
    2898:	deadbeef          	jal	t4,fffdde82 <_end+0xfffdb1d2>
    289c:	deadbeef          	jal	t4,fffdde86 <_end+0xfffdb1d6>
    28a0:	deadbeef          	jal	t4,fffdde8a <_end+0xfffdb1da>
    28a4:	deadbeef          	jal	t4,fffdde8e <_end+0xfffdb1de>
    28a8:	deadbeef          	jal	t4,fffdde92 <_end+0xfffdb1e2>
    28ac:	deadbeef          	jal	t4,fffdde96 <_end+0xfffdb1e6>
    28b0:	deadbeef          	jal	t4,fffdde9a <_end+0xfffdb1ea>
    28b4:	deadbeef          	jal	t4,fffdde9e <_end+0xfffdb1ee>
    28b8:	deadbeef          	jal	t4,fffddea2 <_end+0xfffdb1f2>
    28bc:	deadbeef          	jal	t4,fffddea6 <_end+0xfffdb1f6>
    28c0:	deadbeef          	jal	t4,fffddeaa <_end+0xfffdb1fa>
    28c4:	deadbeef          	jal	t4,fffddeae <_end+0xfffdb1fe>
    28c8:	deadbeef          	jal	t4,fffddeb2 <_end+0xfffdb202>
    28cc:	deadbeef          	jal	t4,fffddeb6 <_end+0xfffdb206>
    28d0:	deadbeef          	jal	t4,fffddeba <_end+0xfffdb20a>
    28d4:	deadbeef          	jal	t4,fffddebe <_end+0xfffdb20e>
    28d8:	deadbeef          	jal	t4,fffddec2 <_end+0xfffdb212>
    28dc:	deadbeef          	jal	t4,fffddec6 <_end+0xfffdb216>
    28e0:	deadbeef          	jal	t4,fffddeca <_end+0xfffdb21a>
    28e4:	deadbeef          	jal	t4,fffddece <_end+0xfffdb21e>
    28e8:	deadbeef          	jal	t4,fffdded2 <_end+0xfffdb222>
    28ec:	deadbeef          	jal	t4,fffdded6 <_end+0xfffdb226>
    28f0:	deadbeef          	jal	t4,fffddeda <_end+0xfffdb22a>
    28f4:	deadbeef          	jal	t4,fffddede <_end+0xfffdb22e>
    28f8:	deadbeef          	jal	t4,fffddee2 <_end+0xfffdb232>
    28fc:	deadbeef          	jal	t4,fffddee6 <_end+0xfffdb236>
    2900:	deadbeef          	jal	t4,fffddeea <_end+0xfffdb23a>
    2904:	deadbeef          	jal	t4,fffddeee <_end+0xfffdb23e>
    2908:	deadbeef          	jal	t4,fffddef2 <_end+0xfffdb242>
    290c:	deadbeef          	jal	t4,fffddef6 <_end+0xfffdb246>
    2910:	deadbeef          	jal	t4,fffddefa <_end+0xfffdb24a>
    2914:	deadbeef          	jal	t4,fffddefe <_end+0xfffdb24e>
    2918:	deadbeef          	jal	t4,fffddf02 <_end+0xfffdb252>
    291c:	deadbeef          	jal	t4,fffddf06 <_end+0xfffdb256>
    2920:	deadbeef          	jal	t4,fffddf0a <_end+0xfffdb25a>
    2924:	deadbeef          	jal	t4,fffddf0e <_end+0xfffdb25e>
    2928:	deadbeef          	jal	t4,fffddf12 <_end+0xfffdb262>
    292c:	deadbeef          	jal	t4,fffddf16 <_end+0xfffdb266>
    2930:	deadbeef          	jal	t4,fffddf1a <_end+0xfffdb26a>
    2934:	deadbeef          	jal	t4,fffddf1e <_end+0xfffdb26e>
    2938:	deadbeef          	jal	t4,fffddf22 <_end+0xfffdb272>
    293c:	deadbeef          	jal	t4,fffddf26 <_end+0xfffdb276>
    2940:	deadbeef          	jal	t4,fffddf2a <_end+0xfffdb27a>
    2944:	deadbeef          	jal	t4,fffddf2e <_end+0xfffdb27e>
    2948:	deadbeef          	jal	t4,fffddf32 <_end+0xfffdb282>
    294c:	deadbeef          	jal	t4,fffddf36 <_end+0xfffdb286>
    2950:	deadbeef          	jal	t4,fffddf3a <_end+0xfffdb28a>
    2954:	deadbeef          	jal	t4,fffddf3e <_end+0xfffdb28e>
    2958:	deadbeef          	jal	t4,fffddf42 <_end+0xfffdb292>
    295c:	deadbeef          	jal	t4,fffddf46 <_end+0xfffdb296>
    2960:	deadbeef          	jal	t4,fffddf4a <_end+0xfffdb29a>
    2964:	deadbeef          	jal	t4,fffddf4e <_end+0xfffdb29e>
    2968:	deadbeef          	jal	t4,fffddf52 <_end+0xfffdb2a2>
    296c:	deadbeef          	jal	t4,fffddf56 <_end+0xfffdb2a6>
    2970:	deadbeef          	jal	t4,fffddf5a <_end+0xfffdb2aa>
    2974:	deadbeef          	jal	t4,fffddf5e <_end+0xfffdb2ae>
    2978:	deadbeef          	jal	t4,fffddf62 <_end+0xfffdb2b2>
    297c:	deadbeef          	jal	t4,fffddf66 <_end+0xfffdb2b6>
    2980:	deadbeef          	jal	t4,fffddf6a <_end+0xfffdb2ba>
    2984:	deadbeef          	jal	t4,fffddf6e <_end+0xfffdb2be>
    2988:	deadbeef          	jal	t4,fffddf72 <_end+0xfffdb2c2>
    298c:	deadbeef          	jal	t4,fffddf76 <_end+0xfffdb2c6>
    2990:	deadbeef          	jal	t4,fffddf7a <_end+0xfffdb2ca>
    2994:	deadbeef          	jal	t4,fffddf7e <_end+0xfffdb2ce>
    2998:	deadbeef          	jal	t4,fffddf82 <_end+0xfffdb2d2>
    299c:	deadbeef          	jal	t4,fffddf86 <_end+0xfffdb2d6>
    29a0:	deadbeef          	jal	t4,fffddf8a <_end+0xfffdb2da>
    29a4:	deadbeef          	jal	t4,fffddf8e <_end+0xfffdb2de>
    29a8:	deadbeef          	jal	t4,fffddf92 <_end+0xfffdb2e2>
    29ac:	deadbeef          	jal	t4,fffddf96 <_end+0xfffdb2e6>
    29b0:	deadbeef          	jal	t4,fffddf9a <_end+0xfffdb2ea>
    29b4:	deadbeef          	jal	t4,fffddf9e <_end+0xfffdb2ee>
    29b8:	deadbeef          	jal	t4,fffddfa2 <_end+0xfffdb2f2>
    29bc:	deadbeef          	jal	t4,fffddfa6 <_end+0xfffdb2f6>
    29c0:	deadbeef          	jal	t4,fffddfaa <_end+0xfffdb2fa>
    29c4:	deadbeef          	jal	t4,fffddfae <_end+0xfffdb2fe>
    29c8:	deadbeef          	jal	t4,fffddfb2 <_end+0xfffdb302>
    29cc:	deadbeef          	jal	t4,fffddfb6 <_end+0xfffdb306>
    29d0:	deadbeef          	jal	t4,fffddfba <_end+0xfffdb30a>
    29d4:	deadbeef          	jal	t4,fffddfbe <_end+0xfffdb30e>
    29d8:	deadbeef          	jal	t4,fffddfc2 <_end+0xfffdb312>
    29dc:	deadbeef          	jal	t4,fffddfc6 <_end+0xfffdb316>
    29e0:	deadbeef          	jal	t4,fffddfca <_end+0xfffdb31a>
    29e4:	deadbeef          	jal	t4,fffddfce <_end+0xfffdb31e>
    29e8:	deadbeef          	jal	t4,fffddfd2 <_end+0xfffdb322>
    29ec:	deadbeef          	jal	t4,fffddfd6 <_end+0xfffdb326>
    29f0:	deadbeef          	jal	t4,fffddfda <_end+0xfffdb32a>
    29f4:	deadbeef          	jal	t4,fffddfde <_end+0xfffdb32e>
    29f8:	deadbeef          	jal	t4,fffddfe2 <_end+0xfffdb332>
    29fc:	deadbeef          	jal	t4,fffddfe6 <_end+0xfffdb336>
    2a00:	deadbeef          	jal	t4,fffddfea <_end+0xfffdb33a>
    2a04:	deadbeef          	jal	t4,fffddfee <_end+0xfffdb33e>
    2a08:	deadbeef          	jal	t4,fffddff2 <_end+0xfffdb342>
    2a0c:	deadbeef          	jal	t4,fffddff6 <_end+0xfffdb346>
    2a10:	deadbeef          	jal	t4,fffddffa <_end+0xfffdb34a>
    2a14:	deadbeef          	jal	t4,fffddffe <_end+0xfffdb34e>
    2a18:	deadbeef          	jal	t4,fffde002 <_end+0xfffdb352>
    2a1c:	deadbeef          	jal	t4,fffde006 <_end+0xfffdb356>
    2a20:	deadbeef          	jal	t4,fffde00a <_end+0xfffdb35a>
    2a24:	deadbeef          	jal	t4,fffde00e <_end+0xfffdb35e>
    2a28:	deadbeef          	jal	t4,fffde012 <_end+0xfffdb362>
    2a2c:	deadbeef          	jal	t4,fffde016 <_end+0xfffdb366>
    2a30:	deadbeef          	jal	t4,fffde01a <_end+0xfffdb36a>
    2a34:	deadbeef          	jal	t4,fffde01e <_end+0xfffdb36e>
    2a38:	deadbeef          	jal	t4,fffde022 <_end+0xfffdb372>
    2a3c:	deadbeef          	jal	t4,fffde026 <_end+0xfffdb376>
    2a40:	deadbeef          	jal	t4,fffde02a <_end+0xfffdb37a>
    2a44:	deadbeef          	jal	t4,fffde02e <_end+0xfffdb37e>
    2a48:	deadbeef          	jal	t4,fffde032 <_end+0xfffdb382>
    2a4c:	deadbeef          	jal	t4,fffde036 <_end+0xfffdb386>
    2a50:	deadbeef          	jal	t4,fffde03a <_end+0xfffdb38a>
    2a54:	deadbeef          	jal	t4,fffde03e <_end+0xfffdb38e>
    2a58:	deadbeef          	jal	t4,fffde042 <_end+0xfffdb392>
    2a5c:	deadbeef          	jal	t4,fffde046 <_end+0xfffdb396>
    2a60:	deadbeef          	jal	t4,fffde04a <_end+0xfffdb39a>
    2a64:	deadbeef          	jal	t4,fffde04e <_end+0xfffdb39e>
    2a68:	deadbeef          	jal	t4,fffde052 <_end+0xfffdb3a2>
    2a6c:	deadbeef          	jal	t4,fffde056 <_end+0xfffdb3a6>
    2a70:	deadbeef          	jal	t4,fffde05a <_end+0xfffdb3aa>
    2a74:	deadbeef          	jal	t4,fffde05e <_end+0xfffdb3ae>
    2a78:	deadbeef          	jal	t4,fffde062 <_end+0xfffdb3b2>
    2a7c:	deadbeef          	jal	t4,fffde066 <_end+0xfffdb3b6>
    2a80:	deadbeef          	jal	t4,fffde06a <_end+0xfffdb3ba>
    2a84:	deadbeef          	jal	t4,fffde06e <_end+0xfffdb3be>
    2a88:	deadbeef          	jal	t4,fffde072 <_end+0xfffdb3c2>
    2a8c:	deadbeef          	jal	t4,fffde076 <_end+0xfffdb3c6>
    2a90:	deadbeef          	jal	t4,fffde07a <_end+0xfffdb3ca>
    2a94:	deadbeef          	jal	t4,fffde07e <_end+0xfffdb3ce>
    2a98:	deadbeef          	jal	t4,fffde082 <_end+0xfffdb3d2>
    2a9c:	deadbeef          	jal	t4,fffde086 <_end+0xfffdb3d6>
    2aa0:	deadbeef          	jal	t4,fffde08a <_end+0xfffdb3da>
    2aa4:	deadbeef          	jal	t4,fffde08e <_end+0xfffdb3de>
    2aa8:	deadbeef          	jal	t4,fffde092 <_end+0xfffdb3e2>
    2aac:	deadbeef          	jal	t4,fffde096 <_end+0xfffdb3e6>
    2ab0:	deadbeef          	jal	t4,fffde09a <_end+0xfffdb3ea>
    2ab4:	deadbeef          	jal	t4,fffde09e <_end+0xfffdb3ee>
    2ab8:	deadbeef          	jal	t4,fffde0a2 <_end+0xfffdb3f2>
    2abc:	deadbeef          	jal	t4,fffde0a6 <_end+0xfffdb3f6>
    2ac0:	deadbeef          	jal	t4,fffde0aa <_end+0xfffdb3fa>
    2ac4:	deadbeef          	jal	t4,fffde0ae <_end+0xfffdb3fe>
    2ac8:	deadbeef          	jal	t4,fffde0b2 <_end+0xfffdb402>
    2acc:	deadbeef          	jal	t4,fffde0b6 <_end+0xfffdb406>
    2ad0:	deadbeef          	jal	t4,fffde0ba <_end+0xfffdb40a>
    2ad4:	deadbeef          	jal	t4,fffde0be <_end+0xfffdb40e>
    2ad8:	deadbeef          	jal	t4,fffde0c2 <_end+0xfffdb412>
    2adc:	deadbeef          	jal	t4,fffde0c6 <_end+0xfffdb416>
    2ae0:	deadbeef          	jal	t4,fffde0ca <_end+0xfffdb41a>
    2ae4:	deadbeef          	jal	t4,fffde0ce <_end+0xfffdb41e>
    2ae8:	deadbeef          	jal	t4,fffde0d2 <_end+0xfffdb422>
    2aec:	deadbeef          	jal	t4,fffde0d6 <_end+0xfffdb426>
    2af0:	deadbeef          	jal	t4,fffde0da <_end+0xfffdb42a>
    2af4:	deadbeef          	jal	t4,fffde0de <_end+0xfffdb42e>
    2af8:	deadbeef          	jal	t4,fffde0e2 <_end+0xfffdb432>
    2afc:	deadbeef          	jal	t4,fffde0e6 <_end+0xfffdb436>
    2b00:	deadbeef          	jal	t4,fffde0ea <_end+0xfffdb43a>
    2b04:	deadbeef          	jal	t4,fffde0ee <_end+0xfffdb43e>
    2b08:	deadbeef          	jal	t4,fffde0f2 <_end+0xfffdb442>
    2b0c:	deadbeef          	jal	t4,fffde0f6 <_end+0xfffdb446>
    2b10:	deadbeef          	jal	t4,fffde0fa <_end+0xfffdb44a>
    2b14:	deadbeef          	jal	t4,fffde0fe <_end+0xfffdb44e>
    2b18:	deadbeef          	jal	t4,fffde102 <_end+0xfffdb452>
    2b1c:	deadbeef          	jal	t4,fffde106 <_end+0xfffdb456>
    2b20:	deadbeef          	jal	t4,fffde10a <_end+0xfffdb45a>
    2b24:	deadbeef          	jal	t4,fffde10e <_end+0xfffdb45e>
    2b28:	deadbeef          	jal	t4,fffde112 <_end+0xfffdb462>
    2b2c:	deadbeef          	jal	t4,fffde116 <_end+0xfffdb466>
    2b30:	deadbeef          	jal	t4,fffde11a <_end+0xfffdb46a>
    2b34:	deadbeef          	jal	t4,fffde11e <_end+0xfffdb46e>
    2b38:	deadbeef          	jal	t4,fffde122 <_end+0xfffdb472>
    2b3c:	deadbeef          	jal	t4,fffde126 <_end+0xfffdb476>
    2b40:	deadbeef          	jal	t4,fffde12a <_end+0xfffdb47a>
    2b44:	deadbeef          	jal	t4,fffde12e <_end+0xfffdb47e>
    2b48:	deadbeef          	jal	t4,fffde132 <_end+0xfffdb482>
    2b4c:	deadbeef          	jal	t4,fffde136 <_end+0xfffdb486>
    2b50:	deadbeef          	jal	t4,fffde13a <_end+0xfffdb48a>
    2b54:	deadbeef          	jal	t4,fffde13e <_end+0xfffdb48e>
    2b58:	deadbeef          	jal	t4,fffde142 <_end+0xfffdb492>
    2b5c:	deadbeef          	jal	t4,fffde146 <_end+0xfffdb496>
    2b60:	deadbeef          	jal	t4,fffde14a <_end+0xfffdb49a>
    2b64:	deadbeef          	jal	t4,fffde14e <_end+0xfffdb49e>
    2b68:	deadbeef          	jal	t4,fffde152 <_end+0xfffdb4a2>
    2b6c:	deadbeef          	jal	t4,fffde156 <_end+0xfffdb4a6>
    2b70:	deadbeef          	jal	t4,fffde15a <_end+0xfffdb4aa>
    2b74:	deadbeef          	jal	t4,fffde15e <_end+0xfffdb4ae>
    2b78:	deadbeef          	jal	t4,fffde162 <_end+0xfffdb4b2>
    2b7c:	deadbeef          	jal	t4,fffde166 <_end+0xfffdb4b6>
    2b80:	deadbeef          	jal	t4,fffde16a <_end+0xfffdb4ba>
    2b84:	deadbeef          	jal	t4,fffde16e <_end+0xfffdb4be>
    2b88:	deadbeef          	jal	t4,fffde172 <_end+0xfffdb4c2>
    2b8c:	deadbeef          	jal	t4,fffde176 <_end+0xfffdb4c6>
    2b90:	deadbeef          	jal	t4,fffde17a <_end+0xfffdb4ca>
    2b94:	deadbeef          	jal	t4,fffde17e <_end+0xfffdb4ce>
    2b98:	deadbeef          	jal	t4,fffde182 <_end+0xfffdb4d2>
    2b9c:	deadbeef          	jal	t4,fffde186 <_end+0xfffdb4d6>
    2ba0:	deadbeef          	jal	t4,fffde18a <_end+0xfffdb4da>
    2ba4:	deadbeef          	jal	t4,fffde18e <_end+0xfffdb4de>
    2ba8:	deadbeef          	jal	t4,fffde192 <_end+0xfffdb4e2>
    2bac:	deadbeef          	jal	t4,fffde196 <_end+0xfffdb4e6>
    2bb0:	deadbeef          	jal	t4,fffde19a <_end+0xfffdb4ea>
    2bb4:	deadbeef          	jal	t4,fffde19e <_end+0xfffdb4ee>
    2bb8:	deadbeef          	jal	t4,fffde1a2 <_end+0xfffdb4f2>
    2bbc:	deadbeef          	jal	t4,fffde1a6 <_end+0xfffdb4f6>
    2bc0:	deadbeef          	jal	t4,fffde1aa <_end+0xfffdb4fa>
    2bc4:	deadbeef          	jal	t4,fffde1ae <_end+0xfffdb4fe>
    2bc8:	deadbeef          	jal	t4,fffde1b2 <_end+0xfffdb502>
    2bcc:	deadbeef          	jal	t4,fffde1b6 <_end+0xfffdb506>
    2bd0:	deadbeef          	jal	t4,fffde1ba <_end+0xfffdb50a>
    2bd4:	deadbeef          	jal	t4,fffde1be <_end+0xfffdb50e>
    2bd8:	deadbeef          	jal	t4,fffde1c2 <_end+0xfffdb512>
    2bdc:	deadbeef          	jal	t4,fffde1c6 <_end+0xfffdb516>
    2be0:	deadbeef          	jal	t4,fffde1ca <_end+0xfffdb51a>
    2be4:	deadbeef          	jal	t4,fffde1ce <_end+0xfffdb51e>
    2be8:	deadbeef          	jal	t4,fffde1d2 <_end+0xfffdb522>
    2bec:	deadbeef          	jal	t4,fffde1d6 <_end+0xfffdb526>
    2bf0:	deadbeef          	jal	t4,fffde1da <_end+0xfffdb52a>
    2bf4:	deadbeef          	jal	t4,fffde1de <_end+0xfffdb52e>
    2bf8:	deadbeef          	jal	t4,fffde1e2 <_end+0xfffdb532>
    2bfc:	deadbeef          	jal	t4,fffde1e6 <_end+0xfffdb536>
    2c00:	deadbeef          	jal	t4,fffde1ea <_end+0xfffdb53a>
    2c04:	deadbeef          	jal	t4,fffde1ee <_end+0xfffdb53e>
    2c08:	deadbeef          	jal	t4,fffde1f2 <_end+0xfffdb542>
    2c0c:	deadbeef          	jal	t4,fffde1f6 <_end+0xfffdb546>
    2c10:	deadbeef          	jal	t4,fffde1fa <_end+0xfffdb54a>
    2c14:	deadbeef          	jal	t4,fffde1fe <_end+0xfffdb54e>
    2c18:	deadbeef          	jal	t4,fffde202 <_end+0xfffdb552>
    2c1c:	deadbeef          	jal	t4,fffde206 <_end+0xfffdb556>
    2c20:	deadbeef          	jal	t4,fffde20a <_end+0xfffdb55a>
    2c24:	deadbeef          	jal	t4,fffde20e <_end+0xfffdb55e>
    2c28:	deadbeef          	jal	t4,fffde212 <_end+0xfffdb562>
    2c2c:	deadbeef          	jal	t4,fffde216 <_end+0xfffdb566>
    2c30:	deadbeef          	jal	t4,fffde21a <_end+0xfffdb56a>
    2c34:	deadbeef          	jal	t4,fffde21e <_end+0xfffdb56e>
    2c38:	deadbeef          	jal	t4,fffde222 <_end+0xfffdb572>
    2c3c:	deadbeef          	jal	t4,fffde226 <_end+0xfffdb576>
    2c40:	deadbeef          	jal	t4,fffde22a <_end+0xfffdb57a>
    2c44:	deadbeef          	jal	t4,fffde22e <_end+0xfffdb57e>
    2c48:	deadbeef          	jal	t4,fffde232 <_end+0xfffdb582>
    2c4c:	deadbeef          	jal	t4,fffde236 <_end+0xfffdb586>
    2c50:	deadbeef          	jal	t4,fffde23a <_end+0xfffdb58a>
    2c54:	deadbeef          	jal	t4,fffde23e <_end+0xfffdb58e>
    2c58:	deadbeef          	jal	t4,fffde242 <_end+0xfffdb592>
    2c5c:	deadbeef          	jal	t4,fffde246 <_end+0xfffdb596>
    2c60:	deadbeef          	jal	t4,fffde24a <_end+0xfffdb59a>
    2c64:	deadbeef          	jal	t4,fffde24e <_end+0xfffdb59e>
    2c68:	deadbeef          	jal	t4,fffde252 <_end+0xfffdb5a2>
    2c6c:	deadbeef          	jal	t4,fffde256 <_end+0xfffdb5a6>
    2c70:	deadbeef          	jal	t4,fffde25a <_end+0xfffdb5aa>
    2c74:	deadbeef          	jal	t4,fffde25e <_end+0xfffdb5ae>
    2c78:	deadbeef          	jal	t4,fffde262 <_end+0xfffdb5b2>
    2c7c:	deadbeef          	jal	t4,fffde266 <_end+0xfffdb5b6>
    2c80:	deadbeef          	jal	t4,fffde26a <_end+0xfffdb5ba>
    2c84:	deadbeef          	jal	t4,fffde26e <_end+0xfffdb5be>
    2c88:	deadbeef          	jal	t4,fffde272 <_end+0xfffdb5c2>
    2c8c:	deadbeef          	jal	t4,fffde276 <_end+0xfffdb5c6>
    2c90:	deadbeef          	jal	t4,fffde27a <_end+0xfffdb5ca>
    2c94:	deadbeef          	jal	t4,fffde27e <_end+0xfffdb5ce>
    2c98:	deadbeef          	jal	t4,fffde282 <_end+0xfffdb5d2>
    2c9c:	deadbeef          	jal	t4,fffde286 <_end+0xfffdb5d6>
    2ca0:	deadbeef          	jal	t4,fffde28a <_end+0xfffdb5da>
    2ca4:	deadbeef          	jal	t4,fffde28e <_end+0xfffdb5de>
    2ca8:	deadbeef          	jal	t4,fffde292 <_end+0xfffdb5e2>
    2cac:	deadbeef          	jal	t4,fffde296 <_end+0xfffdb5e6>

Desensamblado de la sección .riscv.attributes:

00000000 <.riscv.attributes>:
   0:	2241                	.2byte	0x2241
   2:	0000                	.2byte	0x0
   4:	7200                	.2byte	0x7200
   6:	7369                	.2byte	0x7369
   8:	01007663          	bgeu	zero,a6,14 <rvtest_entry_point+0x14>
   c:	0018                	.2byte	0x18
   e:	0000                	.2byte	0x0
  10:	7205                	.2byte	0x7205
  12:	3376                	.2byte	0x3376
  14:	6932                	.2byte	0x6932
  16:	7032                	.2byte	0x7032
  18:	5f30                	.2byte	0x5f30
  1a:	3266                	.2byte	0x3266
  1c:	3070                	.2byte	0x3070
  1e:	0800                	.2byte	0x800
  20:	0a01                	.2byte	0xa01
  22:	0b              	Address 0x22 is out of bounds.

