
/home/alejandro/Escritorio/test_riscv2.5/riscv-compliance/work/rv32i_m/F/fcvt.wu.s_b23-01.elf:     formato del fichero elf32-littleriscv


Desensamblado de la sección .text.init:

00000000 <rvtest_entry_point>:
   0:	feedc0b7          	lui	ra,0xfeedc
   4:	ead08093          	add	ra,ra,-339 # feedbead <_end+0xfeedac7d>
   8:	ff76e137          	lui	sp,0xff76e
   c:	f5610113          	add	sp,sp,-170 # ff76df56 <_end+0xff76cd26>
  10:	7fbb71b7          	lui	gp,0x7fbb7
  14:	fab18193          	add	gp,gp,-85 # 7fbb6fab <_end+0x7fbb5d7b>
  18:	bfddb237          	lui	tp,0xbfddb
  1c:	7d520213          	add	tp,tp,2005 # bfddb7d5 <_end+0xbfdda5a5>
  20:	00000297          	auipc	t0,0x0
  24:	0d828293          	add	t0,t0,216 # f8 <rvtest_code_begin>
  28:	00001317          	auipc	t1,0x1
  2c:	fd830313          	add	t1,t1,-40 # 1000 <rvtest_data_begin>
  30:	b7fbb3b7          	lui	t2,0xb7fbb
  34:	6fa38393          	add	t2,t2,1786 # b7fbb6fa <_end+0xb7fba4ca>
  38:	5bfde437          	lui	s0,0x5bfde
  3c:	b7d40413          	add	s0,s0,-1155 # 5bfddb7d <_end+0x5bfdc94d>
  40:	adfef4b7          	lui	s1,0xadfef
  44:	dbe48493          	add	s1,s1,-578 # adfeedbe <_end+0xadfedb8e>
  48:	56ff7537          	lui	a0,0x56ff7
  4c:	6df50513          	add	a0,a0,1759 # 56ff76df <_end+0x56ff64af>
  50:	ab7fc5b7          	lui	a1,0xab7fc
  54:	b6f58593          	add	a1,a1,-1169 # ab7fbb6f <_end+0xab7fa93f>
  58:	d5bfe637          	lui	a2,0xd5bfe
  5c:	db760613          	add	a2,a2,-585 # d5bfddb7 <_end+0xd5bfcb87>
  60:	eadff6b7          	lui	a3,0xeadff
  64:	edb68693          	add	a3,a3,-293 # eadfeedb <_end+0xeadfdcab>
  68:	f56ff737          	lui	a4,0xf56ff
  6c:	76d70713          	add	a4,a4,1901 # f56ff76d <_end+0xf56fe53d>
  70:	fab807b7          	lui	a5,0xfab80
  74:	bb678793          	add	a5,a5,-1098 # fab7fbb6 <_end+0xfab7e986>
  78:	7d5c0837          	lui	a6,0x7d5c0
  7c:	ddb80813          	add	a6,a6,-549 # 7d5bfddb <_end+0x7d5bebab>
  80:	beae08b7          	lui	a7,0xbeae0
  84:	eed88893          	add	a7,a7,-275 # beadfeed <_end+0xbeadecbd>
  88:	df570937          	lui	s2,0xdf570
  8c:	f7690913          	add	s2,s2,-138 # df56ff76 <_end+0xdf56ed46>
  90:	6fab89b7          	lui	s3,0x6fab8
  94:	fbb98993          	add	s3,s3,-69 # 6fab7fbb <_end+0x6fab6d8b>
  98:	b7d5ca37          	lui	s4,0xb7d5c
  9c:	fdda0a13          	add	s4,s4,-35 # b7d5bfdd <_end+0xb7d5adad>
  a0:	dbeaeab7          	lui	s5,0xdbeae
  a4:	feea8a93          	add	s5,s5,-18 # dbeadfee <_end+0xdbeacdbe>
  a8:	6df57b37          	lui	s6,0x6df57
  ac:	ff7b0b13          	add	s6,s6,-9 # 6df56ff7 <_end+0x6df55dc7>
  b0:	b6fabbb7          	lui	s7,0xb6fab
  b4:	7fbb8b93          	add	s7,s7,2043 # b6fab7fb <_end+0xb6faa5cb>
  b8:	db7d6c37          	lui	s8,0xdb7d6
  bc:	bfdc0c13          	add	s8,s8,-1027 # db7d5bfd <_end+0xdb7d49cd>
  c0:	edbebcb7          	lui	s9,0xedbeb
  c4:	dfec8c93          	add	s9,s9,-514 # edbeadfe <_end+0xedbe9bce>
  c8:	76df5d37          	lui	s10,0x76df5
  cc:	6ffd0d13          	add	s10,s10,1791 # 76df56ff <_end+0x76df44cf>
  d0:	bb6fbdb7          	lui	s11,0xbb6fb
  d4:	b7fd8d93          	add	s11,s11,-1153 # bb6fab7f <_end+0xbb6f994f>
  d8:	ddb7de37          	lui	t3,0xddb7d
  dc:	5bfe0e13          	add	t3,t3,1471 # ddb7d5bf <_end+0xddb7c38f>
  e0:	eedbfeb7          	lui	t4,0xeedbf
  e4:	adfe8e93          	add	t4,t4,-1313 # eedbeadf <_end+0xeedbd8af>
  e8:	f76dff37          	lui	t5,0xf76df
  ec:	56ff0f13          	add	t5,t5,1391 # f76df56f <_end+0xf76de33f>
  f0:	fbb70fb7          	lui	t6,0xfbb70
  f4:	ab7f8f93          	add	t6,t6,-1353 # fbb6fab7 <_end+0xfbb6e887>

000000f8 <rvtest_code_begin>:
  f8:	00002537          	lui	a0,0x2
  fc:	30052073          	csrs	mstatus,a0
 100:	00001817          	auipc	a6,0x1
 104:	f0480813          	add	a6,a6,-252 # 1004 <test_fp>
 108:	00001797          	auipc	a5,0x1
 10c:	fb878793          	add	a5,a5,-72 # 10c0 <data_begin>

00000110 <inst_0>:
 110:	00082c87          	flw	fs9,0(a6)
 114:	00205073          	fsrmi	zero,0
 118:	c01cf253          	fcvt.wu.s	tp,fs9
 11c:	001028f3          	frflags	a7
 120:	0047a023          	sw	tp,0(a5)
 124:	0117a223          	sw	a7,4(a5)

00000128 <inst_1>:
 128:	00482307          	flw	ft6,4(a6)
 12c:	00225073          	fsrmi	zero,4
 130:	c01373d3          	fcvt.wu.s	t2,ft6
 134:	001028f3          	frflags	a7
 138:	0077a423          	sw	t2,8(a5)
 13c:	0117a623          	sw	a7,12(a5)

00000140 <inst_2>:
 140:	00882587          	flw	fa1,8(a6)
 144:	0021d073          	fsrmi	zero,3
 148:	c015fe53          	fcvt.wu.s	t3,fa1
 14c:	001028f3          	frflags	a7
 150:	01c7a823          	sw	t3,16(a5)
 154:	0117aa23          	sw	a7,20(a5)

00000158 <inst_3>:
 158:	00c82387          	flw	ft7,12(a6)
 15c:	00215073          	fsrmi	zero,2
 160:	c013f353          	fcvt.wu.s	t1,ft7
 164:	001028f3          	frflags	a7
 168:	0067ac23          	sw	t1,24(a5)
 16c:	0117ae23          	sw	a7,28(a5)

00000170 <inst_4>:
 170:	01082807          	flw	fa6,16(a6)
 174:	0020d073          	fsrmi	zero,1
 178:	c0187d53          	fcvt.wu.s	s10,fa6
 17c:	001028f3          	frflags	a7
 180:	03a7a023          	sw	s10,32(a5)
 184:	0317a223          	sw	a7,36(a5)

00000188 <inst_5>:
 188:	01482187          	flw	ft3,20(a6)
 18c:	00205073          	fsrmi	zero,0
 190:	c011f553          	fcvt.wu.s	a0,ft3
 194:	001028f3          	frflags	a7
 198:	02a7a423          	sw	a0,40(a5)
 19c:	0317a623          	sw	a7,44(a5)

000001a0 <inst_6>:
 1a0:	01882e07          	flw	ft8,24(a6)
 1a4:	00225073          	fsrmi	zero,4
 1a8:	c01e7ed3          	fcvt.wu.s	t4,ft8
 1ac:	001028f3          	frflags	a7
 1b0:	03d7a823          	sw	t4,48(a5)
 1b4:	0317aa23          	sw	a7,52(a5)

000001b8 <inst_7>:
 1b8:	01c82707          	flw	fa4,28(a6)
 1bc:	0021d073          	fsrmi	zero,3
 1c0:	c0177753          	fcvt.wu.s	a4,fa4
 1c4:	001028f3          	frflags	a7
 1c8:	02e7ac23          	sw	a4,56(a5)
 1cc:	0317ae23          	sw	a7,60(a5)

000001d0 <inst_8>:
 1d0:	02082507          	flw	fa0,32(a6)
 1d4:	00215073          	fsrmi	zero,2
 1d8:	c0157bd3          	fcvt.wu.s	s7,fa0
 1dc:	001028f3          	frflags	a7
 1e0:	0577a023          	sw	s7,64(a5)
 1e4:	0517a223          	sw	a7,68(a5)

000001e8 <inst_9>:
 1e8:	02482107          	flw	ft2,36(a6)
 1ec:	0020d073          	fsrmi	zero,1
 1f0:	c0117dd3          	fcvt.wu.s	s11,ft2
 1f4:	001028f3          	frflags	a7
 1f8:	05b7a423          	sw	s11,72(a5)
 1fc:	0517a623          	sw	a7,76(a5)

00000200 <inst_10>:
 200:	02882487          	flw	fs1,40(a6)
 204:	00205073          	fsrmi	zero,0
 208:	c014fc53          	fcvt.wu.s	s8,fs1
 20c:	001028f3          	frflags	a7
 210:	0587a823          	sw	s8,80(a5)
 214:	0517aa23          	sw	a7,84(a5)

00000218 <inst_11>:
 218:	02c82407          	flw	fs0,44(a6)
 21c:	00225073          	fsrmi	zero,4
 220:	c01475d3          	fcvt.wu.s	a1,fs0
 224:	001028f3          	frflags	a7
 228:	04b7ac23          	sw	a1,88(a5)
 22c:	0517ae23          	sw	a7,92(a5)

00000230 <inst_12>:
 230:	03082787          	flw	fa5,48(a6)
 234:	0021d073          	fsrmi	zero,3
 238:	c017fa53          	fcvt.wu.s	s4,fa5
 23c:	001028f3          	frflags	a7
 240:	0747a023          	sw	s4,96(a5)
 244:	0717a223          	sw	a7,100(a5)

00000248 <inst_13>:
 248:	03482a87          	flw	fs5,52(a6)
 24c:	00215073          	fsrmi	zero,2
 250:	c01af0d3          	fcvt.wu.s	ra,fs5
 254:	001028f3          	frflags	a7
 258:	0617a423          	sw	ra,104(a5)
 25c:	0717a623          	sw	a7,108(a5)

00000260 <inst_14>:
 260:	03882087          	flw	ft1,56(a6)
 264:	0020d073          	fsrmi	zero,1
 268:	c010ff53          	fcvt.wu.s	t5,ft1
 26c:	001028f3          	frflags	a7
 270:	07e7a823          	sw	t5,112(a5)
 274:	0717aa23          	sw	a7,116(a5)

00000278 <inst_15>:
 278:	03c82887          	flw	fa7,60(a6)
 27c:	00205073          	fsrmi	zero,0
 280:	c018f4d3          	fcvt.wu.s	s1,fa7
 284:	001028f3          	frflags	a7
 288:	0697ac23          	sw	s1,120(a5)
 28c:	0717ae23          	sw	a7,124(a5)

00000290 <inst_16>:
 290:	04082d87          	flw	fs11,64(a6)
 294:	00225073          	fsrmi	zero,4
 298:	c01dfad3          	fcvt.wu.s	s5,fs11
 29c:	001028f3          	frflags	a7
 2a0:	0957a023          	sw	s5,128(a5)
 2a4:	0917a223          	sw	a7,132(a5)
 2a8:	00080a33          	add	s4,a6,zero
 2ac:	00001997          	auipc	s3,0x1
 2b0:	e9c98993          	add	s3,s3,-356 # 1148 <signature_x19_0>

000002b4 <inst_17>:
 2b4:	044a2907          	flw	fs2,68(s4)
 2b8:	0021d073          	fsrmi	zero,3
 2bc:	c01977d3          	fcvt.wu.s	a5,fs2
 2c0:	00102af3          	frflags	s5
 2c4:	00f9a023          	sw	a5,0(s3)
 2c8:	0159a223          	sw	s5,4(s3)
 2cc:	000a0833          	add	a6,s4,zero
 2d0:	00001797          	auipc	a5,0x1
 2d4:	e8078793          	add	a5,a5,-384 # 1150 <signature_x15_2>

000002d8 <inst_18>:
 2d8:	04882d07          	flw	fs10,72(a6)
 2dc:	00215073          	fsrmi	zero,2
 2e0:	c01d7153          	fcvt.wu.s	sp,fs10
 2e4:	001028f3          	frflags	a7
 2e8:	0027a023          	sw	sp,0(a5)
 2ec:	0117a223          	sw	a7,4(a5)
 2f0:	00080a33          	add	s4,a6,zero
 2f4:	00001997          	auipc	s3,0x1
 2f8:	e6498993          	add	s3,s3,-412 # 1158 <signature_x19_1>

000002fc <inst_19>:
 2fc:	04ca2207          	flw	ft4,76(s4)
 300:	0020d073          	fsrmi	zero,1
 304:	c0127853          	fcvt.wu.s	a6,ft4
 308:	00102af3          	frflags	s5
 30c:	0109a023          	sw	a6,0(s3)
 310:	0159a223          	sw	s5,4(s3)
 314:	000a0833          	add	a6,s4,zero
 318:	00001797          	auipc	a5,0x1
 31c:	e4878793          	add	a5,a5,-440 # 1160 <signature_x15_3>

00000320 <inst_20>:
 320:	05082b07          	flw	fs6,80(a6)
 324:	00205073          	fsrmi	zero,0
 328:	c01b7fd3          	fcvt.wu.s	t6,fs6
 32c:	001028f3          	frflags	a7
 330:	01f7a023          	sw	t6,0(a5)
 334:	0117a223          	sw	a7,4(a5)

00000338 <inst_21>:
 338:	05482607          	flw	fa2,84(a6)
 33c:	00225073          	fsrmi	zero,4
 340:	c0167453          	fcvt.wu.s	s0,fa2
 344:	001028f3          	frflags	a7
 348:	0087a423          	sw	s0,8(a5)
 34c:	0117a623          	sw	a7,12(a5)

00000350 <inst_22>:
 350:	05882a07          	flw	fs4,88(a6)
 354:	0021d073          	fsrmi	zero,3
 358:	c01a7953          	fcvt.wu.s	s2,fs4
 35c:	001028f3          	frflags	a7
 360:	0127a823          	sw	s2,16(a5)
 364:	0117aa23          	sw	a7,20(a5)

00000368 <inst_23>:
 368:	05c82287          	flw	ft5,92(a6)
 36c:	00215073          	fsrmi	zero,2
 370:	c012f2d3          	fcvt.wu.s	t0,ft5
 374:	001028f3          	frflags	a7
 378:	0057ac23          	sw	t0,24(a5)
 37c:	0117ae23          	sw	a7,28(a5)

00000380 <inst_24>:
 380:	06082e87          	flw	ft9,96(a6)
 384:	0020d073          	fsrmi	zero,1
 388:	c01efb53          	fcvt.wu.s	s6,ft9
 38c:	001028f3          	frflags	a7
 390:	0367a023          	sw	s6,32(a5)
 394:	0317a223          	sw	a7,36(a5)

00000398 <inst_25>:
 398:	06482f87          	flw	ft11,100(a6)
 39c:	00205073          	fsrmi	zero,0
 3a0:	c01ff9d3          	fcvt.wu.s	s3,ft11
 3a4:	001028f3          	frflags	a7
 3a8:	0337a423          	sw	s3,40(a5)
 3ac:	0317a623          	sw	a7,44(a5)
 3b0:	00080a33          	add	s4,a6,zero
 3b4:	00001997          	auipc	s3,0x1
 3b8:	ddc98993          	add	s3,s3,-548 # 1190 <signature_x19_2>

000003bc <inst_26>:
 3bc:	068a2b87          	flw	fs7,104(s4)
 3c0:	00225073          	fsrmi	zero,4
 3c4:	c01bf8d3          	fcvt.wu.s	a7,fs7
 3c8:	00102af3          	frflags	s5
 3cc:	0119a023          	sw	a7,0(s3)
 3d0:	0159a223          	sw	s5,4(s3)
 3d4:	000a0833          	add	a6,s4,zero
 3d8:	00001797          	auipc	a5,0x1
 3dc:	dc078793          	add	a5,a5,-576 # 1198 <signature_x15_4>

000003e0 <inst_27>:
 3e0:	06c82687          	flw	fa3,108(a6)
 3e4:	0021d073          	fsrmi	zero,3
 3e8:	c016f053          	fcvt.wu.s	zero,fa3
 3ec:	001028f3          	frflags	a7
 3f0:	0007a023          	sw	zero,0(a5)
 3f4:	0117a223          	sw	a7,4(a5)

000003f8 <inst_28>:
 3f8:	07082c07          	flw	fs8,112(a6)
 3fc:	00215073          	fsrmi	zero,2
 400:	c01c7653          	fcvt.wu.s	a2,fs8
 404:	001028f3          	frflags	a7
 408:	00c7a423          	sw	a2,8(a5)
 40c:	0117a623          	sw	a7,12(a5)

00000410 <inst_29>:
 410:	07482007          	flw	ft0,116(a6)
 414:	0020d073          	fsrmi	zero,1
 418:	c0107cd3          	fcvt.wu.s	s9,ft0
 41c:	001028f3          	frflags	a7
 420:	0197a823          	sw	s9,16(a5)
 424:	0117aa23          	sw	a7,20(a5)

00000428 <inst_30>:
 428:	07882f07          	flw	ft10,120(a6)
 42c:	00205073          	fsrmi	zero,0
 430:	c01f71d3          	fcvt.wu.s	gp,ft10
 434:	001028f3          	frflags	a7
 438:	0037ac23          	sw	gp,24(a5)
 43c:	0117ae23          	sw	a7,28(a5)

00000440 <inst_31>:
 440:	07c82987          	flw	fs3,124(a6)
 444:	00225073          	fsrmi	zero,4
 448:	c019f6d3          	fcvt.wu.s	a3,fs3
 44c:	001028f3          	frflags	a7
 450:	02d7a023          	sw	a3,32(a5)
 454:	0317a223          	sw	a7,36(a5)

00000458 <inst_32>:
 458:	08082507          	flw	fa0,128(a6)
 45c:	0021d073          	fsrmi	zero,3
 460:	c01575d3          	fcvt.wu.s	a1,fa0
 464:	001028f3          	frflags	a7
 468:	02b7a423          	sw	a1,40(a5)
 46c:	0317a623          	sw	a7,44(a5)

00000470 <inst_33>:
 470:	08482507          	flw	fa0,132(a6)
 474:	00215073          	fsrmi	zero,2
 478:	c01575d3          	fcvt.wu.s	a1,fa0
 47c:	001028f3          	frflags	a7
 480:	02b7a823          	sw	a1,48(a5)
 484:	0317aa23          	sw	a7,52(a5)

00000488 <inst_34>:
 488:	08882507          	flw	fa0,136(a6)
 48c:	0020d073          	fsrmi	zero,1
 490:	c01575d3          	fcvt.wu.s	a1,fa0
 494:	001028f3          	frflags	a7
 498:	02b7ac23          	sw	a1,56(a5)
 49c:	0317ae23          	sw	a7,60(a5)

000004a0 <inst_35>:
 4a0:	08c82507          	flw	fa0,140(a6)
 4a4:	00205073          	fsrmi	zero,0
 4a8:	c01575d3          	fcvt.wu.s	a1,fa0
 4ac:	001028f3          	frflags	a7
 4b0:	04b7a023          	sw	a1,64(a5)
 4b4:	0517a223          	sw	a7,68(a5)

000004b8 <inst_36>:
 4b8:	09082507          	flw	fa0,144(a6)
 4bc:	00225073          	fsrmi	zero,4
 4c0:	c01575d3          	fcvt.wu.s	a1,fa0
 4c4:	001028f3          	frflags	a7
 4c8:	04b7a423          	sw	a1,72(a5)
 4cc:	0517a623          	sw	a7,76(a5)

000004d0 <inst_37>:
 4d0:	09482507          	flw	fa0,148(a6)
 4d4:	0021d073          	fsrmi	zero,3
 4d8:	c01575d3          	fcvt.wu.s	a1,fa0
 4dc:	001028f3          	frflags	a7
 4e0:	04b7a823          	sw	a1,80(a5)
 4e4:	0517aa23          	sw	a7,84(a5)

000004e8 <inst_38>:
 4e8:	09882507          	flw	fa0,152(a6)
 4ec:	00215073          	fsrmi	zero,2
 4f0:	c01575d3          	fcvt.wu.s	a1,fa0
 4f4:	001028f3          	frflags	a7
 4f8:	04b7ac23          	sw	a1,88(a5)
 4fc:	0517ae23          	sw	a7,92(a5)

00000500 <inst_39>:
 500:	09c82507          	flw	fa0,156(a6)
 504:	0020d073          	fsrmi	zero,1
 508:	c01575d3          	fcvt.wu.s	a1,fa0
 50c:	001028f3          	frflags	a7
 510:	06b7a023          	sw	a1,96(a5)
 514:	0717a223          	sw	a7,100(a5)

00000518 <inst_40>:
 518:	0a082507          	flw	fa0,160(a6)
 51c:	00205073          	fsrmi	zero,0
 520:	c01575d3          	fcvt.wu.s	a1,fa0
 524:	001028f3          	frflags	a7
 528:	06b7a423          	sw	a1,104(a5)
 52c:	0717a623          	sw	a7,108(a5)

00000530 <inst_41>:
 530:	0a482507          	flw	fa0,164(a6)
 534:	00225073          	fsrmi	zero,4
 538:	c01575d3          	fcvt.wu.s	a1,fa0
 53c:	001028f3          	frflags	a7
 540:	06b7a823          	sw	a1,112(a5)
 544:	0717aa23          	sw	a7,116(a5)

00000548 <inst_42>:
 548:	0a882507          	flw	fa0,168(a6)
 54c:	0021d073          	fsrmi	zero,3
 550:	c01575d3          	fcvt.wu.s	a1,fa0
 554:	001028f3          	frflags	a7
 558:	06b7ac23          	sw	a1,120(a5)
 55c:	0717ae23          	sw	a7,124(a5)

00000560 <inst_43>:
 560:	0ac82507          	flw	fa0,172(a6)
 564:	00215073          	fsrmi	zero,2
 568:	c01575d3          	fcvt.wu.s	a1,fa0
 56c:	001028f3          	frflags	a7
 570:	08b7a023          	sw	a1,128(a5)
 574:	0917a223          	sw	a7,132(a5)

00000578 <inst_44>:
 578:	0b082507          	flw	fa0,176(a6)
 57c:	0020d073          	fsrmi	zero,1
 580:	c01575d3          	fcvt.wu.s	a1,fa0
 584:	001028f3          	frflags	a7
 588:	08b7a423          	sw	a1,136(a5)
 58c:	0917a623          	sw	a7,140(a5)

00000590 <inst_45>:
 590:	0b482507          	flw	fa0,180(a6)
 594:	0021d073          	fsrmi	zero,3
 598:	c01575d3          	fcvt.wu.s	a1,fa0
 59c:	001028f3          	frflags	a7
 5a0:	08b7a823          	sw	a1,144(a5)
 5a4:	0917aa23          	sw	a7,148(a5)
 5a8:	00000013          	nop
 5ac:	00000013          	nop

000005b0 <rvtest_code_end>:
 5b0:	00001517          	auipc	a0,0x1
 5b4:	b1050513          	add	a0,a0,-1264 # 10c0 <data_begin>
 5b8:	00001597          	auipc	a1,0x1
 5bc:	c7858593          	add	a1,a1,-904 # 1230 <_end>
 5c0:	80001637          	lui	a2,0x80001
 5c4:	00860613          	add	a2,a2,8 # 80001008 <_end+0x7ffffdd8>

000005c8 <compliance_halt_loop>:
 5c8:	06b50063          	beq	a0,a1,628 <compliance_halt_break>
 5cc:	00450693          	add	a3,a0,4

000005d0 <compliance_halt_loop2>:
 5d0:	fff68693          	add	a3,a3,-1
 5d4:	00068703          	lb	a4,0(a3)
 5d8:	40475793          	sra	a5,a4,0x4
 5dc:	00f7f793          	and	a5,a5,15
 5e0:	00a00813          	li	a6,10
 5e4:	0107c463          	blt	a5,a6,5ec <notLetter>
 5e8:	02778793          	add	a5,a5,39

000005ec <notLetter>:
 5ec:	03078793          	add	a5,a5,48
 5f0:	00f60023          	sb	a5,0(a2)
 5f4:	40075793          	sra	a5,a4,0x0
 5f8:	00f7f793          	and	a5,a5,15
 5fc:	00a00813          	li	a6,10
 600:	0107c463          	blt	a5,a6,608 <notLetter2>
 604:	02778793          	add	a5,a5,39

00000608 <notLetter2>:
 608:	03078793          	add	a5,a5,48
 60c:	00f60023          	sb	a5,0(a2)
 610:	fcd510e3          	bne	a0,a3,5d0 <compliance_halt_loop2>
 614:	00450513          	add	a0,a0,4
 618:	00a00713          	li	a4,10
 61c:	00e60023          	sb	a4,0(a2)
 620:	fa9ff06f          	j	5c8 <compliance_halt_loop>
 624:	0040006f          	j	628 <compliance_halt_break>

00000628 <compliance_halt_break>:
 628:	80001537          	lui	a0,0x80001
 62c:	00950513          	add	a0,a0,9 # 80001009 <_end+0x7ffffdd9>
 630:	00d50023          	sb	a3,0(a0)
	...

Desensamblado de la sección .data:

00001000 <rvtest_data_begin>:
    1000:	cafe                	.2byte	0xcafe
    1002:	babe                	.2byte	0xbabe

00001004 <test_fp>:
    1004:	fffc                	.2byte	0xfffc
    1006:	4eff 0004 4f00 0004 	.byte	0xff, 0x4e, 0x04, 0x00, 0x00, 0x4f, 0x04, 0x00, 0x00, 0x4f, 0x04, 0x00, 0x00, 0x4f, 0x04, 0x00, 0x00, 0x4f
    100e:	4f00 0004 4f00 0004 
    1016:	4f00 
    1018:	0004                	.2byte	0x4
    101a:	4f00                	.2byte	0x4f00
    101c:	4f000003          	lb	zero,1264(zero) # 4f0 <inst_38+0x8>
    1020:	4f000003          	lb	zero,1264(zero) # 4f0 <inst_38+0x8>
    1024:	4f000003          	lb	zero,1264(zero) # 4f0 <inst_38+0x8>
    1028:	4f000003          	lb	zero,1264(zero) # 4f0 <inst_38+0x8>
    102c:	4f000003          	lb	zero,1264(zero) # 4f0 <inst_38+0x8>
    1030:	0002                	.2byte	0x2
    1032:	4f00                	.2byte	0x4f00
    1034:	0002                	.2byte	0x2
    1036:	4f00                	.2byte	0x4f00
    1038:	0002                	.2byte	0x2
    103a:	4f00                	.2byte	0x4f00
    103c:	0002                	.2byte	0x2
    103e:	4f00                	.2byte	0x4f00
    1040:	0002                	.2byte	0x2
    1042:	4f00                	.2byte	0x4f00
    1044:	0001                	.2byte	0x1
    1046:	4f00                	.2byte	0x4f00
    1048:	0001                	.2byte	0x1
    104a:	4f00                	.2byte	0x4f00
    104c:	0001                	.2byte	0x1
    104e:	4f00                	.2byte	0x4f00
    1050:	0001                	.2byte	0x1
    1052:	4f00                	.2byte	0x4f00
    1054:	0001                	.2byte	0x1
    1056:	4f00                	.2byte	0x4f00
    1058:	0000                	.2byte	0x0
    105a:	4f00                	.2byte	0x4f00
    105c:	0000                	.2byte	0x0
    105e:	4f00                	.2byte	0x4f00
    1060:	0000                	.2byte	0x0
    1062:	4f00                	.2byte	0x4f00
    1064:	0000                	.2byte	0x0
    1066:	4f00                	.2byte	0x4f00
    1068:	0000                	.2byte	0x0
    106a:	4f00                	.2byte	0x4f00
    106c:	ffff                	.2byte	0xffff
    106e:	4eff ffff 4eff ffff 	.byte	0xff, 0x4e, 0xff, 0xff, 0xff, 0x4e, 0xff, 0xff, 0xff, 0x4e, 0xff, 0xff, 0xff, 0x4e, 0xff, 0xff, 0xff, 0x4e
    1076:	4eff ffff 4eff ffff 
    107e:	4eff 
    1080:	fffe                	.2byte	0xfffe
    1082:	4eff fffe 4eff fffe 	.byte	0xff, 0x4e, 0xfe, 0xff, 0xff, 0x4e, 0xfe, 0xff, 0xff, 0x4e, 0xfe, 0xff, 0xff, 0x4e, 0xfe, 0xff, 0xff, 0x4e
    108a:	4eff fffe 4eff fffe 
    1092:	4eff 
    1094:	fffd                	.2byte	0xfffd
    1096:	4eff fffd 4eff fffd 	.byte	0xff, 0x4e, 0xfd, 0xff, 0xff, 0x4e, 0xfd, 0xff, 0xff, 0x4e, 0xfd, 0xff, 0xff, 0x4e, 0xfd, 0xff, 0xff, 0x4e
    109e:	4eff fffd 4eff fffd 
    10a6:	4eff 
    10a8:	fffc                	.2byte	0xfffc
    10aa:	4eff fffc 4eff fffc 	.byte	0xff, 0x4e, 0xfc, 0xff, 0xff, 0x4e, 0xfc, 0xff, 0xff, 0x4e, 0xfc, 0xff, 0xff, 0x4e, 0xff, 0xff, 0xff, 0x4e
    10b2:	4eff fffc 4eff ffff 
    10ba:	4eff 

000010bc <rvtest_data_end>:
    10bc:	0000                	.2byte	0x0
	...

000010c0 <data_begin>:
    10c0:	deadbeef          	jal	t4,fffdc6aa <_end+0xfffdb47a>
    10c4:	deadbeef          	jal	t4,fffdc6ae <_end+0xfffdb47e>
    10c8:	deadbeef          	jal	t4,fffdc6b2 <_end+0xfffdb482>
    10cc:	deadbeef          	jal	t4,fffdc6b6 <_end+0xfffdb486>
    10d0:	deadbeef          	jal	t4,fffdc6ba <_end+0xfffdb48a>
    10d4:	deadbeef          	jal	t4,fffdc6be <_end+0xfffdb48e>
    10d8:	deadbeef          	jal	t4,fffdc6c2 <_end+0xfffdb492>
    10dc:	deadbeef          	jal	t4,fffdc6c6 <_end+0xfffdb496>
    10e0:	deadbeef          	jal	t4,fffdc6ca <_end+0xfffdb49a>
    10e4:	deadbeef          	jal	t4,fffdc6ce <_end+0xfffdb49e>
    10e8:	deadbeef          	jal	t4,fffdc6d2 <_end+0xfffdb4a2>
    10ec:	deadbeef          	jal	t4,fffdc6d6 <_end+0xfffdb4a6>
    10f0:	deadbeef          	jal	t4,fffdc6da <_end+0xfffdb4aa>
    10f4:	deadbeef          	jal	t4,fffdc6de <_end+0xfffdb4ae>
    10f8:	deadbeef          	jal	t4,fffdc6e2 <_end+0xfffdb4b2>
    10fc:	deadbeef          	jal	t4,fffdc6e6 <_end+0xfffdb4b6>
    1100:	deadbeef          	jal	t4,fffdc6ea <_end+0xfffdb4ba>
    1104:	deadbeef          	jal	t4,fffdc6ee <_end+0xfffdb4be>
    1108:	deadbeef          	jal	t4,fffdc6f2 <_end+0xfffdb4c2>
    110c:	deadbeef          	jal	t4,fffdc6f6 <_end+0xfffdb4c6>
    1110:	deadbeef          	jal	t4,fffdc6fa <_end+0xfffdb4ca>
    1114:	deadbeef          	jal	t4,fffdc6fe <_end+0xfffdb4ce>
    1118:	deadbeef          	jal	t4,fffdc702 <_end+0xfffdb4d2>
    111c:	deadbeef          	jal	t4,fffdc706 <_end+0xfffdb4d6>
    1120:	deadbeef          	jal	t4,fffdc70a <_end+0xfffdb4da>
    1124:	deadbeef          	jal	t4,fffdc70e <_end+0xfffdb4de>
    1128:	deadbeef          	jal	t4,fffdc712 <_end+0xfffdb4e2>
    112c:	deadbeef          	jal	t4,fffdc716 <_end+0xfffdb4e6>
    1130:	deadbeef          	jal	t4,fffdc71a <_end+0xfffdb4ea>
    1134:	deadbeef          	jal	t4,fffdc71e <_end+0xfffdb4ee>
    1138:	deadbeef          	jal	t4,fffdc722 <_end+0xfffdb4f2>
    113c:	deadbeef          	jal	t4,fffdc726 <_end+0xfffdb4f6>
    1140:	deadbeef          	jal	t4,fffdc72a <_end+0xfffdb4fa>
    1144:	deadbeef          	jal	t4,fffdc72e <_end+0xfffdb4fe>

00001148 <signature_x19_0>:
    1148:	deadbeef          	jal	t4,fffdc732 <_end+0xfffdb502>
    114c:	deadbeef          	jal	t4,fffdc736 <_end+0xfffdb506>

00001150 <signature_x15_2>:
    1150:	deadbeef          	jal	t4,fffdc73a <_end+0xfffdb50a>
    1154:	deadbeef          	jal	t4,fffdc73e <_end+0xfffdb50e>

00001158 <signature_x19_1>:
    1158:	deadbeef          	jal	t4,fffdc742 <_end+0xfffdb512>
    115c:	deadbeef          	jal	t4,fffdc746 <_end+0xfffdb516>

00001160 <signature_x15_3>:
    1160:	deadbeef          	jal	t4,fffdc74a <_end+0xfffdb51a>
    1164:	deadbeef          	jal	t4,fffdc74e <_end+0xfffdb51e>
    1168:	deadbeef          	jal	t4,fffdc752 <_end+0xfffdb522>
    116c:	deadbeef          	jal	t4,fffdc756 <_end+0xfffdb526>
    1170:	deadbeef          	jal	t4,fffdc75a <_end+0xfffdb52a>
    1174:	deadbeef          	jal	t4,fffdc75e <_end+0xfffdb52e>
    1178:	deadbeef          	jal	t4,fffdc762 <_end+0xfffdb532>
    117c:	deadbeef          	jal	t4,fffdc766 <_end+0xfffdb536>
    1180:	deadbeef          	jal	t4,fffdc76a <_end+0xfffdb53a>
    1184:	deadbeef          	jal	t4,fffdc76e <_end+0xfffdb53e>
    1188:	deadbeef          	jal	t4,fffdc772 <_end+0xfffdb542>
    118c:	deadbeef          	jal	t4,fffdc776 <_end+0xfffdb546>

00001190 <signature_x19_2>:
    1190:	deadbeef          	jal	t4,fffdc77a <_end+0xfffdb54a>
    1194:	deadbeef          	jal	t4,fffdc77e <_end+0xfffdb54e>

00001198 <signature_x15_4>:
    1198:	deadbeef          	jal	t4,fffdc782 <_end+0xfffdb552>
    119c:	deadbeef          	jal	t4,fffdc786 <_end+0xfffdb556>
    11a0:	deadbeef          	jal	t4,fffdc78a <_end+0xfffdb55a>
    11a4:	deadbeef          	jal	t4,fffdc78e <_end+0xfffdb55e>
    11a8:	deadbeef          	jal	t4,fffdc792 <_end+0xfffdb562>
    11ac:	deadbeef          	jal	t4,fffdc796 <_end+0xfffdb566>
    11b0:	deadbeef          	jal	t4,fffdc79a <_end+0xfffdb56a>
    11b4:	deadbeef          	jal	t4,fffdc79e <_end+0xfffdb56e>
    11b8:	deadbeef          	jal	t4,fffdc7a2 <_end+0xfffdb572>
    11bc:	deadbeef          	jal	t4,fffdc7a6 <_end+0xfffdb576>
    11c0:	deadbeef          	jal	t4,fffdc7aa <_end+0xfffdb57a>
    11c4:	deadbeef          	jal	t4,fffdc7ae <_end+0xfffdb57e>
    11c8:	deadbeef          	jal	t4,fffdc7b2 <_end+0xfffdb582>
    11cc:	deadbeef          	jal	t4,fffdc7b6 <_end+0xfffdb586>
    11d0:	deadbeef          	jal	t4,fffdc7ba <_end+0xfffdb58a>
    11d4:	deadbeef          	jal	t4,fffdc7be <_end+0xfffdb58e>
    11d8:	deadbeef          	jal	t4,fffdc7c2 <_end+0xfffdb592>
    11dc:	deadbeef          	jal	t4,fffdc7c6 <_end+0xfffdb596>
    11e0:	deadbeef          	jal	t4,fffdc7ca <_end+0xfffdb59a>
    11e4:	deadbeef          	jal	t4,fffdc7ce <_end+0xfffdb59e>
    11e8:	deadbeef          	jal	t4,fffdc7d2 <_end+0xfffdb5a2>
    11ec:	deadbeef          	jal	t4,fffdc7d6 <_end+0xfffdb5a6>
    11f0:	deadbeef          	jal	t4,fffdc7da <_end+0xfffdb5aa>
    11f4:	deadbeef          	jal	t4,fffdc7de <_end+0xfffdb5ae>
    11f8:	deadbeef          	jal	t4,fffdc7e2 <_end+0xfffdb5b2>
    11fc:	deadbeef          	jal	t4,fffdc7e6 <_end+0xfffdb5b6>
    1200:	deadbeef          	jal	t4,fffdc7ea <_end+0xfffdb5ba>
    1204:	deadbeef          	jal	t4,fffdc7ee <_end+0xfffdb5be>
    1208:	deadbeef          	jal	t4,fffdc7f2 <_end+0xfffdb5c2>
    120c:	deadbeef          	jal	t4,fffdc7f6 <_end+0xfffdb5c6>
    1210:	deadbeef          	jal	t4,fffdc7fa <_end+0xfffdb5ca>
    1214:	deadbeef          	jal	t4,fffdc7fe <_end+0xfffdb5ce>
    1218:	deadbeef          	jal	t4,fffdc802 <_end+0xfffdb5d2>
    121c:	deadbeef          	jal	t4,fffdc806 <_end+0xfffdb5d6>
    1220:	deadbeef          	jal	t4,fffdc80a <_end+0xfffdb5da>
    1224:	deadbeef          	jal	t4,fffdc80e <_end+0xfffdb5de>
    1228:	deadbeef          	jal	t4,fffdc812 <_end+0xfffdb5e2>
    122c:	deadbeef          	jal	t4,fffdc816 <_end+0xfffdb5e6>

Desensamblado de la sección .riscv.attributes:

00000000 <.riscv.attributes>:
   0:	2241                	.2byte	0x2241
   2:	0000                	.2byte	0x0
   4:	7200                	.2byte	0x7200
   6:	7369                	.2byte	0x7369
   8:	01007663          	bgeu	zero,a6,14 <rvtest_entry_point+0x14>
   c:	0018                	.2byte	0x18
   e:	0000                	.2byte	0x0
  10:	7205                	.2byte	0x7205
  12:	3376                	.2byte	0x3376
  14:	6932                	.2byte	0x6932
  16:	7032                	.2byte	0x7032
  18:	5f30                	.2byte	0x5f30
  1a:	3266                	.2byte	0x3266
  1c:	3070                	.2byte	0x3070
  1e:	0800                	.2byte	0x800
  20:	0a01                	.2byte	0xa01
  22:	0b              	Address 0x22 is out of bounds.

