
/home/alejandro/Escritorio/test_riscv2.5/riscv-compliance/work/rv32i_m/F/fcvt.w.s_b1-01.elf:     formato del fichero elf32-littleriscv


Desensamblado de la sección .text.init:

00000000 <rvtest_entry_point>:
   0:	feedc0b7          	lui	ra,0xfeedc
   4:	ead08093          	add	ra,ra,-339 # feedbead <_end+0xfeedad0d>
   8:	ff76e137          	lui	sp,0xff76e
   c:	f5610113          	add	sp,sp,-170 # ff76df56 <_end+0xff76cdb6>
  10:	7fbb71b7          	lui	gp,0x7fbb7
  14:	fab18193          	add	gp,gp,-85 # 7fbb6fab <_end+0x7fbb5e0b>
  18:	bfddb237          	lui	tp,0xbfddb
  1c:	7d520213          	add	tp,tp,2005 # bfddb7d5 <_end+0xbfdda635>
  20:	00000297          	auipc	t0,0x0
  24:	0d828293          	add	t0,t0,216 # f8 <rvtest_code_begin>
  28:	00001317          	auipc	t1,0x1
  2c:	fd830313          	add	t1,t1,-40 # 1000 <rvtest_data_begin>
  30:	b7fbb3b7          	lui	t2,0xb7fbb
  34:	6fa38393          	add	t2,t2,1786 # b7fbb6fa <_end+0xb7fba55a>
  38:	5bfde437          	lui	s0,0x5bfde
  3c:	b7d40413          	add	s0,s0,-1155 # 5bfddb7d <_end+0x5bfdc9dd>
  40:	adfef4b7          	lui	s1,0xadfef
  44:	dbe48493          	add	s1,s1,-578 # adfeedbe <_end+0xadfedc1e>
  48:	56ff7537          	lui	a0,0x56ff7
  4c:	6df50513          	add	a0,a0,1759 # 56ff76df <_end+0x56ff653f>
  50:	ab7fc5b7          	lui	a1,0xab7fc
  54:	b6f58593          	add	a1,a1,-1169 # ab7fbb6f <_end+0xab7fa9cf>
  58:	d5bfe637          	lui	a2,0xd5bfe
  5c:	db760613          	add	a2,a2,-585 # d5bfddb7 <_end+0xd5bfcc17>
  60:	eadff6b7          	lui	a3,0xeadff
  64:	edb68693          	add	a3,a3,-293 # eadfeedb <_end+0xeadfdd3b>
  68:	f56ff737          	lui	a4,0xf56ff
  6c:	76d70713          	add	a4,a4,1901 # f56ff76d <_end+0xf56fe5cd>
  70:	fab807b7          	lui	a5,0xfab80
  74:	bb678793          	add	a5,a5,-1098 # fab7fbb6 <_end+0xfab7ea16>
  78:	7d5c0837          	lui	a6,0x7d5c0
  7c:	ddb80813          	add	a6,a6,-549 # 7d5bfddb <_end+0x7d5bec3b>
  80:	beae08b7          	lui	a7,0xbeae0
  84:	eed88893          	add	a7,a7,-275 # beadfeed <_end+0xbeaded4d>
  88:	df570937          	lui	s2,0xdf570
  8c:	f7690913          	add	s2,s2,-138 # df56ff76 <_end+0xdf56edd6>
  90:	6fab89b7          	lui	s3,0x6fab8
  94:	fbb98993          	add	s3,s3,-69 # 6fab7fbb <_end+0x6fab6e1b>
  98:	b7d5ca37          	lui	s4,0xb7d5c
  9c:	fdda0a13          	add	s4,s4,-35 # b7d5bfdd <_end+0xb7d5ae3d>
  a0:	dbeaeab7          	lui	s5,0xdbeae
  a4:	feea8a93          	add	s5,s5,-18 # dbeadfee <_end+0xdbeace4e>
  a8:	6df57b37          	lui	s6,0x6df57
  ac:	ff7b0b13          	add	s6,s6,-9 # 6df56ff7 <_end+0x6df55e57>
  b0:	b6fabbb7          	lui	s7,0xb6fab
  b4:	7fbb8b93          	add	s7,s7,2043 # b6fab7fb <_end+0xb6faa65b>
  b8:	db7d6c37          	lui	s8,0xdb7d6
  bc:	bfdc0c13          	add	s8,s8,-1027 # db7d5bfd <_end+0xdb7d4a5d>
  c0:	edbebcb7          	lui	s9,0xedbeb
  c4:	dfec8c93          	add	s9,s9,-514 # edbeadfe <_end+0xedbe9c5e>
  c8:	76df5d37          	lui	s10,0x76df5
  cc:	6ffd0d13          	add	s10,s10,1791 # 76df56ff <_end+0x76df455f>
  d0:	bb6fbdb7          	lui	s11,0xbb6fb
  d4:	b7fd8d93          	add	s11,s11,-1153 # bb6fab7f <_end+0xbb6f99df>
  d8:	ddb7de37          	lui	t3,0xddb7d
  dc:	5bfe0e13          	add	t3,t3,1471 # ddb7d5bf <_end+0xddb7c41f>
  e0:	eedbfeb7          	lui	t4,0xeedbf
  e4:	adfe8e93          	add	t4,t4,-1313 # eedbeadf <_end+0xeedbd93f>
  e8:	f76dff37          	lui	t5,0xf76df
  ec:	56ff0f13          	add	t5,t5,1391 # f76df56f <_end+0xf76de3cf>
  f0:	fbb70fb7          	lui	t6,0xfbb70
  f4:	ab7f8f93          	add	t6,t6,-1353 # fbb6fab7 <_end+0xfbb6e917>

000000f8 <rvtest_code_begin>:
  f8:	00002537          	lui	a0,0x2
  fc:	30052073          	csrs	mstatus,a0
 100:	00001817          	auipc	a6,0x1
 104:	f0480813          	add	a6,a6,-252 # 1004 <test_fp>
 108:	00001797          	auipc	a5,0x1
 10c:	f8878793          	add	a5,a5,-120 # 1090 <data_begin>

00000110 <inst_0>:
 110:	00082307          	flw	ft6,0(a6)
 114:	00205073          	fsrmi	zero,0
 118:	c00372d3          	fcvt.w.s	t0,ft6
 11c:	001028f3          	frflags	a7
 120:	0057a023          	sw	t0,0(a5)
 124:	0117a223          	sw	a7,4(a5)

00000128 <inst_1>:
 128:	00482407          	flw	fs0,4(a6)
 12c:	00205073          	fsrmi	zero,0
 130:	c0047a53          	fcvt.w.s	s4,fs0
 134:	001028f3          	frflags	a7
 138:	0147a423          	sw	s4,8(a5)
 13c:	0117a623          	sw	a7,12(a5)

00000140 <inst_2>:
 140:	00882287          	flw	ft5,8(a6)
 144:	00205073          	fsrmi	zero,0
 148:	c002ff53          	fcvt.w.s	t5,ft5
 14c:	001028f3          	frflags	a7
 150:	01e7a823          	sw	t5,16(a5)
 154:	0117aa23          	sw	a7,20(a5)

00000158 <inst_3>:
 158:	00c82487          	flw	fs1,12(a6)
 15c:	00205073          	fsrmi	zero,0
 160:	c004fc53          	fcvt.w.s	s8,fs1
 164:	001028f3          	frflags	a7
 168:	0187ac23          	sw	s8,24(a5)
 16c:	0117ae23          	sw	a7,28(a5)
 170:	00080a33          	add	s4,a6,zero
 174:	00001997          	auipc	s3,0x1
 178:	f3c98993          	add	s3,s3,-196 # 10b0 <signature_x19_0>

0000017c <inst_4>:
 17c:	010a2f87          	flw	ft11,16(s4)
 180:	00205073          	fsrmi	zero,0
 184:	c00ff7d3          	fcvt.w.s	a5,ft11
 188:	00102af3          	frflags	s5
 18c:	00f9a023          	sw	a5,0(s3)
 190:	0159a223          	sw	s5,4(s3)
 194:	000a0833          	add	a6,s4,zero
 198:	00001797          	auipc	a5,0x1
 19c:	f2078793          	add	a5,a5,-224 # 10b8 <signature_x15_2>

000001a0 <inst_5>:
 1a0:	01482587          	flw	fa1,20(a6)
 1a4:	00205073          	fsrmi	zero,0
 1a8:	c005f6d3          	fcvt.w.s	a3,fa1
 1ac:	001028f3          	frflags	a7
 1b0:	00d7a023          	sw	a3,0(a5)
 1b4:	0117a223          	sw	a7,4(a5)

000001b8 <inst_6>:
 1b8:	01882607          	flw	fa2,24(a6)
 1bc:	00205073          	fsrmi	zero,0
 1c0:	c0067953          	fcvt.w.s	s2,fa2
 1c4:	001028f3          	frflags	a7
 1c8:	0127a423          	sw	s2,8(a5)
 1cc:	0117a623          	sw	a7,12(a5)

000001d0 <inst_7>:
 1d0:	01c82b87          	flw	fs7,28(a6)
 1d4:	00205073          	fsrmi	zero,0
 1d8:	c00bfb53          	fcvt.w.s	s6,fs7
 1dc:	001028f3          	frflags	a7
 1e0:	0167a823          	sw	s6,16(a5)
 1e4:	0117aa23          	sw	a7,20(a5)

000001e8 <inst_8>:
 1e8:	02082c07          	flw	fs8,32(a6)
 1ec:	00205073          	fsrmi	zero,0
 1f0:	c00c7253          	fcvt.w.s	tp,fs8
 1f4:	001028f3          	frflags	a7
 1f8:	0047ac23          	sw	tp,24(a5)
 1fc:	0117ae23          	sw	a7,28(a5)

00000200 <inst_9>:
 200:	02482687          	flw	fa3,36(a6)
 204:	00205073          	fsrmi	zero,0
 208:	c006fcd3          	fcvt.w.s	s9,fa3
 20c:	001028f3          	frflags	a7
 210:	0397a023          	sw	s9,32(a5)
 214:	0317a223          	sw	a7,36(a5)

00000218 <inst_10>:
 218:	02882c87          	flw	fs9,40(a6)
 21c:	00205073          	fsrmi	zero,0
 220:	c00cf753          	fcvt.w.s	a4,fs9
 224:	001028f3          	frflags	a7
 228:	02e7a423          	sw	a4,40(a5)
 22c:	0317a623          	sw	a7,44(a5)

00000230 <inst_11>:
 230:	02c82f07          	flw	ft10,44(a6)
 234:	00205073          	fsrmi	zero,0
 238:	c00f7ed3          	fcvt.w.s	t4,ft10
 23c:	001028f3          	frflags	a7
 240:	03d7a823          	sw	t4,48(a5)
 244:	0317aa23          	sw	a7,52(a5)

00000248 <inst_12>:
 248:	03082387          	flw	ft7,48(a6)
 24c:	00205073          	fsrmi	zero,0
 250:	c003f153          	fcvt.w.s	sp,ft7
 254:	001028f3          	frflags	a7
 258:	0227ac23          	sw	sp,56(a5)
 25c:	0317ae23          	sw	a7,60(a5)

00000260 <inst_13>:
 260:	03482187          	flw	ft3,52(a6)
 264:	00205073          	fsrmi	zero,0
 268:	c001f4d3          	fcvt.w.s	s1,ft3
 26c:	001028f3          	frflags	a7
 270:	0497a023          	sw	s1,64(a5)
 274:	0517a223          	sw	a7,68(a5)

00000278 <inst_14>:
 278:	03882d87          	flw	fs11,56(a6)
 27c:	00205073          	fsrmi	zero,0
 280:	c00df553          	fcvt.w.s	a0,fs11
 284:	001028f3          	frflags	a7
 288:	04a7a423          	sw	a0,72(a5)
 28c:	0517a623          	sw	a7,76(a5)

00000290 <inst_15>:
 290:	03c82e87          	flw	ft9,60(a6)
 294:	00205073          	fsrmi	zero,0
 298:	c00ef453          	fcvt.w.s	s0,ft9
 29c:	001028f3          	frflags	a7
 2a0:	0487a823          	sw	s0,80(a5)
 2a4:	0517aa23          	sw	a7,84(a5)

000002a8 <inst_16>:
 2a8:	04082d07          	flw	fs10,64(a6)
 2ac:	00205073          	fsrmi	zero,0
 2b0:	c00d7053          	fcvt.w.s	zero,fs10
 2b4:	001028f3          	frflags	a7
 2b8:	0407ac23          	sw	zero,88(a5)
 2bc:	0517ae23          	sw	a7,92(a5)

000002c0 <inst_17>:
 2c0:	04482b07          	flw	fs6,68(a6)
 2c4:	00205073          	fsrmi	zero,0
 2c8:	c00b71d3          	fcvt.w.s	gp,fs6
 2cc:	001028f3          	frflags	a7
 2d0:	0637a023          	sw	gp,96(a5)
 2d4:	0717a223          	sw	a7,100(a5)

000002d8 <inst_18>:
 2d8:	04882e07          	flw	ft8,72(a6)
 2dc:	00205073          	fsrmi	zero,0
 2e0:	c00e7353          	fcvt.w.s	t1,ft8
 2e4:	001028f3          	frflags	a7
 2e8:	0667a423          	sw	t1,104(a5)
 2ec:	0717a623          	sw	a7,108(a5)

000002f0 <inst_19>:
 2f0:	04c82987          	flw	fs3,76(a6)
 2f4:	00205073          	fsrmi	zero,0
 2f8:	c009f5d3          	fcvt.w.s	a1,fs3
 2fc:	001028f3          	frflags	a7
 300:	06b7a823          	sw	a1,112(a5)
 304:	0717aa23          	sw	a7,116(a5)

00000308 <inst_20>:
 308:	05082907          	flw	fs2,80(a6)
 30c:	00205073          	fsrmi	zero,0
 310:	c00979d3          	fcvt.w.s	s3,fs2
 314:	001028f3          	frflags	a7
 318:	0737ac23          	sw	s3,120(a5)
 31c:	0717ae23          	sw	a7,124(a5)

00000320 <inst_21>:
 320:	05482a07          	flw	fs4,84(a6)
 324:	00205073          	fsrmi	zero,0
 328:	c00a7fd3          	fcvt.w.s	t6,fs4
 32c:	001028f3          	frflags	a7
 330:	09f7a023          	sw	t6,128(a5)
 334:	0917a223          	sw	a7,132(a5)
 338:	00080a33          	add	s4,a6,zero
 33c:	00001997          	auipc	s3,0x1
 340:	e0498993          	add	s3,s3,-508 # 1140 <signature_x19_1>

00000344 <inst_22>:
 344:	058a2787          	flw	fa5,88(s4)
 348:	00205073          	fsrmi	zero,0
 34c:	c007f8d3          	fcvt.w.s	a7,fa5
 350:	00102af3          	frflags	s5
 354:	0119a023          	sw	a7,0(s3)
 358:	0159a223          	sw	s5,4(s3)
 35c:	000a0833          	add	a6,s4,zero
 360:	00001797          	auipc	a5,0x1
 364:	de878793          	add	a5,a5,-536 # 1148 <signature_x15_3>

00000368 <inst_23>:
 368:	05c82207          	flw	ft4,92(a6)
 36c:	00205073          	fsrmi	zero,0
 370:	c0027d53          	fcvt.w.s	s10,ft4
 374:	001028f3          	frflags	a7
 378:	01a7a023          	sw	s10,0(a5)
 37c:	0117a223          	sw	a7,4(a5)
 380:	00080a33          	add	s4,a6,zero
 384:	00001997          	auipc	s3,0x1
 388:	dcc98993          	add	s3,s3,-564 # 1150 <signature_x19_2>

0000038c <inst_24>:
 38c:	060a2707          	flw	fa4,96(s4)
 390:	00205073          	fsrmi	zero,0
 394:	c0077853          	fcvt.w.s	a6,fa4
 398:	00102af3          	frflags	s5
 39c:	0109a023          	sw	a6,0(s3)
 3a0:	0159a223          	sw	s5,4(s3)
 3a4:	000a0833          	add	a6,s4,zero
 3a8:	00001797          	auipc	a5,0x1
 3ac:	db078793          	add	a5,a5,-592 # 1158 <signature_x15_4>

000003b0 <inst_25>:
 3b0:	06482507          	flw	fa0,100(a6)
 3b4:	00205073          	fsrmi	zero,0
 3b8:	c0057e53          	fcvt.w.s	t3,fa0
 3bc:	001028f3          	frflags	a7
 3c0:	01c7a023          	sw	t3,0(a5)
 3c4:	0117a223          	sw	a7,4(a5)

000003c8 <inst_26>:
 3c8:	06882887          	flw	fa7,104(a6)
 3cc:	00205073          	fsrmi	zero,0
 3d0:	c008fad3          	fcvt.w.s	s5,fa7
 3d4:	001028f3          	frflags	a7
 3d8:	0157a423          	sw	s5,8(a5)
 3dc:	0117a623          	sw	a7,12(a5)

000003e0 <inst_27>:
 3e0:	06c82007          	flw	ft0,108(a6)
 3e4:	00205073          	fsrmi	zero,0
 3e8:	c00073d3          	fcvt.w.s	t2,ft0
 3ec:	001028f3          	frflags	a7
 3f0:	0077a823          	sw	t2,16(a5)
 3f4:	0117aa23          	sw	a7,20(a5)

000003f8 <inst_28>:
 3f8:	07082087          	flw	ft1,112(a6)
 3fc:	00205073          	fsrmi	zero,0
 400:	c000f0d3          	fcvt.w.s	ra,ft1
 404:	001028f3          	frflags	a7
 408:	0017ac23          	sw	ra,24(a5)
 40c:	0117ae23          	sw	a7,28(a5)

00000410 <inst_29>:
 410:	07482a87          	flw	fs5,116(a6)
 414:	00205073          	fsrmi	zero,0
 418:	c00af653          	fcvt.w.s	a2,fs5
 41c:	001028f3          	frflags	a7
 420:	02c7a023          	sw	a2,32(a5)
 424:	0317a223          	sw	a7,36(a5)

00000428 <inst_30>:
 428:	07882807          	flw	fa6,120(a6)
 42c:	00205073          	fsrmi	zero,0
 430:	c0087bd3          	fcvt.w.s	s7,fa6
 434:	001028f3          	frflags	a7
 438:	0377a423          	sw	s7,40(a5)
 43c:	0317a623          	sw	a7,44(a5)

00000440 <inst_31>:
 440:	07c82107          	flw	ft2,124(a6)
 444:	00205073          	fsrmi	zero,0
 448:	c0017dd3          	fcvt.w.s	s11,ft2
 44c:	001028f3          	frflags	a7
 450:	03b7a823          	sw	s11,48(a5)
 454:	0317aa23          	sw	a7,52(a5)

00000458 <inst_32>:
 458:	08082507          	flw	fa0,128(a6)
 45c:	00205073          	fsrmi	zero,0
 460:	c00575d3          	fcvt.w.s	a1,fa0
 464:	001028f3          	frflags	a7
 468:	02b7ac23          	sw	a1,56(a5)
 46c:	0317ae23          	sw	a7,60(a5)

00000470 <rvtest_code_end>:
 470:	00001517          	auipc	a0,0x1
 474:	c2050513          	add	a0,a0,-992 # 1090 <data_begin>
 478:	00001597          	auipc	a1,0x1
 47c:	d2858593          	add	a1,a1,-728 # 11a0 <_end>
 480:	80001637          	lui	a2,0x80001
 484:	00860613          	add	a2,a2,8 # 80001008 <_end+0x7ffffe68>

00000488 <compliance_halt_loop>:
 488:	06b50063          	beq	a0,a1,4e8 <compliance_halt_break>
 48c:	00450693          	add	a3,a0,4

00000490 <compliance_halt_loop2>:
 490:	fff68693          	add	a3,a3,-1
 494:	00068703          	lb	a4,0(a3)
 498:	40475793          	sra	a5,a4,0x4
 49c:	00f7f793          	and	a5,a5,15
 4a0:	00a00813          	li	a6,10
 4a4:	0107c463          	blt	a5,a6,4ac <notLetter>
 4a8:	02778793          	add	a5,a5,39

000004ac <notLetter>:
 4ac:	03078793          	add	a5,a5,48
 4b0:	00f60023          	sb	a5,0(a2)
 4b4:	40075793          	sra	a5,a4,0x0
 4b8:	00f7f793          	and	a5,a5,15
 4bc:	00a00813          	li	a6,10
 4c0:	0107c463          	blt	a5,a6,4c8 <notLetter2>
 4c4:	02778793          	add	a5,a5,39

000004c8 <notLetter2>:
 4c8:	03078793          	add	a5,a5,48
 4cc:	00f60023          	sb	a5,0(a2)
 4d0:	fcd510e3          	bne	a0,a3,490 <compliance_halt_loop2>
 4d4:	00450513          	add	a0,a0,4
 4d8:	00a00713          	li	a4,10
 4dc:	00e60023          	sb	a4,0(a2)
 4e0:	fa9ff06f          	j	488 <compliance_halt_loop>
 4e4:	0040006f          	j	4e8 <compliance_halt_break>

000004e8 <compliance_halt_break>:
 4e8:	80001537          	lui	a0,0x80001
 4ec:	00950513          	add	a0,a0,9 # 80001009 <_end+0x7ffffe69>
 4f0:	00d50023          	sb	a3,0(a0)
 4f4:	0000                	.2byte	0x0
	...

Desensamblado de la sección .data:

00001000 <rvtest_data_begin>:
    1000:	cafe                	.2byte	0xcafe
    1002:	babe                	.2byte	0xbabe

00001004 <test_fp>:
    1004:	0000                	.2byte	0x0
    1006:	0000                	.2byte	0x0
    1008:	0000                	.2byte	0x0
    100a:	bf80                	.2byte	0xbf80
    100c:	0000                	.2byte	0x0
    100e:	3f80                	.2byte	0x3f80
    1010:	aaaa                	.2byte	0xaaaa
    1012:	ffaa                	.2byte	0xffaa
    1014:	0001                	.2byte	0x1
    1016:	7f80                	.2byte	0x7f80
    1018:	5555                	.2byte	0x5555
    101a:	ffc5                	.2byte	0xffc5
    101c:	0001                	.2byte	0x1
    101e:	7fc0                	.2byte	0x7fc0
    1020:	0000                	.2byte	0x0
    1022:	ffc0                	.2byte	0xffc0
    1024:	0000                	.2byte	0x0
    1026:	7fc0                	.2byte	0x7fc0
    1028:	0000                	.2byte	0x0
    102a:	ff80                	.2byte	0xff80
    102c:	0000                	.2byte	0x0
    102e:	7f80                	.2byte	0x7f80
    1030:	ffff                	.2byte	0xffff
    1032:	ff7f                	.2byte	0xff7f
    1034:	ffff                	.2byte	0xffff
    1036:	7f7f                	.2byte	0x7f7f
    1038:	5555                	.2byte	0x5555
    103a:	8085                	.2byte	0x8085
    103c:	0001                	.2byte	0x1
    103e:	0080                	.2byte	0x80
    1040:	0000                	.2byte	0x0
    1042:	8080                	.2byte	0x8080
    1044:	0000                	.2byte	0x0
    1046:	0080                	.2byte	0x80
    1048:	ffff                	.2byte	0xffff
    104a:	807f ffff 007f fffe 	.byte	0x7f, 0x80, 0xff, 0xff, 0x7f, 0x00, 0xfe, 0xff, 0x7f, 0x80
    1052:	807f 
    1054:	0002                	.2byte	0x2
    1056:	0000                	.2byte	0x0
    1058:	0001                	.2byte	0x1
    105a:	8000                	.2byte	0x8000
    105c:	0001                	.2byte	0x1
    105e:	0000                	.2byte	0x0
    1060:	0000                	.2byte	0x0
    1062:	8000                	.2byte	0x8000
	...
    1084:	0000                	.2byte	0x0
    1086:	0080                	.2byte	0x80

00001088 <rvtest_data_end>:
	...

00001090 <data_begin>:
    1090:	deadbeef          	jal	t4,fffdc67a <_end+0xfffdb4da>
    1094:	deadbeef          	jal	t4,fffdc67e <_end+0xfffdb4de>
    1098:	deadbeef          	jal	t4,fffdc682 <_end+0xfffdb4e2>
    109c:	deadbeef          	jal	t4,fffdc686 <_end+0xfffdb4e6>
    10a0:	deadbeef          	jal	t4,fffdc68a <_end+0xfffdb4ea>
    10a4:	deadbeef          	jal	t4,fffdc68e <_end+0xfffdb4ee>
    10a8:	deadbeef          	jal	t4,fffdc692 <_end+0xfffdb4f2>
    10ac:	deadbeef          	jal	t4,fffdc696 <_end+0xfffdb4f6>

000010b0 <signature_x19_0>:
    10b0:	deadbeef          	jal	t4,fffdc69a <_end+0xfffdb4fa>
    10b4:	deadbeef          	jal	t4,fffdc69e <_end+0xfffdb4fe>

000010b8 <signature_x15_2>:
    10b8:	deadbeef          	jal	t4,fffdc6a2 <_end+0xfffdb502>
    10bc:	deadbeef          	jal	t4,fffdc6a6 <_end+0xfffdb506>
    10c0:	deadbeef          	jal	t4,fffdc6aa <_end+0xfffdb50a>
    10c4:	deadbeef          	jal	t4,fffdc6ae <_end+0xfffdb50e>
    10c8:	deadbeef          	jal	t4,fffdc6b2 <_end+0xfffdb512>
    10cc:	deadbeef          	jal	t4,fffdc6b6 <_end+0xfffdb516>
    10d0:	deadbeef          	jal	t4,fffdc6ba <_end+0xfffdb51a>
    10d4:	deadbeef          	jal	t4,fffdc6be <_end+0xfffdb51e>
    10d8:	deadbeef          	jal	t4,fffdc6c2 <_end+0xfffdb522>
    10dc:	deadbeef          	jal	t4,fffdc6c6 <_end+0xfffdb526>
    10e0:	deadbeef          	jal	t4,fffdc6ca <_end+0xfffdb52a>
    10e4:	deadbeef          	jal	t4,fffdc6ce <_end+0xfffdb52e>
    10e8:	deadbeef          	jal	t4,fffdc6d2 <_end+0xfffdb532>
    10ec:	deadbeef          	jal	t4,fffdc6d6 <_end+0xfffdb536>
    10f0:	deadbeef          	jal	t4,fffdc6da <_end+0xfffdb53a>
    10f4:	deadbeef          	jal	t4,fffdc6de <_end+0xfffdb53e>
    10f8:	deadbeef          	jal	t4,fffdc6e2 <_end+0xfffdb542>
    10fc:	deadbeef          	jal	t4,fffdc6e6 <_end+0xfffdb546>
    1100:	deadbeef          	jal	t4,fffdc6ea <_end+0xfffdb54a>
    1104:	deadbeef          	jal	t4,fffdc6ee <_end+0xfffdb54e>
    1108:	deadbeef          	jal	t4,fffdc6f2 <_end+0xfffdb552>
    110c:	deadbeef          	jal	t4,fffdc6f6 <_end+0xfffdb556>
    1110:	deadbeef          	jal	t4,fffdc6fa <_end+0xfffdb55a>
    1114:	deadbeef          	jal	t4,fffdc6fe <_end+0xfffdb55e>
    1118:	deadbeef          	jal	t4,fffdc702 <_end+0xfffdb562>
    111c:	deadbeef          	jal	t4,fffdc706 <_end+0xfffdb566>
    1120:	deadbeef          	jal	t4,fffdc70a <_end+0xfffdb56a>
    1124:	deadbeef          	jal	t4,fffdc70e <_end+0xfffdb56e>
    1128:	deadbeef          	jal	t4,fffdc712 <_end+0xfffdb572>
    112c:	deadbeef          	jal	t4,fffdc716 <_end+0xfffdb576>
    1130:	deadbeef          	jal	t4,fffdc71a <_end+0xfffdb57a>
    1134:	deadbeef          	jal	t4,fffdc71e <_end+0xfffdb57e>
    1138:	deadbeef          	jal	t4,fffdc722 <_end+0xfffdb582>
    113c:	deadbeef          	jal	t4,fffdc726 <_end+0xfffdb586>

00001140 <signature_x19_1>:
    1140:	deadbeef          	jal	t4,fffdc72a <_end+0xfffdb58a>
    1144:	deadbeef          	jal	t4,fffdc72e <_end+0xfffdb58e>

00001148 <signature_x15_3>:
    1148:	deadbeef          	jal	t4,fffdc732 <_end+0xfffdb592>
    114c:	deadbeef          	jal	t4,fffdc736 <_end+0xfffdb596>

00001150 <signature_x19_2>:
    1150:	deadbeef          	jal	t4,fffdc73a <_end+0xfffdb59a>
    1154:	deadbeef          	jal	t4,fffdc73e <_end+0xfffdb59e>

00001158 <signature_x15_4>:
    1158:	deadbeef          	jal	t4,fffdc742 <_end+0xfffdb5a2>
    115c:	deadbeef          	jal	t4,fffdc746 <_end+0xfffdb5a6>
    1160:	deadbeef          	jal	t4,fffdc74a <_end+0xfffdb5aa>
    1164:	deadbeef          	jal	t4,fffdc74e <_end+0xfffdb5ae>
    1168:	deadbeef          	jal	t4,fffdc752 <_end+0xfffdb5b2>
    116c:	deadbeef          	jal	t4,fffdc756 <_end+0xfffdb5b6>
    1170:	deadbeef          	jal	t4,fffdc75a <_end+0xfffdb5ba>
    1174:	deadbeef          	jal	t4,fffdc75e <_end+0xfffdb5be>
    1178:	deadbeef          	jal	t4,fffdc762 <_end+0xfffdb5c2>
    117c:	deadbeef          	jal	t4,fffdc766 <_end+0xfffdb5c6>
    1180:	deadbeef          	jal	t4,fffdc76a <_end+0xfffdb5ca>
    1184:	deadbeef          	jal	t4,fffdc76e <_end+0xfffdb5ce>
    1188:	deadbeef          	jal	t4,fffdc772 <_end+0xfffdb5d2>
    118c:	deadbeef          	jal	t4,fffdc776 <_end+0xfffdb5d6>
    1190:	deadbeef          	jal	t4,fffdc77a <_end+0xfffdb5da>
    1194:	deadbeef          	jal	t4,fffdc77e <_end+0xfffdb5de>
	...

Desensamblado de la sección .riscv.attributes:

00000000 <.riscv.attributes>:
   0:	2241                	.2byte	0x2241
   2:	0000                	.2byte	0x0
   4:	7200                	.2byte	0x7200
   6:	7369                	.2byte	0x7369
   8:	01007663          	bgeu	zero,a6,14 <rvtest_entry_point+0x14>
   c:	0018                	.2byte	0x18
   e:	0000                	.2byte	0x0
  10:	7205                	.2byte	0x7205
  12:	3376                	.2byte	0x3376
  14:	6932                	.2byte	0x6932
  16:	7032                	.2byte	0x7032
  18:	5f30                	.2byte	0x5f30
  1a:	3266                	.2byte	0x3266
  1c:	3070                	.2byte	0x3070
  1e:	0800                	.2byte	0x800
  20:	0a01                	.2byte	0xa01
  22:	0b              	Address 0x22 is out of bounds.

