
/home/alejandro/Escritorio/test_riscv2.5/riscv-compliance/work/rv32i_m/F/fcvt.w.s_b22-01.elf:     formato del fichero elf32-littleriscv


Desensamblado de la sección .text.init:

00000000 <rvtest_entry_point>:
   0:	feedc0b7          	lui	ra,0xfeedc
   4:	ead08093          	add	ra,ra,-339 # feedbead <_end+0xfeedacad>
   8:	ff76e137          	lui	sp,0xff76e
   c:	f5610113          	add	sp,sp,-170 # ff76df56 <_end+0xff76cd56>
  10:	7fbb71b7          	lui	gp,0x7fbb7
  14:	fab18193          	add	gp,gp,-85 # 7fbb6fab <_end+0x7fbb5dab>
  18:	bfddb237          	lui	tp,0xbfddb
  1c:	7d520213          	add	tp,tp,2005 # bfddb7d5 <_end+0xbfdda5d5>
  20:	00000297          	auipc	t0,0x0
  24:	0d828293          	add	t0,t0,216 # f8 <rvtest_code_begin>
  28:	00001317          	auipc	t1,0x1
  2c:	fd830313          	add	t1,t1,-40 # 1000 <rvtest_data_begin>
  30:	b7fbb3b7          	lui	t2,0xb7fbb
  34:	6fa38393          	add	t2,t2,1786 # b7fbb6fa <_end+0xb7fba4fa>
  38:	5bfde437          	lui	s0,0x5bfde
  3c:	b7d40413          	add	s0,s0,-1155 # 5bfddb7d <_end+0x5bfdc97d>
  40:	adfef4b7          	lui	s1,0xadfef
  44:	dbe48493          	add	s1,s1,-578 # adfeedbe <_end+0xadfedbbe>
  48:	56ff7537          	lui	a0,0x56ff7
  4c:	6df50513          	add	a0,a0,1759 # 56ff76df <_end+0x56ff64df>
  50:	ab7fc5b7          	lui	a1,0xab7fc
  54:	b6f58593          	add	a1,a1,-1169 # ab7fbb6f <_end+0xab7fa96f>
  58:	d5bfe637          	lui	a2,0xd5bfe
  5c:	db760613          	add	a2,a2,-585 # d5bfddb7 <_end+0xd5bfcbb7>
  60:	eadff6b7          	lui	a3,0xeadff
  64:	edb68693          	add	a3,a3,-293 # eadfeedb <_end+0xeadfdcdb>
  68:	f56ff737          	lui	a4,0xf56ff
  6c:	76d70713          	add	a4,a4,1901 # f56ff76d <_end+0xf56fe56d>
  70:	fab807b7          	lui	a5,0xfab80
  74:	bb678793          	add	a5,a5,-1098 # fab7fbb6 <_end+0xfab7e9b6>
  78:	7d5c0837          	lui	a6,0x7d5c0
  7c:	ddb80813          	add	a6,a6,-549 # 7d5bfddb <_end+0x7d5bebdb>
  80:	beae08b7          	lui	a7,0xbeae0
  84:	eed88893          	add	a7,a7,-275 # beadfeed <_end+0xbeadeced>
  88:	df570937          	lui	s2,0xdf570
  8c:	f7690913          	add	s2,s2,-138 # df56ff76 <_end+0xdf56ed76>
  90:	6fab89b7          	lui	s3,0x6fab8
  94:	fbb98993          	add	s3,s3,-69 # 6fab7fbb <_end+0x6fab6dbb>
  98:	b7d5ca37          	lui	s4,0xb7d5c
  9c:	fdda0a13          	add	s4,s4,-35 # b7d5bfdd <_end+0xb7d5addd>
  a0:	dbeaeab7          	lui	s5,0xdbeae
  a4:	feea8a93          	add	s5,s5,-18 # dbeadfee <_end+0xdbeacdee>
  a8:	6df57b37          	lui	s6,0x6df57
  ac:	ff7b0b13          	add	s6,s6,-9 # 6df56ff7 <_end+0x6df55df7>
  b0:	b6fabbb7          	lui	s7,0xb6fab
  b4:	7fbb8b93          	add	s7,s7,2043 # b6fab7fb <_end+0xb6faa5fb>
  b8:	db7d6c37          	lui	s8,0xdb7d6
  bc:	bfdc0c13          	add	s8,s8,-1027 # db7d5bfd <_end+0xdb7d49fd>
  c0:	edbebcb7          	lui	s9,0xedbeb
  c4:	dfec8c93          	add	s9,s9,-514 # edbeadfe <_end+0xedbe9bfe>
  c8:	76df5d37          	lui	s10,0x76df5
  cc:	6ffd0d13          	add	s10,s10,1791 # 76df56ff <_end+0x76df44ff>
  d0:	bb6fbdb7          	lui	s11,0xbb6fb
  d4:	b7fd8d93          	add	s11,s11,-1153 # bb6fab7f <_end+0xbb6f997f>
  d8:	ddb7de37          	lui	t3,0xddb7d
  dc:	5bfe0e13          	add	t3,t3,1471 # ddb7d5bf <_end+0xddb7c3bf>
  e0:	eedbfeb7          	lui	t4,0xeedbf
  e4:	adfe8e93          	add	t4,t4,-1313 # eedbeadf <_end+0xeedbd8df>
  e8:	f76dff37          	lui	t5,0xf76df
  ec:	56ff0f13          	add	t5,t5,1391 # f76df56f <_end+0xf76de36f>
  f0:	fbb70fb7          	lui	t6,0xfbb70
  f4:	ab7f8f93          	add	t6,t6,-1353 # fbb6fab7 <_end+0xfbb6e8b7>

000000f8 <rvtest_code_begin>:
  f8:	00002537          	lui	a0,0x2
  fc:	30052073          	csrs	mstatus,a0
 100:	00001817          	auipc	a6,0x1
 104:	f0480813          	add	a6,a6,-252 # 1004 <test_fp>
 108:	00001797          	auipc	a5,0x1
 10c:	fa878793          	add	a5,a5,-88 # 10b0 <data_begin>

00000110 <inst_0>:
 110:	00082e87          	flw	ft9,0(a6)
 114:	00205073          	fsrmi	zero,0
 118:	c00ef053          	fcvt.w.s	zero,ft9
 11c:	001028f3          	frflags	a7
 120:	0007a023          	sw	zero,0(a5)
 124:	0117a223          	sw	a7,4(a5)

00000128 <inst_1>:
 128:	00482f07          	flw	ft10,4(a6)
 12c:	00205073          	fsrmi	zero,0
 130:	c00f7f53          	fcvt.w.s	t5,ft10
 134:	001028f3          	frflags	a7
 138:	01e7a423          	sw	t5,8(a5)
 13c:	0117a623          	sw	a7,12(a5)

00000140 <inst_2>:
 140:	00882687          	flw	fa3,8(a6)
 144:	00205073          	fsrmi	zero,0
 148:	c006f553          	fcvt.w.s	a0,fa3
 14c:	001028f3          	frflags	a7
 150:	00a7a823          	sw	a0,16(a5)
 154:	0117aa23          	sw	a7,20(a5)

00000158 <inst_3>:
 158:	00c82787          	flw	fa5,12(a6)
 15c:	00205073          	fsrmi	zero,0
 160:	c007fcd3          	fcvt.w.s	s9,fa5
 164:	001028f3          	frflags	a7
 168:	0197ac23          	sw	s9,24(a5)
 16c:	0117ae23          	sw	a7,28(a5)
 170:	00080a33          	add	s4,a6,zero
 174:	00001997          	auipc	s3,0x1
 178:	f5c98993          	add	s3,s3,-164 # 10d0 <signature_x19_0>

0000017c <inst_4>:
 17c:	010a2587          	flw	fa1,16(s4)
 180:	00205073          	fsrmi	zero,0
 184:	c005f7d3          	fcvt.w.s	a5,fa1
 188:	00102af3          	frflags	s5
 18c:	00f9a023          	sw	a5,0(s3)
 190:	0159a223          	sw	s5,4(s3)
 194:	000a0833          	add	a6,s4,zero
 198:	00001797          	auipc	a5,0x1
 19c:	f4078793          	add	a5,a5,-192 # 10d8 <signature_x15_2>

000001a0 <inst_5>:
 1a0:	01482407          	flw	fs0,20(a6)
 1a4:	00205073          	fsrmi	zero,0
 1a8:	c0047153          	fcvt.w.s	sp,fs0
 1ac:	001028f3          	frflags	a7
 1b0:	0027a023          	sw	sp,0(a5)
 1b4:	0117a223          	sw	a7,4(a5)
 1b8:	00080a33          	add	s4,a6,zero
 1bc:	00001997          	auipc	s3,0x1
 1c0:	f2498993          	add	s3,s3,-220 # 10e0 <signature_x19_1>

000001c4 <inst_6>:
 1c4:	018a2d07          	flw	fs10,24(s4)
 1c8:	00205073          	fsrmi	zero,0
 1cc:	c00d7853          	fcvt.w.s	a6,fs10
 1d0:	00102af3          	frflags	s5
 1d4:	0109a023          	sw	a6,0(s3)
 1d8:	0159a223          	sw	s5,4(s3)
 1dc:	000a0833          	add	a6,s4,zero
 1e0:	00001797          	auipc	a5,0x1
 1e4:	f0878793          	add	a5,a5,-248 # 10e8 <signature_x15_3>

000001e8 <inst_7>:
 1e8:	01c82607          	flw	fa2,28(a6)
 1ec:	00205073          	fsrmi	zero,0
 1f0:	c0067c53          	fcvt.w.s	s8,fa2
 1f4:	001028f3          	frflags	a7
 1f8:	0187a023          	sw	s8,0(a5)
 1fc:	0117a223          	sw	a7,4(a5)

00000200 <inst_8>:
 200:	02082887          	flw	fa7,32(a6)
 204:	00205073          	fsrmi	zero,0
 208:	c008f6d3          	fcvt.w.s	a3,fa7
 20c:	001028f3          	frflags	a7
 210:	00d7a423          	sw	a3,8(a5)
 214:	0117a623          	sw	a7,12(a5)

00000218 <inst_9>:
 218:	02482007          	flw	ft0,36(a6)
 21c:	00205073          	fsrmi	zero,0
 220:	c00072d3          	fcvt.w.s	t0,ft0
 224:	001028f3          	frflags	a7
 228:	0057a823          	sw	t0,16(a5)
 22c:	0117aa23          	sw	a7,20(a5)
 230:	00080a33          	add	s4,a6,zero
 234:	00001997          	auipc	s3,0x1
 238:	ecc98993          	add	s3,s3,-308 # 1100 <signature_x19_2>

0000023c <inst_10>:
 23c:	028a2c07          	flw	fs8,40(s4)
 240:	00205073          	fsrmi	zero,0
 244:	c00c78d3          	fcvt.w.s	a7,fs8
 248:	00102af3          	frflags	s5
 24c:	0119a023          	sw	a7,0(s3)
 250:	0159a223          	sw	s5,4(s3)
 254:	000a0833          	add	a6,s4,zero
 258:	00001797          	auipc	a5,0x1
 25c:	eb078793          	add	a5,a5,-336 # 1108 <signature_x15_4>

00000260 <inst_11>:
 260:	02c82907          	flw	fs2,44(a6)
 264:	00205073          	fsrmi	zero,0
 268:	c0097ed3          	fcvt.w.s	t4,fs2
 26c:	001028f3          	frflags	a7
 270:	01d7a023          	sw	t4,0(a5)
 274:	0117a223          	sw	a7,4(a5)

00000278 <inst_12>:
 278:	03082987          	flw	fs3,48(a6)
 27c:	00205073          	fsrmi	zero,0
 280:	c009ffd3          	fcvt.w.s	t6,fs3
 284:	001028f3          	frflags	a7
 288:	01f7a423          	sw	t6,8(a5)
 28c:	0117a623          	sw	a7,12(a5)

00000290 <inst_13>:
 290:	03482b87          	flw	fs7,52(a6)
 294:	00205073          	fsrmi	zero,0
 298:	c00bfe53          	fcvt.w.s	t3,fs7
 29c:	001028f3          	frflags	a7
 2a0:	01c7a823          	sw	t3,16(a5)
 2a4:	0117aa23          	sw	a7,20(a5)

000002a8 <inst_14>:
 2a8:	03882707          	flw	fa4,56(a6)
 2ac:	00205073          	fsrmi	zero,0
 2b0:	c0077dd3          	fcvt.w.s	s11,fa4
 2b4:	001028f3          	frflags	a7
 2b8:	01b7ac23          	sw	s11,24(a5)
 2bc:	0117ae23          	sw	a7,28(a5)

000002c0 <inst_15>:
 2c0:	03c82207          	flw	ft4,60(a6)
 2c4:	00205073          	fsrmi	zero,0
 2c8:	c00274d3          	fcvt.w.s	s1,ft4
 2cc:	001028f3          	frflags	a7
 2d0:	0297a023          	sw	s1,32(a5)
 2d4:	0317a223          	sw	a7,36(a5)

000002d8 <inst_16>:
 2d8:	04082287          	flw	ft5,64(a6)
 2dc:	00205073          	fsrmi	zero,0
 2e0:	c002f453          	fcvt.w.s	s0,ft5
 2e4:	001028f3          	frflags	a7
 2e8:	0287a423          	sw	s0,40(a5)
 2ec:	0317a623          	sw	a7,44(a5)

000002f0 <inst_17>:
 2f0:	04482c87          	flw	fs9,68(a6)
 2f4:	00205073          	fsrmi	zero,0
 2f8:	c00cf253          	fcvt.w.s	tp,fs9
 2fc:	001028f3          	frflags	a7
 300:	0247a823          	sw	tp,48(a5)
 304:	0317aa23          	sw	a7,52(a5)

00000308 <inst_18>:
 308:	04882f87          	flw	ft11,72(a6)
 30c:	00205073          	fsrmi	zero,0
 310:	c00ffb53          	fcvt.w.s	s6,ft11
 314:	001028f3          	frflags	a7
 318:	0367ac23          	sw	s6,56(a5)
 31c:	0317ae23          	sw	a7,60(a5)

00000320 <inst_19>:
 320:	04c82807          	flw	fa6,76(a6)
 324:	00205073          	fsrmi	zero,0
 328:	c00871d3          	fcvt.w.s	gp,fa6
 32c:	001028f3          	frflags	a7
 330:	0437a023          	sw	gp,64(a5)
 334:	0517a223          	sw	a7,68(a5)

00000338 <inst_20>:
 338:	05082487          	flw	fs1,80(a6)
 33c:	00205073          	fsrmi	zero,0
 340:	c004f353          	fcvt.w.s	t1,fs1
 344:	001028f3          	frflags	a7
 348:	0467a423          	sw	t1,72(a5)
 34c:	0517a623          	sw	a7,76(a5)

00000350 <inst_21>:
 350:	05482507          	flw	fa0,84(a6)
 354:	00205073          	fsrmi	zero,0
 358:	c00575d3          	fcvt.w.s	a1,fa0
 35c:	001028f3          	frflags	a7
 360:	04b7a823          	sw	a1,80(a5)
 364:	0517aa23          	sw	a7,84(a5)

00000368 <inst_22>:
 368:	05882b07          	flw	fs6,88(a6)
 36c:	00205073          	fsrmi	zero,0
 370:	c00b7bd3          	fcvt.w.s	s7,fs6
 374:	001028f3          	frflags	a7
 378:	0577ac23          	sw	s7,88(a5)
 37c:	0517ae23          	sw	a7,92(a5)

00000380 <inst_23>:
 380:	05c82e07          	flw	ft8,92(a6)
 384:	00205073          	fsrmi	zero,0
 388:	c00e73d3          	fcvt.w.s	t2,ft8
 38c:	001028f3          	frflags	a7
 390:	0677a023          	sw	t2,96(a5)
 394:	0717a223          	sw	a7,100(a5)

00000398 <inst_24>:
 398:	06082307          	flw	ft6,96(a6)
 39c:	00205073          	fsrmi	zero,0
 3a0:	c0037d53          	fcvt.w.s	s10,ft6
 3a4:	001028f3          	frflags	a7
 3a8:	07a7a423          	sw	s10,104(a5)
 3ac:	0717a623          	sw	a7,108(a5)

000003b0 <inst_25>:
 3b0:	06482387          	flw	ft7,100(a6)
 3b4:	00205073          	fsrmi	zero,0
 3b8:	c003f9d3          	fcvt.w.s	s3,ft7
 3bc:	001028f3          	frflags	a7
 3c0:	0737a823          	sw	s3,112(a5)
 3c4:	0717aa23          	sw	a7,116(a5)

000003c8 <inst_26>:
 3c8:	06882a87          	flw	fs5,104(a6)
 3cc:	00205073          	fsrmi	zero,0
 3d0:	c00af653          	fcvt.w.s	a2,fs5
 3d4:	001028f3          	frflags	a7
 3d8:	06c7ac23          	sw	a2,120(a5)
 3dc:	0717ae23          	sw	a7,124(a5)

000003e0 <inst_27>:
 3e0:	06c82a07          	flw	fs4,108(a6)
 3e4:	00205073          	fsrmi	zero,0
 3e8:	c00a7ad3          	fcvt.w.s	s5,fs4
 3ec:	001028f3          	frflags	a7
 3f0:	0957a023          	sw	s5,128(a5)
 3f4:	0917a223          	sw	a7,132(a5)

000003f8 <inst_28>:
 3f8:	07082187          	flw	ft3,112(a6)
 3fc:	00205073          	fsrmi	zero,0
 400:	c001f953          	fcvt.w.s	s2,ft3
 404:	001028f3          	frflags	a7
 408:	0927a423          	sw	s2,136(a5)
 40c:	0917a623          	sw	a7,140(a5)

00000410 <inst_29>:
 410:	07482087          	flw	ft1,116(a6)
 414:	00205073          	fsrmi	zero,0
 418:	c000fa53          	fcvt.w.s	s4,ft1
 41c:	001028f3          	frflags	a7
 420:	0947a823          	sw	s4,144(a5)
 424:	0917aa23          	sw	a7,148(a5)

00000428 <inst_30>:
 428:	07882107          	flw	ft2,120(a6)
 42c:	00205073          	fsrmi	zero,0
 430:	c00170d3          	fcvt.w.s	ra,ft2
 434:	001028f3          	frflags	a7
 438:	0817ac23          	sw	ra,152(a5)
 43c:	0917ae23          	sw	a7,156(a5)

00000440 <inst_31>:
 440:	07c82d87          	flw	fs11,124(a6)
 444:	00205073          	fsrmi	zero,0
 448:	c00df753          	fcvt.w.s	a4,fs11
 44c:	001028f3          	frflags	a7
 450:	0ae7a023          	sw	a4,160(a5)
 454:	0b17a223          	sw	a7,164(a5)

00000458 <inst_32>:
 458:	08082507          	flw	fa0,128(a6)
 45c:	00205073          	fsrmi	zero,0
 460:	c00575d3          	fcvt.w.s	a1,fa0
 464:	001028f3          	frflags	a7
 468:	0ab7a423          	sw	a1,168(a5)
 46c:	0b17a623          	sw	a7,172(a5)

00000470 <inst_33>:
 470:	08482507          	flw	fa0,132(a6)
 474:	00205073          	fsrmi	zero,0
 478:	c00575d3          	fcvt.w.s	a1,fa0
 47c:	001028f3          	frflags	a7
 480:	0ab7a823          	sw	a1,176(a5)
 484:	0b17aa23          	sw	a7,180(a5)

00000488 <inst_34>:
 488:	08882507          	flw	fa0,136(a6)
 48c:	00205073          	fsrmi	zero,0
 490:	c00575d3          	fcvt.w.s	a1,fa0
 494:	001028f3          	frflags	a7
 498:	0ab7ac23          	sw	a1,184(a5)
 49c:	0b17ae23          	sw	a7,188(a5)

000004a0 <inst_35>:
 4a0:	08c82507          	flw	fa0,140(a6)
 4a4:	00205073          	fsrmi	zero,0
 4a8:	c00575d3          	fcvt.w.s	a1,fa0
 4ac:	001028f3          	frflags	a7
 4b0:	0cb7a023          	sw	a1,192(a5)
 4b4:	0d17a223          	sw	a7,196(a5)

000004b8 <inst_36>:
 4b8:	09082507          	flw	fa0,144(a6)
 4bc:	00205073          	fsrmi	zero,0
 4c0:	c00575d3          	fcvt.w.s	a1,fa0
 4c4:	001028f3          	frflags	a7
 4c8:	0cb7a423          	sw	a1,200(a5)
 4cc:	0d17a623          	sw	a7,204(a5)

000004d0 <inst_37>:
 4d0:	09482507          	flw	fa0,148(a6)
 4d4:	00205073          	fsrmi	zero,0
 4d8:	c00575d3          	fcvt.w.s	a1,fa0
 4dc:	001028f3          	frflags	a7
 4e0:	0cb7a823          	sw	a1,208(a5)
 4e4:	0d17aa23          	sw	a7,212(a5)

000004e8 <inst_38>:
 4e8:	09882507          	flw	fa0,152(a6)
 4ec:	00205073          	fsrmi	zero,0
 4f0:	c00575d3          	fcvt.w.s	a1,fa0
 4f4:	001028f3          	frflags	a7
 4f8:	0cb7ac23          	sw	a1,216(a5)
 4fc:	0d17ae23          	sw	a7,220(a5)

00000500 <inst_39>:
 500:	09c82507          	flw	fa0,156(a6)
 504:	00205073          	fsrmi	zero,0
 508:	c00575d3          	fcvt.w.s	a1,fa0
 50c:	001028f3          	frflags	a7
 510:	0eb7a023          	sw	a1,224(a5)
 514:	0f17a223          	sw	a7,228(a5)

00000518 <inst_40>:
 518:	0a082507          	flw	fa0,160(a6)
 51c:	00205073          	fsrmi	zero,0
 520:	c00575d3          	fcvt.w.s	a1,fa0
 524:	001028f3          	frflags	a7
 528:	0eb7a423          	sw	a1,232(a5)
 52c:	0f17a623          	sw	a7,236(a5)

00000530 <rvtest_code_end>:
 530:	00001517          	auipc	a0,0x1
 534:	b8050513          	add	a0,a0,-1152 # 10b0 <data_begin>
 538:	00001597          	auipc	a1,0x1
 53c:	cc858593          	add	a1,a1,-824 # 1200 <_end>
 540:	80001637          	lui	a2,0x80001
 544:	00860613          	add	a2,a2,8 # 80001008 <_end+0x7ffffe08>

00000548 <compliance_halt_loop>:
 548:	06b50063          	beq	a0,a1,5a8 <compliance_halt_break>
 54c:	00450693          	add	a3,a0,4

00000550 <compliance_halt_loop2>:
 550:	fff68693          	add	a3,a3,-1
 554:	00068703          	lb	a4,0(a3)
 558:	40475793          	sra	a5,a4,0x4
 55c:	00f7f793          	and	a5,a5,15
 560:	00a00813          	li	a6,10
 564:	0107c463          	blt	a5,a6,56c <notLetter>
 568:	02778793          	add	a5,a5,39

0000056c <notLetter>:
 56c:	03078793          	add	a5,a5,48
 570:	00f60023          	sb	a5,0(a2)
 574:	40075793          	sra	a5,a4,0x0
 578:	00f7f793          	and	a5,a5,15
 57c:	00a00813          	li	a6,10
 580:	0107c463          	blt	a5,a6,588 <notLetter2>
 584:	02778793          	add	a5,a5,39

00000588 <notLetter2>:
 588:	03078793          	add	a5,a5,48
 58c:	00f60023          	sb	a5,0(a2)
 590:	fcd510e3          	bne	a0,a3,550 <compliance_halt_loop2>
 594:	00450513          	add	a0,a0,4
 598:	00a00713          	li	a4,10
 59c:	00e60023          	sb	a4,0(a2)
 5a0:	fa9ff06f          	j	548 <compliance_halt_loop>
 5a4:	0040006f          	j	5a8 <compliance_halt_break>

000005a8 <compliance_halt_break>:
 5a8:	80001537          	lui	a0,0x80001
 5ac:	00950513          	add	a0,a0,9 # 80001009 <_end+0x7ffffe09>
 5b0:	00d50023          	sb	a3,0(a0)
 5b4:	0000                	.2byte	0x0
	...

Desensamblado de la sección .data:

00001000 <rvtest_data_begin>:
    1000:	cafe                	.2byte	0xcafe
    1002:	babe                	.2byte	0xbabe

00001004 <test_fp>:
    1004:	23b8                	.2byte	0x23b8
    1006:	3e49                	.2byte	0x3e49
    1008:	3ed1                	.2byte	0x3ed1
    100a:	db40                	.2byte	0xdb40
    100c:	d269                	.2byte	0xd269
    100e:	94ca                	.2byte	0x94ca
    1010:	51ba                	.2byte	0x51ba
    1012:	d088                	.2byte	0xd088
    1014:	cfdc                	.2byte	0xcfdc
    1016:	450c5037          	lui	zero,0x450c5
    101a:	4fc6                	.2byte	0x4fc6
    101c:	3d12                	.2byte	0x3d12
    101e:	cf28                	.2byte	0xcf28
    1020:	f818                	.2byte	0xf818
    1022:	4ef2                	.2byte	0x4ef2
    1024:	ce2edddb          	.4byte	0xce2edddb
    1028:	c422                	.2byte	0xc422
    102a:	cda6                	.2byte	0xcda6
    102c:	cd7872c3          	.4byte	0xcd7872c3
    1030:	4c912603          	lw	a2,1225(sp)
    1034:	84e1                	.2byte	0x84e1
    1036:	4c00                	.2byte	0x4c00
    1038:	aa55                	.2byte	0xaa55
    103a:	cb85                	.2byte	0xcb85
    103c:	817e                	.2byte	0x817e
    103e:	4b4e                	.2byte	0x4b4e
    1040:	14e9                	.2byte	0x14e9
    1042:	4afc                	.2byte	0x4afc
    1044:	4a7dbfb7          	lui	t6,0x4a7db
    1048:	4882                	.2byte	0x4882
    104a:	c9e2                	.2byte	0xc9e2
    104c:	056d                	.2byte	0x56d
    104e:	4911                	.2byte	0x4911
    1050:	b761                	.2byte	0xb761
    1052:	48d4                	.2byte	0x48d4
    1054:	4857ca4f          	fnmadd.s	fs4,fa5,ft5,fs1,rmm
    1058:	7971                	.2byte	0x7971
    105a:	47ba                	.2byte	0x47ba
    105c:	4756653f c6a44d9a 	.8byte	0xc6a44d9a4756653f
    1064:	4630d877          	.4byte	0x4630d877
    1068:	3559                	.2byte	0x3559
    106a:	45cd                	.2byte	0x45cd
    106c:	19c1                	.2byte	0x19c1
    106e:	456e                	.2byte	0x456e
    1070:	b406                	.2byte	0xb406
    1072:	4485                	.2byte	0x4485
    1074:	8f2d                	.2byte	0x8f2d
    1076:	447f f5e7 c3f9 ffe4 	.byte	0x7f, 0x44, 0xe7, 0xf5, 0xf9, 0xc3, 0xe4, 0xff, 0x1f, 0xc3, 0x75, 0xf4, 0xa9, 0x42, 0x4b, 0xa5, 0x42, 0x42
    107e:	c31f f475 42a9 a54b 
    1086:	4242 
    1088:	8266                	.2byte	0x8266
    108a:	4194                	.2byte	0x4194
    108c:	a4fc                	.2byte	0xa4fc
    108e:	6b5cc153          	.4byte	0x6b5cc153
    1092:	40e9                	.2byte	0x40e9
    1094:	1ae9                	.2byte	0x1ae9
    1096:	4068                	.2byte	0x4068
    1098:	616d                	.2byte	0x616d
    109a:	3f9a                	.2byte	0x3f9a
    109c:	fee5                	.2byte	0xfee5
    109e:	3f49                	.2byte	0x3f49
    10a0:	e5d6                	.2byte	0xe5d6
    10a2:	3eb6                	.2byte	0x3eb6
    10a4:	23b8                	.2byte	0x23b8
    10a6:	3e49                	.2byte	0x3e49

000010a8 <rvtest_data_end>:
	...

000010b0 <data_begin>:
    10b0:	deadbeef          	jal	t4,fffdc69a <_end+0xfffdb49a>
    10b4:	deadbeef          	jal	t4,fffdc69e <_end+0xfffdb49e>
    10b8:	deadbeef          	jal	t4,fffdc6a2 <_end+0xfffdb4a2>
    10bc:	deadbeef          	jal	t4,fffdc6a6 <_end+0xfffdb4a6>
    10c0:	deadbeef          	jal	t4,fffdc6aa <_end+0xfffdb4aa>
    10c4:	deadbeef          	jal	t4,fffdc6ae <_end+0xfffdb4ae>
    10c8:	deadbeef          	jal	t4,fffdc6b2 <_end+0xfffdb4b2>
    10cc:	deadbeef          	jal	t4,fffdc6b6 <_end+0xfffdb4b6>

000010d0 <signature_x19_0>:
    10d0:	deadbeef          	jal	t4,fffdc6ba <_end+0xfffdb4ba>
    10d4:	deadbeef          	jal	t4,fffdc6be <_end+0xfffdb4be>

000010d8 <signature_x15_2>:
    10d8:	deadbeef          	jal	t4,fffdc6c2 <_end+0xfffdb4c2>
    10dc:	deadbeef          	jal	t4,fffdc6c6 <_end+0xfffdb4c6>

000010e0 <signature_x19_1>:
    10e0:	deadbeef          	jal	t4,fffdc6ca <_end+0xfffdb4ca>
    10e4:	deadbeef          	jal	t4,fffdc6ce <_end+0xfffdb4ce>

000010e8 <signature_x15_3>:
    10e8:	deadbeef          	jal	t4,fffdc6d2 <_end+0xfffdb4d2>
    10ec:	deadbeef          	jal	t4,fffdc6d6 <_end+0xfffdb4d6>
    10f0:	deadbeef          	jal	t4,fffdc6da <_end+0xfffdb4da>
    10f4:	deadbeef          	jal	t4,fffdc6de <_end+0xfffdb4de>
    10f8:	deadbeef          	jal	t4,fffdc6e2 <_end+0xfffdb4e2>
    10fc:	deadbeef          	jal	t4,fffdc6e6 <_end+0xfffdb4e6>

00001100 <signature_x19_2>:
    1100:	deadbeef          	jal	t4,fffdc6ea <_end+0xfffdb4ea>
    1104:	deadbeef          	jal	t4,fffdc6ee <_end+0xfffdb4ee>

00001108 <signature_x15_4>:
    1108:	deadbeef          	jal	t4,fffdc6f2 <_end+0xfffdb4f2>
    110c:	deadbeef          	jal	t4,fffdc6f6 <_end+0xfffdb4f6>
    1110:	deadbeef          	jal	t4,fffdc6fa <_end+0xfffdb4fa>
    1114:	deadbeef          	jal	t4,fffdc6fe <_end+0xfffdb4fe>
    1118:	deadbeef          	jal	t4,fffdc702 <_end+0xfffdb502>
    111c:	deadbeef          	jal	t4,fffdc706 <_end+0xfffdb506>
    1120:	deadbeef          	jal	t4,fffdc70a <_end+0xfffdb50a>
    1124:	deadbeef          	jal	t4,fffdc70e <_end+0xfffdb50e>
    1128:	deadbeef          	jal	t4,fffdc712 <_end+0xfffdb512>
    112c:	deadbeef          	jal	t4,fffdc716 <_end+0xfffdb516>
    1130:	deadbeef          	jal	t4,fffdc71a <_end+0xfffdb51a>
    1134:	deadbeef          	jal	t4,fffdc71e <_end+0xfffdb51e>
    1138:	deadbeef          	jal	t4,fffdc722 <_end+0xfffdb522>
    113c:	deadbeef          	jal	t4,fffdc726 <_end+0xfffdb526>
    1140:	deadbeef          	jal	t4,fffdc72a <_end+0xfffdb52a>
    1144:	deadbeef          	jal	t4,fffdc72e <_end+0xfffdb52e>
    1148:	deadbeef          	jal	t4,fffdc732 <_end+0xfffdb532>
    114c:	deadbeef          	jal	t4,fffdc736 <_end+0xfffdb536>
    1150:	deadbeef          	jal	t4,fffdc73a <_end+0xfffdb53a>
    1154:	deadbeef          	jal	t4,fffdc73e <_end+0xfffdb53e>
    1158:	deadbeef          	jal	t4,fffdc742 <_end+0xfffdb542>
    115c:	deadbeef          	jal	t4,fffdc746 <_end+0xfffdb546>
    1160:	deadbeef          	jal	t4,fffdc74a <_end+0xfffdb54a>
    1164:	deadbeef          	jal	t4,fffdc74e <_end+0xfffdb54e>
    1168:	deadbeef          	jal	t4,fffdc752 <_end+0xfffdb552>
    116c:	deadbeef          	jal	t4,fffdc756 <_end+0xfffdb556>
    1170:	deadbeef          	jal	t4,fffdc75a <_end+0xfffdb55a>
    1174:	deadbeef          	jal	t4,fffdc75e <_end+0xfffdb55e>
    1178:	deadbeef          	jal	t4,fffdc762 <_end+0xfffdb562>
    117c:	deadbeef          	jal	t4,fffdc766 <_end+0xfffdb566>
    1180:	deadbeef          	jal	t4,fffdc76a <_end+0xfffdb56a>
    1184:	deadbeef          	jal	t4,fffdc76e <_end+0xfffdb56e>
    1188:	deadbeef          	jal	t4,fffdc772 <_end+0xfffdb572>
    118c:	deadbeef          	jal	t4,fffdc776 <_end+0xfffdb576>
    1190:	deadbeef          	jal	t4,fffdc77a <_end+0xfffdb57a>
    1194:	deadbeef          	jal	t4,fffdc77e <_end+0xfffdb57e>
    1198:	deadbeef          	jal	t4,fffdc782 <_end+0xfffdb582>
    119c:	deadbeef          	jal	t4,fffdc786 <_end+0xfffdb586>
    11a0:	deadbeef          	jal	t4,fffdc78a <_end+0xfffdb58a>
    11a4:	deadbeef          	jal	t4,fffdc78e <_end+0xfffdb58e>
    11a8:	deadbeef          	jal	t4,fffdc792 <_end+0xfffdb592>
    11ac:	deadbeef          	jal	t4,fffdc796 <_end+0xfffdb596>
    11b0:	deadbeef          	jal	t4,fffdc79a <_end+0xfffdb59a>
    11b4:	deadbeef          	jal	t4,fffdc79e <_end+0xfffdb59e>
    11b8:	deadbeef          	jal	t4,fffdc7a2 <_end+0xfffdb5a2>
    11bc:	deadbeef          	jal	t4,fffdc7a6 <_end+0xfffdb5a6>
    11c0:	deadbeef          	jal	t4,fffdc7aa <_end+0xfffdb5aa>
    11c4:	deadbeef          	jal	t4,fffdc7ae <_end+0xfffdb5ae>
    11c8:	deadbeef          	jal	t4,fffdc7b2 <_end+0xfffdb5b2>
    11cc:	deadbeef          	jal	t4,fffdc7b6 <_end+0xfffdb5b6>
    11d0:	deadbeef          	jal	t4,fffdc7ba <_end+0xfffdb5ba>
    11d4:	deadbeef          	jal	t4,fffdc7be <_end+0xfffdb5be>
    11d8:	deadbeef          	jal	t4,fffdc7c2 <_end+0xfffdb5c2>
    11dc:	deadbeef          	jal	t4,fffdc7c6 <_end+0xfffdb5c6>
    11e0:	deadbeef          	jal	t4,fffdc7ca <_end+0xfffdb5ca>
    11e4:	deadbeef          	jal	t4,fffdc7ce <_end+0xfffdb5ce>
    11e8:	deadbeef          	jal	t4,fffdc7d2 <_end+0xfffdb5d2>
    11ec:	deadbeef          	jal	t4,fffdc7d6 <_end+0xfffdb5d6>
    11f0:	deadbeef          	jal	t4,fffdc7da <_end+0xfffdb5da>
    11f4:	deadbeef          	jal	t4,fffdc7de <_end+0xfffdb5de>
	...

Desensamblado de la sección .riscv.attributes:

00000000 <.riscv.attributes>:
   0:	2241                	.2byte	0x2241
   2:	0000                	.2byte	0x0
   4:	7200                	.2byte	0x7200
   6:	7369                	.2byte	0x7369
   8:	01007663          	bgeu	zero,a6,14 <rvtest_entry_point+0x14>
   c:	0018                	.2byte	0x18
   e:	0000                	.2byte	0x0
  10:	7205                	.2byte	0x7205
  12:	3376                	.2byte	0x3376
  14:	6932                	.2byte	0x6932
  16:	7032                	.2byte	0x7032
  18:	5f30                	.2byte	0x5f30
  1a:	3266                	.2byte	0x3266
  1c:	3070                	.2byte	0x3070
  1e:	0800                	.2byte	0x800
  20:	0a01                	.2byte	0xa01
  22:	0b              	Address 0x22 is out of bounds.

