
/home/alejandro/Escritorio/test_riscv2.5/riscv-compliance/work/rv32i_m/F/fcvt.wu.s_b24-01.elf:     formato del fichero elf32-littleriscv


Desensamblado de la sección .text.init:

00000000 <rvtest_entry_point>:
   0:	feedc0b7          	lui	ra,0xfeedc
   4:	ead08093          	add	ra,ra,-339 # feedbead <_end+0xfeeda9ad>
   8:	ff76e137          	lui	sp,0xff76e
   c:	f5610113          	add	sp,sp,-170 # ff76df56 <_end+0xff76ca56>
  10:	7fbb71b7          	lui	gp,0x7fbb7
  14:	fab18193          	add	gp,gp,-85 # 7fbb6fab <_end+0x7fbb5aab>
  18:	bfddb237          	lui	tp,0xbfddb
  1c:	7d520213          	add	tp,tp,2005 # bfddb7d5 <_end+0xbfdda2d5>
  20:	00000297          	auipc	t0,0x0
  24:	0d828293          	add	t0,t0,216 # f8 <rvtest_code_begin>
  28:	00001317          	auipc	t1,0x1
  2c:	fd830313          	add	t1,t1,-40 # 1000 <rvtest_data_begin>
  30:	b7fbb3b7          	lui	t2,0xb7fbb
  34:	6fa38393          	add	t2,t2,1786 # b7fbb6fa <_end+0xb7fba1fa>
  38:	5bfde437          	lui	s0,0x5bfde
  3c:	b7d40413          	add	s0,s0,-1155 # 5bfddb7d <_end+0x5bfdc67d>
  40:	adfef4b7          	lui	s1,0xadfef
  44:	dbe48493          	add	s1,s1,-578 # adfeedbe <_end+0xadfed8be>
  48:	56ff7537          	lui	a0,0x56ff7
  4c:	6df50513          	add	a0,a0,1759 # 56ff76df <_end+0x56ff61df>
  50:	ab7fc5b7          	lui	a1,0xab7fc
  54:	b6f58593          	add	a1,a1,-1169 # ab7fbb6f <_end+0xab7fa66f>
  58:	d5bfe637          	lui	a2,0xd5bfe
  5c:	db760613          	add	a2,a2,-585 # d5bfddb7 <_end+0xd5bfc8b7>
  60:	eadff6b7          	lui	a3,0xeadff
  64:	edb68693          	add	a3,a3,-293 # eadfeedb <_end+0xeadfd9db>
  68:	f56ff737          	lui	a4,0xf56ff
  6c:	76d70713          	add	a4,a4,1901 # f56ff76d <_end+0xf56fe26d>
  70:	fab807b7          	lui	a5,0xfab80
  74:	bb678793          	add	a5,a5,-1098 # fab7fbb6 <_end+0xfab7e6b6>
  78:	7d5c0837          	lui	a6,0x7d5c0
  7c:	ddb80813          	add	a6,a6,-549 # 7d5bfddb <_end+0x7d5be8db>
  80:	beae08b7          	lui	a7,0xbeae0
  84:	eed88893          	add	a7,a7,-275 # beadfeed <_end+0xbeade9ed>
  88:	df570937          	lui	s2,0xdf570
  8c:	f7690913          	add	s2,s2,-138 # df56ff76 <_end+0xdf56ea76>
  90:	6fab89b7          	lui	s3,0x6fab8
  94:	fbb98993          	add	s3,s3,-69 # 6fab7fbb <_end+0x6fab6abb>
  98:	b7d5ca37          	lui	s4,0xb7d5c
  9c:	fdda0a13          	add	s4,s4,-35 # b7d5bfdd <_end+0xb7d5aadd>
  a0:	dbeaeab7          	lui	s5,0xdbeae
  a4:	feea8a93          	add	s5,s5,-18 # dbeadfee <_end+0xdbeacaee>
  a8:	6df57b37          	lui	s6,0x6df57
  ac:	ff7b0b13          	add	s6,s6,-9 # 6df56ff7 <_end+0x6df55af7>
  b0:	b6fabbb7          	lui	s7,0xb6fab
  b4:	7fbb8b93          	add	s7,s7,2043 # b6fab7fb <_end+0xb6faa2fb>
  b8:	db7d6c37          	lui	s8,0xdb7d6
  bc:	bfdc0c13          	add	s8,s8,-1027 # db7d5bfd <_end+0xdb7d46fd>
  c0:	edbebcb7          	lui	s9,0xedbeb
  c4:	dfec8c93          	add	s9,s9,-514 # edbeadfe <_end+0xedbe98fe>
  c8:	76df5d37          	lui	s10,0x76df5
  cc:	6ffd0d13          	add	s10,s10,1791 # 76df56ff <_end+0x76df41ff>
  d0:	bb6fbdb7          	lui	s11,0xbb6fb
  d4:	b7fd8d93          	add	s11,s11,-1153 # bb6fab7f <_end+0xbb6f967f>
  d8:	ddb7de37          	lui	t3,0xddb7d
  dc:	5bfe0e13          	add	t3,t3,1471 # ddb7d5bf <_end+0xddb7c0bf>
  e0:	eedbfeb7          	lui	t4,0xeedbf
  e4:	adfe8e93          	add	t4,t4,-1313 # eedbeadf <_end+0xeedbd5df>
  e8:	f76dff37          	lui	t5,0xf76df
  ec:	56ff0f13          	add	t5,t5,1391 # f76df56f <_end+0xf76de06f>
  f0:	fbb70fb7          	lui	t6,0xfbb70
  f4:	ab7f8f93          	add	t6,t6,-1353 # fbb6fab7 <_end+0xfbb6e5b7>

000000f8 <rvtest_code_begin>:
  f8:	00002537          	lui	a0,0x2
  fc:	30052073          	csrs	mstatus,a0
 100:	00001817          	auipc	a6,0x1
 104:	f0480813          	add	a6,a6,-252 # 1004 <test_fp>
 108:	00001797          	auipc	a5,0x1
 10c:	0a878793          	add	a5,a5,168 # 11b0 <data_begin>

00000110 <inst_0>:
 110:	00082187          	flw	ft3,0(a6)
 114:	00205073          	fsrmi	zero,0
 118:	c011fdd3          	fcvt.wu.s	s11,ft3
 11c:	001028f3          	frflags	a7
 120:	01b7a023          	sw	s11,0(a5)
 124:	0117a223          	sw	a7,4(a5)

00000128 <inst_1>:
 128:	00482787          	flw	fa5,4(a6)
 12c:	00225073          	fsrmi	zero,4
 130:	c017fad3          	fcvt.wu.s	s5,fa5
 134:	001028f3          	frflags	a7
 138:	0157a423          	sw	s5,8(a5)
 13c:	0117a623          	sw	a7,12(a5)

00000140 <inst_2>:
 140:	00882687          	flw	fa3,8(a6)
 144:	0021d073          	fsrmi	zero,3
 148:	c016f953          	fcvt.wu.s	s2,fa3
 14c:	001028f3          	frflags	a7
 150:	0127a823          	sw	s2,16(a5)
 154:	0117aa23          	sw	a7,20(a5)
 158:	00080a33          	add	s4,a6,zero
 15c:	00001997          	auipc	s3,0x1
 160:	06c98993          	add	s3,s3,108 # 11c8 <signature_x19_0>

00000164 <inst_3>:
 164:	00ca2387          	flw	ft7,12(s4)
 168:	00215073          	fsrmi	zero,2
 16c:	c013f7d3          	fcvt.wu.s	a5,ft7
 170:	00102af3          	frflags	s5
 174:	00f9a023          	sw	a5,0(s3)
 178:	0159a223          	sw	s5,4(s3)

0000017c <inst_4>:
 17c:	010a2507          	flw	fa0,16(s4)
 180:	0020d073          	fsrmi	zero,1
 184:	c0157853          	fcvt.wu.s	a6,fa0
 188:	00102af3          	frflags	s5
 18c:	0109a423          	sw	a6,8(s3)
 190:	0159a623          	sw	s5,12(s3)
 194:	000a0833          	add	a6,s4,zero
 198:	00001797          	auipc	a5,0x1
 19c:	04078793          	add	a5,a5,64 # 11d8 <signature_x15_2>

000001a0 <inst_5>:
 1a0:	01482b07          	flw	fs6,20(a6)
 1a4:	00205073          	fsrmi	zero,0
 1a8:	c01b7d53          	fcvt.wu.s	s10,fs6
 1ac:	001028f3          	frflags	a7
 1b0:	01a7a023          	sw	s10,0(a5)
 1b4:	0117a223          	sw	a7,4(a5)

000001b8 <inst_6>:
 1b8:	01882887          	flw	fa7,24(a6)
 1bc:	00225073          	fsrmi	zero,4
 1c0:	c018f6d3          	fcvt.wu.s	a3,fa7
 1c4:	001028f3          	frflags	a7
 1c8:	00d7a423          	sw	a3,8(a5)
 1cc:	0117a623          	sw	a7,12(a5)

000001d0 <inst_7>:
 1d0:	01c82707          	flw	fa4,28(a6)
 1d4:	0021d073          	fsrmi	zero,3
 1d8:	c0177cd3          	fcvt.wu.s	s9,fa4
 1dc:	001028f3          	frflags	a7
 1e0:	0197a823          	sw	s9,16(a5)
 1e4:	0117aa23          	sw	a7,20(a5)

000001e8 <inst_8>:
 1e8:	02082287          	flw	ft5,32(a6)
 1ec:	00215073          	fsrmi	zero,2
 1f0:	c012fe53          	fcvt.wu.s	t3,ft5
 1f4:	001028f3          	frflags	a7
 1f8:	01c7ac23          	sw	t3,24(a5)
 1fc:	0117ae23          	sw	a7,28(a5)

00000200 <inst_9>:
 200:	02482407          	flw	fs0,36(a6)
 204:	0020d073          	fsrmi	zero,1
 208:	c0147c53          	fcvt.wu.s	s8,fs0
 20c:	001028f3          	frflags	a7
 210:	0387a023          	sw	s8,32(a5)
 214:	0317a223          	sw	a7,36(a5)

00000218 <inst_10>:
 218:	02882d07          	flw	fs10,40(a6)
 21c:	00205073          	fsrmi	zero,0
 220:	c01d7253          	fcvt.wu.s	tp,fs10
 224:	001028f3          	frflags	a7
 228:	0247a423          	sw	tp,40(a5)
 22c:	0317a623          	sw	a7,44(a5)

00000230 <inst_11>:
 230:	02c82207          	flw	ft4,44(a6)
 234:	00225073          	fsrmi	zero,4
 238:	c0127153          	fcvt.wu.s	sp,ft4
 23c:	001028f3          	frflags	a7
 240:	0227a823          	sw	sp,48(a5)
 244:	0317aa23          	sw	a7,52(a5)

00000248 <inst_12>:
 248:	03082c87          	flw	fs9,48(a6)
 24c:	0021d073          	fsrmi	zero,3
 250:	c01cf753          	fcvt.wu.s	a4,fs9
 254:	001028f3          	frflags	a7
 258:	02e7ac23          	sw	a4,56(a5)
 25c:	0317ae23          	sw	a7,60(a5)

00000260 <inst_13>:
 260:	03482a87          	flw	fs5,52(a6)
 264:	00215073          	fsrmi	zero,2
 268:	c01af653          	fcvt.wu.s	a2,fs5
 26c:	001028f3          	frflags	a7
 270:	04c7a023          	sw	a2,64(a5)
 274:	0517a223          	sw	a7,68(a5)

00000278 <inst_14>:
 278:	03882807          	flw	fa6,56(a6)
 27c:	0020d073          	fsrmi	zero,1
 280:	c0187553          	fcvt.wu.s	a0,fa6
 284:	001028f3          	frflags	a7
 288:	04a7a423          	sw	a0,72(a5)
 28c:	0517a623          	sw	a7,76(a5)

00000290 <inst_15>:
 290:	03c82f87          	flw	ft11,60(a6)
 294:	00205073          	fsrmi	zero,0
 298:	c01fffd3          	fcvt.wu.s	t6,ft11
 29c:	001028f3          	frflags	a7
 2a0:	05f7a823          	sw	t6,80(a5)
 2a4:	0517aa23          	sw	a7,84(a5)

000002a8 <inst_16>:
 2a8:	04082607          	flw	fa2,64(a6)
 2ac:	00225073          	fsrmi	zero,4
 2b0:	c0167353          	fcvt.wu.s	t1,fa2
 2b4:	001028f3          	frflags	a7
 2b8:	0467ac23          	sw	t1,88(a5)
 2bc:	0517ae23          	sw	a7,92(a5)

000002c0 <inst_17>:
 2c0:	04482a07          	flw	fs4,68(a6)
 2c4:	0021d073          	fsrmi	zero,3
 2c8:	c01a7f53          	fcvt.wu.s	t5,fs4
 2cc:	001028f3          	frflags	a7
 2d0:	07e7a023          	sw	t5,96(a5)
 2d4:	0717a223          	sw	a7,100(a5)

000002d8 <inst_18>:
 2d8:	04882e07          	flw	ft8,72(a6)
 2dc:	00215073          	fsrmi	zero,2
 2e0:	c01e75d3          	fcvt.wu.s	a1,ft8
 2e4:	001028f3          	frflags	a7
 2e8:	06b7a423          	sw	a1,104(a5)
 2ec:	0717a623          	sw	a7,108(a5)

000002f0 <inst_19>:
 2f0:	04c82f07          	flw	ft10,76(a6)
 2f4:	0020d073          	fsrmi	zero,1
 2f8:	c01f7053          	fcvt.wu.s	zero,ft10
 2fc:	001028f3          	frflags	a7
 300:	0607a823          	sw	zero,112(a5)
 304:	0717aa23          	sw	a7,116(a5)

00000308 <inst_20>:
 308:	05082107          	flw	ft2,80(a6)
 30c:	00205073          	fsrmi	zero,0
 310:	c01171d3          	fcvt.wu.s	gp,ft2
 314:	001028f3          	frflags	a7
 318:	0637ac23          	sw	gp,120(a5)
 31c:	0717ae23          	sw	a7,124(a5)

00000320 <inst_21>:
 320:	05482307          	flw	ft6,84(a6)
 324:	00225073          	fsrmi	zero,4
 328:	c0137a53          	fcvt.wu.s	s4,ft6
 32c:	001028f3          	frflags	a7
 330:	0947a023          	sw	s4,128(a5)
 334:	0917a223          	sw	a7,132(a5)

00000338 <inst_22>:
 338:	05882587          	flw	fa1,88(a6)
 33c:	0021d073          	fsrmi	zero,3
 340:	c015f453          	fcvt.wu.s	s0,fa1
 344:	001028f3          	frflags	a7
 348:	0887a423          	sw	s0,136(a5)
 34c:	0917a623          	sw	a7,140(a5)

00000350 <inst_23>:
 350:	05c82087          	flw	ft1,92(a6)
 354:	00215073          	fsrmi	zero,2
 358:	c010fb53          	fcvt.wu.s	s6,ft1
 35c:	001028f3          	frflags	a7
 360:	0967a823          	sw	s6,144(a5)
 364:	0917aa23          	sw	a7,148(a5)

00000368 <inst_24>:
 368:	06082487          	flw	fs1,96(a6)
 36c:	0020d073          	fsrmi	zero,1
 370:	c014f3d3          	fcvt.wu.s	t2,fs1
 374:	001028f3          	frflags	a7
 378:	0877ac23          	sw	t2,152(a5)
 37c:	0917ae23          	sw	a7,156(a5)
 380:	00080a33          	add	s4,a6,zero
 384:	00001997          	auipc	s3,0x1
 388:	ef498993          	add	s3,s3,-268 # 1278 <signature_x19_1>

0000038c <inst_25>:
 38c:	064a2007          	flw	ft0,100(s4)
 390:	00205073          	fsrmi	zero,0
 394:	c01078d3          	fcvt.wu.s	a7,ft0
 398:	00102af3          	frflags	s5
 39c:	0119a023          	sw	a7,0(s3)
 3a0:	0159a223          	sw	s5,4(s3)
 3a4:	000a0833          	add	a6,s4,zero
 3a8:	00001797          	auipc	a5,0x1
 3ac:	ed878793          	add	a5,a5,-296 # 1280 <signature_x15_3>

000003b0 <inst_26>:
 3b0:	06882987          	flw	fs3,104(a6)
 3b4:	00225073          	fsrmi	zero,4
 3b8:	c019fbd3          	fcvt.wu.s	s7,fs3
 3bc:	001028f3          	frflags	a7
 3c0:	0177a023          	sw	s7,0(a5)
 3c4:	0117a223          	sw	a7,4(a5)

000003c8 <inst_27>:
 3c8:	06c82e87          	flw	ft9,108(a6)
 3cc:	0021d073          	fsrmi	zero,3
 3d0:	c01ef9d3          	fcvt.wu.s	s3,ft9
 3d4:	001028f3          	frflags	a7
 3d8:	0137a423          	sw	s3,8(a5)
 3dc:	0117a623          	sw	a7,12(a5)

000003e0 <inst_28>:
 3e0:	07082b87          	flw	fs7,112(a6)
 3e4:	00215073          	fsrmi	zero,2
 3e8:	c01bf0d3          	fcvt.wu.s	ra,fs7
 3ec:	001028f3          	frflags	a7
 3f0:	0017a823          	sw	ra,16(a5)
 3f4:	0117aa23          	sw	a7,20(a5)

000003f8 <inst_29>:
 3f8:	07482907          	flw	fs2,116(a6)
 3fc:	0020d073          	fsrmi	zero,1
 400:	c01974d3          	fcvt.wu.s	s1,fs2
 404:	001028f3          	frflags	a7
 408:	0097ac23          	sw	s1,24(a5)
 40c:	0117ae23          	sw	a7,28(a5)

00000410 <inst_30>:
 410:	07882d87          	flw	fs11,120(a6)
 414:	00205073          	fsrmi	zero,0
 418:	c01dfed3          	fcvt.wu.s	t4,fs11
 41c:	001028f3          	frflags	a7
 420:	03d7a023          	sw	t4,32(a5)
 424:	0317a223          	sw	a7,36(a5)

00000428 <inst_31>:
 428:	07c82c07          	flw	fs8,124(a6)
 42c:	00225073          	fsrmi	zero,4
 430:	c01c72d3          	fcvt.wu.s	t0,fs8
 434:	001028f3          	frflags	a7
 438:	0257a423          	sw	t0,40(a5)
 43c:	0317a623          	sw	a7,44(a5)

00000440 <inst_32>:
 440:	08082507          	flw	fa0,128(a6)
 444:	0021d073          	fsrmi	zero,3
 448:	c01575d3          	fcvt.wu.s	a1,fa0
 44c:	001028f3          	frflags	a7
 450:	02b7a823          	sw	a1,48(a5)
 454:	0317aa23          	sw	a7,52(a5)

00000458 <inst_33>:
 458:	08482507          	flw	fa0,132(a6)
 45c:	00215073          	fsrmi	zero,2
 460:	c01575d3          	fcvt.wu.s	a1,fa0
 464:	001028f3          	frflags	a7
 468:	02b7ac23          	sw	a1,56(a5)
 46c:	0317ae23          	sw	a7,60(a5)

00000470 <inst_34>:
 470:	08882507          	flw	fa0,136(a6)
 474:	0020d073          	fsrmi	zero,1
 478:	c01575d3          	fcvt.wu.s	a1,fa0
 47c:	001028f3          	frflags	a7
 480:	04b7a023          	sw	a1,64(a5)
 484:	0517a223          	sw	a7,68(a5)

00000488 <inst_35>:
 488:	08c82507          	flw	fa0,140(a6)
 48c:	00205073          	fsrmi	zero,0
 490:	c01575d3          	fcvt.wu.s	a1,fa0
 494:	001028f3          	frflags	a7
 498:	04b7a423          	sw	a1,72(a5)
 49c:	0517a623          	sw	a7,76(a5)

000004a0 <inst_36>:
 4a0:	09082507          	flw	fa0,144(a6)
 4a4:	00225073          	fsrmi	zero,4
 4a8:	c01575d3          	fcvt.wu.s	a1,fa0
 4ac:	001028f3          	frflags	a7
 4b0:	04b7a823          	sw	a1,80(a5)
 4b4:	0517aa23          	sw	a7,84(a5)

000004b8 <inst_37>:
 4b8:	09482507          	flw	fa0,148(a6)
 4bc:	0021d073          	fsrmi	zero,3
 4c0:	c01575d3          	fcvt.wu.s	a1,fa0
 4c4:	001028f3          	frflags	a7
 4c8:	04b7ac23          	sw	a1,88(a5)
 4cc:	0517ae23          	sw	a7,92(a5)

000004d0 <inst_38>:
 4d0:	09882507          	flw	fa0,152(a6)
 4d4:	00215073          	fsrmi	zero,2
 4d8:	c01575d3          	fcvt.wu.s	a1,fa0
 4dc:	001028f3          	frflags	a7
 4e0:	06b7a023          	sw	a1,96(a5)
 4e4:	0717a223          	sw	a7,100(a5)

000004e8 <inst_39>:
 4e8:	09c82507          	flw	fa0,156(a6)
 4ec:	0020d073          	fsrmi	zero,1
 4f0:	c01575d3          	fcvt.wu.s	a1,fa0
 4f4:	001028f3          	frflags	a7
 4f8:	06b7a423          	sw	a1,104(a5)
 4fc:	0717a623          	sw	a7,108(a5)

00000500 <inst_40>:
 500:	0a082507          	flw	fa0,160(a6)
 504:	00225073          	fsrmi	zero,4
 508:	c01575d3          	fcvt.wu.s	a1,fa0
 50c:	001028f3          	frflags	a7
 510:	06b7a823          	sw	a1,112(a5)
 514:	0717aa23          	sw	a7,116(a5)

00000518 <inst_41>:
 518:	0a482507          	flw	fa0,164(a6)
 51c:	0021d073          	fsrmi	zero,3
 520:	c01575d3          	fcvt.wu.s	a1,fa0
 524:	001028f3          	frflags	a7
 528:	06b7ac23          	sw	a1,120(a5)
 52c:	0717ae23          	sw	a7,124(a5)

00000530 <inst_42>:
 530:	0a882507          	flw	fa0,168(a6)
 534:	00215073          	fsrmi	zero,2
 538:	c01575d3          	fcvt.wu.s	a1,fa0
 53c:	001028f3          	frflags	a7
 540:	08b7a023          	sw	a1,128(a5)
 544:	0917a223          	sw	a7,132(a5)

00000548 <inst_43>:
 548:	0ac82507          	flw	fa0,172(a6)
 54c:	0020d073          	fsrmi	zero,1
 550:	c01575d3          	fcvt.wu.s	a1,fa0
 554:	001028f3          	frflags	a7
 558:	08b7a423          	sw	a1,136(a5)
 55c:	0917a623          	sw	a7,140(a5)

00000560 <inst_44>:
 560:	0b082507          	flw	fa0,176(a6)
 564:	00205073          	fsrmi	zero,0
 568:	c01575d3          	fcvt.wu.s	a1,fa0
 56c:	001028f3          	frflags	a7
 570:	08b7a823          	sw	a1,144(a5)
 574:	0917aa23          	sw	a7,148(a5)

00000578 <inst_45>:
 578:	0b482507          	flw	fa0,180(a6)
 57c:	00225073          	fsrmi	zero,4
 580:	c01575d3          	fcvt.wu.s	a1,fa0
 584:	001028f3          	frflags	a7
 588:	08b7ac23          	sw	a1,152(a5)
 58c:	0917ae23          	sw	a7,156(a5)

00000590 <inst_46>:
 590:	0b882507          	flw	fa0,184(a6)
 594:	0021d073          	fsrmi	zero,3
 598:	c01575d3          	fcvt.wu.s	a1,fa0
 59c:	001028f3          	frflags	a7
 5a0:	0ab7a023          	sw	a1,160(a5)
 5a4:	0b17a223          	sw	a7,164(a5)

000005a8 <inst_47>:
 5a8:	0bc82507          	flw	fa0,188(a6)
 5ac:	00215073          	fsrmi	zero,2
 5b0:	c01575d3          	fcvt.wu.s	a1,fa0
 5b4:	001028f3          	frflags	a7
 5b8:	0ab7a423          	sw	a1,168(a5)
 5bc:	0b17a623          	sw	a7,172(a5)

000005c0 <inst_48>:
 5c0:	0c082507          	flw	fa0,192(a6)
 5c4:	0020d073          	fsrmi	zero,1
 5c8:	c01575d3          	fcvt.wu.s	a1,fa0
 5cc:	001028f3          	frflags	a7
 5d0:	0ab7a823          	sw	a1,176(a5)
 5d4:	0b17aa23          	sw	a7,180(a5)

000005d8 <inst_49>:
 5d8:	0c482507          	flw	fa0,196(a6)
 5dc:	00205073          	fsrmi	zero,0
 5e0:	c01575d3          	fcvt.wu.s	a1,fa0
 5e4:	001028f3          	frflags	a7
 5e8:	0ab7ac23          	sw	a1,184(a5)
 5ec:	0b17ae23          	sw	a7,188(a5)

000005f0 <inst_50>:
 5f0:	0c882507          	flw	fa0,200(a6)
 5f4:	00225073          	fsrmi	zero,4
 5f8:	c01575d3          	fcvt.wu.s	a1,fa0
 5fc:	001028f3          	frflags	a7
 600:	0cb7a023          	sw	a1,192(a5)
 604:	0d17a223          	sw	a7,196(a5)

00000608 <inst_51>:
 608:	0cc82507          	flw	fa0,204(a6)
 60c:	0021d073          	fsrmi	zero,3
 610:	c01575d3          	fcvt.wu.s	a1,fa0
 614:	001028f3          	frflags	a7
 618:	0cb7a423          	sw	a1,200(a5)
 61c:	0d17a623          	sw	a7,204(a5)

00000620 <inst_52>:
 620:	0d082507          	flw	fa0,208(a6)
 624:	00215073          	fsrmi	zero,2
 628:	c01575d3          	fcvt.wu.s	a1,fa0
 62c:	001028f3          	frflags	a7
 630:	0cb7a823          	sw	a1,208(a5)
 634:	0d17aa23          	sw	a7,212(a5)

00000638 <inst_53>:
 638:	0d482507          	flw	fa0,212(a6)
 63c:	0020d073          	fsrmi	zero,1
 640:	c01575d3          	fcvt.wu.s	a1,fa0
 644:	001028f3          	frflags	a7
 648:	0cb7ac23          	sw	a1,216(a5)
 64c:	0d17ae23          	sw	a7,220(a5)

00000650 <inst_54>:
 650:	0d882507          	flw	fa0,216(a6)
 654:	00205073          	fsrmi	zero,0
 658:	c01575d3          	fcvt.wu.s	a1,fa0
 65c:	001028f3          	frflags	a7
 660:	0eb7a023          	sw	a1,224(a5)
 664:	0f17a223          	sw	a7,228(a5)

00000668 <inst_55>:
 668:	0dc82507          	flw	fa0,220(a6)
 66c:	00225073          	fsrmi	zero,4
 670:	c01575d3          	fcvt.wu.s	a1,fa0
 674:	001028f3          	frflags	a7
 678:	0eb7a423          	sw	a1,232(a5)
 67c:	0f17a623          	sw	a7,236(a5)

00000680 <inst_56>:
 680:	0e082507          	flw	fa0,224(a6)
 684:	0021d073          	fsrmi	zero,3
 688:	c01575d3          	fcvt.wu.s	a1,fa0
 68c:	001028f3          	frflags	a7
 690:	0eb7a823          	sw	a1,240(a5)
 694:	0f17aa23          	sw	a7,244(a5)

00000698 <inst_57>:
 698:	0e482507          	flw	fa0,228(a6)
 69c:	00215073          	fsrmi	zero,2
 6a0:	c01575d3          	fcvt.wu.s	a1,fa0
 6a4:	001028f3          	frflags	a7
 6a8:	0eb7ac23          	sw	a1,248(a5)
 6ac:	0f17ae23          	sw	a7,252(a5)

000006b0 <inst_58>:
 6b0:	0e882507          	flw	fa0,232(a6)
 6b4:	0020d073          	fsrmi	zero,1
 6b8:	c01575d3          	fcvt.wu.s	a1,fa0
 6bc:	001028f3          	frflags	a7
 6c0:	10b7a023          	sw	a1,256(a5)
 6c4:	1117a223          	sw	a7,260(a5)

000006c8 <inst_59>:
 6c8:	0ec82507          	flw	fa0,236(a6)
 6cc:	00205073          	fsrmi	zero,0
 6d0:	c01575d3          	fcvt.wu.s	a1,fa0
 6d4:	001028f3          	frflags	a7
 6d8:	10b7a423          	sw	a1,264(a5)
 6dc:	1117a623          	sw	a7,268(a5)

000006e0 <inst_60>:
 6e0:	0f082507          	flw	fa0,240(a6)
 6e4:	00225073          	fsrmi	zero,4
 6e8:	c01575d3          	fcvt.wu.s	a1,fa0
 6ec:	001028f3          	frflags	a7
 6f0:	10b7a823          	sw	a1,272(a5)
 6f4:	1117aa23          	sw	a7,276(a5)

000006f8 <inst_61>:
 6f8:	0f482507          	flw	fa0,244(a6)
 6fc:	0021d073          	fsrmi	zero,3
 700:	c01575d3          	fcvt.wu.s	a1,fa0
 704:	001028f3          	frflags	a7
 708:	10b7ac23          	sw	a1,280(a5)
 70c:	1117ae23          	sw	a7,284(a5)

00000710 <inst_62>:
 710:	0f882507          	flw	fa0,248(a6)
 714:	00215073          	fsrmi	zero,2
 718:	c01575d3          	fcvt.wu.s	a1,fa0
 71c:	001028f3          	frflags	a7
 720:	12b7a023          	sw	a1,288(a5)
 724:	1317a223          	sw	a7,292(a5)

00000728 <inst_63>:
 728:	0fc82507          	flw	fa0,252(a6)
 72c:	0020d073          	fsrmi	zero,1
 730:	c01575d3          	fcvt.wu.s	a1,fa0
 734:	001028f3          	frflags	a7
 738:	12b7a423          	sw	a1,296(a5)
 73c:	1317a623          	sw	a7,300(a5)

00000740 <inst_64>:
 740:	10082507          	flw	fa0,256(a6)
 744:	00205073          	fsrmi	zero,0
 748:	c01575d3          	fcvt.wu.s	a1,fa0
 74c:	001028f3          	frflags	a7
 750:	12b7a823          	sw	a1,304(a5)
 754:	1317aa23          	sw	a7,308(a5)

00000758 <inst_65>:
 758:	10482507          	flw	fa0,260(a6)
 75c:	00225073          	fsrmi	zero,4
 760:	c01575d3          	fcvt.wu.s	a1,fa0
 764:	001028f3          	frflags	a7
 768:	12b7ac23          	sw	a1,312(a5)
 76c:	1317ae23          	sw	a7,316(a5)

00000770 <inst_66>:
 770:	10882507          	flw	fa0,264(a6)
 774:	0021d073          	fsrmi	zero,3
 778:	c01575d3          	fcvt.wu.s	a1,fa0
 77c:	001028f3          	frflags	a7
 780:	14b7a023          	sw	a1,320(a5)
 784:	1517a223          	sw	a7,324(a5)

00000788 <inst_67>:
 788:	10c82507          	flw	fa0,268(a6)
 78c:	00215073          	fsrmi	zero,2
 790:	c01575d3          	fcvt.wu.s	a1,fa0
 794:	001028f3          	frflags	a7
 798:	14b7a423          	sw	a1,328(a5)
 79c:	1517a623          	sw	a7,332(a5)

000007a0 <inst_68>:
 7a0:	11082507          	flw	fa0,272(a6)
 7a4:	0020d073          	fsrmi	zero,1
 7a8:	c01575d3          	fcvt.wu.s	a1,fa0
 7ac:	001028f3          	frflags	a7
 7b0:	14b7a823          	sw	a1,336(a5)
 7b4:	1517aa23          	sw	a7,340(a5)

000007b8 <inst_69>:
 7b8:	11482507          	flw	fa0,276(a6)
 7bc:	00205073          	fsrmi	zero,0
 7c0:	c01575d3          	fcvt.wu.s	a1,fa0
 7c4:	001028f3          	frflags	a7
 7c8:	14b7ac23          	sw	a1,344(a5)
 7cc:	1517ae23          	sw	a7,348(a5)

000007d0 <inst_70>:
 7d0:	11882507          	flw	fa0,280(a6)
 7d4:	00225073          	fsrmi	zero,4
 7d8:	c01575d3          	fcvt.wu.s	a1,fa0
 7dc:	001028f3          	frflags	a7
 7e0:	16b7a023          	sw	a1,352(a5)
 7e4:	1717a223          	sw	a7,356(a5)

000007e8 <inst_71>:
 7e8:	11c82507          	flw	fa0,284(a6)
 7ec:	0021d073          	fsrmi	zero,3
 7f0:	c01575d3          	fcvt.wu.s	a1,fa0
 7f4:	001028f3          	frflags	a7
 7f8:	16b7a423          	sw	a1,360(a5)
 7fc:	1717a623          	sw	a7,364(a5)

00000800 <inst_72>:
 800:	12082507          	flw	fa0,288(a6)
 804:	00215073          	fsrmi	zero,2
 808:	c01575d3          	fcvt.wu.s	a1,fa0
 80c:	001028f3          	frflags	a7
 810:	16b7a823          	sw	a1,368(a5)
 814:	1717aa23          	sw	a7,372(a5)

00000818 <inst_73>:
 818:	12482507          	flw	fa0,292(a6)
 81c:	0020d073          	fsrmi	zero,1
 820:	c01575d3          	fcvt.wu.s	a1,fa0
 824:	001028f3          	frflags	a7
 828:	16b7ac23          	sw	a1,376(a5)
 82c:	1717ae23          	sw	a7,380(a5)

00000830 <inst_74>:
 830:	12882507          	flw	fa0,296(a6)
 834:	00205073          	fsrmi	zero,0
 838:	c01575d3          	fcvt.wu.s	a1,fa0
 83c:	001028f3          	frflags	a7
 840:	18b7a023          	sw	a1,384(a5)
 844:	1917a223          	sw	a7,388(a5)

00000848 <inst_75>:
 848:	12c82507          	flw	fa0,300(a6)
 84c:	00225073          	fsrmi	zero,4
 850:	c01575d3          	fcvt.wu.s	a1,fa0
 854:	001028f3          	frflags	a7
 858:	18b7a423          	sw	a1,392(a5)
 85c:	1917a623          	sw	a7,396(a5)

00000860 <inst_76>:
 860:	13082507          	flw	fa0,304(a6)
 864:	0021d073          	fsrmi	zero,3
 868:	c01575d3          	fcvt.wu.s	a1,fa0
 86c:	001028f3          	frflags	a7
 870:	18b7a823          	sw	a1,400(a5)
 874:	1917aa23          	sw	a7,404(a5)

00000878 <inst_77>:
 878:	13482507          	flw	fa0,308(a6)
 87c:	00215073          	fsrmi	zero,2
 880:	c01575d3          	fcvt.wu.s	a1,fa0
 884:	001028f3          	frflags	a7
 888:	18b7ac23          	sw	a1,408(a5)
 88c:	1917ae23          	sw	a7,412(a5)

00000890 <inst_78>:
 890:	13882507          	flw	fa0,312(a6)
 894:	0020d073          	fsrmi	zero,1
 898:	c01575d3          	fcvt.wu.s	a1,fa0
 89c:	001028f3          	frflags	a7
 8a0:	1ab7a023          	sw	a1,416(a5)
 8a4:	1b17a223          	sw	a7,420(a5)

000008a8 <inst_79>:
 8a8:	13c82507          	flw	fa0,316(a6)
 8ac:	00205073          	fsrmi	zero,0
 8b0:	c01575d3          	fcvt.wu.s	a1,fa0
 8b4:	001028f3          	frflags	a7
 8b8:	1ab7a423          	sw	a1,424(a5)
 8bc:	1b17a623          	sw	a7,428(a5)

000008c0 <inst_80>:
 8c0:	14082507          	flw	fa0,320(a6)
 8c4:	00225073          	fsrmi	zero,4
 8c8:	c01575d3          	fcvt.wu.s	a1,fa0
 8cc:	001028f3          	frflags	a7
 8d0:	1ab7a823          	sw	a1,432(a5)
 8d4:	1b17aa23          	sw	a7,436(a5)

000008d8 <inst_81>:
 8d8:	14482507          	flw	fa0,324(a6)
 8dc:	0021d073          	fsrmi	zero,3
 8e0:	c01575d3          	fcvt.wu.s	a1,fa0
 8e4:	001028f3          	frflags	a7
 8e8:	1ab7ac23          	sw	a1,440(a5)
 8ec:	1b17ae23          	sw	a7,444(a5)

000008f0 <inst_82>:
 8f0:	14882507          	flw	fa0,328(a6)
 8f4:	00215073          	fsrmi	zero,2
 8f8:	c01575d3          	fcvt.wu.s	a1,fa0
 8fc:	001028f3          	frflags	a7
 900:	1cb7a023          	sw	a1,448(a5)
 904:	1d17a223          	sw	a7,452(a5)

00000908 <inst_83>:
 908:	14c82507          	flw	fa0,332(a6)
 90c:	0020d073          	fsrmi	zero,1
 910:	c01575d3          	fcvt.wu.s	a1,fa0
 914:	001028f3          	frflags	a7
 918:	1cb7a423          	sw	a1,456(a5)
 91c:	1d17a623          	sw	a7,460(a5)

00000920 <inst_84>:
 920:	15082507          	flw	fa0,336(a6)
 924:	00205073          	fsrmi	zero,0
 928:	c01575d3          	fcvt.wu.s	a1,fa0
 92c:	001028f3          	frflags	a7
 930:	1cb7a823          	sw	a1,464(a5)
 934:	1d17aa23          	sw	a7,468(a5)

00000938 <inst_85>:
 938:	15482507          	flw	fa0,340(a6)
 93c:	00225073          	fsrmi	zero,4
 940:	c01575d3          	fcvt.wu.s	a1,fa0
 944:	001028f3          	frflags	a7
 948:	1cb7ac23          	sw	a1,472(a5)
 94c:	1d17ae23          	sw	a7,476(a5)

00000950 <inst_86>:
 950:	15882507          	flw	fa0,344(a6)
 954:	0021d073          	fsrmi	zero,3
 958:	c01575d3          	fcvt.wu.s	a1,fa0
 95c:	001028f3          	frflags	a7
 960:	1eb7a023          	sw	a1,480(a5)
 964:	1f17a223          	sw	a7,484(a5)

00000968 <inst_87>:
 968:	15c82507          	flw	fa0,348(a6)
 96c:	00215073          	fsrmi	zero,2
 970:	c01575d3          	fcvt.wu.s	a1,fa0
 974:	001028f3          	frflags	a7
 978:	1eb7a423          	sw	a1,488(a5)
 97c:	1f17a623          	sw	a7,492(a5)

00000980 <inst_88>:
 980:	16082507          	flw	fa0,352(a6)
 984:	0020d073          	fsrmi	zero,1
 988:	c01575d3          	fcvt.wu.s	a1,fa0
 98c:	001028f3          	frflags	a7
 990:	1eb7a823          	sw	a1,496(a5)
 994:	1f17aa23          	sw	a7,500(a5)

00000998 <inst_89>:
 998:	16482507          	flw	fa0,356(a6)
 99c:	00205073          	fsrmi	zero,0
 9a0:	c01575d3          	fcvt.wu.s	a1,fa0
 9a4:	001028f3          	frflags	a7
 9a8:	1eb7ac23          	sw	a1,504(a5)
 9ac:	1f17ae23          	sw	a7,508(a5)

000009b0 <inst_90>:
 9b0:	16882507          	flw	fa0,360(a6)
 9b4:	00225073          	fsrmi	zero,4
 9b8:	c01575d3          	fcvt.wu.s	a1,fa0
 9bc:	001028f3          	frflags	a7
 9c0:	20b7a023          	sw	a1,512(a5)
 9c4:	2117a223          	sw	a7,516(a5)

000009c8 <inst_91>:
 9c8:	16c82507          	flw	fa0,364(a6)
 9cc:	0021d073          	fsrmi	zero,3
 9d0:	c01575d3          	fcvt.wu.s	a1,fa0
 9d4:	001028f3          	frflags	a7
 9d8:	20b7a423          	sw	a1,520(a5)
 9dc:	2117a623          	sw	a7,524(a5)

000009e0 <inst_92>:
 9e0:	17082507          	flw	fa0,368(a6)
 9e4:	00215073          	fsrmi	zero,2
 9e8:	c01575d3          	fcvt.wu.s	a1,fa0
 9ec:	001028f3          	frflags	a7
 9f0:	20b7a823          	sw	a1,528(a5)
 9f4:	2117aa23          	sw	a7,532(a5)

000009f8 <inst_93>:
 9f8:	17482507          	flw	fa0,372(a6)
 9fc:	0020d073          	fsrmi	zero,1
 a00:	c01575d3          	fcvt.wu.s	a1,fa0
 a04:	001028f3          	frflags	a7
 a08:	20b7ac23          	sw	a1,536(a5)
 a0c:	2117ae23          	sw	a7,540(a5)

00000a10 <inst_94>:
 a10:	17882507          	flw	fa0,376(a6)
 a14:	00205073          	fsrmi	zero,0
 a18:	c01575d3          	fcvt.wu.s	a1,fa0
 a1c:	001028f3          	frflags	a7
 a20:	22b7a023          	sw	a1,544(a5)
 a24:	2317a223          	sw	a7,548(a5)

00000a28 <inst_95>:
 a28:	17c82507          	flw	fa0,380(a6)
 a2c:	00225073          	fsrmi	zero,4
 a30:	c01575d3          	fcvt.wu.s	a1,fa0
 a34:	001028f3          	frflags	a7
 a38:	22b7a423          	sw	a1,552(a5)
 a3c:	2317a623          	sw	a7,556(a5)

00000a40 <inst_96>:
 a40:	18082507          	flw	fa0,384(a6)
 a44:	0021d073          	fsrmi	zero,3
 a48:	c01575d3          	fcvt.wu.s	a1,fa0
 a4c:	001028f3          	frflags	a7
 a50:	22b7a823          	sw	a1,560(a5)
 a54:	2317aa23          	sw	a7,564(a5)

00000a58 <inst_97>:
 a58:	18482507          	flw	fa0,388(a6)
 a5c:	00215073          	fsrmi	zero,2
 a60:	c01575d3          	fcvt.wu.s	a1,fa0
 a64:	001028f3          	frflags	a7
 a68:	22b7ac23          	sw	a1,568(a5)
 a6c:	2317ae23          	sw	a7,572(a5)

00000a70 <inst_98>:
 a70:	18882507          	flw	fa0,392(a6)
 a74:	0020d073          	fsrmi	zero,1
 a78:	c01575d3          	fcvt.wu.s	a1,fa0
 a7c:	001028f3          	frflags	a7
 a80:	24b7a023          	sw	a1,576(a5)
 a84:	2517a223          	sw	a7,580(a5)

00000a88 <inst_99>:
 a88:	18c82507          	flw	fa0,396(a6)
 a8c:	00205073          	fsrmi	zero,0
 a90:	c01575d3          	fcvt.wu.s	a1,fa0
 a94:	001028f3          	frflags	a7
 a98:	24b7a423          	sw	a1,584(a5)
 a9c:	2517a623          	sw	a7,588(a5)

00000aa0 <inst_100>:
 aa0:	19082507          	flw	fa0,400(a6)
 aa4:	00225073          	fsrmi	zero,4
 aa8:	c01575d3          	fcvt.wu.s	a1,fa0
 aac:	001028f3          	frflags	a7
 ab0:	24b7a823          	sw	a1,592(a5)
 ab4:	2517aa23          	sw	a7,596(a5)

00000ab8 <inst_101>:
 ab8:	19482507          	flw	fa0,404(a6)
 abc:	0021d073          	fsrmi	zero,3
 ac0:	c01575d3          	fcvt.wu.s	a1,fa0
 ac4:	001028f3          	frflags	a7
 ac8:	24b7ac23          	sw	a1,600(a5)
 acc:	2517ae23          	sw	a7,604(a5)

00000ad0 <inst_102>:
 ad0:	19882507          	flw	fa0,408(a6)
 ad4:	00215073          	fsrmi	zero,2
 ad8:	c01575d3          	fcvt.wu.s	a1,fa0
 adc:	001028f3          	frflags	a7
 ae0:	26b7a023          	sw	a1,608(a5)
 ae4:	2717a223          	sw	a7,612(a5)

00000ae8 <inst_103>:
 ae8:	19c82507          	flw	fa0,412(a6)
 aec:	0020d073          	fsrmi	zero,1
 af0:	c01575d3          	fcvt.wu.s	a1,fa0
 af4:	001028f3          	frflags	a7
 af8:	26b7a423          	sw	a1,616(a5)
 afc:	2717a623          	sw	a7,620(a5)

00000b00 <inst_104>:
 b00:	1a082507          	flw	fa0,416(a6)
 b04:	00205073          	fsrmi	zero,0
 b08:	c01575d3          	fcvt.wu.s	a1,fa0
 b0c:	001028f3          	frflags	a7
 b10:	26b7a823          	sw	a1,624(a5)
 b14:	2717aa23          	sw	a7,628(a5)

00000b18 <inst_105>:
 b18:	1a482507          	flw	fa0,420(a6)
 b1c:	0020d073          	fsrmi	zero,1
 b20:	c01575d3          	fcvt.wu.s	a1,fa0
 b24:	001028f3          	frflags	a7
 b28:	26b7ac23          	sw	a1,632(a5)
 b2c:	2717ae23          	sw	a7,636(a5)

00000b30 <rvtest_code_end>:
 b30:	00000517          	auipc	a0,0x0
 b34:	68050513          	add	a0,a0,1664 # 11b0 <data_begin>
 b38:	00001597          	auipc	a1,0x1
 b3c:	9c858593          	add	a1,a1,-1592 # 1500 <_end>
 b40:	80001637          	lui	a2,0x80001
 b44:	00860613          	add	a2,a2,8 # 80001008 <_end+0x7ffffb08>

00000b48 <compliance_halt_loop>:
 b48:	06b50063          	beq	a0,a1,ba8 <compliance_halt_break>
 b4c:	00450693          	add	a3,a0,4

00000b50 <compliance_halt_loop2>:
 b50:	fff68693          	add	a3,a3,-1
 b54:	00068703          	lb	a4,0(a3)
 b58:	40475793          	sra	a5,a4,0x4
 b5c:	00f7f793          	and	a5,a5,15
 b60:	00a00813          	li	a6,10
 b64:	0107c463          	blt	a5,a6,b6c <notLetter>
 b68:	02778793          	add	a5,a5,39

00000b6c <notLetter>:
 b6c:	03078793          	add	a5,a5,48
 b70:	00f60023          	sb	a5,0(a2)
 b74:	40075793          	sra	a5,a4,0x0
 b78:	00f7f793          	and	a5,a5,15
 b7c:	00a00813          	li	a6,10
 b80:	0107c463          	blt	a5,a6,b88 <notLetter2>
 b84:	02778793          	add	a5,a5,39

00000b88 <notLetter2>:
 b88:	03078793          	add	a5,a5,48
 b8c:	00f60023          	sb	a5,0(a2)
 b90:	fcd510e3          	bne	a0,a3,b50 <compliance_halt_loop2>
 b94:	00450513          	add	a0,a0,4
 b98:	00a00713          	li	a4,10
 b9c:	00e60023          	sb	a4,0(a2)
 ba0:	fa9ff06f          	j	b48 <compliance_halt_loop>
 ba4:	0040006f          	j	ba8 <compliance_halt_break>

00000ba8 <compliance_halt_break>:
 ba8:	80001537          	lui	a0,0x80001
 bac:	00950513          	add	a0,a0,9 # 80001009 <_end+0x7ffffb09>
 bb0:	00d50023          	sb	a3,0(a0)
 bb4:	0000                	.2byte	0x0
	...

Desensamblado de la sección .data:

00001000 <rvtest_data_begin>:
    1000:	cafe                	.2byte	0xcafe
    1002:	babe                	.2byte	0xbabe

00001004 <test_fp>:
    1004:	07f0                	.2byte	0x7f0
    1006:	0000                	.2byte	0x0
    1008:	6666                	.2byte	0x6666
    100a:	bf66                	.2byte	0xbf66
    100c:	6666                	.2byte	0x6666
    100e:	bf66                	.2byte	0xbf66
    1010:	6666                	.2byte	0x6666
    1012:	bf66                	.2byte	0xbf66
    1014:	6666                	.2byte	0x6666
    1016:	bf66                	.2byte	0xbf66
    1018:	6666                	.2byte	0x6666
    101a:	bf66                	.2byte	0xbf66
    101c:	47ae                	.2byte	0x47ae
    101e:	bde1                	.2byte	0xbde1
    1020:	47ae                	.2byte	0x47ae
    1022:	bde1                	.2byte	0xbde1
    1024:	47ae                	.2byte	0x47ae
    1026:	bde1                	.2byte	0xbde1
    1028:	47ae                	.2byte	0x47ae
    102a:	bde1                	.2byte	0xbde1
    102c:	47ae                	.2byte	0x47ae
    102e:	bde1                	.2byte	0xbde1
    1030:	d70a                	.2byte	0xd70a
    1032:	d70a3f63          	.4byte	0xd70a3f63
    1036:	d70a3f63          	.4byte	0xd70a3f63
    103a:	d70a3f63          	.4byte	0xd70a3f63
    103e:	d70a3f63          	.4byte	0xd70a3f63
    1042:	00003f63          	.4byte	0x3f63
    1046:	3f80                	.2byte	0x3f80
    1048:	0000                	.2byte	0x0
    104a:	3f80                	.2byte	0x3f80
    104c:	0000                	.2byte	0x0
    104e:	3f80                	.2byte	0x3f80
    1050:	0000                	.2byte	0x0
    1052:	3f80                	.2byte	0x3f80
    1054:	0000                	.2byte	0x0
    1056:	3f80                	.2byte	0x3f80
    1058:	d70a                	.2byte	0xd70a
    105a:	d70abc23          	.4byte	0xd70abc23
    105e:	d70abc23          	.4byte	0xd70abc23
    1062:	d70abc23          	.4byte	0xd70abc23
    1066:	d70abc23          	.4byte	0xd70abc23
    106a:	0000bc23          	.4byte	0xbc23
    106e:	bf80                	.2byte	0xbf80
    1070:	0000                	.2byte	0x0
    1072:	bf80                	.2byte	0xbf80
    1074:	0000                	.2byte	0x0
    1076:	bf80                	.2byte	0xbf80
    1078:	0000                	.2byte	0x0
    107a:	bf80                	.2byte	0xbf80
    107c:	0000                	.2byte	0x0
    107e:	bf80                	.2byte	0xbf80
    1080:	bf7d70a3          	.4byte	0xbf7d70a3
    1084:	bf7d70a3          	.4byte	0xbf7d70a3
    1088:	bf7d70a3          	.4byte	0xbf7d70a3
    108c:	bf7d70a3          	.4byte	0xbf7d70a3
    1090:	bf7d70a3          	.4byte	0xbf7d70a3
    1094:	07f0                	.2byte	0x7f0
    1096:	0000                	.2byte	0x0
    1098:	07f0                	.2byte	0x7f0
    109a:	0000                	.2byte	0x0
    109c:	07f0                	.2byte	0x7f0
    109e:	0000                	.2byte	0x0
    10a0:	07f0                	.2byte	0x7f0
    10a2:	0000                	.2byte	0x0
    10a4:	cccc                	.2byte	0xcccc
    10a6:	bdcc                	.2byte	0xbdcc
    10a8:	cccc                	.2byte	0xcccc
    10aa:	bdcc                	.2byte	0xbdcc
    10ac:	cccc                	.2byte	0xcccc
    10ae:	bdcc                	.2byte	0xbdcc
    10b0:	cccc                	.2byte	0xcccc
    10b2:	bdcc                	.2byte	0xbdcc
    10b4:	cccc                	.2byte	0xcccc
    10b6:	bdcc                	.2byte	0xbdcc
    10b8:	3f7d70a3          	.4byte	0x3f7d70a3
    10bc:	3f7d70a3          	.4byte	0x3f7d70a3
    10c0:	3f7d70a3          	.4byte	0x3f7d70a3
    10c4:	3f7d70a3          	.4byte	0x3f7d70a3
    10c8:	3f7d70a3          	.4byte	0x3f7d70a3
    10cc:	cccc                	.2byte	0xcccc
    10ce:	3dcc                	.2byte	0x3dcc
    10d0:	cccc                	.2byte	0xcccc
    10d2:	3dcc                	.2byte	0x3dcc
    10d4:	cccc                	.2byte	0xcccc
    10d6:	3dcc                	.2byte	0x3dcc
    10d8:	cccc                	.2byte	0xcccc
    10da:	3dcc                	.2byte	0x3dcc
    10dc:	cccc                	.2byte	0xcccc
    10de:	3dcc                	.2byte	0x3dcc
    10e0:	d70a                	.2byte	0xd70a
    10e2:	d70a3c23          	.4byte	0xd70a3c23
    10e6:	d70a3c23          	.4byte	0xd70a3c23
    10ea:	d70a3c23          	.4byte	0xd70a3c23
    10ee:	d70a3c23          	.4byte	0xd70a3c23
    10f2:	cccc3c23          	.4byte	0xcccc3c23
    10f6:	bf8c                	.2byte	0xbf8c
    10f8:	cccc                	.2byte	0xcccc
    10fa:	bf8c                	.2byte	0xbf8c
    10fc:	cccc                	.2byte	0xcccc
    10fe:	bf8c                	.2byte	0xbf8c
    1100:	cccc                	.2byte	0xcccc
    1102:	bf8c                	.2byte	0xbf8c
    1104:	cccc                	.2byte	0xcccc
    1106:	bf8c                	.2byte	0xbf8c
    1108:	147a                	.2byte	0x147a
    110a:	3f8e                	.2byte	0x3f8e
    110c:	147a                	.2byte	0x147a
    110e:	3f8e                	.2byte	0x3f8e
    1110:	147a                	.2byte	0x147a
    1112:	3f8e                	.2byte	0x3f8e
    1114:	147a                	.2byte	0x147a
    1116:	3f8e                	.2byte	0x3f8e
    1118:	147a                	.2byte	0x147a
    111a:	3f8e                	.2byte	0x3f8e
    111c:	cccc                	.2byte	0xcccc
    111e:	3f8c                	.2byte	0x3f8c
    1120:	cccc                	.2byte	0xcccc
    1122:	3f8c                	.2byte	0x3f8c
    1124:	cccc                	.2byte	0xcccc
    1126:	3f8c                	.2byte	0x3f8c
    1128:	cccc                	.2byte	0xcccc
    112a:	3f8c                	.2byte	0x3f8c
    112c:	cccc                	.2byte	0xcccc
    112e:	3f8c                	.2byte	0x3f8c
    1130:	d70a                	.2byte	0xd70a
    1132:	d70abf63          	.4byte	0xd70abf63
    1136:	d70abf63          	.4byte	0xd70abf63
    113a:	d70abf63          	.4byte	0xd70abf63
    113e:	d70abf63          	.4byte	0xd70abf63
    1142:	147abf63          	.4byte	0x147abf63
    1146:	bf8e                	.2byte	0xbf8e
    1148:	147a                	.2byte	0x147a
    114a:	bf8e                	.2byte	0xbf8e
    114c:	147a                	.2byte	0x147a
    114e:	bf8e                	.2byte	0xbf8e
    1150:	147a                	.2byte	0x147a
    1152:	bf8e                	.2byte	0xbf8e
    1154:	147a                	.2byte	0x147a
    1156:	bf8e                	.2byte	0xbf8e
    1158:	6666                	.2byte	0x6666
    115a:	3f66                	.2byte	0x3f66
    115c:	6666                	.2byte	0x6666
    115e:	3f66                	.2byte	0x3f66
    1160:	6666                	.2byte	0x6666
    1162:	3f66                	.2byte	0x3f66
    1164:	6666                	.2byte	0x6666
    1166:	3f66                	.2byte	0x3f66
    1168:	6666                	.2byte	0x6666
    116a:	3f66                	.2byte	0x3f66
    116c:	47ae                	.2byte	0x47ae
    116e:	3de1                	.2byte	0x3de1
    1170:	47ae                	.2byte	0x47ae
    1172:	3de1                	.2byte	0x3de1
    1174:	47ae                	.2byte	0x47ae
    1176:	3de1                	.2byte	0x3de1
    1178:	47ae                	.2byte	0x47ae
    117a:	3de1                	.2byte	0x3de1
    117c:	47ae                	.2byte	0x47ae
    117e:	3de1                	.2byte	0x3de1
    1180:	47ae                	.2byte	0x47ae
    1182:	3f81                	.2byte	0x3f81
    1184:	47ae                	.2byte	0x47ae
    1186:	3f81                	.2byte	0x3f81
    1188:	47ae                	.2byte	0x47ae
    118a:	3f81                	.2byte	0x3f81
    118c:	47ae                	.2byte	0x47ae
    118e:	3f81                	.2byte	0x3f81
    1190:	47ae                	.2byte	0x47ae
    1192:	3f81                	.2byte	0x3f81
    1194:	47ae                	.2byte	0x47ae
    1196:	bf81                	.2byte	0xbf81
    1198:	47ae                	.2byte	0x47ae
    119a:	bf81                	.2byte	0xbf81
    119c:	47ae                	.2byte	0x47ae
    119e:	bf81                	.2byte	0xbf81
    11a0:	47ae                	.2byte	0x47ae
    11a2:	bf81                	.2byte	0xbf81
    11a4:	47ae                	.2byte	0x47ae
    11a6:	bf81                	.2byte	0xbf81
    11a8:	0000                	.2byte	0x0
    11aa:	3f80                	.2byte	0x3f80

000011ac <rvtest_data_end>:
    11ac:	0000                	.2byte	0x0
	...

000011b0 <data_begin>:
    11b0:	deadbeef          	jal	t4,fffdc79a <_end+0xfffdb29a>
    11b4:	deadbeef          	jal	t4,fffdc79e <_end+0xfffdb29e>
    11b8:	deadbeef          	jal	t4,fffdc7a2 <_end+0xfffdb2a2>
    11bc:	deadbeef          	jal	t4,fffdc7a6 <_end+0xfffdb2a6>
    11c0:	deadbeef          	jal	t4,fffdc7aa <_end+0xfffdb2aa>
    11c4:	deadbeef          	jal	t4,fffdc7ae <_end+0xfffdb2ae>

000011c8 <signature_x19_0>:
    11c8:	deadbeef          	jal	t4,fffdc7b2 <_end+0xfffdb2b2>
    11cc:	deadbeef          	jal	t4,fffdc7b6 <_end+0xfffdb2b6>
    11d0:	deadbeef          	jal	t4,fffdc7ba <_end+0xfffdb2ba>
    11d4:	deadbeef          	jal	t4,fffdc7be <_end+0xfffdb2be>

000011d8 <signature_x15_2>:
    11d8:	deadbeef          	jal	t4,fffdc7c2 <_end+0xfffdb2c2>
    11dc:	deadbeef          	jal	t4,fffdc7c6 <_end+0xfffdb2c6>
    11e0:	deadbeef          	jal	t4,fffdc7ca <_end+0xfffdb2ca>
    11e4:	deadbeef          	jal	t4,fffdc7ce <_end+0xfffdb2ce>
    11e8:	deadbeef          	jal	t4,fffdc7d2 <_end+0xfffdb2d2>
    11ec:	deadbeef          	jal	t4,fffdc7d6 <_end+0xfffdb2d6>
    11f0:	deadbeef          	jal	t4,fffdc7da <_end+0xfffdb2da>
    11f4:	deadbeef          	jal	t4,fffdc7de <_end+0xfffdb2de>
    11f8:	deadbeef          	jal	t4,fffdc7e2 <_end+0xfffdb2e2>
    11fc:	deadbeef          	jal	t4,fffdc7e6 <_end+0xfffdb2e6>
    1200:	deadbeef          	jal	t4,fffdc7ea <_end+0xfffdb2ea>
    1204:	deadbeef          	jal	t4,fffdc7ee <_end+0xfffdb2ee>
    1208:	deadbeef          	jal	t4,fffdc7f2 <_end+0xfffdb2f2>
    120c:	deadbeef          	jal	t4,fffdc7f6 <_end+0xfffdb2f6>
    1210:	deadbeef          	jal	t4,fffdc7fa <_end+0xfffdb2fa>
    1214:	deadbeef          	jal	t4,fffdc7fe <_end+0xfffdb2fe>
    1218:	deadbeef          	jal	t4,fffdc802 <_end+0xfffdb302>
    121c:	deadbeef          	jal	t4,fffdc806 <_end+0xfffdb306>
    1220:	deadbeef          	jal	t4,fffdc80a <_end+0xfffdb30a>
    1224:	deadbeef          	jal	t4,fffdc80e <_end+0xfffdb30e>
    1228:	deadbeef          	jal	t4,fffdc812 <_end+0xfffdb312>
    122c:	deadbeef          	jal	t4,fffdc816 <_end+0xfffdb316>
    1230:	deadbeef          	jal	t4,fffdc81a <_end+0xfffdb31a>
    1234:	deadbeef          	jal	t4,fffdc81e <_end+0xfffdb31e>
    1238:	deadbeef          	jal	t4,fffdc822 <_end+0xfffdb322>
    123c:	deadbeef          	jal	t4,fffdc826 <_end+0xfffdb326>
    1240:	deadbeef          	jal	t4,fffdc82a <_end+0xfffdb32a>
    1244:	deadbeef          	jal	t4,fffdc82e <_end+0xfffdb32e>
    1248:	deadbeef          	jal	t4,fffdc832 <_end+0xfffdb332>
    124c:	deadbeef          	jal	t4,fffdc836 <_end+0xfffdb336>
    1250:	deadbeef          	jal	t4,fffdc83a <_end+0xfffdb33a>
    1254:	deadbeef          	jal	t4,fffdc83e <_end+0xfffdb33e>
    1258:	deadbeef          	jal	t4,fffdc842 <_end+0xfffdb342>
    125c:	deadbeef          	jal	t4,fffdc846 <_end+0xfffdb346>
    1260:	deadbeef          	jal	t4,fffdc84a <_end+0xfffdb34a>
    1264:	deadbeef          	jal	t4,fffdc84e <_end+0xfffdb34e>
    1268:	deadbeef          	jal	t4,fffdc852 <_end+0xfffdb352>
    126c:	deadbeef          	jal	t4,fffdc856 <_end+0xfffdb356>
    1270:	deadbeef          	jal	t4,fffdc85a <_end+0xfffdb35a>
    1274:	deadbeef          	jal	t4,fffdc85e <_end+0xfffdb35e>

00001278 <signature_x19_1>:
    1278:	deadbeef          	jal	t4,fffdc862 <_end+0xfffdb362>
    127c:	deadbeef          	jal	t4,fffdc866 <_end+0xfffdb366>

00001280 <signature_x15_3>:
    1280:	deadbeef          	jal	t4,fffdc86a <_end+0xfffdb36a>
    1284:	deadbeef          	jal	t4,fffdc86e <_end+0xfffdb36e>
    1288:	deadbeef          	jal	t4,fffdc872 <_end+0xfffdb372>
    128c:	deadbeef          	jal	t4,fffdc876 <_end+0xfffdb376>
    1290:	deadbeef          	jal	t4,fffdc87a <_end+0xfffdb37a>
    1294:	deadbeef          	jal	t4,fffdc87e <_end+0xfffdb37e>
    1298:	deadbeef          	jal	t4,fffdc882 <_end+0xfffdb382>
    129c:	deadbeef          	jal	t4,fffdc886 <_end+0xfffdb386>
    12a0:	deadbeef          	jal	t4,fffdc88a <_end+0xfffdb38a>
    12a4:	deadbeef          	jal	t4,fffdc88e <_end+0xfffdb38e>
    12a8:	deadbeef          	jal	t4,fffdc892 <_end+0xfffdb392>
    12ac:	deadbeef          	jal	t4,fffdc896 <_end+0xfffdb396>
    12b0:	deadbeef          	jal	t4,fffdc89a <_end+0xfffdb39a>
    12b4:	deadbeef          	jal	t4,fffdc89e <_end+0xfffdb39e>
    12b8:	deadbeef          	jal	t4,fffdc8a2 <_end+0xfffdb3a2>
    12bc:	deadbeef          	jal	t4,fffdc8a6 <_end+0xfffdb3a6>
    12c0:	deadbeef          	jal	t4,fffdc8aa <_end+0xfffdb3aa>
    12c4:	deadbeef          	jal	t4,fffdc8ae <_end+0xfffdb3ae>
    12c8:	deadbeef          	jal	t4,fffdc8b2 <_end+0xfffdb3b2>
    12cc:	deadbeef          	jal	t4,fffdc8b6 <_end+0xfffdb3b6>
    12d0:	deadbeef          	jal	t4,fffdc8ba <_end+0xfffdb3ba>
    12d4:	deadbeef          	jal	t4,fffdc8be <_end+0xfffdb3be>
    12d8:	deadbeef          	jal	t4,fffdc8c2 <_end+0xfffdb3c2>
    12dc:	deadbeef          	jal	t4,fffdc8c6 <_end+0xfffdb3c6>
    12e0:	deadbeef          	jal	t4,fffdc8ca <_end+0xfffdb3ca>
    12e4:	deadbeef          	jal	t4,fffdc8ce <_end+0xfffdb3ce>
    12e8:	deadbeef          	jal	t4,fffdc8d2 <_end+0xfffdb3d2>
    12ec:	deadbeef          	jal	t4,fffdc8d6 <_end+0xfffdb3d6>
    12f0:	deadbeef          	jal	t4,fffdc8da <_end+0xfffdb3da>
    12f4:	deadbeef          	jal	t4,fffdc8de <_end+0xfffdb3de>
    12f8:	deadbeef          	jal	t4,fffdc8e2 <_end+0xfffdb3e2>
    12fc:	deadbeef          	jal	t4,fffdc8e6 <_end+0xfffdb3e6>
    1300:	deadbeef          	jal	t4,fffdc8ea <_end+0xfffdb3ea>
    1304:	deadbeef          	jal	t4,fffdc8ee <_end+0xfffdb3ee>
    1308:	deadbeef          	jal	t4,fffdc8f2 <_end+0xfffdb3f2>
    130c:	deadbeef          	jal	t4,fffdc8f6 <_end+0xfffdb3f6>
    1310:	deadbeef          	jal	t4,fffdc8fa <_end+0xfffdb3fa>
    1314:	deadbeef          	jal	t4,fffdc8fe <_end+0xfffdb3fe>
    1318:	deadbeef          	jal	t4,fffdc902 <_end+0xfffdb402>
    131c:	deadbeef          	jal	t4,fffdc906 <_end+0xfffdb406>
    1320:	deadbeef          	jal	t4,fffdc90a <_end+0xfffdb40a>
    1324:	deadbeef          	jal	t4,fffdc90e <_end+0xfffdb40e>
    1328:	deadbeef          	jal	t4,fffdc912 <_end+0xfffdb412>
    132c:	deadbeef          	jal	t4,fffdc916 <_end+0xfffdb416>
    1330:	deadbeef          	jal	t4,fffdc91a <_end+0xfffdb41a>
    1334:	deadbeef          	jal	t4,fffdc91e <_end+0xfffdb41e>
    1338:	deadbeef          	jal	t4,fffdc922 <_end+0xfffdb422>
    133c:	deadbeef          	jal	t4,fffdc926 <_end+0xfffdb426>
    1340:	deadbeef          	jal	t4,fffdc92a <_end+0xfffdb42a>
    1344:	deadbeef          	jal	t4,fffdc92e <_end+0xfffdb42e>
    1348:	deadbeef          	jal	t4,fffdc932 <_end+0xfffdb432>
    134c:	deadbeef          	jal	t4,fffdc936 <_end+0xfffdb436>
    1350:	deadbeef          	jal	t4,fffdc93a <_end+0xfffdb43a>
    1354:	deadbeef          	jal	t4,fffdc93e <_end+0xfffdb43e>
    1358:	deadbeef          	jal	t4,fffdc942 <_end+0xfffdb442>
    135c:	deadbeef          	jal	t4,fffdc946 <_end+0xfffdb446>
    1360:	deadbeef          	jal	t4,fffdc94a <_end+0xfffdb44a>
    1364:	deadbeef          	jal	t4,fffdc94e <_end+0xfffdb44e>
    1368:	deadbeef          	jal	t4,fffdc952 <_end+0xfffdb452>
    136c:	deadbeef          	jal	t4,fffdc956 <_end+0xfffdb456>
    1370:	deadbeef          	jal	t4,fffdc95a <_end+0xfffdb45a>
    1374:	deadbeef          	jal	t4,fffdc95e <_end+0xfffdb45e>
    1378:	deadbeef          	jal	t4,fffdc962 <_end+0xfffdb462>
    137c:	deadbeef          	jal	t4,fffdc966 <_end+0xfffdb466>
    1380:	deadbeef          	jal	t4,fffdc96a <_end+0xfffdb46a>
    1384:	deadbeef          	jal	t4,fffdc96e <_end+0xfffdb46e>
    1388:	deadbeef          	jal	t4,fffdc972 <_end+0xfffdb472>
    138c:	deadbeef          	jal	t4,fffdc976 <_end+0xfffdb476>
    1390:	deadbeef          	jal	t4,fffdc97a <_end+0xfffdb47a>
    1394:	deadbeef          	jal	t4,fffdc97e <_end+0xfffdb47e>
    1398:	deadbeef          	jal	t4,fffdc982 <_end+0xfffdb482>
    139c:	deadbeef          	jal	t4,fffdc986 <_end+0xfffdb486>
    13a0:	deadbeef          	jal	t4,fffdc98a <_end+0xfffdb48a>
    13a4:	deadbeef          	jal	t4,fffdc98e <_end+0xfffdb48e>
    13a8:	deadbeef          	jal	t4,fffdc992 <_end+0xfffdb492>
    13ac:	deadbeef          	jal	t4,fffdc996 <_end+0xfffdb496>
    13b0:	deadbeef          	jal	t4,fffdc99a <_end+0xfffdb49a>
    13b4:	deadbeef          	jal	t4,fffdc99e <_end+0xfffdb49e>
    13b8:	deadbeef          	jal	t4,fffdc9a2 <_end+0xfffdb4a2>
    13bc:	deadbeef          	jal	t4,fffdc9a6 <_end+0xfffdb4a6>
    13c0:	deadbeef          	jal	t4,fffdc9aa <_end+0xfffdb4aa>
    13c4:	deadbeef          	jal	t4,fffdc9ae <_end+0xfffdb4ae>
    13c8:	deadbeef          	jal	t4,fffdc9b2 <_end+0xfffdb4b2>
    13cc:	deadbeef          	jal	t4,fffdc9b6 <_end+0xfffdb4b6>
    13d0:	deadbeef          	jal	t4,fffdc9ba <_end+0xfffdb4ba>
    13d4:	deadbeef          	jal	t4,fffdc9be <_end+0xfffdb4be>
    13d8:	deadbeef          	jal	t4,fffdc9c2 <_end+0xfffdb4c2>
    13dc:	deadbeef          	jal	t4,fffdc9c6 <_end+0xfffdb4c6>
    13e0:	deadbeef          	jal	t4,fffdc9ca <_end+0xfffdb4ca>
    13e4:	deadbeef          	jal	t4,fffdc9ce <_end+0xfffdb4ce>
    13e8:	deadbeef          	jal	t4,fffdc9d2 <_end+0xfffdb4d2>
    13ec:	deadbeef          	jal	t4,fffdc9d6 <_end+0xfffdb4d6>
    13f0:	deadbeef          	jal	t4,fffdc9da <_end+0xfffdb4da>
    13f4:	deadbeef          	jal	t4,fffdc9de <_end+0xfffdb4de>
    13f8:	deadbeef          	jal	t4,fffdc9e2 <_end+0xfffdb4e2>
    13fc:	deadbeef          	jal	t4,fffdc9e6 <_end+0xfffdb4e6>
    1400:	deadbeef          	jal	t4,fffdc9ea <_end+0xfffdb4ea>
    1404:	deadbeef          	jal	t4,fffdc9ee <_end+0xfffdb4ee>
    1408:	deadbeef          	jal	t4,fffdc9f2 <_end+0xfffdb4f2>
    140c:	deadbeef          	jal	t4,fffdc9f6 <_end+0xfffdb4f6>
    1410:	deadbeef          	jal	t4,fffdc9fa <_end+0xfffdb4fa>
    1414:	deadbeef          	jal	t4,fffdc9fe <_end+0xfffdb4fe>
    1418:	deadbeef          	jal	t4,fffdca02 <_end+0xfffdb502>
    141c:	deadbeef          	jal	t4,fffdca06 <_end+0xfffdb506>
    1420:	deadbeef          	jal	t4,fffdca0a <_end+0xfffdb50a>
    1424:	deadbeef          	jal	t4,fffdca0e <_end+0xfffdb50e>
    1428:	deadbeef          	jal	t4,fffdca12 <_end+0xfffdb512>
    142c:	deadbeef          	jal	t4,fffdca16 <_end+0xfffdb516>
    1430:	deadbeef          	jal	t4,fffdca1a <_end+0xfffdb51a>
    1434:	deadbeef          	jal	t4,fffdca1e <_end+0xfffdb51e>
    1438:	deadbeef          	jal	t4,fffdca22 <_end+0xfffdb522>
    143c:	deadbeef          	jal	t4,fffdca26 <_end+0xfffdb526>
    1440:	deadbeef          	jal	t4,fffdca2a <_end+0xfffdb52a>
    1444:	deadbeef          	jal	t4,fffdca2e <_end+0xfffdb52e>
    1448:	deadbeef          	jal	t4,fffdca32 <_end+0xfffdb532>
    144c:	deadbeef          	jal	t4,fffdca36 <_end+0xfffdb536>
    1450:	deadbeef          	jal	t4,fffdca3a <_end+0xfffdb53a>
    1454:	deadbeef          	jal	t4,fffdca3e <_end+0xfffdb53e>
    1458:	deadbeef          	jal	t4,fffdca42 <_end+0xfffdb542>
    145c:	deadbeef          	jal	t4,fffdca46 <_end+0xfffdb546>
    1460:	deadbeef          	jal	t4,fffdca4a <_end+0xfffdb54a>
    1464:	deadbeef          	jal	t4,fffdca4e <_end+0xfffdb54e>
    1468:	deadbeef          	jal	t4,fffdca52 <_end+0xfffdb552>
    146c:	deadbeef          	jal	t4,fffdca56 <_end+0xfffdb556>
    1470:	deadbeef          	jal	t4,fffdca5a <_end+0xfffdb55a>
    1474:	deadbeef          	jal	t4,fffdca5e <_end+0xfffdb55e>
    1478:	deadbeef          	jal	t4,fffdca62 <_end+0xfffdb562>
    147c:	deadbeef          	jal	t4,fffdca66 <_end+0xfffdb566>
    1480:	deadbeef          	jal	t4,fffdca6a <_end+0xfffdb56a>
    1484:	deadbeef          	jal	t4,fffdca6e <_end+0xfffdb56e>
    1488:	deadbeef          	jal	t4,fffdca72 <_end+0xfffdb572>
    148c:	deadbeef          	jal	t4,fffdca76 <_end+0xfffdb576>
    1490:	deadbeef          	jal	t4,fffdca7a <_end+0xfffdb57a>
    1494:	deadbeef          	jal	t4,fffdca7e <_end+0xfffdb57e>
    1498:	deadbeef          	jal	t4,fffdca82 <_end+0xfffdb582>
    149c:	deadbeef          	jal	t4,fffdca86 <_end+0xfffdb586>
    14a0:	deadbeef          	jal	t4,fffdca8a <_end+0xfffdb58a>
    14a4:	deadbeef          	jal	t4,fffdca8e <_end+0xfffdb58e>
    14a8:	deadbeef          	jal	t4,fffdca92 <_end+0xfffdb592>
    14ac:	deadbeef          	jal	t4,fffdca96 <_end+0xfffdb596>
    14b0:	deadbeef          	jal	t4,fffdca9a <_end+0xfffdb59a>
    14b4:	deadbeef          	jal	t4,fffdca9e <_end+0xfffdb59e>
    14b8:	deadbeef          	jal	t4,fffdcaa2 <_end+0xfffdb5a2>
    14bc:	deadbeef          	jal	t4,fffdcaa6 <_end+0xfffdb5a6>
    14c0:	deadbeef          	jal	t4,fffdcaaa <_end+0xfffdb5aa>
    14c4:	deadbeef          	jal	t4,fffdcaae <_end+0xfffdb5ae>
    14c8:	deadbeef          	jal	t4,fffdcab2 <_end+0xfffdb5b2>
    14cc:	deadbeef          	jal	t4,fffdcab6 <_end+0xfffdb5b6>
    14d0:	deadbeef          	jal	t4,fffdcaba <_end+0xfffdb5ba>
    14d4:	deadbeef          	jal	t4,fffdcabe <_end+0xfffdb5be>
    14d8:	deadbeef          	jal	t4,fffdcac2 <_end+0xfffdb5c2>
    14dc:	deadbeef          	jal	t4,fffdcac6 <_end+0xfffdb5c6>
    14e0:	deadbeef          	jal	t4,fffdcaca <_end+0xfffdb5ca>
    14e4:	deadbeef          	jal	t4,fffdcace <_end+0xfffdb5ce>
    14e8:	deadbeef          	jal	t4,fffdcad2 <_end+0xfffdb5d2>
    14ec:	deadbeef          	jal	t4,fffdcad6 <_end+0xfffdb5d6>
    14f0:	deadbeef          	jal	t4,fffdcada <_end+0xfffdb5da>
    14f4:	deadbeef          	jal	t4,fffdcade <_end+0xfffdb5de>
    14f8:	deadbeef          	jal	t4,fffdcae2 <_end+0xfffdb5e2>
    14fc:	deadbeef          	jal	t4,fffdcae6 <_end+0xfffdb5e6>

Desensamblado de la sección .riscv.attributes:

00000000 <.riscv.attributes>:
   0:	2241                	.2byte	0x2241
   2:	0000                	.2byte	0x0
   4:	7200                	.2byte	0x7200
   6:	7369                	.2byte	0x7369
   8:	01007663          	bgeu	zero,a6,14 <rvtest_entry_point+0x14>
   c:	0018                	.2byte	0x18
   e:	0000                	.2byte	0x0
  10:	7205                	.2byte	0x7205
  12:	3376                	.2byte	0x3376
  14:	6932                	.2byte	0x6932
  16:	7032                	.2byte	0x7032
  18:	5f30                	.2byte	0x5f30
  1a:	3266                	.2byte	0x3266
  1c:	3070                	.2byte	0x3070
  1e:	0800                	.2byte	0x800
  20:	0a01                	.2byte	0xa01
  22:	0b              	Address 0x22 is out of bounds.

