
/home/alejandro/Escritorio/test_riscv2.5/riscv-compliance/work/rv32i_m/F/fcvt.w.s_b27-01.elf:     formato del fichero elf32-littleriscv


Desensamblado de la sección .text.init:

00000000 <rvtest_entry_point>:
   0:	feedc0b7          	lui	ra,0xfeedc
   4:	ead08093          	add	ra,ra,-339 # feedbead <_end+0xfeedad1d>
   8:	ff76e137          	lui	sp,0xff76e
   c:	f5610113          	add	sp,sp,-170 # ff76df56 <_end+0xff76cdc6>
  10:	7fbb71b7          	lui	gp,0x7fbb7
  14:	fab18193          	add	gp,gp,-85 # 7fbb6fab <_end+0x7fbb5e1b>
  18:	bfddb237          	lui	tp,0xbfddb
  1c:	7d520213          	add	tp,tp,2005 # bfddb7d5 <_end+0xbfdda645>
  20:	00000297          	auipc	t0,0x0
  24:	0d828293          	add	t0,t0,216 # f8 <rvtest_code_begin>
  28:	00001317          	auipc	t1,0x1
  2c:	fd830313          	add	t1,t1,-40 # 1000 <rvtest_data_begin>
  30:	b7fbb3b7          	lui	t2,0xb7fbb
  34:	6fa38393          	add	t2,t2,1786 # b7fbb6fa <_end+0xb7fba56a>
  38:	5bfde437          	lui	s0,0x5bfde
  3c:	b7d40413          	add	s0,s0,-1155 # 5bfddb7d <_end+0x5bfdc9ed>
  40:	adfef4b7          	lui	s1,0xadfef
  44:	dbe48493          	add	s1,s1,-578 # adfeedbe <_end+0xadfedc2e>
  48:	56ff7537          	lui	a0,0x56ff7
  4c:	6df50513          	add	a0,a0,1759 # 56ff76df <_end+0x56ff654f>
  50:	ab7fc5b7          	lui	a1,0xab7fc
  54:	b6f58593          	add	a1,a1,-1169 # ab7fbb6f <_end+0xab7fa9df>
  58:	d5bfe637          	lui	a2,0xd5bfe
  5c:	db760613          	add	a2,a2,-585 # d5bfddb7 <_end+0xd5bfcc27>
  60:	eadff6b7          	lui	a3,0xeadff
  64:	edb68693          	add	a3,a3,-293 # eadfeedb <_end+0xeadfdd4b>
  68:	f56ff737          	lui	a4,0xf56ff
  6c:	76d70713          	add	a4,a4,1901 # f56ff76d <_end+0xf56fe5dd>
  70:	fab807b7          	lui	a5,0xfab80
  74:	bb678793          	add	a5,a5,-1098 # fab7fbb6 <_end+0xfab7ea26>
  78:	7d5c0837          	lui	a6,0x7d5c0
  7c:	ddb80813          	add	a6,a6,-549 # 7d5bfddb <_end+0x7d5bec4b>
  80:	beae08b7          	lui	a7,0xbeae0
  84:	eed88893          	add	a7,a7,-275 # beadfeed <_end+0xbeaded5d>
  88:	df570937          	lui	s2,0xdf570
  8c:	f7690913          	add	s2,s2,-138 # df56ff76 <_end+0xdf56ede6>
  90:	6fab89b7          	lui	s3,0x6fab8
  94:	fbb98993          	add	s3,s3,-69 # 6fab7fbb <_end+0x6fab6e2b>
  98:	b7d5ca37          	lui	s4,0xb7d5c
  9c:	fdda0a13          	add	s4,s4,-35 # b7d5bfdd <_end+0xb7d5ae4d>
  a0:	dbeaeab7          	lui	s5,0xdbeae
  a4:	feea8a93          	add	s5,s5,-18 # dbeadfee <_end+0xdbeace5e>
  a8:	6df57b37          	lui	s6,0x6df57
  ac:	ff7b0b13          	add	s6,s6,-9 # 6df56ff7 <_end+0x6df55e67>
  b0:	b6fabbb7          	lui	s7,0xb6fab
  b4:	7fbb8b93          	add	s7,s7,2043 # b6fab7fb <_end+0xb6faa66b>
  b8:	db7d6c37          	lui	s8,0xdb7d6
  bc:	bfdc0c13          	add	s8,s8,-1027 # db7d5bfd <_end+0xdb7d4a6d>
  c0:	edbebcb7          	lui	s9,0xedbeb
  c4:	dfec8c93          	add	s9,s9,-514 # edbeadfe <_end+0xedbe9c6e>
  c8:	76df5d37          	lui	s10,0x76df5
  cc:	6ffd0d13          	add	s10,s10,1791 # 76df56ff <_end+0x76df456f>
  d0:	bb6fbdb7          	lui	s11,0xbb6fb
  d4:	b7fd8d93          	add	s11,s11,-1153 # bb6fab7f <_end+0xbb6f99ef>
  d8:	ddb7de37          	lui	t3,0xddb7d
  dc:	5bfe0e13          	add	t3,t3,1471 # ddb7d5bf <_end+0xddb7c42f>
  e0:	eedbfeb7          	lui	t4,0xeedbf
  e4:	adfe8e93          	add	t4,t4,-1313 # eedbeadf <_end+0xeedbd94f>
  e8:	f76dff37          	lui	t5,0xf76df
  ec:	56ff0f13          	add	t5,t5,1391 # f76df56f <_end+0xf76de3df>
  f0:	fbb70fb7          	lui	t6,0xfbb70
  f4:	ab7f8f93          	add	t6,t6,-1353 # fbb6fab7 <_end+0xfbb6e927>

000000f8 <rvtest_code_begin>:
  f8:	00002537          	lui	a0,0x2
  fc:	30052073          	csrs	mstatus,a0
 100:	00001817          	auipc	a6,0x1
 104:	f0480813          	add	a6,a6,-252 # 1004 <test_fp>
 108:	00001797          	auipc	a5,0x1
 10c:	f8878793          	add	a5,a5,-120 # 1090 <data_begin>

00000110 <inst_0>:
 110:	00082907          	flw	fs2,0(a6)
 114:	00205073          	fsrmi	zero,0
 118:	c00972d3          	fcvt.w.s	t0,fs2
 11c:	001028f3          	frflags	a7
 120:	0057a023          	sw	t0,0(a5)
 124:	0117a223          	sw	a7,4(a5)

00000128 <inst_1>:
 128:	00482b07          	flw	fs6,4(a6)
 12c:	00205073          	fsrmi	zero,0
 130:	c00b76d3          	fcvt.w.s	a3,fs6
 134:	001028f3          	frflags	a7
 138:	00d7a423          	sw	a3,8(a5)
 13c:	0117a623          	sw	a7,12(a5)

00000140 <inst_2>:
 140:	00882c87          	flw	fs9,8(a6)
 144:	00205073          	fsrmi	zero,0
 148:	c00cfed3          	fcvt.w.s	t4,fs9
 14c:	001028f3          	frflags	a7
 150:	01d7a823          	sw	t4,16(a5)
 154:	0117aa23          	sw	a7,20(a5)

00000158 <inst_3>:
 158:	00c82d87          	flw	fs11,12(a6)
 15c:	00205073          	fsrmi	zero,0
 160:	c00df753          	fcvt.w.s	a4,fs11
 164:	001028f3          	frflags	a7
 168:	00e7ac23          	sw	a4,24(a5)
 16c:	0117ae23          	sw	a7,28(a5)

00000170 <inst_4>:
 170:	01082d07          	flw	fs10,16(a6)
 174:	00205073          	fsrmi	zero,0
 178:	c00d7553          	fcvt.w.s	a0,fs10
 17c:	001028f3          	frflags	a7
 180:	02a7a023          	sw	a0,32(a5)
 184:	0317a223          	sw	a7,36(a5)

00000188 <inst_5>:
 188:	01482287          	flw	ft5,20(a6)
 18c:	00205073          	fsrmi	zero,0
 190:	c002fe53          	fcvt.w.s	t3,ft5
 194:	001028f3          	frflags	a7
 198:	03c7a423          	sw	t3,40(a5)
 19c:	0317a623          	sw	a7,44(a5)

000001a0 <inst_6>:
 1a0:	01882407          	flw	fs0,24(a6)
 1a4:	00205073          	fsrmi	zero,0
 1a8:	c0047fd3          	fcvt.w.s	t6,fs0
 1ac:	001028f3          	frflags	a7
 1b0:	03f7a823          	sw	t6,48(a5)
 1b4:	0317aa23          	sw	a7,52(a5)

000001b8 <inst_7>:
 1b8:	01c82f87          	flw	ft11,28(a6)
 1bc:	00205073          	fsrmi	zero,0
 1c0:	c00ff0d3          	fcvt.w.s	ra,ft11
 1c4:	001028f3          	frflags	a7
 1c8:	0217ac23          	sw	ra,56(a5)
 1cc:	0317ae23          	sw	a7,60(a5)

000001d0 <inst_8>:
 1d0:	02082007          	flw	ft0,32(a6)
 1d4:	00205073          	fsrmi	zero,0
 1d8:	c00079d3          	fcvt.w.s	s3,ft0
 1dc:	001028f3          	frflags	a7
 1e0:	0537a023          	sw	s3,64(a5)
 1e4:	0517a223          	sw	a7,68(a5)

000001e8 <inst_9>:
 1e8:	02482807          	flw	fa6,36(a6)
 1ec:	00205073          	fsrmi	zero,0
 1f0:	c00874d3          	fcvt.w.s	s1,fa6
 1f4:	001028f3          	frflags	a7
 1f8:	0497a423          	sw	s1,72(a5)
 1fc:	0517a623          	sw	a7,76(a5)

00000200 <inst_10>:
 200:	02882387          	flw	ft7,40(a6)
 204:	00205073          	fsrmi	zero,0
 208:	c003fc53          	fcvt.w.s	s8,ft7
 20c:	001028f3          	frflags	a7
 210:	0587a823          	sw	s8,80(a5)
 214:	0517aa23          	sw	a7,84(a5)

00000218 <inst_11>:
 218:	02c82e87          	flw	ft9,44(a6)
 21c:	00205073          	fsrmi	zero,0
 220:	c00ef053          	fcvt.w.s	zero,ft9
 224:	001028f3          	frflags	a7
 228:	0407ac23          	sw	zero,88(a5)
 22c:	0517ae23          	sw	a7,92(a5)

00000230 <inst_12>:
 230:	03082a87          	flw	fs5,48(a6)
 234:	00205073          	fsrmi	zero,0
 238:	c00aff53          	fcvt.w.s	t5,fs5
 23c:	001028f3          	frflags	a7
 240:	07e7a023          	sw	t5,96(a5)
 244:	0717a223          	sw	a7,100(a5)

00000248 <inst_13>:
 248:	03482107          	flw	ft2,52(a6)
 24c:	00205073          	fsrmi	zero,0
 250:	c0017a53          	fcvt.w.s	s4,ft2
 254:	001028f3          	frflags	a7
 258:	0747a423          	sw	s4,104(a5)
 25c:	0717a623          	sw	a7,108(a5)

00000260 <inst_14>:
 260:	03882e07          	flw	ft8,56(a6)
 264:	00205073          	fsrmi	zero,0
 268:	c00e7353          	fcvt.w.s	t1,ft8
 26c:	001028f3          	frflags	a7
 270:	0667a823          	sw	t1,112(a5)
 274:	0717aa23          	sw	a7,116(a5)

00000278 <inst_15>:
 278:	03c82687          	flw	fa3,60(a6)
 27c:	00205073          	fsrmi	zero,0
 280:	c006fad3          	fcvt.w.s	s5,fa3
 284:	001028f3          	frflags	a7
 288:	0757ac23          	sw	s5,120(a5)
 28c:	0717ae23          	sw	a7,124(a5)

00000290 <inst_16>:
 290:	04082707          	flw	fa4,64(a6)
 294:	00205073          	fsrmi	zero,0
 298:	c0077bd3          	fcvt.w.s	s7,fa4
 29c:	001028f3          	frflags	a7
 2a0:	0977a023          	sw	s7,128(a5)
 2a4:	0917a223          	sw	a7,132(a5)
 2a8:	00080a33          	add	s4,a6,zero
 2ac:	00001997          	auipc	s3,0x1
 2b0:	e6c98993          	add	s3,s3,-404 # 1118 <signature_x19_0>

000002b4 <inst_17>:
 2b4:	044a2f07          	flw	ft10,68(s4)
 2b8:	00205073          	fsrmi	zero,0
 2bc:	c00f78d3          	fcvt.w.s	a7,ft10
 2c0:	00102af3          	frflags	s5
 2c4:	0119a023          	sw	a7,0(s3)
 2c8:	0159a223          	sw	s5,4(s3)

000002cc <inst_18>:
 2cc:	048a2887          	flw	fa7,72(s4)
 2d0:	00205073          	fsrmi	zero,0
 2d4:	c008f7d3          	fcvt.w.s	a5,fa7
 2d8:	00102af3          	frflags	s5
 2dc:	00f9a423          	sw	a5,8(s3)
 2e0:	0159a623          	sw	s5,12(s3)
 2e4:	000a0833          	add	a6,s4,zero
 2e8:	00001797          	auipc	a5,0x1
 2ec:	e4078793          	add	a5,a5,-448 # 1128 <signature_x15_2>

000002f0 <inst_19>:
 2f0:	04c82187          	flw	ft3,76(a6)
 2f4:	00205073          	fsrmi	zero,0
 2f8:	c001fcd3          	fcvt.w.s	s9,ft3
 2fc:	001028f3          	frflags	a7
 300:	0197a023          	sw	s9,0(a5)
 304:	0117a223          	sw	a7,4(a5)

00000308 <inst_20>:
 308:	05082b87          	flw	fs7,80(a6)
 30c:	00205073          	fsrmi	zero,0
 310:	c00bf153          	fcvt.w.s	sp,fs7
 314:	001028f3          	frflags	a7
 318:	0027a423          	sw	sp,8(a5)
 31c:	0117a623          	sw	a7,12(a5)

00000320 <inst_21>:
 320:	05482307          	flw	ft6,84(a6)
 324:	00205073          	fsrmi	zero,0
 328:	c0037953          	fcvt.w.s	s2,ft6
 32c:	001028f3          	frflags	a7
 330:	0127a823          	sw	s2,16(a5)
 334:	0117aa23          	sw	a7,20(a5)

00000338 <inst_22>:
 338:	05882607          	flw	fa2,88(a6)
 33c:	00205073          	fsrmi	zero,0
 340:	c0067453          	fcvt.w.s	s0,fa2
 344:	001028f3          	frflags	a7
 348:	0087ac23          	sw	s0,24(a5)
 34c:	0117ae23          	sw	a7,28(a5)

00000350 <inst_23>:
 350:	05c82487          	flw	fs1,92(a6)
 354:	00205073          	fsrmi	zero,0
 358:	c004f5d3          	fcvt.w.s	a1,fs1
 35c:	001028f3          	frflags	a7
 360:	02b7a023          	sw	a1,32(a5)
 364:	0317a223          	sw	a7,36(a5)

00000368 <inst_24>:
 368:	06082207          	flw	ft4,96(a6)
 36c:	00205073          	fsrmi	zero,0
 370:	c00273d3          	fcvt.w.s	t2,ft4
 374:	001028f3          	frflags	a7
 378:	0277a423          	sw	t2,40(a5)
 37c:	0317a623          	sw	a7,44(a5)

00000380 <inst_25>:
 380:	06482507          	flw	fa0,100(a6)
 384:	00205073          	fsrmi	zero,0
 388:	c0057dd3          	fcvt.w.s	s11,fa0
 38c:	001028f3          	frflags	a7
 390:	03b7a823          	sw	s11,48(a5)
 394:	0317aa23          	sw	a7,52(a5)

00000398 <inst_26>:
 398:	06882087          	flw	ft1,104(a6)
 39c:	00205073          	fsrmi	zero,0
 3a0:	c000f653          	fcvt.w.s	a2,ft1
 3a4:	001028f3          	frflags	a7
 3a8:	02c7ac23          	sw	a2,56(a5)
 3ac:	0317ae23          	sw	a7,60(a5)

000003b0 <inst_27>:
 3b0:	06c82987          	flw	fs3,108(a6)
 3b4:	00205073          	fsrmi	zero,0
 3b8:	c009fb53          	fcvt.w.s	s6,fs3
 3bc:	001028f3          	frflags	a7
 3c0:	0567a023          	sw	s6,64(a5)
 3c4:	0517a223          	sw	a7,68(a5)
 3c8:	00080a33          	add	s4,a6,zero
 3cc:	00001997          	auipc	s3,0x1
 3d0:	da498993          	add	s3,s3,-604 # 1170 <signature_x19_1>

000003d4 <inst_28>:
 3d4:	070a2587          	flw	fa1,112(s4)
 3d8:	00205073          	fsrmi	zero,0
 3dc:	c005f853          	fcvt.w.s	a6,fa1
 3e0:	00102af3          	frflags	s5
 3e4:	0109a023          	sw	a6,0(s3)
 3e8:	0159a223          	sw	s5,4(s3)
 3ec:	000a0833          	add	a6,s4,zero
 3f0:	00001797          	auipc	a5,0x1
 3f4:	d8878793          	add	a5,a5,-632 # 1178 <signature_x15_3>

000003f8 <inst_29>:
 3f8:	07482a07          	flw	fs4,116(a6)
 3fc:	00205073          	fsrmi	zero,0
 400:	c00a71d3          	fcvt.w.s	gp,fs4
 404:	001028f3          	frflags	a7
 408:	0037a023          	sw	gp,0(a5)
 40c:	0117a223          	sw	a7,4(a5)

00000410 <inst_30>:
 410:	07882787          	flw	fa5,120(a6)
 414:	00205073          	fsrmi	zero,0
 418:	c007f253          	fcvt.w.s	tp,fa5
 41c:	001028f3          	frflags	a7
 420:	0047a423          	sw	tp,8(a5)
 424:	0117a623          	sw	a7,12(a5)

00000428 <inst_31>:
 428:	07c82c07          	flw	fs8,124(a6)
 42c:	00205073          	fsrmi	zero,0
 430:	c00c7d53          	fcvt.w.s	s10,fs8
 434:	001028f3          	frflags	a7
 438:	01a7a823          	sw	s10,16(a5)
 43c:	0117aa23          	sw	a7,20(a5)

00000440 <rvtest_code_end>:
 440:	00001517          	auipc	a0,0x1
 444:	c5050513          	add	a0,a0,-944 # 1090 <data_begin>
 448:	00001597          	auipc	a1,0x1
 44c:	d4858593          	add	a1,a1,-696 # 1190 <_end>
 450:	80001637          	lui	a2,0x80001
 454:	00860613          	add	a2,a2,8 # 80001008 <_end+0x7ffffe78>

00000458 <compliance_halt_loop>:
 458:	06b50063          	beq	a0,a1,4b8 <compliance_halt_break>
 45c:	00450693          	add	a3,a0,4

00000460 <compliance_halt_loop2>:
 460:	fff68693          	add	a3,a3,-1
 464:	00068703          	lb	a4,0(a3)
 468:	40475793          	sra	a5,a4,0x4
 46c:	00f7f793          	and	a5,a5,15
 470:	00a00813          	li	a6,10
 474:	0107c463          	blt	a5,a6,47c <notLetter>
 478:	02778793          	add	a5,a5,39

0000047c <notLetter>:
 47c:	03078793          	add	a5,a5,48
 480:	00f60023          	sb	a5,0(a2)
 484:	40075793          	sra	a5,a4,0x0
 488:	00f7f793          	and	a5,a5,15
 48c:	00a00813          	li	a6,10
 490:	0107c463          	blt	a5,a6,498 <notLetter2>
 494:	02778793          	add	a5,a5,39

00000498 <notLetter2>:
 498:	03078793          	add	a5,a5,48
 49c:	00f60023          	sb	a5,0(a2)
 4a0:	fcd510e3          	bne	a0,a3,460 <compliance_halt_loop2>
 4a4:	00450513          	add	a0,a0,4
 4a8:	00a00713          	li	a4,10
 4ac:	00e60023          	sb	a4,0(a2)
 4b0:	fa9ff06f          	j	458 <compliance_halt_loop>
 4b4:	0040006f          	j	4b8 <compliance_halt_break>

000004b8 <compliance_halt_break>:
 4b8:	80001537          	lui	a0,0x80001
 4bc:	00950513          	add	a0,a0,9 # 80001009 <_end+0x7ffffe79>
 4c0:	00d50023          	sb	a3,0(a0)
	...

Desensamblado de la sección .data:

00001000 <rvtest_data_begin>:
    1000:	cafe                	.2byte	0xcafe
    1002:	babe                	.2byte	0xbabe

00001004 <test_fp>:
    1004:	0001                	.2byte	0x1
    1006:	7f80                	.2byte	0x7f80
    1008:	5555                	.2byte	0x5555
    100a:	ffc5                	.2byte	0xffc5
    100c:	5555                	.2byte	0x5555
    100e:	7fc5                	.2byte	0x7fc5
    1010:	0001                	.2byte	0x1
    1012:	ffc0                	.2byte	0xffc0
    1014:	0001                	.2byte	0x1
    1016:	7fc0                	.2byte	0x7fc0
    1018:	aaaa                	.2byte	0xaaaa
    101a:	ffaa                	.2byte	0xffaa
    101c:	aaaa                	.2byte	0xaaaa
    101e:	7faa                	.2byte	0x7faa
    1020:	0001                	.2byte	0x1
    1022:	ff80                	.2byte	0xff80
	...

00001084 <rvtest_data_end>:
	...

00001090 <data_begin>:
    1090:	deadbeef          	jal	t4,fffdc67a <_end+0xfffdb4ea>
    1094:	deadbeef          	jal	t4,fffdc67e <_end+0xfffdb4ee>
    1098:	deadbeef          	jal	t4,fffdc682 <_end+0xfffdb4f2>
    109c:	deadbeef          	jal	t4,fffdc686 <_end+0xfffdb4f6>
    10a0:	deadbeef          	jal	t4,fffdc68a <_end+0xfffdb4fa>
    10a4:	deadbeef          	jal	t4,fffdc68e <_end+0xfffdb4fe>
    10a8:	deadbeef          	jal	t4,fffdc692 <_end+0xfffdb502>
    10ac:	deadbeef          	jal	t4,fffdc696 <_end+0xfffdb506>
    10b0:	deadbeef          	jal	t4,fffdc69a <_end+0xfffdb50a>
    10b4:	deadbeef          	jal	t4,fffdc69e <_end+0xfffdb50e>
    10b8:	deadbeef          	jal	t4,fffdc6a2 <_end+0xfffdb512>
    10bc:	deadbeef          	jal	t4,fffdc6a6 <_end+0xfffdb516>
    10c0:	deadbeef          	jal	t4,fffdc6aa <_end+0xfffdb51a>
    10c4:	deadbeef          	jal	t4,fffdc6ae <_end+0xfffdb51e>
    10c8:	deadbeef          	jal	t4,fffdc6b2 <_end+0xfffdb522>
    10cc:	deadbeef          	jal	t4,fffdc6b6 <_end+0xfffdb526>
    10d0:	deadbeef          	jal	t4,fffdc6ba <_end+0xfffdb52a>
    10d4:	deadbeef          	jal	t4,fffdc6be <_end+0xfffdb52e>
    10d8:	deadbeef          	jal	t4,fffdc6c2 <_end+0xfffdb532>
    10dc:	deadbeef          	jal	t4,fffdc6c6 <_end+0xfffdb536>
    10e0:	deadbeef          	jal	t4,fffdc6ca <_end+0xfffdb53a>
    10e4:	deadbeef          	jal	t4,fffdc6ce <_end+0xfffdb53e>
    10e8:	deadbeef          	jal	t4,fffdc6d2 <_end+0xfffdb542>
    10ec:	deadbeef          	jal	t4,fffdc6d6 <_end+0xfffdb546>
    10f0:	deadbeef          	jal	t4,fffdc6da <_end+0xfffdb54a>
    10f4:	deadbeef          	jal	t4,fffdc6de <_end+0xfffdb54e>
    10f8:	deadbeef          	jal	t4,fffdc6e2 <_end+0xfffdb552>
    10fc:	deadbeef          	jal	t4,fffdc6e6 <_end+0xfffdb556>
    1100:	deadbeef          	jal	t4,fffdc6ea <_end+0xfffdb55a>
    1104:	deadbeef          	jal	t4,fffdc6ee <_end+0xfffdb55e>
    1108:	deadbeef          	jal	t4,fffdc6f2 <_end+0xfffdb562>
    110c:	deadbeef          	jal	t4,fffdc6f6 <_end+0xfffdb566>
    1110:	deadbeef          	jal	t4,fffdc6fa <_end+0xfffdb56a>
    1114:	deadbeef          	jal	t4,fffdc6fe <_end+0xfffdb56e>

00001118 <signature_x19_0>:
    1118:	deadbeef          	jal	t4,fffdc702 <_end+0xfffdb572>
    111c:	deadbeef          	jal	t4,fffdc706 <_end+0xfffdb576>
    1120:	deadbeef          	jal	t4,fffdc70a <_end+0xfffdb57a>
    1124:	deadbeef          	jal	t4,fffdc70e <_end+0xfffdb57e>

00001128 <signature_x15_2>:
    1128:	deadbeef          	jal	t4,fffdc712 <_end+0xfffdb582>
    112c:	deadbeef          	jal	t4,fffdc716 <_end+0xfffdb586>
    1130:	deadbeef          	jal	t4,fffdc71a <_end+0xfffdb58a>
    1134:	deadbeef          	jal	t4,fffdc71e <_end+0xfffdb58e>
    1138:	deadbeef          	jal	t4,fffdc722 <_end+0xfffdb592>
    113c:	deadbeef          	jal	t4,fffdc726 <_end+0xfffdb596>
    1140:	deadbeef          	jal	t4,fffdc72a <_end+0xfffdb59a>
    1144:	deadbeef          	jal	t4,fffdc72e <_end+0xfffdb59e>
    1148:	deadbeef          	jal	t4,fffdc732 <_end+0xfffdb5a2>
    114c:	deadbeef          	jal	t4,fffdc736 <_end+0xfffdb5a6>
    1150:	deadbeef          	jal	t4,fffdc73a <_end+0xfffdb5aa>
    1154:	deadbeef          	jal	t4,fffdc73e <_end+0xfffdb5ae>
    1158:	deadbeef          	jal	t4,fffdc742 <_end+0xfffdb5b2>
    115c:	deadbeef          	jal	t4,fffdc746 <_end+0xfffdb5b6>
    1160:	deadbeef          	jal	t4,fffdc74a <_end+0xfffdb5ba>
    1164:	deadbeef          	jal	t4,fffdc74e <_end+0xfffdb5be>
    1168:	deadbeef          	jal	t4,fffdc752 <_end+0xfffdb5c2>
    116c:	deadbeef          	jal	t4,fffdc756 <_end+0xfffdb5c6>

00001170 <signature_x19_1>:
    1170:	deadbeef          	jal	t4,fffdc75a <_end+0xfffdb5ca>
    1174:	deadbeef          	jal	t4,fffdc75e <_end+0xfffdb5ce>

00001178 <signature_x15_3>:
    1178:	deadbeef          	jal	t4,fffdc762 <_end+0xfffdb5d2>
    117c:	deadbeef          	jal	t4,fffdc766 <_end+0xfffdb5d6>
    1180:	deadbeef          	jal	t4,fffdc76a <_end+0xfffdb5da>
    1184:	deadbeef          	jal	t4,fffdc76e <_end+0xfffdb5de>
    1188:	deadbeef          	jal	t4,fffdc772 <_end+0xfffdb5e2>
    118c:	deadbeef          	jal	t4,fffdc776 <_end+0xfffdb5e6>

Desensamblado de la sección .riscv.attributes:

00000000 <.riscv.attributes>:
   0:	2241                	.2byte	0x2241
   2:	0000                	.2byte	0x0
   4:	7200                	.2byte	0x7200
   6:	7369                	.2byte	0x7369
   8:	01007663          	bgeu	zero,a6,14 <rvtest_entry_point+0x14>
   c:	0018                	.2byte	0x18
   e:	0000                	.2byte	0x0
  10:	7205                	.2byte	0x7205
  12:	3376                	.2byte	0x3376
  14:	6932                	.2byte	0x6932
  16:	7032                	.2byte	0x7032
  18:	5f30                	.2byte	0x5f30
  1a:	3266                	.2byte	0x3266
  1c:	3070                	.2byte	0x3070
  1e:	0800                	.2byte	0x800
  20:	0a01                	.2byte	0xa01
  22:	0b              	Address 0x22 is out of bounds.

