
/home/alejandro/Escritorio/test_riscv2.5/riscv-compliance/work/rv32i_m/F/fdiv_b4-01.elf:     formato del fichero elf32-littleriscv


Desensamblado de la sección .text.init:

00000000 <rvtest_entry_point>:
       0:	feedc0b7          	lui	ra,0xfeedc
       4:	ead08093          	add	ra,ra,-339 # feedbead <_end+0xfeed95bd>
       8:	ff76e137          	lui	sp,0xff76e
       c:	f5610113          	add	sp,sp,-170 # ff76df56 <_end+0xff76b666>
      10:	7fbb71b7          	lui	gp,0x7fbb7
      14:	fab18193          	add	gp,gp,-85 # 7fbb6fab <_end+0x7fbb46bb>
      18:	bfddb237          	lui	tp,0xbfddb
      1c:	7d520213          	add	tp,tp,2005 # bfddb7d5 <_end+0xbfdd8ee5>
      20:	00000297          	auipc	t0,0x0
      24:	0d828293          	add	t0,t0,216 # f8 <rvtest_code_begin>
      28:	00002317          	auipc	t1,0x2
      2c:	fd830313          	add	t1,t1,-40 # 2000 <rvtest_data_begin>
      30:	b7fbb3b7          	lui	t2,0xb7fbb
      34:	6fa38393          	add	t2,t2,1786 # b7fbb6fa <_end+0xb7fb8e0a>
      38:	5bfde437          	lui	s0,0x5bfde
      3c:	b7d40413          	add	s0,s0,-1155 # 5bfddb7d <_end+0x5bfdb28d>
      40:	adfef4b7          	lui	s1,0xadfef
      44:	dbe48493          	add	s1,s1,-578 # adfeedbe <_end+0xadfec4ce>
      48:	56ff7537          	lui	a0,0x56ff7
      4c:	6df50513          	add	a0,a0,1759 # 56ff76df <_end+0x56ff4def>
      50:	ab7fc5b7          	lui	a1,0xab7fc
      54:	b6f58593          	add	a1,a1,-1169 # ab7fbb6f <_end+0xab7f927f>
      58:	d5bfe637          	lui	a2,0xd5bfe
      5c:	db760613          	add	a2,a2,-585 # d5bfddb7 <_end+0xd5bfb4c7>
      60:	eadff6b7          	lui	a3,0xeadff
      64:	edb68693          	add	a3,a3,-293 # eadfeedb <_end+0xeadfc5eb>
      68:	f56ff737          	lui	a4,0xf56ff
      6c:	76d70713          	add	a4,a4,1901 # f56ff76d <_end+0xf56fce7d>
      70:	fab807b7          	lui	a5,0xfab80
      74:	bb678793          	add	a5,a5,-1098 # fab7fbb6 <_end+0xfab7d2c6>
      78:	7d5c0837          	lui	a6,0x7d5c0
      7c:	ddb80813          	add	a6,a6,-549 # 7d5bfddb <_end+0x7d5bd4eb>
      80:	beae08b7          	lui	a7,0xbeae0
      84:	eed88893          	add	a7,a7,-275 # beadfeed <_end+0xbeadd5fd>
      88:	df570937          	lui	s2,0xdf570
      8c:	f7690913          	add	s2,s2,-138 # df56ff76 <_end+0xdf56d686>
      90:	6fab89b7          	lui	s3,0x6fab8
      94:	fbb98993          	add	s3,s3,-69 # 6fab7fbb <_end+0x6fab56cb>
      98:	b7d5ca37          	lui	s4,0xb7d5c
      9c:	fdda0a13          	add	s4,s4,-35 # b7d5bfdd <_end+0xb7d596ed>
      a0:	dbeaeab7          	lui	s5,0xdbeae
      a4:	feea8a93          	add	s5,s5,-18 # dbeadfee <_end+0xdbeab6fe>
      a8:	6df57b37          	lui	s6,0x6df57
      ac:	ff7b0b13          	add	s6,s6,-9 # 6df56ff7 <_end+0x6df54707>
      b0:	b6fabbb7          	lui	s7,0xb6fab
      b4:	7fbb8b93          	add	s7,s7,2043 # b6fab7fb <_end+0xb6fa8f0b>
      b8:	db7d6c37          	lui	s8,0xdb7d6
      bc:	bfdc0c13          	add	s8,s8,-1027 # db7d5bfd <_end+0xdb7d330d>
      c0:	edbebcb7          	lui	s9,0xedbeb
      c4:	dfec8c93          	add	s9,s9,-514 # edbeadfe <_end+0xedbe850e>
      c8:	76df5d37          	lui	s10,0x76df5
      cc:	6ffd0d13          	add	s10,s10,1791 # 76df56ff <_end+0x76df2e0f>
      d0:	bb6fbdb7          	lui	s11,0xbb6fb
      d4:	b7fd8d93          	add	s11,s11,-1153 # bb6fab7f <_end+0xbb6f828f>
      d8:	ddb7de37          	lui	t3,0xddb7d
      dc:	5bfe0e13          	add	t3,t3,1471 # ddb7d5bf <_end+0xddb7accf>
      e0:	eedbfeb7          	lui	t4,0xeedbf
      e4:	adfe8e93          	add	t4,t4,-1313 # eedbeadf <_end+0xeedbc1ef>
      e8:	f76dff37          	lui	t5,0xf76df
      ec:	56ff0f13          	add	t5,t5,1391 # f76df56f <_end+0xf76dcc7f>
      f0:	fbb70fb7          	lui	t6,0xfbb70
      f4:	ab7f8f93          	add	t6,t6,-1353 # fbb6fab7 <_end+0xfbb6d1c7>

000000f8 <rvtest_code_begin>:
      f8:	00002537          	lui	a0,0x2
      fc:	30052073          	csrs	mstatus,a0
     100:	00002817          	auipc	a6,0x2
     104:	f0480813          	add	a6,a6,-252 # 2004 <test_fp>
     108:	00002797          	auipc	a5,0x2
     10c:	37878793          	add	a5,a5,888 # 2480 <data_begin>

00000110 <inst_0>:
     110:	00082187          	flw	ft3,0(a6)
     114:	00482a87          	flw	fs5,4(a6)
     118:	00205073          	fsrmi	zero,0
     11c:	1951f1d3          	fdiv.s	ft3,ft3,fs5
     120:	001028f3          	frflags	a7
     124:	0037a027          	fsw	ft3,0(a5)
     128:	0117a223          	sw	a7,4(a5)

0000012c <inst_1>:
     12c:	00882987          	flw	fs3,8(a6)
     130:	00c82b87          	flw	fs7,12(a6)
     134:	00225073          	fsrmi	zero,4
     138:	1979f6d3          	fdiv.s	fa3,fs3,fs7
     13c:	001028f3          	frflags	a7
     140:	00d7a427          	fsw	fa3,8(a5)
     144:	0117a623          	sw	a7,12(a5)

00000148 <inst_2>:
     148:	01082607          	flw	fa2,16(a6)
     14c:	01482607          	flw	fa2,20(a6)
     150:	0021d073          	fsrmi	zero,3
     154:	18c67653          	fdiv.s	fa2,fa2,fa2
     158:	001028f3          	frflags	a7
     15c:	00c7a827          	fsw	fa2,16(a5)
     160:	0117aa23          	sw	a7,20(a5)

00000164 <inst_3>:
     164:	01882e07          	flw	ft8,24(a6)
     168:	01c82e07          	flw	ft8,28(a6)
     16c:	00215073          	fsrmi	zero,2
     170:	19ce75d3          	fdiv.s	fa1,ft8,ft8
     174:	001028f3          	frflags	a7
     178:	00b7ac27          	fsw	fa1,24(a5)
     17c:	0117ae23          	sw	a7,28(a5)

00000180 <inst_4>:
     180:	02082207          	flw	ft4,32(a6)
     184:	02482787          	flw	fa5,36(a6)
     188:	0020d073          	fsrmi	zero,1
     18c:	18f277d3          	fdiv.s	fa5,ft4,fa5
     190:	001028f3          	frflags	a7
     194:	02f7a027          	fsw	fa5,32(a5)
     198:	0317a223          	sw	a7,36(a5)

0000019c <inst_5>:
     19c:	02882887          	flw	fa7,40(a6)
     1a0:	02c82207          	flw	ft4,44(a6)
     1a4:	00205073          	fsrmi	zero,0
     1a8:	1848f953          	fdiv.s	fs2,fa7,ft4
     1ac:	001028f3          	frflags	a7
     1b0:	0327a427          	fsw	fs2,40(a5)
     1b4:	0317a623          	sw	a7,44(a5)

000001b8 <inst_6>:
     1b8:	03082c07          	flw	fs8,48(a6)
     1bc:	03482987          	flw	fs3,52(a6)
     1c0:	00225073          	fsrmi	zero,4
     1c4:	193c7853          	fdiv.s	fa6,fs8,fs3
     1c8:	001028f3          	frflags	a7
     1cc:	0307a827          	fsw	fa6,48(a5)
     1d0:	0317aa23          	sw	a7,52(a5)

000001d4 <inst_7>:
     1d4:	03882507          	flw	fa0,56(a6)
     1d8:	03c82187          	flw	ft3,60(a6)
     1dc:	0021d073          	fsrmi	zero,3
     1e0:	18357753          	fdiv.s	fa4,fa0,ft3
     1e4:	001028f3          	frflags	a7
     1e8:	02e7ac27          	fsw	fa4,56(a5)
     1ec:	0317ae23          	sw	a7,60(a5)

000001f0 <inst_8>:
     1f0:	04082007          	flw	ft0,64(a6)
     1f4:	04482707          	flw	fa4,68(a6)
     1f8:	00215073          	fsrmi	zero,2
     1fc:	18e07553          	fdiv.s	fa0,ft0,fa4
     200:	001028f3          	frflags	a7
     204:	04a7a027          	fsw	fa0,64(a5)
     208:	0517a223          	sw	a7,68(a5)

0000020c <inst_9>:
     20c:	04882487          	flw	fs1,72(a6)
     210:	04c82c07          	flw	fs8,76(a6)
     214:	0020d073          	fsrmi	zero,1
     218:	1984f453          	fdiv.s	fs0,fs1,fs8
     21c:	001028f3          	frflags	a7
     220:	0487a427          	fsw	fs0,72(a5)
     224:	0517a623          	sw	a7,76(a5)

00000228 <inst_10>:
     228:	05082f87          	flw	ft11,80(a6)
     22c:	05482407          	flw	fs0,84(a6)
     230:	00205073          	fsrmi	zero,0
     234:	188ff153          	fdiv.s	ft2,ft11,fs0
     238:	001028f3          	frflags	a7
     23c:	0427a827          	fsw	ft2,80(a5)
     240:	0517aa23          	sw	a7,84(a5)

00000244 <inst_11>:
     244:	05882907          	flw	fs2,88(a6)
     248:	05c82d07          	flw	fs10,92(a6)
     24c:	00225073          	fsrmi	zero,4
     250:	19a97053          	fdiv.s	ft0,fs2,fs10
     254:	001028f3          	frflags	a7
     258:	0407ac27          	fsw	ft0,88(a5)
     25c:	0517ae23          	sw	a7,92(a5)

00000260 <inst_12>:
     260:	06082307          	flw	ft6,96(a6)
     264:	06482a07          	flw	fs4,100(a6)
     268:	0021d073          	fsrmi	zero,3
     26c:	194373d3          	fdiv.s	ft7,ft6,fs4
     270:	001028f3          	frflags	a7
     274:	0677a027          	fsw	ft7,96(a5)
     278:	0717a223          	sw	a7,100(a5)

0000027c <inst_13>:
     27c:	06882687          	flw	fa3,104(a6)
     280:	06c82507          	flw	fa0,108(a6)
     284:	00215073          	fsrmi	zero,2
     288:	18a6f253          	fdiv.s	ft4,fa3,fa0
     28c:	001028f3          	frflags	a7
     290:	0647a427          	fsw	ft4,104(a5)
     294:	0717a623          	sw	a7,108(a5)

00000298 <inst_14>:
     298:	07082287          	flw	ft5,112(a6)
     29c:	07482e87          	flw	ft9,116(a6)
     2a0:	0020d073          	fsrmi	zero,1
     2a4:	19d2f353          	fdiv.s	ft6,ft5,ft9
     2a8:	001028f3          	frflags	a7
     2ac:	0667a827          	fsw	ft6,112(a5)
     2b0:	0717aa23          	sw	a7,116(a5)

000002b4 <inst_15>:
     2b4:	07882787          	flw	fa5,120(a6)
     2b8:	07c82d87          	flw	fs11,124(a6)
     2bc:	00205073          	fsrmi	zero,0
     2c0:	19b7fbd3          	fdiv.s	fs7,fa5,fs11
     2c4:	001028f3          	frflags	a7
     2c8:	0777ac27          	fsw	fs7,120(a5)
     2cc:	0717ae23          	sw	a7,124(a5)

000002d0 <inst_16>:
     2d0:	08082407          	flw	fs0,128(a6)
     2d4:	08482b07          	flw	fs6,132(a6)
     2d8:	00225073          	fsrmi	zero,4
     2dc:	19647fd3          	fdiv.s	ft11,fs0,fs6
     2e0:	001028f3          	frflags	a7
     2e4:	09f7a027          	fsw	ft11,128(a5)
     2e8:	0917a223          	sw	a7,132(a5)

000002ec <inst_17>:
     2ec:	08882f07          	flw	ft10,136(a6)
     2f0:	08c82887          	flw	fa7,140(a6)
     2f4:	0021d073          	fsrmi	zero,3
     2f8:	191f7c53          	fdiv.s	fs8,ft10,fa7
     2fc:	001028f3          	frflags	a7
     300:	0987a427          	fsw	fs8,136(a5)
     304:	0917a623          	sw	a7,140(a5)

00000308 <inst_18>:
     308:	09082e87          	flw	ft9,144(a6)
     30c:	09482f87          	flw	ft11,148(a6)
     310:	00215073          	fsrmi	zero,2
     314:	19fefad3          	fdiv.s	fs5,ft9,ft11
     318:	001028f3          	frflags	a7
     31c:	0957a827          	fsw	fs5,144(a5)
     320:	0917aa23          	sw	a7,148(a5)

00000324 <inst_19>:
     324:	09882b87          	flw	fs7,152(a6)
     328:	09c82907          	flw	fs2,156(a6)
     32c:	0020d073          	fsrmi	zero,1
     330:	192bfb53          	fdiv.s	fs6,fs7,fs2
     334:	001028f3          	frflags	a7
     338:	0967ac27          	fsw	fs6,152(a5)
     33c:	0917ae23          	sw	a7,156(a5)

00000340 <inst_20>:
     340:	0a082d87          	flw	fs11,160(a6)
     344:	0a482287          	flw	ft5,164(a6)
     348:	00205073          	fsrmi	zero,0
     34c:	185df8d3          	fdiv.s	fa7,fs11,ft5
     350:	001028f3          	frflags	a7
     354:	0b17a027          	fsw	fa7,160(a5)
     358:	0b17a223          	sw	a7,164(a5)

0000035c <inst_21>:
     35c:	0a882c87          	flw	fs9,168(a6)
     360:	0ac82807          	flw	fa6,172(a6)
     364:	00225073          	fsrmi	zero,4
     368:	190cfed3          	fdiv.s	ft9,fs9,fa6
     36c:	001028f3          	frflags	a7
     370:	0bd7a427          	fsw	ft9,168(a5)
     374:	0b17a623          	sw	a7,172(a5)

00000378 <inst_22>:
     378:	0b082107          	flw	ft2,176(a6)
     37c:	0b482687          	flw	fa3,180(a6)
     380:	0021d073          	fsrmi	zero,3
     384:	18d174d3          	fdiv.s	fs1,ft2,fa3
     388:	001028f3          	frflags	a7
     38c:	0a97a827          	fsw	fs1,176(a5)
     390:	0b17aa23          	sw	a7,180(a5)

00000394 <inst_23>:
     394:	0b882387          	flw	ft7,184(a6)
     398:	0bc82087          	flw	ft1,188(a6)
     39c:	00215073          	fsrmi	zero,2
     3a0:	1813fe53          	fdiv.s	ft8,ft7,ft1
     3a4:	001028f3          	frflags	a7
     3a8:	0bc7ac27          	fsw	ft8,184(a5)
     3ac:	0b17ae23          	sw	a7,188(a5)

000003b0 <inst_24>:
     3b0:	0c082a07          	flw	fs4,192(a6)
     3b4:	0c482487          	flw	fs1,196(a6)
     3b8:	0020d073          	fsrmi	zero,1
     3bc:	189a7cd3          	fdiv.s	fs9,fs4,fs1
     3c0:	001028f3          	frflags	a7
     3c4:	0d97a027          	fsw	fs9,192(a5)
     3c8:	0d17a223          	sw	a7,196(a5)

000003cc <inst_25>:
     3cc:	0c882a87          	flw	fs5,200(a6)
     3d0:	0cc82587          	flw	fa1,204(a6)
     3d4:	00205073          	fsrmi	zero,0
     3d8:	18bafd53          	fdiv.s	fs10,fs5,fa1
     3dc:	001028f3          	frflags	a7
     3e0:	0da7a427          	fsw	fs10,200(a5)
     3e4:	0d17a623          	sw	a7,204(a5)

000003e8 <inst_26>:
     3e8:	0d082b07          	flw	fs6,208(a6)
     3ec:	0d482c87          	flw	fs9,212(a6)
     3f0:	00225073          	fsrmi	zero,4
     3f4:	199b79d3          	fdiv.s	fs3,fs6,fs9
     3f8:	001028f3          	frflags	a7
     3fc:	0d37a827          	fsw	fs3,208(a5)
     400:	0d17aa23          	sw	a7,212(a5)

00000404 <inst_27>:
     404:	0d882807          	flw	fa6,216(a6)
     408:	0dc82007          	flw	ft0,220(a6)
     40c:	0021d073          	fsrmi	zero,3
     410:	18087dd3          	fdiv.s	fs11,fa6,ft0
     414:	001028f3          	frflags	a7
     418:	0db7ac27          	fsw	fs11,216(a5)
     41c:	0d17ae23          	sw	a7,220(a5)

00000420 <inst_28>:
     420:	0e082707          	flw	fa4,224(a6)
     424:	0e482307          	flw	ft6,228(a6)
     428:	00215073          	fsrmi	zero,2
     42c:	186772d3          	fdiv.s	ft5,fa4,ft6
     430:	001028f3          	frflags	a7
     434:	0e57a027          	fsw	ft5,224(a5)
     438:	0f17a223          	sw	a7,228(a5)

0000043c <inst_29>:
     43c:	0e882d07          	flw	fs10,232(a6)
     440:	0ec82f07          	flw	ft10,236(a6)
     444:	0020d073          	fsrmi	zero,1
     448:	19ed70d3          	fdiv.s	ft1,fs10,ft10
     44c:	001028f3          	frflags	a7
     450:	0e17a427          	fsw	ft1,232(a5)
     454:	0f17a623          	sw	a7,236(a5)

00000458 <inst_30>:
     458:	0f082087          	flw	ft1,240(a6)
     45c:	0f482107          	flw	ft2,244(a6)
     460:	00205073          	fsrmi	zero,0
     464:	1820fa53          	fdiv.s	fs4,ft1,ft2
     468:	001028f3          	frflags	a7
     46c:	0f47a827          	fsw	fs4,240(a5)
     470:	0f17aa23          	sw	a7,244(a5)

00000474 <inst_31>:
     474:	0f882587          	flw	fa1,248(a6)
     478:	0fc82387          	flw	ft7,252(a6)
     47c:	00225073          	fsrmi	zero,4
     480:	1875ff53          	fdiv.s	ft10,fa1,ft7
     484:	001028f3          	frflags	a7
     488:	0fe7ac27          	fsw	ft10,248(a5)
     48c:	0f17ae23          	sw	a7,252(a5)

00000490 <inst_32>:
     490:	10082507          	flw	fa0,256(a6)
     494:	10482587          	flw	fa1,260(a6)
     498:	0021d073          	fsrmi	zero,3
     49c:	18b57653          	fdiv.s	fa2,fa0,fa1
     4a0:	001028f3          	frflags	a7
     4a4:	10c7a027          	fsw	fa2,256(a5)
     4a8:	1117a223          	sw	a7,260(a5)

000004ac <inst_33>:
     4ac:	10882507          	flw	fa0,264(a6)
     4b0:	10c82587          	flw	fa1,268(a6)
     4b4:	00215073          	fsrmi	zero,2
     4b8:	18b57653          	fdiv.s	fa2,fa0,fa1
     4bc:	001028f3          	frflags	a7
     4c0:	10c7a427          	fsw	fa2,264(a5)
     4c4:	1117a623          	sw	a7,268(a5)

000004c8 <inst_34>:
     4c8:	11082507          	flw	fa0,272(a6)
     4cc:	11482587          	flw	fa1,276(a6)
     4d0:	0020d073          	fsrmi	zero,1
     4d4:	18b57653          	fdiv.s	fa2,fa0,fa1
     4d8:	001028f3          	frflags	a7
     4dc:	10c7a827          	fsw	fa2,272(a5)
     4e0:	1117aa23          	sw	a7,276(a5)

000004e4 <inst_35>:
     4e4:	11882507          	flw	fa0,280(a6)
     4e8:	11c82587          	flw	fa1,284(a6)
     4ec:	00205073          	fsrmi	zero,0
     4f0:	18b57653          	fdiv.s	fa2,fa0,fa1
     4f4:	001028f3          	frflags	a7
     4f8:	10c7ac27          	fsw	fa2,280(a5)
     4fc:	1117ae23          	sw	a7,284(a5)

00000500 <inst_36>:
     500:	12082507          	flw	fa0,288(a6)
     504:	12482587          	flw	fa1,292(a6)
     508:	00225073          	fsrmi	zero,4
     50c:	18b57653          	fdiv.s	fa2,fa0,fa1
     510:	001028f3          	frflags	a7
     514:	12c7a027          	fsw	fa2,288(a5)
     518:	1317a223          	sw	a7,292(a5)

0000051c <inst_37>:
     51c:	12882507          	flw	fa0,296(a6)
     520:	12c82587          	flw	fa1,300(a6)
     524:	0021d073          	fsrmi	zero,3
     528:	18b57653          	fdiv.s	fa2,fa0,fa1
     52c:	001028f3          	frflags	a7
     530:	12c7a427          	fsw	fa2,296(a5)
     534:	1317a623          	sw	a7,300(a5)

00000538 <inst_38>:
     538:	13082507          	flw	fa0,304(a6)
     53c:	13482587          	flw	fa1,308(a6)
     540:	00215073          	fsrmi	zero,2
     544:	18b57653          	fdiv.s	fa2,fa0,fa1
     548:	001028f3          	frflags	a7
     54c:	12c7a827          	fsw	fa2,304(a5)
     550:	1317aa23          	sw	a7,308(a5)

00000554 <inst_39>:
     554:	13882507          	flw	fa0,312(a6)
     558:	13c82587          	flw	fa1,316(a6)
     55c:	0020d073          	fsrmi	zero,1
     560:	18b57653          	fdiv.s	fa2,fa0,fa1
     564:	001028f3          	frflags	a7
     568:	12c7ac27          	fsw	fa2,312(a5)
     56c:	1317ae23          	sw	a7,316(a5)

00000570 <inst_40>:
     570:	14082507          	flw	fa0,320(a6)
     574:	14482587          	flw	fa1,324(a6)
     578:	00205073          	fsrmi	zero,0
     57c:	18b57653          	fdiv.s	fa2,fa0,fa1
     580:	001028f3          	frflags	a7
     584:	14c7a027          	fsw	fa2,320(a5)
     588:	1517a223          	sw	a7,324(a5)

0000058c <inst_41>:
     58c:	14882507          	flw	fa0,328(a6)
     590:	14c82587          	flw	fa1,332(a6)
     594:	00225073          	fsrmi	zero,4
     598:	18b57653          	fdiv.s	fa2,fa0,fa1
     59c:	001028f3          	frflags	a7
     5a0:	14c7a427          	fsw	fa2,328(a5)
     5a4:	1517a623          	sw	a7,332(a5)

000005a8 <inst_42>:
     5a8:	15082507          	flw	fa0,336(a6)
     5ac:	15482587          	flw	fa1,340(a6)
     5b0:	0021d073          	fsrmi	zero,3
     5b4:	18b57653          	fdiv.s	fa2,fa0,fa1
     5b8:	001028f3          	frflags	a7
     5bc:	14c7a827          	fsw	fa2,336(a5)
     5c0:	1517aa23          	sw	a7,340(a5)

000005c4 <inst_43>:
     5c4:	15882507          	flw	fa0,344(a6)
     5c8:	15c82587          	flw	fa1,348(a6)
     5cc:	00215073          	fsrmi	zero,2
     5d0:	18b57653          	fdiv.s	fa2,fa0,fa1
     5d4:	001028f3          	frflags	a7
     5d8:	14c7ac27          	fsw	fa2,344(a5)
     5dc:	1517ae23          	sw	a7,348(a5)

000005e0 <inst_44>:
     5e0:	16082507          	flw	fa0,352(a6)
     5e4:	16482587          	flw	fa1,356(a6)
     5e8:	0020d073          	fsrmi	zero,1
     5ec:	18b57653          	fdiv.s	fa2,fa0,fa1
     5f0:	001028f3          	frflags	a7
     5f4:	16c7a027          	fsw	fa2,352(a5)
     5f8:	1717a223          	sw	a7,356(a5)

000005fc <inst_45>:
     5fc:	16882507          	flw	fa0,360(a6)
     600:	16c82587          	flw	fa1,364(a6)
     604:	00205073          	fsrmi	zero,0
     608:	18b57653          	fdiv.s	fa2,fa0,fa1
     60c:	001028f3          	frflags	a7
     610:	16c7a427          	fsw	fa2,360(a5)
     614:	1717a623          	sw	a7,364(a5)

00000618 <inst_46>:
     618:	17082507          	flw	fa0,368(a6)
     61c:	17482587          	flw	fa1,372(a6)
     620:	00225073          	fsrmi	zero,4
     624:	18b57653          	fdiv.s	fa2,fa0,fa1
     628:	001028f3          	frflags	a7
     62c:	16c7a827          	fsw	fa2,368(a5)
     630:	1717aa23          	sw	a7,372(a5)

00000634 <inst_47>:
     634:	17882507          	flw	fa0,376(a6)
     638:	17c82587          	flw	fa1,380(a6)
     63c:	0021d073          	fsrmi	zero,3
     640:	18b57653          	fdiv.s	fa2,fa0,fa1
     644:	001028f3          	frflags	a7
     648:	16c7ac27          	fsw	fa2,376(a5)
     64c:	1717ae23          	sw	a7,380(a5)

00000650 <inst_48>:
     650:	18082507          	flw	fa0,384(a6)
     654:	18482587          	flw	fa1,388(a6)
     658:	00215073          	fsrmi	zero,2
     65c:	18b57653          	fdiv.s	fa2,fa0,fa1
     660:	001028f3          	frflags	a7
     664:	18c7a027          	fsw	fa2,384(a5)
     668:	1917a223          	sw	a7,388(a5)

0000066c <inst_49>:
     66c:	18882507          	flw	fa0,392(a6)
     670:	18c82587          	flw	fa1,396(a6)
     674:	0020d073          	fsrmi	zero,1
     678:	18b57653          	fdiv.s	fa2,fa0,fa1
     67c:	001028f3          	frflags	a7
     680:	18c7a427          	fsw	fa2,392(a5)
     684:	1917a623          	sw	a7,396(a5)

00000688 <inst_50>:
     688:	19082507          	flw	fa0,400(a6)
     68c:	19482587          	flw	fa1,404(a6)
     690:	00205073          	fsrmi	zero,0
     694:	18b57653          	fdiv.s	fa2,fa0,fa1
     698:	001028f3          	frflags	a7
     69c:	18c7a827          	fsw	fa2,400(a5)
     6a0:	1917aa23          	sw	a7,404(a5)

000006a4 <inst_51>:
     6a4:	19882507          	flw	fa0,408(a6)
     6a8:	19c82587          	flw	fa1,412(a6)
     6ac:	00225073          	fsrmi	zero,4
     6b0:	18b57653          	fdiv.s	fa2,fa0,fa1
     6b4:	001028f3          	frflags	a7
     6b8:	18c7ac27          	fsw	fa2,408(a5)
     6bc:	1917ae23          	sw	a7,412(a5)

000006c0 <inst_52>:
     6c0:	1a082507          	flw	fa0,416(a6)
     6c4:	1a482587          	flw	fa1,420(a6)
     6c8:	0021d073          	fsrmi	zero,3
     6cc:	18b57653          	fdiv.s	fa2,fa0,fa1
     6d0:	001028f3          	frflags	a7
     6d4:	1ac7a027          	fsw	fa2,416(a5)
     6d8:	1b17a223          	sw	a7,420(a5)

000006dc <inst_53>:
     6dc:	1a882507          	flw	fa0,424(a6)
     6e0:	1ac82587          	flw	fa1,428(a6)
     6e4:	00215073          	fsrmi	zero,2
     6e8:	18b57653          	fdiv.s	fa2,fa0,fa1
     6ec:	001028f3          	frflags	a7
     6f0:	1ac7a427          	fsw	fa2,424(a5)
     6f4:	1b17a623          	sw	a7,428(a5)

000006f8 <inst_54>:
     6f8:	1b082507          	flw	fa0,432(a6)
     6fc:	1b482587          	flw	fa1,436(a6)
     700:	0020d073          	fsrmi	zero,1
     704:	18b57653          	fdiv.s	fa2,fa0,fa1
     708:	001028f3          	frflags	a7
     70c:	1ac7a827          	fsw	fa2,432(a5)
     710:	1b17aa23          	sw	a7,436(a5)

00000714 <inst_55>:
     714:	1b882507          	flw	fa0,440(a6)
     718:	1bc82587          	flw	fa1,444(a6)
     71c:	00205073          	fsrmi	zero,0
     720:	18b57653          	fdiv.s	fa2,fa0,fa1
     724:	001028f3          	frflags	a7
     728:	1ac7ac27          	fsw	fa2,440(a5)
     72c:	1b17ae23          	sw	a7,444(a5)

00000730 <inst_56>:
     730:	1c082507          	flw	fa0,448(a6)
     734:	1c482587          	flw	fa1,452(a6)
     738:	00225073          	fsrmi	zero,4
     73c:	18b57653          	fdiv.s	fa2,fa0,fa1
     740:	001028f3          	frflags	a7
     744:	1cc7a027          	fsw	fa2,448(a5)
     748:	1d17a223          	sw	a7,452(a5)

0000074c <inst_57>:
     74c:	1c882507          	flw	fa0,456(a6)
     750:	1cc82587          	flw	fa1,460(a6)
     754:	0021d073          	fsrmi	zero,3
     758:	18b57653          	fdiv.s	fa2,fa0,fa1
     75c:	001028f3          	frflags	a7
     760:	1cc7a427          	fsw	fa2,456(a5)
     764:	1d17a623          	sw	a7,460(a5)

00000768 <inst_58>:
     768:	1d082507          	flw	fa0,464(a6)
     76c:	1d482587          	flw	fa1,468(a6)
     770:	00215073          	fsrmi	zero,2
     774:	18b57653          	fdiv.s	fa2,fa0,fa1
     778:	001028f3          	frflags	a7
     77c:	1cc7a827          	fsw	fa2,464(a5)
     780:	1d17aa23          	sw	a7,468(a5)

00000784 <inst_59>:
     784:	1d882507          	flw	fa0,472(a6)
     788:	1dc82587          	flw	fa1,476(a6)
     78c:	0020d073          	fsrmi	zero,1
     790:	18b57653          	fdiv.s	fa2,fa0,fa1
     794:	001028f3          	frflags	a7
     798:	1cc7ac27          	fsw	fa2,472(a5)
     79c:	1d17ae23          	sw	a7,476(a5)

000007a0 <inst_60>:
     7a0:	1e082507          	flw	fa0,480(a6)
     7a4:	1e482587          	flw	fa1,484(a6)
     7a8:	00205073          	fsrmi	zero,0
     7ac:	18b57653          	fdiv.s	fa2,fa0,fa1
     7b0:	001028f3          	frflags	a7
     7b4:	1ec7a027          	fsw	fa2,480(a5)
     7b8:	1f17a223          	sw	a7,484(a5)

000007bc <inst_61>:
     7bc:	1e882507          	flw	fa0,488(a6)
     7c0:	1ec82587          	flw	fa1,492(a6)
     7c4:	00225073          	fsrmi	zero,4
     7c8:	18b57653          	fdiv.s	fa2,fa0,fa1
     7cc:	001028f3          	frflags	a7
     7d0:	1ec7a427          	fsw	fa2,488(a5)
     7d4:	1f17a623          	sw	a7,492(a5)

000007d8 <inst_62>:
     7d8:	1f082507          	flw	fa0,496(a6)
     7dc:	1f482587          	flw	fa1,500(a6)
     7e0:	0021d073          	fsrmi	zero,3
     7e4:	18b57653          	fdiv.s	fa2,fa0,fa1
     7e8:	001028f3          	frflags	a7
     7ec:	1ec7a827          	fsw	fa2,496(a5)
     7f0:	1f17aa23          	sw	a7,500(a5)

000007f4 <inst_63>:
     7f4:	1f882507          	flw	fa0,504(a6)
     7f8:	1fc82587          	flw	fa1,508(a6)
     7fc:	00215073          	fsrmi	zero,2
     800:	18b57653          	fdiv.s	fa2,fa0,fa1
     804:	001028f3          	frflags	a7
     808:	1ec7ac27          	fsw	fa2,504(a5)
     80c:	1f17ae23          	sw	a7,508(a5)

00000810 <inst_64>:
     810:	20082507          	flw	fa0,512(a6)
     814:	20482587          	flw	fa1,516(a6)
     818:	0020d073          	fsrmi	zero,1
     81c:	18b57653          	fdiv.s	fa2,fa0,fa1
     820:	001028f3          	frflags	a7
     824:	20c7a027          	fsw	fa2,512(a5)
     828:	2117a223          	sw	a7,516(a5)

0000082c <inst_65>:
     82c:	20882507          	flw	fa0,520(a6)
     830:	20c82587          	flw	fa1,524(a6)
     834:	00205073          	fsrmi	zero,0
     838:	18b57653          	fdiv.s	fa2,fa0,fa1
     83c:	001028f3          	frflags	a7
     840:	20c7a427          	fsw	fa2,520(a5)
     844:	2117a623          	sw	a7,524(a5)

00000848 <inst_66>:
     848:	21082507          	flw	fa0,528(a6)
     84c:	21482587          	flw	fa1,532(a6)
     850:	00225073          	fsrmi	zero,4
     854:	18b57653          	fdiv.s	fa2,fa0,fa1
     858:	001028f3          	frflags	a7
     85c:	20c7a827          	fsw	fa2,528(a5)
     860:	2117aa23          	sw	a7,532(a5)

00000864 <inst_67>:
     864:	21882507          	flw	fa0,536(a6)
     868:	21c82587          	flw	fa1,540(a6)
     86c:	0021d073          	fsrmi	zero,3
     870:	18b57653          	fdiv.s	fa2,fa0,fa1
     874:	001028f3          	frflags	a7
     878:	20c7ac27          	fsw	fa2,536(a5)
     87c:	2117ae23          	sw	a7,540(a5)

00000880 <inst_68>:
     880:	22082507          	flw	fa0,544(a6)
     884:	22482587          	flw	fa1,548(a6)
     888:	00215073          	fsrmi	zero,2
     88c:	18b57653          	fdiv.s	fa2,fa0,fa1
     890:	001028f3          	frflags	a7
     894:	22c7a027          	fsw	fa2,544(a5)
     898:	2317a223          	sw	a7,548(a5)

0000089c <inst_69>:
     89c:	22882507          	flw	fa0,552(a6)
     8a0:	22c82587          	flw	fa1,556(a6)
     8a4:	0020d073          	fsrmi	zero,1
     8a8:	18b57653          	fdiv.s	fa2,fa0,fa1
     8ac:	001028f3          	frflags	a7
     8b0:	22c7a427          	fsw	fa2,552(a5)
     8b4:	2317a623          	sw	a7,556(a5)

000008b8 <inst_70>:
     8b8:	23082507          	flw	fa0,560(a6)
     8bc:	23482587          	flw	fa1,564(a6)
     8c0:	00205073          	fsrmi	zero,0
     8c4:	18b57653          	fdiv.s	fa2,fa0,fa1
     8c8:	001028f3          	frflags	a7
     8cc:	22c7a827          	fsw	fa2,560(a5)
     8d0:	2317aa23          	sw	a7,564(a5)

000008d4 <inst_71>:
     8d4:	23882507          	flw	fa0,568(a6)
     8d8:	23c82587          	flw	fa1,572(a6)
     8dc:	00225073          	fsrmi	zero,4
     8e0:	18b57653          	fdiv.s	fa2,fa0,fa1
     8e4:	001028f3          	frflags	a7
     8e8:	22c7ac27          	fsw	fa2,568(a5)
     8ec:	2317ae23          	sw	a7,572(a5)

000008f0 <inst_72>:
     8f0:	24082507          	flw	fa0,576(a6)
     8f4:	24482587          	flw	fa1,580(a6)
     8f8:	0021d073          	fsrmi	zero,3
     8fc:	18b57653          	fdiv.s	fa2,fa0,fa1
     900:	001028f3          	frflags	a7
     904:	24c7a027          	fsw	fa2,576(a5)
     908:	2517a223          	sw	a7,580(a5)

0000090c <inst_73>:
     90c:	24882507          	flw	fa0,584(a6)
     910:	24c82587          	flw	fa1,588(a6)
     914:	00215073          	fsrmi	zero,2
     918:	18b57653          	fdiv.s	fa2,fa0,fa1
     91c:	001028f3          	frflags	a7
     920:	24c7a427          	fsw	fa2,584(a5)
     924:	2517a623          	sw	a7,588(a5)

00000928 <inst_74>:
     928:	25082507          	flw	fa0,592(a6)
     92c:	25482587          	flw	fa1,596(a6)
     930:	0020d073          	fsrmi	zero,1
     934:	18b57653          	fdiv.s	fa2,fa0,fa1
     938:	001028f3          	frflags	a7
     93c:	24c7a827          	fsw	fa2,592(a5)
     940:	2517aa23          	sw	a7,596(a5)

00000944 <inst_75>:
     944:	25882507          	flw	fa0,600(a6)
     948:	25c82587          	flw	fa1,604(a6)
     94c:	00205073          	fsrmi	zero,0
     950:	18b57653          	fdiv.s	fa2,fa0,fa1
     954:	001028f3          	frflags	a7
     958:	24c7ac27          	fsw	fa2,600(a5)
     95c:	2517ae23          	sw	a7,604(a5)

00000960 <inst_76>:
     960:	26082507          	flw	fa0,608(a6)
     964:	26482587          	flw	fa1,612(a6)
     968:	00225073          	fsrmi	zero,4
     96c:	18b57653          	fdiv.s	fa2,fa0,fa1
     970:	001028f3          	frflags	a7
     974:	26c7a027          	fsw	fa2,608(a5)
     978:	2717a223          	sw	a7,612(a5)

0000097c <inst_77>:
     97c:	26882507          	flw	fa0,616(a6)
     980:	26c82587          	flw	fa1,620(a6)
     984:	0021d073          	fsrmi	zero,3
     988:	18b57653          	fdiv.s	fa2,fa0,fa1
     98c:	001028f3          	frflags	a7
     990:	26c7a427          	fsw	fa2,616(a5)
     994:	2717a623          	sw	a7,620(a5)

00000998 <inst_78>:
     998:	27082507          	flw	fa0,624(a6)
     99c:	27482587          	flw	fa1,628(a6)
     9a0:	00215073          	fsrmi	zero,2
     9a4:	18b57653          	fdiv.s	fa2,fa0,fa1
     9a8:	001028f3          	frflags	a7
     9ac:	26c7a827          	fsw	fa2,624(a5)
     9b0:	2717aa23          	sw	a7,628(a5)

000009b4 <inst_79>:
     9b4:	27882507          	flw	fa0,632(a6)
     9b8:	27c82587          	flw	fa1,636(a6)
     9bc:	0020d073          	fsrmi	zero,1
     9c0:	18b57653          	fdiv.s	fa2,fa0,fa1
     9c4:	001028f3          	frflags	a7
     9c8:	26c7ac27          	fsw	fa2,632(a5)
     9cc:	2717ae23          	sw	a7,636(a5)

000009d0 <inst_80>:
     9d0:	28082507          	flw	fa0,640(a6)
     9d4:	28482587          	flw	fa1,644(a6)
     9d8:	00205073          	fsrmi	zero,0
     9dc:	18b57653          	fdiv.s	fa2,fa0,fa1
     9e0:	001028f3          	frflags	a7
     9e4:	28c7a027          	fsw	fa2,640(a5)
     9e8:	2917a223          	sw	a7,644(a5)

000009ec <inst_81>:
     9ec:	28882507          	flw	fa0,648(a6)
     9f0:	28c82587          	flw	fa1,652(a6)
     9f4:	00225073          	fsrmi	zero,4
     9f8:	18b57653          	fdiv.s	fa2,fa0,fa1
     9fc:	001028f3          	frflags	a7
     a00:	28c7a427          	fsw	fa2,648(a5)
     a04:	2917a623          	sw	a7,652(a5)

00000a08 <inst_82>:
     a08:	29082507          	flw	fa0,656(a6)
     a0c:	29482587          	flw	fa1,660(a6)
     a10:	0021d073          	fsrmi	zero,3
     a14:	18b57653          	fdiv.s	fa2,fa0,fa1
     a18:	001028f3          	frflags	a7
     a1c:	28c7a827          	fsw	fa2,656(a5)
     a20:	2917aa23          	sw	a7,660(a5)

00000a24 <inst_83>:
     a24:	29882507          	flw	fa0,664(a6)
     a28:	29c82587          	flw	fa1,668(a6)
     a2c:	00215073          	fsrmi	zero,2
     a30:	18b57653          	fdiv.s	fa2,fa0,fa1
     a34:	001028f3          	frflags	a7
     a38:	28c7ac27          	fsw	fa2,664(a5)
     a3c:	2917ae23          	sw	a7,668(a5)

00000a40 <inst_84>:
     a40:	2a082507          	flw	fa0,672(a6)
     a44:	2a482587          	flw	fa1,676(a6)
     a48:	0020d073          	fsrmi	zero,1
     a4c:	18b57653          	fdiv.s	fa2,fa0,fa1
     a50:	001028f3          	frflags	a7
     a54:	2ac7a027          	fsw	fa2,672(a5)
     a58:	2b17a223          	sw	a7,676(a5)

00000a5c <inst_85>:
     a5c:	2a882507          	flw	fa0,680(a6)
     a60:	2ac82587          	flw	fa1,684(a6)
     a64:	00205073          	fsrmi	zero,0
     a68:	18b57653          	fdiv.s	fa2,fa0,fa1
     a6c:	001028f3          	frflags	a7
     a70:	2ac7a427          	fsw	fa2,680(a5)
     a74:	2b17a623          	sw	a7,684(a5)

00000a78 <inst_86>:
     a78:	2b082507          	flw	fa0,688(a6)
     a7c:	2b482587          	flw	fa1,692(a6)
     a80:	00225073          	fsrmi	zero,4
     a84:	18b57653          	fdiv.s	fa2,fa0,fa1
     a88:	001028f3          	frflags	a7
     a8c:	2ac7a827          	fsw	fa2,688(a5)
     a90:	2b17aa23          	sw	a7,692(a5)

00000a94 <inst_87>:
     a94:	2b882507          	flw	fa0,696(a6)
     a98:	2bc82587          	flw	fa1,700(a6)
     a9c:	0021d073          	fsrmi	zero,3
     aa0:	18b57653          	fdiv.s	fa2,fa0,fa1
     aa4:	001028f3          	frflags	a7
     aa8:	2ac7ac27          	fsw	fa2,696(a5)
     aac:	2b17ae23          	sw	a7,700(a5)

00000ab0 <inst_88>:
     ab0:	2c082507          	flw	fa0,704(a6)
     ab4:	2c482587          	flw	fa1,708(a6)
     ab8:	00215073          	fsrmi	zero,2
     abc:	18b57653          	fdiv.s	fa2,fa0,fa1
     ac0:	001028f3          	frflags	a7
     ac4:	2cc7a027          	fsw	fa2,704(a5)
     ac8:	2d17a223          	sw	a7,708(a5)

00000acc <inst_89>:
     acc:	2c882507          	flw	fa0,712(a6)
     ad0:	2cc82587          	flw	fa1,716(a6)
     ad4:	0020d073          	fsrmi	zero,1
     ad8:	18b57653          	fdiv.s	fa2,fa0,fa1
     adc:	001028f3          	frflags	a7
     ae0:	2cc7a427          	fsw	fa2,712(a5)
     ae4:	2d17a623          	sw	a7,716(a5)

00000ae8 <inst_90>:
     ae8:	2d082507          	flw	fa0,720(a6)
     aec:	2d482587          	flw	fa1,724(a6)
     af0:	00205073          	fsrmi	zero,0
     af4:	18b57653          	fdiv.s	fa2,fa0,fa1
     af8:	001028f3          	frflags	a7
     afc:	2cc7a827          	fsw	fa2,720(a5)
     b00:	2d17aa23          	sw	a7,724(a5)

00000b04 <inst_91>:
     b04:	2d882507          	flw	fa0,728(a6)
     b08:	2dc82587          	flw	fa1,732(a6)
     b0c:	00225073          	fsrmi	zero,4
     b10:	18b57653          	fdiv.s	fa2,fa0,fa1
     b14:	001028f3          	frflags	a7
     b18:	2cc7ac27          	fsw	fa2,728(a5)
     b1c:	2d17ae23          	sw	a7,732(a5)

00000b20 <inst_92>:
     b20:	2e082507          	flw	fa0,736(a6)
     b24:	2e482587          	flw	fa1,740(a6)
     b28:	0021d073          	fsrmi	zero,3
     b2c:	18b57653          	fdiv.s	fa2,fa0,fa1
     b30:	001028f3          	frflags	a7
     b34:	2ec7a027          	fsw	fa2,736(a5)
     b38:	2f17a223          	sw	a7,740(a5)

00000b3c <inst_93>:
     b3c:	2e882507          	flw	fa0,744(a6)
     b40:	2ec82587          	flw	fa1,748(a6)
     b44:	00215073          	fsrmi	zero,2
     b48:	18b57653          	fdiv.s	fa2,fa0,fa1
     b4c:	001028f3          	frflags	a7
     b50:	2ec7a427          	fsw	fa2,744(a5)
     b54:	2f17a623          	sw	a7,748(a5)

00000b58 <inst_94>:
     b58:	2f082507          	flw	fa0,752(a6)
     b5c:	2f482587          	flw	fa1,756(a6)
     b60:	0020d073          	fsrmi	zero,1
     b64:	18b57653          	fdiv.s	fa2,fa0,fa1
     b68:	001028f3          	frflags	a7
     b6c:	2ec7a827          	fsw	fa2,752(a5)
     b70:	2f17aa23          	sw	a7,756(a5)

00000b74 <inst_95>:
     b74:	2f882507          	flw	fa0,760(a6)
     b78:	2fc82587          	flw	fa1,764(a6)
     b7c:	00205073          	fsrmi	zero,0
     b80:	18b57653          	fdiv.s	fa2,fa0,fa1
     b84:	001028f3          	frflags	a7
     b88:	2ec7ac27          	fsw	fa2,760(a5)
     b8c:	2f17ae23          	sw	a7,764(a5)

00000b90 <inst_96>:
     b90:	30082507          	flw	fa0,768(a6)
     b94:	30482587          	flw	fa1,772(a6)
     b98:	00225073          	fsrmi	zero,4
     b9c:	18b57653          	fdiv.s	fa2,fa0,fa1
     ba0:	001028f3          	frflags	a7
     ba4:	30c7a027          	fsw	fa2,768(a5)
     ba8:	3117a223          	sw	a7,772(a5)

00000bac <inst_97>:
     bac:	30882507          	flw	fa0,776(a6)
     bb0:	30c82587          	flw	fa1,780(a6)
     bb4:	0021d073          	fsrmi	zero,3
     bb8:	18b57653          	fdiv.s	fa2,fa0,fa1
     bbc:	001028f3          	frflags	a7
     bc0:	30c7a427          	fsw	fa2,776(a5)
     bc4:	3117a623          	sw	a7,780(a5)

00000bc8 <inst_98>:
     bc8:	31082507          	flw	fa0,784(a6)
     bcc:	31482587          	flw	fa1,788(a6)
     bd0:	00215073          	fsrmi	zero,2
     bd4:	18b57653          	fdiv.s	fa2,fa0,fa1
     bd8:	001028f3          	frflags	a7
     bdc:	30c7a827          	fsw	fa2,784(a5)
     be0:	3117aa23          	sw	a7,788(a5)

00000be4 <inst_99>:
     be4:	31882507          	flw	fa0,792(a6)
     be8:	31c82587          	flw	fa1,796(a6)
     bec:	0020d073          	fsrmi	zero,1
     bf0:	18b57653          	fdiv.s	fa2,fa0,fa1
     bf4:	001028f3          	frflags	a7
     bf8:	30c7ac27          	fsw	fa2,792(a5)
     bfc:	3117ae23          	sw	a7,796(a5)

00000c00 <inst_100>:
     c00:	32082507          	flw	fa0,800(a6)
     c04:	32482587          	flw	fa1,804(a6)
     c08:	00205073          	fsrmi	zero,0
     c0c:	18b57653          	fdiv.s	fa2,fa0,fa1
     c10:	001028f3          	frflags	a7
     c14:	32c7a027          	fsw	fa2,800(a5)
     c18:	3317a223          	sw	a7,804(a5)

00000c1c <inst_101>:
     c1c:	32882507          	flw	fa0,808(a6)
     c20:	32c82587          	flw	fa1,812(a6)
     c24:	00225073          	fsrmi	zero,4
     c28:	18b57653          	fdiv.s	fa2,fa0,fa1
     c2c:	001028f3          	frflags	a7
     c30:	32c7a427          	fsw	fa2,808(a5)
     c34:	3317a623          	sw	a7,812(a5)

00000c38 <inst_102>:
     c38:	33082507          	flw	fa0,816(a6)
     c3c:	33482587          	flw	fa1,820(a6)
     c40:	0021d073          	fsrmi	zero,3
     c44:	18b57653          	fdiv.s	fa2,fa0,fa1
     c48:	001028f3          	frflags	a7
     c4c:	32c7a827          	fsw	fa2,816(a5)
     c50:	3317aa23          	sw	a7,820(a5)

00000c54 <inst_103>:
     c54:	33882507          	flw	fa0,824(a6)
     c58:	33c82587          	flw	fa1,828(a6)
     c5c:	00215073          	fsrmi	zero,2
     c60:	18b57653          	fdiv.s	fa2,fa0,fa1
     c64:	001028f3          	frflags	a7
     c68:	32c7ac27          	fsw	fa2,824(a5)
     c6c:	3317ae23          	sw	a7,828(a5)

00000c70 <inst_104>:
     c70:	34082507          	flw	fa0,832(a6)
     c74:	34482587          	flw	fa1,836(a6)
     c78:	0020d073          	fsrmi	zero,1
     c7c:	18b57653          	fdiv.s	fa2,fa0,fa1
     c80:	001028f3          	frflags	a7
     c84:	34c7a027          	fsw	fa2,832(a5)
     c88:	3517a223          	sw	a7,836(a5)

00000c8c <inst_105>:
     c8c:	34882507          	flw	fa0,840(a6)
     c90:	34c82587          	flw	fa1,844(a6)
     c94:	00205073          	fsrmi	zero,0
     c98:	18b57653          	fdiv.s	fa2,fa0,fa1
     c9c:	001028f3          	frflags	a7
     ca0:	34c7a427          	fsw	fa2,840(a5)
     ca4:	3517a623          	sw	a7,844(a5)

00000ca8 <inst_106>:
     ca8:	35082507          	flw	fa0,848(a6)
     cac:	35482587          	flw	fa1,852(a6)
     cb0:	00225073          	fsrmi	zero,4
     cb4:	18b57653          	fdiv.s	fa2,fa0,fa1
     cb8:	001028f3          	frflags	a7
     cbc:	34c7a827          	fsw	fa2,848(a5)
     cc0:	3517aa23          	sw	a7,852(a5)

00000cc4 <inst_107>:
     cc4:	35882507          	flw	fa0,856(a6)
     cc8:	35c82587          	flw	fa1,860(a6)
     ccc:	0021d073          	fsrmi	zero,3
     cd0:	18b57653          	fdiv.s	fa2,fa0,fa1
     cd4:	001028f3          	frflags	a7
     cd8:	34c7ac27          	fsw	fa2,856(a5)
     cdc:	3517ae23          	sw	a7,860(a5)

00000ce0 <inst_108>:
     ce0:	36082507          	flw	fa0,864(a6)
     ce4:	36482587          	flw	fa1,868(a6)
     ce8:	00215073          	fsrmi	zero,2
     cec:	18b57653          	fdiv.s	fa2,fa0,fa1
     cf0:	001028f3          	frflags	a7
     cf4:	36c7a027          	fsw	fa2,864(a5)
     cf8:	3717a223          	sw	a7,868(a5)

00000cfc <inst_109>:
     cfc:	36882507          	flw	fa0,872(a6)
     d00:	36c82587          	flw	fa1,876(a6)
     d04:	0020d073          	fsrmi	zero,1
     d08:	18b57653          	fdiv.s	fa2,fa0,fa1
     d0c:	001028f3          	frflags	a7
     d10:	36c7a427          	fsw	fa2,872(a5)
     d14:	3717a623          	sw	a7,876(a5)

00000d18 <inst_110>:
     d18:	37082507          	flw	fa0,880(a6)
     d1c:	37482587          	flw	fa1,884(a6)
     d20:	00205073          	fsrmi	zero,0
     d24:	18b57653          	fdiv.s	fa2,fa0,fa1
     d28:	001028f3          	frflags	a7
     d2c:	36c7a827          	fsw	fa2,880(a5)
     d30:	3717aa23          	sw	a7,884(a5)

00000d34 <inst_111>:
     d34:	37882507          	flw	fa0,888(a6)
     d38:	37c82587          	flw	fa1,892(a6)
     d3c:	00225073          	fsrmi	zero,4
     d40:	18b57653          	fdiv.s	fa2,fa0,fa1
     d44:	001028f3          	frflags	a7
     d48:	36c7ac27          	fsw	fa2,888(a5)
     d4c:	3717ae23          	sw	a7,892(a5)

00000d50 <inst_112>:
     d50:	38082507          	flw	fa0,896(a6)
     d54:	38482587          	flw	fa1,900(a6)
     d58:	0021d073          	fsrmi	zero,3
     d5c:	18b57653          	fdiv.s	fa2,fa0,fa1
     d60:	001028f3          	frflags	a7
     d64:	38c7a027          	fsw	fa2,896(a5)
     d68:	3917a223          	sw	a7,900(a5)

00000d6c <inst_113>:
     d6c:	38882507          	flw	fa0,904(a6)
     d70:	38c82587          	flw	fa1,908(a6)
     d74:	00215073          	fsrmi	zero,2
     d78:	18b57653          	fdiv.s	fa2,fa0,fa1
     d7c:	001028f3          	frflags	a7
     d80:	38c7a427          	fsw	fa2,904(a5)
     d84:	3917a623          	sw	a7,908(a5)

00000d88 <inst_114>:
     d88:	39082507          	flw	fa0,912(a6)
     d8c:	39482587          	flw	fa1,916(a6)
     d90:	0020d073          	fsrmi	zero,1
     d94:	18b57653          	fdiv.s	fa2,fa0,fa1
     d98:	001028f3          	frflags	a7
     d9c:	38c7a827          	fsw	fa2,912(a5)
     da0:	3917aa23          	sw	a7,916(a5)

00000da4 <inst_115>:
     da4:	39882507          	flw	fa0,920(a6)
     da8:	39c82587          	flw	fa1,924(a6)
     dac:	00205073          	fsrmi	zero,0
     db0:	18b57653          	fdiv.s	fa2,fa0,fa1
     db4:	001028f3          	frflags	a7
     db8:	38c7ac27          	fsw	fa2,920(a5)
     dbc:	3917ae23          	sw	a7,924(a5)

00000dc0 <inst_116>:
     dc0:	3a082507          	flw	fa0,928(a6)
     dc4:	3a482587          	flw	fa1,932(a6)
     dc8:	00225073          	fsrmi	zero,4
     dcc:	18b57653          	fdiv.s	fa2,fa0,fa1
     dd0:	001028f3          	frflags	a7
     dd4:	3ac7a027          	fsw	fa2,928(a5)
     dd8:	3b17a223          	sw	a7,932(a5)

00000ddc <inst_117>:
     ddc:	3a882507          	flw	fa0,936(a6)
     de0:	3ac82587          	flw	fa1,940(a6)
     de4:	0021d073          	fsrmi	zero,3
     de8:	18b57653          	fdiv.s	fa2,fa0,fa1
     dec:	001028f3          	frflags	a7
     df0:	3ac7a427          	fsw	fa2,936(a5)
     df4:	3b17a623          	sw	a7,940(a5)

00000df8 <inst_118>:
     df8:	3b082507          	flw	fa0,944(a6)
     dfc:	3b482587          	flw	fa1,948(a6)
     e00:	00215073          	fsrmi	zero,2
     e04:	18b57653          	fdiv.s	fa2,fa0,fa1
     e08:	001028f3          	frflags	a7
     e0c:	3ac7a827          	fsw	fa2,944(a5)
     e10:	3b17aa23          	sw	a7,948(a5)

00000e14 <inst_119>:
     e14:	3b882507          	flw	fa0,952(a6)
     e18:	3bc82587          	flw	fa1,956(a6)
     e1c:	0020d073          	fsrmi	zero,1
     e20:	18b57653          	fdiv.s	fa2,fa0,fa1
     e24:	001028f3          	frflags	a7
     e28:	3ac7ac27          	fsw	fa2,952(a5)
     e2c:	3b17ae23          	sw	a7,956(a5)

00000e30 <inst_120>:
     e30:	3c082507          	flw	fa0,960(a6)
     e34:	3c482587          	flw	fa1,964(a6)
     e38:	00205073          	fsrmi	zero,0
     e3c:	18b57653          	fdiv.s	fa2,fa0,fa1
     e40:	001028f3          	frflags	a7
     e44:	3cc7a027          	fsw	fa2,960(a5)
     e48:	3d17a223          	sw	a7,964(a5)

00000e4c <inst_121>:
     e4c:	3c882507          	flw	fa0,968(a6)
     e50:	3cc82587          	flw	fa1,972(a6)
     e54:	00225073          	fsrmi	zero,4
     e58:	18b57653          	fdiv.s	fa2,fa0,fa1
     e5c:	001028f3          	frflags	a7
     e60:	3cc7a427          	fsw	fa2,968(a5)
     e64:	3d17a623          	sw	a7,972(a5)

00000e68 <inst_122>:
     e68:	3d082507          	flw	fa0,976(a6)
     e6c:	3d482587          	flw	fa1,980(a6)
     e70:	0021d073          	fsrmi	zero,3
     e74:	18b57653          	fdiv.s	fa2,fa0,fa1
     e78:	001028f3          	frflags	a7
     e7c:	3cc7a827          	fsw	fa2,976(a5)
     e80:	3d17aa23          	sw	a7,980(a5)

00000e84 <inst_123>:
     e84:	3d882507          	flw	fa0,984(a6)
     e88:	3dc82587          	flw	fa1,988(a6)
     e8c:	00215073          	fsrmi	zero,2
     e90:	18b57653          	fdiv.s	fa2,fa0,fa1
     e94:	001028f3          	frflags	a7
     e98:	3cc7ac27          	fsw	fa2,984(a5)
     e9c:	3d17ae23          	sw	a7,988(a5)

00000ea0 <inst_124>:
     ea0:	3e082507          	flw	fa0,992(a6)
     ea4:	3e482587          	flw	fa1,996(a6)
     ea8:	0020d073          	fsrmi	zero,1
     eac:	18b57653          	fdiv.s	fa2,fa0,fa1
     eb0:	001028f3          	frflags	a7
     eb4:	3ec7a027          	fsw	fa2,992(a5)
     eb8:	3f17a223          	sw	a7,996(a5)

00000ebc <inst_125>:
     ebc:	3e882507          	flw	fa0,1000(a6)
     ec0:	3ec82587          	flw	fa1,1004(a6)
     ec4:	00205073          	fsrmi	zero,0
     ec8:	18b57653          	fdiv.s	fa2,fa0,fa1
     ecc:	001028f3          	frflags	a7
     ed0:	3ec7a427          	fsw	fa2,1000(a5)
     ed4:	3f17a623          	sw	a7,1004(a5)

00000ed8 <inst_126>:
     ed8:	3f082507          	flw	fa0,1008(a6)
     edc:	3f482587          	flw	fa1,1012(a6)
     ee0:	00225073          	fsrmi	zero,4
     ee4:	18b57653          	fdiv.s	fa2,fa0,fa1
     ee8:	001028f3          	frflags	a7
     eec:	3ec7a827          	fsw	fa2,1008(a5)
     ef0:	3f17aa23          	sw	a7,1012(a5)

00000ef4 <inst_127>:
     ef4:	3f882507          	flw	fa0,1016(a6)
     ef8:	3fc82587          	flw	fa1,1020(a6)
     efc:	0021d073          	fsrmi	zero,3
     f00:	18b57653          	fdiv.s	fa2,fa0,fa1
     f04:	001028f3          	frflags	a7
     f08:	3ec7ac27          	fsw	fa2,1016(a5)
     f0c:	3f17ae23          	sw	a7,1020(a5)

00000f10 <inst_128>:
     f10:	40082507          	flw	fa0,1024(a6)
     f14:	40482587          	flw	fa1,1028(a6)
     f18:	00215073          	fsrmi	zero,2
     f1c:	18b57653          	fdiv.s	fa2,fa0,fa1
     f20:	001028f3          	frflags	a7
     f24:	40c7a027          	fsw	fa2,1024(a5)
     f28:	4117a223          	sw	a7,1028(a5)

00000f2c <inst_129>:
     f2c:	40882507          	flw	fa0,1032(a6)
     f30:	40c82587          	flw	fa1,1036(a6)
     f34:	0020d073          	fsrmi	zero,1
     f38:	18b57653          	fdiv.s	fa2,fa0,fa1
     f3c:	001028f3          	frflags	a7
     f40:	40c7a427          	fsw	fa2,1032(a5)
     f44:	4117a623          	sw	a7,1036(a5)

00000f48 <inst_130>:
     f48:	41082507          	flw	fa0,1040(a6)
     f4c:	41482587          	flw	fa1,1044(a6)
     f50:	00205073          	fsrmi	zero,0
     f54:	18b57653          	fdiv.s	fa2,fa0,fa1
     f58:	001028f3          	frflags	a7
     f5c:	40c7a827          	fsw	fa2,1040(a5)
     f60:	4117aa23          	sw	a7,1044(a5)

00000f64 <inst_131>:
     f64:	41882507          	flw	fa0,1048(a6)
     f68:	41c82587          	flw	fa1,1052(a6)
     f6c:	00225073          	fsrmi	zero,4
     f70:	18b57653          	fdiv.s	fa2,fa0,fa1
     f74:	001028f3          	frflags	a7
     f78:	40c7ac27          	fsw	fa2,1048(a5)
     f7c:	4117ae23          	sw	a7,1052(a5)

00000f80 <inst_132>:
     f80:	42082507          	flw	fa0,1056(a6)
     f84:	42482587          	flw	fa1,1060(a6)
     f88:	0021d073          	fsrmi	zero,3
     f8c:	18b57653          	fdiv.s	fa2,fa0,fa1
     f90:	001028f3          	frflags	a7
     f94:	42c7a027          	fsw	fa2,1056(a5)
     f98:	4317a223          	sw	a7,1060(a5)

00000f9c <inst_133>:
     f9c:	42882507          	flw	fa0,1064(a6)
     fa0:	42c82587          	flw	fa1,1068(a6)
     fa4:	00215073          	fsrmi	zero,2
     fa8:	18b57653          	fdiv.s	fa2,fa0,fa1
     fac:	001028f3          	frflags	a7
     fb0:	42c7a427          	fsw	fa2,1064(a5)
     fb4:	4317a623          	sw	a7,1068(a5)

00000fb8 <inst_134>:
     fb8:	43082507          	flw	fa0,1072(a6)
     fbc:	43482587          	flw	fa1,1076(a6)
     fc0:	0020d073          	fsrmi	zero,1
     fc4:	18b57653          	fdiv.s	fa2,fa0,fa1
     fc8:	001028f3          	frflags	a7
     fcc:	42c7a827          	fsw	fa2,1072(a5)
     fd0:	4317aa23          	sw	a7,1076(a5)

00000fd4 <inst_135>:
     fd4:	43882507          	flw	fa0,1080(a6)
     fd8:	43c82587          	flw	fa1,1084(a6)
     fdc:	00205073          	fsrmi	zero,0
     fe0:	18b57653          	fdiv.s	fa2,fa0,fa1
     fe4:	001028f3          	frflags	a7
     fe8:	42c7ac27          	fsw	fa2,1080(a5)
     fec:	4317ae23          	sw	a7,1084(a5)

00000ff0 <inst_136>:
     ff0:	44082507          	flw	fa0,1088(a6)
     ff4:	44482587          	flw	fa1,1092(a6)
     ff8:	00225073          	fsrmi	zero,4
     ffc:	18b57653          	fdiv.s	fa2,fa0,fa1
    1000:	001028f3          	frflags	a7
    1004:	44c7a027          	fsw	fa2,1088(a5)
    1008:	4517a223          	sw	a7,1092(a5)

0000100c <inst_137>:
    100c:	44882507          	flw	fa0,1096(a6)
    1010:	44c82587          	flw	fa1,1100(a6)
    1014:	0021d073          	fsrmi	zero,3
    1018:	18b57653          	fdiv.s	fa2,fa0,fa1
    101c:	001028f3          	frflags	a7
    1020:	44c7a427          	fsw	fa2,1096(a5)
    1024:	4517a623          	sw	a7,1100(a5)

00001028 <inst_138>:
    1028:	45082507          	flw	fa0,1104(a6)
    102c:	45482587          	flw	fa1,1108(a6)
    1030:	00215073          	fsrmi	zero,2
    1034:	18b57653          	fdiv.s	fa2,fa0,fa1
    1038:	001028f3          	frflags	a7
    103c:	44c7a827          	fsw	fa2,1104(a5)
    1040:	4517aa23          	sw	a7,1108(a5)

00001044 <inst_139>:
    1044:	45882507          	flw	fa0,1112(a6)
    1048:	45c82587          	flw	fa1,1116(a6)
    104c:	0020d073          	fsrmi	zero,1
    1050:	18b57653          	fdiv.s	fa2,fa0,fa1
    1054:	001028f3          	frflags	a7
    1058:	44c7ac27          	fsw	fa2,1112(a5)
    105c:	4517ae23          	sw	a7,1116(a5)

00001060 <inst_140>:
    1060:	46082507          	flw	fa0,1120(a6)
    1064:	46482587          	flw	fa1,1124(a6)
    1068:	0021d073          	fsrmi	zero,3
    106c:	18b57653          	fdiv.s	fa2,fa0,fa1
    1070:	001028f3          	frflags	a7
    1074:	46c7a027          	fsw	fa2,1120(a5)
    1078:	4717a223          	sw	a7,1124(a5)

0000107c <inst_141>:
    107c:	46882507          	flw	fa0,1128(a6)
    1080:	46c82587          	flw	fa1,1132(a6)
    1084:	00215073          	fsrmi	zero,2
    1088:	18b57653          	fdiv.s	fa2,fa0,fa1
    108c:	001028f3          	frflags	a7
    1090:	46c7a427          	fsw	fa2,1128(a5)
    1094:	4717a623          	sw	a7,1132(a5)
    1098:	00000013          	nop
    109c:	00000013          	nop

000010a0 <rvtest_code_end>:
    10a0:	00001517          	auipc	a0,0x1
    10a4:	3e050513          	add	a0,a0,992 # 2480 <data_begin>
    10a8:	00002597          	auipc	a1,0x2
    10ac:	84858593          	add	a1,a1,-1976 # 28f0 <_end>
    10b0:	80001637          	lui	a2,0x80001
    10b4:	00860613          	add	a2,a2,8 # 80001008 <_end+0x7fffe718>

000010b8 <compliance_halt_loop>:
    10b8:	06b50063          	beq	a0,a1,1118 <compliance_halt_break>
    10bc:	00450693          	add	a3,a0,4

000010c0 <compliance_halt_loop2>:
    10c0:	fff68693          	add	a3,a3,-1
    10c4:	00068703          	lb	a4,0(a3)
    10c8:	40475793          	sra	a5,a4,0x4
    10cc:	00f7f793          	and	a5,a5,15
    10d0:	00a00813          	li	a6,10
    10d4:	0107c463          	blt	a5,a6,10dc <notLetter>
    10d8:	02778793          	add	a5,a5,39

000010dc <notLetter>:
    10dc:	03078793          	add	a5,a5,48
    10e0:	00f60023          	sb	a5,0(a2)
    10e4:	40075793          	sra	a5,a4,0x0
    10e8:	00f7f793          	and	a5,a5,15
    10ec:	00a00813          	li	a6,10
    10f0:	0107c463          	blt	a5,a6,10f8 <notLetter2>
    10f4:	02778793          	add	a5,a5,39

000010f8 <notLetter2>:
    10f8:	03078793          	add	a5,a5,48
    10fc:	00f60023          	sb	a5,0(a2)
    1100:	fcd510e3          	bne	a0,a3,10c0 <compliance_halt_loop2>
    1104:	00450513          	add	a0,a0,4
    1108:	00a00713          	li	a4,10
    110c:	00e60023          	sb	a4,0(a2)
    1110:	fa9ff06f          	j	10b8 <compliance_halt_loop>
    1114:	0040006f          	j	1118 <compliance_halt_break>

00001118 <compliance_halt_break>:
    1118:	80001537          	lui	a0,0x80001
    111c:	00950513          	add	a0,a0,9 # 80001009 <_end+0x7fffe719>
    1120:	00d50023          	sb	a3,0(a0)
	...

Desensamblado de la sección .data:

00002000 <rvtest_data_begin>:
    2000:	cafe                	.2byte	0xcafe
    2002:	babe                	.2byte	0xbabe

00002004 <test_fp>:
    2004:	7e36c1bf 3e73acff 	.8byte	0x3e73acff7e36c1bf
    200c:	7f00e26f          	jal	tp,107fc <_end+0xdf0c>
    2010:	d895                	.2byte	0xd895
    2012:	e26fbdab          	.4byte	0xe26fbdab
    2016:	7f00                	.2byte	0x7f00
    2018:	7f00e26f          	jal	tp,10808 <_end+0xdf18>
    201c:	7f00e26f          	jal	tp,1080c <_end+0xdf1c>
    2020:	7f00e26f          	jal	tp,10810 <_end+0xdf20>
    2024:	7f00e26f          	jal	tp,10814 <_end+0xdf24>
    2028:	d895                	.2byte	0xd895
    202a:	e26fbdab          	.4byte	0xe26fbdab
    202e:	7f00                	.2byte	0x7f00
    2030:	d895                	.2byte	0xd895
    2032:	6dccbdab          	.4byte	0x6dccbdab
    2036:	7f24                	.2byte	0x7f24
    2038:	3d11                	.2byte	0x3d11
    203a:	6dcc3ddb          	.4byte	0x6dcc3ddb
    203e:	7f24                	.2byte	0x7f24
    2040:	3d11                	.2byte	0x3d11
    2042:	6dcc3ddb          	.4byte	0x6dcc3ddb
    2046:	7f24                	.2byte	0x7f24
    2048:	3d11                	.2byte	0x3d11
    204a:	6dcc3ddb          	.4byte	0x6dcc3ddb
    204e:	7f24                	.2byte	0x7f24
    2050:	3d11                	.2byte	0x3d11
    2052:	6dcc3ddb          	.4byte	0x6dcc3ddb
    2056:	7f24                	.2byte	0x7f24
    2058:	3d11                	.2byte	0x3d11
    205a:	f0c83ddb          	.4byte	0xf0c83ddb
    205e:	7f02                	.2byte	0x7f02
    2060:	9662                	.2byte	0x9662
    2062:	be2e                	.2byte	0xbe2e
    2064:	f0c8                	.2byte	0xf0c8
    2066:	7f02                	.2byte	0x7f02
    2068:	9662                	.2byte	0x9662
    206a:	be2e                	.2byte	0xbe2e
    206c:	f0c8                	.2byte	0xf0c8
    206e:	7f02                	.2byte	0x7f02
    2070:	9662                	.2byte	0x9662
    2072:	be2e                	.2byte	0xbe2e
    2074:	f0c8                	.2byte	0xf0c8
    2076:	7f02                	.2byte	0x7f02
    2078:	9662                	.2byte	0x9662
    207a:	be2e                	.2byte	0xbe2e
    207c:	f0c8                	.2byte	0xf0c8
    207e:	7f02                	.2byte	0x7f02
    2080:	9662                	.2byte	0x9662
    2082:	be2e                	.2byte	0xbe2e
    2084:	5a49                	.2byte	0x5a49
    2086:	7ee0                	.2byte	0x7ee0
    2088:	9186                	.2byte	0x9186
    208a:	3e15                	.2byte	0x3e15
    208c:	5a49                	.2byte	0x5a49
    208e:	7ee0                	.2byte	0x7ee0
    2090:	9186                	.2byte	0x9186
    2092:	3e15                	.2byte	0x3e15
    2094:	5a49                	.2byte	0x5a49
    2096:	7ee0                	.2byte	0x7ee0
    2098:	9186                	.2byte	0x9186
    209a:	3e15                	.2byte	0x3e15
    209c:	5a49                	.2byte	0x5a49
    209e:	7ee0                	.2byte	0x7ee0
    20a0:	9186                	.2byte	0x9186
    20a2:	3e15                	.2byte	0x3e15
    20a4:	5a49                	.2byte	0x5a49
    20a6:	7ee0                	.2byte	0x7ee0
    20a8:	9186                	.2byte	0x9186
    20aa:	3e15                	.2byte	0x3e15
    20ac:	7e86bfe7          	.4byte	0x7e86bfe7
    20b0:	aa8a                	.2byte	0xaa8a
    20b2:	bfe7be33          	.4byte	0xbfe7be33
    20b6:	7e86                	.2byte	0x7e86
    20b8:	aa8a                	.2byte	0xaa8a
    20ba:	bfe7be33          	.4byte	0xbfe7be33
    20be:	7e86                	.2byte	0x7e86
    20c0:	aa8a                	.2byte	0xaa8a
    20c2:	bfe7be33          	.4byte	0xbfe7be33
    20c6:	7e86                	.2byte	0x7e86
    20c8:	aa8a                	.2byte	0xaa8a
    20ca:	bfe7be33          	.4byte	0xbfe7be33
    20ce:	7e86                	.2byte	0x7e86
    20d0:	aa8a                	.2byte	0xaa8a
    20d2:	c803be33          	.4byte	0xc803be33
    20d6:	7ec2                	.2byte	0x7ec2
    20d8:	daad                	.2byte	0xdaad
    20da:	3e81                	.2byte	0x3e81
    20dc:	7ec2c803          	lbu	a6,2028(t0)
    20e0:	daad                	.2byte	0xdaad
    20e2:	3e81                	.2byte	0x3e81
    20e4:	7ec2c803          	lbu	a6,2028(t0)
    20e8:	daad                	.2byte	0xdaad
    20ea:	3e81                	.2byte	0x3e81
    20ec:	7ec2c803          	lbu	a6,2028(t0)
    20f0:	daad                	.2byte	0xdaad
    20f2:	3e81                	.2byte	0x3e81
    20f4:	7ec2c803          	lbu	a6,2028(t0)
    20f8:	daad                	.2byte	0xdaad
    20fa:	3e81                	.2byte	0x3e81
    20fc:	7ef0a207          	flw	ft4,2031(ra)
    2100:	6c06                	.2byte	0x6c06
    2102:	bf20                	.2byte	0xbf20
    2104:	7ef0a207          	flw	ft4,2031(ra)
    2108:	6c06                	.2byte	0x6c06
    210a:	bf20                	.2byte	0xbf20
    210c:	7ef0a207          	flw	ft4,2031(ra)
    2110:	6c06                	.2byte	0x6c06
    2112:	bf20                	.2byte	0xbf20
    2114:	7ef0a207          	flw	ft4,2031(ra)
    2118:	6c06                	.2byte	0x6c06
    211a:	bf20                	.2byte	0xbf20
    211c:	7ef0a207          	flw	ft4,2031(ra)
    2120:	6c06                	.2byte	0x6c06
    2122:	bf20                	.2byte	0xbf20
    2124:	7f395f47          	.4byte	0x7f395f47
    2128:	29b4                	.2byte	0x29b4
    212a:	5f473f77          	.4byte	0x5f473f77
    212e:	7f39                	.2byte	0x7f39
    2130:	29b4                	.2byte	0x29b4
    2132:	5f473f77          	.4byte	0x5f473f77
    2136:	7f39                	.2byte	0x7f39
    2138:	29b4                	.2byte	0x29b4
    213a:	5f473f77          	.4byte	0x5f473f77
    213e:	7f39                	.2byte	0x7f39
    2140:	29b4                	.2byte	0x29b4
    2142:	5f473f77          	.4byte	0x5f473f77
    2146:	7f39                	.2byte	0x7f39
    2148:	29b4                	.2byte	0x29b4
    214a:	d9213f77          	.4byte	0xd9213f77
    214e:	7dd0                	.2byte	0x7dd0
    2150:	3b6c                	.2byte	0x3b6c
    2152:	d921be8b          	.4byte	0xd921be8b
    2156:	7dd0                	.2byte	0x7dd0
    2158:	3b6c                	.2byte	0x3b6c
    215a:	d921be8b          	.4byte	0xd921be8b
    215e:	7dd0                	.2byte	0x7dd0
    2160:	3b6c                	.2byte	0x3b6c
    2162:	d921be8b          	.4byte	0xd921be8b
    2166:	7dd0                	.2byte	0x7dd0
    2168:	3b6c                	.2byte	0x3b6c
    216a:	d921be8b          	.4byte	0xd921be8b
    216e:	7dd0                	.2byte	0x7dd0
    2170:	3b6c                	.2byte	0x3b6c
    2172:	be0dbe8b          	.4byte	0xbe0dbe8b
    2176:	7f28                	.2byte	0x7f28
    2178:	3fe0fd67          	.4byte	0x3fe0fd67
    217c:	be0d                	.2byte	0xbe0d
    217e:	7f28                	.2byte	0x7f28
    2180:	3fe0fd67          	.4byte	0x3fe0fd67
    2184:	be0d                	.2byte	0xbe0d
    2186:	7f28                	.2byte	0x7f28
    2188:	3fe0fd67          	.4byte	0x3fe0fd67
    218c:	be0d                	.2byte	0xbe0d
    218e:	7f28                	.2byte	0x7f28
    2190:	3fe0fd67          	.4byte	0x3fe0fd67
    2194:	be0d                	.2byte	0xbe0d
    2196:	7f28                	.2byte	0x7f28
    2198:	3fe0fd67          	.4byte	0x3fe0fd67
    219c:	bc06                	.2byte	0xbc06
    219e:	7eaa                	.2byte	0x7eaa
    21a0:	a55f bfe3 bc06      	.byte	0x5f, 0xa5, 0xe3, 0xbf, 0x06, 0xbc
    21a6:	7eaa                	.2byte	0x7eaa
    21a8:	a55f bfe3 bc06      	.byte	0x5f, 0xa5, 0xe3, 0xbf, 0x06, 0xbc
    21ae:	7eaa                	.2byte	0x7eaa
    21b0:	a55f bfe3 bc06      	.byte	0x5f, 0xa5, 0xe3, 0xbf, 0x06, 0xbc
    21b6:	7eaa                	.2byte	0x7eaa
    21b8:	a55f bfe3 bc06      	.byte	0x5f, 0xa5, 0xe3, 0xbf, 0x06, 0xbc
    21be:	7eaa                	.2byte	0x7eaa
    21c0:	a55f bfe3 aa7b      	.byte	0x5f, 0xa5, 0xe3, 0xbf, 0x7b, 0xaa
    21c6:	38a47e97          	auipc	t4,0x38a47
    21ca:	3fca                	.2byte	0x3fca
    21cc:	7e97aa7b          	.4byte	0x7e97aa7b
    21d0:	38a4                	.2byte	0x38a4
    21d2:	3fca                	.2byte	0x3fca
    21d4:	7e97aa7b          	.4byte	0x7e97aa7b
    21d8:	38a4                	.2byte	0x38a4
    21da:	3fca                	.2byte	0x3fca
    21dc:	7e97aa7b          	.4byte	0x7e97aa7b
    21e0:	38a4                	.2byte	0x38a4
    21e2:	3fca                	.2byte	0x3fca
    21e4:	7e97aa7b          	.4byte	0x7e97aa7b
    21e8:	38a4                	.2byte	0x38a4
    21ea:	3fca                	.2byte	0x3fca
    21ec:	1ce4                	.2byte	0x1ce4
    21ee:	7f09                	.2byte	0x7f09
    21f0:	d131                	.2byte	0xd131
    21f2:	c0b6                	.2byte	0xc0b6
    21f4:	1ce4                	.2byte	0x1ce4
    21f6:	7f09                	.2byte	0x7f09
    21f8:	d131                	.2byte	0xd131
    21fa:	c0b6                	.2byte	0xc0b6
    21fc:	1ce4                	.2byte	0x1ce4
    21fe:	7f09                	.2byte	0x7f09
    2200:	d131                	.2byte	0xd131
    2202:	c0b6                	.2byte	0xc0b6
    2204:	1ce4                	.2byte	0x1ce4
    2206:	7f09                	.2byte	0x7f09
    2208:	d131                	.2byte	0xd131
    220a:	c0b6                	.2byte	0xc0b6
    220c:	1ce4                	.2byte	0x1ce4
    220e:	7f09                	.2byte	0x7f09
    2210:	d131                	.2byte	0xd131
    2212:	c0b6                	.2byte	0xc0b6
    2214:	03a1                	.2byte	0x3a1
    2216:	7f0a                	.2byte	0x7f0a
    2218:	04d8                	.2byte	0x4d8
    221a:	40b8                	.2byte	0x40b8
    221c:	03a1                	.2byte	0x3a1
    221e:	7f0a                	.2byte	0x7f0a
    2220:	04d8                	.2byte	0x4d8
    2222:	40b8                	.2byte	0x40b8
    2224:	03a1                	.2byte	0x3a1
    2226:	7f0a                	.2byte	0x7f0a
    2228:	04d8                	.2byte	0x4d8
    222a:	40b8                	.2byte	0x40b8
    222c:	03a1                	.2byte	0x3a1
    222e:	7f0a                	.2byte	0x7f0a
    2230:	04d8                	.2byte	0x4d8
    2232:	40b8                	.2byte	0x40b8
    2234:	03a1                	.2byte	0x3a1
    2236:	7f0a                	.2byte	0x7f0a
    2238:	04d8                	.2byte	0x4d8
    223a:	40b8                	.2byte	0x40b8
    223c:	2e64                	.2byte	0x2e64
    223e:	7f26                	.2byte	0x7f26
    2240:	9331                	.2byte	0x9331
    2242:	3f5d                	.2byte	0x3f5d
    2244:	2e64                	.2byte	0x2e64
    2246:	7f26                	.2byte	0x7f26
    2248:	9331                	.2byte	0x9331
    224a:	3f5d                	.2byte	0x3f5d
    224c:	2e64                	.2byte	0x2e64
    224e:	7f26                	.2byte	0x7f26
    2250:	9331                	.2byte	0x9331
    2252:	3f5d                	.2byte	0x3f5d
    2254:	2e64                	.2byte	0x2e64
    2256:	7f26                	.2byte	0x7f26
    2258:	9331                	.2byte	0x9331
    225a:	3f5d                	.2byte	0x3f5d
    225c:	2e64                	.2byte	0x2e64
    225e:	7f26                	.2byte	0x7f26
    2260:	9331                	.2byte	0x9331
    2262:	3f5d                	.2byte	0x3f5d
    2264:	5fa1                	.2byte	0x5fa1
    2266:	3fc17e67          	.4byte	0x3fc17e67
    226a:	3e9a                	.2byte	0x3e9a
    226c:	5fa1                	.2byte	0x5fa1
    226e:	3fc17e67          	.4byte	0x3fc17e67
    2272:	3e9a                	.2byte	0x3e9a
    2274:	5fa1                	.2byte	0x5fa1
    2276:	3fc17e67          	.4byte	0x3fc17e67
    227a:	3e9a                	.2byte	0x3e9a
    227c:	5fa1                	.2byte	0x5fa1
    227e:	3fc17e67          	.4byte	0x3fc17e67
    2282:	3e9a                	.2byte	0x3e9a
    2284:	5fa1                	.2byte	0x5fa1
    2286:	3fc17e67          	.4byte	0x3fc17e67
    228a:	3e9a                	.2byte	0x3e9a
    228c:	9488                	.2byte	0x9488
    228e:	7f11                	.2byte	0x7f11
    2290:	1b61                	.2byte	0x1b61
    2292:	3f42                	.2byte	0x3f42
    2294:	9488                	.2byte	0x9488
    2296:	7f11                	.2byte	0x7f11
    2298:	1b61                	.2byte	0x1b61
    229a:	3f42                	.2byte	0x3f42
    229c:	9488                	.2byte	0x9488
    229e:	7f11                	.2byte	0x7f11
    22a0:	1b61                	.2byte	0x1b61
    22a2:	3f42                	.2byte	0x3f42
    22a4:	9488                	.2byte	0x9488
    22a6:	7f11                	.2byte	0x7f11
    22a8:	1b61                	.2byte	0x1b61
    22aa:	3f42                	.2byte	0x3f42
    22ac:	9488                	.2byte	0x9488
    22ae:	7f11                	.2byte	0x7f11
    22b0:	1b61                	.2byte	0x1b61
    22b2:	3f42                	.2byte	0x3f42
    22b4:	7f00e937          	lui	s2,0x7f00e
    22b8:	e19f 3f2b e937      	.byte	0x9f, 0xe1, 0x2b, 0x3f, 0x37, 0xe9
    22be:	7f00                	.2byte	0x7f00
    22c0:	e19f 3f2b e937      	.byte	0x9f, 0xe1, 0x2b, 0x3f, 0x37, 0xe9
    22c6:	7f00                	.2byte	0x7f00
    22c8:	e19f 3f2b e937      	.byte	0x9f, 0xe1, 0x2b, 0x3f, 0x37, 0xe9
    22ce:	7f00                	.2byte	0x7f00
    22d0:	e19f 3f2b e937      	.byte	0x9f, 0xe1, 0x2b, 0x3f, 0x37, 0xe9
    22d6:	7f00                	.2byte	0x7f00
    22d8:	e19f 3f2b e6cd      	.byte	0x9f, 0xe1, 0x2b, 0x3f, 0xcd, 0xe6
    22de:	7ec8                	.2byte	0x7ec8
    22e0:	ef34                	.2byte	0xef34
    22e2:	3f05                	.2byte	0x3f05
    22e4:	e6cd                	.2byte	0xe6cd
    22e6:	7ec8                	.2byte	0x7ec8
    22e8:	ef34                	.2byte	0xef34
    22ea:	3f05                	.2byte	0x3f05
    22ec:	e6cd                	.2byte	0xe6cd
    22ee:	7ec8                	.2byte	0x7ec8
    22f0:	ef34                	.2byte	0xef34
    22f2:	3f05                	.2byte	0x3f05
    22f4:	e6cd                	.2byte	0xe6cd
    22f6:	7ec8                	.2byte	0x7ec8
    22f8:	ef34                	.2byte	0xef34
    22fa:	3f05                	.2byte	0x3f05
    22fc:	e6cd                	.2byte	0xe6cd
    22fe:	7ec8                	.2byte	0x7ec8
    2300:	ef34                	.2byte	0xef34
    2302:	3f05                	.2byte	0x3f05
    2304:	c956                	.2byte	0xc956
    2306:	863a7ef3          	csrrc	t4,0x863,20
    230a:	3f22                	.2byte	0x3f22
    230c:	c956                	.2byte	0xc956
    230e:	863a7ef3          	csrrc	t4,0x863,20
    2312:	3f22                	.2byte	0x3f22
    2314:	c956                	.2byte	0xc956
    2316:	863a7ef3          	csrrc	t4,0x863,20
    231a:	3f22                	.2byte	0x3f22
    231c:	c956                	.2byte	0xc956
    231e:	863a7ef3          	csrrc	t4,0x863,20
    2322:	3f22                	.2byte	0x3f22
    2324:	c956                	.2byte	0xc956
    2326:	863a7ef3          	csrrc	t4,0x863,20
    232a:	3f22                	.2byte	0x3f22
    232c:	7ef566f3          	csrrs	a3,0x7ef,10
    2330:	99f8                	.2byte	0x99f8
    2332:	66f33f23          	.4byte	0x66f33f23
    2336:	7ef5                	.2byte	0x7ef5
    2338:	99f8                	.2byte	0x99f8
    233a:	66f33f23          	.4byte	0x66f33f23
    233e:	7ef5                	.2byte	0x7ef5
    2340:	99f8                	.2byte	0x99f8
    2342:	66f33f23          	.4byte	0x66f33f23
    2346:	7ef5                	.2byte	0x7ef5
    2348:	99f8                	.2byte	0x99f8
    234a:	66f33f23          	.4byte	0x66f33f23
    234e:	7ef5                	.2byte	0x7ef5
    2350:	99f8                	.2byte	0x99f8
    2352:	99c03f23          	.4byte	0x99c03f23
    2356:	7f20                	.2byte	0x7f20
    2358:	2256                	.2byte	0x2256
    235a:	3f56                	.2byte	0x3f56
    235c:	99c0                	.2byte	0x99c0
    235e:	7f20                	.2byte	0x7f20
    2360:	2256                	.2byte	0x2256
    2362:	3f56                	.2byte	0x3f56
    2364:	99c0                	.2byte	0x99c0
    2366:	7f20                	.2byte	0x7f20
    2368:	2256                	.2byte	0x2256
    236a:	3f56                	.2byte	0x3f56
    236c:	99c0                	.2byte	0x99c0
    236e:	7f20                	.2byte	0x7f20
    2370:	2256                	.2byte	0x2256
    2372:	3f56                	.2byte	0x3f56
    2374:	99c0                	.2byte	0x99c0
    2376:	7f20                	.2byte	0x7f20
    2378:	2256                	.2byte	0x2256
    237a:	3f56                	.2byte	0x3f56
    237c:	29ee                	.2byte	0x29ee
    237e:	e2947f3f 29ee3f7e 	.8byte	0x29ee3f7ee2947f3f
    2386:	e2947f3f 29ee3f7e 	.8byte	0x29ee3f7ee2947f3f
    238e:	e2947f3f 29ee3f7e 	.8byte	0x29ee3f7ee2947f3f
    2396:	e2947f3f 29ee3f7e 	.8byte	0x29ee3f7ee2947f3f
    239e:	e2947f3f 2f123f7e 	.8byte	0x2f123f7ee2947f3f
    23a6:	ca0c7e47          	.4byte	0xca0c7e47
    23aa:	3e84                	.2byte	0x3e84
    23ac:	2f12                	.2byte	0x2f12
    23ae:	ca0c7e47          	.4byte	0xca0c7e47
    23b2:	3e84                	.2byte	0x3e84
    23b4:	2f12                	.2byte	0x2f12
    23b6:	ca0c7e47          	.4byte	0xca0c7e47
    23ba:	3e84                	.2byte	0x3e84
    23bc:	2f12                	.2byte	0x2f12
    23be:	ca0c7e47          	.4byte	0xca0c7e47
    23c2:	3e84                	.2byte	0x3e84
    23c4:	2f12                	.2byte	0x2f12
    23c6:	ca0c7e47          	.4byte	0xca0c7e47
    23ca:	3e84                	.2byte	0x3e84
    23cc:	7c21ceeb          	.4byte	0x7c21ceeb
    23d0:	3c57be8f          	.4byte	0x3c57be8f
    23d4:	7c21ceeb          	.4byte	0x7c21ceeb
    23d8:	3c57be8f          	.4byte	0x3c57be8f
    23dc:	7c21ceeb          	.4byte	0x7c21ceeb
    23e0:	3c57be8f          	.4byte	0x3c57be8f
    23e4:	7c21ceeb          	.4byte	0x7c21ceeb
    23e8:	3c57be8f          	.4byte	0x3c57be8f
    23ec:	7c21ceeb          	.4byte	0x7c21ceeb
    23f0:	3c57be8f          	.4byte	0x3c57be8f
    23f4:	46ce                	.2byte	0x46ce
    23f6:	7ef0                	.2byte	0x7ef0
    23f8:	2f34                	.2byte	0x2f34
    23fa:	3f20                	.2byte	0x3f20
    23fc:	46ce                	.2byte	0x46ce
    23fe:	7ef0                	.2byte	0x7ef0
    2400:	2f34                	.2byte	0x2f34
    2402:	3f20                	.2byte	0x3f20
    2404:	46ce                	.2byte	0x46ce
    2406:	7ef0                	.2byte	0x7ef0
    2408:	2f34                	.2byte	0x2f34
    240a:	3f20                	.2byte	0x3f20
    240c:	46ce                	.2byte	0x46ce
    240e:	7ef0                	.2byte	0x7ef0
    2410:	2f34                	.2byte	0x2f34
    2412:	3f20                	.2byte	0x3f20
    2414:	46ce                	.2byte	0x46ce
    2416:	7ef0                	.2byte	0x7ef0
    2418:	2f34                	.2byte	0x2f34
    241a:	3f20                	.2byte	0x3f20
    241c:	1012                	.2byte	0x1012
    241e:	7e8e                	.2byte	0x7e8e
    2420:	3ebd6ac3          	.4byte	0x3ebd6ac3
    2424:	1012                	.2byte	0x1012
    2426:	7e8e                	.2byte	0x7e8e
    2428:	3ebd6ac3          	.4byte	0x3ebd6ac3
    242c:	1012                	.2byte	0x1012
    242e:	7e8e                	.2byte	0x7e8e
    2430:	3ebd6ac3          	.4byte	0x3ebd6ac3
    2434:	1012                	.2byte	0x1012
    2436:	7e8e                	.2byte	0x7e8e
    2438:	3ebd6ac3          	.4byte	0x3ebd6ac3
    243c:	1012                	.2byte	0x1012
    243e:	7e8e                	.2byte	0x7e8e
    2440:	3ebd6ac3          	.4byte	0x3ebd6ac3
    2444:	7e36c1bf 3e73acff 	.8byte	0x3e73acff7e36c1bf
    244c:	7e36c1bf 3e73acff 	.8byte	0x3e73acff7e36c1bf
    2454:	7e36c1bf 3e73acff 	.8byte	0x3e73acff7e36c1bf
    245c:	7e36c1bf 3e73acff 	.8byte	0x3e73acff7e36c1bf
    2464:	7f00e26f          	jal	tp,10c54 <_end+0xe364>
    2468:	d895                	.2byte	0xd895
    246a:	e26fbdab          	.4byte	0xe26fbdab
    246e:	7f00                	.2byte	0x7f00
    2470:	d895                	.2byte	0xd895
    2472:	          	.4byte	0xbdab

00002474 <rvtest_data_end>:
	...

00002480 <data_begin>:
    2480:	deadbeef          	jal	t4,fffdda6a <_end+0xfffdb17a>
    2484:	deadbeef          	jal	t4,fffdda6e <_end+0xfffdb17e>
    2488:	deadbeef          	jal	t4,fffdda72 <_end+0xfffdb182>
    248c:	deadbeef          	jal	t4,fffdda76 <_end+0xfffdb186>
    2490:	deadbeef          	jal	t4,fffdda7a <_end+0xfffdb18a>
    2494:	deadbeef          	jal	t4,fffdda7e <_end+0xfffdb18e>
    2498:	deadbeef          	jal	t4,fffdda82 <_end+0xfffdb192>
    249c:	deadbeef          	jal	t4,fffdda86 <_end+0xfffdb196>
    24a0:	deadbeef          	jal	t4,fffdda8a <_end+0xfffdb19a>
    24a4:	deadbeef          	jal	t4,fffdda8e <_end+0xfffdb19e>
    24a8:	deadbeef          	jal	t4,fffdda92 <_end+0xfffdb1a2>
    24ac:	deadbeef          	jal	t4,fffdda96 <_end+0xfffdb1a6>
    24b0:	deadbeef          	jal	t4,fffdda9a <_end+0xfffdb1aa>
    24b4:	deadbeef          	jal	t4,fffdda9e <_end+0xfffdb1ae>
    24b8:	deadbeef          	jal	t4,fffddaa2 <_end+0xfffdb1b2>
    24bc:	deadbeef          	jal	t4,fffddaa6 <_end+0xfffdb1b6>
    24c0:	deadbeef          	jal	t4,fffddaaa <_end+0xfffdb1ba>
    24c4:	deadbeef          	jal	t4,fffddaae <_end+0xfffdb1be>
    24c8:	deadbeef          	jal	t4,fffddab2 <_end+0xfffdb1c2>
    24cc:	deadbeef          	jal	t4,fffddab6 <_end+0xfffdb1c6>
    24d0:	deadbeef          	jal	t4,fffddaba <_end+0xfffdb1ca>
    24d4:	deadbeef          	jal	t4,fffddabe <_end+0xfffdb1ce>
    24d8:	deadbeef          	jal	t4,fffddac2 <_end+0xfffdb1d2>
    24dc:	deadbeef          	jal	t4,fffddac6 <_end+0xfffdb1d6>
    24e0:	deadbeef          	jal	t4,fffddaca <_end+0xfffdb1da>
    24e4:	deadbeef          	jal	t4,fffddace <_end+0xfffdb1de>
    24e8:	deadbeef          	jal	t4,fffddad2 <_end+0xfffdb1e2>
    24ec:	deadbeef          	jal	t4,fffddad6 <_end+0xfffdb1e6>
    24f0:	deadbeef          	jal	t4,fffddada <_end+0xfffdb1ea>
    24f4:	deadbeef          	jal	t4,fffddade <_end+0xfffdb1ee>
    24f8:	deadbeef          	jal	t4,fffddae2 <_end+0xfffdb1f2>
    24fc:	deadbeef          	jal	t4,fffddae6 <_end+0xfffdb1f6>
    2500:	deadbeef          	jal	t4,fffddaea <_end+0xfffdb1fa>
    2504:	deadbeef          	jal	t4,fffddaee <_end+0xfffdb1fe>
    2508:	deadbeef          	jal	t4,fffddaf2 <_end+0xfffdb202>
    250c:	deadbeef          	jal	t4,fffddaf6 <_end+0xfffdb206>
    2510:	deadbeef          	jal	t4,fffddafa <_end+0xfffdb20a>
    2514:	deadbeef          	jal	t4,fffddafe <_end+0xfffdb20e>
    2518:	deadbeef          	jal	t4,fffddb02 <_end+0xfffdb212>
    251c:	deadbeef          	jal	t4,fffddb06 <_end+0xfffdb216>
    2520:	deadbeef          	jal	t4,fffddb0a <_end+0xfffdb21a>
    2524:	deadbeef          	jal	t4,fffddb0e <_end+0xfffdb21e>
    2528:	deadbeef          	jal	t4,fffddb12 <_end+0xfffdb222>
    252c:	deadbeef          	jal	t4,fffddb16 <_end+0xfffdb226>
    2530:	deadbeef          	jal	t4,fffddb1a <_end+0xfffdb22a>
    2534:	deadbeef          	jal	t4,fffddb1e <_end+0xfffdb22e>
    2538:	deadbeef          	jal	t4,fffddb22 <_end+0xfffdb232>
    253c:	deadbeef          	jal	t4,fffddb26 <_end+0xfffdb236>
    2540:	deadbeef          	jal	t4,fffddb2a <_end+0xfffdb23a>
    2544:	deadbeef          	jal	t4,fffddb2e <_end+0xfffdb23e>
    2548:	deadbeef          	jal	t4,fffddb32 <_end+0xfffdb242>
    254c:	deadbeef          	jal	t4,fffddb36 <_end+0xfffdb246>
    2550:	deadbeef          	jal	t4,fffddb3a <_end+0xfffdb24a>
    2554:	deadbeef          	jal	t4,fffddb3e <_end+0xfffdb24e>
    2558:	deadbeef          	jal	t4,fffddb42 <_end+0xfffdb252>
    255c:	deadbeef          	jal	t4,fffddb46 <_end+0xfffdb256>
    2560:	deadbeef          	jal	t4,fffddb4a <_end+0xfffdb25a>
    2564:	deadbeef          	jal	t4,fffddb4e <_end+0xfffdb25e>
    2568:	deadbeef          	jal	t4,fffddb52 <_end+0xfffdb262>
    256c:	deadbeef          	jal	t4,fffddb56 <_end+0xfffdb266>
    2570:	deadbeef          	jal	t4,fffddb5a <_end+0xfffdb26a>
    2574:	deadbeef          	jal	t4,fffddb5e <_end+0xfffdb26e>
    2578:	deadbeef          	jal	t4,fffddb62 <_end+0xfffdb272>
    257c:	deadbeef          	jal	t4,fffddb66 <_end+0xfffdb276>
    2580:	deadbeef          	jal	t4,fffddb6a <_end+0xfffdb27a>
    2584:	deadbeef          	jal	t4,fffddb6e <_end+0xfffdb27e>
    2588:	deadbeef          	jal	t4,fffddb72 <_end+0xfffdb282>
    258c:	deadbeef          	jal	t4,fffddb76 <_end+0xfffdb286>
    2590:	deadbeef          	jal	t4,fffddb7a <_end+0xfffdb28a>
    2594:	deadbeef          	jal	t4,fffddb7e <_end+0xfffdb28e>
    2598:	deadbeef          	jal	t4,fffddb82 <_end+0xfffdb292>
    259c:	deadbeef          	jal	t4,fffddb86 <_end+0xfffdb296>
    25a0:	deadbeef          	jal	t4,fffddb8a <_end+0xfffdb29a>
    25a4:	deadbeef          	jal	t4,fffddb8e <_end+0xfffdb29e>
    25a8:	deadbeef          	jal	t4,fffddb92 <_end+0xfffdb2a2>
    25ac:	deadbeef          	jal	t4,fffddb96 <_end+0xfffdb2a6>
    25b0:	deadbeef          	jal	t4,fffddb9a <_end+0xfffdb2aa>
    25b4:	deadbeef          	jal	t4,fffddb9e <_end+0xfffdb2ae>
    25b8:	deadbeef          	jal	t4,fffddba2 <_end+0xfffdb2b2>
    25bc:	deadbeef          	jal	t4,fffddba6 <_end+0xfffdb2b6>
    25c0:	deadbeef          	jal	t4,fffddbaa <_end+0xfffdb2ba>
    25c4:	deadbeef          	jal	t4,fffddbae <_end+0xfffdb2be>
    25c8:	deadbeef          	jal	t4,fffddbb2 <_end+0xfffdb2c2>
    25cc:	deadbeef          	jal	t4,fffddbb6 <_end+0xfffdb2c6>
    25d0:	deadbeef          	jal	t4,fffddbba <_end+0xfffdb2ca>
    25d4:	deadbeef          	jal	t4,fffddbbe <_end+0xfffdb2ce>
    25d8:	deadbeef          	jal	t4,fffddbc2 <_end+0xfffdb2d2>
    25dc:	deadbeef          	jal	t4,fffddbc6 <_end+0xfffdb2d6>
    25e0:	deadbeef          	jal	t4,fffddbca <_end+0xfffdb2da>
    25e4:	deadbeef          	jal	t4,fffddbce <_end+0xfffdb2de>
    25e8:	deadbeef          	jal	t4,fffddbd2 <_end+0xfffdb2e2>
    25ec:	deadbeef          	jal	t4,fffddbd6 <_end+0xfffdb2e6>
    25f0:	deadbeef          	jal	t4,fffddbda <_end+0xfffdb2ea>
    25f4:	deadbeef          	jal	t4,fffddbde <_end+0xfffdb2ee>
    25f8:	deadbeef          	jal	t4,fffddbe2 <_end+0xfffdb2f2>
    25fc:	deadbeef          	jal	t4,fffddbe6 <_end+0xfffdb2f6>
    2600:	deadbeef          	jal	t4,fffddbea <_end+0xfffdb2fa>
    2604:	deadbeef          	jal	t4,fffddbee <_end+0xfffdb2fe>
    2608:	deadbeef          	jal	t4,fffddbf2 <_end+0xfffdb302>
    260c:	deadbeef          	jal	t4,fffddbf6 <_end+0xfffdb306>
    2610:	deadbeef          	jal	t4,fffddbfa <_end+0xfffdb30a>
    2614:	deadbeef          	jal	t4,fffddbfe <_end+0xfffdb30e>
    2618:	deadbeef          	jal	t4,fffddc02 <_end+0xfffdb312>
    261c:	deadbeef          	jal	t4,fffddc06 <_end+0xfffdb316>
    2620:	deadbeef          	jal	t4,fffddc0a <_end+0xfffdb31a>
    2624:	deadbeef          	jal	t4,fffddc0e <_end+0xfffdb31e>
    2628:	deadbeef          	jal	t4,fffddc12 <_end+0xfffdb322>
    262c:	deadbeef          	jal	t4,fffddc16 <_end+0xfffdb326>
    2630:	deadbeef          	jal	t4,fffddc1a <_end+0xfffdb32a>
    2634:	deadbeef          	jal	t4,fffddc1e <_end+0xfffdb32e>
    2638:	deadbeef          	jal	t4,fffddc22 <_end+0xfffdb332>
    263c:	deadbeef          	jal	t4,fffddc26 <_end+0xfffdb336>
    2640:	deadbeef          	jal	t4,fffddc2a <_end+0xfffdb33a>
    2644:	deadbeef          	jal	t4,fffddc2e <_end+0xfffdb33e>
    2648:	deadbeef          	jal	t4,fffddc32 <_end+0xfffdb342>
    264c:	deadbeef          	jal	t4,fffddc36 <_end+0xfffdb346>
    2650:	deadbeef          	jal	t4,fffddc3a <_end+0xfffdb34a>
    2654:	deadbeef          	jal	t4,fffddc3e <_end+0xfffdb34e>
    2658:	deadbeef          	jal	t4,fffddc42 <_end+0xfffdb352>
    265c:	deadbeef          	jal	t4,fffddc46 <_end+0xfffdb356>
    2660:	deadbeef          	jal	t4,fffddc4a <_end+0xfffdb35a>
    2664:	deadbeef          	jal	t4,fffddc4e <_end+0xfffdb35e>
    2668:	deadbeef          	jal	t4,fffddc52 <_end+0xfffdb362>
    266c:	deadbeef          	jal	t4,fffddc56 <_end+0xfffdb366>
    2670:	deadbeef          	jal	t4,fffddc5a <_end+0xfffdb36a>
    2674:	deadbeef          	jal	t4,fffddc5e <_end+0xfffdb36e>
    2678:	deadbeef          	jal	t4,fffddc62 <_end+0xfffdb372>
    267c:	deadbeef          	jal	t4,fffddc66 <_end+0xfffdb376>
    2680:	deadbeef          	jal	t4,fffddc6a <_end+0xfffdb37a>
    2684:	deadbeef          	jal	t4,fffddc6e <_end+0xfffdb37e>
    2688:	deadbeef          	jal	t4,fffddc72 <_end+0xfffdb382>
    268c:	deadbeef          	jal	t4,fffddc76 <_end+0xfffdb386>
    2690:	deadbeef          	jal	t4,fffddc7a <_end+0xfffdb38a>
    2694:	deadbeef          	jal	t4,fffddc7e <_end+0xfffdb38e>
    2698:	deadbeef          	jal	t4,fffddc82 <_end+0xfffdb392>
    269c:	deadbeef          	jal	t4,fffddc86 <_end+0xfffdb396>
    26a0:	deadbeef          	jal	t4,fffddc8a <_end+0xfffdb39a>
    26a4:	deadbeef          	jal	t4,fffddc8e <_end+0xfffdb39e>
    26a8:	deadbeef          	jal	t4,fffddc92 <_end+0xfffdb3a2>
    26ac:	deadbeef          	jal	t4,fffddc96 <_end+0xfffdb3a6>
    26b0:	deadbeef          	jal	t4,fffddc9a <_end+0xfffdb3aa>
    26b4:	deadbeef          	jal	t4,fffddc9e <_end+0xfffdb3ae>
    26b8:	deadbeef          	jal	t4,fffddca2 <_end+0xfffdb3b2>
    26bc:	deadbeef          	jal	t4,fffddca6 <_end+0xfffdb3b6>
    26c0:	deadbeef          	jal	t4,fffddcaa <_end+0xfffdb3ba>
    26c4:	deadbeef          	jal	t4,fffddcae <_end+0xfffdb3be>
    26c8:	deadbeef          	jal	t4,fffddcb2 <_end+0xfffdb3c2>
    26cc:	deadbeef          	jal	t4,fffddcb6 <_end+0xfffdb3c6>
    26d0:	deadbeef          	jal	t4,fffddcba <_end+0xfffdb3ca>
    26d4:	deadbeef          	jal	t4,fffddcbe <_end+0xfffdb3ce>
    26d8:	deadbeef          	jal	t4,fffddcc2 <_end+0xfffdb3d2>
    26dc:	deadbeef          	jal	t4,fffddcc6 <_end+0xfffdb3d6>
    26e0:	deadbeef          	jal	t4,fffddcca <_end+0xfffdb3da>
    26e4:	deadbeef          	jal	t4,fffddcce <_end+0xfffdb3de>
    26e8:	deadbeef          	jal	t4,fffddcd2 <_end+0xfffdb3e2>
    26ec:	deadbeef          	jal	t4,fffddcd6 <_end+0xfffdb3e6>
    26f0:	deadbeef          	jal	t4,fffddcda <_end+0xfffdb3ea>
    26f4:	deadbeef          	jal	t4,fffddcde <_end+0xfffdb3ee>
    26f8:	deadbeef          	jal	t4,fffddce2 <_end+0xfffdb3f2>
    26fc:	deadbeef          	jal	t4,fffddce6 <_end+0xfffdb3f6>
    2700:	deadbeef          	jal	t4,fffddcea <_end+0xfffdb3fa>
    2704:	deadbeef          	jal	t4,fffddcee <_end+0xfffdb3fe>
    2708:	deadbeef          	jal	t4,fffddcf2 <_end+0xfffdb402>
    270c:	deadbeef          	jal	t4,fffddcf6 <_end+0xfffdb406>
    2710:	deadbeef          	jal	t4,fffddcfa <_end+0xfffdb40a>
    2714:	deadbeef          	jal	t4,fffddcfe <_end+0xfffdb40e>
    2718:	deadbeef          	jal	t4,fffddd02 <_end+0xfffdb412>
    271c:	deadbeef          	jal	t4,fffddd06 <_end+0xfffdb416>
    2720:	deadbeef          	jal	t4,fffddd0a <_end+0xfffdb41a>
    2724:	deadbeef          	jal	t4,fffddd0e <_end+0xfffdb41e>
    2728:	deadbeef          	jal	t4,fffddd12 <_end+0xfffdb422>
    272c:	deadbeef          	jal	t4,fffddd16 <_end+0xfffdb426>
    2730:	deadbeef          	jal	t4,fffddd1a <_end+0xfffdb42a>
    2734:	deadbeef          	jal	t4,fffddd1e <_end+0xfffdb42e>
    2738:	deadbeef          	jal	t4,fffddd22 <_end+0xfffdb432>
    273c:	deadbeef          	jal	t4,fffddd26 <_end+0xfffdb436>
    2740:	deadbeef          	jal	t4,fffddd2a <_end+0xfffdb43a>
    2744:	deadbeef          	jal	t4,fffddd2e <_end+0xfffdb43e>
    2748:	deadbeef          	jal	t4,fffddd32 <_end+0xfffdb442>
    274c:	deadbeef          	jal	t4,fffddd36 <_end+0xfffdb446>
    2750:	deadbeef          	jal	t4,fffddd3a <_end+0xfffdb44a>
    2754:	deadbeef          	jal	t4,fffddd3e <_end+0xfffdb44e>
    2758:	deadbeef          	jal	t4,fffddd42 <_end+0xfffdb452>
    275c:	deadbeef          	jal	t4,fffddd46 <_end+0xfffdb456>
    2760:	deadbeef          	jal	t4,fffddd4a <_end+0xfffdb45a>
    2764:	deadbeef          	jal	t4,fffddd4e <_end+0xfffdb45e>
    2768:	deadbeef          	jal	t4,fffddd52 <_end+0xfffdb462>
    276c:	deadbeef          	jal	t4,fffddd56 <_end+0xfffdb466>
    2770:	deadbeef          	jal	t4,fffddd5a <_end+0xfffdb46a>
    2774:	deadbeef          	jal	t4,fffddd5e <_end+0xfffdb46e>
    2778:	deadbeef          	jal	t4,fffddd62 <_end+0xfffdb472>
    277c:	deadbeef          	jal	t4,fffddd66 <_end+0xfffdb476>
    2780:	deadbeef          	jal	t4,fffddd6a <_end+0xfffdb47a>
    2784:	deadbeef          	jal	t4,fffddd6e <_end+0xfffdb47e>
    2788:	deadbeef          	jal	t4,fffddd72 <_end+0xfffdb482>
    278c:	deadbeef          	jal	t4,fffddd76 <_end+0xfffdb486>
    2790:	deadbeef          	jal	t4,fffddd7a <_end+0xfffdb48a>
    2794:	deadbeef          	jal	t4,fffddd7e <_end+0xfffdb48e>
    2798:	deadbeef          	jal	t4,fffddd82 <_end+0xfffdb492>
    279c:	deadbeef          	jal	t4,fffddd86 <_end+0xfffdb496>
    27a0:	deadbeef          	jal	t4,fffddd8a <_end+0xfffdb49a>
    27a4:	deadbeef          	jal	t4,fffddd8e <_end+0xfffdb49e>
    27a8:	deadbeef          	jal	t4,fffddd92 <_end+0xfffdb4a2>
    27ac:	deadbeef          	jal	t4,fffddd96 <_end+0xfffdb4a6>
    27b0:	deadbeef          	jal	t4,fffddd9a <_end+0xfffdb4aa>
    27b4:	deadbeef          	jal	t4,fffddd9e <_end+0xfffdb4ae>
    27b8:	deadbeef          	jal	t4,fffddda2 <_end+0xfffdb4b2>
    27bc:	deadbeef          	jal	t4,fffddda6 <_end+0xfffdb4b6>
    27c0:	deadbeef          	jal	t4,fffdddaa <_end+0xfffdb4ba>
    27c4:	deadbeef          	jal	t4,fffdddae <_end+0xfffdb4be>
    27c8:	deadbeef          	jal	t4,fffdddb2 <_end+0xfffdb4c2>
    27cc:	deadbeef          	jal	t4,fffdddb6 <_end+0xfffdb4c6>
    27d0:	deadbeef          	jal	t4,fffdddba <_end+0xfffdb4ca>
    27d4:	deadbeef          	jal	t4,fffdddbe <_end+0xfffdb4ce>
    27d8:	deadbeef          	jal	t4,fffdddc2 <_end+0xfffdb4d2>
    27dc:	deadbeef          	jal	t4,fffdddc6 <_end+0xfffdb4d6>
    27e0:	deadbeef          	jal	t4,fffdddca <_end+0xfffdb4da>
    27e4:	deadbeef          	jal	t4,fffdddce <_end+0xfffdb4de>
    27e8:	deadbeef          	jal	t4,fffdddd2 <_end+0xfffdb4e2>
    27ec:	deadbeef          	jal	t4,fffdddd6 <_end+0xfffdb4e6>
    27f0:	deadbeef          	jal	t4,fffdddda <_end+0xfffdb4ea>
    27f4:	deadbeef          	jal	t4,fffdddde <_end+0xfffdb4ee>
    27f8:	deadbeef          	jal	t4,fffddde2 <_end+0xfffdb4f2>
    27fc:	deadbeef          	jal	t4,fffddde6 <_end+0xfffdb4f6>
    2800:	deadbeef          	jal	t4,fffdddea <_end+0xfffdb4fa>
    2804:	deadbeef          	jal	t4,fffdddee <_end+0xfffdb4fe>
    2808:	deadbeef          	jal	t4,fffdddf2 <_end+0xfffdb502>
    280c:	deadbeef          	jal	t4,fffdddf6 <_end+0xfffdb506>
    2810:	deadbeef          	jal	t4,fffdddfa <_end+0xfffdb50a>
    2814:	deadbeef          	jal	t4,fffdddfe <_end+0xfffdb50e>
    2818:	deadbeef          	jal	t4,fffdde02 <_end+0xfffdb512>
    281c:	deadbeef          	jal	t4,fffdde06 <_end+0xfffdb516>
    2820:	deadbeef          	jal	t4,fffdde0a <_end+0xfffdb51a>
    2824:	deadbeef          	jal	t4,fffdde0e <_end+0xfffdb51e>
    2828:	deadbeef          	jal	t4,fffdde12 <_end+0xfffdb522>
    282c:	deadbeef          	jal	t4,fffdde16 <_end+0xfffdb526>
    2830:	deadbeef          	jal	t4,fffdde1a <_end+0xfffdb52a>
    2834:	deadbeef          	jal	t4,fffdde1e <_end+0xfffdb52e>
    2838:	deadbeef          	jal	t4,fffdde22 <_end+0xfffdb532>
    283c:	deadbeef          	jal	t4,fffdde26 <_end+0xfffdb536>
    2840:	deadbeef          	jal	t4,fffdde2a <_end+0xfffdb53a>
    2844:	deadbeef          	jal	t4,fffdde2e <_end+0xfffdb53e>
    2848:	deadbeef          	jal	t4,fffdde32 <_end+0xfffdb542>
    284c:	deadbeef          	jal	t4,fffdde36 <_end+0xfffdb546>
    2850:	deadbeef          	jal	t4,fffdde3a <_end+0xfffdb54a>
    2854:	deadbeef          	jal	t4,fffdde3e <_end+0xfffdb54e>
    2858:	deadbeef          	jal	t4,fffdde42 <_end+0xfffdb552>
    285c:	deadbeef          	jal	t4,fffdde46 <_end+0xfffdb556>
    2860:	deadbeef          	jal	t4,fffdde4a <_end+0xfffdb55a>
    2864:	deadbeef          	jal	t4,fffdde4e <_end+0xfffdb55e>
    2868:	deadbeef          	jal	t4,fffdde52 <_end+0xfffdb562>
    286c:	deadbeef          	jal	t4,fffdde56 <_end+0xfffdb566>
    2870:	deadbeef          	jal	t4,fffdde5a <_end+0xfffdb56a>
    2874:	deadbeef          	jal	t4,fffdde5e <_end+0xfffdb56e>
    2878:	deadbeef          	jal	t4,fffdde62 <_end+0xfffdb572>
    287c:	deadbeef          	jal	t4,fffdde66 <_end+0xfffdb576>
    2880:	deadbeef          	jal	t4,fffdde6a <_end+0xfffdb57a>
    2884:	deadbeef          	jal	t4,fffdde6e <_end+0xfffdb57e>
    2888:	deadbeef          	jal	t4,fffdde72 <_end+0xfffdb582>
    288c:	deadbeef          	jal	t4,fffdde76 <_end+0xfffdb586>
    2890:	deadbeef          	jal	t4,fffdde7a <_end+0xfffdb58a>
    2894:	deadbeef          	jal	t4,fffdde7e <_end+0xfffdb58e>
    2898:	deadbeef          	jal	t4,fffdde82 <_end+0xfffdb592>
    289c:	deadbeef          	jal	t4,fffdde86 <_end+0xfffdb596>
    28a0:	deadbeef          	jal	t4,fffdde8a <_end+0xfffdb59a>
    28a4:	deadbeef          	jal	t4,fffdde8e <_end+0xfffdb59e>
    28a8:	deadbeef          	jal	t4,fffdde92 <_end+0xfffdb5a2>
    28ac:	deadbeef          	jal	t4,fffdde96 <_end+0xfffdb5a6>
    28b0:	deadbeef          	jal	t4,fffdde9a <_end+0xfffdb5aa>
    28b4:	deadbeef          	jal	t4,fffdde9e <_end+0xfffdb5ae>
    28b8:	deadbeef          	jal	t4,fffddea2 <_end+0xfffdb5b2>
    28bc:	deadbeef          	jal	t4,fffddea6 <_end+0xfffdb5b6>
    28c0:	deadbeef          	jal	t4,fffddeaa <_end+0xfffdb5ba>
    28c4:	deadbeef          	jal	t4,fffddeae <_end+0xfffdb5be>
    28c8:	deadbeef          	jal	t4,fffddeb2 <_end+0xfffdb5c2>
    28cc:	deadbeef          	jal	t4,fffddeb6 <_end+0xfffdb5c6>
    28d0:	deadbeef          	jal	t4,fffddeba <_end+0xfffdb5ca>
    28d4:	deadbeef          	jal	t4,fffddebe <_end+0xfffdb5ce>
    28d8:	deadbeef          	jal	t4,fffddec2 <_end+0xfffdb5d2>
    28dc:	deadbeef          	jal	t4,fffddec6 <_end+0xfffdb5d6>
    28e0:	deadbeef          	jal	t4,fffddeca <_end+0xfffdb5da>
    28e4:	deadbeef          	jal	t4,fffddece <_end+0xfffdb5de>
    28e8:	deadbeef          	jal	t4,fffdded2 <_end+0xfffdb5e2>
    28ec:	deadbeef          	jal	t4,fffdded6 <_end+0xfffdb5e6>

Desensamblado de la sección .riscv.attributes:

00000000 <.riscv.attributes>:
   0:	2241                	.2byte	0x2241
   2:	0000                	.2byte	0x0
   4:	7200                	.2byte	0x7200
   6:	7369                	.2byte	0x7369
   8:	01007663          	bgeu	zero,a6,14 <rvtest_entry_point+0x14>
   c:	0018                	.2byte	0x18
   e:	0000                	.2byte	0x0
  10:	7205                	.2byte	0x7205
  12:	3376                	.2byte	0x3376
  14:	6932                	.2byte	0x6932
  16:	7032                	.2byte	0x7032
  18:	5f30                	.2byte	0x5f30
  1a:	3266                	.2byte	0x3266
  1c:	3070                	.2byte	0x3070
  1e:	0800                	.2byte	0x800
  20:	0a01                	.2byte	0xa01
  22:	0b              	Address 0x22 is out of bounds.

