
/home/alejandro/Escritorio/test_riscv2.5/riscv-compliance/work/rv32i_m/F/fdiv_b20-01.elf:     formato del fichero elf32-littleriscv


Desensamblado de la sección .text.init:

00000000 <rvtest_entry_point>:
   0:	feedc0b7          	lui	ra,0xfeedc
   4:	ead08093          	add	ra,ra,-339 # feedbead <_end+0xfeeda81d>
   8:	ff76e137          	lui	sp,0xff76e
   c:	f5610113          	add	sp,sp,-170 # ff76df56 <_end+0xff76c8c6>
  10:	7fbb71b7          	lui	gp,0x7fbb7
  14:	fab18193          	add	gp,gp,-85 # 7fbb6fab <_end+0x7fbb591b>
  18:	bfddb237          	lui	tp,0xbfddb
  1c:	7d520213          	add	tp,tp,2005 # bfddb7d5 <_end+0xbfdda145>
  20:	00000297          	auipc	t0,0x0
  24:	0d828293          	add	t0,t0,216 # f8 <rvtest_code_begin>
  28:	00001317          	auipc	t1,0x1
  2c:	fd830313          	add	t1,t1,-40 # 1000 <rvtest_data_begin>
  30:	b7fbb3b7          	lui	t2,0xb7fbb
  34:	6fa38393          	add	t2,t2,1786 # b7fbb6fa <_end+0xb7fba06a>
  38:	5bfde437          	lui	s0,0x5bfde
  3c:	b7d40413          	add	s0,s0,-1155 # 5bfddb7d <_end+0x5bfdc4ed>
  40:	adfef4b7          	lui	s1,0xadfef
  44:	dbe48493          	add	s1,s1,-578 # adfeedbe <_end+0xadfed72e>
  48:	56ff7537          	lui	a0,0x56ff7
  4c:	6df50513          	add	a0,a0,1759 # 56ff76df <_end+0x56ff604f>
  50:	ab7fc5b7          	lui	a1,0xab7fc
  54:	b6f58593          	add	a1,a1,-1169 # ab7fbb6f <_end+0xab7fa4df>
  58:	d5bfe637          	lui	a2,0xd5bfe
  5c:	db760613          	add	a2,a2,-585 # d5bfddb7 <_end+0xd5bfc727>
  60:	eadff6b7          	lui	a3,0xeadff
  64:	edb68693          	add	a3,a3,-293 # eadfeedb <_end+0xeadfd84b>
  68:	f56ff737          	lui	a4,0xf56ff
  6c:	76d70713          	add	a4,a4,1901 # f56ff76d <_end+0xf56fe0dd>
  70:	fab807b7          	lui	a5,0xfab80
  74:	bb678793          	add	a5,a5,-1098 # fab7fbb6 <_end+0xfab7e526>
  78:	7d5c0837          	lui	a6,0x7d5c0
  7c:	ddb80813          	add	a6,a6,-549 # 7d5bfddb <_end+0x7d5be74b>
  80:	beae08b7          	lui	a7,0xbeae0
  84:	eed88893          	add	a7,a7,-275 # beadfeed <_end+0xbeade85d>
  88:	df570937          	lui	s2,0xdf570
  8c:	f7690913          	add	s2,s2,-138 # df56ff76 <_end+0xdf56e8e6>
  90:	6fab89b7          	lui	s3,0x6fab8
  94:	fbb98993          	add	s3,s3,-69 # 6fab7fbb <_end+0x6fab692b>
  98:	b7d5ca37          	lui	s4,0xb7d5c
  9c:	fdda0a13          	add	s4,s4,-35 # b7d5bfdd <_end+0xb7d5a94d>
  a0:	dbeaeab7          	lui	s5,0xdbeae
  a4:	feea8a93          	add	s5,s5,-18 # dbeadfee <_end+0xdbeac95e>
  a8:	6df57b37          	lui	s6,0x6df57
  ac:	ff7b0b13          	add	s6,s6,-9 # 6df56ff7 <_end+0x6df55967>
  b0:	b6fabbb7          	lui	s7,0xb6fab
  b4:	7fbb8b93          	add	s7,s7,2043 # b6fab7fb <_end+0xb6faa16b>
  b8:	db7d6c37          	lui	s8,0xdb7d6
  bc:	bfdc0c13          	add	s8,s8,-1027 # db7d5bfd <_end+0xdb7d456d>
  c0:	edbebcb7          	lui	s9,0xedbeb
  c4:	dfec8c93          	add	s9,s9,-514 # edbeadfe <_end+0xedbe976e>
  c8:	76df5d37          	lui	s10,0x76df5
  cc:	6ffd0d13          	add	s10,s10,1791 # 76df56ff <_end+0x76df406f>
  d0:	bb6fbdb7          	lui	s11,0xbb6fb
  d4:	b7fd8d93          	add	s11,s11,-1153 # bb6fab7f <_end+0xbb6f94ef>
  d8:	ddb7de37          	lui	t3,0xddb7d
  dc:	5bfe0e13          	add	t3,t3,1471 # ddb7d5bf <_end+0xddb7bf2f>
  e0:	eedbfeb7          	lui	t4,0xeedbf
  e4:	adfe8e93          	add	t4,t4,-1313 # eedbeadf <_end+0xeedbd44f>
  e8:	f76dff37          	lui	t5,0xf76df
  ec:	56ff0f13          	add	t5,t5,1391 # f76df56f <_end+0xf76ddedf>
  f0:	fbb70fb7          	lui	t6,0xfbb70
  f4:	ab7f8f93          	add	t6,t6,-1353 # fbb6fab7 <_end+0xfbb6e427>

000000f8 <rvtest_code_begin>:
  f8:	00002537          	lui	a0,0x2
  fc:	30052073          	csrs	mstatus,a0
 100:	00001817          	auipc	a6,0x1
 104:	f0480813          	add	a6,a6,-252 # 1004 <test_fp>
 108:	00001797          	auipc	a5,0x1
 10c:	24878793          	add	a5,a5,584 # 1350 <data_begin>

00000110 <inst_0>:
 110:	00082787          	flw	fa5,0(a6)
 114:	00482d07          	flw	fs10,4(a6)
 118:	00205073          	fsrmi	zero,0
 11c:	19a7f7d3          	fdiv.s	fa5,fa5,fs10
 120:	001028f3          	frflags	a7
 124:	00f7a027          	fsw	fa5,0(a5)
 128:	0117a223          	sw	a7,4(a5)

0000012c <inst_1>:
 12c:	00882307          	flw	ft6,8(a6)
 130:	00c82987          	flw	fs3,12(a6)
 134:	00205073          	fsrmi	zero,0
 138:	193378d3          	fdiv.s	fa7,ft6,fs3
 13c:	001028f3          	frflags	a7
 140:	0117a427          	fsw	fa7,8(a5)
 144:	0117a623          	sw	a7,12(a5)

00000148 <inst_2>:
 148:	01082587          	flw	fa1,16(a6)
 14c:	01482587          	flw	fa1,20(a6)
 150:	00205073          	fsrmi	zero,0
 154:	18b5f5d3          	fdiv.s	fa1,fa1,fa1
 158:	001028f3          	frflags	a7
 15c:	00b7a827          	fsw	fa1,16(a5)
 160:	0117aa23          	sw	a7,20(a5)

00000164 <inst_3>:
 164:	01882187          	flw	ft3,24(a6)
 168:	01c82187          	flw	ft3,28(a6)
 16c:	00205073          	fsrmi	zero,0
 170:	1831f253          	fdiv.s	ft4,ft3,ft3
 174:	001028f3          	frflags	a7
 178:	0047ac27          	fsw	ft4,24(a5)
 17c:	0117ae23          	sw	a7,28(a5)

00000180 <inst_4>:
 180:	02082a87          	flw	fs5,32(a6)
 184:	02482687          	flw	fa3,36(a6)
 188:	00205073          	fsrmi	zero,0
 18c:	18daf6d3          	fdiv.s	fa3,fs5,fa3
 190:	001028f3          	frflags	a7
 194:	02d7a027          	fsw	fa3,32(a5)
 198:	0317a223          	sw	a7,36(a5)

0000019c <inst_5>:
 19c:	02882e87          	flw	ft9,40(a6)
 1a0:	02c82087          	flw	ft1,44(a6)
 1a4:	00205073          	fsrmi	zero,0
 1a8:	181ef9d3          	fdiv.s	fs3,ft9,ft1
 1ac:	001028f3          	frflags	a7
 1b0:	0337a427          	fsw	fs3,40(a5)
 1b4:	0317a623          	sw	a7,44(a5)

000001b8 <inst_6>:
 1b8:	03082c07          	flw	fs8,48(a6)
 1bc:	03482a07          	flw	fs4,52(a6)
 1c0:	00205073          	fsrmi	zero,0
 1c4:	194c74d3          	fdiv.s	fs1,fs8,fs4
 1c8:	001028f3          	frflags	a7
 1cc:	0297a827          	fsw	fs1,48(a5)
 1d0:	0317aa23          	sw	a7,52(a5)

000001d4 <inst_7>:
 1d4:	03882287          	flw	ft5,56(a6)
 1d8:	03c82307          	flw	ft6,60(a6)
 1dc:	00205073          	fsrmi	zero,0
 1e0:	1862f953          	fdiv.s	fs2,ft5,ft6
 1e4:	001028f3          	frflags	a7
 1e8:	0327ac27          	fsw	fs2,56(a5)
 1ec:	0317ae23          	sw	a7,60(a5)

000001f0 <inst_8>:
 1f0:	04082607          	flw	fa2,64(a6)
 1f4:	04482f07          	flw	ft10,68(a6)
 1f8:	00205073          	fsrmi	zero,0
 1fc:	19e67453          	fdiv.s	fs0,fa2,ft10
 200:	001028f3          	frflags	a7
 204:	0487a027          	fsw	fs0,64(a5)
 208:	0517a223          	sw	a7,68(a5)

0000020c <inst_9>:
 20c:	04882087          	flw	ft1,72(a6)
 210:	04c82607          	flw	fa2,76(a6)
 214:	00205073          	fsrmi	zero,0
 218:	18c0ffd3          	fdiv.s	ft11,ft1,fa2
 21c:	001028f3          	frflags	a7
 220:	05f7a427          	fsw	ft11,72(a5)
 224:	0517a623          	sw	a7,76(a5)

00000228 <inst_10>:
 228:	05082807          	flw	fa6,80(a6)
 22c:	05482e07          	flw	ft8,84(a6)
 230:	00205073          	fsrmi	zero,0
 234:	19c87bd3          	fdiv.s	fs7,fa6,ft8
 238:	001028f3          	frflags	a7
 23c:	0577a827          	fsw	fs7,80(a5)
 240:	0517aa23          	sw	a7,84(a5)

00000244 <inst_11>:
 244:	05882f87          	flw	ft11,88(a6)
 248:	05c82407          	flw	fs0,92(a6)
 24c:	00205073          	fsrmi	zero,0
 250:	188ffe53          	fdiv.s	ft8,ft11,fs0
 254:	001028f3          	frflags	a7
 258:	05c7ac27          	fsw	ft8,88(a5)
 25c:	0517ae23          	sw	a7,92(a5)

00000260 <inst_12>:
 260:	06082d87          	flw	fs11,96(a6)
 264:	06482507          	flw	fa0,100(a6)
 268:	00205073          	fsrmi	zero,0
 26c:	18adf3d3          	fdiv.s	ft7,fs11,fa0
 270:	001028f3          	frflags	a7
 274:	0677a027          	fsw	ft7,96(a5)
 278:	0717a223          	sw	a7,100(a5)

0000027c <inst_13>:
 27c:	06882107          	flw	ft2,104(a6)
 280:	06c82b07          	flw	fs6,108(a6)
 284:	00205073          	fsrmi	zero,0
 288:	19617dd3          	fdiv.s	fs11,ft2,fs6
 28c:	001028f3          	frflags	a7
 290:	07b7a427          	fsw	fs11,104(a5)
 294:	0717a623          	sw	a7,108(a5)

00000298 <inst_14>:
 298:	07082987          	flw	fs3,112(a6)
 29c:	07482387          	flw	ft7,116(a6)
 2a0:	00205073          	fsrmi	zero,0
 2a4:	1879f653          	fdiv.s	fa2,fs3,ft7
 2a8:	001028f3          	frflags	a7
 2ac:	06c7a827          	fsw	fa2,112(a5)
 2b0:	0717aa23          	sw	a7,116(a5)

000002b4 <inst_15>:
 2b4:	07882d07          	flw	fs10,120(a6)
 2b8:	07c82487          	flw	fs1,124(a6)
 2bc:	00205073          	fsrmi	zero,0
 2c0:	189d7f53          	fdiv.s	ft10,fs10,fs1
 2c4:	001028f3          	frflags	a7
 2c8:	07e7ac27          	fsw	ft10,120(a5)
 2cc:	0717ae23          	sw	a7,124(a5)

000002d0 <inst_16>:
 2d0:	08082007          	flw	ft0,128(a6)
 2d4:	08482c07          	flw	fs8,132(a6)
 2d8:	00205073          	fsrmi	zero,0
 2dc:	198071d3          	fdiv.s	ft3,ft0,fs8
 2e0:	001028f3          	frflags	a7
 2e4:	0837a027          	fsw	ft3,128(a5)
 2e8:	0917a223          	sw	a7,132(a5)

000002ec <inst_17>:
 2ec:	08882707          	flw	fa4,136(a6)
 2f0:	08c82787          	flw	fa5,140(a6)
 2f4:	00205073          	fsrmi	zero,0
 2f8:	18f77553          	fdiv.s	fa0,fa4,fa5
 2fc:	001028f3          	frflags	a7
 300:	08a7a427          	fsw	fa0,136(a5)
 304:	0917a623          	sw	a7,140(a5)

00000308 <inst_18>:
 308:	09082387          	flw	ft7,144(a6)
 30c:	09482807          	flw	fa6,148(a6)
 310:	00205073          	fsrmi	zero,0
 314:	1903fcd3          	fdiv.s	fs9,ft7,fa6
 318:	001028f3          	frflags	a7
 31c:	0997a827          	fsw	fs9,144(a5)
 320:	0917aa23          	sw	a7,148(a5)

00000324 <inst_19>:
 324:	09882687          	flw	fa3,152(a6)
 328:	09c82287          	flw	ft5,156(a6)
 32c:	00205073          	fsrmi	zero,0
 330:	1856f353          	fdiv.s	ft6,fa3,ft5
 334:	001028f3          	frflags	a7
 338:	0867ac27          	fsw	ft6,152(a5)
 33c:	0917ae23          	sw	a7,156(a5)

00000340 <inst_20>:
 340:	0a082b87          	flw	fs7,160(a6)
 344:	0a482887          	flw	fa7,164(a6)
 348:	00205073          	fsrmi	zero,0
 34c:	191bfc53          	fdiv.s	fs8,fs7,fa7
 350:	001028f3          	frflags	a7
 354:	0b87a027          	fsw	fs8,160(a5)
 358:	0b17a223          	sw	a7,164(a5)

0000035c <inst_21>:
 35c:	0a882887          	flw	fa7,168(a6)
 360:	0ac82e87          	flw	ft9,172(a6)
 364:	00205073          	fsrmi	zero,0
 368:	19d8fd53          	fdiv.s	fs10,fa7,ft9
 36c:	001028f3          	frflags	a7
 370:	0ba7a427          	fsw	fs10,168(a5)
 374:	0b17a623          	sw	a7,172(a5)

00000378 <inst_22>:
 378:	0b082207          	flw	ft4,176(a6)
 37c:	0b482107          	flw	ft2,180(a6)
 380:	00205073          	fsrmi	zero,0
 384:	18227853          	fdiv.s	fa6,ft4,ft2
 388:	001028f3          	frflags	a7
 38c:	0b07a827          	fsw	fa6,176(a5)
 390:	0b17aa23          	sw	a7,180(a5)

00000394 <inst_23>:
 394:	0b882f07          	flw	ft10,184(a6)
 398:	0bc82907          	flw	fs2,188(a6)
 39c:	00205073          	fsrmi	zero,0
 3a0:	192f7b53          	fdiv.s	fs6,ft10,fs2
 3a4:	001028f3          	frflags	a7
 3a8:	0b67ac27          	fsw	fs6,184(a5)
 3ac:	0b17ae23          	sw	a7,188(a5)

000003b0 <inst_24>:
 3b0:	0c082c87          	flw	fs9,192(a6)
 3b4:	0c482007          	flw	ft0,196(a6)
 3b8:	00205073          	fsrmi	zero,0
 3bc:	180cf753          	fdiv.s	fa4,fs9,ft0
 3c0:	001028f3          	frflags	a7
 3c4:	0ce7a027          	fsw	fa4,192(a5)
 3c8:	0d17a223          	sw	a7,196(a5)

000003cc <inst_25>:
 3cc:	0c882b07          	flw	fs6,200(a6)
 3d0:	0cc82207          	flw	ft4,204(a6)
 3d4:	00205073          	fsrmi	zero,0
 3d8:	184b7053          	fdiv.s	ft0,fs6,ft4
 3dc:	001028f3          	frflags	a7
 3e0:	0c07a427          	fsw	ft0,200(a5)
 3e4:	0d17a623          	sw	a7,204(a5)

000003e8 <inst_26>:
 3e8:	0d082907          	flw	fs2,208(a6)
 3ec:	0d482b87          	flw	fs7,212(a6)
 3f0:	00205073          	fsrmi	zero,0
 3f4:	19797ad3          	fdiv.s	fs5,fs2,fs7
 3f8:	001028f3          	frflags	a7
 3fc:	0d57a827          	fsw	fs5,208(a5)
 400:	0d17aa23          	sw	a7,212(a5)

00000404 <inst_27>:
 404:	0d882407          	flw	fs0,216(a6)
 408:	0dc82a87          	flw	fs5,220(a6)
 40c:	00205073          	fsrmi	zero,0
 410:	19547153          	fdiv.s	ft2,fs0,fs5
 414:	001028f3          	frflags	a7
 418:	0c27ac27          	fsw	ft2,216(a5)
 41c:	0d17ae23          	sw	a7,220(a5)

00000420 <inst_28>:
 420:	0e082e07          	flw	ft8,224(a6)
 424:	0e482d87          	flw	fs11,228(a6)
 428:	00205073          	fsrmi	zero,0
 42c:	19be72d3          	fdiv.s	ft5,ft8,fs11
 430:	001028f3          	frflags	a7
 434:	0e57a027          	fsw	ft5,224(a5)
 438:	0f17a223          	sw	a7,228(a5)

0000043c <inst_29>:
 43c:	0e882a07          	flw	fs4,232(a6)
 440:	0ec82f87          	flw	ft11,236(a6)
 444:	00205073          	fsrmi	zero,0
 448:	19fa70d3          	fdiv.s	ft1,fs4,ft11
 44c:	001028f3          	frflags	a7
 450:	0e17a427          	fsw	ft1,232(a5)
 454:	0f17a623          	sw	a7,236(a5)

00000458 <inst_30>:
 458:	0f082487          	flw	fs1,240(a6)
 45c:	0f482c87          	flw	fs9,244(a6)
 460:	00205073          	fsrmi	zero,0
 464:	1994fed3          	fdiv.s	ft9,fs1,fs9
 468:	001028f3          	frflags	a7
 46c:	0fd7a827          	fsw	ft9,240(a5)
 470:	0f17aa23          	sw	a7,244(a5)

00000474 <inst_31>:
 474:	0f882507          	flw	fa0,248(a6)
 478:	0fc82707          	flw	fa4,252(a6)
 47c:	00205073          	fsrmi	zero,0
 480:	18e57a53          	fdiv.s	fs4,fa0,fa4
 484:	001028f3          	frflags	a7
 488:	0f47ac27          	fsw	fs4,248(a5)
 48c:	0f17ae23          	sw	a7,252(a5)

00000490 <inst_32>:
 490:	10082507          	flw	fa0,256(a6)
 494:	10482587          	flw	fa1,260(a6)
 498:	00205073          	fsrmi	zero,0
 49c:	18b57653          	fdiv.s	fa2,fa0,fa1
 4a0:	001028f3          	frflags	a7
 4a4:	10c7a027          	fsw	fa2,256(a5)
 4a8:	1117a223          	sw	a7,260(a5)

000004ac <inst_33>:
 4ac:	10882507          	flw	fa0,264(a6)
 4b0:	10c82587          	flw	fa1,268(a6)
 4b4:	00205073          	fsrmi	zero,0
 4b8:	18b57653          	fdiv.s	fa2,fa0,fa1
 4bc:	001028f3          	frflags	a7
 4c0:	10c7a427          	fsw	fa2,264(a5)
 4c4:	1117a623          	sw	a7,268(a5)

000004c8 <inst_34>:
 4c8:	11082507          	flw	fa0,272(a6)
 4cc:	11482587          	flw	fa1,276(a6)
 4d0:	00205073          	fsrmi	zero,0
 4d4:	18b57653          	fdiv.s	fa2,fa0,fa1
 4d8:	001028f3          	frflags	a7
 4dc:	10c7a827          	fsw	fa2,272(a5)
 4e0:	1117aa23          	sw	a7,276(a5)

000004e4 <inst_35>:
 4e4:	11882507          	flw	fa0,280(a6)
 4e8:	11c82587          	flw	fa1,284(a6)
 4ec:	00205073          	fsrmi	zero,0
 4f0:	18b57653          	fdiv.s	fa2,fa0,fa1
 4f4:	001028f3          	frflags	a7
 4f8:	10c7ac27          	fsw	fa2,280(a5)
 4fc:	1117ae23          	sw	a7,284(a5)

00000500 <inst_36>:
 500:	12082507          	flw	fa0,288(a6)
 504:	12482587          	flw	fa1,292(a6)
 508:	00205073          	fsrmi	zero,0
 50c:	18b57653          	fdiv.s	fa2,fa0,fa1
 510:	001028f3          	frflags	a7
 514:	12c7a027          	fsw	fa2,288(a5)
 518:	1317a223          	sw	a7,292(a5)

0000051c <inst_37>:
 51c:	12882507          	flw	fa0,296(a6)
 520:	12c82587          	flw	fa1,300(a6)
 524:	00205073          	fsrmi	zero,0
 528:	18b57653          	fdiv.s	fa2,fa0,fa1
 52c:	001028f3          	frflags	a7
 530:	12c7a427          	fsw	fa2,296(a5)
 534:	1317a623          	sw	a7,300(a5)

00000538 <inst_38>:
 538:	13082507          	flw	fa0,304(a6)
 53c:	13482587          	flw	fa1,308(a6)
 540:	00205073          	fsrmi	zero,0
 544:	18b57653          	fdiv.s	fa2,fa0,fa1
 548:	001028f3          	frflags	a7
 54c:	12c7a827          	fsw	fa2,304(a5)
 550:	1317aa23          	sw	a7,308(a5)

00000554 <inst_39>:
 554:	13882507          	flw	fa0,312(a6)
 558:	13c82587          	flw	fa1,316(a6)
 55c:	00205073          	fsrmi	zero,0
 560:	18b57653          	fdiv.s	fa2,fa0,fa1
 564:	001028f3          	frflags	a7
 568:	12c7ac27          	fsw	fa2,312(a5)
 56c:	1317ae23          	sw	a7,316(a5)

00000570 <inst_40>:
 570:	14082507          	flw	fa0,320(a6)
 574:	14482587          	flw	fa1,324(a6)
 578:	00205073          	fsrmi	zero,0
 57c:	18b57653          	fdiv.s	fa2,fa0,fa1
 580:	001028f3          	frflags	a7
 584:	14c7a027          	fsw	fa2,320(a5)
 588:	1517a223          	sw	a7,324(a5)

0000058c <inst_41>:
 58c:	14882507          	flw	fa0,328(a6)
 590:	14c82587          	flw	fa1,332(a6)
 594:	00205073          	fsrmi	zero,0
 598:	18b57653          	fdiv.s	fa2,fa0,fa1
 59c:	001028f3          	frflags	a7
 5a0:	14c7a427          	fsw	fa2,328(a5)
 5a4:	1517a623          	sw	a7,332(a5)

000005a8 <inst_42>:
 5a8:	15082507          	flw	fa0,336(a6)
 5ac:	15482587          	flw	fa1,340(a6)
 5b0:	00205073          	fsrmi	zero,0
 5b4:	18b57653          	fdiv.s	fa2,fa0,fa1
 5b8:	001028f3          	frflags	a7
 5bc:	14c7a827          	fsw	fa2,336(a5)
 5c0:	1517aa23          	sw	a7,340(a5)

000005c4 <inst_43>:
 5c4:	15882507          	flw	fa0,344(a6)
 5c8:	15c82587          	flw	fa1,348(a6)
 5cc:	00205073          	fsrmi	zero,0
 5d0:	18b57653          	fdiv.s	fa2,fa0,fa1
 5d4:	001028f3          	frflags	a7
 5d8:	14c7ac27          	fsw	fa2,344(a5)
 5dc:	1517ae23          	sw	a7,348(a5)

000005e0 <inst_44>:
 5e0:	16082507          	flw	fa0,352(a6)
 5e4:	16482587          	flw	fa1,356(a6)
 5e8:	00205073          	fsrmi	zero,0
 5ec:	18b57653          	fdiv.s	fa2,fa0,fa1
 5f0:	001028f3          	frflags	a7
 5f4:	16c7a027          	fsw	fa2,352(a5)
 5f8:	1717a223          	sw	a7,356(a5)

000005fc <inst_45>:
 5fc:	16882507          	flw	fa0,360(a6)
 600:	16c82587          	flw	fa1,364(a6)
 604:	00205073          	fsrmi	zero,0
 608:	18b57653          	fdiv.s	fa2,fa0,fa1
 60c:	001028f3          	frflags	a7
 610:	16c7a427          	fsw	fa2,360(a5)
 614:	1717a623          	sw	a7,364(a5)

00000618 <inst_46>:
 618:	17082507          	flw	fa0,368(a6)
 61c:	17482587          	flw	fa1,372(a6)
 620:	00205073          	fsrmi	zero,0
 624:	18b57653          	fdiv.s	fa2,fa0,fa1
 628:	001028f3          	frflags	a7
 62c:	16c7a827          	fsw	fa2,368(a5)
 630:	1717aa23          	sw	a7,372(a5)

00000634 <inst_47>:
 634:	17882507          	flw	fa0,376(a6)
 638:	17c82587          	flw	fa1,380(a6)
 63c:	00205073          	fsrmi	zero,0
 640:	18b57653          	fdiv.s	fa2,fa0,fa1
 644:	001028f3          	frflags	a7
 648:	16c7ac27          	fsw	fa2,376(a5)
 64c:	1717ae23          	sw	a7,380(a5)

00000650 <inst_48>:
 650:	18082507          	flw	fa0,384(a6)
 654:	18482587          	flw	fa1,388(a6)
 658:	00205073          	fsrmi	zero,0
 65c:	18b57653          	fdiv.s	fa2,fa0,fa1
 660:	001028f3          	frflags	a7
 664:	18c7a027          	fsw	fa2,384(a5)
 668:	1917a223          	sw	a7,388(a5)

0000066c <inst_49>:
 66c:	18882507          	flw	fa0,392(a6)
 670:	18c82587          	flw	fa1,396(a6)
 674:	00205073          	fsrmi	zero,0
 678:	18b57653          	fdiv.s	fa2,fa0,fa1
 67c:	001028f3          	frflags	a7
 680:	18c7a427          	fsw	fa2,392(a5)
 684:	1917a623          	sw	a7,396(a5)

00000688 <inst_50>:
 688:	19082507          	flw	fa0,400(a6)
 68c:	19482587          	flw	fa1,404(a6)
 690:	00205073          	fsrmi	zero,0
 694:	18b57653          	fdiv.s	fa2,fa0,fa1
 698:	001028f3          	frflags	a7
 69c:	18c7a827          	fsw	fa2,400(a5)
 6a0:	1917aa23          	sw	a7,404(a5)

000006a4 <inst_51>:
 6a4:	19882507          	flw	fa0,408(a6)
 6a8:	19c82587          	flw	fa1,412(a6)
 6ac:	00205073          	fsrmi	zero,0
 6b0:	18b57653          	fdiv.s	fa2,fa0,fa1
 6b4:	001028f3          	frflags	a7
 6b8:	18c7ac27          	fsw	fa2,408(a5)
 6bc:	1917ae23          	sw	a7,412(a5)

000006c0 <inst_52>:
 6c0:	1a082507          	flw	fa0,416(a6)
 6c4:	1a482587          	flw	fa1,420(a6)
 6c8:	00205073          	fsrmi	zero,0
 6cc:	18b57653          	fdiv.s	fa2,fa0,fa1
 6d0:	001028f3          	frflags	a7
 6d4:	1ac7a027          	fsw	fa2,416(a5)
 6d8:	1b17a223          	sw	a7,420(a5)

000006dc <inst_53>:
 6dc:	1a882507          	flw	fa0,424(a6)
 6e0:	1ac82587          	flw	fa1,428(a6)
 6e4:	00205073          	fsrmi	zero,0
 6e8:	18b57653          	fdiv.s	fa2,fa0,fa1
 6ec:	001028f3          	frflags	a7
 6f0:	1ac7a427          	fsw	fa2,424(a5)
 6f4:	1b17a623          	sw	a7,428(a5)

000006f8 <inst_54>:
 6f8:	1b082507          	flw	fa0,432(a6)
 6fc:	1b482587          	flw	fa1,436(a6)
 700:	00205073          	fsrmi	zero,0
 704:	18b57653          	fdiv.s	fa2,fa0,fa1
 708:	001028f3          	frflags	a7
 70c:	1ac7a827          	fsw	fa2,432(a5)
 710:	1b17aa23          	sw	a7,436(a5)

00000714 <inst_55>:
 714:	1b882507          	flw	fa0,440(a6)
 718:	1bc82587          	flw	fa1,444(a6)
 71c:	00205073          	fsrmi	zero,0
 720:	18b57653          	fdiv.s	fa2,fa0,fa1
 724:	001028f3          	frflags	a7
 728:	1ac7ac27          	fsw	fa2,440(a5)
 72c:	1b17ae23          	sw	a7,444(a5)

00000730 <inst_56>:
 730:	1c082507          	flw	fa0,448(a6)
 734:	1c482587          	flw	fa1,452(a6)
 738:	00205073          	fsrmi	zero,0
 73c:	18b57653          	fdiv.s	fa2,fa0,fa1
 740:	001028f3          	frflags	a7
 744:	1cc7a027          	fsw	fa2,448(a5)
 748:	1d17a223          	sw	a7,452(a5)

0000074c <inst_57>:
 74c:	1c882507          	flw	fa0,456(a6)
 750:	1cc82587          	flw	fa1,460(a6)
 754:	00205073          	fsrmi	zero,0
 758:	18b57653          	fdiv.s	fa2,fa0,fa1
 75c:	001028f3          	frflags	a7
 760:	1cc7a427          	fsw	fa2,456(a5)
 764:	1d17a623          	sw	a7,460(a5)

00000768 <inst_58>:
 768:	1d082507          	flw	fa0,464(a6)
 76c:	1d482587          	flw	fa1,468(a6)
 770:	00205073          	fsrmi	zero,0
 774:	18b57653          	fdiv.s	fa2,fa0,fa1
 778:	001028f3          	frflags	a7
 77c:	1cc7a827          	fsw	fa2,464(a5)
 780:	1d17aa23          	sw	a7,468(a5)

00000784 <inst_59>:
 784:	1d882507          	flw	fa0,472(a6)
 788:	1dc82587          	flw	fa1,476(a6)
 78c:	00205073          	fsrmi	zero,0
 790:	18b57653          	fdiv.s	fa2,fa0,fa1
 794:	001028f3          	frflags	a7
 798:	1cc7ac27          	fsw	fa2,472(a5)
 79c:	1d17ae23          	sw	a7,476(a5)

000007a0 <inst_60>:
 7a0:	1e082507          	flw	fa0,480(a6)
 7a4:	1e482587          	flw	fa1,484(a6)
 7a8:	00205073          	fsrmi	zero,0
 7ac:	18b57653          	fdiv.s	fa2,fa0,fa1
 7b0:	001028f3          	frflags	a7
 7b4:	1ec7a027          	fsw	fa2,480(a5)
 7b8:	1f17a223          	sw	a7,484(a5)

000007bc <inst_61>:
 7bc:	1e882507          	flw	fa0,488(a6)
 7c0:	1ec82587          	flw	fa1,492(a6)
 7c4:	00205073          	fsrmi	zero,0
 7c8:	18b57653          	fdiv.s	fa2,fa0,fa1
 7cc:	001028f3          	frflags	a7
 7d0:	1ec7a427          	fsw	fa2,488(a5)
 7d4:	1f17a623          	sw	a7,492(a5)

000007d8 <inst_62>:
 7d8:	1f082507          	flw	fa0,496(a6)
 7dc:	1f482587          	flw	fa1,500(a6)
 7e0:	00205073          	fsrmi	zero,0
 7e4:	18b57653          	fdiv.s	fa2,fa0,fa1
 7e8:	001028f3          	frflags	a7
 7ec:	1ec7a827          	fsw	fa2,496(a5)
 7f0:	1f17aa23          	sw	a7,500(a5)

000007f4 <inst_63>:
 7f4:	1f882507          	flw	fa0,504(a6)
 7f8:	1fc82587          	flw	fa1,508(a6)
 7fc:	00205073          	fsrmi	zero,0
 800:	18b57653          	fdiv.s	fa2,fa0,fa1
 804:	001028f3          	frflags	a7
 808:	1ec7ac27          	fsw	fa2,504(a5)
 80c:	1f17ae23          	sw	a7,508(a5)

00000810 <inst_64>:
 810:	20082507          	flw	fa0,512(a6)
 814:	20482587          	flw	fa1,516(a6)
 818:	00205073          	fsrmi	zero,0
 81c:	18b57653          	fdiv.s	fa2,fa0,fa1
 820:	001028f3          	frflags	a7
 824:	20c7a027          	fsw	fa2,512(a5)
 828:	2117a223          	sw	a7,516(a5)

0000082c <inst_65>:
 82c:	20882507          	flw	fa0,520(a6)
 830:	20c82587          	flw	fa1,524(a6)
 834:	00205073          	fsrmi	zero,0
 838:	18b57653          	fdiv.s	fa2,fa0,fa1
 83c:	001028f3          	frflags	a7
 840:	20c7a427          	fsw	fa2,520(a5)
 844:	2117a623          	sw	a7,524(a5)

00000848 <inst_66>:
 848:	21082507          	flw	fa0,528(a6)
 84c:	21482587          	flw	fa1,532(a6)
 850:	00205073          	fsrmi	zero,0
 854:	18b57653          	fdiv.s	fa2,fa0,fa1
 858:	001028f3          	frflags	a7
 85c:	20c7a827          	fsw	fa2,528(a5)
 860:	2117aa23          	sw	a7,532(a5)

00000864 <inst_67>:
 864:	21882507          	flw	fa0,536(a6)
 868:	21c82587          	flw	fa1,540(a6)
 86c:	00205073          	fsrmi	zero,0
 870:	18b57653          	fdiv.s	fa2,fa0,fa1
 874:	001028f3          	frflags	a7
 878:	20c7ac27          	fsw	fa2,536(a5)
 87c:	2117ae23          	sw	a7,540(a5)

00000880 <inst_68>:
 880:	22082507          	flw	fa0,544(a6)
 884:	22482587          	flw	fa1,548(a6)
 888:	00205073          	fsrmi	zero,0
 88c:	18b57653          	fdiv.s	fa2,fa0,fa1
 890:	001028f3          	frflags	a7
 894:	22c7a027          	fsw	fa2,544(a5)
 898:	2317a223          	sw	a7,548(a5)

0000089c <inst_69>:
 89c:	22882507          	flw	fa0,552(a6)
 8a0:	22c82587          	flw	fa1,556(a6)
 8a4:	00205073          	fsrmi	zero,0
 8a8:	18b57653          	fdiv.s	fa2,fa0,fa1
 8ac:	001028f3          	frflags	a7
 8b0:	22c7a427          	fsw	fa2,552(a5)
 8b4:	2317a623          	sw	a7,556(a5)

000008b8 <inst_70>:
 8b8:	23082507          	flw	fa0,560(a6)
 8bc:	23482587          	flw	fa1,564(a6)
 8c0:	00205073          	fsrmi	zero,0
 8c4:	18b57653          	fdiv.s	fa2,fa0,fa1
 8c8:	001028f3          	frflags	a7
 8cc:	22c7a827          	fsw	fa2,560(a5)
 8d0:	2317aa23          	sw	a7,564(a5)

000008d4 <inst_71>:
 8d4:	23882507          	flw	fa0,568(a6)
 8d8:	23c82587          	flw	fa1,572(a6)
 8dc:	00205073          	fsrmi	zero,0
 8e0:	18b57653          	fdiv.s	fa2,fa0,fa1
 8e4:	001028f3          	frflags	a7
 8e8:	22c7ac27          	fsw	fa2,568(a5)
 8ec:	2317ae23          	sw	a7,572(a5)

000008f0 <inst_72>:
 8f0:	24082507          	flw	fa0,576(a6)
 8f4:	24482587          	flw	fa1,580(a6)
 8f8:	00205073          	fsrmi	zero,0
 8fc:	18b57653          	fdiv.s	fa2,fa0,fa1
 900:	001028f3          	frflags	a7
 904:	24c7a027          	fsw	fa2,576(a5)
 908:	2517a223          	sw	a7,580(a5)

0000090c <inst_73>:
 90c:	24882507          	flw	fa0,584(a6)
 910:	24c82587          	flw	fa1,588(a6)
 914:	00205073          	fsrmi	zero,0
 918:	18b57653          	fdiv.s	fa2,fa0,fa1
 91c:	001028f3          	frflags	a7
 920:	24c7a427          	fsw	fa2,584(a5)
 924:	2517a623          	sw	a7,588(a5)

00000928 <inst_74>:
 928:	25082507          	flw	fa0,592(a6)
 92c:	25482587          	flw	fa1,596(a6)
 930:	00205073          	fsrmi	zero,0
 934:	18b57653          	fdiv.s	fa2,fa0,fa1
 938:	001028f3          	frflags	a7
 93c:	24c7a827          	fsw	fa2,592(a5)
 940:	2517aa23          	sw	a7,596(a5)

00000944 <inst_75>:
 944:	25882507          	flw	fa0,600(a6)
 948:	25c82587          	flw	fa1,604(a6)
 94c:	00205073          	fsrmi	zero,0
 950:	18b57653          	fdiv.s	fa2,fa0,fa1
 954:	001028f3          	frflags	a7
 958:	24c7ac27          	fsw	fa2,600(a5)
 95c:	2517ae23          	sw	a7,604(a5)

00000960 <inst_76>:
 960:	26082507          	flw	fa0,608(a6)
 964:	26482587          	flw	fa1,612(a6)
 968:	00205073          	fsrmi	zero,0
 96c:	18b57653          	fdiv.s	fa2,fa0,fa1
 970:	001028f3          	frflags	a7
 974:	26c7a027          	fsw	fa2,608(a5)
 978:	2717a223          	sw	a7,612(a5)

0000097c <inst_77>:
 97c:	26882507          	flw	fa0,616(a6)
 980:	26c82587          	flw	fa1,620(a6)
 984:	00205073          	fsrmi	zero,0
 988:	18b57653          	fdiv.s	fa2,fa0,fa1
 98c:	001028f3          	frflags	a7
 990:	26c7a427          	fsw	fa2,616(a5)
 994:	2717a623          	sw	a7,620(a5)

00000998 <inst_78>:
 998:	27082507          	flw	fa0,624(a6)
 99c:	27482587          	flw	fa1,628(a6)
 9a0:	00205073          	fsrmi	zero,0
 9a4:	18b57653          	fdiv.s	fa2,fa0,fa1
 9a8:	001028f3          	frflags	a7
 9ac:	26c7a827          	fsw	fa2,624(a5)
 9b0:	2717aa23          	sw	a7,628(a5)

000009b4 <inst_79>:
 9b4:	27882507          	flw	fa0,632(a6)
 9b8:	27c82587          	flw	fa1,636(a6)
 9bc:	00205073          	fsrmi	zero,0
 9c0:	18b57653          	fdiv.s	fa2,fa0,fa1
 9c4:	001028f3          	frflags	a7
 9c8:	26c7ac27          	fsw	fa2,632(a5)
 9cc:	2717ae23          	sw	a7,636(a5)

000009d0 <inst_80>:
 9d0:	28082507          	flw	fa0,640(a6)
 9d4:	28482587          	flw	fa1,644(a6)
 9d8:	00205073          	fsrmi	zero,0
 9dc:	18b57653          	fdiv.s	fa2,fa0,fa1
 9e0:	001028f3          	frflags	a7
 9e4:	28c7a027          	fsw	fa2,640(a5)
 9e8:	2917a223          	sw	a7,644(a5)

000009ec <inst_81>:
 9ec:	28882507          	flw	fa0,648(a6)
 9f0:	28c82587          	flw	fa1,652(a6)
 9f4:	00205073          	fsrmi	zero,0
 9f8:	18b57653          	fdiv.s	fa2,fa0,fa1
 9fc:	001028f3          	frflags	a7
 a00:	28c7a427          	fsw	fa2,648(a5)
 a04:	2917a623          	sw	a7,652(a5)

00000a08 <inst_82>:
 a08:	29082507          	flw	fa0,656(a6)
 a0c:	29482587          	flw	fa1,660(a6)
 a10:	00205073          	fsrmi	zero,0
 a14:	18b57653          	fdiv.s	fa2,fa0,fa1
 a18:	001028f3          	frflags	a7
 a1c:	28c7a827          	fsw	fa2,656(a5)
 a20:	2917aa23          	sw	a7,660(a5)

00000a24 <inst_83>:
 a24:	29882507          	flw	fa0,664(a6)
 a28:	29c82587          	flw	fa1,668(a6)
 a2c:	00205073          	fsrmi	zero,0
 a30:	18b57653          	fdiv.s	fa2,fa0,fa1
 a34:	001028f3          	frflags	a7
 a38:	28c7ac27          	fsw	fa2,664(a5)
 a3c:	2917ae23          	sw	a7,668(a5)

00000a40 <inst_84>:
 a40:	2a082507          	flw	fa0,672(a6)
 a44:	2a482587          	flw	fa1,676(a6)
 a48:	00205073          	fsrmi	zero,0
 a4c:	18b57653          	fdiv.s	fa2,fa0,fa1
 a50:	001028f3          	frflags	a7
 a54:	2ac7a027          	fsw	fa2,672(a5)
 a58:	2b17a223          	sw	a7,676(a5)

00000a5c <inst_85>:
 a5c:	2a882507          	flw	fa0,680(a6)
 a60:	2ac82587          	flw	fa1,684(a6)
 a64:	00205073          	fsrmi	zero,0
 a68:	18b57653          	fdiv.s	fa2,fa0,fa1
 a6c:	001028f3          	frflags	a7
 a70:	2ac7a427          	fsw	fa2,680(a5)
 a74:	2b17a623          	sw	a7,684(a5)

00000a78 <inst_86>:
 a78:	2b082507          	flw	fa0,688(a6)
 a7c:	2b482587          	flw	fa1,692(a6)
 a80:	00205073          	fsrmi	zero,0
 a84:	18b57653          	fdiv.s	fa2,fa0,fa1
 a88:	001028f3          	frflags	a7
 a8c:	2ac7a827          	fsw	fa2,688(a5)
 a90:	2b17aa23          	sw	a7,692(a5)

00000a94 <inst_87>:
 a94:	2b882507          	flw	fa0,696(a6)
 a98:	2bc82587          	flw	fa1,700(a6)
 a9c:	00205073          	fsrmi	zero,0
 aa0:	18b57653          	fdiv.s	fa2,fa0,fa1
 aa4:	001028f3          	frflags	a7
 aa8:	2ac7ac27          	fsw	fa2,696(a5)
 aac:	2b17ae23          	sw	a7,700(a5)

00000ab0 <inst_88>:
 ab0:	2c082507          	flw	fa0,704(a6)
 ab4:	2c482587          	flw	fa1,708(a6)
 ab8:	00205073          	fsrmi	zero,0
 abc:	18b57653          	fdiv.s	fa2,fa0,fa1
 ac0:	001028f3          	frflags	a7
 ac4:	2cc7a027          	fsw	fa2,704(a5)
 ac8:	2d17a223          	sw	a7,708(a5)

00000acc <inst_89>:
 acc:	2c882507          	flw	fa0,712(a6)
 ad0:	2cc82587          	flw	fa1,716(a6)
 ad4:	00205073          	fsrmi	zero,0
 ad8:	18b57653          	fdiv.s	fa2,fa0,fa1
 adc:	001028f3          	frflags	a7
 ae0:	2cc7a427          	fsw	fa2,712(a5)
 ae4:	2d17a623          	sw	a7,716(a5)

00000ae8 <inst_90>:
 ae8:	2d082507          	flw	fa0,720(a6)
 aec:	2d482587          	flw	fa1,724(a6)
 af0:	00205073          	fsrmi	zero,0
 af4:	18b57653          	fdiv.s	fa2,fa0,fa1
 af8:	001028f3          	frflags	a7
 afc:	2cc7a827          	fsw	fa2,720(a5)
 b00:	2d17aa23          	sw	a7,724(a5)

00000b04 <inst_91>:
 b04:	2d882507          	flw	fa0,728(a6)
 b08:	2dc82587          	flw	fa1,732(a6)
 b0c:	00205073          	fsrmi	zero,0
 b10:	18b57653          	fdiv.s	fa2,fa0,fa1
 b14:	001028f3          	frflags	a7
 b18:	2cc7ac27          	fsw	fa2,728(a5)
 b1c:	2d17ae23          	sw	a7,732(a5)

00000b20 <inst_92>:
 b20:	2e082507          	flw	fa0,736(a6)
 b24:	2e482587          	flw	fa1,740(a6)
 b28:	00205073          	fsrmi	zero,0
 b2c:	18b57653          	fdiv.s	fa2,fa0,fa1
 b30:	001028f3          	frflags	a7
 b34:	2ec7a027          	fsw	fa2,736(a5)
 b38:	2f17a223          	sw	a7,740(a5)

00000b3c <inst_93>:
 b3c:	2e882507          	flw	fa0,744(a6)
 b40:	2ec82587          	flw	fa1,748(a6)
 b44:	00205073          	fsrmi	zero,0
 b48:	18b57653          	fdiv.s	fa2,fa0,fa1
 b4c:	001028f3          	frflags	a7
 b50:	2ec7a427          	fsw	fa2,744(a5)
 b54:	2f17a623          	sw	a7,748(a5)

00000b58 <inst_94>:
 b58:	2f082507          	flw	fa0,752(a6)
 b5c:	2f482587          	flw	fa1,756(a6)
 b60:	00205073          	fsrmi	zero,0
 b64:	18b57653          	fdiv.s	fa2,fa0,fa1
 b68:	001028f3          	frflags	a7
 b6c:	2ec7a827          	fsw	fa2,752(a5)
 b70:	2f17aa23          	sw	a7,756(a5)

00000b74 <inst_95>:
 b74:	2f882507          	flw	fa0,760(a6)
 b78:	2fc82587          	flw	fa1,764(a6)
 b7c:	00205073          	fsrmi	zero,0
 b80:	18b57653          	fdiv.s	fa2,fa0,fa1
 b84:	001028f3          	frflags	a7
 b88:	2ec7ac27          	fsw	fa2,760(a5)
 b8c:	2f17ae23          	sw	a7,764(a5)

00000b90 <inst_96>:
 b90:	30082507          	flw	fa0,768(a6)
 b94:	30482587          	flw	fa1,772(a6)
 b98:	00205073          	fsrmi	zero,0
 b9c:	18b57653          	fdiv.s	fa2,fa0,fa1
 ba0:	001028f3          	frflags	a7
 ba4:	30c7a027          	fsw	fa2,768(a5)
 ba8:	3117a223          	sw	a7,772(a5)

00000bac <inst_97>:
 bac:	30882507          	flw	fa0,776(a6)
 bb0:	30c82587          	flw	fa1,780(a6)
 bb4:	00205073          	fsrmi	zero,0
 bb8:	18b57653          	fdiv.s	fa2,fa0,fa1
 bbc:	001028f3          	frflags	a7
 bc0:	30c7a427          	fsw	fa2,776(a5)
 bc4:	3117a623          	sw	a7,780(a5)

00000bc8 <inst_98>:
 bc8:	31082507          	flw	fa0,784(a6)
 bcc:	31482587          	flw	fa1,788(a6)
 bd0:	00205073          	fsrmi	zero,0
 bd4:	18b57653          	fdiv.s	fa2,fa0,fa1
 bd8:	001028f3          	frflags	a7
 bdc:	30c7a827          	fsw	fa2,784(a5)
 be0:	3117aa23          	sw	a7,788(a5)

00000be4 <inst_99>:
 be4:	31882507          	flw	fa0,792(a6)
 be8:	31c82587          	flw	fa1,796(a6)
 bec:	00205073          	fsrmi	zero,0
 bf0:	18b57653          	fdiv.s	fa2,fa0,fa1
 bf4:	001028f3          	frflags	a7
 bf8:	30c7ac27          	fsw	fa2,792(a5)
 bfc:	3117ae23          	sw	a7,796(a5)

00000c00 <inst_100>:
 c00:	32082507          	flw	fa0,800(a6)
 c04:	32482587          	flw	fa1,804(a6)
 c08:	00205073          	fsrmi	zero,0
 c0c:	18b57653          	fdiv.s	fa2,fa0,fa1
 c10:	001028f3          	frflags	a7
 c14:	32c7a027          	fsw	fa2,800(a5)
 c18:	3317a223          	sw	a7,804(a5)

00000c1c <inst_101>:
 c1c:	32882507          	flw	fa0,808(a6)
 c20:	32c82587          	flw	fa1,812(a6)
 c24:	00205073          	fsrmi	zero,0
 c28:	18b57653          	fdiv.s	fa2,fa0,fa1
 c2c:	001028f3          	frflags	a7
 c30:	32c7a427          	fsw	fa2,808(a5)
 c34:	3317a623          	sw	a7,812(a5)

00000c38 <inst_102>:
 c38:	33082507          	flw	fa0,816(a6)
 c3c:	33482587          	flw	fa1,820(a6)
 c40:	00205073          	fsrmi	zero,0
 c44:	18b57653          	fdiv.s	fa2,fa0,fa1
 c48:	001028f3          	frflags	a7
 c4c:	32c7a827          	fsw	fa2,816(a5)
 c50:	3317aa23          	sw	a7,820(a5)

00000c54 <inst_103>:
 c54:	33882507          	flw	fa0,824(a6)
 c58:	33c82587          	flw	fa1,828(a6)
 c5c:	00205073          	fsrmi	zero,0
 c60:	18b57653          	fdiv.s	fa2,fa0,fa1
 c64:	001028f3          	frflags	a7
 c68:	32c7ac27          	fsw	fa2,824(a5)
 c6c:	3317ae23          	sw	a7,828(a5)

00000c70 <rvtest_code_end>:
 c70:	00000517          	auipc	a0,0x0
 c74:	6e050513          	add	a0,a0,1760 # 1350 <data_begin>
 c78:	00001597          	auipc	a1,0x1
 c7c:	a1858593          	add	a1,a1,-1512 # 1690 <_end>
 c80:	80001637          	lui	a2,0x80001
 c84:	00860613          	add	a2,a2,8 # 80001008 <_end+0x7ffff978>

00000c88 <compliance_halt_loop>:
 c88:	06b50063          	beq	a0,a1,ce8 <compliance_halt_break>
 c8c:	00450693          	add	a3,a0,4

00000c90 <compliance_halt_loop2>:
 c90:	fff68693          	add	a3,a3,-1
 c94:	00068703          	lb	a4,0(a3)
 c98:	40475793          	sra	a5,a4,0x4
 c9c:	00f7f793          	and	a5,a5,15
 ca0:	00a00813          	li	a6,10
 ca4:	0107c463          	blt	a5,a6,cac <notLetter>
 ca8:	02778793          	add	a5,a5,39

00000cac <notLetter>:
 cac:	03078793          	add	a5,a5,48
 cb0:	00f60023          	sb	a5,0(a2)
 cb4:	40075793          	sra	a5,a4,0x0
 cb8:	00f7f793          	and	a5,a5,15
 cbc:	00a00813          	li	a6,10
 cc0:	0107c463          	blt	a5,a6,cc8 <notLetter2>
 cc4:	02778793          	add	a5,a5,39

00000cc8 <notLetter2>:
 cc8:	03078793          	add	a5,a5,48
 ccc:	00f60023          	sb	a5,0(a2)
 cd0:	fcd510e3          	bne	a0,a3,c90 <compliance_halt_loop2>
 cd4:	00450513          	add	a0,a0,4
 cd8:	00a00713          	li	a4,10
 cdc:	00e60023          	sb	a4,0(a2)
 ce0:	fa9ff06f          	j	c88 <compliance_halt_loop>
 ce4:	0040006f          	j	ce8 <compliance_halt_break>

00000ce8 <compliance_halt_break>:
 ce8:	80001537          	lui	a0,0x80001
 cec:	00950513          	add	a0,a0,9 # 80001009 <_end+0x7ffff979>
 cf0:	00d50023          	sb	a3,0(a0)
 cf4:	0000                	.2byte	0x0
	...

Desensamblado de la sección .data:

00001000 <rvtest_data_begin>:
    1000:	cafe                	.2byte	0xcafe
    1002:	babe                	.2byte	0xbabe

00001004 <test_fp>:
    1004:	f718                	.2byte	0xf718
    1006:	7de0                	.2byte	0x7de0
    1008:	f8e0                	.2byte	0xf8e0
    100a:	c88cf4b3          	.4byte	0xc88cf4b3
    100e:	ffff7eaf          	.4byte	0xffff7eaf
    1012:	7f7f                	.2byte	0x7f7f
    1014:	9ce6                	.2byte	0x9ce6
    1016:	7f31                	.2byte	0x7f31
    1018:	9ce6                	.2byte	0x9ce6
    101a:	7f31                	.2byte	0x7f31
    101c:	bf61                	.2byte	0xbf61
    101e:	7ed8                	.2byte	0x7ed8
    1020:	bf61                	.2byte	0xbf61
    1022:	7ed8                	.2byte	0x7ed8
    1024:	0708                	.2byte	0x708
    1026:	73897f2b          	.4byte	0x73897f2b
    102a:	c30d                	.2byte	0xc30d
    102c:	7e4cd7ff fc6ccaee 	.byte	0xff, 0xd7, 0x4c, 0x7e, 0xee, 0xca, 0x6c, 0xfc, 0x83, 0x1d, 0x7b, 0x7d, 0xff, 0xff, 0x7f, 0xff, 0xf9, 0xcf, 0x2b, 0x7e
    1034:	7d7b1d83 ff7fffff 
    103c:	7e2bcff9 
    1040:	ffff                	.2byte	0xffff
    1042:	7f7f                	.2byte	0x7f7f
    1044:	2e1a                	.2byte	0x2e1a
    1046:	ffff7edb          	.4byte	0xffff7edb
    104a:	7f7f                	.2byte	0x7f7f
    104c:	2ace                	.2byte	0x2ace
    104e:	7e91                	.2byte	0x7e91
    1050:	ffff                	.2byte	0xffff
    1052:	7f7f                	.2byte	0x7f7f
    1054:	201f 7f16 1e55      	.byte	0x1f, 0x20, 0x16, 0x7f, 0x55, 0x1e
    105a:	3b3e7ee3          	bgeu	t3,s3,1c16 <_end+0x586>
    105e:	7eec                	.2byte	0x7eec
    1060:	ffff                	.2byte	0xffff
    1062:	ff7f                	.2byte	0xff7f
    1064:	e795                	.2byte	0xe795
    1066:	7e82                	.2byte	0x7e82
    1068:	ad56                	.2byte	0xad56
    106a:	eb4d                	.2byte	0xeb4d
    106c:	12b9                	.2byte	0x12b9
    106e:	7f1f ffff ff7f      	.byte	0x1f, 0x7f, 0xff, 0xff, 0x7f, 0xff
    1074:	7f17517f ff7fffff 	.byte	0x7f, 0x51, 0x17, 0x7f, 0xff, 0xff, 0x7f, 0xff, 0xe7, 0x4d, 0x26, 0x7f, 0xff, 0xff, 0x7f, 0x7f, 0xa4, 0xd9, 0x60, 0x7d
    107c:	7f264de7 7f7fffff 
    1084:	7d60d9a4 
    1088:	ffff                	.2byte	0xffff
    108a:	7f7f                	.2byte	0x7f7f
    108c:	766e                	.2byte	0x766e
    108e:	7cf0                	.2byte	0x7cf0
    1090:	ffff                	.2byte	0xffff
    1092:	ff7f                	.2byte	0xff7f
    1094:	2a98                	.2byte	0x2a98
    1096:	7da0                	.2byte	0x7da0
    1098:	ffff                	.2byte	0xffff
    109a:	7f7f                	.2byte	0x7f7f
    109c:	a642                	.2byte	0xa642
    109e:	ffff7ed3          	.4byte	0xffff7ed3
    10a2:	ff7f                	.2byte	0xff7f
    10a4:	7dcfe433          	.4byte	0x7dcfe433
    10a8:	eae5                	.2byte	0xeae5
    10aa:	5ada4e3f 4d137f2a 	.8byte	0x4d137f2a5ada4e3f
    10b2:	3a1e682f          	.4byte	0x3a1e682f
    10b6:	ffff7f37          	lui	t5,0xffff7
    10ba:	ff7f                	.2byte	0xff7f
    10bc:	ede5                	.2byte	0xede5
    10be:	8f9b7ee7          	.4byte	0x8f9b7ee7
    10c2:	d57a                	.2byte	0xd57a
    10c4:	8b6a                	.2byte	0x8b6a
    10c6:	7f26                	.2byte	0x7f26
    10c8:	35cd                	.2byte	0x35cd
    10ca:	f7b9                	.2byte	0xf7b9
    10cc:	a740                	.2byte	0xa740
    10ce:	7e5f 6968 4fbd      	.byte	0x5f, 0x7e, 0x68, 0x69, 0xbd, 0x4f
    10d4:	ab65                	.2byte	0xab65
    10d6:	7e82                	.2byte	0x7e82
    10d8:	ffc1                	.2byte	0xffc1
    10da:	f7dd                	.2byte	0xf7dd
    10dc:	5a7c                	.2byte	0x5a7c
    10de:	7e8d                	.2byte	0x7e8d
    10e0:	ffff                	.2byte	0xffff
    10e2:	ff7f                	.2byte	0xff7f
    10e4:	7f217f53          	.4byte	0x7f217f53
    10e8:	82bd                	.2byte	0x82bd
    10ea:	71dd                	.2byte	0x71dd
    10ec:	7aed                	.2byte	0x7aed
    10ee:	7ee6                	.2byte	0x7ee6
    10f0:	03f8                	.2byte	0x3f8
    10f2:	7001                	.2byte	0x7001
    10f4:	7f11c013          	xor	zero,gp,2033
    10f8:	f93d7983          	.4byte	0xf93d7983
    10fc:	7e238f3f 7f7fffff 	.8byte	0x7f7fffff7e238f3f
    1104:	e8de                	.2byte	0xe8de
    1106:	7f2e                	.2byte	0x7f2e
    1108:	9400                	.2byte	0x9400
    110a:	5339566b          	.4byte	0x5339566b
    110e:	7e02                	.2byte	0x7e02
    1110:	4930                	.2byte	0x4930
    1112:	7c86                	.2byte	0x7c86
    1114:	119e                	.2byte	0x119e
    1116:	7d82                	.2byte	0x7d82
    1118:	b1fa                	.2byte	0xb1fa
    111a:	7625                	.2byte	0x7625
    111c:	4a10                	.2byte	0x4a10
    111e:	16787f0b          	.4byte	0x16787f0b
    1122:	4f3c                	.2byte	0x4f3c
    1124:	7e34342f          	.4byte	0x7e34342f
    1128:	43fcb837          	lui	a6,0x43fcb
    112c:	37b2                	.2byte	0x37b2
    112e:	7f3d                	.2byte	0x7f3d
    1130:	eb08                	.2byte	0xeb08
    1132:	76d4                	.2byte	0x76d4
    1134:	0c29                	.2byte	0xc29
    1136:	7eba                	.2byte	0x7eba
    1138:	ffff                	.2byte	0xffff
    113a:	ff7f                	.2byte	0xff7f
    113c:	ecd6                	.2byte	0xecd6
    113e:	1dd17f03          	.4byte	0x1dd17f03
    1142:	df88                	.2byte	0xdf88
    1144:	7f296b63          	bltu	s2,s2,193a <_end+0x2aa>
    1148:	1fe4                	.2byte	0x1fe4
    114a:	c43a                	.2byte	0xc43a
    114c:	7e8409cf          	.4byte	0x7e8409cf
    1150:	d825                	.2byte	0xd825
    1152:	d9be                	.2byte	0xd9be
    1154:	fae0                	.2byte	0xfae0
    1156:	7f32                	.2byte	0x7f32
    1158:	6136e76b          	.4byte	0x6136e76b
    115c:	d6ae                	.2byte	0xd6ae
    115e:	7f20                	.2byte	0x7f20
    1160:	dcec                	.2byte	0xdcec
    1162:	f841                	.2byte	0xf841
    1164:	7ed0                	.2byte	0x7ed0
    1166:	7f01                	.2byte	0x7f01
    1168:	7fe2                	.2byte	0x7fe2
    116a:	4a31                	.2byte	0x4a31
    116c:	9b5c                	.2byte	0x9b5c
    116e:	1bbd7e23          	.4byte	0x1bbd7e23
    1172:	73b1                	.2byte	0x73b1
    1174:	3675                	.2byte	0x3675
    1176:	7e82                	.2byte	0x7e82
    1178:	ffff                	.2byte	0xffff
    117a:	ff7f                	.2byte	0xff7f
    117c:	4749                	.2byte	0x4749
    117e:	7f16                	.2byte	0x7f16
    1180:	ffff                	.2byte	0xffff
    1182:	7f7f                	.2byte	0x7f7f
    1184:	7f3d8377          	.4byte	0x7f3d8377
    1188:	277d                	.2byte	0x277d
    118a:	c8f6                	.2byte	0xc8f6
    118c:	b471                	.2byte	0xb471
    118e:	9bff7e7b          	.4byte	0x9bff7e7b
    1192:	5b78                	.2byte	0x5b78
    1194:	414e                	.2byte	0x414e
    1196:	7e1a                	.2byte	0x7e1a
    1198:	ffff                	.2byte	0xffff
    119a:	ff7f                	.2byte	0xff7f
    119c:	539a                	.2byte	0x539a
    119e:	7c5e                	.2byte	0x7c5e
    11a0:	ffff                	.2byte	0xffff
    11a2:	7f7f                	.2byte	0x7f7f
    11a4:	bcfc                	.2byte	0xbcfc
    11a6:	7f2c                	.2byte	0x7f2c
    11a8:	7458de83          	lhu	t4,1861(a7)
    11ac:	59f0                	.2byte	0x59f0
    11ae:	1a1b7f27          	.4byte	0x1a1b7f27
    11b2:	c0b5                	.2byte	0xc0b5
    11b4:	dd8e                	.2byte	0xdd8e
    11b6:	7e79                	.2byte	0x7e79
    11b8:	ffff                	.2byte	0xffff
    11ba:	ff7f                	.2byte	0xff7f
    11bc:	ec54                	.2byte	0xec54
    11be:	ffff7ebf 62407f7f 	.8byte	0x62407f7fffff7ebf
    11c6:	ffff7e63          	bgeu	t5,t6,9c2 <inst_79+0xe>
    11ca:	7f7f                	.2byte	0x7f7f
    11cc:	ba49                	.2byte	0xba49
    11ce:	7eff                	.2byte	0x7eff
    11d0:	c718                	.2byte	0xc718
    11d2:	6546fbdb          	.4byte	0x6546fbdb
    11d6:	7da0                	.2byte	0x7da0
    11d8:	ffff                	.2byte	0xffff
    11da:	ff7f                	.2byte	0xff7f
    11dc:	1546                	.2byte	0x1546
    11de:	7e15                	.2byte	0x7e15
    11e0:	ffff                	.2byte	0xffff
    11e2:	ff7f                	.2byte	0xff7f
    11e4:	40ba                	.2byte	0x40ba
    11e6:	7ea6                	.2byte	0x7ea6
    11e8:	88b4                	.2byte	0x88b4
    11ea:	5fc6                	.2byte	0x5fc6
    11ec:	7f016ff7          	.4byte	0x7f016ff7
    11f0:	e48990a3          	sh	s0,-447(s3)
    11f4:	7e1e0667          	jalr	a2,2017(t3)
    11f8:	ffff                	.2byte	0xffff
    11fa:	ff7f                	.2byte	0xff7f
    11fc:	38b1                	.2byte	0x38b1
    11fe:	7e85                	.2byte	0x7e85
    1200:	ffff                	.2byte	0xffff
    1202:	ff7f                	.2byte	0xff7f
    1204:	23d8                	.2byte	0x23d8
    1206:	7e91                	.2byte	0x7e91
    1208:	5156                	.2byte	0x5156
    120a:	dee9                	.2byte	0xdee9
    120c:	6852                	.2byte	0x6852
    120e:	ffff7ec3          	.4byte	0xffff7ec3
    1212:	7f7f                	.2byte	0x7f7f
    1214:	2c24                	.2byte	0x2c24
    1216:	ffff7f07          	.4byte	0xffff7f07
    121a:	ff7f                	.2byte	0xff7f
    121c:	f6ff                	.2byte	0xf6ff
    121e:	7f3a                	.2byte	0x7f3a
    1220:	9c89                	.2byte	0x9c89
    1222:	d279                	.2byte	0xd279
    1224:	9d2c                	.2byte	0x9d2c
    1226:	7f26                	.2byte	0x7f26
    1228:	9910                	.2byte	0x9910
    122a:	c1d1                	.2byte	0xc1d1
    122c:	b9a1                	.2byte	0xb9a1
    122e:	ffff7e03          	.4byte	0xffff7e03
    1232:	7f7f                	.2byte	0x7f7f
    1234:	7edafcdb          	.4byte	0x7edafcdb
    1238:	10c4                	.2byte	0x10c4
    123a:	be1bc96f          	jal	s2,fffbde1a <_end+0xfffbc78a>
    123e:	7f38                	.2byte	0x7f38
    1240:	ffff                	.2byte	0xffff
    1242:	ff7f                	.2byte	0xff7f
    1244:	7f1d53d7          	.4byte	0x7f1d53d7
    1248:	7d30                	.2byte	0x7d30
    124a:	f58bfe37          	lui	t3,0xf58bf
    124e:	7ce8                	.2byte	0x7ce8
    1250:	dff56c07          	.4byte	0xdff56c07
    1254:	b6bd                	.2byte	0xb6bd
    1256:	7f28                	.2byte	0x7f28
    1258:	043e                	.2byte	0x43e
    125a:	69325f97          	auipc	t6,0x69325
    125e:	7bd0                	.2byte	0x7bd0
    1260:	6acc                	.2byte	0x6acc
    1262:	4cf1                	.2byte	0x4cf1
    1264:	cf9e                	.2byte	0xcf9e
    1266:	7e41                	.2byte	0x7e41
    1268:	4a46                	.2byte	0x4a46
    126a:	ed24                	.2byte	0xed24
    126c:	cf65                	.2byte	0xcf65
    126e:	7e9f a218 6ba5      	.byte	0x9f, 0x7e, 0x18, 0xa2, 0xa5, 0x6b
    1274:	7f0ed153          	.4byte	0x7f0ed153
    1278:	c91c3eb7          	lui	t4,0xc91c3
    127c:	7f3457e7          	.4byte	0x7f3457e7
    1280:	ffff                	.2byte	0xffff
    1282:	7f7f                	.2byte	0x7f7f
    1284:	5bf8                	.2byte	0x5bf8
    1286:	7e6e                	.2byte	0x7e6e
    1288:	083c                	.2byte	0x83c
    128a:	4424                	.2byte	0x4424
    128c:	d5b2                	.2byte	0xd5b2
    128e:	7f24                	.2byte	0x7f24
    1290:	ffff                	.2byte	0xffff
    1292:	ff7f                	.2byte	0xff7f
    1294:	4e0e                	.2byte	0x4e0e
    1296:	ffff7e6b          	.4byte	0xffff7e6b
    129a:	7f7f                	.2byte	0x7f7f
    129c:	1a41                	.2byte	0x1a41
    129e:	7f28                	.2byte	0x7f28
    12a0:	ff2ac557          	.4byte	0xff2ac557
    12a4:	d661                	.2byte	0xd661
    12a6:	7f39                	.2byte	0x7f39
    12a8:	5d187b63          	bgeu	a6,a7,187e <_end+0x1ee>
    12ac:	5450                	.2byte	0x5450
    12ae:	7e65                	.2byte	0x7e65
    12b0:	ffff                	.2byte	0xffff
    12b2:	ff7f                	.2byte	0xff7f
    12b4:	967e                	.2byte	0x967e
    12b6:	7d34                	.2byte	0x7d34
    12b8:	2cb6                	.2byte	0x2cb6
    12ba:	4094                	.2byte	0x4094
    12bc:	48b2                	.2byte	0x48b2
    12be:	7ef2                	.2byte	0x7ef2
    12c0:	ffff                	.2byte	0xffff
    12c2:	ff7f                	.2byte	0xff7f
    12c4:	b77e                	.2byte	0xb77e
    12c6:	7e76                	.2byte	0x7e76
    12c8:	ffff                	.2byte	0xffff
    12ca:	ff7f                	.2byte	0xff7f
    12cc:	1ff5                	.2byte	0x1ff5
    12ce:	7edd                	.2byte	0x7edd
    12d0:	ffff                	.2byte	0xffff
    12d2:	ff7f                	.2byte	0xff7f
    12d4:	a40d                	.2byte	0xa40d
    12d6:	ffff7e97          	auipc	t4,0xffff7
    12da:	7f7f                	.2byte	0x7f7f
    12dc:	06c5                	.2byte	0x6c5
    12de:	7ef9                	.2byte	0x7ef9
    12e0:	607e                	.2byte	0x607e
    12e2:	459f 6a13 7e2b      	.byte	0x9f, 0x45, 0x13, 0x6a, 0x2b, 0x7e
    12e8:	2862                	.2byte	0x2862
    12ea:	5fcc56cb          	.4byte	0x5fcc56cb
    12ee:	7ec6                	.2byte	0x7ec6
    12f0:	ffff                	.2byte	0xffff
    12f2:	7f7f                	.2byte	0x7f7f
    12f4:	2dff 7f19 6443 5c23 	.byte	0xff, 0x2d, 0x19, 0x7f, 0x43, 0x64, 0x23, 0x5c, 0x6b, 0x50, 0x3b, 0x7f, 0xff, 0xff
    12fc:	506b 7f3b ffff 
    1302:	ff7f                	.2byte	0xff7f
    1304:	6bac                	.2byte	0x6bac
    1306:	7e29                	.2byte	0x7e29
    1308:	9899                	.2byte	0x9899
    130a:	cb96                	.2byte	0xcb96
    130c:	2a66                	.2byte	0x2a66
    130e:	7ed1                	.2byte	0x7ed1
    1310:	ffff                	.2byte	0xffff
    1312:	7f7f                	.2byte	0x7f7f
    1314:	35b2                	.2byte	0x35b2
    1316:	7f02                	.2byte	0x7f02
    1318:	ffff                	.2byte	0xffff
    131a:	ff7f                	.2byte	0xff7f
    131c:	48c6                	.2byte	0x48c6
    131e:	ffff7f07          	.4byte	0xffff7f07
    1322:	7f7f                	.2byte	0x7f7f
    1324:	1c0c                	.2byte	0x1c0c
    1326:	7df6                	.2byte	0x7df6
    1328:	ffff                	.2byte	0xffff
    132a:	7f7f                	.2byte	0x7f7f
    132c:	7f0a0433          	.4byte	0x7f0a0433
    1330:	bba8                	.2byte	0xbba8
    1332:	5c9d                	.2byte	0x5c9d
    1334:	9ce6                	.2byte	0x9ce6
    1336:	7f31                	.2byte	0x7f31
    1338:	ffff                	.2byte	0xffff
    133a:	7f7f                	.2byte	0x7f7f
    133c:	bf61                	.2byte	0xbf61
    133e:	7ed8                	.2byte	0x7ed8
    1340:	657f d597   	.byte	0x7f, 0x65, 0x97, 0xd5, 0x00, 0x00, 0x00, 0x00, 0x00, 0x00, 0x00, 0x00, 0x00, 0x00, 0x00, 0x00, 0xef, 0xbe, 0xad, 0xde, 0xef, 0xbe
    1348:	    
    1350:	   

00001344 <rvtest_data_end>:
	...

00001350 <data_begin>:
    1350:	deadbeef          	jal	t4,fffdc93a <_end+0xfffdb2aa>
    1354:	deadbeef          	jal	t4,fffdc93e <_end+0xfffdb2ae>
    1358:	deadbeef          	jal	t4,fffdc942 <_end+0xfffdb2b2>
    135c:	deadbeef          	jal	t4,fffdc946 <_end+0xfffdb2b6>
    1360:	deadbeef          	jal	t4,fffdc94a <_end+0xfffdb2ba>
    1364:	deadbeef          	jal	t4,fffdc94e <_end+0xfffdb2be>
    1368:	deadbeef          	jal	t4,fffdc952 <_end+0xfffdb2c2>
    136c:	deadbeef          	jal	t4,fffdc956 <_end+0xfffdb2c6>
    1370:	deadbeef          	jal	t4,fffdc95a <_end+0xfffdb2ca>
    1374:	deadbeef          	jal	t4,fffdc95e <_end+0xfffdb2ce>
    1378:	deadbeef          	jal	t4,fffdc962 <_end+0xfffdb2d2>
    137c:	deadbeef          	jal	t4,fffdc966 <_end+0xfffdb2d6>
    1380:	deadbeef          	jal	t4,fffdc96a <_end+0xfffdb2da>
    1384:	deadbeef          	jal	t4,fffdc96e <_end+0xfffdb2de>
    1388:	deadbeef          	jal	t4,fffdc972 <_end+0xfffdb2e2>
    138c:	deadbeef          	jal	t4,fffdc976 <_end+0xfffdb2e6>
    1390:	deadbeef          	jal	t4,fffdc97a <_end+0xfffdb2ea>
    1394:	deadbeef          	jal	t4,fffdc97e <_end+0xfffdb2ee>
    1398:	deadbeef          	jal	t4,fffdc982 <_end+0xfffdb2f2>
    139c:	deadbeef          	jal	t4,fffdc986 <_end+0xfffdb2f6>
    13a0:	deadbeef          	jal	t4,fffdc98a <_end+0xfffdb2fa>
    13a4:	deadbeef          	jal	t4,fffdc98e <_end+0xfffdb2fe>
    13a8:	deadbeef          	jal	t4,fffdc992 <_end+0xfffdb302>
    13ac:	deadbeef          	jal	t4,fffdc996 <_end+0xfffdb306>
    13b0:	deadbeef          	jal	t4,fffdc99a <_end+0xfffdb30a>
    13b4:	deadbeef          	jal	t4,fffdc99e <_end+0xfffdb30e>
    13b8:	deadbeef          	jal	t4,fffdc9a2 <_end+0xfffdb312>
    13bc:	deadbeef          	jal	t4,fffdc9a6 <_end+0xfffdb316>
    13c0:	deadbeef          	jal	t4,fffdc9aa <_end+0xfffdb31a>
    13c4:	deadbeef          	jal	t4,fffdc9ae <_end+0xfffdb31e>
    13c8:	deadbeef          	jal	t4,fffdc9b2 <_end+0xfffdb322>
    13cc:	deadbeef          	jal	t4,fffdc9b6 <_end+0xfffdb326>
    13d0:	deadbeef          	jal	t4,fffdc9ba <_end+0xfffdb32a>
    13d4:	deadbeef          	jal	t4,fffdc9be <_end+0xfffdb32e>
    13d8:	deadbeef          	jal	t4,fffdc9c2 <_end+0xfffdb332>
    13dc:	deadbeef          	jal	t4,fffdc9c6 <_end+0xfffdb336>
    13e0:	deadbeef          	jal	t4,fffdc9ca <_end+0xfffdb33a>
    13e4:	deadbeef          	jal	t4,fffdc9ce <_end+0xfffdb33e>
    13e8:	deadbeef          	jal	t4,fffdc9d2 <_end+0xfffdb342>
    13ec:	deadbeef          	jal	t4,fffdc9d6 <_end+0xfffdb346>
    13f0:	deadbeef          	jal	t4,fffdc9da <_end+0xfffdb34a>
    13f4:	deadbeef          	jal	t4,fffdc9de <_end+0xfffdb34e>
    13f8:	deadbeef          	jal	t4,fffdc9e2 <_end+0xfffdb352>
    13fc:	deadbeef          	jal	t4,fffdc9e6 <_end+0xfffdb356>
    1400:	deadbeef          	jal	t4,fffdc9ea <_end+0xfffdb35a>
    1404:	deadbeef          	jal	t4,fffdc9ee <_end+0xfffdb35e>
    1408:	deadbeef          	jal	t4,fffdc9f2 <_end+0xfffdb362>
    140c:	deadbeef          	jal	t4,fffdc9f6 <_end+0xfffdb366>
    1410:	deadbeef          	jal	t4,fffdc9fa <_end+0xfffdb36a>
    1414:	deadbeef          	jal	t4,fffdc9fe <_end+0xfffdb36e>
    1418:	deadbeef          	jal	t4,fffdca02 <_end+0xfffdb372>
    141c:	deadbeef          	jal	t4,fffdca06 <_end+0xfffdb376>
    1420:	deadbeef          	jal	t4,fffdca0a <_end+0xfffdb37a>
    1424:	deadbeef          	jal	t4,fffdca0e <_end+0xfffdb37e>
    1428:	deadbeef          	jal	t4,fffdca12 <_end+0xfffdb382>
    142c:	deadbeef          	jal	t4,fffdca16 <_end+0xfffdb386>
    1430:	deadbeef          	jal	t4,fffdca1a <_end+0xfffdb38a>
    1434:	deadbeef          	jal	t4,fffdca1e <_end+0xfffdb38e>
    1438:	deadbeef          	jal	t4,fffdca22 <_end+0xfffdb392>
    143c:	deadbeef          	jal	t4,fffdca26 <_end+0xfffdb396>
    1440:	deadbeef          	jal	t4,fffdca2a <_end+0xfffdb39a>
    1444:	deadbeef          	jal	t4,fffdca2e <_end+0xfffdb39e>
    1448:	deadbeef          	jal	t4,fffdca32 <_end+0xfffdb3a2>
    144c:	deadbeef          	jal	t4,fffdca36 <_end+0xfffdb3a6>
    1450:	deadbeef          	jal	t4,fffdca3a <_end+0xfffdb3aa>
    1454:	deadbeef          	jal	t4,fffdca3e <_end+0xfffdb3ae>
    1458:	deadbeef          	jal	t4,fffdca42 <_end+0xfffdb3b2>
    145c:	deadbeef          	jal	t4,fffdca46 <_end+0xfffdb3b6>
    1460:	deadbeef          	jal	t4,fffdca4a <_end+0xfffdb3ba>
    1464:	deadbeef          	jal	t4,fffdca4e <_end+0xfffdb3be>
    1468:	deadbeef          	jal	t4,fffdca52 <_end+0xfffdb3c2>
    146c:	deadbeef          	jal	t4,fffdca56 <_end+0xfffdb3c6>
    1470:	deadbeef          	jal	t4,fffdca5a <_end+0xfffdb3ca>
    1474:	deadbeef          	jal	t4,fffdca5e <_end+0xfffdb3ce>
    1478:	deadbeef          	jal	t4,fffdca62 <_end+0xfffdb3d2>
    147c:	deadbeef          	jal	t4,fffdca66 <_end+0xfffdb3d6>
    1480:	deadbeef          	jal	t4,fffdca6a <_end+0xfffdb3da>
    1484:	deadbeef          	jal	t4,fffdca6e <_end+0xfffdb3de>
    1488:	deadbeef          	jal	t4,fffdca72 <_end+0xfffdb3e2>
    148c:	deadbeef          	jal	t4,fffdca76 <_end+0xfffdb3e6>
    1490:	deadbeef          	jal	t4,fffdca7a <_end+0xfffdb3ea>
    1494:	deadbeef          	jal	t4,fffdca7e <_end+0xfffdb3ee>
    1498:	deadbeef          	jal	t4,fffdca82 <_end+0xfffdb3f2>
    149c:	deadbeef          	jal	t4,fffdca86 <_end+0xfffdb3f6>
    14a0:	deadbeef          	jal	t4,fffdca8a <_end+0xfffdb3fa>
    14a4:	deadbeef          	jal	t4,fffdca8e <_end+0xfffdb3fe>
    14a8:	deadbeef          	jal	t4,fffdca92 <_end+0xfffdb402>
    14ac:	deadbeef          	jal	t4,fffdca96 <_end+0xfffdb406>
    14b0:	deadbeef          	jal	t4,fffdca9a <_end+0xfffdb40a>
    14b4:	deadbeef          	jal	t4,fffdca9e <_end+0xfffdb40e>
    14b8:	deadbeef          	jal	t4,fffdcaa2 <_end+0xfffdb412>
    14bc:	deadbeef          	jal	t4,fffdcaa6 <_end+0xfffdb416>
    14c0:	deadbeef          	jal	t4,fffdcaaa <_end+0xfffdb41a>
    14c4:	deadbeef          	jal	t4,fffdcaae <_end+0xfffdb41e>
    14c8:	deadbeef          	jal	t4,fffdcab2 <_end+0xfffdb422>
    14cc:	deadbeef          	jal	t4,fffdcab6 <_end+0xfffdb426>
    14d0:	deadbeef          	jal	t4,fffdcaba <_end+0xfffdb42a>
    14d4:	deadbeef          	jal	t4,fffdcabe <_end+0xfffdb42e>
    14d8:	deadbeef          	jal	t4,fffdcac2 <_end+0xfffdb432>
    14dc:	deadbeef          	jal	t4,fffdcac6 <_end+0xfffdb436>
    14e0:	deadbeef          	jal	t4,fffdcaca <_end+0xfffdb43a>
    14e4:	deadbeef          	jal	t4,fffdcace <_end+0xfffdb43e>
    14e8:	deadbeef          	jal	t4,fffdcad2 <_end+0xfffdb442>
    14ec:	deadbeef          	jal	t4,fffdcad6 <_end+0xfffdb446>
    14f0:	deadbeef          	jal	t4,fffdcada <_end+0xfffdb44a>
    14f4:	deadbeef          	jal	t4,fffdcade <_end+0xfffdb44e>
    14f8:	deadbeef          	jal	t4,fffdcae2 <_end+0xfffdb452>
    14fc:	deadbeef          	jal	t4,fffdcae6 <_end+0xfffdb456>
    1500:	deadbeef          	jal	t4,fffdcaea <_end+0xfffdb45a>
    1504:	deadbeef          	jal	t4,fffdcaee <_end+0xfffdb45e>
    1508:	deadbeef          	jal	t4,fffdcaf2 <_end+0xfffdb462>
    150c:	deadbeef          	jal	t4,fffdcaf6 <_end+0xfffdb466>
    1510:	deadbeef          	jal	t4,fffdcafa <_end+0xfffdb46a>
    1514:	deadbeef          	jal	t4,fffdcafe <_end+0xfffdb46e>
    1518:	deadbeef          	jal	t4,fffdcb02 <_end+0xfffdb472>
    151c:	deadbeef          	jal	t4,fffdcb06 <_end+0xfffdb476>
    1520:	deadbeef          	jal	t4,fffdcb0a <_end+0xfffdb47a>
    1524:	deadbeef          	jal	t4,fffdcb0e <_end+0xfffdb47e>
    1528:	deadbeef          	jal	t4,fffdcb12 <_end+0xfffdb482>
    152c:	deadbeef          	jal	t4,fffdcb16 <_end+0xfffdb486>
    1530:	deadbeef          	jal	t4,fffdcb1a <_end+0xfffdb48a>
    1534:	deadbeef          	jal	t4,fffdcb1e <_end+0xfffdb48e>
    1538:	deadbeef          	jal	t4,fffdcb22 <_end+0xfffdb492>
    153c:	deadbeef          	jal	t4,fffdcb26 <_end+0xfffdb496>
    1540:	deadbeef          	jal	t4,fffdcb2a <_end+0xfffdb49a>
    1544:	deadbeef          	jal	t4,fffdcb2e <_end+0xfffdb49e>
    1548:	deadbeef          	jal	t4,fffdcb32 <_end+0xfffdb4a2>
    154c:	deadbeef          	jal	t4,fffdcb36 <_end+0xfffdb4a6>
    1550:	deadbeef          	jal	t4,fffdcb3a <_end+0xfffdb4aa>
    1554:	deadbeef          	jal	t4,fffdcb3e <_end+0xfffdb4ae>
    1558:	deadbeef          	jal	t4,fffdcb42 <_end+0xfffdb4b2>
    155c:	deadbeef          	jal	t4,fffdcb46 <_end+0xfffdb4b6>
    1560:	deadbeef          	jal	t4,fffdcb4a <_end+0xfffdb4ba>
    1564:	deadbeef          	jal	t4,fffdcb4e <_end+0xfffdb4be>
    1568:	deadbeef          	jal	t4,fffdcb52 <_end+0xfffdb4c2>
    156c:	deadbeef          	jal	t4,fffdcb56 <_end+0xfffdb4c6>
    1570:	deadbeef          	jal	t4,fffdcb5a <_end+0xfffdb4ca>
    1574:	deadbeef          	jal	t4,fffdcb5e <_end+0xfffdb4ce>
    1578:	deadbeef          	jal	t4,fffdcb62 <_end+0xfffdb4d2>
    157c:	deadbeef          	jal	t4,fffdcb66 <_end+0xfffdb4d6>
    1580:	deadbeef          	jal	t4,fffdcb6a <_end+0xfffdb4da>
    1584:	deadbeef          	jal	t4,fffdcb6e <_end+0xfffdb4de>
    1588:	deadbeef          	jal	t4,fffdcb72 <_end+0xfffdb4e2>
    158c:	deadbeef          	jal	t4,fffdcb76 <_end+0xfffdb4e6>
    1590:	deadbeef          	jal	t4,fffdcb7a <_end+0xfffdb4ea>
    1594:	deadbeef          	jal	t4,fffdcb7e <_end+0xfffdb4ee>
    1598:	deadbeef          	jal	t4,fffdcb82 <_end+0xfffdb4f2>
    159c:	deadbeef          	jal	t4,fffdcb86 <_end+0xfffdb4f6>
    15a0:	deadbeef          	jal	t4,fffdcb8a <_end+0xfffdb4fa>
    15a4:	deadbeef          	jal	t4,fffdcb8e <_end+0xfffdb4fe>
    15a8:	deadbeef          	jal	t4,fffdcb92 <_end+0xfffdb502>
    15ac:	deadbeef          	jal	t4,fffdcb96 <_end+0xfffdb506>
    15b0:	deadbeef          	jal	t4,fffdcb9a <_end+0xfffdb50a>
    15b4:	deadbeef          	jal	t4,fffdcb9e <_end+0xfffdb50e>
    15b8:	deadbeef          	jal	t4,fffdcba2 <_end+0xfffdb512>
    15bc:	deadbeef          	jal	t4,fffdcba6 <_end+0xfffdb516>
    15c0:	deadbeef          	jal	t4,fffdcbaa <_end+0xfffdb51a>
    15c4:	deadbeef          	jal	t4,fffdcbae <_end+0xfffdb51e>
    15c8:	deadbeef          	jal	t4,fffdcbb2 <_end+0xfffdb522>
    15cc:	deadbeef          	jal	t4,fffdcbb6 <_end+0xfffdb526>
    15d0:	deadbeef          	jal	t4,fffdcbba <_end+0xfffdb52a>
    15d4:	deadbeef          	jal	t4,fffdcbbe <_end+0xfffdb52e>
    15d8:	deadbeef          	jal	t4,fffdcbc2 <_end+0xfffdb532>
    15dc:	deadbeef          	jal	t4,fffdcbc6 <_end+0xfffdb536>
    15e0:	deadbeef          	jal	t4,fffdcbca <_end+0xfffdb53a>
    15e4:	deadbeef          	jal	t4,fffdcbce <_end+0xfffdb53e>
    15e8:	deadbeef          	jal	t4,fffdcbd2 <_end+0xfffdb542>
    15ec:	deadbeef          	jal	t4,fffdcbd6 <_end+0xfffdb546>
    15f0:	deadbeef          	jal	t4,fffdcbda <_end+0xfffdb54a>
    15f4:	deadbeef          	jal	t4,fffdcbde <_end+0xfffdb54e>
    15f8:	deadbeef          	jal	t4,fffdcbe2 <_end+0xfffdb552>
    15fc:	deadbeef          	jal	t4,fffdcbe6 <_end+0xfffdb556>
    1600:	deadbeef          	jal	t4,fffdcbea <_end+0xfffdb55a>
    1604:	deadbeef          	jal	t4,fffdcbee <_end+0xfffdb55e>
    1608:	deadbeef          	jal	t4,fffdcbf2 <_end+0xfffdb562>
    160c:	deadbeef          	jal	t4,fffdcbf6 <_end+0xfffdb566>
    1610:	deadbeef          	jal	t4,fffdcbfa <_end+0xfffdb56a>
    1614:	deadbeef          	jal	t4,fffdcbfe <_end+0xfffdb56e>
    1618:	deadbeef          	jal	t4,fffdcc02 <_end+0xfffdb572>
    161c:	deadbeef          	jal	t4,fffdcc06 <_end+0xfffdb576>
    1620:	deadbeef          	jal	t4,fffdcc0a <_end+0xfffdb57a>
    1624:	deadbeef          	jal	t4,fffdcc0e <_end+0xfffdb57e>
    1628:	deadbeef          	jal	t4,fffdcc12 <_end+0xfffdb582>
    162c:	deadbeef          	jal	t4,fffdcc16 <_end+0xfffdb586>
    1630:	deadbeef          	jal	t4,fffdcc1a <_end+0xfffdb58a>
    1634:	deadbeef          	jal	t4,fffdcc1e <_end+0xfffdb58e>
    1638:	deadbeef          	jal	t4,fffdcc22 <_end+0xfffdb592>
    163c:	deadbeef          	jal	t4,fffdcc26 <_end+0xfffdb596>
    1640:	deadbeef          	jal	t4,fffdcc2a <_end+0xfffdb59a>
    1644:	deadbeef          	jal	t4,fffdcc2e <_end+0xfffdb59e>
    1648:	deadbeef          	jal	t4,fffdcc32 <_end+0xfffdb5a2>
    164c:	deadbeef          	jal	t4,fffdcc36 <_end+0xfffdb5a6>
    1650:	deadbeef          	jal	t4,fffdcc3a <_end+0xfffdb5aa>
    1654:	deadbeef          	jal	t4,fffdcc3e <_end+0xfffdb5ae>
    1658:	deadbeef          	jal	t4,fffdcc42 <_end+0xfffdb5b2>
    165c:	deadbeef          	jal	t4,fffdcc46 <_end+0xfffdb5b6>
    1660:	deadbeef          	jal	t4,fffdcc4a <_end+0xfffdb5ba>
    1664:	deadbeef          	jal	t4,fffdcc4e <_end+0xfffdb5be>
    1668:	deadbeef          	jal	t4,fffdcc52 <_end+0xfffdb5c2>
    166c:	deadbeef          	jal	t4,fffdcc56 <_end+0xfffdb5c6>
    1670:	deadbeef          	jal	t4,fffdcc5a <_end+0xfffdb5ca>
    1674:	deadbeef          	jal	t4,fffdcc5e <_end+0xfffdb5ce>
    1678:	deadbeef          	jal	t4,fffdcc62 <_end+0xfffdb5d2>
    167c:	deadbeef          	jal	t4,fffdcc66 <_end+0xfffdb5d6>
    1680:	deadbeef          	jal	t4,fffdcc6a <_end+0xfffdb5da>
    1684:	deadbeef          	jal	t4,fffdcc6e <_end+0xfffdb5de>
    1688:	deadbeef          	jal	t4,fffdcc72 <_end+0xfffdb5e2>
    168c:	deadbeef          	jal	t4,fffdcc76 <_end+0xfffdb5e6>

Desensamblado de la sección .riscv.attributes:

00000000 <.riscv.attributes>:
   0:	2241                	.2byte	0x2241
   2:	0000                	.2byte	0x0
   4:	7200                	.2byte	0x7200
   6:	7369                	.2byte	0x7369
   8:	01007663          	bgeu	zero,a6,14 <rvtest_entry_point+0x14>
   c:	0018                	.2byte	0x18
   e:	0000                	.2byte	0x0
  10:	7205                	.2byte	0x7205
  12:	3376                	.2byte	0x3376
  14:	6932                	.2byte	0x6932
  16:	7032                	.2byte	0x7032
  18:	5f30                	.2byte	0x5f30
  1a:	3266                	.2byte	0x3266
  1c:	3070                	.2byte	0x3070
  1e:	0800                	.2byte	0x800
  20:	0a01                	.2byte	0xa01
  22:	0b              	Address 0x22 is out of bounds.

