
/home/alejandro/Escritorio/test_riscv2.5/riscv-compliance/work/rv32i_m/F/fdiv_b2-01.elf:     formato del fichero elf32-littleriscv


Desensamblado de la sección .text.init:

00000000 <rvtest_entry_point>:
   0:	feedc0b7          	lui	ra,0xfeedc
   4:	ead08093          	add	ra,ra,-339 # feedbead <_end+0xfeed8a7d>
   8:	ff76e137          	lui	sp,0xff76e
   c:	f5610113          	add	sp,sp,-170 # ff76df56 <_end+0xff76ab26>
  10:	7fbb71b7          	lui	gp,0x7fbb7
  14:	fab18193          	add	gp,gp,-85 # 7fbb6fab <_end+0x7fbb3b7b>
  18:	bfddb237          	lui	tp,0xbfddb
  1c:	7d520213          	add	tp,tp,2005 # bfddb7d5 <_end+0xbfdd83a5>
  20:	00000297          	auipc	t0,0x0
  24:	0d828293          	add	t0,t0,216 # f8 <rvtest_code_begin>
  28:	00001317          	auipc	t1,0x1
  2c:	fd830313          	add	t1,t1,-40 # 1000 <rvtest_data_begin>
  30:	b7fbb3b7          	lui	t2,0xb7fbb
  34:	6fa38393          	add	t2,t2,1786 # b7fbb6fa <_end+0xb7fb82ca>
  38:	5bfde437          	lui	s0,0x5bfde
  3c:	b7d40413          	add	s0,s0,-1155 # 5bfddb7d <_end+0x5bfda74d>
  40:	adfef4b7          	lui	s1,0xadfef
  44:	dbe48493          	add	s1,s1,-578 # adfeedbe <_end+0xadfeb98e>
  48:	56ff7537          	lui	a0,0x56ff7
  4c:	6df50513          	add	a0,a0,1759 # 56ff76df <_end+0x56ff42af>
  50:	ab7fc5b7          	lui	a1,0xab7fc
  54:	b6f58593          	add	a1,a1,-1169 # ab7fbb6f <_end+0xab7f873f>
  58:	d5bfe637          	lui	a2,0xd5bfe
  5c:	db760613          	add	a2,a2,-585 # d5bfddb7 <_end+0xd5bfa987>
  60:	eadff6b7          	lui	a3,0xeadff
  64:	edb68693          	add	a3,a3,-293 # eadfeedb <_end+0xeadfbaab>
  68:	f56ff737          	lui	a4,0xf56ff
  6c:	76d70713          	add	a4,a4,1901 # f56ff76d <_end+0xf56fc33d>
  70:	fab807b7          	lui	a5,0xfab80
  74:	bb678793          	add	a5,a5,-1098 # fab7fbb6 <_end+0xfab7c786>
  78:	7d5c0837          	lui	a6,0x7d5c0
  7c:	ddb80813          	add	a6,a6,-549 # 7d5bfddb <_end+0x7d5bc9ab>
  80:	beae08b7          	lui	a7,0xbeae0
  84:	eed88893          	add	a7,a7,-275 # beadfeed <_end+0xbeadcabd>
  88:	df570937          	lui	s2,0xdf570
  8c:	f7690913          	add	s2,s2,-138 # df56ff76 <_end+0xdf56cb46>
  90:	6fab89b7          	lui	s3,0x6fab8
  94:	fbb98993          	add	s3,s3,-69 # 6fab7fbb <_end+0x6fab4b8b>
  98:	b7d5ca37          	lui	s4,0xb7d5c
  9c:	fdda0a13          	add	s4,s4,-35 # b7d5bfdd <_end+0xb7d58bad>
  a0:	dbeaeab7          	lui	s5,0xdbeae
  a4:	feea8a93          	add	s5,s5,-18 # dbeadfee <_end+0xdbeaabbe>
  a8:	6df57b37          	lui	s6,0x6df57
  ac:	ff7b0b13          	add	s6,s6,-9 # 6df56ff7 <_end+0x6df53bc7>
  b0:	b6fabbb7          	lui	s7,0xb6fab
  b4:	7fbb8b93          	add	s7,s7,2043 # b6fab7fb <_end+0xb6fa83cb>
  b8:	db7d6c37          	lui	s8,0xdb7d6
  bc:	bfdc0c13          	add	s8,s8,-1027 # db7d5bfd <_end+0xdb7d27cd>
  c0:	edbebcb7          	lui	s9,0xedbeb
  c4:	dfec8c93          	add	s9,s9,-514 # edbeadfe <_end+0xedbe79ce>
  c8:	76df5d37          	lui	s10,0x76df5
  cc:	6ffd0d13          	add	s10,s10,1791 # 76df56ff <_end+0x76df22cf>
  d0:	bb6fbdb7          	lui	s11,0xbb6fb
  d4:	b7fd8d93          	add	s11,s11,-1153 # bb6fab7f <_end+0xbb6f774f>
  d8:	ddb7de37          	lui	t3,0xddb7d
  dc:	5bfe0e13          	add	t3,t3,1471 # ddb7d5bf <_end+0xddb7a18f>
  e0:	eedbfeb7          	lui	t4,0xeedbf
  e4:	adfe8e93          	add	t4,t4,-1313 # eedbeadf <_end+0xeedbb6af>
  e8:	f76dff37          	lui	t5,0xf76df
  ec:	56ff0f13          	add	t5,t5,1391 # f76df56f <_end+0xf76dc13f>
  f0:	fbb70fb7          	lui	t6,0xfbb70
  f4:	ab7f8f93          	add	t6,t6,-1353 # fbb6fab7 <_end+0xfbb6c687>

000000f8 <rvtest_code_begin>:
  f8:	6509                	lui	a0,0x2
  fa:	30052073          	csrs	mstatus,a0
  fe:	00001817          	auipc	a6,0x1
 102:	f0680813          	add	a6,a6,-250 # 1004 <test_fp>
 106:	00002797          	auipc	a5,0x2
 10a:	11a78793          	add	a5,a5,282 # 2220 <data_begin>

0000010e <inst_0>:
 10e:	00082b83          	lw	s7,0(a6)
 112:	00482c83          	lw	s9,4(a6)
 116:	199bfbd3          	fdiv.s	s7,s7,s9
 11a:	0177a023          	sw	s7,0(a5)

0000011e <inst_1>:
 11e:	00882883          	lw	a7,8(a6)
 122:	00c82f83          	lw	t6,12(a6)
 126:	19f8f353          	fdiv.s	t1,a7,t6
 12a:	0067a423          	sw	t1,8(a5)

0000012e <inst_2>:
 12e:	01082b03          	lw	s6,16(a6)
 132:	01482b03          	lw	s6,20(a6)
 136:	196b7b53          	fdiv.s	s6,s6,s6
 13a:	0167a823          	sw	s6,16(a5)

0000013e <inst_3>:
 13e:	01882d03          	lw	s10,24(a6)
 142:	01c82d03          	lw	s10,28(a6)
 146:	19ad7cd3          	fdiv.s	s9,s10,s10
 14a:	0197ac23          	sw	s9,24(a5)

0000014e <inst_4>:
 14e:	02082583          	lw	a1,32(a6)
 152:	02482703          	lw	a4,36(a6)
 156:	18e5f753          	fdiv.s	a4,a1,a4
 15a:	d398                	sw	a4,32(a5)

0000015c <inst_5>:
 15c:	02882503          	lw	a0,40(a6)
 160:	02c82d83          	lw	s11,44(a6)
 164:	19b57953          	fdiv.s	s2,a0,s11
 168:	0327a423          	sw	s2,40(a5)

0000016c <inst_6>:
 16c:	03082c03          	lw	s8,48(a6)
 170:	03482e83          	lw	t4,52(a6)
 174:	19dc7d53          	fdiv.s	s10,s8,t4
 178:	03a7a823          	sw	s10,48(a5)

0000017c <inst_7>:
 17c:	03882c03          	lw	s8,56(a6)
 180:	03c82a83          	lw	s5,60(a6)
 184:	195c7fd3          	fdiv.s	t6,s8,s5
 188:	03f7ac23          	sw	t6,56(a5)

0000018c <inst_8>:
 18c:	04082e83          	lw	t4,64(a6)
 190:	04482683          	lw	a3,68(a6)
 194:	18def353          	fdiv.s	t1,t4,a3
 198:	0467a023          	sw	t1,64(a5)

0000019c <inst_9>:
 19c:	04882303          	lw	t1,72(a6)
 1a0:	04c82903          	lw	s2,76(a6)
 1a4:	19237bd3          	fdiv.s	s7,t1,s2
 1a8:	0577a423          	sw	s7,72(a5)

000001ac <inst_10>:
 1ac:	05082603          	lw	a2,80(a6)
 1b0:	05482303          	lw	t1,84(a6)
 1b4:	18667ad3          	fdiv.s	s5,a2,t1
 1b8:	0557a823          	sw	s5,80(a5)

000001bc <inst_11>:
 1bc:	05882c83          	lw	s9,88(a6)
 1c0:	05c82b83          	lw	s7,92(a6)
 1c4:	197cfe53          	fdiv.s	t3,s9,s7
 1c8:	05c7ac23          	sw	t3,88(a5)

000001cc <inst_12>:
 1cc:	06082903          	lw	s2,96(a6)
 1d0:	06482c03          	lw	s8,100(a6)
 1d4:	19897f53          	fdiv.s	t5,s2,s8
 1d8:	07e7a023          	sw	t5,96(a5)

000001dc <inst_13>:
 1dc:	06882f03          	lw	t5,104(a6)
 1e0:	06c82303          	lw	t1,108(a6)
 1e4:	186f7453          	fdiv.s	s0,t5,t1
 1e8:	d7a0                	sw	s0,104(a5)

000001ea <inst_14>:
 1ea:	07082b83          	lw	s7,112(a6)
 1ee:	07482f03          	lw	t5,116(a6)
 1f2:	19ebfcd3          	fdiv.s	s9,s7,t5
 1f6:	0797a823          	sw	s9,112(a5)

000001fa <inst_15>:
 1fa:	07882c83          	lw	s9,120(a6)
 1fe:	07c82a03          	lw	s4,124(a6)
 202:	194cf3d3          	fdiv.s	t2,s9,s4
 206:	0677ac23          	sw	t2,120(a5)

0000020a <inst_16>:
 20a:	08082a83          	lw	s5,128(a6)
 20e:	08482503          	lw	a0,132(a6)
 212:	18aafdd3          	fdiv.s	s11,s5,a0
 216:	09b7a023          	sw	s11,128(a5)

0000021a <inst_17>:
 21a:	08882303          	lw	t1,136(a6)
 21e:	08c82883          	lw	a7,140(a6)
 222:	19137fd3          	fdiv.s	t6,t1,a7
 226:	09f7a423          	sw	t6,136(a5)

0000022a <inst_18>:
 22a:	09082703          	lw	a4,144(a6)
 22e:	09482603          	lw	a2,148(a6)
 232:	18c77a53          	fdiv.s	s4,a4,a2
 236:	0947a823          	sw	s4,144(a5)

0000023a <inst_19>:
 23a:	09882683          	lw	a3,152(a6)
 23e:	09c82283          	lw	t0,156(a6)
 242:	1856f9d3          	fdiv.s	s3,a3,t0
 246:	0937ac23          	sw	s3,152(a5)

0000024a <inst_20>:
 24a:	0a082f83          	lw	t6,160(a6)
 24e:	0a482303          	lw	t1,164(a6)
 252:	186ff6d3          	fdiv.s	a3,t6,t1
 256:	0ad7a023          	sw	a3,160(a5)

0000025a <inst_21>:
 25a:	0a882a83          	lw	s5,168(a6)
 25e:	0ac82403          	lw	s0,172(a6)
 262:	188afed3          	fdiv.s	t4,s5,s0
 266:	0bd7a423          	sw	t4,168(a5)

0000026a <inst_22>:
 26a:	0b082e03          	lw	t3,176(a6)
 26e:	0b482383          	lw	t2,180(a6)
 272:	187e75d3          	fdiv.s	a1,t3,t2
 276:	0ab7a823          	sw	a1,176(a5)

0000027a <inst_23>:
 27a:	0b882283          	lw	t0,184(a6)
 27e:	0bc82583          	lw	a1,188(a6)
 282:	18b2f4d3          	fdiv.s	s1,t0,a1
 286:	0a97ac23          	sw	s1,184(a5)

0000028a <inst_24>:
 28a:	0c082303          	lw	t1,192(a6)
 28e:	0c482983          	lw	s3,196(a6)
 292:	19337bd3          	fdiv.s	s7,t1,s3
 296:	0d77a023          	sw	s7,192(a5)

0000029a <inst_25>:
 29a:	0c882383          	lw	t2,200(a6)
 29e:	0cc82b03          	lw	s6,204(a6)
 2a2:	1963fc53          	fdiv.s	s8,t2,s6
 2a6:	0d87a423          	sw	s8,200(a5)

000002aa <inst_26>:
 2aa:	0d082983          	lw	s3,208(a6)
 2ae:	0d482c83          	lw	s9,212(a6)
 2b2:	1999f2d3          	fdiv.s	t0,s3,s9
 2b6:	0c57a823          	sw	t0,208(a5)

000002ba <inst_27>:
 2ba:	0d882403          	lw	s0,216(a6)
 2be:	0dc82c03          	lw	s8,220(a6)
 2c2:	19847653          	fdiv.s	a2,s0,s8
 2c6:	0cc7ac23          	sw	a2,216(a5)

000002ca <inst_28>:
 2ca:	0e082483          	lw	s1,224(a6)
 2ce:	0e482f03          	lw	t5,228(a6)
 2d2:	19e4fc53          	fdiv.s	s8,s1,t5
 2d6:	0f87a023          	sw	s8,224(a5)

000002da <inst_29>:
 2da:	0e882a03          	lw	s4,232(a6)
 2de:	0ec82e03          	lw	t3,236(a6)
 2e2:	19ca7dd3          	fdiv.s	s11,s4,t3
 2e6:	0fb7a423          	sw	s11,232(a5)

000002ea <inst_30>:
 2ea:	0f082f83          	lw	t6,240(a6)
 2ee:	0f482b83          	lw	s7,244(a6)
 2f2:	197ffad3          	fdiv.s	s5,t6,s7
 2f6:	0f57a823          	sw	s5,240(a5)

000002fa <inst_31>:
 2fa:	0f882d83          	lw	s11,248(a6)
 2fe:	0fc82483          	lw	s1,252(a6)
 302:	189df553          	fdiv.s	a0,s11,s1
 306:	0ea7ac23          	sw	a0,248(a5)

0000030a <inst_32>:
 30a:	10082503          	lw	a0,256(a6)
 30e:	10482583          	lw	a1,260(a6)
 312:	18b57653          	fdiv.s	a2,a0,a1
 316:	10c7a023          	sw	a2,256(a5)

0000031a <inst_33>:
 31a:	10882503          	lw	a0,264(a6)
 31e:	10c82583          	lw	a1,268(a6)
 322:	18b57653          	fdiv.s	a2,a0,a1
 326:	10c7a423          	sw	a2,264(a5)

0000032a <inst_34>:
 32a:	11082503          	lw	a0,272(a6)
 32e:	11482583          	lw	a1,276(a6)
 332:	18b57653          	fdiv.s	a2,a0,a1
 336:	10c7a823          	sw	a2,272(a5)

0000033a <inst_35>:
 33a:	11882503          	lw	a0,280(a6)
 33e:	11c82583          	lw	a1,284(a6)
 342:	18b57653          	fdiv.s	a2,a0,a1
 346:	10c7ac23          	sw	a2,280(a5)

0000034a <inst_36>:
 34a:	12082503          	lw	a0,288(a6)
 34e:	12482583          	lw	a1,292(a6)
 352:	18b57653          	fdiv.s	a2,a0,a1
 356:	12c7a023          	sw	a2,288(a5)

0000035a <inst_37>:
 35a:	12882503          	lw	a0,296(a6)
 35e:	12c82583          	lw	a1,300(a6)
 362:	18b57653          	fdiv.s	a2,a0,a1
 366:	12c7a423          	sw	a2,296(a5)

0000036a <inst_38>:
 36a:	13082503          	lw	a0,304(a6)
 36e:	13482583          	lw	a1,308(a6)
 372:	18b57653          	fdiv.s	a2,a0,a1
 376:	12c7a823          	sw	a2,304(a5)

0000037a <inst_39>:
 37a:	13882503          	lw	a0,312(a6)
 37e:	13c82583          	lw	a1,316(a6)
 382:	18b57653          	fdiv.s	a2,a0,a1
 386:	12c7ac23          	sw	a2,312(a5)
 38a:	00000013          	nop
 38e:	0001                	nop

00000390 <rvtest_code_end>:
 390:	00002517          	auipc	a0,0x2
 394:	e9050513          	add	a0,a0,-368 # 2220 <data_begin>
 398:	00003597          	auipc	a1,0x3
 39c:	09858593          	add	a1,a1,152 # 3430 <_end>
 3a0:	80001637          	lui	a2,0x80001
 3a4:	0621                	add	a2,a2,8 # 80001008 <_end+0x7fffdbd8>

000003a6 <compliance_halt_loop>:
 3a6:	04b50763          	beq	a0,a1,3f4 <compliance_halt_break>
 3aa:	00450693          	add	a3,a0,4

000003ae <compliance_halt_loop2>:
 3ae:	16fd                	add	a3,a3,-1
 3b0:	00068703          	lb	a4,0(a3)
 3b4:	40475793          	sra	a5,a4,0x4
 3b8:	8bbd                	and	a5,a5,15
 3ba:	4829                	li	a6,10
 3bc:	0107c463          	blt	a5,a6,3c4 <notLetter>
 3c0:	02778793          	add	a5,a5,39

000003c4 <notLetter>:
 3c4:	03078793          	add	a5,a5,48
 3c8:	00f60023          	sb	a5,0(a2)
 3cc:	40075793          	sra	a5,a4,0x0
 3d0:	8bbd                	and	a5,a5,15
 3d2:	4829                	li	a6,10
 3d4:	0107c463          	blt	a5,a6,3dc <notLetter2>
 3d8:	02778793          	add	a5,a5,39

000003dc <notLetter2>:
 3dc:	03078793          	add	a5,a5,48
 3e0:	00f60023          	sb	a5,0(a2)
 3e4:	fcd515e3          	bne	a0,a3,3ae <compliance_halt_loop2>
 3e8:	0511                	add	a0,a0,4
 3ea:	4729                	li	a4,10
 3ec:	00e60023          	sb	a4,0(a2)
 3f0:	bf5d                	j	3a6 <compliance_halt_loop>
 3f2:	a009                	j	3f4 <compliance_halt_break>

000003f4 <compliance_halt_break>:
 3f4:	80001537          	lui	a0,0x80001
 3f8:	0525                	add	a0,a0,9 # 80001009 <_end+0x7fffdbd9>
 3fa:	00d50023          	sb	a3,0(a0)
	...

Desensamblado de la sección .data:

00001000 <rvtest_data_begin>:
    1000:	cafe                	sw	t6,84(sp)
    1002:	babe                	.2byte	0xbabe

00001004 <test_fp>:
	...
    100c:	0000                	unimp
    100e:	bf80                	.2byte	0xbf80
    1010:	0000                	unimp
    1012:	bf80                	.2byte	0xbf80
    1014:	0000                	unimp
    1016:	bf80                	.2byte	0xbf80
    1018:	0000                	unimp
    101a:	bf80                	.2byte	0xbf80
    101c:	0000                	unimp
    101e:	bf80                	.2byte	0xbf80
    1020:	0000                	unimp
    1022:	bf80                	.2byte	0xbf80
    1024:	0000                	unimp
    1026:	bf80                	.2byte	0xbf80
    1028:	0001                	nop
    102a:	7f80                	.2byte	0x7f80
    102c:	0000                	unimp
    102e:	bf80                	.2byte	0xbf80
    1030:	5555                	li	a0,-11
    1032:	ffc5                	bnez	a5,fea <compliance_halt_break+0xbf6>
    1034:	0000                	unimp
    1036:	bf80                	.2byte	0xbf80
    1038:	0001                	nop
    103a:	7fc0                	.2byte	0x7fc0
    103c:	0000                	unimp
    103e:	bf80                	.2byte	0xbf80
    1040:	0000                	unimp
    1042:	ffc0                	.2byte	0xffc0
    1044:	0000                	unimp
    1046:	bf80                	.2byte	0xbf80
    1048:	0000                	unimp
    104a:	7fc0                	.2byte	0x7fc0
    104c:	0000                	unimp
    104e:	bf80                	.2byte	0xbf80
    1050:	0000                	unimp
    1052:	ff80                	.2byte	0xff80
    1054:	0000                	unimp
    1056:	bf80                	.2byte	0xbf80
    1058:	0000                	unimp
    105a:	7f80                	.2byte	0x7f80
    105c:	0000                	unimp
    105e:	bf80                	.2byte	0xbf80
    1060:	ffff                	.2byte	0xffff
    1062:	ff7f                	.2byte	0xff7f
    1064:	0000                	unimp
    1066:	bf80                	.2byte	0xbf80
    1068:	ffff                	.2byte	0xffff
    106a:	7f7f                	.2byte	0x7f7f
    106c:	0000                	unimp
    106e:	bf80                	.2byte	0xbf80
    1070:	5555                	li	a0,-11
    1072:	8085                	srl	s1,s1,0x1
    1074:	0000                	unimp
    1076:	bf80                	.2byte	0xbf80
    1078:	0001                	nop
    107a:	0080                	add	s0,sp,64
    107c:	0000                	unimp
    107e:	bf80                	.2byte	0xbf80
    1080:	0000                	unimp
    1082:	8080                	.2byte	0x8080
    1084:	0000                	unimp
    1086:	bf80                	.2byte	0xbf80
    1088:	0000                	unimp
    108a:	0080                	add	s0,sp,64
    108c:	0000                	unimp
    108e:	bf80                	.2byte	0xbf80
    1090:	ffff                	.2byte	0xffff
    1092:	807f 0000 bf80 ffff 	.byte	0x7f, 0x80, 0x00, 0x00, 0x80, 0xbf, 0xff, 0xff, 0x7f, 0x00
    109a:	007f 
    109c:	0000                	unimp
    109e:	bf80                	.2byte	0xbf80
    10a0:	fffe                	.2byte	0xfffe
    10a2:	807f 0000 bf80 0002 	.byte	0x7f, 0x80, 0x00, 0x00, 0x80, 0xbf, 0x02, 0x00, 0x00, 0x00
    10aa:	0000 
    10ac:	0000                	unimp
    10ae:	bf80                	.2byte	0xbf80
    10b0:	0001                	nop
    10b2:	8000                	.2byte	0x8000
    10b4:	0000                	unimp
    10b6:	bf80                	.2byte	0xbf80
    10b8:	0001                	nop
    10ba:	0000                	unimp
    10bc:	0000                	unimp
    10be:	bf80                	.2byte	0xbf80
    10c0:	0000                	unimp
    10c2:	8000                	.2byte	0x8000
    10c4:	0000                	unimp
    10c6:	bf80                	.2byte	0xbf80
    10c8:	0000                	unimp
    10ca:	0000                	unimp
    10cc:	0000                	unimp
    10ce:	3f80                	.2byte	0x3f80
    10d0:	0000                	unimp
    10d2:	bf80                	.2byte	0xbf80
    10d4:	0000                	unimp
    10d6:	3f80                	.2byte	0x3f80
    10d8:	0000                	unimp
    10da:	3f80                	.2byte	0x3f80
    10dc:	0000                	unimp
    10de:	3f80                	.2byte	0x3f80
    10e0:	aaaa                	.2byte	0xaaaa
    10e2:	ffaa                	.2byte	0xffaa
    10e4:	0000                	unimp
    10e6:	3f80                	.2byte	0x3f80
    10e8:	0001                	nop
    10ea:	7f80                	.2byte	0x7f80
    10ec:	0000                	unimp
    10ee:	3f80                	.2byte	0x3f80
    10f0:	5555                	li	a0,-11
    10f2:	ffc5                	bnez	a5,10aa <test_fp+0xa6>
    10f4:	0000                	unimp
    10f6:	3f80                	.2byte	0x3f80
    10f8:	0001                	nop
    10fa:	7fc0                	.2byte	0x7fc0
    10fc:	0000                	unimp
    10fe:	3f80                	.2byte	0x3f80
    1100:	0000                	unimp
    1102:	ffc0                	.2byte	0xffc0
    1104:	0000                	unimp
    1106:	3f80                	.2byte	0x3f80
    1108:	0000                	unimp
    110a:	7fc0                	.2byte	0x7fc0
    110c:	0000                	unimp
    110e:	3f80                	.2byte	0x3f80
    1110:	0000                	unimp
    1112:	ff80                	.2byte	0xff80
    1114:	0000                	unimp
    1116:	3f80                	.2byte	0x3f80
    1118:	0000                	unimp
    111a:	7f80                	.2byte	0x7f80
    111c:	0000                	unimp
    111e:	3f80                	.2byte	0x3f80
    1120:	ffff                	.2byte	0xffff
    1122:	ff7f                	.2byte	0xff7f
    1124:	0000                	unimp
    1126:	3f80                	.2byte	0x3f80
    1128:	ffff                	.2byte	0xffff
    112a:	7f7f                	.2byte	0x7f7f
    112c:	0000                	unimp
    112e:	3f80                	.2byte	0x3f80
    1130:	5555                	li	a0,-11
    1132:	8085                	srl	s1,s1,0x1
    1134:	0000                	unimp
    1136:	3f80                	.2byte	0x3f80
    1138:	0001                	nop
    113a:	0080                	add	s0,sp,64
    113c:	0000                	unimp
    113e:	3f80                	.2byte	0x3f80
    1140:	0000                	unimp
    1142:	8080                	.2byte	0x8080
    1144:	0000                	unimp
    1146:	3f80                	.2byte	0x3f80
    1148:	0000                	unimp
    114a:	0080                	add	s0,sp,64
    114c:	0000                	unimp
    114e:	3f80                	.2byte	0x3f80
    1150:	ffff                	.2byte	0xffff
    1152:	807f 0000 3f80 ffff 	.byte	0x7f, 0x80, 0x00, 0x00, 0x80, 0x3f, 0xff, 0xff, 0x7f, 0x00
    115a:	007f 
    115c:	0000                	unimp
    115e:	3f80                	.2byte	0x3f80
    1160:	fffe                	.2byte	0xfffe
    1162:	807f 0000 3f80 0002 	.byte	0x7f, 0x80, 0x00, 0x00, 0x80, 0x3f, 0x02, 0x00, 0x00, 0x00
    116a:	0000 
    116c:	0000                	unimp
    116e:	3f80                	.2byte	0x3f80
    1170:	0001                	nop
    1172:	8000                	.2byte	0x8000
    1174:	0000                	unimp
    1176:	3f80                	.2byte	0x3f80
    1178:	0001                	nop
    117a:	0000                	unimp
    117c:	0000                	unimp
    117e:	3f80                	.2byte	0x3f80
    1180:	0000                	unimp
    1182:	8000                	.2byte	0x8000
    1184:	0000                	unimp
    1186:	3f80                	.2byte	0x3f80
    1188:	0000                	unimp
    118a:	0000                	unimp
    118c:	aaaa                	.2byte	0xaaaa
    118e:	ffaa                	.2byte	0xffaa
    1190:	0000                	unimp
    1192:	bf80                	.2byte	0xbf80
    1194:	aaaa                	.2byte	0xaaaa
    1196:	ffaa                	.2byte	0xffaa
    1198:	0000                	unimp
    119a:	3f80                	.2byte	0x3f80
    119c:	aaaa                	.2byte	0xaaaa
    119e:	ffaa                	.2byte	0xffaa
    11a0:	aaaa                	.2byte	0xaaaa
    11a2:	ffaa                	.2byte	0xffaa
    11a4:	aaaa                	.2byte	0xaaaa
    11a6:	ffaa                	.2byte	0xffaa
    11a8:	0001                	nop
    11aa:	7f80                	.2byte	0x7f80
    11ac:	aaaa                	.2byte	0xaaaa
    11ae:	ffaa                	.2byte	0xffaa
    11b0:	5555                	li	a0,-11
    11b2:	ffc5                	bnez	a5,116a <test_fp+0x166>
    11b4:	aaaa                	.2byte	0xaaaa
    11b6:	ffaa                	.2byte	0xffaa
    11b8:	0001                	nop
    11ba:	7fc0                	.2byte	0x7fc0
    11bc:	aaaa                	.2byte	0xaaaa
    11be:	ffaa                	.2byte	0xffaa
    11c0:	0000                	unimp
    11c2:	ffc0                	.2byte	0xffc0
    11c4:	aaaa                	.2byte	0xaaaa
    11c6:	ffaa                	.2byte	0xffaa
    11c8:	0000                	unimp
    11ca:	7fc0                	.2byte	0x7fc0
    11cc:	aaaa                	.2byte	0xaaaa
    11ce:	ffaa                	.2byte	0xffaa
    11d0:	0000                	unimp
    11d2:	ff80                	.2byte	0xff80
    11d4:	aaaa                	.2byte	0xaaaa
    11d6:	ffaa                	.2byte	0xffaa
    11d8:	0000                	unimp
    11da:	7f80                	.2byte	0x7f80
    11dc:	aaaa                	.2byte	0xaaaa
    11de:	ffaa                	.2byte	0xffaa
    11e0:	ffff                	.2byte	0xffff
    11e2:	ff7f                	.2byte	0xff7f
    11e4:	aaaa                	.2byte	0xaaaa
    11e6:	ffaa                	.2byte	0xffaa
    11e8:	ffff                	.2byte	0xffff
    11ea:	7f7f                	.2byte	0x7f7f
    11ec:	aaaa                	.2byte	0xaaaa
    11ee:	ffaa                	.2byte	0xffaa
    11f0:	5555                	li	a0,-11
    11f2:	8085                	srl	s1,s1,0x1
    11f4:	aaaa                	.2byte	0xaaaa
    11f6:	ffaa                	.2byte	0xffaa
    11f8:	0001                	nop
    11fa:	0080                	add	s0,sp,64
    11fc:	aaaa                	.2byte	0xaaaa
    11fe:	ffaa                	.2byte	0xffaa
    1200:	0000                	unimp
    1202:	8080                	.2byte	0x8080
    1204:	aaaa                	.2byte	0xaaaa
    1206:	ffaa                	.2byte	0xffaa
    1208:	0000                	unimp
    120a:	0080                	add	s0,sp,64
    120c:	aaaa                	.2byte	0xaaaa
    120e:	ffaa                	.2byte	0xffaa
    1210:	ffff                	.2byte	0xffff
    1212:	807f aaaa ffaa ffff 	.byte	0x7f, 0x80, 0xaa, 0xaa, 0xaa, 0xff, 0xff, 0xff, 0x7f, 0x00
    121a:	007f 
    121c:	aaaa                	.2byte	0xaaaa
    121e:	ffaa                	.2byte	0xffaa
    1220:	fffe                	.2byte	0xfffe
    1222:	807f aaaa ffaa 0002 	.byte	0x7f, 0x80, 0xaa, 0xaa, 0xaa, 0xff, 0x02, 0x00, 0x00, 0x00
    122a:	0000 
    122c:	aaaa                	.2byte	0xaaaa
    122e:	ffaa                	.2byte	0xffaa
    1230:	0001                	nop
    1232:	8000                	.2byte	0x8000
    1234:	aaaa                	.2byte	0xaaaa
    1236:	ffaa                	.2byte	0xffaa
    1238:	0001                	nop
    123a:	0000                	unimp
    123c:	aaaa                	.2byte	0xaaaa
    123e:	ffaa                	.2byte	0xffaa
    1240:	0000                	unimp
    1242:	8000                	.2byte	0x8000
    1244:	aaaa                	.2byte	0xaaaa
    1246:	ffaa                	.2byte	0xffaa
    1248:	0000                	unimp
    124a:	0000                	unimp
    124c:	0001                	nop
    124e:	7f80                	.2byte	0x7f80
    1250:	0000                	unimp
    1252:	bf80                	.2byte	0xbf80
    1254:	0001                	nop
    1256:	7f80                	.2byte	0x7f80
    1258:	0000                	unimp
    125a:	3f80                	.2byte	0x3f80
    125c:	0001                	nop
    125e:	7f80                	.2byte	0x7f80
    1260:	aaaa                	.2byte	0xaaaa
    1262:	ffaa                	.2byte	0xffaa
    1264:	0001                	nop
    1266:	7f80                	.2byte	0x7f80
    1268:	0001                	nop
    126a:	7f80                	.2byte	0x7f80
    126c:	0001                	nop
    126e:	7f80                	.2byte	0x7f80
    1270:	5555                	li	a0,-11
    1272:	ffc5                	bnez	a5,122a <test_fp+0x226>
    1274:	0001                	nop
    1276:	7f80                	.2byte	0x7f80
    1278:	0001                	nop
    127a:	7fc0                	.2byte	0x7fc0
    127c:	0001                	nop
    127e:	7f80                	.2byte	0x7f80
    1280:	0000                	unimp
    1282:	ffc0                	.2byte	0xffc0
    1284:	0001                	nop
    1286:	7f80                	.2byte	0x7f80
    1288:	0000                	unimp
    128a:	7fc0                	.2byte	0x7fc0
    128c:	0001                	nop
    128e:	7f80                	.2byte	0x7f80
    1290:	0000                	unimp
    1292:	ff80                	.2byte	0xff80
    1294:	0001                	nop
    1296:	7f80                	.2byte	0x7f80
    1298:	0000                	unimp
    129a:	7f80                	.2byte	0x7f80
    129c:	0001                	nop
    129e:	7f80                	.2byte	0x7f80
    12a0:	ffff                	.2byte	0xffff
    12a2:	ff7f                	.2byte	0xff7f
    12a4:	0001                	nop
    12a6:	7f80                	.2byte	0x7f80
    12a8:	ffff                	.2byte	0xffff
    12aa:	7f7f                	.2byte	0x7f7f
    12ac:	0001                	nop
    12ae:	7f80                	.2byte	0x7f80
    12b0:	5555                	li	a0,-11
    12b2:	8085                	srl	s1,s1,0x1
    12b4:	0001                	nop
    12b6:	7f80                	.2byte	0x7f80
    12b8:	0001                	nop
    12ba:	0080                	add	s0,sp,64
    12bc:	0001                	nop
    12be:	7f80                	.2byte	0x7f80
    12c0:	0000                	unimp
    12c2:	8080                	.2byte	0x8080
    12c4:	0001                	nop
    12c6:	7f80                	.2byte	0x7f80
    12c8:	0000                	unimp
    12ca:	0080                	add	s0,sp,64
    12cc:	0001                	nop
    12ce:	7f80                	.2byte	0x7f80
    12d0:	ffff                	.2byte	0xffff
    12d2:	807f 0001 7f80 ffff 	.byte	0x7f, 0x80, 0x01, 0x00, 0x80, 0x7f, 0xff, 0xff, 0x7f, 0x00
    12da:	007f 
    12dc:	0001                	nop
    12de:	7f80                	.2byte	0x7f80
    12e0:	fffe                	.2byte	0xfffe
    12e2:	807f 0001 7f80 0002 	.byte	0x7f, 0x80, 0x01, 0x00, 0x80, 0x7f, 0x02, 0x00, 0x00, 0x00
    12ea:	0000 
    12ec:	0001                	nop
    12ee:	7f80                	.2byte	0x7f80
    12f0:	0001                	nop
    12f2:	8000                	.2byte	0x8000
    12f4:	0001                	nop
    12f6:	7f80                	.2byte	0x7f80
    12f8:	0001                	nop
    12fa:	0000                	unimp
    12fc:	0001                	nop
    12fe:	7f80                	.2byte	0x7f80
    1300:	0000                	unimp
    1302:	8000                	.2byte	0x8000
    1304:	0001                	nop
    1306:	7f80                	.2byte	0x7f80
    1308:	0000                	unimp
    130a:	0000                	unimp
    130c:	5555                	li	a0,-11
    130e:	ffc5                	bnez	a5,12c6 <test_fp+0x2c2>
    1310:	0000                	unimp
    1312:	bf80                	.2byte	0xbf80
    1314:	5555                	li	a0,-11
    1316:	ffc5                	bnez	a5,12ce <test_fp+0x2ca>
    1318:	0000                	unimp
    131a:	3f80                	.2byte	0x3f80
    131c:	5555                	li	a0,-11
    131e:	ffc5                	bnez	a5,12d6 <test_fp+0x2d2>
    1320:	aaaa                	.2byte	0xaaaa
    1322:	ffaa                	.2byte	0xffaa
    1324:	5555                	li	a0,-11
    1326:	ffc5                	bnez	a5,12de <test_fp+0x2da>
    1328:	0001                	nop
    132a:	7f80                	.2byte	0x7f80
    132c:	5555                	li	a0,-11
    132e:	ffc5                	bnez	a5,12e6 <test_fp+0x2e2>
    1330:	5555                	li	a0,-11
    1332:	ffc5                	bnez	a5,12ea <test_fp+0x2e6>
    1334:	5555                	li	a0,-11
    1336:	ffc5                	bnez	a5,12ee <test_fp+0x2ea>
    1338:	0001                	nop
    133a:	7fc0                	.2byte	0x7fc0
    133c:	5555                	li	a0,-11
    133e:	ffc5                	bnez	a5,12f6 <test_fp+0x2f2>
    1340:	0000                	unimp
    1342:	ffc0                	.2byte	0xffc0
    1344:	5555                	li	a0,-11
    1346:	ffc5                	bnez	a5,12fe <test_fp+0x2fa>
    1348:	0000                	unimp
    134a:	7fc0                	.2byte	0x7fc0
    134c:	5555                	li	a0,-11
    134e:	ffc5                	bnez	a5,1306 <test_fp+0x302>
    1350:	0000                	unimp
    1352:	ff80                	.2byte	0xff80
    1354:	5555                	li	a0,-11
    1356:	ffc5                	bnez	a5,130e <test_fp+0x30a>
    1358:	0000                	unimp
    135a:	7f80                	.2byte	0x7f80
    135c:	5555                	li	a0,-11
    135e:	ffc5                	bnez	a5,1316 <test_fp+0x312>
    1360:	ffff                	.2byte	0xffff
    1362:	ff7f                	.2byte	0xff7f
    1364:	5555                	li	a0,-11
    1366:	ffc5                	bnez	a5,131e <test_fp+0x31a>
    1368:	ffff                	.2byte	0xffff
    136a:	7f7f                	.2byte	0x7f7f
    136c:	5555                	li	a0,-11
    136e:	ffc5                	bnez	a5,1326 <test_fp+0x322>
    1370:	5555                	li	a0,-11
    1372:	8085                	srl	s1,s1,0x1
    1374:	5555                	li	a0,-11
    1376:	ffc5                	bnez	a5,132e <test_fp+0x32a>
    1378:	0001                	nop
    137a:	0080                	add	s0,sp,64
    137c:	5555                	li	a0,-11
    137e:	ffc5                	bnez	a5,1336 <test_fp+0x332>
    1380:	0000                	unimp
    1382:	8080                	.2byte	0x8080
    1384:	5555                	li	a0,-11
    1386:	ffc5                	bnez	a5,133e <test_fp+0x33a>
    1388:	0000                	unimp
    138a:	0080                	add	s0,sp,64
    138c:	5555                	li	a0,-11
    138e:	ffc5                	bnez	a5,1346 <test_fp+0x342>
    1390:	ffff                	.2byte	0xffff
    1392:	807f 5555 ffc5 ffff 	.byte	0x7f, 0x80, 0x55, 0x55, 0xc5, 0xff, 0xff, 0xff, 0x7f, 0x00
    139a:	007f 
    139c:	5555                	li	a0,-11
    139e:	ffc5                	bnez	a5,1356 <test_fp+0x352>
    13a0:	fffe                	.2byte	0xfffe
    13a2:	807f 5555 ffc5 0002 	.byte	0x7f, 0x80, 0x55, 0x55, 0xc5, 0xff, 0x02, 0x00, 0x00, 0x00
    13aa:	0000 
    13ac:	5555                	li	a0,-11
    13ae:	ffc5                	bnez	a5,1366 <test_fp+0x362>
    13b0:	0001                	nop
    13b2:	8000                	.2byte	0x8000
    13b4:	5555                	li	a0,-11
    13b6:	ffc5                	bnez	a5,136e <test_fp+0x36a>
    13b8:	0001                	nop
    13ba:	0000                	unimp
    13bc:	5555                	li	a0,-11
    13be:	ffc5                	bnez	a5,1376 <test_fp+0x372>
    13c0:	0000                	unimp
    13c2:	8000                	.2byte	0x8000
    13c4:	5555                	li	a0,-11
    13c6:	ffc5                	bnez	a5,137e <test_fp+0x37a>
    13c8:	0000                	unimp
    13ca:	0000                	unimp
    13cc:	0001                	nop
    13ce:	7fc0                	.2byte	0x7fc0
    13d0:	0000                	unimp
    13d2:	bf80                	.2byte	0xbf80
    13d4:	0001                	nop
    13d6:	7fc0                	.2byte	0x7fc0
    13d8:	0000                	unimp
    13da:	3f80                	.2byte	0x3f80
    13dc:	0001                	nop
    13de:	7fc0                	.2byte	0x7fc0
    13e0:	aaaa                	.2byte	0xaaaa
    13e2:	ffaa                	.2byte	0xffaa
    13e4:	0001                	nop
    13e6:	7fc0                	.2byte	0x7fc0
    13e8:	0001                	nop
    13ea:	7f80                	.2byte	0x7f80
    13ec:	0001                	nop
    13ee:	7fc0                	.2byte	0x7fc0
    13f0:	5555                	li	a0,-11
    13f2:	ffc5                	bnez	a5,13aa <test_fp+0x3a6>
    13f4:	0001                	nop
    13f6:	7fc0                	.2byte	0x7fc0
    13f8:	0001                	nop
    13fa:	7fc0                	.2byte	0x7fc0
    13fc:	0001                	nop
    13fe:	7fc0                	.2byte	0x7fc0
    1400:	0000                	unimp
    1402:	ffc0                	.2byte	0xffc0
    1404:	0001                	nop
    1406:	7fc0                	.2byte	0x7fc0
    1408:	0000                	unimp
    140a:	7fc0                	.2byte	0x7fc0
    140c:	0001                	nop
    140e:	7fc0                	.2byte	0x7fc0
    1410:	0000                	unimp
    1412:	ff80                	.2byte	0xff80
    1414:	0001                	nop
    1416:	7fc0                	.2byte	0x7fc0
    1418:	0000                	unimp
    141a:	7f80                	.2byte	0x7f80
    141c:	0001                	nop
    141e:	7fc0                	.2byte	0x7fc0
    1420:	ffff                	.2byte	0xffff
    1422:	ff7f                	.2byte	0xff7f
    1424:	0001                	nop
    1426:	7fc0                	.2byte	0x7fc0
    1428:	ffff                	.2byte	0xffff
    142a:	7f7f                	.2byte	0x7f7f
    142c:	0001                	nop
    142e:	7fc0                	.2byte	0x7fc0
    1430:	5555                	li	a0,-11
    1432:	8085                	srl	s1,s1,0x1
    1434:	0001                	nop
    1436:	7fc0                	.2byte	0x7fc0
    1438:	0001                	nop
    143a:	0080                	add	s0,sp,64
    143c:	0001                	nop
    143e:	7fc0                	.2byte	0x7fc0
    1440:	0000                	unimp
    1442:	8080                	.2byte	0x8080
    1444:	0001                	nop
    1446:	7fc0                	.2byte	0x7fc0
    1448:	0000                	unimp
    144a:	0080                	add	s0,sp,64
    144c:	0001                	nop
    144e:	7fc0                	.2byte	0x7fc0
    1450:	ffff                	.2byte	0xffff
    1452:	807f 0001 7fc0 ffff 	.byte	0x7f, 0x80, 0x01, 0x00, 0xc0, 0x7f, 0xff, 0xff, 0x7f, 0x00
    145a:	007f 
    145c:	0001                	nop
    145e:	7fc0                	.2byte	0x7fc0
    1460:	fffe                	.2byte	0xfffe
    1462:	807f 0001 7fc0 0002 	.byte	0x7f, 0x80, 0x01, 0x00, 0xc0, 0x7f, 0x02, 0x00, 0x00, 0x00
    146a:	0000 
    146c:	0001                	nop
    146e:	7fc0                	.2byte	0x7fc0
    1470:	0001                	nop
    1472:	8000                	.2byte	0x8000
    1474:	0001                	nop
    1476:	7fc0                	.2byte	0x7fc0
    1478:	0001                	nop
    147a:	0000                	unimp
    147c:	0001                	nop
    147e:	7fc0                	.2byte	0x7fc0
    1480:	0000                	unimp
    1482:	8000                	.2byte	0x8000
    1484:	0001                	nop
    1486:	7fc0                	.2byte	0x7fc0
    1488:	0000                	unimp
    148a:	0000                	unimp
    148c:	0000                	unimp
    148e:	ffc0                	.2byte	0xffc0
    1490:	0000                	unimp
    1492:	bf80                	.2byte	0xbf80
    1494:	0000                	unimp
    1496:	ffc0                	.2byte	0xffc0
    1498:	0000                	unimp
    149a:	3f80                	.2byte	0x3f80
    149c:	0000                	unimp
    149e:	ffc0                	.2byte	0xffc0
    14a0:	aaaa                	.2byte	0xaaaa
    14a2:	ffaa                	.2byte	0xffaa
    14a4:	0000                	unimp
    14a6:	ffc0                	.2byte	0xffc0
    14a8:	0001                	nop
    14aa:	7f80                	.2byte	0x7f80
    14ac:	0000                	unimp
    14ae:	ffc0                	.2byte	0xffc0
    14b0:	5555                	li	a0,-11
    14b2:	ffc5                	bnez	a5,146a <test_fp+0x466>
    14b4:	0000                	unimp
    14b6:	ffc0                	.2byte	0xffc0
    14b8:	0001                	nop
    14ba:	7fc0                	.2byte	0x7fc0
    14bc:	0000                	unimp
    14be:	ffc0                	.2byte	0xffc0
    14c0:	0000                	unimp
    14c2:	ffc0                	.2byte	0xffc0
    14c4:	0000                	unimp
    14c6:	ffc0                	.2byte	0xffc0
    14c8:	0000                	unimp
    14ca:	7fc0                	.2byte	0x7fc0
    14cc:	0000                	unimp
    14ce:	ffc0                	.2byte	0xffc0
    14d0:	0000                	unimp
    14d2:	ff80                	.2byte	0xff80
    14d4:	0000                	unimp
    14d6:	ffc0                	.2byte	0xffc0
    14d8:	0000                	unimp
    14da:	7f80                	.2byte	0x7f80
    14dc:	0000                	unimp
    14de:	ffc0                	.2byte	0xffc0
    14e0:	ffff                	.2byte	0xffff
    14e2:	ff7f                	.2byte	0xff7f
    14e4:	0000                	unimp
    14e6:	ffc0                	.2byte	0xffc0
    14e8:	ffff                	.2byte	0xffff
    14ea:	7f7f                	.2byte	0x7f7f
    14ec:	0000                	unimp
    14ee:	ffc0                	.2byte	0xffc0
    14f0:	5555                	li	a0,-11
    14f2:	8085                	srl	s1,s1,0x1
    14f4:	0000                	unimp
    14f6:	ffc0                	.2byte	0xffc0
    14f8:	0001                	nop
    14fa:	0080                	add	s0,sp,64
    14fc:	0000                	unimp
    14fe:	ffc0                	.2byte	0xffc0
    1500:	0000                	unimp
    1502:	8080                	.2byte	0x8080
    1504:	0000                	unimp
    1506:	ffc0                	.2byte	0xffc0
    1508:	0000                	unimp
    150a:	0080                	add	s0,sp,64
    150c:	0000                	unimp
    150e:	ffc0                	.2byte	0xffc0
    1510:	ffff                	.2byte	0xffff
    1512:	807f 0000 ffc0 ffff 	.byte	0x7f, 0x80, 0x00, 0x00, 0xc0, 0xff, 0xff, 0xff, 0x7f, 0x00
    151a:	007f 
    151c:	0000                	unimp
    151e:	ffc0                	.2byte	0xffc0
    1520:	fffe                	.2byte	0xfffe
    1522:	807f 0000 ffc0 0002 	.byte	0x7f, 0x80, 0x00, 0x00, 0xc0, 0xff, 0x02, 0x00, 0x00, 0x00
    152a:	0000 
    152c:	0000                	unimp
    152e:	ffc0                	.2byte	0xffc0
    1530:	0001                	nop
    1532:	8000                	.2byte	0x8000
    1534:	0000                	unimp
    1536:	ffc0                	.2byte	0xffc0
    1538:	0001                	nop
    153a:	0000                	unimp
    153c:	0000                	unimp
    153e:	ffc0                	.2byte	0xffc0
    1540:	0000                	unimp
    1542:	8000                	.2byte	0x8000
    1544:	0000                	unimp
    1546:	ffc0                	.2byte	0xffc0
    1548:	0000                	unimp
    154a:	0000                	unimp
    154c:	0000                	unimp
    154e:	7fc0                	.2byte	0x7fc0
    1550:	0000                	unimp
    1552:	bf80                	.2byte	0xbf80
    1554:	0000                	unimp
    1556:	7fc0                	.2byte	0x7fc0
    1558:	0000                	unimp
    155a:	3f80                	.2byte	0x3f80
    155c:	0000                	unimp
    155e:	7fc0                	.2byte	0x7fc0
    1560:	aaaa                	.2byte	0xaaaa
    1562:	ffaa                	.2byte	0xffaa
    1564:	0000                	unimp
    1566:	7fc0                	.2byte	0x7fc0
    1568:	0001                	nop
    156a:	7f80                	.2byte	0x7f80
    156c:	0000                	unimp
    156e:	7fc0                	.2byte	0x7fc0
    1570:	5555                	li	a0,-11
    1572:	ffc5                	bnez	a5,152a <test_fp+0x526>
    1574:	0000                	unimp
    1576:	7fc0                	.2byte	0x7fc0
    1578:	0001                	nop
    157a:	7fc0                	.2byte	0x7fc0
    157c:	0000                	unimp
    157e:	7fc0                	.2byte	0x7fc0
    1580:	0000                	unimp
    1582:	ffc0                	.2byte	0xffc0
    1584:	0000                	unimp
    1586:	7fc0                	.2byte	0x7fc0
    1588:	0000                	unimp
    158a:	7fc0                	.2byte	0x7fc0
    158c:	0000                	unimp
    158e:	7fc0                	.2byte	0x7fc0
    1590:	0000                	unimp
    1592:	ff80                	.2byte	0xff80
    1594:	0000                	unimp
    1596:	7fc0                	.2byte	0x7fc0
    1598:	0000                	unimp
    159a:	7f80                	.2byte	0x7f80
    159c:	0000                	unimp
    159e:	7fc0                	.2byte	0x7fc0
    15a0:	ffff                	.2byte	0xffff
    15a2:	ff7f                	.2byte	0xff7f
    15a4:	0000                	unimp
    15a6:	7fc0                	.2byte	0x7fc0
    15a8:	ffff                	.2byte	0xffff
    15aa:	7f7f                	.2byte	0x7f7f
    15ac:	0000                	unimp
    15ae:	7fc0                	.2byte	0x7fc0
    15b0:	5555                	li	a0,-11
    15b2:	8085                	srl	s1,s1,0x1
    15b4:	0000                	unimp
    15b6:	7fc0                	.2byte	0x7fc0
    15b8:	0001                	nop
    15ba:	0080                	add	s0,sp,64
    15bc:	0000                	unimp
    15be:	7fc0                	.2byte	0x7fc0
    15c0:	0000                	unimp
    15c2:	8080                	.2byte	0x8080
    15c4:	0000                	unimp
    15c6:	7fc0                	.2byte	0x7fc0
    15c8:	0000                	unimp
    15ca:	0080                	add	s0,sp,64
    15cc:	0000                	unimp
    15ce:	7fc0                	.2byte	0x7fc0
    15d0:	ffff                	.2byte	0xffff
    15d2:	807f 0000 7fc0 ffff 	.byte	0x7f, 0x80, 0x00, 0x00, 0xc0, 0x7f, 0xff, 0xff, 0x7f, 0x00
    15da:	007f 
    15dc:	0000                	unimp
    15de:	7fc0                	.2byte	0x7fc0
    15e0:	fffe                	.2byte	0xfffe
    15e2:	807f 0000 7fc0 0002 	.byte	0x7f, 0x80, 0x00, 0x00, 0xc0, 0x7f, 0x02, 0x00, 0x00, 0x00
    15ea:	0000 
    15ec:	0000                	unimp
    15ee:	7fc0                	.2byte	0x7fc0
    15f0:	0001                	nop
    15f2:	8000                	.2byte	0x8000
    15f4:	0000                	unimp
    15f6:	7fc0                	.2byte	0x7fc0
    15f8:	0001                	nop
    15fa:	0000                	unimp
    15fc:	0000                	unimp
    15fe:	7fc0                	.2byte	0x7fc0
    1600:	0000                	unimp
    1602:	8000                	.2byte	0x8000
    1604:	0000                	unimp
    1606:	7fc0                	.2byte	0x7fc0
    1608:	0000                	unimp
    160a:	0000                	unimp
    160c:	0000                	unimp
    160e:	ff80                	.2byte	0xff80
    1610:	0000                	unimp
    1612:	bf80                	.2byte	0xbf80
    1614:	0000                	unimp
    1616:	ff80                	.2byte	0xff80
    1618:	0000                	unimp
    161a:	3f80                	.2byte	0x3f80
    161c:	0000                	unimp
    161e:	ff80                	.2byte	0xff80
    1620:	aaaa                	.2byte	0xaaaa
    1622:	ffaa                	.2byte	0xffaa
    1624:	0000                	unimp
    1626:	ff80                	.2byte	0xff80
    1628:	0001                	nop
    162a:	7f80                	.2byte	0x7f80
    162c:	0000                	unimp
    162e:	ff80                	.2byte	0xff80
    1630:	5555                	li	a0,-11
    1632:	ffc5                	bnez	a5,15ea <test_fp+0x5e6>
    1634:	0000                	unimp
    1636:	ff80                	.2byte	0xff80
    1638:	0001                	nop
    163a:	7fc0                	.2byte	0x7fc0
    163c:	0000                	unimp
    163e:	ff80                	.2byte	0xff80
    1640:	0000                	unimp
    1642:	ffc0                	.2byte	0xffc0
    1644:	0000                	unimp
    1646:	ff80                	.2byte	0xff80
    1648:	0000                	unimp
    164a:	7fc0                	.2byte	0x7fc0
    164c:	0000                	unimp
    164e:	ff80                	.2byte	0xff80
    1650:	0000                	unimp
    1652:	ff80                	.2byte	0xff80
    1654:	0000                	unimp
    1656:	ff80                	.2byte	0xff80
    1658:	0000                	unimp
    165a:	7f80                	.2byte	0x7f80
    165c:	0000                	unimp
    165e:	ff80                	.2byte	0xff80
    1660:	ffff                	.2byte	0xffff
    1662:	ff7f                	.2byte	0xff7f
    1664:	0000                	unimp
    1666:	ff80                	.2byte	0xff80
    1668:	ffff                	.2byte	0xffff
    166a:	7f7f                	.2byte	0x7f7f
    166c:	0000                	unimp
    166e:	ff80                	.2byte	0xff80
    1670:	5555                	li	a0,-11
    1672:	8085                	srl	s1,s1,0x1
    1674:	0000                	unimp
    1676:	ff80                	.2byte	0xff80
    1678:	0001                	nop
    167a:	0080                	add	s0,sp,64
    167c:	0000                	unimp
    167e:	ff80                	.2byte	0xff80
    1680:	0000                	unimp
    1682:	8080                	.2byte	0x8080
    1684:	0000                	unimp
    1686:	ff80                	.2byte	0xff80
    1688:	0000                	unimp
    168a:	0080                	add	s0,sp,64
    168c:	0000                	unimp
    168e:	ff80                	.2byte	0xff80
    1690:	ffff                	.2byte	0xffff
    1692:	807f 0000 ff80 ffff 	.byte	0x7f, 0x80, 0x00, 0x00, 0x80, 0xff, 0xff, 0xff, 0x7f, 0x00
    169a:	007f 
    169c:	0000                	unimp
    169e:	ff80                	.2byte	0xff80
    16a0:	fffe                	.2byte	0xfffe
    16a2:	807f 0000 ff80 0002 	.byte	0x7f, 0x80, 0x00, 0x00, 0x80, 0xff, 0x02, 0x00, 0x00, 0x00
    16aa:	0000 
    16ac:	0000                	unimp
    16ae:	ff80                	.2byte	0xff80
    16b0:	0001                	nop
    16b2:	8000                	.2byte	0x8000
    16b4:	0000                	unimp
    16b6:	ff80                	.2byte	0xff80
    16b8:	0001                	nop
    16ba:	0000                	unimp
    16bc:	0000                	unimp
    16be:	ff80                	.2byte	0xff80
    16c0:	0000                	unimp
    16c2:	8000                	.2byte	0x8000
    16c4:	0000                	unimp
    16c6:	ff80                	.2byte	0xff80
    16c8:	0000                	unimp
    16ca:	0000                	unimp
    16cc:	0000                	unimp
    16ce:	7f80                	.2byte	0x7f80
    16d0:	0000                	unimp
    16d2:	bf80                	.2byte	0xbf80
    16d4:	0000                	unimp
    16d6:	7f80                	.2byte	0x7f80
    16d8:	0000                	unimp
    16da:	3f80                	.2byte	0x3f80
    16dc:	0000                	unimp
    16de:	7f80                	.2byte	0x7f80
    16e0:	aaaa                	.2byte	0xaaaa
    16e2:	ffaa                	.2byte	0xffaa
    16e4:	0000                	unimp
    16e6:	7f80                	.2byte	0x7f80
    16e8:	0001                	nop
    16ea:	7f80                	.2byte	0x7f80
    16ec:	0000                	unimp
    16ee:	7f80                	.2byte	0x7f80
    16f0:	5555                	li	a0,-11
    16f2:	ffc5                	bnez	a5,16aa <test_fp+0x6a6>
    16f4:	0000                	unimp
    16f6:	7f80                	.2byte	0x7f80
    16f8:	0001                	nop
    16fa:	7fc0                	.2byte	0x7fc0
    16fc:	0000                	unimp
    16fe:	7f80                	.2byte	0x7f80
    1700:	0000                	unimp
    1702:	ffc0                	.2byte	0xffc0
    1704:	0000                	unimp
    1706:	7f80                	.2byte	0x7f80
    1708:	0000                	unimp
    170a:	7fc0                	.2byte	0x7fc0
    170c:	0000                	unimp
    170e:	7f80                	.2byte	0x7f80
    1710:	0000                	unimp
    1712:	ff80                	.2byte	0xff80
    1714:	0000                	unimp
    1716:	7f80                	.2byte	0x7f80
    1718:	0000                	unimp
    171a:	7f80                	.2byte	0x7f80
    171c:	0000                	unimp
    171e:	7f80                	.2byte	0x7f80
    1720:	ffff                	.2byte	0xffff
    1722:	ff7f                	.2byte	0xff7f
    1724:	0000                	unimp
    1726:	7f80                	.2byte	0x7f80
    1728:	ffff                	.2byte	0xffff
    172a:	7f7f                	.2byte	0x7f7f
    172c:	0000                	unimp
    172e:	7f80                	.2byte	0x7f80
    1730:	5555                	li	a0,-11
    1732:	8085                	srl	s1,s1,0x1
    1734:	0000                	unimp
    1736:	7f80                	.2byte	0x7f80
    1738:	0001                	nop
    173a:	0080                	add	s0,sp,64
    173c:	0000                	unimp
    173e:	7f80                	.2byte	0x7f80
    1740:	0000                	unimp
    1742:	8080                	.2byte	0x8080
    1744:	0000                	unimp
    1746:	7f80                	.2byte	0x7f80
    1748:	0000                	unimp
    174a:	0080                	add	s0,sp,64
    174c:	0000                	unimp
    174e:	7f80                	.2byte	0x7f80
    1750:	ffff                	.2byte	0xffff
    1752:	807f 0000 7f80 ffff 	.byte	0x7f, 0x80, 0x00, 0x00, 0x80, 0x7f, 0xff, 0xff, 0x7f, 0x00
    175a:	007f 
    175c:	0000                	unimp
    175e:	7f80                	.2byte	0x7f80
    1760:	fffe                	.2byte	0xfffe
    1762:	807f 0000 7f80 0002 	.byte	0x7f, 0x80, 0x00, 0x00, 0x80, 0x7f, 0x02, 0x00, 0x00, 0x00
    176a:	0000 
    176c:	0000                	unimp
    176e:	7f80                	.2byte	0x7f80
    1770:	0001                	nop
    1772:	8000                	.2byte	0x8000
    1774:	0000                	unimp
    1776:	7f80                	.2byte	0x7f80
    1778:	0001                	nop
    177a:	0000                	unimp
    177c:	0000                	unimp
    177e:	7f80                	.2byte	0x7f80
    1780:	0000                	unimp
    1782:	8000                	.2byte	0x8000
    1784:	0000                	unimp
    1786:	7f80                	.2byte	0x7f80
    1788:	0000                	unimp
    178a:	0000                	unimp
    178c:	ffff                	.2byte	0xffff
    178e:	ff7f                	.2byte	0xff7f
    1790:	0000                	unimp
    1792:	bf80                	.2byte	0xbf80
    1794:	ffff                	.2byte	0xffff
    1796:	ff7f                	.2byte	0xff7f
    1798:	0000                	unimp
    179a:	3f80                	.2byte	0x3f80
    179c:	ffff                	.2byte	0xffff
    179e:	ff7f                	.2byte	0xff7f
    17a0:	aaaa                	.2byte	0xaaaa
    17a2:	ffaa                	.2byte	0xffaa
    17a4:	ffff                	.2byte	0xffff
    17a6:	ff7f                	.2byte	0xff7f
    17a8:	0001                	nop
    17aa:	7f80                	.2byte	0x7f80
    17ac:	ffff                	.2byte	0xffff
    17ae:	ff7f                	.2byte	0xff7f
    17b0:	5555                	li	a0,-11
    17b2:	ffc5                	bnez	a5,176a <test_fp+0x766>
    17b4:	ffff                	.2byte	0xffff
    17b6:	ff7f                	.2byte	0xff7f
    17b8:	0001                	nop
    17ba:	7fc0                	.2byte	0x7fc0
    17bc:	ffff                	.2byte	0xffff
    17be:	ff7f                	.2byte	0xff7f
    17c0:	0000                	unimp
    17c2:	ffc0                	.2byte	0xffc0
    17c4:	ffff                	.2byte	0xffff
    17c6:	ff7f                	.2byte	0xff7f
    17c8:	0000                	unimp
    17ca:	7fc0                	.2byte	0x7fc0
    17cc:	ffff                	.2byte	0xffff
    17ce:	ff7f                	.2byte	0xff7f
    17d0:	0000                	unimp
    17d2:	ff80                	.2byte	0xff80
    17d4:	ffff                	.2byte	0xffff
    17d6:	ff7f                	.2byte	0xff7f
    17d8:	0000                	unimp
    17da:	7f80                	.2byte	0x7f80
    17dc:	ffff                	.2byte	0xffff
    17de:	ff7f                	.2byte	0xff7f
    17e0:	ffff                	.2byte	0xffff
    17e2:	ff7f                	.2byte	0xff7f
    17e4:	ffff                	.2byte	0xffff
    17e6:	ff7f                	.2byte	0xff7f
    17e8:	ffff                	.2byte	0xffff
    17ea:	7f7f                	.2byte	0x7f7f
    17ec:	ffff                	.2byte	0xffff
    17ee:	ff7f                	.2byte	0xff7f
    17f0:	5555                	li	a0,-11
    17f2:	8085                	srl	s1,s1,0x1
    17f4:	ffff                	.2byte	0xffff
    17f6:	ff7f                	.2byte	0xff7f
    17f8:	0001                	nop
    17fa:	0080                	add	s0,sp,64
    17fc:	ffff                	.2byte	0xffff
    17fe:	ff7f                	.2byte	0xff7f
    1800:	0000                	unimp
    1802:	8080                	.2byte	0x8080
    1804:	ffff                	.2byte	0xffff
    1806:	ff7f                	.2byte	0xff7f
    1808:	0000                	unimp
    180a:	0080                	add	s0,sp,64
    180c:	ffff                	.2byte	0xffff
    180e:	ff7f                	.2byte	0xff7f
    1810:	ffff                	.2byte	0xffff
    1812:	807f ffff ff7f ffff 	.byte	0x7f, 0x80, 0xff, 0xff, 0x7f, 0xff, 0xff, 0xff, 0x7f, 0x00
    181a:	007f 
    181c:	ffff                	.2byte	0xffff
    181e:	ff7f                	.2byte	0xff7f
    1820:	fffe                	.2byte	0xfffe
    1822:	807f ffff ff7f 0002 	.byte	0x7f, 0x80, 0xff, 0xff, 0x7f, 0xff, 0x02, 0x00, 0x00, 0x00
    182a:	0000 
    182c:	ffff                	.2byte	0xffff
    182e:	ff7f                	.2byte	0xff7f
    1830:	0001                	nop
    1832:	8000                	.2byte	0x8000
    1834:	ffff                	.2byte	0xffff
    1836:	ff7f                	.2byte	0xff7f
    1838:	0001                	nop
    183a:	0000                	unimp
    183c:	ffff                	.2byte	0xffff
    183e:	ff7f                	.2byte	0xff7f
    1840:	0000                	unimp
    1842:	8000                	.2byte	0x8000
    1844:	ffff                	.2byte	0xffff
    1846:	ff7f                	.2byte	0xff7f
    1848:	0000                	unimp
    184a:	0000                	unimp
    184c:	ffff                	.2byte	0xffff
    184e:	7f7f                	.2byte	0x7f7f
    1850:	0000                	unimp
    1852:	bf80                	.2byte	0xbf80
    1854:	ffff                	.2byte	0xffff
    1856:	7f7f                	.2byte	0x7f7f
    1858:	0000                	unimp
    185a:	3f80                	.2byte	0x3f80
    185c:	ffff                	.2byte	0xffff
    185e:	7f7f                	.2byte	0x7f7f
    1860:	aaaa                	.2byte	0xaaaa
    1862:	ffaa                	.2byte	0xffaa
    1864:	ffff                	.2byte	0xffff
    1866:	7f7f                	.2byte	0x7f7f
    1868:	0001                	nop
    186a:	7f80                	.2byte	0x7f80
    186c:	ffff                	.2byte	0xffff
    186e:	7f7f                	.2byte	0x7f7f
    1870:	5555                	li	a0,-11
    1872:	ffc5                	bnez	a5,182a <test_fp+0x826>
    1874:	ffff                	.2byte	0xffff
    1876:	7f7f                	.2byte	0x7f7f
    1878:	0001                	nop
    187a:	7fc0                	.2byte	0x7fc0
    187c:	ffff                	.2byte	0xffff
    187e:	7f7f                	.2byte	0x7f7f
    1880:	0000                	unimp
    1882:	ffc0                	.2byte	0xffc0
    1884:	ffff                	.2byte	0xffff
    1886:	7f7f                	.2byte	0x7f7f
    1888:	0000                	unimp
    188a:	7fc0                	.2byte	0x7fc0
    188c:	ffff                	.2byte	0xffff
    188e:	7f7f                	.2byte	0x7f7f
    1890:	0000                	unimp
    1892:	ff80                	.2byte	0xff80
    1894:	ffff                	.2byte	0xffff
    1896:	7f7f                	.2byte	0x7f7f
    1898:	0000                	unimp
    189a:	7f80                	.2byte	0x7f80
    189c:	ffff                	.2byte	0xffff
    189e:	7f7f                	.2byte	0x7f7f
    18a0:	ffff                	.2byte	0xffff
    18a2:	ff7f                	.2byte	0xff7f
    18a4:	ffff                	.2byte	0xffff
    18a6:	7f7f                	.2byte	0x7f7f
    18a8:	ffff                	.2byte	0xffff
    18aa:	7f7f                	.2byte	0x7f7f
    18ac:	ffff                	.2byte	0xffff
    18ae:	7f7f                	.2byte	0x7f7f
    18b0:	5555                	li	a0,-11
    18b2:	8085                	srl	s1,s1,0x1
    18b4:	ffff                	.2byte	0xffff
    18b6:	7f7f                	.2byte	0x7f7f
    18b8:	0001                	nop
    18ba:	0080                	add	s0,sp,64
    18bc:	ffff                	.2byte	0xffff
    18be:	7f7f                	.2byte	0x7f7f
    18c0:	0000                	unimp
    18c2:	8080                	.2byte	0x8080
    18c4:	ffff                	.2byte	0xffff
    18c6:	7f7f                	.2byte	0x7f7f
    18c8:	0000                	unimp
    18ca:	0080                	add	s0,sp,64
    18cc:	ffff                	.2byte	0xffff
    18ce:	7f7f                	.2byte	0x7f7f
    18d0:	ffff                	.2byte	0xffff
    18d2:	807f ffff 7f7f ffff 	.byte	0x7f, 0x80, 0xff, 0xff, 0x7f, 0x7f, 0xff, 0xff, 0x7f, 0x00
    18da:	007f 
    18dc:	ffff                	.2byte	0xffff
    18de:	7f7f                	.2byte	0x7f7f
    18e0:	fffe                	.2byte	0xfffe
    18e2:	807f ffff 7f7f 0002 	.byte	0x7f, 0x80, 0xff, 0xff, 0x7f, 0x7f, 0x02, 0x00, 0x00, 0x00
    18ea:	0000 
    18ec:	ffff                	.2byte	0xffff
    18ee:	7f7f                	.2byte	0x7f7f
    18f0:	0001                	nop
    18f2:	8000                	.2byte	0x8000
    18f4:	ffff                	.2byte	0xffff
    18f6:	7f7f                	.2byte	0x7f7f
    18f8:	0001                	nop
    18fa:	0000                	unimp
    18fc:	ffff                	.2byte	0xffff
    18fe:	7f7f                	.2byte	0x7f7f
    1900:	0000                	unimp
    1902:	8000                	.2byte	0x8000
    1904:	ffff                	.2byte	0xffff
    1906:	7f7f                	.2byte	0x7f7f
    1908:	0000                	unimp
    190a:	0000                	unimp
    190c:	5555                	li	a0,-11
    190e:	8085                	srl	s1,s1,0x1
    1910:	0000                	unimp
    1912:	bf80                	.2byte	0xbf80
    1914:	5555                	li	a0,-11
    1916:	8085                	srl	s1,s1,0x1
    1918:	0000                	unimp
    191a:	3f80                	.2byte	0x3f80
    191c:	5555                	li	a0,-11
    191e:	8085                	srl	s1,s1,0x1
    1920:	aaaa                	.2byte	0xaaaa
    1922:	ffaa                	.2byte	0xffaa
    1924:	5555                	li	a0,-11
    1926:	8085                	srl	s1,s1,0x1
    1928:	0001                	nop
    192a:	7f80                	.2byte	0x7f80
    192c:	5555                	li	a0,-11
    192e:	8085                	srl	s1,s1,0x1
    1930:	5555                	li	a0,-11
    1932:	ffc5                	bnez	a5,18ea <test_fp+0x8e6>
    1934:	5555                	li	a0,-11
    1936:	8085                	srl	s1,s1,0x1
    1938:	0001                	nop
    193a:	7fc0                	.2byte	0x7fc0
    193c:	5555                	li	a0,-11
    193e:	8085                	srl	s1,s1,0x1
    1940:	0000                	unimp
    1942:	ffc0                	.2byte	0xffc0
    1944:	5555                	li	a0,-11
    1946:	8085                	srl	s1,s1,0x1
    1948:	0000                	unimp
    194a:	7fc0                	.2byte	0x7fc0
    194c:	5555                	li	a0,-11
    194e:	8085                	srl	s1,s1,0x1
    1950:	0000                	unimp
    1952:	ff80                	.2byte	0xff80
    1954:	5555                	li	a0,-11
    1956:	8085                	srl	s1,s1,0x1
    1958:	0000                	unimp
    195a:	7f80                	.2byte	0x7f80
    195c:	5555                	li	a0,-11
    195e:	8085                	srl	s1,s1,0x1
    1960:	ffff                	.2byte	0xffff
    1962:	ff7f                	.2byte	0xff7f
    1964:	5555                	li	a0,-11
    1966:	8085                	srl	s1,s1,0x1
    1968:	ffff                	.2byte	0xffff
    196a:	7f7f                	.2byte	0x7f7f
    196c:	5555                	li	a0,-11
    196e:	8085                	srl	s1,s1,0x1
    1970:	5555                	li	a0,-11
    1972:	8085                	srl	s1,s1,0x1
    1974:	5555                	li	a0,-11
    1976:	8085                	srl	s1,s1,0x1
    1978:	0001                	nop
    197a:	0080                	add	s0,sp,64
    197c:	5555                	li	a0,-11
    197e:	8085                	srl	s1,s1,0x1
    1980:	0000                	unimp
    1982:	8080                	.2byte	0x8080
    1984:	5555                	li	a0,-11
    1986:	8085                	srl	s1,s1,0x1
    1988:	0000                	unimp
    198a:	0080                	add	s0,sp,64
    198c:	5555                	li	a0,-11
    198e:	8085                	srl	s1,s1,0x1
    1990:	ffff                	.2byte	0xffff
    1992:	807f 5555 8085 ffff 	.byte	0x7f, 0x80, 0x55, 0x55, 0x85, 0x80, 0xff, 0xff, 0x7f, 0x00
    199a:	007f 
    199c:	5555                	li	a0,-11
    199e:	8085                	srl	s1,s1,0x1
    19a0:	fffe                	.2byte	0xfffe
    19a2:	807f 5555 8085 0002 	.byte	0x7f, 0x80, 0x55, 0x55, 0x85, 0x80, 0x02, 0x00, 0x00, 0x00
    19aa:	0000 
    19ac:	5555                	li	a0,-11
    19ae:	8085                	srl	s1,s1,0x1
    19b0:	0001                	nop
    19b2:	8000                	.2byte	0x8000
    19b4:	5555                	li	a0,-11
    19b6:	8085                	srl	s1,s1,0x1
    19b8:	0001                	nop
    19ba:	0000                	unimp
    19bc:	5555                	li	a0,-11
    19be:	8085                	srl	s1,s1,0x1
    19c0:	0000                	unimp
    19c2:	8000                	.2byte	0x8000
    19c4:	5555                	li	a0,-11
    19c6:	8085                	srl	s1,s1,0x1
    19c8:	0000                	unimp
    19ca:	0000                	unimp
    19cc:	0001                	nop
    19ce:	0080                	add	s0,sp,64
    19d0:	0000                	unimp
    19d2:	bf80                	.2byte	0xbf80
    19d4:	0001                	nop
    19d6:	0080                	add	s0,sp,64
    19d8:	0000                	unimp
    19da:	3f80                	.2byte	0x3f80
    19dc:	0001                	nop
    19de:	0080                	add	s0,sp,64
    19e0:	aaaa                	.2byte	0xaaaa
    19e2:	ffaa                	.2byte	0xffaa
    19e4:	0001                	nop
    19e6:	0080                	add	s0,sp,64
    19e8:	0001                	nop
    19ea:	7f80                	.2byte	0x7f80
    19ec:	0001                	nop
    19ee:	0080                	add	s0,sp,64
    19f0:	5555                	li	a0,-11
    19f2:	ffc5                	bnez	a5,19aa <test_fp+0x9a6>
    19f4:	0001                	nop
    19f6:	0080                	add	s0,sp,64
    19f8:	0001                	nop
    19fa:	7fc0                	.2byte	0x7fc0
    19fc:	0001                	nop
    19fe:	0080                	add	s0,sp,64
    1a00:	0000                	unimp
    1a02:	ffc0                	.2byte	0xffc0
    1a04:	0001                	nop
    1a06:	0080                	add	s0,sp,64
    1a08:	0000                	unimp
    1a0a:	7fc0                	.2byte	0x7fc0
    1a0c:	0001                	nop
    1a0e:	0080                	add	s0,sp,64
    1a10:	0000                	unimp
    1a12:	ff80                	.2byte	0xff80
    1a14:	0001                	nop
    1a16:	0080                	add	s0,sp,64
    1a18:	0000                	unimp
    1a1a:	7f80                	.2byte	0x7f80
    1a1c:	0001                	nop
    1a1e:	0080                	add	s0,sp,64
    1a20:	ffff                	.2byte	0xffff
    1a22:	ff7f                	.2byte	0xff7f
    1a24:	0001                	nop
    1a26:	0080                	add	s0,sp,64
    1a28:	ffff                	.2byte	0xffff
    1a2a:	7f7f                	.2byte	0x7f7f
    1a2c:	0001                	nop
    1a2e:	0080                	add	s0,sp,64
    1a30:	5555                	li	a0,-11
    1a32:	8085                	srl	s1,s1,0x1
    1a34:	0001                	nop
    1a36:	0080                	add	s0,sp,64
    1a38:	0001                	nop
    1a3a:	0080                	add	s0,sp,64
    1a3c:	0001                	nop
    1a3e:	0080                	add	s0,sp,64
    1a40:	0000                	unimp
    1a42:	8080                	.2byte	0x8080
    1a44:	0001                	nop
    1a46:	0080                	add	s0,sp,64
    1a48:	0000                	unimp
    1a4a:	0080                	add	s0,sp,64
    1a4c:	0001                	nop
    1a4e:	0080                	add	s0,sp,64
    1a50:	ffff                	.2byte	0xffff
    1a52:	807f 0001 0080 ffff 	.byte	0x7f, 0x80, 0x01, 0x00, 0x80, 0x00, 0xff, 0xff, 0x7f, 0x00
    1a5a:	007f 
    1a5c:	0001                	nop
    1a5e:	0080                	add	s0,sp,64
    1a60:	fffe                	.2byte	0xfffe
    1a62:	807f 0001 0080 0002 	.byte	0x7f, 0x80, 0x01, 0x00, 0x80, 0x00, 0x02, 0x00, 0x00, 0x00
    1a6a:	0000 
    1a6c:	0001                	nop
    1a6e:	0080                	add	s0,sp,64
    1a70:	0001                	nop
    1a72:	8000                	.2byte	0x8000
    1a74:	0001                	nop
    1a76:	0080                	add	s0,sp,64
    1a78:	0001                	nop
    1a7a:	0000                	unimp
    1a7c:	0001                	nop
    1a7e:	0080                	add	s0,sp,64
    1a80:	0000                	unimp
    1a82:	8000                	.2byte	0x8000
    1a84:	0001                	nop
    1a86:	0080                	add	s0,sp,64
    1a88:	0000                	unimp
    1a8a:	0000                	unimp
    1a8c:	0000                	unimp
    1a8e:	8080                	.2byte	0x8080
    1a90:	0000                	unimp
    1a92:	bf80                	.2byte	0xbf80
    1a94:	0000                	unimp
    1a96:	8080                	.2byte	0x8080
    1a98:	0000                	unimp
    1a9a:	3f80                	.2byte	0x3f80
    1a9c:	0000                	unimp
    1a9e:	8080                	.2byte	0x8080
    1aa0:	aaaa                	.2byte	0xaaaa
    1aa2:	ffaa                	.2byte	0xffaa
    1aa4:	0000                	unimp
    1aa6:	8080                	.2byte	0x8080
    1aa8:	0001                	nop
    1aaa:	7f80                	.2byte	0x7f80
    1aac:	0000                	unimp
    1aae:	8080                	.2byte	0x8080
    1ab0:	5555                	li	a0,-11
    1ab2:	ffc5                	bnez	a5,1a6a <test_fp+0xa66>
    1ab4:	0000                	unimp
    1ab6:	8080                	.2byte	0x8080
    1ab8:	0001                	nop
    1aba:	7fc0                	.2byte	0x7fc0
    1abc:	0000                	unimp
    1abe:	8080                	.2byte	0x8080
    1ac0:	0000                	unimp
    1ac2:	ffc0                	.2byte	0xffc0
    1ac4:	0000                	unimp
    1ac6:	8080                	.2byte	0x8080
    1ac8:	0000                	unimp
    1aca:	7fc0                	.2byte	0x7fc0
    1acc:	0000                	unimp
    1ace:	8080                	.2byte	0x8080
    1ad0:	0000                	unimp
    1ad2:	ff80                	.2byte	0xff80
    1ad4:	0000                	unimp
    1ad6:	8080                	.2byte	0x8080
    1ad8:	0000                	unimp
    1ada:	7f80                	.2byte	0x7f80
    1adc:	0000                	unimp
    1ade:	8080                	.2byte	0x8080
    1ae0:	ffff                	.2byte	0xffff
    1ae2:	ff7f                	.2byte	0xff7f
    1ae4:	0000                	unimp
    1ae6:	8080                	.2byte	0x8080
    1ae8:	ffff                	.2byte	0xffff
    1aea:	7f7f                	.2byte	0x7f7f
    1aec:	0000                	unimp
    1aee:	8080                	.2byte	0x8080
    1af0:	5555                	li	a0,-11
    1af2:	8085                	srl	s1,s1,0x1
    1af4:	0000                	unimp
    1af6:	8080                	.2byte	0x8080
    1af8:	0001                	nop
    1afa:	0080                	add	s0,sp,64
    1afc:	0000                	unimp
    1afe:	8080                	.2byte	0x8080
    1b00:	0000                	unimp
    1b02:	8080                	.2byte	0x8080
    1b04:	0000                	unimp
    1b06:	8080                	.2byte	0x8080
    1b08:	0000                	unimp
    1b0a:	0080                	add	s0,sp,64
    1b0c:	0000                	unimp
    1b0e:	8080                	.2byte	0x8080
    1b10:	ffff                	.2byte	0xffff
    1b12:	807f 0000 8080 ffff 	.byte	0x7f, 0x80, 0x00, 0x00, 0x80, 0x80, 0xff, 0xff, 0x7f, 0x00
    1b1a:	007f 
    1b1c:	0000                	unimp
    1b1e:	8080                	.2byte	0x8080
    1b20:	fffe                	.2byte	0xfffe
    1b22:	807f 0000 8080 0002 	.byte	0x7f, 0x80, 0x00, 0x00, 0x80, 0x80, 0x02, 0x00, 0x00, 0x00
    1b2a:	0000 
    1b2c:	0000                	unimp
    1b2e:	8080                	.2byte	0x8080
    1b30:	0001                	nop
    1b32:	8000                	.2byte	0x8000
    1b34:	0000                	unimp
    1b36:	8080                	.2byte	0x8080
    1b38:	0001                	nop
    1b3a:	0000                	unimp
    1b3c:	0000                	unimp
    1b3e:	8080                	.2byte	0x8080
    1b40:	0000                	unimp
    1b42:	8000                	.2byte	0x8000
    1b44:	0000                	unimp
    1b46:	8080                	.2byte	0x8080
    1b48:	0000                	unimp
    1b4a:	0000                	unimp
    1b4c:	0000                	unimp
    1b4e:	0080                	add	s0,sp,64
    1b50:	0000                	unimp
    1b52:	bf80                	.2byte	0xbf80
    1b54:	0000                	unimp
    1b56:	0080                	add	s0,sp,64
    1b58:	0000                	unimp
    1b5a:	3f80                	.2byte	0x3f80
    1b5c:	0000                	unimp
    1b5e:	0080                	add	s0,sp,64
    1b60:	aaaa                	.2byte	0xaaaa
    1b62:	ffaa                	.2byte	0xffaa
    1b64:	0000                	unimp
    1b66:	0080                	add	s0,sp,64
    1b68:	0001                	nop
    1b6a:	7f80                	.2byte	0x7f80
    1b6c:	0000                	unimp
    1b6e:	0080                	add	s0,sp,64
    1b70:	5555                	li	a0,-11
    1b72:	ffc5                	bnez	a5,1b2a <test_fp+0xb26>
    1b74:	0000                	unimp
    1b76:	0080                	add	s0,sp,64
    1b78:	0001                	nop
    1b7a:	7fc0                	.2byte	0x7fc0
    1b7c:	0000                	unimp
    1b7e:	0080                	add	s0,sp,64
    1b80:	0000                	unimp
    1b82:	ffc0                	.2byte	0xffc0
    1b84:	0000                	unimp
    1b86:	0080                	add	s0,sp,64
    1b88:	0000                	unimp
    1b8a:	7fc0                	.2byte	0x7fc0
    1b8c:	0000                	unimp
    1b8e:	0080                	add	s0,sp,64
    1b90:	0000                	unimp
    1b92:	ff80                	.2byte	0xff80
    1b94:	0000                	unimp
    1b96:	0080                	add	s0,sp,64
    1b98:	0000                	unimp
    1b9a:	7f80                	.2byte	0x7f80
    1b9c:	0000                	unimp
    1b9e:	0080                	add	s0,sp,64
    1ba0:	ffff                	.2byte	0xffff
    1ba2:	ff7f                	.2byte	0xff7f
    1ba4:	0000                	unimp
    1ba6:	0080                	add	s0,sp,64
    1ba8:	ffff                	.2byte	0xffff
    1baa:	7f7f                	.2byte	0x7f7f
    1bac:	0000                	unimp
    1bae:	0080                	add	s0,sp,64
    1bb0:	5555                	li	a0,-11
    1bb2:	8085                	srl	s1,s1,0x1
    1bb4:	0000                	unimp
    1bb6:	0080                	add	s0,sp,64
    1bb8:	0001                	nop
    1bba:	0080                	add	s0,sp,64
    1bbc:	0000                	unimp
    1bbe:	0080                	add	s0,sp,64
    1bc0:	0000                	unimp
    1bc2:	8080                	.2byte	0x8080
    1bc4:	0000                	unimp
    1bc6:	0080                	add	s0,sp,64
    1bc8:	0000                	unimp
    1bca:	0080                	add	s0,sp,64
    1bcc:	0000                	unimp
    1bce:	0080                	add	s0,sp,64
    1bd0:	ffff                	.2byte	0xffff
    1bd2:	807f 0000 0080 ffff 	.byte	0x7f, 0x80, 0x00, 0x00, 0x80, 0x00, 0xff, 0xff, 0x7f, 0x00
    1bda:	007f 
    1bdc:	0000                	unimp
    1bde:	0080                	add	s0,sp,64
    1be0:	fffe                	.2byte	0xfffe
    1be2:	807f 0000 0080 0002 	.byte	0x7f, 0x80, 0x00, 0x00, 0x80, 0x00, 0x02, 0x00, 0x00, 0x00
    1bea:	0000 
    1bec:	0000                	unimp
    1bee:	0080                	add	s0,sp,64
    1bf0:	0001                	nop
    1bf2:	8000                	.2byte	0x8000
    1bf4:	0000                	unimp
    1bf6:	0080                	add	s0,sp,64
    1bf8:	0001                	nop
    1bfa:	0000                	unimp
    1bfc:	0000                	unimp
    1bfe:	0080                	add	s0,sp,64
    1c00:	0000                	unimp
    1c02:	8000                	.2byte	0x8000
    1c04:	0000                	unimp
    1c06:	0080                	add	s0,sp,64
    1c08:	0000                	unimp
    1c0a:	0000                	unimp
    1c0c:	ffff                	.2byte	0xffff
    1c0e:	807f 0000 bf80 ffff 	.byte	0x7f, 0x80, 0x00, 0x00, 0x80, 0xbf, 0xff, 0xff, 0x7f, 0x80
    1c16:	807f 
    1c18:	0000                	unimp
    1c1a:	3f80                	.2byte	0x3f80
    1c1c:	ffff                	.2byte	0xffff
    1c1e:	807f aaaa ffaa ffff 	.byte	0x7f, 0x80, 0xaa, 0xaa, 0xaa, 0xff, 0xff, 0xff, 0x7f, 0x80
    1c26:	807f 
    1c28:	0001                	nop
    1c2a:	7f80                	.2byte	0x7f80
    1c2c:	ffff                	.2byte	0xffff
    1c2e:	807f 5555 ffc5 ffff 	.byte	0x7f, 0x80, 0x55, 0x55, 0xc5, 0xff, 0xff, 0xff, 0x7f, 0x80
    1c36:	807f 
    1c38:	0001                	nop
    1c3a:	7fc0                	.2byte	0x7fc0
    1c3c:	ffff                	.2byte	0xffff
    1c3e:	807f 0000 ffc0 ffff 	.byte	0x7f, 0x80, 0x00, 0x00, 0xc0, 0xff, 0xff, 0xff, 0x7f, 0x80
    1c46:	807f 
    1c48:	0000                	unimp
    1c4a:	7fc0                	.2byte	0x7fc0
    1c4c:	ffff                	.2byte	0xffff
    1c4e:	807f 0000 ff80 ffff 	.byte	0x7f, 0x80, 0x00, 0x00, 0x80, 0xff, 0xff, 0xff, 0x7f, 0x80
    1c56:	807f 
    1c58:	0000                	unimp
    1c5a:	7f80                	.2byte	0x7f80
    1c5c:	ffff                	.2byte	0xffff
    1c5e:	807f ffff ff7f ffff 	.byte	0x7f, 0x80, 0xff, 0xff, 0x7f, 0xff, 0xff, 0xff, 0x7f, 0x80
    1c66:	807f 
    1c68:	ffff                	.2byte	0xffff
    1c6a:	7f7f                	.2byte	0x7f7f
    1c6c:	ffff                	.2byte	0xffff
    1c6e:	807f 5555 8085 ffff 	.byte	0x7f, 0x80, 0x55, 0x55, 0x85, 0x80, 0xff, 0xff, 0x7f, 0x80
    1c76:	807f 
    1c78:	0001                	nop
    1c7a:	0080                	add	s0,sp,64
    1c7c:	ffff                	.2byte	0xffff
    1c7e:	807f 0000 8080 ffff 	.byte	0x7f, 0x80, 0x00, 0x00, 0x80, 0x80, 0xff, 0xff, 0x7f, 0x80
    1c86:	807f 
    1c88:	0000                	unimp
    1c8a:	0080                	add	s0,sp,64
    1c8c:	ffff                	.2byte	0xffff
    1c8e:	807f ffff 807f ffff 	.byte	0x7f, 0x80, 0xff, 0xff, 0x7f, 0x80, 0xff, 0xff, 0x7f, 0x80
    1c96:	807f 
    1c98:	ffff                	.2byte	0xffff
    1c9a:	007f ffff 807f fffe 	.byte	0x7f, 0x00, 0xff, 0xff, 0x7f, 0x80, 0xfe, 0xff, 0x7f, 0x80
    1ca2:	807f 
    1ca4:	ffff                	.2byte	0xffff
    1ca6:	807f 0002 0000 ffff 	.byte	0x7f, 0x80, 0x02, 0x00, 0x00, 0x00, 0xff, 0xff, 0x7f, 0x80
    1cae:	807f 
    1cb0:	0001                	nop
    1cb2:	8000                	.2byte	0x8000
    1cb4:	ffff                	.2byte	0xffff
    1cb6:	807f 0001 0000 ffff 	.byte	0x7f, 0x80, 0x01, 0x00, 0x00, 0x00, 0xff, 0xff, 0x7f, 0x80
    1cbe:	807f 
    1cc0:	0000                	unimp
    1cc2:	8000                	.2byte	0x8000
    1cc4:	ffff                	.2byte	0xffff
    1cc6:	807f 0000 0000 ffff 	.byte	0x7f, 0x80, 0x00, 0x00, 0x00, 0x00, 0xff, 0xff, 0x7f, 0x00
    1cce:	007f 
    1cd0:	0000                	unimp
    1cd2:	bf80                	.2byte	0xbf80
    1cd4:	ffff                	.2byte	0xffff
    1cd6:	007f 0000 3f80 ffff 	.byte	0x7f, 0x00, 0x00, 0x00, 0x80, 0x3f, 0xff, 0xff, 0x7f, 0x00
    1cde:	007f 
    1ce0:	aaaa                	.2byte	0xaaaa
    1ce2:	ffaa                	.2byte	0xffaa
    1ce4:	ffff                	.2byte	0xffff
    1ce6:	007f 0001 7f80 ffff 	.byte	0x7f, 0x00, 0x01, 0x00, 0x80, 0x7f, 0xff, 0xff, 0x7f, 0x00
    1cee:	007f 
    1cf0:	5555                	li	a0,-11
    1cf2:	ffc5                	bnez	a5,1caa <test_fp+0xca6>
    1cf4:	ffff                	.2byte	0xffff
    1cf6:	007f 0001 7fc0 ffff 	.byte	0x7f, 0x00, 0x01, 0x00, 0xc0, 0x7f, 0xff, 0xff, 0x7f, 0x00
    1cfe:	007f 
    1d00:	0000                	unimp
    1d02:	ffc0                	.2byte	0xffc0
    1d04:	ffff                	.2byte	0xffff
    1d06:	007f 0000 7fc0 ffff 	.byte	0x7f, 0x00, 0x00, 0x00, 0xc0, 0x7f, 0xff, 0xff, 0x7f, 0x00
    1d0e:	007f 
    1d10:	0000                	unimp
    1d12:	ff80                	.2byte	0xff80
    1d14:	ffff                	.2byte	0xffff
    1d16:	007f 0000 7f80 ffff 	.byte	0x7f, 0x00, 0x00, 0x00, 0x80, 0x7f, 0xff, 0xff, 0x7f, 0x00
    1d1e:	007f 
    1d20:	ffff                	.2byte	0xffff
    1d22:	ff7f                	.2byte	0xff7f
    1d24:	ffff                	.2byte	0xffff
    1d26:	007f ffff 7f7f ffff 	.byte	0x7f, 0x00, 0xff, 0xff, 0x7f, 0x7f, 0xff, 0xff, 0x7f, 0x00
    1d2e:	007f 
    1d30:	5555                	li	a0,-11
    1d32:	8085                	srl	s1,s1,0x1
    1d34:	ffff                	.2byte	0xffff
    1d36:	007f 0001 0080 ffff 	.byte	0x7f, 0x00, 0x01, 0x00, 0x80, 0x00, 0xff, 0xff, 0x7f, 0x00
    1d3e:	007f 
    1d40:	0000                	unimp
    1d42:	8080                	.2byte	0x8080
    1d44:	ffff                	.2byte	0xffff
    1d46:	007f 0000 0080 ffff 	.byte	0x7f, 0x00, 0x00, 0x00, 0x80, 0x00, 0xff, 0xff, 0x7f, 0x00
    1d4e:	007f 
    1d50:	ffff                	.2byte	0xffff
    1d52:	807f ffff 007f ffff 	.byte	0x7f, 0x80, 0xff, 0xff, 0x7f, 0x00, 0xff, 0xff, 0x7f, 0x00
    1d5a:	007f 
    1d5c:	ffff                	.2byte	0xffff
    1d5e:	007f fffe 807f ffff 	.byte	0x7f, 0x00, 0xfe, 0xff, 0x7f, 0x80, 0xff, 0xff, 0x7f, 0x00
    1d66:	007f 
    1d68:	0002                	c.slli64	zero
    1d6a:	0000                	unimp
    1d6c:	ffff                	.2byte	0xffff
    1d6e:	007f 0001 8000 ffff 	.byte	0x7f, 0x00, 0x01, 0x00, 0x00, 0x80, 0xff, 0xff, 0x7f, 0x00
    1d76:	007f 
    1d78:	0001                	nop
    1d7a:	0000                	unimp
    1d7c:	ffff                	.2byte	0xffff
    1d7e:	007f 0000 8000 ffff 	.byte	0x7f, 0x00, 0x00, 0x00, 0x00, 0x80, 0xff, 0xff, 0x7f, 0x00
    1d86:	007f 
    1d88:	0000                	unimp
    1d8a:	0000                	unimp
    1d8c:	fffe                	.2byte	0xfffe
    1d8e:	807f 0000 bf80 fffe 	.byte	0x7f, 0x80, 0x00, 0x00, 0x80, 0xbf, 0xfe, 0xff, 0x7f, 0x80
    1d96:	807f 
    1d98:	0000                	unimp
    1d9a:	3f80                	.2byte	0x3f80
    1d9c:	fffe                	.2byte	0xfffe
    1d9e:	807f aaaa ffaa fffe 	.byte	0x7f, 0x80, 0xaa, 0xaa, 0xaa, 0xff, 0xfe, 0xff, 0x7f, 0x80
    1da6:	807f 
    1da8:	0001                	nop
    1daa:	7f80                	.2byte	0x7f80
    1dac:	fffe                	.2byte	0xfffe
    1dae:	807f 5555 ffc5 fffe 	.byte	0x7f, 0x80, 0x55, 0x55, 0xc5, 0xff, 0xfe, 0xff, 0x7f, 0x80
    1db6:	807f 
    1db8:	0001                	nop
    1dba:	7fc0                	.2byte	0x7fc0
    1dbc:	fffe                	.2byte	0xfffe
    1dbe:	807f 0000 ffc0 fffe 	.byte	0x7f, 0x80, 0x00, 0x00, 0xc0, 0xff, 0xfe, 0xff, 0x7f, 0x80
    1dc6:	807f 
    1dc8:	0000                	unimp
    1dca:	7fc0                	.2byte	0x7fc0
    1dcc:	fffe                	.2byte	0xfffe
    1dce:	807f 0000 ff80 fffe 	.byte	0x7f, 0x80, 0x00, 0x00, 0x80, 0xff, 0xfe, 0xff, 0x7f, 0x80
    1dd6:	807f 
    1dd8:	0000                	unimp
    1dda:	7f80                	.2byte	0x7f80
    1ddc:	fffe                	.2byte	0xfffe
    1dde:	807f ffff ff7f fffe 	.byte	0x7f, 0x80, 0xff, 0xff, 0x7f, 0xff, 0xfe, 0xff, 0x7f, 0x80
    1de6:	807f 
    1de8:	ffff                	.2byte	0xffff
    1dea:	7f7f                	.2byte	0x7f7f
    1dec:	fffe                	.2byte	0xfffe
    1dee:	807f 5555 8085 fffe 	.byte	0x7f, 0x80, 0x55, 0x55, 0x85, 0x80, 0xfe, 0xff, 0x7f, 0x80
    1df6:	807f 
    1df8:	0001                	nop
    1dfa:	0080                	add	s0,sp,64
    1dfc:	fffe                	.2byte	0xfffe
    1dfe:	807f 0000 8080 fffe 	.byte	0x7f, 0x80, 0x00, 0x00, 0x80, 0x80, 0xfe, 0xff, 0x7f, 0x80
    1e06:	807f 
    1e08:	0000                	unimp
    1e0a:	0080                	add	s0,sp,64
    1e0c:	fffe                	.2byte	0xfffe
    1e0e:	807f ffff 807f fffe 	.byte	0x7f, 0x80, 0xff, 0xff, 0x7f, 0x80, 0xfe, 0xff, 0x7f, 0x80
    1e16:	807f 
    1e18:	ffff                	.2byte	0xffff
    1e1a:	007f fffe 807f fffe 	.byte	0x7f, 0x00, 0xfe, 0xff, 0x7f, 0x80, 0xfe, 0xff, 0x7f, 0x80
    1e22:	807f 
    1e24:	fffe                	.2byte	0xfffe
    1e26:	807f 0002 0000 fffe 	.byte	0x7f, 0x80, 0x02, 0x00, 0x00, 0x00, 0xfe, 0xff, 0x7f, 0x80
    1e2e:	807f 
    1e30:	0001                	nop
    1e32:	8000                	.2byte	0x8000
    1e34:	fffe                	.2byte	0xfffe
    1e36:	807f 0001 0000 fffe 	.byte	0x7f, 0x80, 0x01, 0x00, 0x00, 0x00, 0xfe, 0xff, 0x7f, 0x80
    1e3e:	807f 
    1e40:	0000                	unimp
    1e42:	8000                	.2byte	0x8000
    1e44:	fffe                	.2byte	0xfffe
    1e46:	807f 0000 0000 0002 	.byte	0x7f, 0x80, 0x00, 0x00, 0x00, 0x00, 0x02, 0x00, 0x00, 0x00
    1e4e:	0000 
    1e50:	0000                	unimp
    1e52:	bf80                	.2byte	0xbf80
    1e54:	0002                	c.slli64	zero
    1e56:	0000                	unimp
    1e58:	0000                	unimp
    1e5a:	3f80                	.2byte	0x3f80
    1e5c:	0002                	c.slli64	zero
    1e5e:	0000                	unimp
    1e60:	aaaa                	.2byte	0xaaaa
    1e62:	ffaa                	.2byte	0xffaa
    1e64:	0002                	c.slli64	zero
    1e66:	0000                	unimp
    1e68:	0001                	nop
    1e6a:	7f80                	.2byte	0x7f80
    1e6c:	0002                	c.slli64	zero
    1e6e:	0000                	unimp
    1e70:	5555                	li	a0,-11
    1e72:	ffc5                	bnez	a5,1e2a <test_fp+0xe26>
    1e74:	0002                	c.slli64	zero
    1e76:	0000                	unimp
    1e78:	0001                	nop
    1e7a:	7fc0                	.2byte	0x7fc0
    1e7c:	0002                	c.slli64	zero
    1e7e:	0000                	unimp
    1e80:	0000                	unimp
    1e82:	ffc0                	.2byte	0xffc0
    1e84:	0002                	c.slli64	zero
    1e86:	0000                	unimp
    1e88:	0000                	unimp
    1e8a:	7fc0                	.2byte	0x7fc0
    1e8c:	0002                	c.slli64	zero
    1e8e:	0000                	unimp
    1e90:	0000                	unimp
    1e92:	ff80                	.2byte	0xff80
    1e94:	0002                	c.slli64	zero
    1e96:	0000                	unimp
    1e98:	0000                	unimp
    1e9a:	7f80                	.2byte	0x7f80
    1e9c:	0002                	c.slli64	zero
    1e9e:	0000                	unimp
    1ea0:	ffff                	.2byte	0xffff
    1ea2:	ff7f                	.2byte	0xff7f
    1ea4:	0002                	c.slli64	zero
    1ea6:	0000                	unimp
    1ea8:	ffff                	.2byte	0xffff
    1eaa:	7f7f                	.2byte	0x7f7f
    1eac:	0002                	c.slli64	zero
    1eae:	0000                	unimp
    1eb0:	5555                	li	a0,-11
    1eb2:	8085                	srl	s1,s1,0x1
    1eb4:	0002                	c.slli64	zero
    1eb6:	0000                	unimp
    1eb8:	0001                	nop
    1eba:	0080                	add	s0,sp,64
    1ebc:	0002                	c.slli64	zero
    1ebe:	0000                	unimp
    1ec0:	0000                	unimp
    1ec2:	8080                	.2byte	0x8080
    1ec4:	0002                	c.slli64	zero
    1ec6:	0000                	unimp
    1ec8:	0000                	unimp
    1eca:	0080                	add	s0,sp,64
    1ecc:	0002                	c.slli64	zero
    1ece:	0000                	unimp
    1ed0:	ffff                	.2byte	0xffff
    1ed2:	807f 0002 0000 ffff 	.byte	0x7f, 0x80, 0x02, 0x00, 0x00, 0x00, 0xff, 0xff, 0x7f, 0x00
    1eda:	007f 
    1edc:	0002                	c.slli64	zero
    1ede:	0000                	unimp
    1ee0:	fffe                	.2byte	0xfffe
    1ee2:	807f 0002 0000 0002 	.byte	0x7f, 0x80, 0x02, 0x00, 0x00, 0x00, 0x02, 0x00, 0x00, 0x00
    1eea:	0000 
    1eec:	0002                	c.slli64	zero
    1eee:	0000                	unimp
    1ef0:	0001                	nop
    1ef2:	8000                	.2byte	0x8000
    1ef4:	0002                	c.slli64	zero
    1ef6:	0000                	unimp
    1ef8:	0001                	nop
    1efa:	0000                	unimp
    1efc:	0002                	c.slli64	zero
    1efe:	0000                	unimp
    1f00:	0000                	unimp
    1f02:	8000                	.2byte	0x8000
    1f04:	0002                	c.slli64	zero
    1f06:	0000                	unimp
    1f08:	0000                	unimp
    1f0a:	0000                	unimp
    1f0c:	0001                	nop
    1f0e:	8000                	.2byte	0x8000
    1f10:	0000                	unimp
    1f12:	bf80                	.2byte	0xbf80
    1f14:	0001                	nop
    1f16:	8000                	.2byte	0x8000
    1f18:	0000                	unimp
    1f1a:	3f80                	.2byte	0x3f80
    1f1c:	0001                	nop
    1f1e:	8000                	.2byte	0x8000
    1f20:	aaaa                	.2byte	0xaaaa
    1f22:	ffaa                	.2byte	0xffaa
    1f24:	0001                	nop
    1f26:	8000                	.2byte	0x8000
    1f28:	0001                	nop
    1f2a:	7f80                	.2byte	0x7f80
    1f2c:	0001                	nop
    1f2e:	8000                	.2byte	0x8000
    1f30:	5555                	li	a0,-11
    1f32:	ffc5                	bnez	a5,1eea <test_fp+0xee6>
    1f34:	0001                	nop
    1f36:	8000                	.2byte	0x8000
    1f38:	0001                	nop
    1f3a:	7fc0                	.2byte	0x7fc0
    1f3c:	0001                	nop
    1f3e:	8000                	.2byte	0x8000
    1f40:	0000                	unimp
    1f42:	ffc0                	.2byte	0xffc0
    1f44:	0001                	nop
    1f46:	8000                	.2byte	0x8000
    1f48:	0000                	unimp
    1f4a:	7fc0                	.2byte	0x7fc0
    1f4c:	0001                	nop
    1f4e:	8000                	.2byte	0x8000
    1f50:	0000                	unimp
    1f52:	ff80                	.2byte	0xff80
    1f54:	0001                	nop
    1f56:	8000                	.2byte	0x8000
    1f58:	0000                	unimp
    1f5a:	7f80                	.2byte	0x7f80
    1f5c:	0001                	nop
    1f5e:	8000                	.2byte	0x8000
    1f60:	ffff                	.2byte	0xffff
    1f62:	ff7f                	.2byte	0xff7f
    1f64:	0001                	nop
    1f66:	8000                	.2byte	0x8000
    1f68:	ffff                	.2byte	0xffff
    1f6a:	7f7f                	.2byte	0x7f7f
    1f6c:	0001                	nop
    1f6e:	8000                	.2byte	0x8000
    1f70:	5555                	li	a0,-11
    1f72:	8085                	srl	s1,s1,0x1
    1f74:	0001                	nop
    1f76:	8000                	.2byte	0x8000
    1f78:	0001                	nop
    1f7a:	0080                	add	s0,sp,64
    1f7c:	0001                	nop
    1f7e:	8000                	.2byte	0x8000
    1f80:	0000                	unimp
    1f82:	8080                	.2byte	0x8080
    1f84:	0001                	nop
    1f86:	8000                	.2byte	0x8000
    1f88:	0000                	unimp
    1f8a:	0080                	add	s0,sp,64
    1f8c:	0001                	nop
    1f8e:	8000                	.2byte	0x8000
    1f90:	ffff                	.2byte	0xffff
    1f92:	807f 0001 8000 ffff 	.byte	0x7f, 0x80, 0x01, 0x00, 0x00, 0x80, 0xff, 0xff, 0x7f, 0x00
    1f9a:	007f 
    1f9c:	0001                	nop
    1f9e:	8000                	.2byte	0x8000
    1fa0:	fffe                	.2byte	0xfffe
    1fa2:	807f 0001 8000 0002 	.byte	0x7f, 0x80, 0x01, 0x00, 0x00, 0x80, 0x02, 0x00, 0x00, 0x00
    1faa:	0000 
    1fac:	0001                	nop
    1fae:	8000                	.2byte	0x8000
    1fb0:	0001                	nop
    1fb2:	8000                	.2byte	0x8000
    1fb4:	0001                	nop
    1fb6:	8000                	.2byte	0x8000
    1fb8:	0001                	nop
    1fba:	0000                	unimp
    1fbc:	0001                	nop
    1fbe:	8000                	.2byte	0x8000
    1fc0:	0000                	unimp
    1fc2:	8000                	.2byte	0x8000
    1fc4:	0001                	nop
    1fc6:	8000                	.2byte	0x8000
    1fc8:	0000                	unimp
    1fca:	0000                	unimp
    1fcc:	0001                	nop
    1fce:	0000                	unimp
    1fd0:	0000                	unimp
    1fd2:	bf80                	.2byte	0xbf80
    1fd4:	0001                	nop
    1fd6:	0000                	unimp
    1fd8:	0000                	unimp
    1fda:	3f80                	.2byte	0x3f80
    1fdc:	0001                	nop
    1fde:	0000                	unimp
    1fe0:	aaaa                	.2byte	0xaaaa
    1fe2:	ffaa                	.2byte	0xffaa
    1fe4:	0001                	nop
    1fe6:	0000                	unimp
    1fe8:	0001                	nop
    1fea:	7f80                	.2byte	0x7f80
    1fec:	0001                	nop
    1fee:	0000                	unimp
    1ff0:	5555                	li	a0,-11
    1ff2:	ffc5                	bnez	a5,1faa <test_fp+0xfa6>
    1ff4:	0001                	nop
    1ff6:	0000                	unimp
    1ff8:	0001                	nop
    1ffa:	7fc0                	.2byte	0x7fc0
    1ffc:	0001                	nop
    1ffe:	0000                	unimp
    2000:	0000                	unimp
    2002:	ffc0                	.2byte	0xffc0
    2004:	0001                	nop
    2006:	0000                	unimp
    2008:	0000                	unimp
    200a:	7fc0                	.2byte	0x7fc0
    200c:	0001                	nop
    200e:	0000                	unimp
    2010:	0000                	unimp
    2012:	ff80                	.2byte	0xff80
    2014:	0001                	nop
    2016:	0000                	unimp
    2018:	0000                	unimp
    201a:	7f80                	.2byte	0x7f80
    201c:	0001                	nop
    201e:	0000                	unimp
    2020:	ffff                	.2byte	0xffff
    2022:	ff7f                	.2byte	0xff7f
    2024:	0001                	nop
    2026:	0000                	unimp
    2028:	ffff                	.2byte	0xffff
    202a:	7f7f                	.2byte	0x7f7f
    202c:	0001                	nop
    202e:	0000                	unimp
    2030:	5555                	li	a0,-11
    2032:	8085                	srl	s1,s1,0x1
    2034:	0001                	nop
    2036:	0000                	unimp
    2038:	0001                	nop
    203a:	0080                	add	s0,sp,64
    203c:	0001                	nop
    203e:	0000                	unimp
    2040:	0000                	unimp
    2042:	8080                	.2byte	0x8080
    2044:	0001                	nop
    2046:	0000                	unimp
    2048:	0000                	unimp
    204a:	0080                	add	s0,sp,64
    204c:	0001                	nop
    204e:	0000                	unimp
    2050:	ffff                	.2byte	0xffff
    2052:	807f 0001 0000 ffff 	.byte	0x7f, 0x80, 0x01, 0x00, 0x00, 0x00, 0xff, 0xff, 0x7f, 0x00
    205a:	007f 
    205c:	0001                	nop
    205e:	0000                	unimp
    2060:	fffe                	.2byte	0xfffe
    2062:	807f 0001 0000 0002 	.byte	0x7f, 0x80, 0x01, 0x00, 0x00, 0x00, 0x02, 0x00, 0x00, 0x00
    206a:	0000 
    206c:	0001                	nop
    206e:	0000                	unimp
    2070:	0001                	nop
    2072:	8000                	.2byte	0x8000
    2074:	0001                	nop
    2076:	0000                	unimp
    2078:	0001                	nop
    207a:	0000                	unimp
    207c:	0001                	nop
    207e:	0000                	unimp
    2080:	0000                	unimp
    2082:	8000                	.2byte	0x8000
    2084:	0001                	nop
	...
    208e:	8000                	.2byte	0x8000
    2090:	0000                	unimp
    2092:	bf80                	.2byte	0xbf80
    2094:	0000                	unimp
    2096:	8000                	.2byte	0x8000
    2098:	0000                	unimp
    209a:	3f80                	.2byte	0x3f80
    209c:	0000                	unimp
    209e:	8000                	.2byte	0x8000
    20a0:	aaaa                	.2byte	0xaaaa
    20a2:	ffaa                	.2byte	0xffaa
    20a4:	0000                	unimp
    20a6:	8000                	.2byte	0x8000
    20a8:	0001                	nop
    20aa:	7f80                	.2byte	0x7f80
    20ac:	0000                	unimp
    20ae:	8000                	.2byte	0x8000
    20b0:	5555                	li	a0,-11
    20b2:	ffc5                	bnez	a5,206a <test_fp+0x1066>
    20b4:	0000                	unimp
    20b6:	8000                	.2byte	0x8000
    20b8:	0001                	nop
    20ba:	7fc0                	.2byte	0x7fc0
    20bc:	0000                	unimp
    20be:	8000                	.2byte	0x8000
    20c0:	0000                	unimp
    20c2:	ffc0                	.2byte	0xffc0
    20c4:	0000                	unimp
    20c6:	8000                	.2byte	0x8000
    20c8:	0000                	unimp
    20ca:	7fc0                	.2byte	0x7fc0
    20cc:	0000                	unimp
    20ce:	8000                	.2byte	0x8000
    20d0:	0000                	unimp
    20d2:	ff80                	.2byte	0xff80
    20d4:	0000                	unimp
    20d6:	8000                	.2byte	0x8000
    20d8:	0000                	unimp
    20da:	7f80                	.2byte	0x7f80
    20dc:	0000                	unimp
    20de:	8000                	.2byte	0x8000
    20e0:	ffff                	.2byte	0xffff
    20e2:	ff7f                	.2byte	0xff7f
    20e4:	0000                	unimp
    20e6:	8000                	.2byte	0x8000
    20e8:	ffff                	.2byte	0xffff
    20ea:	7f7f                	.2byte	0x7f7f
    20ec:	0000                	unimp
    20ee:	8000                	.2byte	0x8000
    20f0:	5555                	li	a0,-11
    20f2:	8085                	srl	s1,s1,0x1
    20f4:	0000                	unimp
    20f6:	8000                	.2byte	0x8000
    20f8:	0001                	nop
    20fa:	0080                	add	s0,sp,64
    20fc:	0000                	unimp
    20fe:	8000                	.2byte	0x8000
    2100:	0000                	unimp
    2102:	8080                	.2byte	0x8080
    2104:	0000                	unimp
    2106:	8000                	.2byte	0x8000
    2108:	0000                	unimp
    210a:	0080                	add	s0,sp,64
    210c:	0000                	unimp
    210e:	8000                	.2byte	0x8000
    2110:	ffff                	.2byte	0xffff
    2112:	807f 0000 8000 ffff 	.byte	0x7f, 0x80, 0x00, 0x00, 0x00, 0x80, 0xff, 0xff, 0x7f, 0x00
    211a:	007f 
    211c:	0000                	unimp
    211e:	8000                	.2byte	0x8000
    2120:	fffe                	.2byte	0xfffe
    2122:	807f 0000 8000 0002 	.byte	0x7f, 0x80, 0x00, 0x00, 0x00, 0x80, 0x02, 0x00, 0x00, 0x00
    212a:	0000 
    212c:	0000                	unimp
    212e:	8000                	.2byte	0x8000
    2130:	0001                	nop
    2132:	8000                	.2byte	0x8000
    2134:	0000                	unimp
    2136:	8000                	.2byte	0x8000
    2138:	0001                	nop
    213a:	0000                	unimp
    213c:	0000                	unimp
    213e:	8000                	.2byte	0x8000
    2140:	0000                	unimp
    2142:	8000                	.2byte	0x8000
    2144:	0000                	unimp
    2146:	8000                	.2byte	0x8000
	...
    2150:	0000                	unimp
    2152:	bf80                	.2byte	0xbf80
    2154:	0000                	unimp
    2156:	0000                	unimp
    2158:	0000                	unimp
    215a:	3f80                	.2byte	0x3f80
    215c:	0000                	unimp
    215e:	0000                	unimp
    2160:	aaaa                	.2byte	0xaaaa
    2162:	ffaa                	.2byte	0xffaa
    2164:	0000                	unimp
    2166:	0000                	unimp
    2168:	0001                	nop
    216a:	7f80                	.2byte	0x7f80
    216c:	0000                	unimp
    216e:	0000                	unimp
    2170:	5555                	li	a0,-11
    2172:	ffc5                	bnez	a5,212a <test_fp+0x1126>
    2174:	0000                	unimp
    2176:	0000                	unimp
    2178:	0001                	nop
    217a:	7fc0                	.2byte	0x7fc0
    217c:	0000                	unimp
    217e:	0000                	unimp
    2180:	0000                	unimp
    2182:	ffc0                	.2byte	0xffc0
    2184:	0000                	unimp
    2186:	0000                	unimp
    2188:	0000                	unimp
    218a:	7fc0                	.2byte	0x7fc0
    218c:	0000                	unimp
    218e:	0000                	unimp
    2190:	0000                	unimp
    2192:	ff80                	.2byte	0xff80
    2194:	0000                	unimp
    2196:	0000                	unimp
    2198:	0000                	unimp
    219a:	7f80                	.2byte	0x7f80
    219c:	0000                	unimp
    219e:	0000                	unimp
    21a0:	ffff                	.2byte	0xffff
    21a2:	ff7f                	.2byte	0xff7f
    21a4:	0000                	unimp
    21a6:	0000                	unimp
    21a8:	ffff                	.2byte	0xffff
    21aa:	7f7f                	.2byte	0x7f7f
    21ac:	0000                	unimp
    21ae:	0000                	unimp
    21b0:	5555                	li	a0,-11
    21b2:	8085                	srl	s1,s1,0x1
    21b4:	0000                	unimp
    21b6:	0000                	unimp
    21b8:	0001                	nop
    21ba:	0080                	add	s0,sp,64
    21bc:	0000                	unimp
    21be:	0000                	unimp
    21c0:	0000                	unimp
    21c2:	8080                	.2byte	0x8080
    21c4:	0000                	unimp
    21c6:	0000                	unimp
    21c8:	0000                	unimp
    21ca:	0080                	add	s0,sp,64
    21cc:	0000                	unimp
    21ce:	0000                	unimp
    21d0:	ffff                	.2byte	0xffff
    21d2:	807f 0000 0000 ffff 	.byte	0x7f, 0x80, 0x00, 0x00, 0x00, 0x00, 0xff, 0xff, 0x7f, 0x00
    21da:	007f 
    21dc:	0000                	unimp
    21de:	0000                	unimp
    21e0:	fffe                	.2byte	0xfffe
    21e2:	807f 0000 0000 0002 	.byte	0x7f, 0x80, 0x00, 0x00, 0x00, 0x00, 0x02, 0x00, 0x00, 0x00
    21ea:	0000 
    21ec:	0000                	unimp
    21ee:	0000                	unimp
    21f0:	0001                	nop
    21f2:	8000                	.2byte	0x8000
    21f4:	0000                	unimp
    21f6:	0000                	unimp
    21f8:	0001                	nop
	...
    2202:	8000                	.2byte	0x8000
    2204:	0000                	unimp
    2206:	bf80                	.2byte	0xbf80
    2208:	0000                	unimp
    220a:	3f80                	.2byte	0x3f80
    220c:	0000                	unimp
    220e:	bf80                	.2byte	0xbf80
    2210:	aaaa                	.2byte	0xaaaa
    2212:	ffaa                	.2byte	0xffaa

00002214 <rvtest_data_end>:
	...

00002220 <data_begin>:
    2220:	deadbeef          	jal	t4,fffdd80a <_end+0xfffda3da>
    2224:	deadbeef          	jal	t4,fffdd80e <_end+0xfffda3de>
    2228:	deadbeef          	jal	t4,fffdd812 <_end+0xfffda3e2>
    222c:	deadbeef          	jal	t4,fffdd816 <_end+0xfffda3e6>
    2230:	deadbeef          	jal	t4,fffdd81a <_end+0xfffda3ea>
    2234:	deadbeef          	jal	t4,fffdd81e <_end+0xfffda3ee>
    2238:	deadbeef          	jal	t4,fffdd822 <_end+0xfffda3f2>
    223c:	deadbeef          	jal	t4,fffdd826 <_end+0xfffda3f6>
    2240:	deadbeef          	jal	t4,fffdd82a <_end+0xfffda3fa>
    2244:	deadbeef          	jal	t4,fffdd82e <_end+0xfffda3fe>
    2248:	deadbeef          	jal	t4,fffdd832 <_end+0xfffda402>
    224c:	deadbeef          	jal	t4,fffdd836 <_end+0xfffda406>
    2250:	deadbeef          	jal	t4,fffdd83a <_end+0xfffda40a>
    2254:	deadbeef          	jal	t4,fffdd83e <_end+0xfffda40e>
    2258:	deadbeef          	jal	t4,fffdd842 <_end+0xfffda412>
    225c:	deadbeef          	jal	t4,fffdd846 <_end+0xfffda416>
    2260:	deadbeef          	jal	t4,fffdd84a <_end+0xfffda41a>
    2264:	deadbeef          	jal	t4,fffdd84e <_end+0xfffda41e>
    2268:	deadbeef          	jal	t4,fffdd852 <_end+0xfffda422>
    226c:	deadbeef          	jal	t4,fffdd856 <_end+0xfffda426>
    2270:	deadbeef          	jal	t4,fffdd85a <_end+0xfffda42a>
    2274:	deadbeef          	jal	t4,fffdd85e <_end+0xfffda42e>
    2278:	deadbeef          	jal	t4,fffdd862 <_end+0xfffda432>
    227c:	deadbeef          	jal	t4,fffdd866 <_end+0xfffda436>
    2280:	deadbeef          	jal	t4,fffdd86a <_end+0xfffda43a>
    2284:	deadbeef          	jal	t4,fffdd86e <_end+0xfffda43e>
    2288:	deadbeef          	jal	t4,fffdd872 <_end+0xfffda442>
    228c:	deadbeef          	jal	t4,fffdd876 <_end+0xfffda446>
    2290:	deadbeef          	jal	t4,fffdd87a <_end+0xfffda44a>
    2294:	deadbeef          	jal	t4,fffdd87e <_end+0xfffda44e>
    2298:	deadbeef          	jal	t4,fffdd882 <_end+0xfffda452>
    229c:	deadbeef          	jal	t4,fffdd886 <_end+0xfffda456>
    22a0:	deadbeef          	jal	t4,fffdd88a <_end+0xfffda45a>
    22a4:	deadbeef          	jal	t4,fffdd88e <_end+0xfffda45e>
    22a8:	deadbeef          	jal	t4,fffdd892 <_end+0xfffda462>
    22ac:	deadbeef          	jal	t4,fffdd896 <_end+0xfffda466>
    22b0:	deadbeef          	jal	t4,fffdd89a <_end+0xfffda46a>
    22b4:	deadbeef          	jal	t4,fffdd89e <_end+0xfffda46e>
    22b8:	deadbeef          	jal	t4,fffdd8a2 <_end+0xfffda472>
    22bc:	deadbeef          	jal	t4,fffdd8a6 <_end+0xfffda476>
    22c0:	deadbeef          	jal	t4,fffdd8aa <_end+0xfffda47a>
    22c4:	deadbeef          	jal	t4,fffdd8ae <_end+0xfffda47e>
    22c8:	deadbeef          	jal	t4,fffdd8b2 <_end+0xfffda482>
    22cc:	deadbeef          	jal	t4,fffdd8b6 <_end+0xfffda486>
    22d0:	deadbeef          	jal	t4,fffdd8ba <_end+0xfffda48a>
    22d4:	deadbeef          	jal	t4,fffdd8be <_end+0xfffda48e>
    22d8:	deadbeef          	jal	t4,fffdd8c2 <_end+0xfffda492>
    22dc:	deadbeef          	jal	t4,fffdd8c6 <_end+0xfffda496>
    22e0:	deadbeef          	jal	t4,fffdd8ca <_end+0xfffda49a>
    22e4:	deadbeef          	jal	t4,fffdd8ce <_end+0xfffda49e>
    22e8:	deadbeef          	jal	t4,fffdd8d2 <_end+0xfffda4a2>
    22ec:	deadbeef          	jal	t4,fffdd8d6 <_end+0xfffda4a6>
    22f0:	deadbeef          	jal	t4,fffdd8da <_end+0xfffda4aa>
    22f4:	deadbeef          	jal	t4,fffdd8de <_end+0xfffda4ae>
    22f8:	deadbeef          	jal	t4,fffdd8e2 <_end+0xfffda4b2>
    22fc:	deadbeef          	jal	t4,fffdd8e6 <_end+0xfffda4b6>
    2300:	deadbeef          	jal	t4,fffdd8ea <_end+0xfffda4ba>
    2304:	deadbeef          	jal	t4,fffdd8ee <_end+0xfffda4be>
    2308:	deadbeef          	jal	t4,fffdd8f2 <_end+0xfffda4c2>
    230c:	deadbeef          	jal	t4,fffdd8f6 <_end+0xfffda4c6>
    2310:	deadbeef          	jal	t4,fffdd8fa <_end+0xfffda4ca>
    2314:	deadbeef          	jal	t4,fffdd8fe <_end+0xfffda4ce>
    2318:	deadbeef          	jal	t4,fffdd902 <_end+0xfffda4d2>
    231c:	deadbeef          	jal	t4,fffdd906 <_end+0xfffda4d6>
    2320:	deadbeef          	jal	t4,fffdd90a <_end+0xfffda4da>
    2324:	deadbeef          	jal	t4,fffdd90e <_end+0xfffda4de>
    2328:	deadbeef          	jal	t4,fffdd912 <_end+0xfffda4e2>
    232c:	deadbeef          	jal	t4,fffdd916 <_end+0xfffda4e6>
    2330:	deadbeef          	jal	t4,fffdd91a <_end+0xfffda4ea>
    2334:	deadbeef          	jal	t4,fffdd91e <_end+0xfffda4ee>
    2338:	deadbeef          	jal	t4,fffdd922 <_end+0xfffda4f2>
    233c:	deadbeef          	jal	t4,fffdd926 <_end+0xfffda4f6>
    2340:	deadbeef          	jal	t4,fffdd92a <_end+0xfffda4fa>
    2344:	deadbeef          	jal	t4,fffdd92e <_end+0xfffda4fe>
    2348:	deadbeef          	jal	t4,fffdd932 <_end+0xfffda502>
    234c:	deadbeef          	jal	t4,fffdd936 <_end+0xfffda506>
    2350:	deadbeef          	jal	t4,fffdd93a <_end+0xfffda50a>
    2354:	deadbeef          	jal	t4,fffdd93e <_end+0xfffda50e>
    2358:	deadbeef          	jal	t4,fffdd942 <_end+0xfffda512>
    235c:	deadbeef          	jal	t4,fffdd946 <_end+0xfffda516>
    2360:	deadbeef          	jal	t4,fffdd94a <_end+0xfffda51a>
    2364:	deadbeef          	jal	t4,fffdd94e <_end+0xfffda51e>
    2368:	deadbeef          	jal	t4,fffdd952 <_end+0xfffda522>
    236c:	deadbeef          	jal	t4,fffdd956 <_end+0xfffda526>
    2370:	deadbeef          	jal	t4,fffdd95a <_end+0xfffda52a>
    2374:	deadbeef          	jal	t4,fffdd95e <_end+0xfffda52e>
    2378:	deadbeef          	jal	t4,fffdd962 <_end+0xfffda532>
    237c:	deadbeef          	jal	t4,fffdd966 <_end+0xfffda536>
    2380:	deadbeef          	jal	t4,fffdd96a <_end+0xfffda53a>
    2384:	deadbeef          	jal	t4,fffdd96e <_end+0xfffda53e>
    2388:	deadbeef          	jal	t4,fffdd972 <_end+0xfffda542>
    238c:	deadbeef          	jal	t4,fffdd976 <_end+0xfffda546>
    2390:	deadbeef          	jal	t4,fffdd97a <_end+0xfffda54a>
    2394:	deadbeef          	jal	t4,fffdd97e <_end+0xfffda54e>
    2398:	deadbeef          	jal	t4,fffdd982 <_end+0xfffda552>
    239c:	deadbeef          	jal	t4,fffdd986 <_end+0xfffda556>
    23a0:	deadbeef          	jal	t4,fffdd98a <_end+0xfffda55a>
    23a4:	deadbeef          	jal	t4,fffdd98e <_end+0xfffda55e>
    23a8:	deadbeef          	jal	t4,fffdd992 <_end+0xfffda562>
    23ac:	deadbeef          	jal	t4,fffdd996 <_end+0xfffda566>
    23b0:	deadbeef          	jal	t4,fffdd99a <_end+0xfffda56a>
    23b4:	deadbeef          	jal	t4,fffdd99e <_end+0xfffda56e>
    23b8:	deadbeef          	jal	t4,fffdd9a2 <_end+0xfffda572>
    23bc:	deadbeef          	jal	t4,fffdd9a6 <_end+0xfffda576>
    23c0:	deadbeef          	jal	t4,fffdd9aa <_end+0xfffda57a>
    23c4:	deadbeef          	jal	t4,fffdd9ae <_end+0xfffda57e>
    23c8:	deadbeef          	jal	t4,fffdd9b2 <_end+0xfffda582>
    23cc:	deadbeef          	jal	t4,fffdd9b6 <_end+0xfffda586>
    23d0:	deadbeef          	jal	t4,fffdd9ba <_end+0xfffda58a>
    23d4:	deadbeef          	jal	t4,fffdd9be <_end+0xfffda58e>
    23d8:	deadbeef          	jal	t4,fffdd9c2 <_end+0xfffda592>
    23dc:	deadbeef          	jal	t4,fffdd9c6 <_end+0xfffda596>
    23e0:	deadbeef          	jal	t4,fffdd9ca <_end+0xfffda59a>
    23e4:	deadbeef          	jal	t4,fffdd9ce <_end+0xfffda59e>
    23e8:	deadbeef          	jal	t4,fffdd9d2 <_end+0xfffda5a2>
    23ec:	deadbeef          	jal	t4,fffdd9d6 <_end+0xfffda5a6>
    23f0:	deadbeef          	jal	t4,fffdd9da <_end+0xfffda5aa>
    23f4:	deadbeef          	jal	t4,fffdd9de <_end+0xfffda5ae>
    23f8:	deadbeef          	jal	t4,fffdd9e2 <_end+0xfffda5b2>
    23fc:	deadbeef          	jal	t4,fffdd9e6 <_end+0xfffda5b6>
    2400:	deadbeef          	jal	t4,fffdd9ea <_end+0xfffda5ba>
    2404:	deadbeef          	jal	t4,fffdd9ee <_end+0xfffda5be>
    2408:	deadbeef          	jal	t4,fffdd9f2 <_end+0xfffda5c2>
    240c:	deadbeef          	jal	t4,fffdd9f6 <_end+0xfffda5c6>
    2410:	deadbeef          	jal	t4,fffdd9fa <_end+0xfffda5ca>
    2414:	deadbeef          	jal	t4,fffdd9fe <_end+0xfffda5ce>
    2418:	deadbeef          	jal	t4,fffdda02 <_end+0xfffda5d2>
    241c:	deadbeef          	jal	t4,fffdda06 <_end+0xfffda5d6>
    2420:	deadbeef          	jal	t4,fffdda0a <_end+0xfffda5da>
    2424:	deadbeef          	jal	t4,fffdda0e <_end+0xfffda5de>
    2428:	deadbeef          	jal	t4,fffdda12 <_end+0xfffda5e2>
    242c:	deadbeef          	jal	t4,fffdda16 <_end+0xfffda5e6>
    2430:	deadbeef          	jal	t4,fffdda1a <_end+0xfffda5ea>
    2434:	deadbeef          	jal	t4,fffdda1e <_end+0xfffda5ee>
    2438:	deadbeef          	jal	t4,fffdda22 <_end+0xfffda5f2>
    243c:	deadbeef          	jal	t4,fffdda26 <_end+0xfffda5f6>
    2440:	deadbeef          	jal	t4,fffdda2a <_end+0xfffda5fa>
    2444:	deadbeef          	jal	t4,fffdda2e <_end+0xfffda5fe>
    2448:	deadbeef          	jal	t4,fffdda32 <_end+0xfffda602>
    244c:	deadbeef          	jal	t4,fffdda36 <_end+0xfffda606>
    2450:	deadbeef          	jal	t4,fffdda3a <_end+0xfffda60a>
    2454:	deadbeef          	jal	t4,fffdda3e <_end+0xfffda60e>
    2458:	deadbeef          	jal	t4,fffdda42 <_end+0xfffda612>
    245c:	deadbeef          	jal	t4,fffdda46 <_end+0xfffda616>
    2460:	deadbeef          	jal	t4,fffdda4a <_end+0xfffda61a>
    2464:	deadbeef          	jal	t4,fffdda4e <_end+0xfffda61e>
    2468:	deadbeef          	jal	t4,fffdda52 <_end+0xfffda622>
    246c:	deadbeef          	jal	t4,fffdda56 <_end+0xfffda626>
    2470:	deadbeef          	jal	t4,fffdda5a <_end+0xfffda62a>
    2474:	deadbeef          	jal	t4,fffdda5e <_end+0xfffda62e>
    2478:	deadbeef          	jal	t4,fffdda62 <_end+0xfffda632>
    247c:	deadbeef          	jal	t4,fffdda66 <_end+0xfffda636>
    2480:	deadbeef          	jal	t4,fffdda6a <_end+0xfffda63a>
    2484:	deadbeef          	jal	t4,fffdda6e <_end+0xfffda63e>
    2488:	deadbeef          	jal	t4,fffdda72 <_end+0xfffda642>
    248c:	deadbeef          	jal	t4,fffdda76 <_end+0xfffda646>
    2490:	deadbeef          	jal	t4,fffdda7a <_end+0xfffda64a>
    2494:	deadbeef          	jal	t4,fffdda7e <_end+0xfffda64e>
    2498:	deadbeef          	jal	t4,fffdda82 <_end+0xfffda652>
    249c:	deadbeef          	jal	t4,fffdda86 <_end+0xfffda656>
    24a0:	deadbeef          	jal	t4,fffdda8a <_end+0xfffda65a>
    24a4:	deadbeef          	jal	t4,fffdda8e <_end+0xfffda65e>
    24a8:	deadbeef          	jal	t4,fffdda92 <_end+0xfffda662>
    24ac:	deadbeef          	jal	t4,fffdda96 <_end+0xfffda666>
    24b0:	deadbeef          	jal	t4,fffdda9a <_end+0xfffda66a>
    24b4:	deadbeef          	jal	t4,fffdda9e <_end+0xfffda66e>
    24b8:	deadbeef          	jal	t4,fffddaa2 <_end+0xfffda672>
    24bc:	deadbeef          	jal	t4,fffddaa6 <_end+0xfffda676>
    24c0:	deadbeef          	jal	t4,fffddaaa <_end+0xfffda67a>
    24c4:	deadbeef          	jal	t4,fffddaae <_end+0xfffda67e>
    24c8:	deadbeef          	jal	t4,fffddab2 <_end+0xfffda682>
    24cc:	deadbeef          	jal	t4,fffddab6 <_end+0xfffda686>
    24d0:	deadbeef          	jal	t4,fffddaba <_end+0xfffda68a>
    24d4:	deadbeef          	jal	t4,fffddabe <_end+0xfffda68e>
    24d8:	deadbeef          	jal	t4,fffddac2 <_end+0xfffda692>
    24dc:	deadbeef          	jal	t4,fffddac6 <_end+0xfffda696>
    24e0:	deadbeef          	jal	t4,fffddaca <_end+0xfffda69a>
    24e4:	deadbeef          	jal	t4,fffddace <_end+0xfffda69e>
    24e8:	deadbeef          	jal	t4,fffddad2 <_end+0xfffda6a2>
    24ec:	deadbeef          	jal	t4,fffddad6 <_end+0xfffda6a6>
    24f0:	deadbeef          	jal	t4,fffddada <_end+0xfffda6aa>
    24f4:	deadbeef          	jal	t4,fffddade <_end+0xfffda6ae>
    24f8:	deadbeef          	jal	t4,fffddae2 <_end+0xfffda6b2>
    24fc:	deadbeef          	jal	t4,fffddae6 <_end+0xfffda6b6>
    2500:	deadbeef          	jal	t4,fffddaea <_end+0xfffda6ba>
    2504:	deadbeef          	jal	t4,fffddaee <_end+0xfffda6be>
    2508:	deadbeef          	jal	t4,fffddaf2 <_end+0xfffda6c2>
    250c:	deadbeef          	jal	t4,fffddaf6 <_end+0xfffda6c6>
    2510:	deadbeef          	jal	t4,fffddafa <_end+0xfffda6ca>
    2514:	deadbeef          	jal	t4,fffddafe <_end+0xfffda6ce>
    2518:	deadbeef          	jal	t4,fffddb02 <_end+0xfffda6d2>
    251c:	deadbeef          	jal	t4,fffddb06 <_end+0xfffda6d6>
    2520:	deadbeef          	jal	t4,fffddb0a <_end+0xfffda6da>
    2524:	deadbeef          	jal	t4,fffddb0e <_end+0xfffda6de>
    2528:	deadbeef          	jal	t4,fffddb12 <_end+0xfffda6e2>
    252c:	deadbeef          	jal	t4,fffddb16 <_end+0xfffda6e6>
    2530:	deadbeef          	jal	t4,fffddb1a <_end+0xfffda6ea>
    2534:	deadbeef          	jal	t4,fffddb1e <_end+0xfffda6ee>
    2538:	deadbeef          	jal	t4,fffddb22 <_end+0xfffda6f2>
    253c:	deadbeef          	jal	t4,fffddb26 <_end+0xfffda6f6>
    2540:	deadbeef          	jal	t4,fffddb2a <_end+0xfffda6fa>
    2544:	deadbeef          	jal	t4,fffddb2e <_end+0xfffda6fe>
    2548:	deadbeef          	jal	t4,fffddb32 <_end+0xfffda702>
    254c:	deadbeef          	jal	t4,fffddb36 <_end+0xfffda706>
    2550:	deadbeef          	jal	t4,fffddb3a <_end+0xfffda70a>
    2554:	deadbeef          	jal	t4,fffddb3e <_end+0xfffda70e>
    2558:	deadbeef          	jal	t4,fffddb42 <_end+0xfffda712>
    255c:	deadbeef          	jal	t4,fffddb46 <_end+0xfffda716>
    2560:	deadbeef          	jal	t4,fffddb4a <_end+0xfffda71a>
    2564:	deadbeef          	jal	t4,fffddb4e <_end+0xfffda71e>
    2568:	deadbeef          	jal	t4,fffddb52 <_end+0xfffda722>
    256c:	deadbeef          	jal	t4,fffddb56 <_end+0xfffda726>
    2570:	deadbeef          	jal	t4,fffddb5a <_end+0xfffda72a>
    2574:	deadbeef          	jal	t4,fffddb5e <_end+0xfffda72e>
    2578:	deadbeef          	jal	t4,fffddb62 <_end+0xfffda732>
    257c:	deadbeef          	jal	t4,fffddb66 <_end+0xfffda736>
    2580:	deadbeef          	jal	t4,fffddb6a <_end+0xfffda73a>
    2584:	deadbeef          	jal	t4,fffddb6e <_end+0xfffda73e>
    2588:	deadbeef          	jal	t4,fffddb72 <_end+0xfffda742>
    258c:	deadbeef          	jal	t4,fffddb76 <_end+0xfffda746>
    2590:	deadbeef          	jal	t4,fffddb7a <_end+0xfffda74a>
    2594:	deadbeef          	jal	t4,fffddb7e <_end+0xfffda74e>
    2598:	deadbeef          	jal	t4,fffddb82 <_end+0xfffda752>
    259c:	deadbeef          	jal	t4,fffddb86 <_end+0xfffda756>
    25a0:	deadbeef          	jal	t4,fffddb8a <_end+0xfffda75a>
    25a4:	deadbeef          	jal	t4,fffddb8e <_end+0xfffda75e>
    25a8:	deadbeef          	jal	t4,fffddb92 <_end+0xfffda762>
    25ac:	deadbeef          	jal	t4,fffddb96 <_end+0xfffda766>
    25b0:	deadbeef          	jal	t4,fffddb9a <_end+0xfffda76a>
    25b4:	deadbeef          	jal	t4,fffddb9e <_end+0xfffda76e>
    25b8:	deadbeef          	jal	t4,fffddba2 <_end+0xfffda772>
    25bc:	deadbeef          	jal	t4,fffddba6 <_end+0xfffda776>
    25c0:	deadbeef          	jal	t4,fffddbaa <_end+0xfffda77a>
    25c4:	deadbeef          	jal	t4,fffddbae <_end+0xfffda77e>
    25c8:	deadbeef          	jal	t4,fffddbb2 <_end+0xfffda782>
    25cc:	deadbeef          	jal	t4,fffddbb6 <_end+0xfffda786>
    25d0:	deadbeef          	jal	t4,fffddbba <_end+0xfffda78a>
    25d4:	deadbeef          	jal	t4,fffddbbe <_end+0xfffda78e>
    25d8:	deadbeef          	jal	t4,fffddbc2 <_end+0xfffda792>
    25dc:	deadbeef          	jal	t4,fffddbc6 <_end+0xfffda796>
    25e0:	deadbeef          	jal	t4,fffddbca <_end+0xfffda79a>
    25e4:	deadbeef          	jal	t4,fffddbce <_end+0xfffda79e>
    25e8:	deadbeef          	jal	t4,fffddbd2 <_end+0xfffda7a2>
    25ec:	deadbeef          	jal	t4,fffddbd6 <_end+0xfffda7a6>
    25f0:	deadbeef          	jal	t4,fffddbda <_end+0xfffda7aa>
    25f4:	deadbeef          	jal	t4,fffddbde <_end+0xfffda7ae>
    25f8:	deadbeef          	jal	t4,fffddbe2 <_end+0xfffda7b2>
    25fc:	deadbeef          	jal	t4,fffddbe6 <_end+0xfffda7b6>
    2600:	deadbeef          	jal	t4,fffddbea <_end+0xfffda7ba>
    2604:	deadbeef          	jal	t4,fffddbee <_end+0xfffda7be>
    2608:	deadbeef          	jal	t4,fffddbf2 <_end+0xfffda7c2>
    260c:	deadbeef          	jal	t4,fffddbf6 <_end+0xfffda7c6>
    2610:	deadbeef          	jal	t4,fffddbfa <_end+0xfffda7ca>
    2614:	deadbeef          	jal	t4,fffddbfe <_end+0xfffda7ce>
    2618:	deadbeef          	jal	t4,fffddc02 <_end+0xfffda7d2>
    261c:	deadbeef          	jal	t4,fffddc06 <_end+0xfffda7d6>
    2620:	deadbeef          	jal	t4,fffddc0a <_end+0xfffda7da>
    2624:	deadbeef          	jal	t4,fffddc0e <_end+0xfffda7de>
    2628:	deadbeef          	jal	t4,fffddc12 <_end+0xfffda7e2>
    262c:	deadbeef          	jal	t4,fffddc16 <_end+0xfffda7e6>
    2630:	deadbeef          	jal	t4,fffddc1a <_end+0xfffda7ea>
    2634:	deadbeef          	jal	t4,fffddc1e <_end+0xfffda7ee>
    2638:	deadbeef          	jal	t4,fffddc22 <_end+0xfffda7f2>
    263c:	deadbeef          	jal	t4,fffddc26 <_end+0xfffda7f6>
    2640:	deadbeef          	jal	t4,fffddc2a <_end+0xfffda7fa>
    2644:	deadbeef          	jal	t4,fffddc2e <_end+0xfffda7fe>
    2648:	deadbeef          	jal	t4,fffddc32 <_end+0xfffda802>
    264c:	deadbeef          	jal	t4,fffddc36 <_end+0xfffda806>
    2650:	deadbeef          	jal	t4,fffddc3a <_end+0xfffda80a>
    2654:	deadbeef          	jal	t4,fffddc3e <_end+0xfffda80e>
    2658:	deadbeef          	jal	t4,fffddc42 <_end+0xfffda812>
    265c:	deadbeef          	jal	t4,fffddc46 <_end+0xfffda816>
    2660:	deadbeef          	jal	t4,fffddc4a <_end+0xfffda81a>
    2664:	deadbeef          	jal	t4,fffddc4e <_end+0xfffda81e>
    2668:	deadbeef          	jal	t4,fffddc52 <_end+0xfffda822>
    266c:	deadbeef          	jal	t4,fffddc56 <_end+0xfffda826>
    2670:	deadbeef          	jal	t4,fffddc5a <_end+0xfffda82a>
    2674:	deadbeef          	jal	t4,fffddc5e <_end+0xfffda82e>
    2678:	deadbeef          	jal	t4,fffddc62 <_end+0xfffda832>
    267c:	deadbeef          	jal	t4,fffddc66 <_end+0xfffda836>
    2680:	deadbeef          	jal	t4,fffddc6a <_end+0xfffda83a>
    2684:	deadbeef          	jal	t4,fffddc6e <_end+0xfffda83e>
    2688:	deadbeef          	jal	t4,fffddc72 <_end+0xfffda842>
    268c:	deadbeef          	jal	t4,fffddc76 <_end+0xfffda846>
    2690:	deadbeef          	jal	t4,fffddc7a <_end+0xfffda84a>
    2694:	deadbeef          	jal	t4,fffddc7e <_end+0xfffda84e>
    2698:	deadbeef          	jal	t4,fffddc82 <_end+0xfffda852>
    269c:	deadbeef          	jal	t4,fffddc86 <_end+0xfffda856>
    26a0:	deadbeef          	jal	t4,fffddc8a <_end+0xfffda85a>
    26a4:	deadbeef          	jal	t4,fffddc8e <_end+0xfffda85e>
    26a8:	deadbeef          	jal	t4,fffddc92 <_end+0xfffda862>
    26ac:	deadbeef          	jal	t4,fffddc96 <_end+0xfffda866>
    26b0:	deadbeef          	jal	t4,fffddc9a <_end+0xfffda86a>
    26b4:	deadbeef          	jal	t4,fffddc9e <_end+0xfffda86e>
    26b8:	deadbeef          	jal	t4,fffddca2 <_end+0xfffda872>
    26bc:	deadbeef          	jal	t4,fffddca6 <_end+0xfffda876>
    26c0:	deadbeef          	jal	t4,fffddcaa <_end+0xfffda87a>
    26c4:	deadbeef          	jal	t4,fffddcae <_end+0xfffda87e>
    26c8:	deadbeef          	jal	t4,fffddcb2 <_end+0xfffda882>
    26cc:	deadbeef          	jal	t4,fffddcb6 <_end+0xfffda886>
    26d0:	deadbeef          	jal	t4,fffddcba <_end+0xfffda88a>
    26d4:	deadbeef          	jal	t4,fffddcbe <_end+0xfffda88e>
    26d8:	deadbeef          	jal	t4,fffddcc2 <_end+0xfffda892>
    26dc:	deadbeef          	jal	t4,fffddcc6 <_end+0xfffda896>
    26e0:	deadbeef          	jal	t4,fffddcca <_end+0xfffda89a>
    26e4:	deadbeef          	jal	t4,fffddcce <_end+0xfffda89e>
    26e8:	deadbeef          	jal	t4,fffddcd2 <_end+0xfffda8a2>
    26ec:	deadbeef          	jal	t4,fffddcd6 <_end+0xfffda8a6>
    26f0:	deadbeef          	jal	t4,fffddcda <_end+0xfffda8aa>
    26f4:	deadbeef          	jal	t4,fffddcde <_end+0xfffda8ae>
    26f8:	deadbeef          	jal	t4,fffddce2 <_end+0xfffda8b2>
    26fc:	deadbeef          	jal	t4,fffddce6 <_end+0xfffda8b6>
    2700:	deadbeef          	jal	t4,fffddcea <_end+0xfffda8ba>
    2704:	deadbeef          	jal	t4,fffddcee <_end+0xfffda8be>
    2708:	deadbeef          	jal	t4,fffddcf2 <_end+0xfffda8c2>
    270c:	deadbeef          	jal	t4,fffddcf6 <_end+0xfffda8c6>
    2710:	deadbeef          	jal	t4,fffddcfa <_end+0xfffda8ca>
    2714:	deadbeef          	jal	t4,fffddcfe <_end+0xfffda8ce>
    2718:	deadbeef          	jal	t4,fffddd02 <_end+0xfffda8d2>
    271c:	deadbeef          	jal	t4,fffddd06 <_end+0xfffda8d6>
    2720:	deadbeef          	jal	t4,fffddd0a <_end+0xfffda8da>
    2724:	deadbeef          	jal	t4,fffddd0e <_end+0xfffda8de>
    2728:	deadbeef          	jal	t4,fffddd12 <_end+0xfffda8e2>
    272c:	deadbeef          	jal	t4,fffddd16 <_end+0xfffda8e6>
    2730:	deadbeef          	jal	t4,fffddd1a <_end+0xfffda8ea>
    2734:	deadbeef          	jal	t4,fffddd1e <_end+0xfffda8ee>
    2738:	deadbeef          	jal	t4,fffddd22 <_end+0xfffda8f2>
    273c:	deadbeef          	jal	t4,fffddd26 <_end+0xfffda8f6>
    2740:	deadbeef          	jal	t4,fffddd2a <_end+0xfffda8fa>
    2744:	deadbeef          	jal	t4,fffddd2e <_end+0xfffda8fe>
    2748:	deadbeef          	jal	t4,fffddd32 <_end+0xfffda902>
    274c:	deadbeef          	jal	t4,fffddd36 <_end+0xfffda906>
    2750:	deadbeef          	jal	t4,fffddd3a <_end+0xfffda90a>
    2754:	deadbeef          	jal	t4,fffddd3e <_end+0xfffda90e>
    2758:	deadbeef          	jal	t4,fffddd42 <_end+0xfffda912>
    275c:	deadbeef          	jal	t4,fffddd46 <_end+0xfffda916>
    2760:	deadbeef          	jal	t4,fffddd4a <_end+0xfffda91a>
    2764:	deadbeef          	jal	t4,fffddd4e <_end+0xfffda91e>
    2768:	deadbeef          	jal	t4,fffddd52 <_end+0xfffda922>
    276c:	deadbeef          	jal	t4,fffddd56 <_end+0xfffda926>
    2770:	deadbeef          	jal	t4,fffddd5a <_end+0xfffda92a>
    2774:	deadbeef          	jal	t4,fffddd5e <_end+0xfffda92e>
    2778:	deadbeef          	jal	t4,fffddd62 <_end+0xfffda932>
    277c:	deadbeef          	jal	t4,fffddd66 <_end+0xfffda936>
    2780:	deadbeef          	jal	t4,fffddd6a <_end+0xfffda93a>
    2784:	deadbeef          	jal	t4,fffddd6e <_end+0xfffda93e>
    2788:	deadbeef          	jal	t4,fffddd72 <_end+0xfffda942>
    278c:	deadbeef          	jal	t4,fffddd76 <_end+0xfffda946>
    2790:	deadbeef          	jal	t4,fffddd7a <_end+0xfffda94a>
    2794:	deadbeef          	jal	t4,fffddd7e <_end+0xfffda94e>
    2798:	deadbeef          	jal	t4,fffddd82 <_end+0xfffda952>
    279c:	deadbeef          	jal	t4,fffddd86 <_end+0xfffda956>
    27a0:	deadbeef          	jal	t4,fffddd8a <_end+0xfffda95a>
    27a4:	deadbeef          	jal	t4,fffddd8e <_end+0xfffda95e>
    27a8:	deadbeef          	jal	t4,fffddd92 <_end+0xfffda962>
    27ac:	deadbeef          	jal	t4,fffddd96 <_end+0xfffda966>
    27b0:	deadbeef          	jal	t4,fffddd9a <_end+0xfffda96a>
    27b4:	deadbeef          	jal	t4,fffddd9e <_end+0xfffda96e>
    27b8:	deadbeef          	jal	t4,fffddda2 <_end+0xfffda972>
    27bc:	deadbeef          	jal	t4,fffddda6 <_end+0xfffda976>
    27c0:	deadbeef          	jal	t4,fffdddaa <_end+0xfffda97a>
    27c4:	deadbeef          	jal	t4,fffdddae <_end+0xfffda97e>
    27c8:	deadbeef          	jal	t4,fffdddb2 <_end+0xfffda982>
    27cc:	deadbeef          	jal	t4,fffdddb6 <_end+0xfffda986>
    27d0:	deadbeef          	jal	t4,fffdddba <_end+0xfffda98a>
    27d4:	deadbeef          	jal	t4,fffdddbe <_end+0xfffda98e>
    27d8:	deadbeef          	jal	t4,fffdddc2 <_end+0xfffda992>
    27dc:	deadbeef          	jal	t4,fffdddc6 <_end+0xfffda996>
    27e0:	deadbeef          	jal	t4,fffdddca <_end+0xfffda99a>
    27e4:	deadbeef          	jal	t4,fffdddce <_end+0xfffda99e>
    27e8:	deadbeef          	jal	t4,fffdddd2 <_end+0xfffda9a2>
    27ec:	deadbeef          	jal	t4,fffdddd6 <_end+0xfffda9a6>
    27f0:	deadbeef          	jal	t4,fffdddda <_end+0xfffda9aa>
    27f4:	deadbeef          	jal	t4,fffdddde <_end+0xfffda9ae>
    27f8:	deadbeef          	jal	t4,fffddde2 <_end+0xfffda9b2>
    27fc:	deadbeef          	jal	t4,fffddde6 <_end+0xfffda9b6>
    2800:	deadbeef          	jal	t4,fffdddea <_end+0xfffda9ba>
    2804:	deadbeef          	jal	t4,fffdddee <_end+0xfffda9be>
    2808:	deadbeef          	jal	t4,fffdddf2 <_end+0xfffda9c2>
    280c:	deadbeef          	jal	t4,fffdddf6 <_end+0xfffda9c6>
    2810:	deadbeef          	jal	t4,fffdddfa <_end+0xfffda9ca>
    2814:	deadbeef          	jal	t4,fffdddfe <_end+0xfffda9ce>
    2818:	deadbeef          	jal	t4,fffdde02 <_end+0xfffda9d2>
    281c:	deadbeef          	jal	t4,fffdde06 <_end+0xfffda9d6>
    2820:	deadbeef          	jal	t4,fffdde0a <_end+0xfffda9da>
    2824:	deadbeef          	jal	t4,fffdde0e <_end+0xfffda9de>
    2828:	deadbeef          	jal	t4,fffdde12 <_end+0xfffda9e2>
    282c:	deadbeef          	jal	t4,fffdde16 <_end+0xfffda9e6>
    2830:	deadbeef          	jal	t4,fffdde1a <_end+0xfffda9ea>
    2834:	deadbeef          	jal	t4,fffdde1e <_end+0xfffda9ee>
    2838:	deadbeef          	jal	t4,fffdde22 <_end+0xfffda9f2>
    283c:	deadbeef          	jal	t4,fffdde26 <_end+0xfffda9f6>
    2840:	deadbeef          	jal	t4,fffdde2a <_end+0xfffda9fa>
    2844:	deadbeef          	jal	t4,fffdde2e <_end+0xfffda9fe>
    2848:	deadbeef          	jal	t4,fffdde32 <_end+0xfffdaa02>
    284c:	deadbeef          	jal	t4,fffdde36 <_end+0xfffdaa06>
    2850:	deadbeef          	jal	t4,fffdde3a <_end+0xfffdaa0a>
    2854:	deadbeef          	jal	t4,fffdde3e <_end+0xfffdaa0e>
    2858:	deadbeef          	jal	t4,fffdde42 <_end+0xfffdaa12>
    285c:	deadbeef          	jal	t4,fffdde46 <_end+0xfffdaa16>
    2860:	deadbeef          	jal	t4,fffdde4a <_end+0xfffdaa1a>
    2864:	deadbeef          	jal	t4,fffdde4e <_end+0xfffdaa1e>
    2868:	deadbeef          	jal	t4,fffdde52 <_end+0xfffdaa22>
    286c:	deadbeef          	jal	t4,fffdde56 <_end+0xfffdaa26>
    2870:	deadbeef          	jal	t4,fffdde5a <_end+0xfffdaa2a>
    2874:	deadbeef          	jal	t4,fffdde5e <_end+0xfffdaa2e>
    2878:	deadbeef          	jal	t4,fffdde62 <_end+0xfffdaa32>
    287c:	deadbeef          	jal	t4,fffdde66 <_end+0xfffdaa36>
    2880:	deadbeef          	jal	t4,fffdde6a <_end+0xfffdaa3a>
    2884:	deadbeef          	jal	t4,fffdde6e <_end+0xfffdaa3e>
    2888:	deadbeef          	jal	t4,fffdde72 <_end+0xfffdaa42>
    288c:	deadbeef          	jal	t4,fffdde76 <_end+0xfffdaa46>
    2890:	deadbeef          	jal	t4,fffdde7a <_end+0xfffdaa4a>
    2894:	deadbeef          	jal	t4,fffdde7e <_end+0xfffdaa4e>
    2898:	deadbeef          	jal	t4,fffdde82 <_end+0xfffdaa52>
    289c:	deadbeef          	jal	t4,fffdde86 <_end+0xfffdaa56>
    28a0:	deadbeef          	jal	t4,fffdde8a <_end+0xfffdaa5a>
    28a4:	deadbeef          	jal	t4,fffdde8e <_end+0xfffdaa5e>
    28a8:	deadbeef          	jal	t4,fffdde92 <_end+0xfffdaa62>
    28ac:	deadbeef          	jal	t4,fffdde96 <_end+0xfffdaa66>
    28b0:	deadbeef          	jal	t4,fffdde9a <_end+0xfffdaa6a>
    28b4:	deadbeef          	jal	t4,fffdde9e <_end+0xfffdaa6e>
    28b8:	deadbeef          	jal	t4,fffddea2 <_end+0xfffdaa72>
    28bc:	deadbeef          	jal	t4,fffddea6 <_end+0xfffdaa76>
    28c0:	deadbeef          	jal	t4,fffddeaa <_end+0xfffdaa7a>
    28c4:	deadbeef          	jal	t4,fffddeae <_end+0xfffdaa7e>
    28c8:	deadbeef          	jal	t4,fffddeb2 <_end+0xfffdaa82>
    28cc:	deadbeef          	jal	t4,fffddeb6 <_end+0xfffdaa86>
    28d0:	deadbeef          	jal	t4,fffddeba <_end+0xfffdaa8a>
    28d4:	deadbeef          	jal	t4,fffddebe <_end+0xfffdaa8e>
    28d8:	deadbeef          	jal	t4,fffddec2 <_end+0xfffdaa92>
    28dc:	deadbeef          	jal	t4,fffddec6 <_end+0xfffdaa96>
    28e0:	deadbeef          	jal	t4,fffddeca <_end+0xfffdaa9a>
    28e4:	deadbeef          	jal	t4,fffddece <_end+0xfffdaa9e>
    28e8:	deadbeef          	jal	t4,fffdded2 <_end+0xfffdaaa2>
    28ec:	deadbeef          	jal	t4,fffdded6 <_end+0xfffdaaa6>
    28f0:	deadbeef          	jal	t4,fffddeda <_end+0xfffdaaaa>
    28f4:	deadbeef          	jal	t4,fffddede <_end+0xfffdaaae>
    28f8:	deadbeef          	jal	t4,fffddee2 <_end+0xfffdaab2>
    28fc:	deadbeef          	jal	t4,fffddee6 <_end+0xfffdaab6>
    2900:	deadbeef          	jal	t4,fffddeea <_end+0xfffdaaba>
    2904:	deadbeef          	jal	t4,fffddeee <_end+0xfffdaabe>
    2908:	deadbeef          	jal	t4,fffddef2 <_end+0xfffdaac2>
    290c:	deadbeef          	jal	t4,fffddef6 <_end+0xfffdaac6>
    2910:	deadbeef          	jal	t4,fffddefa <_end+0xfffdaaca>
    2914:	deadbeef          	jal	t4,fffddefe <_end+0xfffdaace>
    2918:	deadbeef          	jal	t4,fffddf02 <_end+0xfffdaad2>
    291c:	deadbeef          	jal	t4,fffddf06 <_end+0xfffdaad6>
    2920:	deadbeef          	jal	t4,fffddf0a <_end+0xfffdaada>
    2924:	deadbeef          	jal	t4,fffddf0e <_end+0xfffdaade>
    2928:	deadbeef          	jal	t4,fffddf12 <_end+0xfffdaae2>
    292c:	deadbeef          	jal	t4,fffddf16 <_end+0xfffdaae6>
    2930:	deadbeef          	jal	t4,fffddf1a <_end+0xfffdaaea>
    2934:	deadbeef          	jal	t4,fffddf1e <_end+0xfffdaaee>
    2938:	deadbeef          	jal	t4,fffddf22 <_end+0xfffdaaf2>
    293c:	deadbeef          	jal	t4,fffddf26 <_end+0xfffdaaf6>
    2940:	deadbeef          	jal	t4,fffddf2a <_end+0xfffdaafa>
    2944:	deadbeef          	jal	t4,fffddf2e <_end+0xfffdaafe>
    2948:	deadbeef          	jal	t4,fffddf32 <_end+0xfffdab02>
    294c:	deadbeef          	jal	t4,fffddf36 <_end+0xfffdab06>
    2950:	deadbeef          	jal	t4,fffddf3a <_end+0xfffdab0a>
    2954:	deadbeef          	jal	t4,fffddf3e <_end+0xfffdab0e>
    2958:	deadbeef          	jal	t4,fffddf42 <_end+0xfffdab12>
    295c:	deadbeef          	jal	t4,fffddf46 <_end+0xfffdab16>
    2960:	deadbeef          	jal	t4,fffddf4a <_end+0xfffdab1a>
    2964:	deadbeef          	jal	t4,fffddf4e <_end+0xfffdab1e>
    2968:	deadbeef          	jal	t4,fffddf52 <_end+0xfffdab22>
    296c:	deadbeef          	jal	t4,fffddf56 <_end+0xfffdab26>
    2970:	deadbeef          	jal	t4,fffddf5a <_end+0xfffdab2a>
    2974:	deadbeef          	jal	t4,fffddf5e <_end+0xfffdab2e>
    2978:	deadbeef          	jal	t4,fffddf62 <_end+0xfffdab32>
    297c:	deadbeef          	jal	t4,fffddf66 <_end+0xfffdab36>
    2980:	deadbeef          	jal	t4,fffddf6a <_end+0xfffdab3a>
    2984:	deadbeef          	jal	t4,fffddf6e <_end+0xfffdab3e>
    2988:	deadbeef          	jal	t4,fffddf72 <_end+0xfffdab42>
    298c:	deadbeef          	jal	t4,fffddf76 <_end+0xfffdab46>
    2990:	deadbeef          	jal	t4,fffddf7a <_end+0xfffdab4a>
    2994:	deadbeef          	jal	t4,fffddf7e <_end+0xfffdab4e>
    2998:	deadbeef          	jal	t4,fffddf82 <_end+0xfffdab52>
    299c:	deadbeef          	jal	t4,fffddf86 <_end+0xfffdab56>
    29a0:	deadbeef          	jal	t4,fffddf8a <_end+0xfffdab5a>
    29a4:	deadbeef          	jal	t4,fffddf8e <_end+0xfffdab5e>
    29a8:	deadbeef          	jal	t4,fffddf92 <_end+0xfffdab62>
    29ac:	deadbeef          	jal	t4,fffddf96 <_end+0xfffdab66>
    29b0:	deadbeef          	jal	t4,fffddf9a <_end+0xfffdab6a>
    29b4:	deadbeef          	jal	t4,fffddf9e <_end+0xfffdab6e>
    29b8:	deadbeef          	jal	t4,fffddfa2 <_end+0xfffdab72>
    29bc:	deadbeef          	jal	t4,fffddfa6 <_end+0xfffdab76>
    29c0:	deadbeef          	jal	t4,fffddfaa <_end+0xfffdab7a>
    29c4:	deadbeef          	jal	t4,fffddfae <_end+0xfffdab7e>
    29c8:	deadbeef          	jal	t4,fffddfb2 <_end+0xfffdab82>
    29cc:	deadbeef          	jal	t4,fffddfb6 <_end+0xfffdab86>
    29d0:	deadbeef          	jal	t4,fffddfba <_end+0xfffdab8a>
    29d4:	deadbeef          	jal	t4,fffddfbe <_end+0xfffdab8e>
    29d8:	deadbeef          	jal	t4,fffddfc2 <_end+0xfffdab92>
    29dc:	deadbeef          	jal	t4,fffddfc6 <_end+0xfffdab96>
    29e0:	deadbeef          	jal	t4,fffddfca <_end+0xfffdab9a>
    29e4:	deadbeef          	jal	t4,fffddfce <_end+0xfffdab9e>
    29e8:	deadbeef          	jal	t4,fffddfd2 <_end+0xfffdaba2>
    29ec:	deadbeef          	jal	t4,fffddfd6 <_end+0xfffdaba6>
    29f0:	deadbeef          	jal	t4,fffddfda <_end+0xfffdabaa>
    29f4:	deadbeef          	jal	t4,fffddfde <_end+0xfffdabae>
    29f8:	deadbeef          	jal	t4,fffddfe2 <_end+0xfffdabb2>
    29fc:	deadbeef          	jal	t4,fffddfe6 <_end+0xfffdabb6>
    2a00:	deadbeef          	jal	t4,fffddfea <_end+0xfffdabba>
    2a04:	deadbeef          	jal	t4,fffddfee <_end+0xfffdabbe>
    2a08:	deadbeef          	jal	t4,fffddff2 <_end+0xfffdabc2>
    2a0c:	deadbeef          	jal	t4,fffddff6 <_end+0xfffdabc6>

00002a10 <signature_x15_2>:
    2a10:	deadbeef          	jal	t4,fffddffa <_end+0xfffdabca>
    2a14:	deadbeef          	jal	t4,fffddffe <_end+0xfffdabce>
    2a18:	deadbeef          	jal	t4,fffde002 <_end+0xfffdabd2>
    2a1c:	deadbeef          	jal	t4,fffde006 <_end+0xfffdabd6>
    2a20:	deadbeef          	jal	t4,fffde00a <_end+0xfffdabda>
    2a24:	deadbeef          	jal	t4,fffde00e <_end+0xfffdabde>
    2a28:	deadbeef          	jal	t4,fffde012 <_end+0xfffdabe2>
    2a2c:	deadbeef          	jal	t4,fffde016 <_end+0xfffdabe6>
    2a30:	deadbeef          	jal	t4,fffde01a <_end+0xfffdabea>
    2a34:	deadbeef          	jal	t4,fffde01e <_end+0xfffdabee>
    2a38:	deadbeef          	jal	t4,fffde022 <_end+0xfffdabf2>
    2a3c:	deadbeef          	jal	t4,fffde026 <_end+0xfffdabf6>
    2a40:	deadbeef          	jal	t4,fffde02a <_end+0xfffdabfa>
    2a44:	deadbeef          	jal	t4,fffde02e <_end+0xfffdabfe>
    2a48:	deadbeef          	jal	t4,fffde032 <_end+0xfffdac02>
    2a4c:	deadbeef          	jal	t4,fffde036 <_end+0xfffdac06>
    2a50:	deadbeef          	jal	t4,fffde03a <_end+0xfffdac0a>
    2a54:	deadbeef          	jal	t4,fffde03e <_end+0xfffdac0e>
    2a58:	deadbeef          	jal	t4,fffde042 <_end+0xfffdac12>
    2a5c:	deadbeef          	jal	t4,fffde046 <_end+0xfffdac16>
    2a60:	deadbeef          	jal	t4,fffde04a <_end+0xfffdac1a>
    2a64:	deadbeef          	jal	t4,fffde04e <_end+0xfffdac1e>
    2a68:	deadbeef          	jal	t4,fffde052 <_end+0xfffdac22>
    2a6c:	deadbeef          	jal	t4,fffde056 <_end+0xfffdac26>
    2a70:	deadbeef          	jal	t4,fffde05a <_end+0xfffdac2a>
    2a74:	deadbeef          	jal	t4,fffde05e <_end+0xfffdac2e>
    2a78:	deadbeef          	jal	t4,fffde062 <_end+0xfffdac32>
    2a7c:	deadbeef          	jal	t4,fffde066 <_end+0xfffdac36>
    2a80:	deadbeef          	jal	t4,fffde06a <_end+0xfffdac3a>
    2a84:	deadbeef          	jal	t4,fffde06e <_end+0xfffdac3e>
    2a88:	deadbeef          	jal	t4,fffde072 <_end+0xfffdac42>
    2a8c:	deadbeef          	jal	t4,fffde076 <_end+0xfffdac46>
    2a90:	deadbeef          	jal	t4,fffde07a <_end+0xfffdac4a>
    2a94:	deadbeef          	jal	t4,fffde07e <_end+0xfffdac4e>
    2a98:	deadbeef          	jal	t4,fffde082 <_end+0xfffdac52>
    2a9c:	deadbeef          	jal	t4,fffde086 <_end+0xfffdac56>
    2aa0:	deadbeef          	jal	t4,fffde08a <_end+0xfffdac5a>
    2aa4:	deadbeef          	jal	t4,fffde08e <_end+0xfffdac5e>
    2aa8:	deadbeef          	jal	t4,fffde092 <_end+0xfffdac62>
    2aac:	deadbeef          	jal	t4,fffde096 <_end+0xfffdac66>
    2ab0:	deadbeef          	jal	t4,fffde09a <_end+0xfffdac6a>
    2ab4:	deadbeef          	jal	t4,fffde09e <_end+0xfffdac6e>
    2ab8:	deadbeef          	jal	t4,fffde0a2 <_end+0xfffdac72>
    2abc:	deadbeef          	jal	t4,fffde0a6 <_end+0xfffdac76>
    2ac0:	deadbeef          	jal	t4,fffde0aa <_end+0xfffdac7a>
    2ac4:	deadbeef          	jal	t4,fffde0ae <_end+0xfffdac7e>
    2ac8:	deadbeef          	jal	t4,fffde0b2 <_end+0xfffdac82>
    2acc:	deadbeef          	jal	t4,fffde0b6 <_end+0xfffdac86>
    2ad0:	deadbeef          	jal	t4,fffde0ba <_end+0xfffdac8a>
    2ad4:	deadbeef          	jal	t4,fffde0be <_end+0xfffdac8e>
    2ad8:	deadbeef          	jal	t4,fffde0c2 <_end+0xfffdac92>
    2adc:	deadbeef          	jal	t4,fffde0c6 <_end+0xfffdac96>
    2ae0:	deadbeef          	jal	t4,fffde0ca <_end+0xfffdac9a>
    2ae4:	deadbeef          	jal	t4,fffde0ce <_end+0xfffdac9e>
    2ae8:	deadbeef          	jal	t4,fffde0d2 <_end+0xfffdaca2>
    2aec:	deadbeef          	jal	t4,fffde0d6 <_end+0xfffdaca6>
    2af0:	deadbeef          	jal	t4,fffde0da <_end+0xfffdacaa>
    2af4:	deadbeef          	jal	t4,fffde0de <_end+0xfffdacae>
    2af8:	deadbeef          	jal	t4,fffde0e2 <_end+0xfffdacb2>
    2afc:	deadbeef          	jal	t4,fffde0e6 <_end+0xfffdacb6>
    2b00:	deadbeef          	jal	t4,fffde0ea <_end+0xfffdacba>
    2b04:	deadbeef          	jal	t4,fffde0ee <_end+0xfffdacbe>
    2b08:	deadbeef          	jal	t4,fffde0f2 <_end+0xfffdacc2>
    2b0c:	deadbeef          	jal	t4,fffde0f6 <_end+0xfffdacc6>
    2b10:	deadbeef          	jal	t4,fffde0fa <_end+0xfffdacca>
    2b14:	deadbeef          	jal	t4,fffde0fe <_end+0xfffdacce>
    2b18:	deadbeef          	jal	t4,fffde102 <_end+0xfffdacd2>
    2b1c:	deadbeef          	jal	t4,fffde106 <_end+0xfffdacd6>
    2b20:	deadbeef          	jal	t4,fffde10a <_end+0xfffdacda>
    2b24:	deadbeef          	jal	t4,fffde10e <_end+0xfffdacde>
    2b28:	deadbeef          	jal	t4,fffde112 <_end+0xfffdace2>
    2b2c:	deadbeef          	jal	t4,fffde116 <_end+0xfffdace6>
    2b30:	deadbeef          	jal	t4,fffde11a <_end+0xfffdacea>
    2b34:	deadbeef          	jal	t4,fffde11e <_end+0xfffdacee>
    2b38:	deadbeef          	jal	t4,fffde122 <_end+0xfffdacf2>
    2b3c:	deadbeef          	jal	t4,fffde126 <_end+0xfffdacf6>
    2b40:	deadbeef          	jal	t4,fffde12a <_end+0xfffdacfa>
    2b44:	deadbeef          	jal	t4,fffde12e <_end+0xfffdacfe>
    2b48:	deadbeef          	jal	t4,fffde132 <_end+0xfffdad02>
    2b4c:	deadbeef          	jal	t4,fffde136 <_end+0xfffdad06>
    2b50:	deadbeef          	jal	t4,fffde13a <_end+0xfffdad0a>
    2b54:	deadbeef          	jal	t4,fffde13e <_end+0xfffdad0e>
    2b58:	deadbeef          	jal	t4,fffde142 <_end+0xfffdad12>
    2b5c:	deadbeef          	jal	t4,fffde146 <_end+0xfffdad16>
    2b60:	deadbeef          	jal	t4,fffde14a <_end+0xfffdad1a>
    2b64:	deadbeef          	jal	t4,fffde14e <_end+0xfffdad1e>
    2b68:	deadbeef          	jal	t4,fffde152 <_end+0xfffdad22>
    2b6c:	deadbeef          	jal	t4,fffde156 <_end+0xfffdad26>
    2b70:	deadbeef          	jal	t4,fffde15a <_end+0xfffdad2a>
    2b74:	deadbeef          	jal	t4,fffde15e <_end+0xfffdad2e>
    2b78:	deadbeef          	jal	t4,fffde162 <_end+0xfffdad32>
    2b7c:	deadbeef          	jal	t4,fffde166 <_end+0xfffdad36>
    2b80:	deadbeef          	jal	t4,fffde16a <_end+0xfffdad3a>
    2b84:	deadbeef          	jal	t4,fffde16e <_end+0xfffdad3e>
    2b88:	deadbeef          	jal	t4,fffde172 <_end+0xfffdad42>
    2b8c:	deadbeef          	jal	t4,fffde176 <_end+0xfffdad46>
    2b90:	deadbeef          	jal	t4,fffde17a <_end+0xfffdad4a>
    2b94:	deadbeef          	jal	t4,fffde17e <_end+0xfffdad4e>
    2b98:	deadbeef          	jal	t4,fffde182 <_end+0xfffdad52>
    2b9c:	deadbeef          	jal	t4,fffde186 <_end+0xfffdad56>
    2ba0:	deadbeef          	jal	t4,fffde18a <_end+0xfffdad5a>
    2ba4:	deadbeef          	jal	t4,fffde18e <_end+0xfffdad5e>
    2ba8:	deadbeef          	jal	t4,fffde192 <_end+0xfffdad62>
    2bac:	deadbeef          	jal	t4,fffde196 <_end+0xfffdad66>
    2bb0:	deadbeef          	jal	t4,fffde19a <_end+0xfffdad6a>
    2bb4:	deadbeef          	jal	t4,fffde19e <_end+0xfffdad6e>
    2bb8:	deadbeef          	jal	t4,fffde1a2 <_end+0xfffdad72>
    2bbc:	deadbeef          	jal	t4,fffde1a6 <_end+0xfffdad76>
    2bc0:	deadbeef          	jal	t4,fffde1aa <_end+0xfffdad7a>
    2bc4:	deadbeef          	jal	t4,fffde1ae <_end+0xfffdad7e>
    2bc8:	deadbeef          	jal	t4,fffde1b2 <_end+0xfffdad82>
    2bcc:	deadbeef          	jal	t4,fffde1b6 <_end+0xfffdad86>
    2bd0:	deadbeef          	jal	t4,fffde1ba <_end+0xfffdad8a>
    2bd4:	deadbeef          	jal	t4,fffde1be <_end+0xfffdad8e>
    2bd8:	deadbeef          	jal	t4,fffde1c2 <_end+0xfffdad92>
    2bdc:	deadbeef          	jal	t4,fffde1c6 <_end+0xfffdad96>
    2be0:	deadbeef          	jal	t4,fffde1ca <_end+0xfffdad9a>
    2be4:	deadbeef          	jal	t4,fffde1ce <_end+0xfffdad9e>
    2be8:	deadbeef          	jal	t4,fffde1d2 <_end+0xfffdada2>
    2bec:	deadbeef          	jal	t4,fffde1d6 <_end+0xfffdada6>
    2bf0:	deadbeef          	jal	t4,fffde1da <_end+0xfffdadaa>
    2bf4:	deadbeef          	jal	t4,fffde1de <_end+0xfffdadae>
    2bf8:	deadbeef          	jal	t4,fffde1e2 <_end+0xfffdadb2>
    2bfc:	deadbeef          	jal	t4,fffde1e6 <_end+0xfffdadb6>
    2c00:	deadbeef          	jal	t4,fffde1ea <_end+0xfffdadba>
    2c04:	deadbeef          	jal	t4,fffde1ee <_end+0xfffdadbe>
    2c08:	deadbeef          	jal	t4,fffde1f2 <_end+0xfffdadc2>
    2c0c:	deadbeef          	jal	t4,fffde1f6 <_end+0xfffdadc6>
    2c10:	deadbeef          	jal	t4,fffde1fa <_end+0xfffdadca>
    2c14:	deadbeef          	jal	t4,fffde1fe <_end+0xfffdadce>
    2c18:	deadbeef          	jal	t4,fffde202 <_end+0xfffdadd2>
    2c1c:	deadbeef          	jal	t4,fffde206 <_end+0xfffdadd6>
    2c20:	deadbeef          	jal	t4,fffde20a <_end+0xfffdadda>
    2c24:	deadbeef          	jal	t4,fffde20e <_end+0xfffdadde>
    2c28:	deadbeef          	jal	t4,fffde212 <_end+0xfffdade2>
    2c2c:	deadbeef          	jal	t4,fffde216 <_end+0xfffdade6>
    2c30:	deadbeef          	jal	t4,fffde21a <_end+0xfffdadea>
    2c34:	deadbeef          	jal	t4,fffde21e <_end+0xfffdadee>
    2c38:	deadbeef          	jal	t4,fffde222 <_end+0xfffdadf2>
    2c3c:	deadbeef          	jal	t4,fffde226 <_end+0xfffdadf6>
    2c40:	deadbeef          	jal	t4,fffde22a <_end+0xfffdadfa>
    2c44:	deadbeef          	jal	t4,fffde22e <_end+0xfffdadfe>
    2c48:	deadbeef          	jal	t4,fffde232 <_end+0xfffdae02>
    2c4c:	deadbeef          	jal	t4,fffde236 <_end+0xfffdae06>
    2c50:	deadbeef          	jal	t4,fffde23a <_end+0xfffdae0a>
    2c54:	deadbeef          	jal	t4,fffde23e <_end+0xfffdae0e>
    2c58:	deadbeef          	jal	t4,fffde242 <_end+0xfffdae12>
    2c5c:	deadbeef          	jal	t4,fffde246 <_end+0xfffdae16>
    2c60:	deadbeef          	jal	t4,fffde24a <_end+0xfffdae1a>
    2c64:	deadbeef          	jal	t4,fffde24e <_end+0xfffdae1e>
    2c68:	deadbeef          	jal	t4,fffde252 <_end+0xfffdae22>
    2c6c:	deadbeef          	jal	t4,fffde256 <_end+0xfffdae26>
    2c70:	deadbeef          	jal	t4,fffde25a <_end+0xfffdae2a>
    2c74:	deadbeef          	jal	t4,fffde25e <_end+0xfffdae2e>
    2c78:	deadbeef          	jal	t4,fffde262 <_end+0xfffdae32>
    2c7c:	deadbeef          	jal	t4,fffde266 <_end+0xfffdae36>
    2c80:	deadbeef          	jal	t4,fffde26a <_end+0xfffdae3a>
    2c84:	deadbeef          	jal	t4,fffde26e <_end+0xfffdae3e>
    2c88:	deadbeef          	jal	t4,fffde272 <_end+0xfffdae42>
    2c8c:	deadbeef          	jal	t4,fffde276 <_end+0xfffdae46>
    2c90:	deadbeef          	jal	t4,fffde27a <_end+0xfffdae4a>
    2c94:	deadbeef          	jal	t4,fffde27e <_end+0xfffdae4e>
    2c98:	deadbeef          	jal	t4,fffde282 <_end+0xfffdae52>
    2c9c:	deadbeef          	jal	t4,fffde286 <_end+0xfffdae56>
    2ca0:	deadbeef          	jal	t4,fffde28a <_end+0xfffdae5a>
    2ca4:	deadbeef          	jal	t4,fffde28e <_end+0xfffdae5e>
    2ca8:	deadbeef          	jal	t4,fffde292 <_end+0xfffdae62>
    2cac:	deadbeef          	jal	t4,fffde296 <_end+0xfffdae66>
    2cb0:	deadbeef          	jal	t4,fffde29a <_end+0xfffdae6a>
    2cb4:	deadbeef          	jal	t4,fffde29e <_end+0xfffdae6e>
    2cb8:	deadbeef          	jal	t4,fffde2a2 <_end+0xfffdae72>
    2cbc:	deadbeef          	jal	t4,fffde2a6 <_end+0xfffdae76>
    2cc0:	deadbeef          	jal	t4,fffde2aa <_end+0xfffdae7a>
    2cc4:	deadbeef          	jal	t4,fffde2ae <_end+0xfffdae7e>
    2cc8:	deadbeef          	jal	t4,fffde2b2 <_end+0xfffdae82>
    2ccc:	deadbeef          	jal	t4,fffde2b6 <_end+0xfffdae86>
    2cd0:	deadbeef          	jal	t4,fffde2ba <_end+0xfffdae8a>
    2cd4:	deadbeef          	jal	t4,fffde2be <_end+0xfffdae8e>
    2cd8:	deadbeef          	jal	t4,fffde2c2 <_end+0xfffdae92>
    2cdc:	deadbeef          	jal	t4,fffde2c6 <_end+0xfffdae96>
    2ce0:	deadbeef          	jal	t4,fffde2ca <_end+0xfffdae9a>
    2ce4:	deadbeef          	jal	t4,fffde2ce <_end+0xfffdae9e>
    2ce8:	deadbeef          	jal	t4,fffde2d2 <_end+0xfffdaea2>
    2cec:	deadbeef          	jal	t4,fffde2d6 <_end+0xfffdaea6>
    2cf0:	deadbeef          	jal	t4,fffde2da <_end+0xfffdaeaa>
    2cf4:	deadbeef          	jal	t4,fffde2de <_end+0xfffdaeae>
    2cf8:	deadbeef          	jal	t4,fffde2e2 <_end+0xfffdaeb2>
    2cfc:	deadbeef          	jal	t4,fffde2e6 <_end+0xfffdaeb6>
    2d00:	deadbeef          	jal	t4,fffde2ea <_end+0xfffdaeba>
    2d04:	deadbeef          	jal	t4,fffde2ee <_end+0xfffdaebe>
    2d08:	deadbeef          	jal	t4,fffde2f2 <_end+0xfffdaec2>
    2d0c:	deadbeef          	jal	t4,fffde2f6 <_end+0xfffdaec6>
    2d10:	deadbeef          	jal	t4,fffde2fa <_end+0xfffdaeca>
    2d14:	deadbeef          	jal	t4,fffde2fe <_end+0xfffdaece>
    2d18:	deadbeef          	jal	t4,fffde302 <_end+0xfffdaed2>
    2d1c:	deadbeef          	jal	t4,fffde306 <_end+0xfffdaed6>
    2d20:	deadbeef          	jal	t4,fffde30a <_end+0xfffdaeda>
    2d24:	deadbeef          	jal	t4,fffde30e <_end+0xfffdaede>
    2d28:	deadbeef          	jal	t4,fffde312 <_end+0xfffdaee2>
    2d2c:	deadbeef          	jal	t4,fffde316 <_end+0xfffdaee6>
    2d30:	deadbeef          	jal	t4,fffde31a <_end+0xfffdaeea>
    2d34:	deadbeef          	jal	t4,fffde31e <_end+0xfffdaeee>
    2d38:	deadbeef          	jal	t4,fffde322 <_end+0xfffdaef2>
    2d3c:	deadbeef          	jal	t4,fffde326 <_end+0xfffdaef6>
    2d40:	deadbeef          	jal	t4,fffde32a <_end+0xfffdaefa>
    2d44:	deadbeef          	jal	t4,fffde32e <_end+0xfffdaefe>
    2d48:	deadbeef          	jal	t4,fffde332 <_end+0xfffdaf02>
    2d4c:	deadbeef          	jal	t4,fffde336 <_end+0xfffdaf06>
    2d50:	deadbeef          	jal	t4,fffde33a <_end+0xfffdaf0a>
    2d54:	deadbeef          	jal	t4,fffde33e <_end+0xfffdaf0e>
    2d58:	deadbeef          	jal	t4,fffde342 <_end+0xfffdaf12>
    2d5c:	deadbeef          	jal	t4,fffde346 <_end+0xfffdaf16>
    2d60:	deadbeef          	jal	t4,fffde34a <_end+0xfffdaf1a>
    2d64:	deadbeef          	jal	t4,fffde34e <_end+0xfffdaf1e>
    2d68:	deadbeef          	jal	t4,fffde352 <_end+0xfffdaf22>
    2d6c:	deadbeef          	jal	t4,fffde356 <_end+0xfffdaf26>
    2d70:	deadbeef          	jal	t4,fffde35a <_end+0xfffdaf2a>
    2d74:	deadbeef          	jal	t4,fffde35e <_end+0xfffdaf2e>
    2d78:	deadbeef          	jal	t4,fffde362 <_end+0xfffdaf32>
    2d7c:	deadbeef          	jal	t4,fffde366 <_end+0xfffdaf36>
    2d80:	deadbeef          	jal	t4,fffde36a <_end+0xfffdaf3a>
    2d84:	deadbeef          	jal	t4,fffde36e <_end+0xfffdaf3e>
    2d88:	deadbeef          	jal	t4,fffde372 <_end+0xfffdaf42>
    2d8c:	deadbeef          	jal	t4,fffde376 <_end+0xfffdaf46>
    2d90:	deadbeef          	jal	t4,fffde37a <_end+0xfffdaf4a>
    2d94:	deadbeef          	jal	t4,fffde37e <_end+0xfffdaf4e>
    2d98:	deadbeef          	jal	t4,fffde382 <_end+0xfffdaf52>
    2d9c:	deadbeef          	jal	t4,fffde386 <_end+0xfffdaf56>
    2da0:	deadbeef          	jal	t4,fffde38a <_end+0xfffdaf5a>
    2da4:	deadbeef          	jal	t4,fffde38e <_end+0xfffdaf5e>
    2da8:	deadbeef          	jal	t4,fffde392 <_end+0xfffdaf62>
    2dac:	deadbeef          	jal	t4,fffde396 <_end+0xfffdaf66>
    2db0:	deadbeef          	jal	t4,fffde39a <_end+0xfffdaf6a>
    2db4:	deadbeef          	jal	t4,fffde39e <_end+0xfffdaf6e>
    2db8:	deadbeef          	jal	t4,fffde3a2 <_end+0xfffdaf72>
    2dbc:	deadbeef          	jal	t4,fffde3a6 <_end+0xfffdaf76>
    2dc0:	deadbeef          	jal	t4,fffde3aa <_end+0xfffdaf7a>
    2dc4:	deadbeef          	jal	t4,fffde3ae <_end+0xfffdaf7e>
    2dc8:	deadbeef          	jal	t4,fffde3b2 <_end+0xfffdaf82>
    2dcc:	deadbeef          	jal	t4,fffde3b6 <_end+0xfffdaf86>
    2dd0:	deadbeef          	jal	t4,fffde3ba <_end+0xfffdaf8a>
    2dd4:	deadbeef          	jal	t4,fffde3be <_end+0xfffdaf8e>
    2dd8:	deadbeef          	jal	t4,fffde3c2 <_end+0xfffdaf92>
    2ddc:	deadbeef          	jal	t4,fffde3c6 <_end+0xfffdaf96>
    2de0:	deadbeef          	jal	t4,fffde3ca <_end+0xfffdaf9a>
    2de4:	deadbeef          	jal	t4,fffde3ce <_end+0xfffdaf9e>
    2de8:	deadbeef          	jal	t4,fffde3d2 <_end+0xfffdafa2>
    2dec:	deadbeef          	jal	t4,fffde3d6 <_end+0xfffdafa6>
    2df0:	deadbeef          	jal	t4,fffde3da <_end+0xfffdafaa>
    2df4:	deadbeef          	jal	t4,fffde3de <_end+0xfffdafae>
    2df8:	deadbeef          	jal	t4,fffde3e2 <_end+0xfffdafb2>
    2dfc:	deadbeef          	jal	t4,fffde3e6 <_end+0xfffdafb6>
    2e00:	deadbeef          	jal	t4,fffde3ea <_end+0xfffdafba>
    2e04:	deadbeef          	jal	t4,fffde3ee <_end+0xfffdafbe>
    2e08:	deadbeef          	jal	t4,fffde3f2 <_end+0xfffdafc2>
    2e0c:	deadbeef          	jal	t4,fffde3f6 <_end+0xfffdafc6>
    2e10:	deadbeef          	jal	t4,fffde3fa <_end+0xfffdafca>
    2e14:	deadbeef          	jal	t4,fffde3fe <_end+0xfffdafce>
    2e18:	deadbeef          	jal	t4,fffde402 <_end+0xfffdafd2>
    2e1c:	deadbeef          	jal	t4,fffde406 <_end+0xfffdafd6>
    2e20:	deadbeef          	jal	t4,fffde40a <_end+0xfffdafda>
    2e24:	deadbeef          	jal	t4,fffde40e <_end+0xfffdafde>
    2e28:	deadbeef          	jal	t4,fffde412 <_end+0xfffdafe2>
    2e2c:	deadbeef          	jal	t4,fffde416 <_end+0xfffdafe6>
    2e30:	deadbeef          	jal	t4,fffde41a <_end+0xfffdafea>
    2e34:	deadbeef          	jal	t4,fffde41e <_end+0xfffdafee>
    2e38:	deadbeef          	jal	t4,fffde422 <_end+0xfffdaff2>
    2e3c:	deadbeef          	jal	t4,fffde426 <_end+0xfffdaff6>
    2e40:	deadbeef          	jal	t4,fffde42a <_end+0xfffdaffa>
    2e44:	deadbeef          	jal	t4,fffde42e <_end+0xfffdaffe>
    2e48:	deadbeef          	jal	t4,fffde432 <_end+0xfffdb002>
    2e4c:	deadbeef          	jal	t4,fffde436 <_end+0xfffdb006>
    2e50:	deadbeef          	jal	t4,fffde43a <_end+0xfffdb00a>
    2e54:	deadbeef          	jal	t4,fffde43e <_end+0xfffdb00e>
    2e58:	deadbeef          	jal	t4,fffde442 <_end+0xfffdb012>
    2e5c:	deadbeef          	jal	t4,fffde446 <_end+0xfffdb016>
    2e60:	deadbeef          	jal	t4,fffde44a <_end+0xfffdb01a>
    2e64:	deadbeef          	jal	t4,fffde44e <_end+0xfffdb01e>
    2e68:	deadbeef          	jal	t4,fffde452 <_end+0xfffdb022>
    2e6c:	deadbeef          	jal	t4,fffde456 <_end+0xfffdb026>
    2e70:	deadbeef          	jal	t4,fffde45a <_end+0xfffdb02a>
    2e74:	deadbeef          	jal	t4,fffde45e <_end+0xfffdb02e>
    2e78:	deadbeef          	jal	t4,fffde462 <_end+0xfffdb032>
    2e7c:	deadbeef          	jal	t4,fffde466 <_end+0xfffdb036>
    2e80:	deadbeef          	jal	t4,fffde46a <_end+0xfffdb03a>
    2e84:	deadbeef          	jal	t4,fffde46e <_end+0xfffdb03e>
    2e88:	deadbeef          	jal	t4,fffde472 <_end+0xfffdb042>
    2e8c:	deadbeef          	jal	t4,fffde476 <_end+0xfffdb046>
    2e90:	deadbeef          	jal	t4,fffde47a <_end+0xfffdb04a>
    2e94:	deadbeef          	jal	t4,fffde47e <_end+0xfffdb04e>
    2e98:	deadbeef          	jal	t4,fffde482 <_end+0xfffdb052>
    2e9c:	deadbeef          	jal	t4,fffde486 <_end+0xfffdb056>
    2ea0:	deadbeef          	jal	t4,fffde48a <_end+0xfffdb05a>
    2ea4:	deadbeef          	jal	t4,fffde48e <_end+0xfffdb05e>
    2ea8:	deadbeef          	jal	t4,fffde492 <_end+0xfffdb062>
    2eac:	deadbeef          	jal	t4,fffde496 <_end+0xfffdb066>
    2eb0:	deadbeef          	jal	t4,fffde49a <_end+0xfffdb06a>
    2eb4:	deadbeef          	jal	t4,fffde49e <_end+0xfffdb06e>
    2eb8:	deadbeef          	jal	t4,fffde4a2 <_end+0xfffdb072>
    2ebc:	deadbeef          	jal	t4,fffde4a6 <_end+0xfffdb076>
    2ec0:	deadbeef          	jal	t4,fffde4aa <_end+0xfffdb07a>
    2ec4:	deadbeef          	jal	t4,fffde4ae <_end+0xfffdb07e>
    2ec8:	deadbeef          	jal	t4,fffde4b2 <_end+0xfffdb082>
    2ecc:	deadbeef          	jal	t4,fffde4b6 <_end+0xfffdb086>
    2ed0:	deadbeef          	jal	t4,fffde4ba <_end+0xfffdb08a>
    2ed4:	deadbeef          	jal	t4,fffde4be <_end+0xfffdb08e>
    2ed8:	deadbeef          	jal	t4,fffde4c2 <_end+0xfffdb092>
    2edc:	deadbeef          	jal	t4,fffde4c6 <_end+0xfffdb096>
    2ee0:	deadbeef          	jal	t4,fffde4ca <_end+0xfffdb09a>
    2ee4:	deadbeef          	jal	t4,fffde4ce <_end+0xfffdb09e>
    2ee8:	deadbeef          	jal	t4,fffde4d2 <_end+0xfffdb0a2>
    2eec:	deadbeef          	jal	t4,fffde4d6 <_end+0xfffdb0a6>
    2ef0:	deadbeef          	jal	t4,fffde4da <_end+0xfffdb0aa>
    2ef4:	deadbeef          	jal	t4,fffde4de <_end+0xfffdb0ae>
    2ef8:	deadbeef          	jal	t4,fffde4e2 <_end+0xfffdb0b2>
    2efc:	deadbeef          	jal	t4,fffde4e6 <_end+0xfffdb0b6>
    2f00:	deadbeef          	jal	t4,fffde4ea <_end+0xfffdb0ba>
    2f04:	deadbeef          	jal	t4,fffde4ee <_end+0xfffdb0be>
    2f08:	deadbeef          	jal	t4,fffde4f2 <_end+0xfffdb0c2>
    2f0c:	deadbeef          	jal	t4,fffde4f6 <_end+0xfffdb0c6>
    2f10:	deadbeef          	jal	t4,fffde4fa <_end+0xfffdb0ca>
    2f14:	deadbeef          	jal	t4,fffde4fe <_end+0xfffdb0ce>
    2f18:	deadbeef          	jal	t4,fffde502 <_end+0xfffdb0d2>
    2f1c:	deadbeef          	jal	t4,fffde506 <_end+0xfffdb0d6>
    2f20:	deadbeef          	jal	t4,fffde50a <_end+0xfffdb0da>
    2f24:	deadbeef          	jal	t4,fffde50e <_end+0xfffdb0de>
    2f28:	deadbeef          	jal	t4,fffde512 <_end+0xfffdb0e2>
    2f2c:	deadbeef          	jal	t4,fffde516 <_end+0xfffdb0e6>
    2f30:	deadbeef          	jal	t4,fffde51a <_end+0xfffdb0ea>
    2f34:	deadbeef          	jal	t4,fffde51e <_end+0xfffdb0ee>
    2f38:	deadbeef          	jal	t4,fffde522 <_end+0xfffdb0f2>
    2f3c:	deadbeef          	jal	t4,fffde526 <_end+0xfffdb0f6>
    2f40:	deadbeef          	jal	t4,fffde52a <_end+0xfffdb0fa>
    2f44:	deadbeef          	jal	t4,fffde52e <_end+0xfffdb0fe>
    2f48:	deadbeef          	jal	t4,fffde532 <_end+0xfffdb102>
    2f4c:	deadbeef          	jal	t4,fffde536 <_end+0xfffdb106>
    2f50:	deadbeef          	jal	t4,fffde53a <_end+0xfffdb10a>
    2f54:	deadbeef          	jal	t4,fffde53e <_end+0xfffdb10e>
    2f58:	deadbeef          	jal	t4,fffde542 <_end+0xfffdb112>
    2f5c:	deadbeef          	jal	t4,fffde546 <_end+0xfffdb116>
    2f60:	deadbeef          	jal	t4,fffde54a <_end+0xfffdb11a>
    2f64:	deadbeef          	jal	t4,fffde54e <_end+0xfffdb11e>
    2f68:	deadbeef          	jal	t4,fffde552 <_end+0xfffdb122>
    2f6c:	deadbeef          	jal	t4,fffde556 <_end+0xfffdb126>
    2f70:	deadbeef          	jal	t4,fffde55a <_end+0xfffdb12a>
    2f74:	deadbeef          	jal	t4,fffde55e <_end+0xfffdb12e>
    2f78:	deadbeef          	jal	t4,fffde562 <_end+0xfffdb132>
    2f7c:	deadbeef          	jal	t4,fffde566 <_end+0xfffdb136>
    2f80:	deadbeef          	jal	t4,fffde56a <_end+0xfffdb13a>
    2f84:	deadbeef          	jal	t4,fffde56e <_end+0xfffdb13e>
    2f88:	deadbeef          	jal	t4,fffde572 <_end+0xfffdb142>
    2f8c:	deadbeef          	jal	t4,fffde576 <_end+0xfffdb146>
    2f90:	deadbeef          	jal	t4,fffde57a <_end+0xfffdb14a>
    2f94:	deadbeef          	jal	t4,fffde57e <_end+0xfffdb14e>
    2f98:	deadbeef          	jal	t4,fffde582 <_end+0xfffdb152>
    2f9c:	deadbeef          	jal	t4,fffde586 <_end+0xfffdb156>
    2fa0:	deadbeef          	jal	t4,fffde58a <_end+0xfffdb15a>
    2fa4:	deadbeef          	jal	t4,fffde58e <_end+0xfffdb15e>
    2fa8:	deadbeef          	jal	t4,fffde592 <_end+0xfffdb162>
    2fac:	deadbeef          	jal	t4,fffde596 <_end+0xfffdb166>
    2fb0:	deadbeef          	jal	t4,fffde59a <_end+0xfffdb16a>
    2fb4:	deadbeef          	jal	t4,fffde59e <_end+0xfffdb16e>
    2fb8:	deadbeef          	jal	t4,fffde5a2 <_end+0xfffdb172>
    2fbc:	deadbeef          	jal	t4,fffde5a6 <_end+0xfffdb176>
    2fc0:	deadbeef          	jal	t4,fffde5aa <_end+0xfffdb17a>
    2fc4:	deadbeef          	jal	t4,fffde5ae <_end+0xfffdb17e>
    2fc8:	deadbeef          	jal	t4,fffde5b2 <_end+0xfffdb182>
    2fcc:	deadbeef          	jal	t4,fffde5b6 <_end+0xfffdb186>
    2fd0:	deadbeef          	jal	t4,fffde5ba <_end+0xfffdb18a>
    2fd4:	deadbeef          	jal	t4,fffde5be <_end+0xfffdb18e>
    2fd8:	deadbeef          	jal	t4,fffde5c2 <_end+0xfffdb192>
    2fdc:	deadbeef          	jal	t4,fffde5c6 <_end+0xfffdb196>
    2fe0:	deadbeef          	jal	t4,fffde5ca <_end+0xfffdb19a>
    2fe4:	deadbeef          	jal	t4,fffde5ce <_end+0xfffdb19e>
    2fe8:	deadbeef          	jal	t4,fffde5d2 <_end+0xfffdb1a2>
    2fec:	deadbeef          	jal	t4,fffde5d6 <_end+0xfffdb1a6>
    2ff0:	deadbeef          	jal	t4,fffde5da <_end+0xfffdb1aa>
    2ff4:	deadbeef          	jal	t4,fffde5de <_end+0xfffdb1ae>
    2ff8:	deadbeef          	jal	t4,fffde5e2 <_end+0xfffdb1b2>
    2ffc:	deadbeef          	jal	t4,fffde5e6 <_end+0xfffdb1b6>
    3000:	deadbeef          	jal	t4,fffde5ea <_end+0xfffdb1ba>
    3004:	deadbeef          	jal	t4,fffde5ee <_end+0xfffdb1be>
    3008:	deadbeef          	jal	t4,fffde5f2 <_end+0xfffdb1c2>
    300c:	deadbeef          	jal	t4,fffde5f6 <_end+0xfffdb1c6>
    3010:	deadbeef          	jal	t4,fffde5fa <_end+0xfffdb1ca>
    3014:	deadbeef          	jal	t4,fffde5fe <_end+0xfffdb1ce>
    3018:	deadbeef          	jal	t4,fffde602 <_end+0xfffdb1d2>
    301c:	deadbeef          	jal	t4,fffde606 <_end+0xfffdb1d6>
    3020:	deadbeef          	jal	t4,fffde60a <_end+0xfffdb1da>
    3024:	deadbeef          	jal	t4,fffde60e <_end+0xfffdb1de>
    3028:	deadbeef          	jal	t4,fffde612 <_end+0xfffdb1e2>
    302c:	deadbeef          	jal	t4,fffde616 <_end+0xfffdb1e6>
    3030:	deadbeef          	jal	t4,fffde61a <_end+0xfffdb1ea>
    3034:	deadbeef          	jal	t4,fffde61e <_end+0xfffdb1ee>
    3038:	deadbeef          	jal	t4,fffde622 <_end+0xfffdb1f2>
    303c:	deadbeef          	jal	t4,fffde626 <_end+0xfffdb1f6>
    3040:	deadbeef          	jal	t4,fffde62a <_end+0xfffdb1fa>
    3044:	deadbeef          	jal	t4,fffde62e <_end+0xfffdb1fe>
    3048:	deadbeef          	jal	t4,fffde632 <_end+0xfffdb202>
    304c:	deadbeef          	jal	t4,fffde636 <_end+0xfffdb206>
    3050:	deadbeef          	jal	t4,fffde63a <_end+0xfffdb20a>
    3054:	deadbeef          	jal	t4,fffde63e <_end+0xfffdb20e>
    3058:	deadbeef          	jal	t4,fffde642 <_end+0xfffdb212>
    305c:	deadbeef          	jal	t4,fffde646 <_end+0xfffdb216>
    3060:	deadbeef          	jal	t4,fffde64a <_end+0xfffdb21a>
    3064:	deadbeef          	jal	t4,fffde64e <_end+0xfffdb21e>
    3068:	deadbeef          	jal	t4,fffde652 <_end+0xfffdb222>
    306c:	deadbeef          	jal	t4,fffde656 <_end+0xfffdb226>
    3070:	deadbeef          	jal	t4,fffde65a <_end+0xfffdb22a>
    3074:	deadbeef          	jal	t4,fffde65e <_end+0xfffdb22e>
    3078:	deadbeef          	jal	t4,fffde662 <_end+0xfffdb232>
    307c:	deadbeef          	jal	t4,fffde666 <_end+0xfffdb236>
    3080:	deadbeef          	jal	t4,fffde66a <_end+0xfffdb23a>
    3084:	deadbeef          	jal	t4,fffde66e <_end+0xfffdb23e>
    3088:	deadbeef          	jal	t4,fffde672 <_end+0xfffdb242>
    308c:	deadbeef          	jal	t4,fffde676 <_end+0xfffdb246>
    3090:	deadbeef          	jal	t4,fffde67a <_end+0xfffdb24a>
    3094:	deadbeef          	jal	t4,fffde67e <_end+0xfffdb24e>
    3098:	deadbeef          	jal	t4,fffde682 <_end+0xfffdb252>
    309c:	deadbeef          	jal	t4,fffde686 <_end+0xfffdb256>
    30a0:	deadbeef          	jal	t4,fffde68a <_end+0xfffdb25a>
    30a4:	deadbeef          	jal	t4,fffde68e <_end+0xfffdb25e>
    30a8:	deadbeef          	jal	t4,fffde692 <_end+0xfffdb262>
    30ac:	deadbeef          	jal	t4,fffde696 <_end+0xfffdb266>
    30b0:	deadbeef          	jal	t4,fffde69a <_end+0xfffdb26a>
    30b4:	deadbeef          	jal	t4,fffde69e <_end+0xfffdb26e>
    30b8:	deadbeef          	jal	t4,fffde6a2 <_end+0xfffdb272>
    30bc:	deadbeef          	jal	t4,fffde6a6 <_end+0xfffdb276>
    30c0:	deadbeef          	jal	t4,fffde6aa <_end+0xfffdb27a>
    30c4:	deadbeef          	jal	t4,fffde6ae <_end+0xfffdb27e>
    30c8:	deadbeef          	jal	t4,fffde6b2 <_end+0xfffdb282>
    30cc:	deadbeef          	jal	t4,fffde6b6 <_end+0xfffdb286>
    30d0:	deadbeef          	jal	t4,fffde6ba <_end+0xfffdb28a>
    30d4:	deadbeef          	jal	t4,fffde6be <_end+0xfffdb28e>
    30d8:	deadbeef          	jal	t4,fffde6c2 <_end+0xfffdb292>
    30dc:	deadbeef          	jal	t4,fffde6c6 <_end+0xfffdb296>
    30e0:	deadbeef          	jal	t4,fffde6ca <_end+0xfffdb29a>
    30e4:	deadbeef          	jal	t4,fffde6ce <_end+0xfffdb29e>
    30e8:	deadbeef          	jal	t4,fffde6d2 <_end+0xfffdb2a2>
    30ec:	deadbeef          	jal	t4,fffde6d6 <_end+0xfffdb2a6>
    30f0:	deadbeef          	jal	t4,fffde6da <_end+0xfffdb2aa>
    30f4:	deadbeef          	jal	t4,fffde6de <_end+0xfffdb2ae>
    30f8:	deadbeef          	jal	t4,fffde6e2 <_end+0xfffdb2b2>
    30fc:	deadbeef          	jal	t4,fffde6e6 <_end+0xfffdb2b6>
    3100:	deadbeef          	jal	t4,fffde6ea <_end+0xfffdb2ba>
    3104:	deadbeef          	jal	t4,fffde6ee <_end+0xfffdb2be>
    3108:	deadbeef          	jal	t4,fffde6f2 <_end+0xfffdb2c2>
    310c:	deadbeef          	jal	t4,fffde6f6 <_end+0xfffdb2c6>
    3110:	deadbeef          	jal	t4,fffde6fa <_end+0xfffdb2ca>
    3114:	deadbeef          	jal	t4,fffde6fe <_end+0xfffdb2ce>
    3118:	deadbeef          	jal	t4,fffde702 <_end+0xfffdb2d2>
    311c:	deadbeef          	jal	t4,fffde706 <_end+0xfffdb2d6>
    3120:	deadbeef          	jal	t4,fffde70a <_end+0xfffdb2da>
    3124:	deadbeef          	jal	t4,fffde70e <_end+0xfffdb2de>
    3128:	deadbeef          	jal	t4,fffde712 <_end+0xfffdb2e2>
    312c:	deadbeef          	jal	t4,fffde716 <_end+0xfffdb2e6>
    3130:	deadbeef          	jal	t4,fffde71a <_end+0xfffdb2ea>
    3134:	deadbeef          	jal	t4,fffde71e <_end+0xfffdb2ee>
    3138:	deadbeef          	jal	t4,fffde722 <_end+0xfffdb2f2>
    313c:	deadbeef          	jal	t4,fffde726 <_end+0xfffdb2f6>
    3140:	deadbeef          	jal	t4,fffde72a <_end+0xfffdb2fa>
    3144:	deadbeef          	jal	t4,fffde72e <_end+0xfffdb2fe>
    3148:	deadbeef          	jal	t4,fffde732 <_end+0xfffdb302>
    314c:	deadbeef          	jal	t4,fffde736 <_end+0xfffdb306>
    3150:	deadbeef          	jal	t4,fffde73a <_end+0xfffdb30a>
    3154:	deadbeef          	jal	t4,fffde73e <_end+0xfffdb30e>
    3158:	deadbeef          	jal	t4,fffde742 <_end+0xfffdb312>
    315c:	deadbeef          	jal	t4,fffde746 <_end+0xfffdb316>
    3160:	deadbeef          	jal	t4,fffde74a <_end+0xfffdb31a>
    3164:	deadbeef          	jal	t4,fffde74e <_end+0xfffdb31e>
    3168:	deadbeef          	jal	t4,fffde752 <_end+0xfffdb322>
    316c:	deadbeef          	jal	t4,fffde756 <_end+0xfffdb326>
    3170:	deadbeef          	jal	t4,fffde75a <_end+0xfffdb32a>
    3174:	deadbeef          	jal	t4,fffde75e <_end+0xfffdb32e>
    3178:	deadbeef          	jal	t4,fffde762 <_end+0xfffdb332>
    317c:	deadbeef          	jal	t4,fffde766 <_end+0xfffdb336>
    3180:	deadbeef          	jal	t4,fffde76a <_end+0xfffdb33a>
    3184:	deadbeef          	jal	t4,fffde76e <_end+0xfffdb33e>
    3188:	deadbeef          	jal	t4,fffde772 <_end+0xfffdb342>
    318c:	deadbeef          	jal	t4,fffde776 <_end+0xfffdb346>
    3190:	deadbeef          	jal	t4,fffde77a <_end+0xfffdb34a>
    3194:	deadbeef          	jal	t4,fffde77e <_end+0xfffdb34e>
    3198:	deadbeef          	jal	t4,fffde782 <_end+0xfffdb352>
    319c:	deadbeef          	jal	t4,fffde786 <_end+0xfffdb356>
    31a0:	deadbeef          	jal	t4,fffde78a <_end+0xfffdb35a>
    31a4:	deadbeef          	jal	t4,fffde78e <_end+0xfffdb35e>
    31a8:	deadbeef          	jal	t4,fffde792 <_end+0xfffdb362>
    31ac:	deadbeef          	jal	t4,fffde796 <_end+0xfffdb366>
    31b0:	deadbeef          	jal	t4,fffde79a <_end+0xfffdb36a>
    31b4:	deadbeef          	jal	t4,fffde79e <_end+0xfffdb36e>
    31b8:	deadbeef          	jal	t4,fffde7a2 <_end+0xfffdb372>
    31bc:	deadbeef          	jal	t4,fffde7a6 <_end+0xfffdb376>
    31c0:	deadbeef          	jal	t4,fffde7aa <_end+0xfffdb37a>
    31c4:	deadbeef          	jal	t4,fffde7ae <_end+0xfffdb37e>
    31c8:	deadbeef          	jal	t4,fffde7b2 <_end+0xfffdb382>
    31cc:	deadbeef          	jal	t4,fffde7b6 <_end+0xfffdb386>
    31d0:	deadbeef          	jal	t4,fffde7ba <_end+0xfffdb38a>
    31d4:	deadbeef          	jal	t4,fffde7be <_end+0xfffdb38e>
    31d8:	deadbeef          	jal	t4,fffde7c2 <_end+0xfffdb392>
    31dc:	deadbeef          	jal	t4,fffde7c6 <_end+0xfffdb396>
    31e0:	deadbeef          	jal	t4,fffde7ca <_end+0xfffdb39a>
    31e4:	deadbeef          	jal	t4,fffde7ce <_end+0xfffdb39e>
    31e8:	deadbeef          	jal	t4,fffde7d2 <_end+0xfffdb3a2>
    31ec:	deadbeef          	jal	t4,fffde7d6 <_end+0xfffdb3a6>
    31f0:	deadbeef          	jal	t4,fffde7da <_end+0xfffdb3aa>
    31f4:	deadbeef          	jal	t4,fffde7de <_end+0xfffdb3ae>
    31f8:	deadbeef          	jal	t4,fffde7e2 <_end+0xfffdb3b2>
    31fc:	deadbeef          	jal	t4,fffde7e6 <_end+0xfffdb3b6>

00003200 <signature_x15_3>:
    3200:	deadbeef          	jal	t4,fffde7ea <_end+0xfffdb3ba>
    3204:	deadbeef          	jal	t4,fffde7ee <_end+0xfffdb3be>
    3208:	deadbeef          	jal	t4,fffde7f2 <_end+0xfffdb3c2>
    320c:	deadbeef          	jal	t4,fffde7f6 <_end+0xfffdb3c6>
    3210:	deadbeef          	jal	t4,fffde7fa <_end+0xfffdb3ca>
    3214:	deadbeef          	jal	t4,fffde7fe <_end+0xfffdb3ce>
    3218:	deadbeef          	jal	t4,fffde802 <_end+0xfffdb3d2>
    321c:	deadbeef          	jal	t4,fffde806 <_end+0xfffdb3d6>
    3220:	deadbeef          	jal	t4,fffde80a <_end+0xfffdb3da>
    3224:	deadbeef          	jal	t4,fffde80e <_end+0xfffdb3de>
    3228:	deadbeef          	jal	t4,fffde812 <_end+0xfffdb3e2>
    322c:	deadbeef          	jal	t4,fffde816 <_end+0xfffdb3e6>
    3230:	deadbeef          	jal	t4,fffde81a <_end+0xfffdb3ea>
    3234:	deadbeef          	jal	t4,fffde81e <_end+0xfffdb3ee>
    3238:	deadbeef          	jal	t4,fffde822 <_end+0xfffdb3f2>
    323c:	deadbeef          	jal	t4,fffde826 <_end+0xfffdb3f6>
    3240:	deadbeef          	jal	t4,fffde82a <_end+0xfffdb3fa>
    3244:	deadbeef          	jal	t4,fffde82e <_end+0xfffdb3fe>
    3248:	deadbeef          	jal	t4,fffde832 <_end+0xfffdb402>
    324c:	deadbeef          	jal	t4,fffde836 <_end+0xfffdb406>
    3250:	deadbeef          	jal	t4,fffde83a <_end+0xfffdb40a>
    3254:	deadbeef          	jal	t4,fffde83e <_end+0xfffdb40e>
    3258:	deadbeef          	jal	t4,fffde842 <_end+0xfffdb412>
    325c:	deadbeef          	jal	t4,fffde846 <_end+0xfffdb416>
    3260:	deadbeef          	jal	t4,fffde84a <_end+0xfffdb41a>
    3264:	deadbeef          	jal	t4,fffde84e <_end+0xfffdb41e>
    3268:	deadbeef          	jal	t4,fffde852 <_end+0xfffdb422>
    326c:	deadbeef          	jal	t4,fffde856 <_end+0xfffdb426>
    3270:	deadbeef          	jal	t4,fffde85a <_end+0xfffdb42a>
    3274:	deadbeef          	jal	t4,fffde85e <_end+0xfffdb42e>
    3278:	deadbeef          	jal	t4,fffde862 <_end+0xfffdb432>
    327c:	deadbeef          	jal	t4,fffde866 <_end+0xfffdb436>
    3280:	deadbeef          	jal	t4,fffde86a <_end+0xfffdb43a>
    3284:	deadbeef          	jal	t4,fffde86e <_end+0xfffdb43e>
    3288:	deadbeef          	jal	t4,fffde872 <_end+0xfffdb442>
    328c:	deadbeef          	jal	t4,fffde876 <_end+0xfffdb446>
    3290:	deadbeef          	jal	t4,fffde87a <_end+0xfffdb44a>
    3294:	deadbeef          	jal	t4,fffde87e <_end+0xfffdb44e>
    3298:	deadbeef          	jal	t4,fffde882 <_end+0xfffdb452>
    329c:	deadbeef          	jal	t4,fffde886 <_end+0xfffdb456>
    32a0:	deadbeef          	jal	t4,fffde88a <_end+0xfffdb45a>
    32a4:	deadbeef          	jal	t4,fffde88e <_end+0xfffdb45e>
    32a8:	deadbeef          	jal	t4,fffde892 <_end+0xfffdb462>
    32ac:	deadbeef          	jal	t4,fffde896 <_end+0xfffdb466>
    32b0:	deadbeef          	jal	t4,fffde89a <_end+0xfffdb46a>
    32b4:	deadbeef          	jal	t4,fffde89e <_end+0xfffdb46e>
    32b8:	deadbeef          	jal	t4,fffde8a2 <_end+0xfffdb472>
    32bc:	deadbeef          	jal	t4,fffde8a6 <_end+0xfffdb476>
    32c0:	deadbeef          	jal	t4,fffde8aa <_end+0xfffdb47a>
    32c4:	deadbeef          	jal	t4,fffde8ae <_end+0xfffdb47e>
    32c8:	deadbeef          	jal	t4,fffde8b2 <_end+0xfffdb482>
    32cc:	deadbeef          	jal	t4,fffde8b6 <_end+0xfffdb486>
    32d0:	deadbeef          	jal	t4,fffde8ba <_end+0xfffdb48a>
    32d4:	deadbeef          	jal	t4,fffde8be <_end+0xfffdb48e>
    32d8:	deadbeef          	jal	t4,fffde8c2 <_end+0xfffdb492>
    32dc:	deadbeef          	jal	t4,fffde8c6 <_end+0xfffdb496>
    32e0:	deadbeef          	jal	t4,fffde8ca <_end+0xfffdb49a>
    32e4:	deadbeef          	jal	t4,fffde8ce <_end+0xfffdb49e>
    32e8:	deadbeef          	jal	t4,fffde8d2 <_end+0xfffdb4a2>
    32ec:	deadbeef          	jal	t4,fffde8d6 <_end+0xfffdb4a6>
    32f0:	deadbeef          	jal	t4,fffde8da <_end+0xfffdb4aa>
    32f4:	deadbeef          	jal	t4,fffde8de <_end+0xfffdb4ae>
    32f8:	deadbeef          	jal	t4,fffde8e2 <_end+0xfffdb4b2>
    32fc:	deadbeef          	jal	t4,fffde8e6 <_end+0xfffdb4b6>
    3300:	deadbeef          	jal	t4,fffde8ea <_end+0xfffdb4ba>
    3304:	deadbeef          	jal	t4,fffde8ee <_end+0xfffdb4be>
    3308:	deadbeef          	jal	t4,fffde8f2 <_end+0xfffdb4c2>
    330c:	deadbeef          	jal	t4,fffde8f6 <_end+0xfffdb4c6>
    3310:	deadbeef          	jal	t4,fffde8fa <_end+0xfffdb4ca>
    3314:	deadbeef          	jal	t4,fffde8fe <_end+0xfffdb4ce>
    3318:	deadbeef          	jal	t4,fffde902 <_end+0xfffdb4d2>
    331c:	deadbeef          	jal	t4,fffde906 <_end+0xfffdb4d6>
    3320:	deadbeef          	jal	t4,fffde90a <_end+0xfffdb4da>
    3324:	deadbeef          	jal	t4,fffde90e <_end+0xfffdb4de>
    3328:	deadbeef          	jal	t4,fffde912 <_end+0xfffdb4e2>
    332c:	deadbeef          	jal	t4,fffde916 <_end+0xfffdb4e6>
    3330:	deadbeef          	jal	t4,fffde91a <_end+0xfffdb4ea>
    3334:	deadbeef          	jal	t4,fffde91e <_end+0xfffdb4ee>
    3338:	deadbeef          	jal	t4,fffde922 <_end+0xfffdb4f2>
    333c:	deadbeef          	jal	t4,fffde926 <_end+0xfffdb4f6>
    3340:	deadbeef          	jal	t4,fffde92a <_end+0xfffdb4fa>
    3344:	deadbeef          	jal	t4,fffde92e <_end+0xfffdb4fe>
    3348:	deadbeef          	jal	t4,fffde932 <_end+0xfffdb502>
    334c:	deadbeef          	jal	t4,fffde936 <_end+0xfffdb506>
    3350:	deadbeef          	jal	t4,fffde93a <_end+0xfffdb50a>
    3354:	deadbeef          	jal	t4,fffde93e <_end+0xfffdb50e>
    3358:	deadbeef          	jal	t4,fffde942 <_end+0xfffdb512>
    335c:	deadbeef          	jal	t4,fffde946 <_end+0xfffdb516>
    3360:	deadbeef          	jal	t4,fffde94a <_end+0xfffdb51a>
    3364:	deadbeef          	jal	t4,fffde94e <_end+0xfffdb51e>
    3368:	deadbeef          	jal	t4,fffde952 <_end+0xfffdb522>
    336c:	deadbeef          	jal	t4,fffde956 <_end+0xfffdb526>
    3370:	deadbeef          	jal	t4,fffde95a <_end+0xfffdb52a>
    3374:	deadbeef          	jal	t4,fffde95e <_end+0xfffdb52e>
    3378:	deadbeef          	jal	t4,fffde962 <_end+0xfffdb532>
    337c:	deadbeef          	jal	t4,fffde966 <_end+0xfffdb536>
    3380:	deadbeef          	jal	t4,fffde96a <_end+0xfffdb53a>
    3384:	deadbeef          	jal	t4,fffde96e <_end+0xfffdb53e>
    3388:	deadbeef          	jal	t4,fffde972 <_end+0xfffdb542>
    338c:	deadbeef          	jal	t4,fffde976 <_end+0xfffdb546>
    3390:	deadbeef          	jal	t4,fffde97a <_end+0xfffdb54a>
    3394:	deadbeef          	jal	t4,fffde97e <_end+0xfffdb54e>
    3398:	deadbeef          	jal	t4,fffde982 <_end+0xfffdb552>
    339c:	deadbeef          	jal	t4,fffde986 <_end+0xfffdb556>
    33a0:	deadbeef          	jal	t4,fffde98a <_end+0xfffdb55a>
    33a4:	deadbeef          	jal	t4,fffde98e <_end+0xfffdb55e>
    33a8:	deadbeef          	jal	t4,fffde992 <_end+0xfffdb562>
    33ac:	deadbeef          	jal	t4,fffde996 <_end+0xfffdb566>
    33b0:	deadbeef          	jal	t4,fffde99a <_end+0xfffdb56a>
    33b4:	deadbeef          	jal	t4,fffde99e <_end+0xfffdb56e>
    33b8:	deadbeef          	jal	t4,fffde9a2 <_end+0xfffdb572>
    33bc:	deadbeef          	jal	t4,fffde9a6 <_end+0xfffdb576>
    33c0:	deadbeef          	jal	t4,fffde9aa <_end+0xfffdb57a>
    33c4:	deadbeef          	jal	t4,fffde9ae <_end+0xfffdb57e>
    33c8:	deadbeef          	jal	t4,fffde9b2 <_end+0xfffdb582>
    33cc:	deadbeef          	jal	t4,fffde9b6 <_end+0xfffdb586>
    33d0:	deadbeef          	jal	t4,fffde9ba <_end+0xfffdb58a>
    33d4:	deadbeef          	jal	t4,fffde9be <_end+0xfffdb58e>
    33d8:	deadbeef          	jal	t4,fffde9c2 <_end+0xfffdb592>
    33dc:	deadbeef          	jal	t4,fffde9c6 <_end+0xfffdb596>
    33e0:	deadbeef          	jal	t4,fffde9ca <_end+0xfffdb59a>
    33e4:	deadbeef          	jal	t4,fffde9ce <_end+0xfffdb59e>
    33e8:	deadbeef          	jal	t4,fffde9d2 <_end+0xfffdb5a2>
    33ec:	deadbeef          	jal	t4,fffde9d6 <_end+0xfffdb5a6>
    33f0:	deadbeef          	jal	t4,fffde9da <_end+0xfffdb5aa>
    33f4:	deadbeef          	jal	t4,fffde9de <_end+0xfffdb5ae>
    33f8:	deadbeef          	jal	t4,fffde9e2 <_end+0xfffdb5b2>
    33fc:	deadbeef          	jal	t4,fffde9e6 <_end+0xfffdb5b6>
    3400:	deadbeef          	jal	t4,fffde9ea <_end+0xfffdb5ba>
    3404:	deadbeef          	jal	t4,fffde9ee <_end+0xfffdb5be>
    3408:	deadbeef          	jal	t4,fffde9f2 <_end+0xfffdb5c2>
    340c:	deadbeef          	jal	t4,fffde9f6 <_end+0xfffdb5c6>
    3410:	deadbeef          	jal	t4,fffde9fa <_end+0xfffdb5ca>
    3414:	deadbeef          	jal	t4,fffde9fe <_end+0xfffdb5ce>
    3418:	deadbeef          	jal	t4,fffdea02 <_end+0xfffdb5d2>
    341c:	deadbeef          	jal	t4,fffdea06 <_end+0xfffdb5d6>
    3420:	deadbeef          	jal	t4,fffdea0a <_end+0xfffdb5da>
    3424:	deadbeef          	jal	t4,fffdea0e <_end+0xfffdb5de>
    3428:	deadbeef          	jal	t4,fffdea12 <_end+0xfffdb5e2>
    342c:	deadbeef          	jal	t4,fffdea16 <_end+0xfffdb5e6>

Desensamblado de la sección .riscv.attributes:

00000000 <.riscv.attributes>:
   0:	3941                	jal	fffffc90 <_end+0xffffc860>
   2:	0000                	unimp
   4:	7200                	.2byte	0x7200
   6:	7369                	lui	t1,0xffffa
   8:	01007663          	bgeu	zero,a6,14 <rvtest_entry_point+0x14>
   c:	0000002f          	.4byte	0x2f
  10:	7205                	lui	tp,0xfffe1
  12:	3376                	.2byte	0x3376
  14:	6932                	.2byte	0x6932
  16:	7032                	.2byte	0x7032
  18:	5f30                	lw	a2,120(a4)
  1a:	326d                	jal	fffff9c4 <_end+0xffffc594>
  1c:	3070                	.2byte	0x3070
  1e:	635f 7032 5f30      	.byte	0x5f, 0x63, 0x32, 0x70, 0x30, 0x5f
  24:	6d7a                	.2byte	0x6d7a
  26:	756d                	lui	a0,0xffffb
  28:	316c                	.2byte	0x316c
  2a:	3070                	.2byte	0x3070
  2c:	7a5f 6966 786e      	.byte	0x5f, 0x7a, 0x66, 0x69, 0x6e, 0x78
  32:	7031                	c.lui	zero,0xfffec
  34:	0030                	add	a2,sp,8
  36:	0108                	add	a0,sp,128
  38:	0b0a                	sll	s6,s6,0x2
