
/home/alejandro/Escritorio/test_riscv2.5/riscv-compliance/work/rv32i_m/F/flt_b1-01.elf:     formato del fichero elf32-littleriscv


Desensamblado de la sección .text.init:

00000000 <rvtest_entry_point>:
       0:	feedc0b7          	lui	ra,0xfeedc
       4:	ead08093          	add	ra,ra,-339 # feedbead <_end+0xfeed5a6d>
       8:	ff76e137          	lui	sp,0xff76e
       c:	f5610113          	add	sp,sp,-170 # ff76df56 <_end+0xff767b16>
      10:	7fbb71b7          	lui	gp,0x7fbb7
      14:	fab18193          	add	gp,gp,-85 # 7fbb6fab <_end+0x7fbb0b6b>
      18:	bfddb237          	lui	tp,0xbfddb
      1c:	7d520213          	add	tp,tp,2005 # bfddb7d5 <_end+0xbfdd5395>
      20:	00000297          	auipc	t0,0x0
      24:	0d828293          	add	t0,t0,216 # f8 <rvtest_code_begin>
      28:	00004317          	auipc	t1,0x4
      2c:	fd830313          	add	t1,t1,-40 # 4000 <rvtest_data_begin>
      30:	b7fbb3b7          	lui	t2,0xb7fbb
      34:	6fa38393          	add	t2,t2,1786 # b7fbb6fa <_end+0xb7fb52ba>
      38:	5bfde437          	lui	s0,0x5bfde
      3c:	b7d40413          	add	s0,s0,-1155 # 5bfddb7d <_end+0x5bfd773d>
      40:	adfef4b7          	lui	s1,0xadfef
      44:	dbe48493          	add	s1,s1,-578 # adfeedbe <_end+0xadfe897e>
      48:	56ff7537          	lui	a0,0x56ff7
      4c:	6df50513          	add	a0,a0,1759 # 56ff76df <_end+0x56ff129f>
      50:	ab7fc5b7          	lui	a1,0xab7fc
      54:	b6f58593          	add	a1,a1,-1169 # ab7fbb6f <_end+0xab7f572f>
      58:	d5bfe637          	lui	a2,0xd5bfe
      5c:	db760613          	add	a2,a2,-585 # d5bfddb7 <_end+0xd5bf7977>
      60:	eadff6b7          	lui	a3,0xeadff
      64:	edb68693          	add	a3,a3,-293 # eadfeedb <_end+0xeadf8a9b>
      68:	f56ff737          	lui	a4,0xf56ff
      6c:	76d70713          	add	a4,a4,1901 # f56ff76d <_end+0xf56f932d>
      70:	fab807b7          	lui	a5,0xfab80
      74:	bb678793          	add	a5,a5,-1098 # fab7fbb6 <_end+0xfab79776>
      78:	7d5c0837          	lui	a6,0x7d5c0
      7c:	ddb80813          	add	a6,a6,-549 # 7d5bfddb <_end+0x7d5b999b>
      80:	beae08b7          	lui	a7,0xbeae0
      84:	eed88893          	add	a7,a7,-275 # beadfeed <_end+0xbead9aad>
      88:	df570937          	lui	s2,0xdf570
      8c:	f7690913          	add	s2,s2,-138 # df56ff76 <_end+0xdf569b36>
      90:	6fab89b7          	lui	s3,0x6fab8
      94:	fbb98993          	add	s3,s3,-69 # 6fab7fbb <_end+0x6fab1b7b>
      98:	b7d5ca37          	lui	s4,0xb7d5c
      9c:	fdda0a13          	add	s4,s4,-35 # b7d5bfdd <_end+0xb7d55b9d>
      a0:	dbeaeab7          	lui	s5,0xdbeae
      a4:	feea8a93          	add	s5,s5,-18 # dbeadfee <_end+0xdbea7bae>
      a8:	6df57b37          	lui	s6,0x6df57
      ac:	ff7b0b13          	add	s6,s6,-9 # 6df56ff7 <_end+0x6df50bb7>
      b0:	b6fabbb7          	lui	s7,0xb6fab
      b4:	7fbb8b93          	add	s7,s7,2043 # b6fab7fb <_end+0xb6fa53bb>
      b8:	db7d6c37          	lui	s8,0xdb7d6
      bc:	bfdc0c13          	add	s8,s8,-1027 # db7d5bfd <_end+0xdb7cf7bd>
      c0:	edbebcb7          	lui	s9,0xedbeb
      c4:	dfec8c93          	add	s9,s9,-514 # edbeadfe <_end+0xedbe49be>
      c8:	76df5d37          	lui	s10,0x76df5
      cc:	6ffd0d13          	add	s10,s10,1791 # 76df56ff <_end+0x76def2bf>
      d0:	bb6fbdb7          	lui	s11,0xbb6fb
      d4:	b7fd8d93          	add	s11,s11,-1153 # bb6fab7f <_end+0xbb6f473f>
      d8:	ddb7de37          	lui	t3,0xddb7d
      dc:	5bfe0e13          	add	t3,t3,1471 # ddb7d5bf <_end+0xddb7717f>
      e0:	eedbfeb7          	lui	t4,0xeedbf
      e4:	adfe8e93          	add	t4,t4,-1313 # eedbeadf <_end+0xeedb869f>
      e8:	f76dff37          	lui	t5,0xf76df
      ec:	56ff0f13          	add	t5,t5,1391 # f76df56f <_end+0xf76d912f>
      f0:	fbb70fb7          	lui	t6,0xfbb70
      f4:	ab7f8f93          	add	t6,t6,-1353 # fbb6fab7 <_end+0xfbb69677>

000000f8 <rvtest_code_begin>:
      f8:	00002537          	lui	a0,0x2
      fc:	30052073          	csrs	mstatus,a0
     100:	00004817          	auipc	a6,0x4
     104:	f0480813          	add	a6,a6,-252 # 4004 <test_fp>
     108:	00005797          	auipc	a5,0x5
     10c:	11878793          	add	a5,a5,280 # 5220 <data_begin>

00000110 <inst_0>:
     110:	00082e87          	flw	ft9,0(a6)
     114:	00482e87          	flw	ft9,4(a6)
     118:	a1de94d3          	flt.s	s1,ft9,ft9
     11c:	001028f3          	frflags	a7
     120:	0097a023          	sw	s1,0(a5)
     124:	0117a223          	sw	a7,4(a5)

00000128 <inst_1>:
     128:	00882387          	flw	ft7,8(a6)
     12c:	00c82d87          	flw	fs11,12(a6)
     130:	a1b39753          	flt.s	a4,ft7,fs11
     134:	001028f3          	frflags	a7
     138:	00e7a423          	sw	a4,8(a5)
     13c:	0117a623          	sw	a7,12(a5)
     140:	00080a33          	add	s4,a6,zero
     144:	00005997          	auipc	s3,0x5
     148:	0ec98993          	add	s3,s3,236 # 5230 <signature_x19_0>

0000014c <inst_2>:
     14c:	010a2407          	flw	fs0,16(s4)
     150:	014a2807          	flw	fa6,20(s4)
     154:	a10418d3          	flt.s	a7,fs0,fa6
     158:	00102af3          	frflags	s5
     15c:	0119a023          	sw	a7,0(s3)
     160:	0159a223          	sw	s5,4(s3)
     164:	000a0833          	add	a6,s4,zero
     168:	00005797          	auipc	a5,0x5
     16c:	0d078793          	add	a5,a5,208 # 5238 <signature_x15_2>

00000170 <inst_3>:
     170:	01882c87          	flw	fs9,24(a6)
     174:	01c82d07          	flw	fs10,28(a6)
     178:	a1ac9ad3          	flt.s	s5,fs9,fs10
     17c:	001028f3          	frflags	a7
     180:	0157a023          	sw	s5,0(a5)
     184:	0117a223          	sw	a7,4(a5)
     188:	00080a33          	add	s4,a6,zero
     18c:	00005997          	auipc	s3,0x5
     190:	0b498993          	add	s3,s3,180 # 5240 <signature_x19_1>

00000194 <inst_4>:
     194:	020a2e07          	flw	ft8,32(s4)
     198:	024a2f07          	flw	ft10,36(s4)
     19c:	a1ee1853          	flt.s	a6,ft8,ft10
     1a0:	00102af3          	frflags	s5
     1a4:	0109a023          	sw	a6,0(s3)
     1a8:	0159a223          	sw	s5,4(s3)
     1ac:	000a0833          	add	a6,s4,zero
     1b0:	00005797          	auipc	a5,0x5
     1b4:	09878793          	add	a5,a5,152 # 5248 <signature_x15_3>

000001b8 <inst_5>:
     1b8:	02882f07          	flw	ft10,40(a6)
     1bc:	02c82c07          	flw	fs8,44(a6)
     1c0:	a18f1f53          	flt.s	t5,ft10,fs8
     1c4:	001028f3          	frflags	a7
     1c8:	01e7a023          	sw	t5,0(a5)
     1cc:	0117a223          	sw	a7,4(a5)

000001d0 <inst_6>:
     1d0:	03082f87          	flw	ft11,48(a6)
     1d4:	03482b87          	flw	fs7,52(a6)
     1d8:	a17f9fd3          	flt.s	t6,ft11,fs7
     1dc:	001028f3          	frflags	a7
     1e0:	01f7a423          	sw	t6,8(a5)
     1e4:	0117a623          	sw	a7,12(a5)

000001e8 <inst_7>:
     1e8:	03882a07          	flw	fs4,56(a6)
     1ec:	03c82007          	flw	ft0,60(a6)
     1f0:	a00a1353          	flt.s	t1,fs4,ft0
     1f4:	001028f3          	frflags	a7
     1f8:	0067a823          	sw	t1,16(a5)
     1fc:	0117aa23          	sw	a7,20(a5)

00000200 <inst_8>:
     200:	04082807          	flw	fa6,64(a6)
     204:	04482187          	flw	ft3,68(a6)
     208:	a0381b53          	flt.s	s6,fa6,ft3
     20c:	001028f3          	frflags	a7
     210:	0167ac23          	sw	s6,24(a5)
     214:	0117ae23          	sw	a7,28(a5)

00000218 <inst_9>:
     218:	04882c07          	flw	fs8,72(a6)
     21c:	04c82107          	flw	ft2,76(a6)
     220:	a02c15d3          	flt.s	a1,fs8,ft2
     224:	001028f3          	frflags	a7
     228:	02b7a023          	sw	a1,32(a5)
     22c:	0317a223          	sw	a7,36(a5)

00000230 <inst_10>:
     230:	05082787          	flw	fa5,80(a6)
     234:	05482287          	flw	ft5,84(a6)
     238:	a0579153          	flt.s	sp,fa5,ft5
     23c:	001028f3          	frflags	a7
     240:	0227a423          	sw	sp,40(a5)
     244:	0317a623          	sw	a7,44(a5)

00000248 <inst_11>:
     248:	05882b87          	flw	fs7,88(a6)
     24c:	05c82687          	flw	fa3,92(a6)
     250:	a0db9053          	flt.s	zero,fs7,fa3
     254:	001028f3          	frflags	a7
     258:	0207a823          	sw	zero,48(a5)
     25c:	0317aa23          	sw	a7,52(a5)

00000260 <inst_12>:
     260:	06082107          	flw	ft2,96(a6)
     264:	06482c87          	flw	fs9,100(a6)
     268:	a1911453          	flt.s	s0,ft2,fs9
     26c:	001028f3          	frflags	a7
     270:	0287ac23          	sw	s0,56(a5)
     274:	0317ae23          	sw	a7,60(a5)

00000278 <inst_13>:
     278:	06882587          	flw	fa1,104(a6)
     27c:	06c82207          	flw	ft4,108(a6)
     280:	a04591d3          	flt.s	gp,fa1,ft4
     284:	001028f3          	frflags	a7
     288:	0437a023          	sw	gp,64(a5)
     28c:	0517a223          	sw	a7,68(a5)
     290:	00080a33          	add	s4,a6,zero
     294:	00005997          	auipc	s3,0x5
     298:	ffc98993          	add	s3,s3,-4 # 5290 <signature_x19_2>

0000029c <inst_14>:
     29c:	070a2187          	flw	ft3,112(s4)
     2a0:	074a2407          	flw	fs0,116(s4)
     2a4:	a08197d3          	flt.s	a5,ft3,fs0
     2a8:	00102af3          	frflags	s5
     2ac:	00f9a023          	sw	a5,0(s3)
     2b0:	0159a223          	sw	s5,4(s3)
     2b4:	000a0833          	add	a6,s4,zero
     2b8:	00005797          	auipc	a5,0x5
     2bc:	fe078793          	add	a5,a5,-32 # 5298 <signature_x15_4>

000002c0 <inst_15>:
     2c0:	07882d87          	flw	fs11,120(a6)
     2c4:	07c82a07          	flw	fs4,124(a6)
     2c8:	a14d96d3          	flt.s	a3,fs11,fs4
     2cc:	001028f3          	frflags	a7
     2d0:	00d7a023          	sw	a3,0(a5)
     2d4:	0117a223          	sw	a7,4(a5)

000002d8 <inst_16>:
     2d8:	08082707          	flw	fa4,128(a6)
     2dc:	08482b07          	flw	fs6,132(a6)
     2e0:	a1671bd3          	flt.s	s7,fa4,fs6
     2e4:	001028f3          	frflags	a7
     2e8:	0177a423          	sw	s7,8(a5)
     2ec:	0117a623          	sw	a7,12(a5)

000002f0 <inst_17>:
     2f0:	08882507          	flw	fa0,136(a6)
     2f4:	08c82087          	flw	ft1,140(a6)
     2f8:	a0151a53          	flt.s	s4,fa0,ft1
     2fc:	001028f3          	frflags	a7
     300:	0147a823          	sw	s4,16(a5)
     304:	0117aa23          	sw	a7,20(a5)

00000308 <inst_18>:
     308:	09082487          	flw	fs1,144(a6)
     30c:	09482587          	flw	fa1,148(a6)
     310:	a0b49253          	flt.s	tp,fs1,fa1
     314:	001028f3          	frflags	a7
     318:	0047ac23          	sw	tp,24(a5)
     31c:	0117ae23          	sw	a7,28(a5)

00000320 <inst_19>:
     320:	09882a87          	flw	fs5,152(a6)
     324:	09c82987          	flw	fs3,156(a6)
     328:	a13a9553          	flt.s	a0,fs5,fs3
     32c:	001028f3          	frflags	a7
     330:	02a7a023          	sw	a0,32(a5)
     334:	0317a223          	sw	a7,36(a5)

00000338 <inst_20>:
     338:	0a082b07          	flw	fs6,160(a6)
     33c:	0a482387          	flw	ft7,164(a6)
     340:	a07b1ed3          	flt.s	t4,fs6,ft7
     344:	001028f3          	frflags	a7
     348:	03d7a423          	sw	t4,40(a5)
     34c:	0317a623          	sw	a7,44(a5)

00000350 <inst_21>:
     350:	0a882307          	flw	ft6,168(a6)
     354:	0ac82f87          	flw	ft11,172(a6)
     358:	a1f31653          	flt.s	a2,ft6,ft11
     35c:	001028f3          	frflags	a7
     360:	02c7a823          	sw	a2,48(a5)
     364:	0317aa23          	sw	a7,52(a5)

00000368 <inst_22>:
     368:	0b082207          	flw	ft4,176(a6)
     36c:	0b482707          	flw	fa4,180(a6)
     370:	a0e212d3          	flt.s	t0,ft4,fa4
     374:	001028f3          	frflags	a7
     378:	0257ac23          	sw	t0,56(a5)
     37c:	0317ae23          	sw	a7,60(a5)

00000380 <inst_23>:
     380:	0b882087          	flw	ft1,184(a6)
     384:	0bc82507          	flw	fa0,188(a6)
     388:	a0a093d3          	flt.s	t2,ft1,fa0
     38c:	001028f3          	frflags	a7
     390:	0477a023          	sw	t2,64(a5)
     394:	0517a223          	sw	a7,68(a5)

00000398 <inst_24>:
     398:	0c082907          	flw	fs2,192(a6)
     39c:	0c482e07          	flw	ft8,196(a6)
     3a0:	a1c919d3          	flt.s	s3,fs2,ft8
     3a4:	001028f3          	frflags	a7
     3a8:	0537a423          	sw	s3,72(a5)
     3ac:	0517a623          	sw	a7,76(a5)

000003b0 <inst_25>:
     3b0:	0c882687          	flw	fa3,200(a6)
     3b4:	0cc82487          	flw	fs1,204(a6)
     3b8:	a0969cd3          	flt.s	s9,fa3,fs1
     3bc:	001028f3          	frflags	a7
     3c0:	0597a823          	sw	s9,80(a5)
     3c4:	0517aa23          	sw	a7,84(a5)

000003c8 <inst_26>:
     3c8:	0d082287          	flw	ft5,208(a6)
     3cc:	0d482307          	flw	ft6,212(a6)
     3d0:	a0629e53          	flt.s	t3,ft5,ft6
     3d4:	001028f3          	frflags	a7
     3d8:	05c7ac23          	sw	t3,88(a5)
     3dc:	0517ae23          	sw	a7,92(a5)

000003e0 <inst_27>:
     3e0:	0d882d07          	flw	fs10,216(a6)
     3e4:	0dc82787          	flw	fa5,220(a6)
     3e8:	a0fd1953          	flt.s	s2,fs10,fa5
     3ec:	001028f3          	frflags	a7
     3f0:	0727a023          	sw	s2,96(a5)
     3f4:	0717a223          	sw	a7,100(a5)

000003f8 <inst_28>:
     3f8:	0e082007          	flw	ft0,224(a6)
     3fc:	0e482a87          	flw	fs5,228(a6)
     400:	a1501d53          	flt.s	s10,ft0,fs5
     404:	001028f3          	frflags	a7
     408:	07a7a423          	sw	s10,104(a5)
     40c:	0717a623          	sw	a7,108(a5)

00000410 <inst_29>:
     410:	0e882607          	flw	fa2,232(a6)
     414:	0ec82907          	flw	fs2,236(a6)
     418:	a1261c53          	flt.s	s8,fa2,fs2
     41c:	001028f3          	frflags	a7
     420:	0787a823          	sw	s8,112(a5)
     424:	0717aa23          	sw	a7,116(a5)

00000428 <inst_30>:
     428:	0f082987          	flw	fs3,240(a6)
     42c:	0f482607          	flw	fa2,244(a6)
     430:	a0c99dd3          	flt.s	s11,fs3,fa2
     434:	001028f3          	frflags	a7
     438:	07b7ac23          	sw	s11,120(a5)
     43c:	0717ae23          	sw	a7,124(a5)

00000440 <inst_31>:
     440:	0f882887          	flw	fa7,248(a6)
     444:	0fc82307          	flw	ft6,252(a6)
     448:	a0689053          	flt.s	zero,fa7,ft6
     44c:	001028f3          	frflags	a7
     450:	0807a023          	sw	zero,128(a5)
     454:	0917a223          	sw	a7,132(a5)

00000458 <inst_32>:
     458:	10082587          	flw	fa1,256(a6)
     45c:	10482887          	flw	fa7,260(a6)
     460:	a1159cd3          	flt.s	s9,fa1,fa7
     464:	001028f3          	frflags	a7
     468:	0997a423          	sw	s9,136(a5)
     46c:	0917a623          	sw	a7,140(a5)

00000470 <inst_33>:
     470:	10882587          	flw	fa1,264(a6)
     474:	10c82d87          	flw	fs11,268(a6)
     478:	a1b590d3          	flt.s	ra,fa1,fs11
     47c:	001028f3          	frflags	a7
     480:	0817a823          	sw	ra,144(a5)
     484:	0917aa23          	sw	a7,148(a5)

00000488 <inst_34>:
     488:	11082507          	flw	fa0,272(a6)
     48c:	11482587          	flw	fa1,276(a6)
     490:	a0b51653          	flt.s	a2,fa0,fa1
     494:	001028f3          	frflags	a7
     498:	08c7ac23          	sw	a2,152(a5)
     49c:	0917ae23          	sw	a7,156(a5)

000004a0 <inst_35>:
     4a0:	11882507          	flw	fa0,280(a6)
     4a4:	11c82587          	flw	fa1,284(a6)
     4a8:	a0b51653          	flt.s	a2,fa0,fa1
     4ac:	001028f3          	frflags	a7
     4b0:	0ac7a023          	sw	a2,160(a5)
     4b4:	0b17a223          	sw	a7,164(a5)

000004b8 <inst_36>:
     4b8:	12082507          	flw	fa0,288(a6)
     4bc:	12482587          	flw	fa1,292(a6)
     4c0:	a0b51653          	flt.s	a2,fa0,fa1
     4c4:	001028f3          	frflags	a7
     4c8:	0ac7a423          	sw	a2,168(a5)
     4cc:	0b17a623          	sw	a7,172(a5)

000004d0 <inst_37>:
     4d0:	12882507          	flw	fa0,296(a6)
     4d4:	12c82587          	flw	fa1,300(a6)
     4d8:	a0b51653          	flt.s	a2,fa0,fa1
     4dc:	001028f3          	frflags	a7
     4e0:	0ac7a823          	sw	a2,176(a5)
     4e4:	0b17aa23          	sw	a7,180(a5)

000004e8 <inst_38>:
     4e8:	13082507          	flw	fa0,304(a6)
     4ec:	13482587          	flw	fa1,308(a6)
     4f0:	a0b51653          	flt.s	a2,fa0,fa1
     4f4:	001028f3          	frflags	a7
     4f8:	0ac7ac23          	sw	a2,184(a5)
     4fc:	0b17ae23          	sw	a7,188(a5)

00000500 <inst_39>:
     500:	13882507          	flw	fa0,312(a6)
     504:	13c82587          	flw	fa1,316(a6)
     508:	a0b51653          	flt.s	a2,fa0,fa1
     50c:	001028f3          	frflags	a7
     510:	0cc7a023          	sw	a2,192(a5)
     514:	0d17a223          	sw	a7,196(a5)

00000518 <inst_40>:
     518:	14082507          	flw	fa0,320(a6)
     51c:	14482587          	flw	fa1,324(a6)
     520:	a0b51653          	flt.s	a2,fa0,fa1
     524:	001028f3          	frflags	a7
     528:	0cc7a423          	sw	a2,200(a5)
     52c:	0d17a623          	sw	a7,204(a5)

00000530 <inst_41>:
     530:	14882507          	flw	fa0,328(a6)
     534:	14c82587          	flw	fa1,332(a6)
     538:	a0b51653          	flt.s	a2,fa0,fa1
     53c:	001028f3          	frflags	a7
     540:	0cc7a823          	sw	a2,208(a5)
     544:	0d17aa23          	sw	a7,212(a5)

00000548 <inst_42>:
     548:	15082507          	flw	fa0,336(a6)
     54c:	15482587          	flw	fa1,340(a6)
     550:	a0b51653          	flt.s	a2,fa0,fa1
     554:	001028f3          	frflags	a7
     558:	0cc7ac23          	sw	a2,216(a5)
     55c:	0d17ae23          	sw	a7,220(a5)

00000560 <inst_43>:
     560:	15882507          	flw	fa0,344(a6)
     564:	15c82587          	flw	fa1,348(a6)
     568:	a0b51653          	flt.s	a2,fa0,fa1
     56c:	001028f3          	frflags	a7
     570:	0ec7a023          	sw	a2,224(a5)
     574:	0f17a223          	sw	a7,228(a5)

00000578 <inst_44>:
     578:	16082507          	flw	fa0,352(a6)
     57c:	16482587          	flw	fa1,356(a6)
     580:	a0b51653          	flt.s	a2,fa0,fa1
     584:	001028f3          	frflags	a7
     588:	0ec7a423          	sw	a2,232(a5)
     58c:	0f17a623          	sw	a7,236(a5)

00000590 <inst_45>:
     590:	16882507          	flw	fa0,360(a6)
     594:	16c82587          	flw	fa1,364(a6)
     598:	a0b51653          	flt.s	a2,fa0,fa1
     59c:	001028f3          	frflags	a7
     5a0:	0ec7a823          	sw	a2,240(a5)
     5a4:	0f17aa23          	sw	a7,244(a5)

000005a8 <inst_46>:
     5a8:	17082507          	flw	fa0,368(a6)
     5ac:	17482587          	flw	fa1,372(a6)
     5b0:	a0b51653          	flt.s	a2,fa0,fa1
     5b4:	001028f3          	frflags	a7
     5b8:	0ec7ac23          	sw	a2,248(a5)
     5bc:	0f17ae23          	sw	a7,252(a5)

000005c0 <inst_47>:
     5c0:	17882507          	flw	fa0,376(a6)
     5c4:	17c82587          	flw	fa1,380(a6)
     5c8:	a0b51653          	flt.s	a2,fa0,fa1
     5cc:	001028f3          	frflags	a7
     5d0:	10c7a023          	sw	a2,256(a5)
     5d4:	1117a223          	sw	a7,260(a5)

000005d8 <inst_48>:
     5d8:	18082507          	flw	fa0,384(a6)
     5dc:	18482587          	flw	fa1,388(a6)
     5e0:	a0b51653          	flt.s	a2,fa0,fa1
     5e4:	001028f3          	frflags	a7
     5e8:	10c7a423          	sw	a2,264(a5)
     5ec:	1117a623          	sw	a7,268(a5)

000005f0 <inst_49>:
     5f0:	18882507          	flw	fa0,392(a6)
     5f4:	18c82587          	flw	fa1,396(a6)
     5f8:	a0b51653          	flt.s	a2,fa0,fa1
     5fc:	001028f3          	frflags	a7
     600:	10c7a823          	sw	a2,272(a5)
     604:	1117aa23          	sw	a7,276(a5)

00000608 <inst_50>:
     608:	19082507          	flw	fa0,400(a6)
     60c:	19482587          	flw	fa1,404(a6)
     610:	a0b51653          	flt.s	a2,fa0,fa1
     614:	001028f3          	frflags	a7
     618:	10c7ac23          	sw	a2,280(a5)
     61c:	1117ae23          	sw	a7,284(a5)

00000620 <inst_51>:
     620:	19882507          	flw	fa0,408(a6)
     624:	19c82587          	flw	fa1,412(a6)
     628:	a0b51653          	flt.s	a2,fa0,fa1
     62c:	001028f3          	frflags	a7
     630:	12c7a023          	sw	a2,288(a5)
     634:	1317a223          	sw	a7,292(a5)

00000638 <inst_52>:
     638:	1a082507          	flw	fa0,416(a6)
     63c:	1a482587          	flw	fa1,420(a6)
     640:	a0b51653          	flt.s	a2,fa0,fa1
     644:	001028f3          	frflags	a7
     648:	12c7a423          	sw	a2,296(a5)
     64c:	1317a623          	sw	a7,300(a5)

00000650 <inst_53>:
     650:	1a882507          	flw	fa0,424(a6)
     654:	1ac82587          	flw	fa1,428(a6)
     658:	a0b51653          	flt.s	a2,fa0,fa1
     65c:	001028f3          	frflags	a7
     660:	12c7a823          	sw	a2,304(a5)
     664:	1317aa23          	sw	a7,308(a5)

00000668 <inst_54>:
     668:	1b082507          	flw	fa0,432(a6)
     66c:	1b482587          	flw	fa1,436(a6)
     670:	a0b51653          	flt.s	a2,fa0,fa1
     674:	001028f3          	frflags	a7
     678:	12c7ac23          	sw	a2,312(a5)
     67c:	1317ae23          	sw	a7,316(a5)

00000680 <inst_55>:
     680:	1b882507          	flw	fa0,440(a6)
     684:	1bc82587          	flw	fa1,444(a6)
     688:	a0b51653          	flt.s	a2,fa0,fa1
     68c:	001028f3          	frflags	a7
     690:	14c7a023          	sw	a2,320(a5)
     694:	1517a223          	sw	a7,324(a5)

00000698 <inst_56>:
     698:	1c082507          	flw	fa0,448(a6)
     69c:	1c482587          	flw	fa1,452(a6)
     6a0:	a0b51653          	flt.s	a2,fa0,fa1
     6a4:	001028f3          	frflags	a7
     6a8:	14c7a423          	sw	a2,328(a5)
     6ac:	1517a623          	sw	a7,332(a5)

000006b0 <inst_57>:
     6b0:	1c882507          	flw	fa0,456(a6)
     6b4:	1cc82587          	flw	fa1,460(a6)
     6b8:	a0b51653          	flt.s	a2,fa0,fa1
     6bc:	001028f3          	frflags	a7
     6c0:	14c7a823          	sw	a2,336(a5)
     6c4:	1517aa23          	sw	a7,340(a5)

000006c8 <inst_58>:
     6c8:	1d082507          	flw	fa0,464(a6)
     6cc:	1d482587          	flw	fa1,468(a6)
     6d0:	a0b51653          	flt.s	a2,fa0,fa1
     6d4:	001028f3          	frflags	a7
     6d8:	14c7ac23          	sw	a2,344(a5)
     6dc:	1517ae23          	sw	a7,348(a5)

000006e0 <inst_59>:
     6e0:	1d882507          	flw	fa0,472(a6)
     6e4:	1dc82587          	flw	fa1,476(a6)
     6e8:	a0b51653          	flt.s	a2,fa0,fa1
     6ec:	001028f3          	frflags	a7
     6f0:	16c7a023          	sw	a2,352(a5)
     6f4:	1717a223          	sw	a7,356(a5)

000006f8 <inst_60>:
     6f8:	1e082507          	flw	fa0,480(a6)
     6fc:	1e482587          	flw	fa1,484(a6)
     700:	a0b51653          	flt.s	a2,fa0,fa1
     704:	001028f3          	frflags	a7
     708:	16c7a423          	sw	a2,360(a5)
     70c:	1717a623          	sw	a7,364(a5)

00000710 <inst_61>:
     710:	1e882507          	flw	fa0,488(a6)
     714:	1ec82587          	flw	fa1,492(a6)
     718:	a0b51653          	flt.s	a2,fa0,fa1
     71c:	001028f3          	frflags	a7
     720:	16c7a823          	sw	a2,368(a5)
     724:	1717aa23          	sw	a7,372(a5)

00000728 <inst_62>:
     728:	1f082507          	flw	fa0,496(a6)
     72c:	1f482587          	flw	fa1,500(a6)
     730:	a0b51653          	flt.s	a2,fa0,fa1
     734:	001028f3          	frflags	a7
     738:	16c7ac23          	sw	a2,376(a5)
     73c:	1717ae23          	sw	a7,380(a5)

00000740 <inst_63>:
     740:	1f882507          	flw	fa0,504(a6)
     744:	1fc82587          	flw	fa1,508(a6)
     748:	a0b51653          	flt.s	a2,fa0,fa1
     74c:	001028f3          	frflags	a7
     750:	18c7a023          	sw	a2,384(a5)
     754:	1917a223          	sw	a7,388(a5)

00000758 <inst_64>:
     758:	20082507          	flw	fa0,512(a6)
     75c:	20482587          	flw	fa1,516(a6)
     760:	a0b51653          	flt.s	a2,fa0,fa1
     764:	001028f3          	frflags	a7
     768:	18c7a423          	sw	a2,392(a5)
     76c:	1917a623          	sw	a7,396(a5)

00000770 <inst_65>:
     770:	20882507          	flw	fa0,520(a6)
     774:	20c82587          	flw	fa1,524(a6)
     778:	a0b51653          	flt.s	a2,fa0,fa1
     77c:	001028f3          	frflags	a7
     780:	18c7a823          	sw	a2,400(a5)
     784:	1917aa23          	sw	a7,404(a5)

00000788 <inst_66>:
     788:	21082507          	flw	fa0,528(a6)
     78c:	21482587          	flw	fa1,532(a6)
     790:	a0b51653          	flt.s	a2,fa0,fa1
     794:	001028f3          	frflags	a7
     798:	18c7ac23          	sw	a2,408(a5)
     79c:	1917ae23          	sw	a7,412(a5)

000007a0 <inst_67>:
     7a0:	21882507          	flw	fa0,536(a6)
     7a4:	21c82587          	flw	fa1,540(a6)
     7a8:	a0b51653          	flt.s	a2,fa0,fa1
     7ac:	001028f3          	frflags	a7
     7b0:	1ac7a023          	sw	a2,416(a5)
     7b4:	1b17a223          	sw	a7,420(a5)

000007b8 <inst_68>:
     7b8:	22082507          	flw	fa0,544(a6)
     7bc:	22482587          	flw	fa1,548(a6)
     7c0:	a0b51653          	flt.s	a2,fa0,fa1
     7c4:	001028f3          	frflags	a7
     7c8:	1ac7a423          	sw	a2,424(a5)
     7cc:	1b17a623          	sw	a7,428(a5)

000007d0 <inst_69>:
     7d0:	22882507          	flw	fa0,552(a6)
     7d4:	22c82587          	flw	fa1,556(a6)
     7d8:	a0b51653          	flt.s	a2,fa0,fa1
     7dc:	001028f3          	frflags	a7
     7e0:	1ac7a823          	sw	a2,432(a5)
     7e4:	1b17aa23          	sw	a7,436(a5)

000007e8 <inst_70>:
     7e8:	23082507          	flw	fa0,560(a6)
     7ec:	23482587          	flw	fa1,564(a6)
     7f0:	a0b51653          	flt.s	a2,fa0,fa1
     7f4:	001028f3          	frflags	a7
     7f8:	1ac7ac23          	sw	a2,440(a5)
     7fc:	1b17ae23          	sw	a7,444(a5)

00000800 <inst_71>:
     800:	23882507          	flw	fa0,568(a6)
     804:	23c82587          	flw	fa1,572(a6)
     808:	a0b51653          	flt.s	a2,fa0,fa1
     80c:	001028f3          	frflags	a7
     810:	1cc7a023          	sw	a2,448(a5)
     814:	1d17a223          	sw	a7,452(a5)

00000818 <inst_72>:
     818:	24082507          	flw	fa0,576(a6)
     81c:	24482587          	flw	fa1,580(a6)
     820:	a0b51653          	flt.s	a2,fa0,fa1
     824:	001028f3          	frflags	a7
     828:	1cc7a423          	sw	a2,456(a5)
     82c:	1d17a623          	sw	a7,460(a5)

00000830 <inst_73>:
     830:	24882507          	flw	fa0,584(a6)
     834:	24c82587          	flw	fa1,588(a6)
     838:	a0b51653          	flt.s	a2,fa0,fa1
     83c:	001028f3          	frflags	a7
     840:	1cc7a823          	sw	a2,464(a5)
     844:	1d17aa23          	sw	a7,468(a5)

00000848 <inst_74>:
     848:	25082507          	flw	fa0,592(a6)
     84c:	25482587          	flw	fa1,596(a6)
     850:	a0b51653          	flt.s	a2,fa0,fa1
     854:	001028f3          	frflags	a7
     858:	1cc7ac23          	sw	a2,472(a5)
     85c:	1d17ae23          	sw	a7,476(a5)

00000860 <inst_75>:
     860:	25882507          	flw	fa0,600(a6)
     864:	25c82587          	flw	fa1,604(a6)
     868:	a0b51653          	flt.s	a2,fa0,fa1
     86c:	001028f3          	frflags	a7
     870:	1ec7a023          	sw	a2,480(a5)
     874:	1f17a223          	sw	a7,484(a5)

00000878 <inst_76>:
     878:	26082507          	flw	fa0,608(a6)
     87c:	26482587          	flw	fa1,612(a6)
     880:	a0b51653          	flt.s	a2,fa0,fa1
     884:	001028f3          	frflags	a7
     888:	1ec7a423          	sw	a2,488(a5)
     88c:	1f17a623          	sw	a7,492(a5)

00000890 <inst_77>:
     890:	26882507          	flw	fa0,616(a6)
     894:	26c82587          	flw	fa1,620(a6)
     898:	a0b51653          	flt.s	a2,fa0,fa1
     89c:	001028f3          	frflags	a7
     8a0:	1ec7a823          	sw	a2,496(a5)
     8a4:	1f17aa23          	sw	a7,500(a5)

000008a8 <inst_78>:
     8a8:	27082507          	flw	fa0,624(a6)
     8ac:	27482587          	flw	fa1,628(a6)
     8b0:	a0b51653          	flt.s	a2,fa0,fa1
     8b4:	001028f3          	frflags	a7
     8b8:	1ec7ac23          	sw	a2,504(a5)
     8bc:	1f17ae23          	sw	a7,508(a5)

000008c0 <inst_79>:
     8c0:	27882507          	flw	fa0,632(a6)
     8c4:	27c82587          	flw	fa1,636(a6)
     8c8:	a0b51653          	flt.s	a2,fa0,fa1
     8cc:	001028f3          	frflags	a7
     8d0:	20c7a023          	sw	a2,512(a5)
     8d4:	2117a223          	sw	a7,516(a5)

000008d8 <inst_80>:
     8d8:	28082507          	flw	fa0,640(a6)
     8dc:	28482587          	flw	fa1,644(a6)
     8e0:	a0b51653          	flt.s	a2,fa0,fa1
     8e4:	001028f3          	frflags	a7
     8e8:	20c7a423          	sw	a2,520(a5)
     8ec:	2117a623          	sw	a7,524(a5)

000008f0 <inst_81>:
     8f0:	28882507          	flw	fa0,648(a6)
     8f4:	28c82587          	flw	fa1,652(a6)
     8f8:	a0b51653          	flt.s	a2,fa0,fa1
     8fc:	001028f3          	frflags	a7
     900:	20c7a823          	sw	a2,528(a5)
     904:	2117aa23          	sw	a7,532(a5)

00000908 <inst_82>:
     908:	29082507          	flw	fa0,656(a6)
     90c:	29482587          	flw	fa1,660(a6)
     910:	a0b51653          	flt.s	a2,fa0,fa1
     914:	001028f3          	frflags	a7
     918:	20c7ac23          	sw	a2,536(a5)
     91c:	2117ae23          	sw	a7,540(a5)

00000920 <inst_83>:
     920:	29882507          	flw	fa0,664(a6)
     924:	29c82587          	flw	fa1,668(a6)
     928:	a0b51653          	flt.s	a2,fa0,fa1
     92c:	001028f3          	frflags	a7
     930:	22c7a023          	sw	a2,544(a5)
     934:	2317a223          	sw	a7,548(a5)

00000938 <inst_84>:
     938:	2a082507          	flw	fa0,672(a6)
     93c:	2a482587          	flw	fa1,676(a6)
     940:	a0b51653          	flt.s	a2,fa0,fa1
     944:	001028f3          	frflags	a7
     948:	22c7a423          	sw	a2,552(a5)
     94c:	2317a623          	sw	a7,556(a5)

00000950 <inst_85>:
     950:	2a882507          	flw	fa0,680(a6)
     954:	2ac82587          	flw	fa1,684(a6)
     958:	a0b51653          	flt.s	a2,fa0,fa1
     95c:	001028f3          	frflags	a7
     960:	22c7a823          	sw	a2,560(a5)
     964:	2317aa23          	sw	a7,564(a5)

00000968 <inst_86>:
     968:	2b082507          	flw	fa0,688(a6)
     96c:	2b482587          	flw	fa1,692(a6)
     970:	a0b51653          	flt.s	a2,fa0,fa1
     974:	001028f3          	frflags	a7
     978:	22c7ac23          	sw	a2,568(a5)
     97c:	2317ae23          	sw	a7,572(a5)

00000980 <inst_87>:
     980:	2b882507          	flw	fa0,696(a6)
     984:	2bc82587          	flw	fa1,700(a6)
     988:	a0b51653          	flt.s	a2,fa0,fa1
     98c:	001028f3          	frflags	a7
     990:	24c7a023          	sw	a2,576(a5)
     994:	2517a223          	sw	a7,580(a5)

00000998 <inst_88>:
     998:	2c082507          	flw	fa0,704(a6)
     99c:	2c482587          	flw	fa1,708(a6)
     9a0:	a0b51653          	flt.s	a2,fa0,fa1
     9a4:	001028f3          	frflags	a7
     9a8:	24c7a423          	sw	a2,584(a5)
     9ac:	2517a623          	sw	a7,588(a5)

000009b0 <inst_89>:
     9b0:	2c882507          	flw	fa0,712(a6)
     9b4:	2cc82587          	flw	fa1,716(a6)
     9b8:	a0b51653          	flt.s	a2,fa0,fa1
     9bc:	001028f3          	frflags	a7
     9c0:	24c7a823          	sw	a2,592(a5)
     9c4:	2517aa23          	sw	a7,596(a5)

000009c8 <inst_90>:
     9c8:	2d082507          	flw	fa0,720(a6)
     9cc:	2d482587          	flw	fa1,724(a6)
     9d0:	a0b51653          	flt.s	a2,fa0,fa1
     9d4:	001028f3          	frflags	a7
     9d8:	24c7ac23          	sw	a2,600(a5)
     9dc:	2517ae23          	sw	a7,604(a5)

000009e0 <inst_91>:
     9e0:	2d882507          	flw	fa0,728(a6)
     9e4:	2dc82587          	flw	fa1,732(a6)
     9e8:	a0b51653          	flt.s	a2,fa0,fa1
     9ec:	001028f3          	frflags	a7
     9f0:	26c7a023          	sw	a2,608(a5)
     9f4:	2717a223          	sw	a7,612(a5)

000009f8 <inst_92>:
     9f8:	2e082507          	flw	fa0,736(a6)
     9fc:	2e482587          	flw	fa1,740(a6)
     a00:	a0b51653          	flt.s	a2,fa0,fa1
     a04:	001028f3          	frflags	a7
     a08:	26c7a423          	sw	a2,616(a5)
     a0c:	2717a623          	sw	a7,620(a5)

00000a10 <inst_93>:
     a10:	2e882507          	flw	fa0,744(a6)
     a14:	2ec82587          	flw	fa1,748(a6)
     a18:	a0b51653          	flt.s	a2,fa0,fa1
     a1c:	001028f3          	frflags	a7
     a20:	26c7a823          	sw	a2,624(a5)
     a24:	2717aa23          	sw	a7,628(a5)

00000a28 <inst_94>:
     a28:	2f082507          	flw	fa0,752(a6)
     a2c:	2f482587          	flw	fa1,756(a6)
     a30:	a0b51653          	flt.s	a2,fa0,fa1
     a34:	001028f3          	frflags	a7
     a38:	26c7ac23          	sw	a2,632(a5)
     a3c:	2717ae23          	sw	a7,636(a5)

00000a40 <inst_95>:
     a40:	2f882507          	flw	fa0,760(a6)
     a44:	2fc82587          	flw	fa1,764(a6)
     a48:	a0b51653          	flt.s	a2,fa0,fa1
     a4c:	001028f3          	frflags	a7
     a50:	28c7a023          	sw	a2,640(a5)
     a54:	2917a223          	sw	a7,644(a5)

00000a58 <inst_96>:
     a58:	30082507          	flw	fa0,768(a6)
     a5c:	30482587          	flw	fa1,772(a6)
     a60:	a0b51653          	flt.s	a2,fa0,fa1
     a64:	001028f3          	frflags	a7
     a68:	28c7a423          	sw	a2,648(a5)
     a6c:	2917a623          	sw	a7,652(a5)

00000a70 <inst_97>:
     a70:	30882507          	flw	fa0,776(a6)
     a74:	30c82587          	flw	fa1,780(a6)
     a78:	a0b51653          	flt.s	a2,fa0,fa1
     a7c:	001028f3          	frflags	a7
     a80:	28c7a823          	sw	a2,656(a5)
     a84:	2917aa23          	sw	a7,660(a5)

00000a88 <inst_98>:
     a88:	31082507          	flw	fa0,784(a6)
     a8c:	31482587          	flw	fa1,788(a6)
     a90:	a0b51653          	flt.s	a2,fa0,fa1
     a94:	001028f3          	frflags	a7
     a98:	28c7ac23          	sw	a2,664(a5)
     a9c:	2917ae23          	sw	a7,668(a5)

00000aa0 <inst_99>:
     aa0:	31882507          	flw	fa0,792(a6)
     aa4:	31c82587          	flw	fa1,796(a6)
     aa8:	a0b51653          	flt.s	a2,fa0,fa1
     aac:	001028f3          	frflags	a7
     ab0:	2ac7a023          	sw	a2,672(a5)
     ab4:	2b17a223          	sw	a7,676(a5)

00000ab8 <inst_100>:
     ab8:	32082507          	flw	fa0,800(a6)
     abc:	32482587          	flw	fa1,804(a6)
     ac0:	a0b51653          	flt.s	a2,fa0,fa1
     ac4:	001028f3          	frflags	a7
     ac8:	2ac7a423          	sw	a2,680(a5)
     acc:	2b17a623          	sw	a7,684(a5)

00000ad0 <inst_101>:
     ad0:	32882507          	flw	fa0,808(a6)
     ad4:	32c82587          	flw	fa1,812(a6)
     ad8:	a0b51653          	flt.s	a2,fa0,fa1
     adc:	001028f3          	frflags	a7
     ae0:	2ac7a823          	sw	a2,688(a5)
     ae4:	2b17aa23          	sw	a7,692(a5)

00000ae8 <inst_102>:
     ae8:	33082507          	flw	fa0,816(a6)
     aec:	33482587          	flw	fa1,820(a6)
     af0:	a0b51653          	flt.s	a2,fa0,fa1
     af4:	001028f3          	frflags	a7
     af8:	2ac7ac23          	sw	a2,696(a5)
     afc:	2b17ae23          	sw	a7,700(a5)

00000b00 <inst_103>:
     b00:	33882507          	flw	fa0,824(a6)
     b04:	33c82587          	flw	fa1,828(a6)
     b08:	a0b51653          	flt.s	a2,fa0,fa1
     b0c:	001028f3          	frflags	a7
     b10:	2cc7a023          	sw	a2,704(a5)
     b14:	2d17a223          	sw	a7,708(a5)

00000b18 <inst_104>:
     b18:	34082507          	flw	fa0,832(a6)
     b1c:	34482587          	flw	fa1,836(a6)
     b20:	a0b51653          	flt.s	a2,fa0,fa1
     b24:	001028f3          	frflags	a7
     b28:	2cc7a423          	sw	a2,712(a5)
     b2c:	2d17a623          	sw	a7,716(a5)

00000b30 <inst_105>:
     b30:	34882507          	flw	fa0,840(a6)
     b34:	34c82587          	flw	fa1,844(a6)
     b38:	a0b51653          	flt.s	a2,fa0,fa1
     b3c:	001028f3          	frflags	a7
     b40:	2cc7a823          	sw	a2,720(a5)
     b44:	2d17aa23          	sw	a7,724(a5)

00000b48 <inst_106>:
     b48:	35082507          	flw	fa0,848(a6)
     b4c:	35482587          	flw	fa1,852(a6)
     b50:	a0b51653          	flt.s	a2,fa0,fa1
     b54:	001028f3          	frflags	a7
     b58:	2cc7ac23          	sw	a2,728(a5)
     b5c:	2d17ae23          	sw	a7,732(a5)

00000b60 <inst_107>:
     b60:	35882507          	flw	fa0,856(a6)
     b64:	35c82587          	flw	fa1,860(a6)
     b68:	a0b51653          	flt.s	a2,fa0,fa1
     b6c:	001028f3          	frflags	a7
     b70:	2ec7a023          	sw	a2,736(a5)
     b74:	2f17a223          	sw	a7,740(a5)

00000b78 <inst_108>:
     b78:	36082507          	flw	fa0,864(a6)
     b7c:	36482587          	flw	fa1,868(a6)
     b80:	a0b51653          	flt.s	a2,fa0,fa1
     b84:	001028f3          	frflags	a7
     b88:	2ec7a423          	sw	a2,744(a5)
     b8c:	2f17a623          	sw	a7,748(a5)

00000b90 <inst_109>:
     b90:	36882507          	flw	fa0,872(a6)
     b94:	36c82587          	flw	fa1,876(a6)
     b98:	a0b51653          	flt.s	a2,fa0,fa1
     b9c:	001028f3          	frflags	a7
     ba0:	2ec7a823          	sw	a2,752(a5)
     ba4:	2f17aa23          	sw	a7,756(a5)

00000ba8 <inst_110>:
     ba8:	37082507          	flw	fa0,880(a6)
     bac:	37482587          	flw	fa1,884(a6)
     bb0:	a0b51653          	flt.s	a2,fa0,fa1
     bb4:	001028f3          	frflags	a7
     bb8:	2ec7ac23          	sw	a2,760(a5)
     bbc:	2f17ae23          	sw	a7,764(a5)

00000bc0 <inst_111>:
     bc0:	37882507          	flw	fa0,888(a6)
     bc4:	37c82587          	flw	fa1,892(a6)
     bc8:	a0b51653          	flt.s	a2,fa0,fa1
     bcc:	001028f3          	frflags	a7
     bd0:	30c7a023          	sw	a2,768(a5)
     bd4:	3117a223          	sw	a7,772(a5)

00000bd8 <inst_112>:
     bd8:	38082507          	flw	fa0,896(a6)
     bdc:	38482587          	flw	fa1,900(a6)
     be0:	a0b51653          	flt.s	a2,fa0,fa1
     be4:	001028f3          	frflags	a7
     be8:	30c7a423          	sw	a2,776(a5)
     bec:	3117a623          	sw	a7,780(a5)

00000bf0 <inst_113>:
     bf0:	38882507          	flw	fa0,904(a6)
     bf4:	38c82587          	flw	fa1,908(a6)
     bf8:	a0b51653          	flt.s	a2,fa0,fa1
     bfc:	001028f3          	frflags	a7
     c00:	30c7a823          	sw	a2,784(a5)
     c04:	3117aa23          	sw	a7,788(a5)

00000c08 <inst_114>:
     c08:	39082507          	flw	fa0,912(a6)
     c0c:	39482587          	flw	fa1,916(a6)
     c10:	a0b51653          	flt.s	a2,fa0,fa1
     c14:	001028f3          	frflags	a7
     c18:	30c7ac23          	sw	a2,792(a5)
     c1c:	3117ae23          	sw	a7,796(a5)

00000c20 <inst_115>:
     c20:	39882507          	flw	fa0,920(a6)
     c24:	39c82587          	flw	fa1,924(a6)
     c28:	a0b51653          	flt.s	a2,fa0,fa1
     c2c:	001028f3          	frflags	a7
     c30:	32c7a023          	sw	a2,800(a5)
     c34:	3317a223          	sw	a7,804(a5)

00000c38 <inst_116>:
     c38:	3a082507          	flw	fa0,928(a6)
     c3c:	3a482587          	flw	fa1,932(a6)
     c40:	a0b51653          	flt.s	a2,fa0,fa1
     c44:	001028f3          	frflags	a7
     c48:	32c7a423          	sw	a2,808(a5)
     c4c:	3317a623          	sw	a7,812(a5)

00000c50 <inst_117>:
     c50:	3a882507          	flw	fa0,936(a6)
     c54:	3ac82587          	flw	fa1,940(a6)
     c58:	a0b51653          	flt.s	a2,fa0,fa1
     c5c:	001028f3          	frflags	a7
     c60:	32c7a823          	sw	a2,816(a5)
     c64:	3317aa23          	sw	a7,820(a5)

00000c68 <inst_118>:
     c68:	3b082507          	flw	fa0,944(a6)
     c6c:	3b482587          	flw	fa1,948(a6)
     c70:	a0b51653          	flt.s	a2,fa0,fa1
     c74:	001028f3          	frflags	a7
     c78:	32c7ac23          	sw	a2,824(a5)
     c7c:	3317ae23          	sw	a7,828(a5)

00000c80 <inst_119>:
     c80:	3b882507          	flw	fa0,952(a6)
     c84:	3bc82587          	flw	fa1,956(a6)
     c88:	a0b51653          	flt.s	a2,fa0,fa1
     c8c:	001028f3          	frflags	a7
     c90:	34c7a023          	sw	a2,832(a5)
     c94:	3517a223          	sw	a7,836(a5)

00000c98 <inst_120>:
     c98:	3c082507          	flw	fa0,960(a6)
     c9c:	3c482587          	flw	fa1,964(a6)
     ca0:	a0b51653          	flt.s	a2,fa0,fa1
     ca4:	001028f3          	frflags	a7
     ca8:	34c7a423          	sw	a2,840(a5)
     cac:	3517a623          	sw	a7,844(a5)

00000cb0 <inst_121>:
     cb0:	3c882507          	flw	fa0,968(a6)
     cb4:	3cc82587          	flw	fa1,972(a6)
     cb8:	a0b51653          	flt.s	a2,fa0,fa1
     cbc:	001028f3          	frflags	a7
     cc0:	34c7a823          	sw	a2,848(a5)
     cc4:	3517aa23          	sw	a7,852(a5)

00000cc8 <inst_122>:
     cc8:	3d082507          	flw	fa0,976(a6)
     ccc:	3d482587          	flw	fa1,980(a6)
     cd0:	a0b51653          	flt.s	a2,fa0,fa1
     cd4:	001028f3          	frflags	a7
     cd8:	34c7ac23          	sw	a2,856(a5)
     cdc:	3517ae23          	sw	a7,860(a5)

00000ce0 <inst_123>:
     ce0:	3d882507          	flw	fa0,984(a6)
     ce4:	3dc82587          	flw	fa1,988(a6)
     ce8:	a0b51653          	flt.s	a2,fa0,fa1
     cec:	001028f3          	frflags	a7
     cf0:	36c7a023          	sw	a2,864(a5)
     cf4:	3717a223          	sw	a7,868(a5)

00000cf8 <inst_124>:
     cf8:	3e082507          	flw	fa0,992(a6)
     cfc:	3e482587          	flw	fa1,996(a6)
     d00:	a0b51653          	flt.s	a2,fa0,fa1
     d04:	001028f3          	frflags	a7
     d08:	36c7a423          	sw	a2,872(a5)
     d0c:	3717a623          	sw	a7,876(a5)

00000d10 <inst_125>:
     d10:	3e882507          	flw	fa0,1000(a6)
     d14:	3ec82587          	flw	fa1,1004(a6)
     d18:	a0b51653          	flt.s	a2,fa0,fa1
     d1c:	001028f3          	frflags	a7
     d20:	36c7a823          	sw	a2,880(a5)
     d24:	3717aa23          	sw	a7,884(a5)

00000d28 <inst_126>:
     d28:	3f082507          	flw	fa0,1008(a6)
     d2c:	3f482587          	flw	fa1,1012(a6)
     d30:	a0b51653          	flt.s	a2,fa0,fa1
     d34:	001028f3          	frflags	a7
     d38:	36c7ac23          	sw	a2,888(a5)
     d3c:	3717ae23          	sw	a7,892(a5)

00000d40 <inst_127>:
     d40:	3f882507          	flw	fa0,1016(a6)
     d44:	3fc82587          	flw	fa1,1020(a6)
     d48:	a0b51653          	flt.s	a2,fa0,fa1
     d4c:	001028f3          	frflags	a7
     d50:	38c7a023          	sw	a2,896(a5)
     d54:	3917a223          	sw	a7,900(a5)

00000d58 <inst_128>:
     d58:	40082507          	flw	fa0,1024(a6)
     d5c:	40482587          	flw	fa1,1028(a6)
     d60:	a0b51653          	flt.s	a2,fa0,fa1
     d64:	001028f3          	frflags	a7
     d68:	38c7a423          	sw	a2,904(a5)
     d6c:	3917a623          	sw	a7,908(a5)

00000d70 <inst_129>:
     d70:	40882507          	flw	fa0,1032(a6)
     d74:	40c82587          	flw	fa1,1036(a6)
     d78:	a0b51653          	flt.s	a2,fa0,fa1
     d7c:	001028f3          	frflags	a7
     d80:	38c7a823          	sw	a2,912(a5)
     d84:	3917aa23          	sw	a7,916(a5)

00000d88 <inst_130>:
     d88:	41082507          	flw	fa0,1040(a6)
     d8c:	41482587          	flw	fa1,1044(a6)
     d90:	a0b51653          	flt.s	a2,fa0,fa1
     d94:	001028f3          	frflags	a7
     d98:	38c7ac23          	sw	a2,920(a5)
     d9c:	3917ae23          	sw	a7,924(a5)

00000da0 <inst_131>:
     da0:	41882507          	flw	fa0,1048(a6)
     da4:	41c82587          	flw	fa1,1052(a6)
     da8:	a0b51653          	flt.s	a2,fa0,fa1
     dac:	001028f3          	frflags	a7
     db0:	3ac7a023          	sw	a2,928(a5)
     db4:	3b17a223          	sw	a7,932(a5)

00000db8 <inst_132>:
     db8:	42082507          	flw	fa0,1056(a6)
     dbc:	42482587          	flw	fa1,1060(a6)
     dc0:	a0b51653          	flt.s	a2,fa0,fa1
     dc4:	001028f3          	frflags	a7
     dc8:	3ac7a423          	sw	a2,936(a5)
     dcc:	3b17a623          	sw	a7,940(a5)

00000dd0 <inst_133>:
     dd0:	42882507          	flw	fa0,1064(a6)
     dd4:	42c82587          	flw	fa1,1068(a6)
     dd8:	a0b51653          	flt.s	a2,fa0,fa1
     ddc:	001028f3          	frflags	a7
     de0:	3ac7a823          	sw	a2,944(a5)
     de4:	3b17aa23          	sw	a7,948(a5)

00000de8 <inst_134>:
     de8:	43082507          	flw	fa0,1072(a6)
     dec:	43482587          	flw	fa1,1076(a6)
     df0:	a0b51653          	flt.s	a2,fa0,fa1
     df4:	001028f3          	frflags	a7
     df8:	3ac7ac23          	sw	a2,952(a5)
     dfc:	3b17ae23          	sw	a7,956(a5)

00000e00 <inst_135>:
     e00:	43882507          	flw	fa0,1080(a6)
     e04:	43c82587          	flw	fa1,1084(a6)
     e08:	a0b51653          	flt.s	a2,fa0,fa1
     e0c:	001028f3          	frflags	a7
     e10:	3cc7a023          	sw	a2,960(a5)
     e14:	3d17a223          	sw	a7,964(a5)

00000e18 <inst_136>:
     e18:	44082507          	flw	fa0,1088(a6)
     e1c:	44482587          	flw	fa1,1092(a6)
     e20:	a0b51653          	flt.s	a2,fa0,fa1
     e24:	001028f3          	frflags	a7
     e28:	3cc7a423          	sw	a2,968(a5)
     e2c:	3d17a623          	sw	a7,972(a5)

00000e30 <inst_137>:
     e30:	44882507          	flw	fa0,1096(a6)
     e34:	44c82587          	flw	fa1,1100(a6)
     e38:	a0b51653          	flt.s	a2,fa0,fa1
     e3c:	001028f3          	frflags	a7
     e40:	3cc7a823          	sw	a2,976(a5)
     e44:	3d17aa23          	sw	a7,980(a5)

00000e48 <inst_138>:
     e48:	45082507          	flw	fa0,1104(a6)
     e4c:	45482587          	flw	fa1,1108(a6)
     e50:	a0b51653          	flt.s	a2,fa0,fa1
     e54:	001028f3          	frflags	a7
     e58:	3cc7ac23          	sw	a2,984(a5)
     e5c:	3d17ae23          	sw	a7,988(a5)

00000e60 <inst_139>:
     e60:	45882507          	flw	fa0,1112(a6)
     e64:	45c82587          	flw	fa1,1116(a6)
     e68:	a0b51653          	flt.s	a2,fa0,fa1
     e6c:	001028f3          	frflags	a7
     e70:	3ec7a023          	sw	a2,992(a5)
     e74:	3f17a223          	sw	a7,996(a5)

00000e78 <inst_140>:
     e78:	46082507          	flw	fa0,1120(a6)
     e7c:	46482587          	flw	fa1,1124(a6)
     e80:	a0b51653          	flt.s	a2,fa0,fa1
     e84:	001028f3          	frflags	a7
     e88:	3ec7a423          	sw	a2,1000(a5)
     e8c:	3f17a623          	sw	a7,1004(a5)

00000e90 <inst_141>:
     e90:	46882507          	flw	fa0,1128(a6)
     e94:	46c82587          	flw	fa1,1132(a6)
     e98:	a0b51653          	flt.s	a2,fa0,fa1
     e9c:	001028f3          	frflags	a7
     ea0:	3ec7a823          	sw	a2,1008(a5)
     ea4:	3f17aa23          	sw	a7,1012(a5)

00000ea8 <inst_142>:
     ea8:	47082507          	flw	fa0,1136(a6)
     eac:	47482587          	flw	fa1,1140(a6)
     eb0:	a0b51653          	flt.s	a2,fa0,fa1
     eb4:	001028f3          	frflags	a7
     eb8:	3ec7ac23          	sw	a2,1016(a5)
     ebc:	3f17ae23          	sw	a7,1020(a5)

00000ec0 <inst_143>:
     ec0:	47882507          	flw	fa0,1144(a6)
     ec4:	47c82587          	flw	fa1,1148(a6)
     ec8:	a0b51653          	flt.s	a2,fa0,fa1
     ecc:	001028f3          	frflags	a7
     ed0:	40c7a023          	sw	a2,1024(a5)
     ed4:	4117a223          	sw	a7,1028(a5)

00000ed8 <inst_144>:
     ed8:	48082507          	flw	fa0,1152(a6)
     edc:	48482587          	flw	fa1,1156(a6)
     ee0:	a0b51653          	flt.s	a2,fa0,fa1
     ee4:	001028f3          	frflags	a7
     ee8:	40c7a423          	sw	a2,1032(a5)
     eec:	4117a623          	sw	a7,1036(a5)

00000ef0 <inst_145>:
     ef0:	48882507          	flw	fa0,1160(a6)
     ef4:	48c82587          	flw	fa1,1164(a6)
     ef8:	a0b51653          	flt.s	a2,fa0,fa1
     efc:	001028f3          	frflags	a7
     f00:	40c7a823          	sw	a2,1040(a5)
     f04:	4117aa23          	sw	a7,1044(a5)

00000f08 <inst_146>:
     f08:	49082507          	flw	fa0,1168(a6)
     f0c:	49482587          	flw	fa1,1172(a6)
     f10:	a0b51653          	flt.s	a2,fa0,fa1
     f14:	001028f3          	frflags	a7
     f18:	40c7ac23          	sw	a2,1048(a5)
     f1c:	4117ae23          	sw	a7,1052(a5)

00000f20 <inst_147>:
     f20:	49882507          	flw	fa0,1176(a6)
     f24:	49c82587          	flw	fa1,1180(a6)
     f28:	a0b51653          	flt.s	a2,fa0,fa1
     f2c:	001028f3          	frflags	a7
     f30:	42c7a023          	sw	a2,1056(a5)
     f34:	4317a223          	sw	a7,1060(a5)

00000f38 <inst_148>:
     f38:	4a082507          	flw	fa0,1184(a6)
     f3c:	4a482587          	flw	fa1,1188(a6)
     f40:	a0b51653          	flt.s	a2,fa0,fa1
     f44:	001028f3          	frflags	a7
     f48:	42c7a423          	sw	a2,1064(a5)
     f4c:	4317a623          	sw	a7,1068(a5)

00000f50 <inst_149>:
     f50:	4a882507          	flw	fa0,1192(a6)
     f54:	4ac82587          	flw	fa1,1196(a6)
     f58:	a0b51653          	flt.s	a2,fa0,fa1
     f5c:	001028f3          	frflags	a7
     f60:	42c7a823          	sw	a2,1072(a5)
     f64:	4317aa23          	sw	a7,1076(a5)

00000f68 <inst_150>:
     f68:	4b082507          	flw	fa0,1200(a6)
     f6c:	4b482587          	flw	fa1,1204(a6)
     f70:	a0b51653          	flt.s	a2,fa0,fa1
     f74:	001028f3          	frflags	a7
     f78:	42c7ac23          	sw	a2,1080(a5)
     f7c:	4317ae23          	sw	a7,1084(a5)

00000f80 <inst_151>:
     f80:	4b882507          	flw	fa0,1208(a6)
     f84:	4bc82587          	flw	fa1,1212(a6)
     f88:	a0b51653          	flt.s	a2,fa0,fa1
     f8c:	001028f3          	frflags	a7
     f90:	44c7a023          	sw	a2,1088(a5)
     f94:	4517a223          	sw	a7,1092(a5)

00000f98 <inst_152>:
     f98:	4c082507          	flw	fa0,1216(a6)
     f9c:	4c482587          	flw	fa1,1220(a6)
     fa0:	a0b51653          	flt.s	a2,fa0,fa1
     fa4:	001028f3          	frflags	a7
     fa8:	44c7a423          	sw	a2,1096(a5)
     fac:	4517a623          	sw	a7,1100(a5)

00000fb0 <inst_153>:
     fb0:	4c882507          	flw	fa0,1224(a6)
     fb4:	4cc82587          	flw	fa1,1228(a6)
     fb8:	a0b51653          	flt.s	a2,fa0,fa1
     fbc:	001028f3          	frflags	a7
     fc0:	44c7a823          	sw	a2,1104(a5)
     fc4:	4517aa23          	sw	a7,1108(a5)

00000fc8 <inst_154>:
     fc8:	4d082507          	flw	fa0,1232(a6)
     fcc:	4d482587          	flw	fa1,1236(a6)
     fd0:	a0b51653          	flt.s	a2,fa0,fa1
     fd4:	001028f3          	frflags	a7
     fd8:	44c7ac23          	sw	a2,1112(a5)
     fdc:	4517ae23          	sw	a7,1116(a5)

00000fe0 <inst_155>:
     fe0:	4d882507          	flw	fa0,1240(a6)
     fe4:	4dc82587          	flw	fa1,1244(a6)
     fe8:	a0b51653          	flt.s	a2,fa0,fa1
     fec:	001028f3          	frflags	a7
     ff0:	46c7a023          	sw	a2,1120(a5)
     ff4:	4717a223          	sw	a7,1124(a5)

00000ff8 <inst_156>:
     ff8:	4e082507          	flw	fa0,1248(a6)
     ffc:	4e482587          	flw	fa1,1252(a6)
    1000:	a0b51653          	flt.s	a2,fa0,fa1
    1004:	001028f3          	frflags	a7
    1008:	46c7a423          	sw	a2,1128(a5)
    100c:	4717a623          	sw	a7,1132(a5)

00001010 <inst_157>:
    1010:	4e882507          	flw	fa0,1256(a6)
    1014:	4ec82587          	flw	fa1,1260(a6)
    1018:	a0b51653          	flt.s	a2,fa0,fa1
    101c:	001028f3          	frflags	a7
    1020:	46c7a823          	sw	a2,1136(a5)
    1024:	4717aa23          	sw	a7,1140(a5)

00001028 <inst_158>:
    1028:	4f082507          	flw	fa0,1264(a6)
    102c:	4f482587          	flw	fa1,1268(a6)
    1030:	a0b51653          	flt.s	a2,fa0,fa1
    1034:	001028f3          	frflags	a7
    1038:	46c7ac23          	sw	a2,1144(a5)
    103c:	4717ae23          	sw	a7,1148(a5)

00001040 <inst_159>:
    1040:	4f882507          	flw	fa0,1272(a6)
    1044:	4fc82587          	flw	fa1,1276(a6)
    1048:	a0b51653          	flt.s	a2,fa0,fa1
    104c:	001028f3          	frflags	a7
    1050:	48c7a023          	sw	a2,1152(a5)
    1054:	4917a223          	sw	a7,1156(a5)

00001058 <inst_160>:
    1058:	50082507          	flw	fa0,1280(a6)
    105c:	50482587          	flw	fa1,1284(a6)
    1060:	a0b51653          	flt.s	a2,fa0,fa1
    1064:	001028f3          	frflags	a7
    1068:	48c7a423          	sw	a2,1160(a5)
    106c:	4917a623          	sw	a7,1164(a5)

00001070 <inst_161>:
    1070:	50882507          	flw	fa0,1288(a6)
    1074:	50c82587          	flw	fa1,1292(a6)
    1078:	a0b51653          	flt.s	a2,fa0,fa1
    107c:	001028f3          	frflags	a7
    1080:	48c7a823          	sw	a2,1168(a5)
    1084:	4917aa23          	sw	a7,1172(a5)

00001088 <inst_162>:
    1088:	51082507          	flw	fa0,1296(a6)
    108c:	51482587          	flw	fa1,1300(a6)
    1090:	a0b51653          	flt.s	a2,fa0,fa1
    1094:	001028f3          	frflags	a7
    1098:	48c7ac23          	sw	a2,1176(a5)
    109c:	4917ae23          	sw	a7,1180(a5)

000010a0 <inst_163>:
    10a0:	51882507          	flw	fa0,1304(a6)
    10a4:	51c82587          	flw	fa1,1308(a6)
    10a8:	a0b51653          	flt.s	a2,fa0,fa1
    10ac:	001028f3          	frflags	a7
    10b0:	4ac7a023          	sw	a2,1184(a5)
    10b4:	4b17a223          	sw	a7,1188(a5)

000010b8 <inst_164>:
    10b8:	52082507          	flw	fa0,1312(a6)
    10bc:	52482587          	flw	fa1,1316(a6)
    10c0:	a0b51653          	flt.s	a2,fa0,fa1
    10c4:	001028f3          	frflags	a7
    10c8:	4ac7a423          	sw	a2,1192(a5)
    10cc:	4b17a623          	sw	a7,1196(a5)

000010d0 <inst_165>:
    10d0:	52882507          	flw	fa0,1320(a6)
    10d4:	52c82587          	flw	fa1,1324(a6)
    10d8:	a0b51653          	flt.s	a2,fa0,fa1
    10dc:	001028f3          	frflags	a7
    10e0:	4ac7a823          	sw	a2,1200(a5)
    10e4:	4b17aa23          	sw	a7,1204(a5)

000010e8 <inst_166>:
    10e8:	53082507          	flw	fa0,1328(a6)
    10ec:	53482587          	flw	fa1,1332(a6)
    10f0:	a0b51653          	flt.s	a2,fa0,fa1
    10f4:	001028f3          	frflags	a7
    10f8:	4ac7ac23          	sw	a2,1208(a5)
    10fc:	4b17ae23          	sw	a7,1212(a5)

00001100 <inst_167>:
    1100:	53882507          	flw	fa0,1336(a6)
    1104:	53c82587          	flw	fa1,1340(a6)
    1108:	a0b51653          	flt.s	a2,fa0,fa1
    110c:	001028f3          	frflags	a7
    1110:	4cc7a023          	sw	a2,1216(a5)
    1114:	4d17a223          	sw	a7,1220(a5)

00001118 <inst_168>:
    1118:	54082507          	flw	fa0,1344(a6)
    111c:	54482587          	flw	fa1,1348(a6)
    1120:	a0b51653          	flt.s	a2,fa0,fa1
    1124:	001028f3          	frflags	a7
    1128:	4cc7a423          	sw	a2,1224(a5)
    112c:	4d17a623          	sw	a7,1228(a5)

00001130 <inst_169>:
    1130:	54882507          	flw	fa0,1352(a6)
    1134:	54c82587          	flw	fa1,1356(a6)
    1138:	a0b51653          	flt.s	a2,fa0,fa1
    113c:	001028f3          	frflags	a7
    1140:	4cc7a823          	sw	a2,1232(a5)
    1144:	4d17aa23          	sw	a7,1236(a5)

00001148 <inst_170>:
    1148:	55082507          	flw	fa0,1360(a6)
    114c:	55482587          	flw	fa1,1364(a6)
    1150:	a0b51653          	flt.s	a2,fa0,fa1
    1154:	001028f3          	frflags	a7
    1158:	4cc7ac23          	sw	a2,1240(a5)
    115c:	4d17ae23          	sw	a7,1244(a5)

00001160 <inst_171>:
    1160:	55882507          	flw	fa0,1368(a6)
    1164:	55c82587          	flw	fa1,1372(a6)
    1168:	a0b51653          	flt.s	a2,fa0,fa1
    116c:	001028f3          	frflags	a7
    1170:	4ec7a023          	sw	a2,1248(a5)
    1174:	4f17a223          	sw	a7,1252(a5)

00001178 <inst_172>:
    1178:	56082507          	flw	fa0,1376(a6)
    117c:	56482587          	flw	fa1,1380(a6)
    1180:	a0b51653          	flt.s	a2,fa0,fa1
    1184:	001028f3          	frflags	a7
    1188:	4ec7a423          	sw	a2,1256(a5)
    118c:	4f17a623          	sw	a7,1260(a5)

00001190 <inst_173>:
    1190:	56882507          	flw	fa0,1384(a6)
    1194:	56c82587          	flw	fa1,1388(a6)
    1198:	a0b51653          	flt.s	a2,fa0,fa1
    119c:	001028f3          	frflags	a7
    11a0:	4ec7a823          	sw	a2,1264(a5)
    11a4:	4f17aa23          	sw	a7,1268(a5)

000011a8 <inst_174>:
    11a8:	57082507          	flw	fa0,1392(a6)
    11ac:	57482587          	flw	fa1,1396(a6)
    11b0:	a0b51653          	flt.s	a2,fa0,fa1
    11b4:	001028f3          	frflags	a7
    11b8:	4ec7ac23          	sw	a2,1272(a5)
    11bc:	4f17ae23          	sw	a7,1276(a5)

000011c0 <inst_175>:
    11c0:	57882507          	flw	fa0,1400(a6)
    11c4:	57c82587          	flw	fa1,1404(a6)
    11c8:	a0b51653          	flt.s	a2,fa0,fa1
    11cc:	001028f3          	frflags	a7
    11d0:	50c7a023          	sw	a2,1280(a5)
    11d4:	5117a223          	sw	a7,1284(a5)

000011d8 <inst_176>:
    11d8:	58082507          	flw	fa0,1408(a6)
    11dc:	58482587          	flw	fa1,1412(a6)
    11e0:	a0b51653          	flt.s	a2,fa0,fa1
    11e4:	001028f3          	frflags	a7
    11e8:	50c7a423          	sw	a2,1288(a5)
    11ec:	5117a623          	sw	a7,1292(a5)

000011f0 <inst_177>:
    11f0:	58882507          	flw	fa0,1416(a6)
    11f4:	58c82587          	flw	fa1,1420(a6)
    11f8:	a0b51653          	flt.s	a2,fa0,fa1
    11fc:	001028f3          	frflags	a7
    1200:	50c7a823          	sw	a2,1296(a5)
    1204:	5117aa23          	sw	a7,1300(a5)

00001208 <inst_178>:
    1208:	59082507          	flw	fa0,1424(a6)
    120c:	59482587          	flw	fa1,1428(a6)
    1210:	a0b51653          	flt.s	a2,fa0,fa1
    1214:	001028f3          	frflags	a7
    1218:	50c7ac23          	sw	a2,1304(a5)
    121c:	5117ae23          	sw	a7,1308(a5)

00001220 <inst_179>:
    1220:	59882507          	flw	fa0,1432(a6)
    1224:	59c82587          	flw	fa1,1436(a6)
    1228:	a0b51653          	flt.s	a2,fa0,fa1
    122c:	001028f3          	frflags	a7
    1230:	52c7a023          	sw	a2,1312(a5)
    1234:	5317a223          	sw	a7,1316(a5)

00001238 <inst_180>:
    1238:	5a082507          	flw	fa0,1440(a6)
    123c:	5a482587          	flw	fa1,1444(a6)
    1240:	a0b51653          	flt.s	a2,fa0,fa1
    1244:	001028f3          	frflags	a7
    1248:	52c7a423          	sw	a2,1320(a5)
    124c:	5317a623          	sw	a7,1324(a5)

00001250 <inst_181>:
    1250:	5a882507          	flw	fa0,1448(a6)
    1254:	5ac82587          	flw	fa1,1452(a6)
    1258:	a0b51653          	flt.s	a2,fa0,fa1
    125c:	001028f3          	frflags	a7
    1260:	52c7a823          	sw	a2,1328(a5)
    1264:	5317aa23          	sw	a7,1332(a5)

00001268 <inst_182>:
    1268:	5b082507          	flw	fa0,1456(a6)
    126c:	5b482587          	flw	fa1,1460(a6)
    1270:	a0b51653          	flt.s	a2,fa0,fa1
    1274:	001028f3          	frflags	a7
    1278:	52c7ac23          	sw	a2,1336(a5)
    127c:	5317ae23          	sw	a7,1340(a5)

00001280 <inst_183>:
    1280:	5b882507          	flw	fa0,1464(a6)
    1284:	5bc82587          	flw	fa1,1468(a6)
    1288:	a0b51653          	flt.s	a2,fa0,fa1
    128c:	001028f3          	frflags	a7
    1290:	54c7a023          	sw	a2,1344(a5)
    1294:	5517a223          	sw	a7,1348(a5)

00001298 <inst_184>:
    1298:	5c082507          	flw	fa0,1472(a6)
    129c:	5c482587          	flw	fa1,1476(a6)
    12a0:	a0b51653          	flt.s	a2,fa0,fa1
    12a4:	001028f3          	frflags	a7
    12a8:	54c7a423          	sw	a2,1352(a5)
    12ac:	5517a623          	sw	a7,1356(a5)

000012b0 <inst_185>:
    12b0:	5c882507          	flw	fa0,1480(a6)
    12b4:	5cc82587          	flw	fa1,1484(a6)
    12b8:	a0b51653          	flt.s	a2,fa0,fa1
    12bc:	001028f3          	frflags	a7
    12c0:	54c7a823          	sw	a2,1360(a5)
    12c4:	5517aa23          	sw	a7,1364(a5)

000012c8 <inst_186>:
    12c8:	5d082507          	flw	fa0,1488(a6)
    12cc:	5d482587          	flw	fa1,1492(a6)
    12d0:	a0b51653          	flt.s	a2,fa0,fa1
    12d4:	001028f3          	frflags	a7
    12d8:	54c7ac23          	sw	a2,1368(a5)
    12dc:	5517ae23          	sw	a7,1372(a5)

000012e0 <inst_187>:
    12e0:	5d882507          	flw	fa0,1496(a6)
    12e4:	5dc82587          	flw	fa1,1500(a6)
    12e8:	a0b51653          	flt.s	a2,fa0,fa1
    12ec:	001028f3          	frflags	a7
    12f0:	56c7a023          	sw	a2,1376(a5)
    12f4:	5717a223          	sw	a7,1380(a5)

000012f8 <inst_188>:
    12f8:	5e082507          	flw	fa0,1504(a6)
    12fc:	5e482587          	flw	fa1,1508(a6)
    1300:	a0b51653          	flt.s	a2,fa0,fa1
    1304:	001028f3          	frflags	a7
    1308:	56c7a423          	sw	a2,1384(a5)
    130c:	5717a623          	sw	a7,1388(a5)

00001310 <inst_189>:
    1310:	5e882507          	flw	fa0,1512(a6)
    1314:	5ec82587          	flw	fa1,1516(a6)
    1318:	a0b51653          	flt.s	a2,fa0,fa1
    131c:	001028f3          	frflags	a7
    1320:	56c7a823          	sw	a2,1392(a5)
    1324:	5717aa23          	sw	a7,1396(a5)

00001328 <inst_190>:
    1328:	5f082507          	flw	fa0,1520(a6)
    132c:	5f482587          	flw	fa1,1524(a6)
    1330:	a0b51653          	flt.s	a2,fa0,fa1
    1334:	001028f3          	frflags	a7
    1338:	56c7ac23          	sw	a2,1400(a5)
    133c:	5717ae23          	sw	a7,1404(a5)

00001340 <inst_191>:
    1340:	5f882507          	flw	fa0,1528(a6)
    1344:	5fc82587          	flw	fa1,1532(a6)
    1348:	a0b51653          	flt.s	a2,fa0,fa1
    134c:	001028f3          	frflags	a7
    1350:	58c7a023          	sw	a2,1408(a5)
    1354:	5917a223          	sw	a7,1412(a5)

00001358 <inst_192>:
    1358:	60082507          	flw	fa0,1536(a6)
    135c:	60482587          	flw	fa1,1540(a6)
    1360:	a0b51653          	flt.s	a2,fa0,fa1
    1364:	001028f3          	frflags	a7
    1368:	58c7a423          	sw	a2,1416(a5)
    136c:	5917a623          	sw	a7,1420(a5)

00001370 <inst_193>:
    1370:	60882507          	flw	fa0,1544(a6)
    1374:	60c82587          	flw	fa1,1548(a6)
    1378:	a0b51653          	flt.s	a2,fa0,fa1
    137c:	001028f3          	frflags	a7
    1380:	58c7a823          	sw	a2,1424(a5)
    1384:	5917aa23          	sw	a7,1428(a5)

00001388 <inst_194>:
    1388:	61082507          	flw	fa0,1552(a6)
    138c:	61482587          	flw	fa1,1556(a6)
    1390:	a0b51653          	flt.s	a2,fa0,fa1
    1394:	001028f3          	frflags	a7
    1398:	58c7ac23          	sw	a2,1432(a5)
    139c:	5917ae23          	sw	a7,1436(a5)

000013a0 <inst_195>:
    13a0:	61882507          	flw	fa0,1560(a6)
    13a4:	61c82587          	flw	fa1,1564(a6)
    13a8:	a0b51653          	flt.s	a2,fa0,fa1
    13ac:	001028f3          	frflags	a7
    13b0:	5ac7a023          	sw	a2,1440(a5)
    13b4:	5b17a223          	sw	a7,1444(a5)

000013b8 <inst_196>:
    13b8:	62082507          	flw	fa0,1568(a6)
    13bc:	62482587          	flw	fa1,1572(a6)
    13c0:	a0b51653          	flt.s	a2,fa0,fa1
    13c4:	001028f3          	frflags	a7
    13c8:	5ac7a423          	sw	a2,1448(a5)
    13cc:	5b17a623          	sw	a7,1452(a5)

000013d0 <inst_197>:
    13d0:	62882507          	flw	fa0,1576(a6)
    13d4:	62c82587          	flw	fa1,1580(a6)
    13d8:	a0b51653          	flt.s	a2,fa0,fa1
    13dc:	001028f3          	frflags	a7
    13e0:	5ac7a823          	sw	a2,1456(a5)
    13e4:	5b17aa23          	sw	a7,1460(a5)

000013e8 <inst_198>:
    13e8:	63082507          	flw	fa0,1584(a6)
    13ec:	63482587          	flw	fa1,1588(a6)
    13f0:	a0b51653          	flt.s	a2,fa0,fa1
    13f4:	001028f3          	frflags	a7
    13f8:	5ac7ac23          	sw	a2,1464(a5)
    13fc:	5b17ae23          	sw	a7,1468(a5)

00001400 <inst_199>:
    1400:	63882507          	flw	fa0,1592(a6)
    1404:	63c82587          	flw	fa1,1596(a6)
    1408:	a0b51653          	flt.s	a2,fa0,fa1
    140c:	001028f3          	frflags	a7
    1410:	5cc7a023          	sw	a2,1472(a5)
    1414:	5d17a223          	sw	a7,1476(a5)

00001418 <inst_200>:
    1418:	64082507          	flw	fa0,1600(a6)
    141c:	64482587          	flw	fa1,1604(a6)
    1420:	a0b51653          	flt.s	a2,fa0,fa1
    1424:	001028f3          	frflags	a7
    1428:	5cc7a423          	sw	a2,1480(a5)
    142c:	5d17a623          	sw	a7,1484(a5)

00001430 <inst_201>:
    1430:	64882507          	flw	fa0,1608(a6)
    1434:	64c82587          	flw	fa1,1612(a6)
    1438:	a0b51653          	flt.s	a2,fa0,fa1
    143c:	001028f3          	frflags	a7
    1440:	5cc7a823          	sw	a2,1488(a5)
    1444:	5d17aa23          	sw	a7,1492(a5)

00001448 <inst_202>:
    1448:	65082507          	flw	fa0,1616(a6)
    144c:	65482587          	flw	fa1,1620(a6)
    1450:	a0b51653          	flt.s	a2,fa0,fa1
    1454:	001028f3          	frflags	a7
    1458:	5cc7ac23          	sw	a2,1496(a5)
    145c:	5d17ae23          	sw	a7,1500(a5)

00001460 <inst_203>:
    1460:	65882507          	flw	fa0,1624(a6)
    1464:	65c82587          	flw	fa1,1628(a6)
    1468:	a0b51653          	flt.s	a2,fa0,fa1
    146c:	001028f3          	frflags	a7
    1470:	5ec7a023          	sw	a2,1504(a5)
    1474:	5f17a223          	sw	a7,1508(a5)

00001478 <inst_204>:
    1478:	66082507          	flw	fa0,1632(a6)
    147c:	66482587          	flw	fa1,1636(a6)
    1480:	a0b51653          	flt.s	a2,fa0,fa1
    1484:	001028f3          	frflags	a7
    1488:	5ec7a423          	sw	a2,1512(a5)
    148c:	5f17a623          	sw	a7,1516(a5)

00001490 <inst_205>:
    1490:	66882507          	flw	fa0,1640(a6)
    1494:	66c82587          	flw	fa1,1644(a6)
    1498:	a0b51653          	flt.s	a2,fa0,fa1
    149c:	001028f3          	frflags	a7
    14a0:	5ec7a823          	sw	a2,1520(a5)
    14a4:	5f17aa23          	sw	a7,1524(a5)

000014a8 <inst_206>:
    14a8:	67082507          	flw	fa0,1648(a6)
    14ac:	67482587          	flw	fa1,1652(a6)
    14b0:	a0b51653          	flt.s	a2,fa0,fa1
    14b4:	001028f3          	frflags	a7
    14b8:	5ec7ac23          	sw	a2,1528(a5)
    14bc:	5f17ae23          	sw	a7,1532(a5)

000014c0 <inst_207>:
    14c0:	67882507          	flw	fa0,1656(a6)
    14c4:	67c82587          	flw	fa1,1660(a6)
    14c8:	a0b51653          	flt.s	a2,fa0,fa1
    14cc:	001028f3          	frflags	a7
    14d0:	60c7a023          	sw	a2,1536(a5)
    14d4:	6117a223          	sw	a7,1540(a5)

000014d8 <inst_208>:
    14d8:	68082507          	flw	fa0,1664(a6)
    14dc:	68482587          	flw	fa1,1668(a6)
    14e0:	a0b51653          	flt.s	a2,fa0,fa1
    14e4:	001028f3          	frflags	a7
    14e8:	60c7a423          	sw	a2,1544(a5)
    14ec:	6117a623          	sw	a7,1548(a5)

000014f0 <inst_209>:
    14f0:	68882507          	flw	fa0,1672(a6)
    14f4:	68c82587          	flw	fa1,1676(a6)
    14f8:	a0b51653          	flt.s	a2,fa0,fa1
    14fc:	001028f3          	frflags	a7
    1500:	60c7a823          	sw	a2,1552(a5)
    1504:	6117aa23          	sw	a7,1556(a5)

00001508 <inst_210>:
    1508:	69082507          	flw	fa0,1680(a6)
    150c:	69482587          	flw	fa1,1684(a6)
    1510:	a0b51653          	flt.s	a2,fa0,fa1
    1514:	001028f3          	frflags	a7
    1518:	60c7ac23          	sw	a2,1560(a5)
    151c:	6117ae23          	sw	a7,1564(a5)

00001520 <inst_211>:
    1520:	69882507          	flw	fa0,1688(a6)
    1524:	69c82587          	flw	fa1,1692(a6)
    1528:	a0b51653          	flt.s	a2,fa0,fa1
    152c:	001028f3          	frflags	a7
    1530:	62c7a023          	sw	a2,1568(a5)
    1534:	6317a223          	sw	a7,1572(a5)

00001538 <inst_212>:
    1538:	6a082507          	flw	fa0,1696(a6)
    153c:	6a482587          	flw	fa1,1700(a6)
    1540:	a0b51653          	flt.s	a2,fa0,fa1
    1544:	001028f3          	frflags	a7
    1548:	62c7a423          	sw	a2,1576(a5)
    154c:	6317a623          	sw	a7,1580(a5)

00001550 <inst_213>:
    1550:	6a882507          	flw	fa0,1704(a6)
    1554:	6ac82587          	flw	fa1,1708(a6)
    1558:	a0b51653          	flt.s	a2,fa0,fa1
    155c:	001028f3          	frflags	a7
    1560:	62c7a823          	sw	a2,1584(a5)
    1564:	6317aa23          	sw	a7,1588(a5)

00001568 <inst_214>:
    1568:	6b082507          	flw	fa0,1712(a6)
    156c:	6b482587          	flw	fa1,1716(a6)
    1570:	a0b51653          	flt.s	a2,fa0,fa1
    1574:	001028f3          	frflags	a7
    1578:	62c7ac23          	sw	a2,1592(a5)
    157c:	6317ae23          	sw	a7,1596(a5)

00001580 <inst_215>:
    1580:	6b882507          	flw	fa0,1720(a6)
    1584:	6bc82587          	flw	fa1,1724(a6)
    1588:	a0b51653          	flt.s	a2,fa0,fa1
    158c:	001028f3          	frflags	a7
    1590:	64c7a023          	sw	a2,1600(a5)
    1594:	6517a223          	sw	a7,1604(a5)

00001598 <inst_216>:
    1598:	6c082507          	flw	fa0,1728(a6)
    159c:	6c482587          	flw	fa1,1732(a6)
    15a0:	a0b51653          	flt.s	a2,fa0,fa1
    15a4:	001028f3          	frflags	a7
    15a8:	64c7a423          	sw	a2,1608(a5)
    15ac:	6517a623          	sw	a7,1612(a5)

000015b0 <inst_217>:
    15b0:	6c882507          	flw	fa0,1736(a6)
    15b4:	6cc82587          	flw	fa1,1740(a6)
    15b8:	a0b51653          	flt.s	a2,fa0,fa1
    15bc:	001028f3          	frflags	a7
    15c0:	64c7a823          	sw	a2,1616(a5)
    15c4:	6517aa23          	sw	a7,1620(a5)

000015c8 <inst_218>:
    15c8:	6d082507          	flw	fa0,1744(a6)
    15cc:	6d482587          	flw	fa1,1748(a6)
    15d0:	a0b51653          	flt.s	a2,fa0,fa1
    15d4:	001028f3          	frflags	a7
    15d8:	64c7ac23          	sw	a2,1624(a5)
    15dc:	6517ae23          	sw	a7,1628(a5)

000015e0 <inst_219>:
    15e0:	6d882507          	flw	fa0,1752(a6)
    15e4:	6dc82587          	flw	fa1,1756(a6)
    15e8:	a0b51653          	flt.s	a2,fa0,fa1
    15ec:	001028f3          	frflags	a7
    15f0:	66c7a023          	sw	a2,1632(a5)
    15f4:	6717a223          	sw	a7,1636(a5)

000015f8 <inst_220>:
    15f8:	6e082507          	flw	fa0,1760(a6)
    15fc:	6e482587          	flw	fa1,1764(a6)
    1600:	a0b51653          	flt.s	a2,fa0,fa1
    1604:	001028f3          	frflags	a7
    1608:	66c7a423          	sw	a2,1640(a5)
    160c:	6717a623          	sw	a7,1644(a5)

00001610 <inst_221>:
    1610:	6e882507          	flw	fa0,1768(a6)
    1614:	6ec82587          	flw	fa1,1772(a6)
    1618:	a0b51653          	flt.s	a2,fa0,fa1
    161c:	001028f3          	frflags	a7
    1620:	66c7a823          	sw	a2,1648(a5)
    1624:	6717aa23          	sw	a7,1652(a5)

00001628 <inst_222>:
    1628:	6f082507          	flw	fa0,1776(a6)
    162c:	6f482587          	flw	fa1,1780(a6)
    1630:	a0b51653          	flt.s	a2,fa0,fa1
    1634:	001028f3          	frflags	a7
    1638:	66c7ac23          	sw	a2,1656(a5)
    163c:	6717ae23          	sw	a7,1660(a5)

00001640 <inst_223>:
    1640:	6f882507          	flw	fa0,1784(a6)
    1644:	6fc82587          	flw	fa1,1788(a6)
    1648:	a0b51653          	flt.s	a2,fa0,fa1
    164c:	001028f3          	frflags	a7
    1650:	68c7a023          	sw	a2,1664(a5)
    1654:	6917a223          	sw	a7,1668(a5)

00001658 <inst_224>:
    1658:	70082507          	flw	fa0,1792(a6)
    165c:	70482587          	flw	fa1,1796(a6)
    1660:	a0b51653          	flt.s	a2,fa0,fa1
    1664:	001028f3          	frflags	a7
    1668:	68c7a423          	sw	a2,1672(a5)
    166c:	6917a623          	sw	a7,1676(a5)

00001670 <inst_225>:
    1670:	70882507          	flw	fa0,1800(a6)
    1674:	70c82587          	flw	fa1,1804(a6)
    1678:	a0b51653          	flt.s	a2,fa0,fa1
    167c:	001028f3          	frflags	a7
    1680:	68c7a823          	sw	a2,1680(a5)
    1684:	6917aa23          	sw	a7,1684(a5)

00001688 <inst_226>:
    1688:	71082507          	flw	fa0,1808(a6)
    168c:	71482587          	flw	fa1,1812(a6)
    1690:	a0b51653          	flt.s	a2,fa0,fa1
    1694:	001028f3          	frflags	a7
    1698:	68c7ac23          	sw	a2,1688(a5)
    169c:	6917ae23          	sw	a7,1692(a5)

000016a0 <inst_227>:
    16a0:	71882507          	flw	fa0,1816(a6)
    16a4:	71c82587          	flw	fa1,1820(a6)
    16a8:	a0b51653          	flt.s	a2,fa0,fa1
    16ac:	001028f3          	frflags	a7
    16b0:	6ac7a023          	sw	a2,1696(a5)
    16b4:	6b17a223          	sw	a7,1700(a5)

000016b8 <inst_228>:
    16b8:	72082507          	flw	fa0,1824(a6)
    16bc:	72482587          	flw	fa1,1828(a6)
    16c0:	a0b51653          	flt.s	a2,fa0,fa1
    16c4:	001028f3          	frflags	a7
    16c8:	6ac7a423          	sw	a2,1704(a5)
    16cc:	6b17a623          	sw	a7,1708(a5)

000016d0 <inst_229>:
    16d0:	72882507          	flw	fa0,1832(a6)
    16d4:	72c82587          	flw	fa1,1836(a6)
    16d8:	a0b51653          	flt.s	a2,fa0,fa1
    16dc:	001028f3          	frflags	a7
    16e0:	6ac7a823          	sw	a2,1712(a5)
    16e4:	6b17aa23          	sw	a7,1716(a5)

000016e8 <inst_230>:
    16e8:	73082507          	flw	fa0,1840(a6)
    16ec:	73482587          	flw	fa1,1844(a6)
    16f0:	a0b51653          	flt.s	a2,fa0,fa1
    16f4:	001028f3          	frflags	a7
    16f8:	6ac7ac23          	sw	a2,1720(a5)
    16fc:	6b17ae23          	sw	a7,1724(a5)

00001700 <inst_231>:
    1700:	73882507          	flw	fa0,1848(a6)
    1704:	73c82587          	flw	fa1,1852(a6)
    1708:	a0b51653          	flt.s	a2,fa0,fa1
    170c:	001028f3          	frflags	a7
    1710:	6cc7a023          	sw	a2,1728(a5)
    1714:	6d17a223          	sw	a7,1732(a5)

00001718 <inst_232>:
    1718:	74082507          	flw	fa0,1856(a6)
    171c:	74482587          	flw	fa1,1860(a6)
    1720:	a0b51653          	flt.s	a2,fa0,fa1
    1724:	001028f3          	frflags	a7
    1728:	6cc7a423          	sw	a2,1736(a5)
    172c:	6d17a623          	sw	a7,1740(a5)

00001730 <inst_233>:
    1730:	74882507          	flw	fa0,1864(a6)
    1734:	74c82587          	flw	fa1,1868(a6)
    1738:	a0b51653          	flt.s	a2,fa0,fa1
    173c:	001028f3          	frflags	a7
    1740:	6cc7a823          	sw	a2,1744(a5)
    1744:	6d17aa23          	sw	a7,1748(a5)

00001748 <inst_234>:
    1748:	75082507          	flw	fa0,1872(a6)
    174c:	75482587          	flw	fa1,1876(a6)
    1750:	a0b51653          	flt.s	a2,fa0,fa1
    1754:	001028f3          	frflags	a7
    1758:	6cc7ac23          	sw	a2,1752(a5)
    175c:	6d17ae23          	sw	a7,1756(a5)

00001760 <inst_235>:
    1760:	75882507          	flw	fa0,1880(a6)
    1764:	75c82587          	flw	fa1,1884(a6)
    1768:	a0b51653          	flt.s	a2,fa0,fa1
    176c:	001028f3          	frflags	a7
    1770:	6ec7a023          	sw	a2,1760(a5)
    1774:	6f17a223          	sw	a7,1764(a5)

00001778 <inst_236>:
    1778:	76082507          	flw	fa0,1888(a6)
    177c:	76482587          	flw	fa1,1892(a6)
    1780:	a0b51653          	flt.s	a2,fa0,fa1
    1784:	001028f3          	frflags	a7
    1788:	6ec7a423          	sw	a2,1768(a5)
    178c:	6f17a623          	sw	a7,1772(a5)

00001790 <inst_237>:
    1790:	76882507          	flw	fa0,1896(a6)
    1794:	76c82587          	flw	fa1,1900(a6)
    1798:	a0b51653          	flt.s	a2,fa0,fa1
    179c:	001028f3          	frflags	a7
    17a0:	6ec7a823          	sw	a2,1776(a5)
    17a4:	6f17aa23          	sw	a7,1780(a5)

000017a8 <inst_238>:
    17a8:	77082507          	flw	fa0,1904(a6)
    17ac:	77482587          	flw	fa1,1908(a6)
    17b0:	a0b51653          	flt.s	a2,fa0,fa1
    17b4:	001028f3          	frflags	a7
    17b8:	6ec7ac23          	sw	a2,1784(a5)
    17bc:	6f17ae23          	sw	a7,1788(a5)

000017c0 <inst_239>:
    17c0:	77882507          	flw	fa0,1912(a6)
    17c4:	77c82587          	flw	fa1,1916(a6)
    17c8:	a0b51653          	flt.s	a2,fa0,fa1
    17cc:	001028f3          	frflags	a7
    17d0:	70c7a023          	sw	a2,1792(a5)
    17d4:	7117a223          	sw	a7,1796(a5)

000017d8 <inst_240>:
    17d8:	78082507          	flw	fa0,1920(a6)
    17dc:	78482587          	flw	fa1,1924(a6)
    17e0:	a0b51653          	flt.s	a2,fa0,fa1
    17e4:	001028f3          	frflags	a7
    17e8:	70c7a423          	sw	a2,1800(a5)
    17ec:	7117a623          	sw	a7,1804(a5)

000017f0 <inst_241>:
    17f0:	78882507          	flw	fa0,1928(a6)
    17f4:	78c82587          	flw	fa1,1932(a6)
    17f8:	a0b51653          	flt.s	a2,fa0,fa1
    17fc:	001028f3          	frflags	a7
    1800:	70c7a823          	sw	a2,1808(a5)
    1804:	7117aa23          	sw	a7,1812(a5)

00001808 <inst_242>:
    1808:	79082507          	flw	fa0,1936(a6)
    180c:	79482587          	flw	fa1,1940(a6)
    1810:	a0b51653          	flt.s	a2,fa0,fa1
    1814:	001028f3          	frflags	a7
    1818:	70c7ac23          	sw	a2,1816(a5)
    181c:	7117ae23          	sw	a7,1820(a5)

00001820 <inst_243>:
    1820:	79882507          	flw	fa0,1944(a6)
    1824:	79c82587          	flw	fa1,1948(a6)
    1828:	a0b51653          	flt.s	a2,fa0,fa1
    182c:	001028f3          	frflags	a7
    1830:	72c7a023          	sw	a2,1824(a5)
    1834:	7317a223          	sw	a7,1828(a5)

00001838 <inst_244>:
    1838:	7a082507          	flw	fa0,1952(a6)
    183c:	7a482587          	flw	fa1,1956(a6)
    1840:	a0b51653          	flt.s	a2,fa0,fa1
    1844:	001028f3          	frflags	a7
    1848:	72c7a423          	sw	a2,1832(a5)
    184c:	7317a623          	sw	a7,1836(a5)

00001850 <inst_245>:
    1850:	7a882507          	flw	fa0,1960(a6)
    1854:	7ac82587          	flw	fa1,1964(a6)
    1858:	a0b51653          	flt.s	a2,fa0,fa1
    185c:	001028f3          	frflags	a7
    1860:	72c7a823          	sw	a2,1840(a5)
    1864:	7317aa23          	sw	a7,1844(a5)

00001868 <inst_246>:
    1868:	7b082507          	flw	fa0,1968(a6)
    186c:	7b482587          	flw	fa1,1972(a6)
    1870:	a0b51653          	flt.s	a2,fa0,fa1
    1874:	001028f3          	frflags	a7
    1878:	72c7ac23          	sw	a2,1848(a5)
    187c:	7317ae23          	sw	a7,1852(a5)

00001880 <inst_247>:
    1880:	7b882507          	flw	fa0,1976(a6)
    1884:	7bc82587          	flw	fa1,1980(a6)
    1888:	a0b51653          	flt.s	a2,fa0,fa1
    188c:	001028f3          	frflags	a7
    1890:	74c7a023          	sw	a2,1856(a5)
    1894:	7517a223          	sw	a7,1860(a5)

00001898 <inst_248>:
    1898:	7c082507          	flw	fa0,1984(a6)
    189c:	7c482587          	flw	fa1,1988(a6)
    18a0:	a0b51653          	flt.s	a2,fa0,fa1
    18a4:	001028f3          	frflags	a7
    18a8:	74c7a423          	sw	a2,1864(a5)
    18ac:	7517a623          	sw	a7,1868(a5)

000018b0 <inst_249>:
    18b0:	7c882507          	flw	fa0,1992(a6)
    18b4:	7cc82587          	flw	fa1,1996(a6)
    18b8:	a0b51653          	flt.s	a2,fa0,fa1
    18bc:	001028f3          	frflags	a7
    18c0:	74c7a823          	sw	a2,1872(a5)
    18c4:	7517aa23          	sw	a7,1876(a5)

000018c8 <inst_250>:
    18c8:	7d082507          	flw	fa0,2000(a6)
    18cc:	7d482587          	flw	fa1,2004(a6)
    18d0:	a0b51653          	flt.s	a2,fa0,fa1
    18d4:	001028f3          	frflags	a7
    18d8:	74c7ac23          	sw	a2,1880(a5)
    18dc:	7517ae23          	sw	a7,1884(a5)

000018e0 <inst_251>:
    18e0:	7d882507          	flw	fa0,2008(a6)
    18e4:	7dc82587          	flw	fa1,2012(a6)
    18e8:	a0b51653          	flt.s	a2,fa0,fa1
    18ec:	001028f3          	frflags	a7
    18f0:	76c7a023          	sw	a2,1888(a5)
    18f4:	7717a223          	sw	a7,1892(a5)

000018f8 <inst_252>:
    18f8:	7e082507          	flw	fa0,2016(a6)
    18fc:	7e482587          	flw	fa1,2020(a6)
    1900:	a0b51653          	flt.s	a2,fa0,fa1
    1904:	001028f3          	frflags	a7
    1908:	76c7a423          	sw	a2,1896(a5)
    190c:	7717a623          	sw	a7,1900(a5)

00001910 <inst_253>:
    1910:	7e882507          	flw	fa0,2024(a6)
    1914:	7ec82587          	flw	fa1,2028(a6)
    1918:	a0b51653          	flt.s	a2,fa0,fa1
    191c:	001028f3          	frflags	a7
    1920:	76c7a823          	sw	a2,1904(a5)
    1924:	7717aa23          	sw	a7,1908(a5)
    1928:	7f080813          	add	a6,a6,2032

0000192c <inst_254>:
    192c:	00082507          	flw	fa0,0(a6)
    1930:	00482587          	flw	fa1,4(a6)
    1934:	a0b51653          	flt.s	a2,fa0,fa1
    1938:	001028f3          	frflags	a7
    193c:	76c7ac23          	sw	a2,1912(a5)
    1940:	7717ae23          	sw	a7,1916(a5)

00001944 <inst_255>:
    1944:	00882507          	flw	fa0,8(a6)
    1948:	00c82587          	flw	fa1,12(a6)
    194c:	a0b51653          	flt.s	a2,fa0,fa1
    1950:	001028f3          	frflags	a7
    1954:	78c7a023          	sw	a2,1920(a5)
    1958:	7917a223          	sw	a7,1924(a5)

0000195c <inst_256>:
    195c:	01082507          	flw	fa0,16(a6)
    1960:	01482587          	flw	fa1,20(a6)
    1964:	a0b51653          	flt.s	a2,fa0,fa1
    1968:	001028f3          	frflags	a7
    196c:	78c7a423          	sw	a2,1928(a5)
    1970:	7917a623          	sw	a7,1932(a5)

00001974 <inst_257>:
    1974:	01882507          	flw	fa0,24(a6)
    1978:	01c82587          	flw	fa1,28(a6)
    197c:	a0b51653          	flt.s	a2,fa0,fa1
    1980:	001028f3          	frflags	a7
    1984:	78c7a823          	sw	a2,1936(a5)
    1988:	7917aa23          	sw	a7,1940(a5)

0000198c <inst_258>:
    198c:	02082507          	flw	fa0,32(a6)
    1990:	02482587          	flw	fa1,36(a6)
    1994:	a0b51653          	flt.s	a2,fa0,fa1
    1998:	001028f3          	frflags	a7
    199c:	78c7ac23          	sw	a2,1944(a5)
    19a0:	7917ae23          	sw	a7,1948(a5)

000019a4 <inst_259>:
    19a4:	02882507          	flw	fa0,40(a6)
    19a8:	02c82587          	flw	fa1,44(a6)
    19ac:	a0b51653          	flt.s	a2,fa0,fa1
    19b0:	001028f3          	frflags	a7
    19b4:	7ac7a023          	sw	a2,1952(a5)
    19b8:	7b17a223          	sw	a7,1956(a5)

000019bc <inst_260>:
    19bc:	03082507          	flw	fa0,48(a6)
    19c0:	03482587          	flw	fa1,52(a6)
    19c4:	a0b51653          	flt.s	a2,fa0,fa1
    19c8:	001028f3          	frflags	a7
    19cc:	7ac7a423          	sw	a2,1960(a5)
    19d0:	7b17a623          	sw	a7,1964(a5)

000019d4 <inst_261>:
    19d4:	03882507          	flw	fa0,56(a6)
    19d8:	03c82587          	flw	fa1,60(a6)
    19dc:	a0b51653          	flt.s	a2,fa0,fa1
    19e0:	001028f3          	frflags	a7
    19e4:	7ac7a823          	sw	a2,1968(a5)
    19e8:	7b17aa23          	sw	a7,1972(a5)

000019ec <inst_262>:
    19ec:	04082507          	flw	fa0,64(a6)
    19f0:	04482587          	flw	fa1,68(a6)
    19f4:	a0b51653          	flt.s	a2,fa0,fa1
    19f8:	001028f3          	frflags	a7
    19fc:	7ac7ac23          	sw	a2,1976(a5)
    1a00:	7b17ae23          	sw	a7,1980(a5)

00001a04 <inst_263>:
    1a04:	04882507          	flw	fa0,72(a6)
    1a08:	04c82587          	flw	fa1,76(a6)
    1a0c:	a0b51653          	flt.s	a2,fa0,fa1
    1a10:	001028f3          	frflags	a7
    1a14:	7cc7a023          	sw	a2,1984(a5)
    1a18:	7d17a223          	sw	a7,1988(a5)

00001a1c <inst_264>:
    1a1c:	05082507          	flw	fa0,80(a6)
    1a20:	05482587          	flw	fa1,84(a6)
    1a24:	a0b51653          	flt.s	a2,fa0,fa1
    1a28:	001028f3          	frflags	a7
    1a2c:	7cc7a423          	sw	a2,1992(a5)
    1a30:	7d17a623          	sw	a7,1996(a5)

00001a34 <inst_265>:
    1a34:	05882507          	flw	fa0,88(a6)
    1a38:	05c82587          	flw	fa1,92(a6)
    1a3c:	a0b51653          	flt.s	a2,fa0,fa1
    1a40:	001028f3          	frflags	a7
    1a44:	7cc7a823          	sw	a2,2000(a5)
    1a48:	7d17aa23          	sw	a7,2004(a5)

00001a4c <inst_266>:
    1a4c:	06082507          	flw	fa0,96(a6)
    1a50:	06482587          	flw	fa1,100(a6)
    1a54:	a0b51653          	flt.s	a2,fa0,fa1
    1a58:	001028f3          	frflags	a7
    1a5c:	7cc7ac23          	sw	a2,2008(a5)
    1a60:	7d17ae23          	sw	a7,2012(a5)

00001a64 <inst_267>:
    1a64:	06882507          	flw	fa0,104(a6)
    1a68:	06c82587          	flw	fa1,108(a6)
    1a6c:	a0b51653          	flt.s	a2,fa0,fa1
    1a70:	001028f3          	frflags	a7
    1a74:	7ec7a023          	sw	a2,2016(a5)
    1a78:	7f17a223          	sw	a7,2020(a5)

00001a7c <inst_268>:
    1a7c:	07082507          	flw	fa0,112(a6)
    1a80:	07482587          	flw	fa1,116(a6)
    1a84:	a0b51653          	flt.s	a2,fa0,fa1
    1a88:	001028f3          	frflags	a7
    1a8c:	7ec7a423          	sw	a2,2024(a5)
    1a90:	7f17a623          	sw	a7,2028(a5)
    1a94:	00004797          	auipc	a5,0x4
    1a98:	ff478793          	add	a5,a5,-12 # 5a88 <signature_x15_5>

00001a9c <inst_269>:
    1a9c:	07882507          	flw	fa0,120(a6)
    1aa0:	07c82587          	flw	fa1,124(a6)
    1aa4:	a0b51653          	flt.s	a2,fa0,fa1
    1aa8:	001028f3          	frflags	a7
    1aac:	00c7a023          	sw	a2,0(a5)
    1ab0:	0117a223          	sw	a7,4(a5)

00001ab4 <inst_270>:
    1ab4:	08082507          	flw	fa0,128(a6)
    1ab8:	08482587          	flw	fa1,132(a6)
    1abc:	a0b51653          	flt.s	a2,fa0,fa1
    1ac0:	001028f3          	frflags	a7
    1ac4:	00c7a423          	sw	a2,8(a5)
    1ac8:	0117a623          	sw	a7,12(a5)

00001acc <inst_271>:
    1acc:	08882507          	flw	fa0,136(a6)
    1ad0:	08c82587          	flw	fa1,140(a6)
    1ad4:	a0b51653          	flt.s	a2,fa0,fa1
    1ad8:	001028f3          	frflags	a7
    1adc:	00c7a823          	sw	a2,16(a5)
    1ae0:	0117aa23          	sw	a7,20(a5)

00001ae4 <inst_272>:
    1ae4:	09082507          	flw	fa0,144(a6)
    1ae8:	09482587          	flw	fa1,148(a6)
    1aec:	a0b51653          	flt.s	a2,fa0,fa1
    1af0:	001028f3          	frflags	a7
    1af4:	00c7ac23          	sw	a2,24(a5)
    1af8:	0117ae23          	sw	a7,28(a5)

00001afc <inst_273>:
    1afc:	09882507          	flw	fa0,152(a6)
    1b00:	09c82587          	flw	fa1,156(a6)
    1b04:	a0b51653          	flt.s	a2,fa0,fa1
    1b08:	001028f3          	frflags	a7
    1b0c:	02c7a023          	sw	a2,32(a5)
    1b10:	0317a223          	sw	a7,36(a5)

00001b14 <inst_274>:
    1b14:	0a082507          	flw	fa0,160(a6)
    1b18:	0a482587          	flw	fa1,164(a6)
    1b1c:	a0b51653          	flt.s	a2,fa0,fa1
    1b20:	001028f3          	frflags	a7
    1b24:	02c7a423          	sw	a2,40(a5)
    1b28:	0317a623          	sw	a7,44(a5)

00001b2c <inst_275>:
    1b2c:	0a882507          	flw	fa0,168(a6)
    1b30:	0ac82587          	flw	fa1,172(a6)
    1b34:	a0b51653          	flt.s	a2,fa0,fa1
    1b38:	001028f3          	frflags	a7
    1b3c:	02c7a823          	sw	a2,48(a5)
    1b40:	0317aa23          	sw	a7,52(a5)

00001b44 <inst_276>:
    1b44:	0b082507          	flw	fa0,176(a6)
    1b48:	0b482587          	flw	fa1,180(a6)
    1b4c:	a0b51653          	flt.s	a2,fa0,fa1
    1b50:	001028f3          	frflags	a7
    1b54:	02c7ac23          	sw	a2,56(a5)
    1b58:	0317ae23          	sw	a7,60(a5)

00001b5c <inst_277>:
    1b5c:	0b882507          	flw	fa0,184(a6)
    1b60:	0bc82587          	flw	fa1,188(a6)
    1b64:	a0b51653          	flt.s	a2,fa0,fa1
    1b68:	001028f3          	frflags	a7
    1b6c:	04c7a023          	sw	a2,64(a5)
    1b70:	0517a223          	sw	a7,68(a5)

00001b74 <inst_278>:
    1b74:	0c082507          	flw	fa0,192(a6)
    1b78:	0c482587          	flw	fa1,196(a6)
    1b7c:	a0b51653          	flt.s	a2,fa0,fa1
    1b80:	001028f3          	frflags	a7
    1b84:	04c7a423          	sw	a2,72(a5)
    1b88:	0517a623          	sw	a7,76(a5)

00001b8c <inst_279>:
    1b8c:	0c882507          	flw	fa0,200(a6)
    1b90:	0cc82587          	flw	fa1,204(a6)
    1b94:	a0b51653          	flt.s	a2,fa0,fa1
    1b98:	001028f3          	frflags	a7
    1b9c:	04c7a823          	sw	a2,80(a5)
    1ba0:	0517aa23          	sw	a7,84(a5)

00001ba4 <inst_280>:
    1ba4:	0d082507          	flw	fa0,208(a6)
    1ba8:	0d482587          	flw	fa1,212(a6)
    1bac:	a0b51653          	flt.s	a2,fa0,fa1
    1bb0:	001028f3          	frflags	a7
    1bb4:	04c7ac23          	sw	a2,88(a5)
    1bb8:	0517ae23          	sw	a7,92(a5)

00001bbc <inst_281>:
    1bbc:	0d882507          	flw	fa0,216(a6)
    1bc0:	0dc82587          	flw	fa1,220(a6)
    1bc4:	a0b51653          	flt.s	a2,fa0,fa1
    1bc8:	001028f3          	frflags	a7
    1bcc:	06c7a023          	sw	a2,96(a5)
    1bd0:	0717a223          	sw	a7,100(a5)

00001bd4 <inst_282>:
    1bd4:	0e082507          	flw	fa0,224(a6)
    1bd8:	0e482587          	flw	fa1,228(a6)
    1bdc:	a0b51653          	flt.s	a2,fa0,fa1
    1be0:	001028f3          	frflags	a7
    1be4:	06c7a423          	sw	a2,104(a5)
    1be8:	0717a623          	sw	a7,108(a5)

00001bec <inst_283>:
    1bec:	0e882507          	flw	fa0,232(a6)
    1bf0:	0ec82587          	flw	fa1,236(a6)
    1bf4:	a0b51653          	flt.s	a2,fa0,fa1
    1bf8:	001028f3          	frflags	a7
    1bfc:	06c7a823          	sw	a2,112(a5)
    1c00:	0717aa23          	sw	a7,116(a5)

00001c04 <inst_284>:
    1c04:	0f082507          	flw	fa0,240(a6)
    1c08:	0f482587          	flw	fa1,244(a6)
    1c0c:	a0b51653          	flt.s	a2,fa0,fa1
    1c10:	001028f3          	frflags	a7
    1c14:	06c7ac23          	sw	a2,120(a5)
    1c18:	0717ae23          	sw	a7,124(a5)

00001c1c <inst_285>:
    1c1c:	0f882507          	flw	fa0,248(a6)
    1c20:	0fc82587          	flw	fa1,252(a6)
    1c24:	a0b51653          	flt.s	a2,fa0,fa1
    1c28:	001028f3          	frflags	a7
    1c2c:	08c7a023          	sw	a2,128(a5)
    1c30:	0917a223          	sw	a7,132(a5)

00001c34 <inst_286>:
    1c34:	10082507          	flw	fa0,256(a6)
    1c38:	10482587          	flw	fa1,260(a6)
    1c3c:	a0b51653          	flt.s	a2,fa0,fa1
    1c40:	001028f3          	frflags	a7
    1c44:	08c7a423          	sw	a2,136(a5)
    1c48:	0917a623          	sw	a7,140(a5)

00001c4c <inst_287>:
    1c4c:	10882507          	flw	fa0,264(a6)
    1c50:	10c82587          	flw	fa1,268(a6)
    1c54:	a0b51653          	flt.s	a2,fa0,fa1
    1c58:	001028f3          	frflags	a7
    1c5c:	08c7a823          	sw	a2,144(a5)
    1c60:	0917aa23          	sw	a7,148(a5)

00001c64 <inst_288>:
    1c64:	11082507          	flw	fa0,272(a6)
    1c68:	11482587          	flw	fa1,276(a6)
    1c6c:	a0b51653          	flt.s	a2,fa0,fa1
    1c70:	001028f3          	frflags	a7
    1c74:	08c7ac23          	sw	a2,152(a5)
    1c78:	0917ae23          	sw	a7,156(a5)

00001c7c <inst_289>:
    1c7c:	11882507          	flw	fa0,280(a6)
    1c80:	11c82587          	flw	fa1,284(a6)
    1c84:	a0b51653          	flt.s	a2,fa0,fa1
    1c88:	001028f3          	frflags	a7
    1c8c:	0ac7a023          	sw	a2,160(a5)
    1c90:	0b17a223          	sw	a7,164(a5)

00001c94 <inst_290>:
    1c94:	12082507          	flw	fa0,288(a6)
    1c98:	12482587          	flw	fa1,292(a6)
    1c9c:	a0b51653          	flt.s	a2,fa0,fa1
    1ca0:	001028f3          	frflags	a7
    1ca4:	0ac7a423          	sw	a2,168(a5)
    1ca8:	0b17a623          	sw	a7,172(a5)

00001cac <inst_291>:
    1cac:	12882507          	flw	fa0,296(a6)
    1cb0:	12c82587          	flw	fa1,300(a6)
    1cb4:	a0b51653          	flt.s	a2,fa0,fa1
    1cb8:	001028f3          	frflags	a7
    1cbc:	0ac7a823          	sw	a2,176(a5)
    1cc0:	0b17aa23          	sw	a7,180(a5)

00001cc4 <inst_292>:
    1cc4:	13082507          	flw	fa0,304(a6)
    1cc8:	13482587          	flw	fa1,308(a6)
    1ccc:	a0b51653          	flt.s	a2,fa0,fa1
    1cd0:	001028f3          	frflags	a7
    1cd4:	0ac7ac23          	sw	a2,184(a5)
    1cd8:	0b17ae23          	sw	a7,188(a5)

00001cdc <inst_293>:
    1cdc:	13882507          	flw	fa0,312(a6)
    1ce0:	13c82587          	flw	fa1,316(a6)
    1ce4:	a0b51653          	flt.s	a2,fa0,fa1
    1ce8:	001028f3          	frflags	a7
    1cec:	0cc7a023          	sw	a2,192(a5)
    1cf0:	0d17a223          	sw	a7,196(a5)

00001cf4 <inst_294>:
    1cf4:	14082507          	flw	fa0,320(a6)
    1cf8:	14482587          	flw	fa1,324(a6)
    1cfc:	a0b51653          	flt.s	a2,fa0,fa1
    1d00:	001028f3          	frflags	a7
    1d04:	0cc7a423          	sw	a2,200(a5)
    1d08:	0d17a623          	sw	a7,204(a5)

00001d0c <inst_295>:
    1d0c:	14882507          	flw	fa0,328(a6)
    1d10:	14c82587          	flw	fa1,332(a6)
    1d14:	a0b51653          	flt.s	a2,fa0,fa1
    1d18:	001028f3          	frflags	a7
    1d1c:	0cc7a823          	sw	a2,208(a5)
    1d20:	0d17aa23          	sw	a7,212(a5)

00001d24 <inst_296>:
    1d24:	15082507          	flw	fa0,336(a6)
    1d28:	15482587          	flw	fa1,340(a6)
    1d2c:	a0b51653          	flt.s	a2,fa0,fa1
    1d30:	001028f3          	frflags	a7
    1d34:	0cc7ac23          	sw	a2,216(a5)
    1d38:	0d17ae23          	sw	a7,220(a5)

00001d3c <inst_297>:
    1d3c:	15882507          	flw	fa0,344(a6)
    1d40:	15c82587          	flw	fa1,348(a6)
    1d44:	a0b51653          	flt.s	a2,fa0,fa1
    1d48:	001028f3          	frflags	a7
    1d4c:	0ec7a023          	sw	a2,224(a5)
    1d50:	0f17a223          	sw	a7,228(a5)

00001d54 <inst_298>:
    1d54:	16082507          	flw	fa0,352(a6)
    1d58:	16482587          	flw	fa1,356(a6)
    1d5c:	a0b51653          	flt.s	a2,fa0,fa1
    1d60:	001028f3          	frflags	a7
    1d64:	0ec7a423          	sw	a2,232(a5)
    1d68:	0f17a623          	sw	a7,236(a5)

00001d6c <inst_299>:
    1d6c:	16882507          	flw	fa0,360(a6)
    1d70:	16c82587          	flw	fa1,364(a6)
    1d74:	a0b51653          	flt.s	a2,fa0,fa1
    1d78:	001028f3          	frflags	a7
    1d7c:	0ec7a823          	sw	a2,240(a5)
    1d80:	0f17aa23          	sw	a7,244(a5)

00001d84 <inst_300>:
    1d84:	17082507          	flw	fa0,368(a6)
    1d88:	17482587          	flw	fa1,372(a6)
    1d8c:	a0b51653          	flt.s	a2,fa0,fa1
    1d90:	001028f3          	frflags	a7
    1d94:	0ec7ac23          	sw	a2,248(a5)
    1d98:	0f17ae23          	sw	a7,252(a5)

00001d9c <inst_301>:
    1d9c:	17882507          	flw	fa0,376(a6)
    1da0:	17c82587          	flw	fa1,380(a6)
    1da4:	a0b51653          	flt.s	a2,fa0,fa1
    1da8:	001028f3          	frflags	a7
    1dac:	10c7a023          	sw	a2,256(a5)
    1db0:	1117a223          	sw	a7,260(a5)

00001db4 <inst_302>:
    1db4:	18082507          	flw	fa0,384(a6)
    1db8:	18482587          	flw	fa1,388(a6)
    1dbc:	a0b51653          	flt.s	a2,fa0,fa1
    1dc0:	001028f3          	frflags	a7
    1dc4:	10c7a423          	sw	a2,264(a5)
    1dc8:	1117a623          	sw	a7,268(a5)

00001dcc <inst_303>:
    1dcc:	18882507          	flw	fa0,392(a6)
    1dd0:	18c82587          	flw	fa1,396(a6)
    1dd4:	a0b51653          	flt.s	a2,fa0,fa1
    1dd8:	001028f3          	frflags	a7
    1ddc:	10c7a823          	sw	a2,272(a5)
    1de0:	1117aa23          	sw	a7,276(a5)

00001de4 <inst_304>:
    1de4:	19082507          	flw	fa0,400(a6)
    1de8:	19482587          	flw	fa1,404(a6)
    1dec:	a0b51653          	flt.s	a2,fa0,fa1
    1df0:	001028f3          	frflags	a7
    1df4:	10c7ac23          	sw	a2,280(a5)
    1df8:	1117ae23          	sw	a7,284(a5)

00001dfc <inst_305>:
    1dfc:	19882507          	flw	fa0,408(a6)
    1e00:	19c82587          	flw	fa1,412(a6)
    1e04:	a0b51653          	flt.s	a2,fa0,fa1
    1e08:	001028f3          	frflags	a7
    1e0c:	12c7a023          	sw	a2,288(a5)
    1e10:	1317a223          	sw	a7,292(a5)

00001e14 <inst_306>:
    1e14:	1a082507          	flw	fa0,416(a6)
    1e18:	1a482587          	flw	fa1,420(a6)
    1e1c:	a0b51653          	flt.s	a2,fa0,fa1
    1e20:	001028f3          	frflags	a7
    1e24:	12c7a423          	sw	a2,296(a5)
    1e28:	1317a623          	sw	a7,300(a5)

00001e2c <inst_307>:
    1e2c:	1a882507          	flw	fa0,424(a6)
    1e30:	1ac82587          	flw	fa1,428(a6)
    1e34:	a0b51653          	flt.s	a2,fa0,fa1
    1e38:	001028f3          	frflags	a7
    1e3c:	12c7a823          	sw	a2,304(a5)
    1e40:	1317aa23          	sw	a7,308(a5)

00001e44 <inst_308>:
    1e44:	1b082507          	flw	fa0,432(a6)
    1e48:	1b482587          	flw	fa1,436(a6)
    1e4c:	a0b51653          	flt.s	a2,fa0,fa1
    1e50:	001028f3          	frflags	a7
    1e54:	12c7ac23          	sw	a2,312(a5)
    1e58:	1317ae23          	sw	a7,316(a5)

00001e5c <inst_309>:
    1e5c:	1b882507          	flw	fa0,440(a6)
    1e60:	1bc82587          	flw	fa1,444(a6)
    1e64:	a0b51653          	flt.s	a2,fa0,fa1
    1e68:	001028f3          	frflags	a7
    1e6c:	14c7a023          	sw	a2,320(a5)
    1e70:	1517a223          	sw	a7,324(a5)

00001e74 <inst_310>:
    1e74:	1c082507          	flw	fa0,448(a6)
    1e78:	1c482587          	flw	fa1,452(a6)
    1e7c:	a0b51653          	flt.s	a2,fa0,fa1
    1e80:	001028f3          	frflags	a7
    1e84:	14c7a423          	sw	a2,328(a5)
    1e88:	1517a623          	sw	a7,332(a5)

00001e8c <inst_311>:
    1e8c:	1c882507          	flw	fa0,456(a6)
    1e90:	1cc82587          	flw	fa1,460(a6)
    1e94:	a0b51653          	flt.s	a2,fa0,fa1
    1e98:	001028f3          	frflags	a7
    1e9c:	14c7a823          	sw	a2,336(a5)
    1ea0:	1517aa23          	sw	a7,340(a5)

00001ea4 <inst_312>:
    1ea4:	1d082507          	flw	fa0,464(a6)
    1ea8:	1d482587          	flw	fa1,468(a6)
    1eac:	a0b51653          	flt.s	a2,fa0,fa1
    1eb0:	001028f3          	frflags	a7
    1eb4:	14c7ac23          	sw	a2,344(a5)
    1eb8:	1517ae23          	sw	a7,348(a5)

00001ebc <inst_313>:
    1ebc:	1d882507          	flw	fa0,472(a6)
    1ec0:	1dc82587          	flw	fa1,476(a6)
    1ec4:	a0b51653          	flt.s	a2,fa0,fa1
    1ec8:	001028f3          	frflags	a7
    1ecc:	16c7a023          	sw	a2,352(a5)
    1ed0:	1717a223          	sw	a7,356(a5)

00001ed4 <inst_314>:
    1ed4:	1e082507          	flw	fa0,480(a6)
    1ed8:	1e482587          	flw	fa1,484(a6)
    1edc:	a0b51653          	flt.s	a2,fa0,fa1
    1ee0:	001028f3          	frflags	a7
    1ee4:	16c7a423          	sw	a2,360(a5)
    1ee8:	1717a623          	sw	a7,364(a5)

00001eec <inst_315>:
    1eec:	1e882507          	flw	fa0,488(a6)
    1ef0:	1ec82587          	flw	fa1,492(a6)
    1ef4:	a0b51653          	flt.s	a2,fa0,fa1
    1ef8:	001028f3          	frflags	a7
    1efc:	16c7a823          	sw	a2,368(a5)
    1f00:	1717aa23          	sw	a7,372(a5)

00001f04 <inst_316>:
    1f04:	1f082507          	flw	fa0,496(a6)
    1f08:	1f482587          	flw	fa1,500(a6)
    1f0c:	a0b51653          	flt.s	a2,fa0,fa1
    1f10:	001028f3          	frflags	a7
    1f14:	16c7ac23          	sw	a2,376(a5)
    1f18:	1717ae23          	sw	a7,380(a5)

00001f1c <inst_317>:
    1f1c:	1f882507          	flw	fa0,504(a6)
    1f20:	1fc82587          	flw	fa1,508(a6)
    1f24:	a0b51653          	flt.s	a2,fa0,fa1
    1f28:	001028f3          	frflags	a7
    1f2c:	18c7a023          	sw	a2,384(a5)
    1f30:	1917a223          	sw	a7,388(a5)

00001f34 <inst_318>:
    1f34:	20082507          	flw	fa0,512(a6)
    1f38:	20482587          	flw	fa1,516(a6)
    1f3c:	a0b51653          	flt.s	a2,fa0,fa1
    1f40:	001028f3          	frflags	a7
    1f44:	18c7a423          	sw	a2,392(a5)
    1f48:	1917a623          	sw	a7,396(a5)

00001f4c <inst_319>:
    1f4c:	20882507          	flw	fa0,520(a6)
    1f50:	20c82587          	flw	fa1,524(a6)
    1f54:	a0b51653          	flt.s	a2,fa0,fa1
    1f58:	001028f3          	frflags	a7
    1f5c:	18c7a823          	sw	a2,400(a5)
    1f60:	1917aa23          	sw	a7,404(a5)

00001f64 <inst_320>:
    1f64:	21082507          	flw	fa0,528(a6)
    1f68:	21482587          	flw	fa1,532(a6)
    1f6c:	a0b51653          	flt.s	a2,fa0,fa1
    1f70:	001028f3          	frflags	a7
    1f74:	18c7ac23          	sw	a2,408(a5)
    1f78:	1917ae23          	sw	a7,412(a5)

00001f7c <inst_321>:
    1f7c:	21882507          	flw	fa0,536(a6)
    1f80:	21c82587          	flw	fa1,540(a6)
    1f84:	a0b51653          	flt.s	a2,fa0,fa1
    1f88:	001028f3          	frflags	a7
    1f8c:	1ac7a023          	sw	a2,416(a5)
    1f90:	1b17a223          	sw	a7,420(a5)

00001f94 <inst_322>:
    1f94:	22082507          	flw	fa0,544(a6)
    1f98:	22482587          	flw	fa1,548(a6)
    1f9c:	a0b51653          	flt.s	a2,fa0,fa1
    1fa0:	001028f3          	frflags	a7
    1fa4:	1ac7a423          	sw	a2,424(a5)
    1fa8:	1b17a623          	sw	a7,428(a5)

00001fac <inst_323>:
    1fac:	22882507          	flw	fa0,552(a6)
    1fb0:	22c82587          	flw	fa1,556(a6)
    1fb4:	a0b51653          	flt.s	a2,fa0,fa1
    1fb8:	001028f3          	frflags	a7
    1fbc:	1ac7a823          	sw	a2,432(a5)
    1fc0:	1b17aa23          	sw	a7,436(a5)

00001fc4 <inst_324>:
    1fc4:	23082507          	flw	fa0,560(a6)
    1fc8:	23482587          	flw	fa1,564(a6)
    1fcc:	a0b51653          	flt.s	a2,fa0,fa1
    1fd0:	001028f3          	frflags	a7
    1fd4:	1ac7ac23          	sw	a2,440(a5)
    1fd8:	1b17ae23          	sw	a7,444(a5)

00001fdc <inst_325>:
    1fdc:	23882507          	flw	fa0,568(a6)
    1fe0:	23c82587          	flw	fa1,572(a6)
    1fe4:	a0b51653          	flt.s	a2,fa0,fa1
    1fe8:	001028f3          	frflags	a7
    1fec:	1cc7a023          	sw	a2,448(a5)
    1ff0:	1d17a223          	sw	a7,452(a5)

00001ff4 <inst_326>:
    1ff4:	24082507          	flw	fa0,576(a6)
    1ff8:	24482587          	flw	fa1,580(a6)
    1ffc:	a0b51653          	flt.s	a2,fa0,fa1
    2000:	001028f3          	frflags	a7
    2004:	1cc7a423          	sw	a2,456(a5)
    2008:	1d17a623          	sw	a7,460(a5)

0000200c <inst_327>:
    200c:	24882507          	flw	fa0,584(a6)
    2010:	24c82587          	flw	fa1,588(a6)
    2014:	a0b51653          	flt.s	a2,fa0,fa1
    2018:	001028f3          	frflags	a7
    201c:	1cc7a823          	sw	a2,464(a5)
    2020:	1d17aa23          	sw	a7,468(a5)

00002024 <inst_328>:
    2024:	25082507          	flw	fa0,592(a6)
    2028:	25482587          	flw	fa1,596(a6)
    202c:	a0b51653          	flt.s	a2,fa0,fa1
    2030:	001028f3          	frflags	a7
    2034:	1cc7ac23          	sw	a2,472(a5)
    2038:	1d17ae23          	sw	a7,476(a5)

0000203c <inst_329>:
    203c:	25882507          	flw	fa0,600(a6)
    2040:	25c82587          	flw	fa1,604(a6)
    2044:	a0b51653          	flt.s	a2,fa0,fa1
    2048:	001028f3          	frflags	a7
    204c:	1ec7a023          	sw	a2,480(a5)
    2050:	1f17a223          	sw	a7,484(a5)

00002054 <inst_330>:
    2054:	26082507          	flw	fa0,608(a6)
    2058:	26482587          	flw	fa1,612(a6)
    205c:	a0b51653          	flt.s	a2,fa0,fa1
    2060:	001028f3          	frflags	a7
    2064:	1ec7a423          	sw	a2,488(a5)
    2068:	1f17a623          	sw	a7,492(a5)

0000206c <inst_331>:
    206c:	26882507          	flw	fa0,616(a6)
    2070:	26c82587          	flw	fa1,620(a6)
    2074:	a0b51653          	flt.s	a2,fa0,fa1
    2078:	001028f3          	frflags	a7
    207c:	1ec7a823          	sw	a2,496(a5)
    2080:	1f17aa23          	sw	a7,500(a5)

00002084 <inst_332>:
    2084:	27082507          	flw	fa0,624(a6)
    2088:	27482587          	flw	fa1,628(a6)
    208c:	a0b51653          	flt.s	a2,fa0,fa1
    2090:	001028f3          	frflags	a7
    2094:	1ec7ac23          	sw	a2,504(a5)
    2098:	1f17ae23          	sw	a7,508(a5)

0000209c <inst_333>:
    209c:	27882507          	flw	fa0,632(a6)
    20a0:	27c82587          	flw	fa1,636(a6)
    20a4:	a0b51653          	flt.s	a2,fa0,fa1
    20a8:	001028f3          	frflags	a7
    20ac:	20c7a023          	sw	a2,512(a5)
    20b0:	2117a223          	sw	a7,516(a5)

000020b4 <inst_334>:
    20b4:	28082507          	flw	fa0,640(a6)
    20b8:	28482587          	flw	fa1,644(a6)
    20bc:	a0b51653          	flt.s	a2,fa0,fa1
    20c0:	001028f3          	frflags	a7
    20c4:	20c7a423          	sw	a2,520(a5)
    20c8:	2117a623          	sw	a7,524(a5)

000020cc <inst_335>:
    20cc:	28882507          	flw	fa0,648(a6)
    20d0:	28c82587          	flw	fa1,652(a6)
    20d4:	a0b51653          	flt.s	a2,fa0,fa1
    20d8:	001028f3          	frflags	a7
    20dc:	20c7a823          	sw	a2,528(a5)
    20e0:	2117aa23          	sw	a7,532(a5)

000020e4 <inst_336>:
    20e4:	29082507          	flw	fa0,656(a6)
    20e8:	29482587          	flw	fa1,660(a6)
    20ec:	a0b51653          	flt.s	a2,fa0,fa1
    20f0:	001028f3          	frflags	a7
    20f4:	20c7ac23          	sw	a2,536(a5)
    20f8:	2117ae23          	sw	a7,540(a5)

000020fc <inst_337>:
    20fc:	29882507          	flw	fa0,664(a6)
    2100:	29c82587          	flw	fa1,668(a6)
    2104:	a0b51653          	flt.s	a2,fa0,fa1
    2108:	001028f3          	frflags	a7
    210c:	22c7a023          	sw	a2,544(a5)
    2110:	2317a223          	sw	a7,548(a5)

00002114 <inst_338>:
    2114:	2a082507          	flw	fa0,672(a6)
    2118:	2a482587          	flw	fa1,676(a6)
    211c:	a0b51653          	flt.s	a2,fa0,fa1
    2120:	001028f3          	frflags	a7
    2124:	22c7a423          	sw	a2,552(a5)
    2128:	2317a623          	sw	a7,556(a5)

0000212c <inst_339>:
    212c:	2a882507          	flw	fa0,680(a6)
    2130:	2ac82587          	flw	fa1,684(a6)
    2134:	a0b51653          	flt.s	a2,fa0,fa1
    2138:	001028f3          	frflags	a7
    213c:	22c7a823          	sw	a2,560(a5)
    2140:	2317aa23          	sw	a7,564(a5)

00002144 <inst_340>:
    2144:	2b082507          	flw	fa0,688(a6)
    2148:	2b482587          	flw	fa1,692(a6)
    214c:	a0b51653          	flt.s	a2,fa0,fa1
    2150:	001028f3          	frflags	a7
    2154:	22c7ac23          	sw	a2,568(a5)
    2158:	2317ae23          	sw	a7,572(a5)

0000215c <inst_341>:
    215c:	2b882507          	flw	fa0,696(a6)
    2160:	2bc82587          	flw	fa1,700(a6)
    2164:	a0b51653          	flt.s	a2,fa0,fa1
    2168:	001028f3          	frflags	a7
    216c:	24c7a023          	sw	a2,576(a5)
    2170:	2517a223          	sw	a7,580(a5)

00002174 <inst_342>:
    2174:	2c082507          	flw	fa0,704(a6)
    2178:	2c482587          	flw	fa1,708(a6)
    217c:	a0b51653          	flt.s	a2,fa0,fa1
    2180:	001028f3          	frflags	a7
    2184:	24c7a423          	sw	a2,584(a5)
    2188:	2517a623          	sw	a7,588(a5)

0000218c <inst_343>:
    218c:	2c882507          	flw	fa0,712(a6)
    2190:	2cc82587          	flw	fa1,716(a6)
    2194:	a0b51653          	flt.s	a2,fa0,fa1
    2198:	001028f3          	frflags	a7
    219c:	24c7a823          	sw	a2,592(a5)
    21a0:	2517aa23          	sw	a7,596(a5)

000021a4 <inst_344>:
    21a4:	2d082507          	flw	fa0,720(a6)
    21a8:	2d482587          	flw	fa1,724(a6)
    21ac:	a0b51653          	flt.s	a2,fa0,fa1
    21b0:	001028f3          	frflags	a7
    21b4:	24c7ac23          	sw	a2,600(a5)
    21b8:	2517ae23          	sw	a7,604(a5)

000021bc <inst_345>:
    21bc:	2d882507          	flw	fa0,728(a6)
    21c0:	2dc82587          	flw	fa1,732(a6)
    21c4:	a0b51653          	flt.s	a2,fa0,fa1
    21c8:	001028f3          	frflags	a7
    21cc:	26c7a023          	sw	a2,608(a5)
    21d0:	2717a223          	sw	a7,612(a5)

000021d4 <inst_346>:
    21d4:	2e082507          	flw	fa0,736(a6)
    21d8:	2e482587          	flw	fa1,740(a6)
    21dc:	a0b51653          	flt.s	a2,fa0,fa1
    21e0:	001028f3          	frflags	a7
    21e4:	26c7a423          	sw	a2,616(a5)
    21e8:	2717a623          	sw	a7,620(a5)

000021ec <inst_347>:
    21ec:	2e882507          	flw	fa0,744(a6)
    21f0:	2ec82587          	flw	fa1,748(a6)
    21f4:	a0b51653          	flt.s	a2,fa0,fa1
    21f8:	001028f3          	frflags	a7
    21fc:	26c7a823          	sw	a2,624(a5)
    2200:	2717aa23          	sw	a7,628(a5)

00002204 <inst_348>:
    2204:	2f082507          	flw	fa0,752(a6)
    2208:	2f482587          	flw	fa1,756(a6)
    220c:	a0b51653          	flt.s	a2,fa0,fa1
    2210:	001028f3          	frflags	a7
    2214:	26c7ac23          	sw	a2,632(a5)
    2218:	2717ae23          	sw	a7,636(a5)

0000221c <inst_349>:
    221c:	2f882507          	flw	fa0,760(a6)
    2220:	2fc82587          	flw	fa1,764(a6)
    2224:	a0b51653          	flt.s	a2,fa0,fa1
    2228:	001028f3          	frflags	a7
    222c:	28c7a023          	sw	a2,640(a5)
    2230:	2917a223          	sw	a7,644(a5)

00002234 <inst_350>:
    2234:	30082507          	flw	fa0,768(a6)
    2238:	30482587          	flw	fa1,772(a6)
    223c:	a0b51653          	flt.s	a2,fa0,fa1
    2240:	001028f3          	frflags	a7
    2244:	28c7a423          	sw	a2,648(a5)
    2248:	2917a623          	sw	a7,652(a5)

0000224c <inst_351>:
    224c:	30882507          	flw	fa0,776(a6)
    2250:	30c82587          	flw	fa1,780(a6)
    2254:	a0b51653          	flt.s	a2,fa0,fa1
    2258:	001028f3          	frflags	a7
    225c:	28c7a823          	sw	a2,656(a5)
    2260:	2917aa23          	sw	a7,660(a5)

00002264 <inst_352>:
    2264:	31082507          	flw	fa0,784(a6)
    2268:	31482587          	flw	fa1,788(a6)
    226c:	a0b51653          	flt.s	a2,fa0,fa1
    2270:	001028f3          	frflags	a7
    2274:	28c7ac23          	sw	a2,664(a5)
    2278:	2917ae23          	sw	a7,668(a5)

0000227c <inst_353>:
    227c:	31882507          	flw	fa0,792(a6)
    2280:	31c82587          	flw	fa1,796(a6)
    2284:	a0b51653          	flt.s	a2,fa0,fa1
    2288:	001028f3          	frflags	a7
    228c:	2ac7a023          	sw	a2,672(a5)
    2290:	2b17a223          	sw	a7,676(a5)

00002294 <inst_354>:
    2294:	32082507          	flw	fa0,800(a6)
    2298:	32482587          	flw	fa1,804(a6)
    229c:	a0b51653          	flt.s	a2,fa0,fa1
    22a0:	001028f3          	frflags	a7
    22a4:	2ac7a423          	sw	a2,680(a5)
    22a8:	2b17a623          	sw	a7,684(a5)

000022ac <inst_355>:
    22ac:	32882507          	flw	fa0,808(a6)
    22b0:	32c82587          	flw	fa1,812(a6)
    22b4:	a0b51653          	flt.s	a2,fa0,fa1
    22b8:	001028f3          	frflags	a7
    22bc:	2ac7a823          	sw	a2,688(a5)
    22c0:	2b17aa23          	sw	a7,692(a5)

000022c4 <inst_356>:
    22c4:	33082507          	flw	fa0,816(a6)
    22c8:	33482587          	flw	fa1,820(a6)
    22cc:	a0b51653          	flt.s	a2,fa0,fa1
    22d0:	001028f3          	frflags	a7
    22d4:	2ac7ac23          	sw	a2,696(a5)
    22d8:	2b17ae23          	sw	a7,700(a5)

000022dc <inst_357>:
    22dc:	33882507          	flw	fa0,824(a6)
    22e0:	33c82587          	flw	fa1,828(a6)
    22e4:	a0b51653          	flt.s	a2,fa0,fa1
    22e8:	001028f3          	frflags	a7
    22ec:	2cc7a023          	sw	a2,704(a5)
    22f0:	2d17a223          	sw	a7,708(a5)

000022f4 <inst_358>:
    22f4:	34082507          	flw	fa0,832(a6)
    22f8:	34482587          	flw	fa1,836(a6)
    22fc:	a0b51653          	flt.s	a2,fa0,fa1
    2300:	001028f3          	frflags	a7
    2304:	2cc7a423          	sw	a2,712(a5)
    2308:	2d17a623          	sw	a7,716(a5)

0000230c <inst_359>:
    230c:	34882507          	flw	fa0,840(a6)
    2310:	34c82587          	flw	fa1,844(a6)
    2314:	a0b51653          	flt.s	a2,fa0,fa1
    2318:	001028f3          	frflags	a7
    231c:	2cc7a823          	sw	a2,720(a5)
    2320:	2d17aa23          	sw	a7,724(a5)

00002324 <inst_360>:
    2324:	35082507          	flw	fa0,848(a6)
    2328:	35482587          	flw	fa1,852(a6)
    232c:	a0b51653          	flt.s	a2,fa0,fa1
    2330:	001028f3          	frflags	a7
    2334:	2cc7ac23          	sw	a2,728(a5)
    2338:	2d17ae23          	sw	a7,732(a5)

0000233c <inst_361>:
    233c:	35882507          	flw	fa0,856(a6)
    2340:	35c82587          	flw	fa1,860(a6)
    2344:	a0b51653          	flt.s	a2,fa0,fa1
    2348:	001028f3          	frflags	a7
    234c:	2ec7a023          	sw	a2,736(a5)
    2350:	2f17a223          	sw	a7,740(a5)

00002354 <inst_362>:
    2354:	36082507          	flw	fa0,864(a6)
    2358:	36482587          	flw	fa1,868(a6)
    235c:	a0b51653          	flt.s	a2,fa0,fa1
    2360:	001028f3          	frflags	a7
    2364:	2ec7a423          	sw	a2,744(a5)
    2368:	2f17a623          	sw	a7,748(a5)

0000236c <inst_363>:
    236c:	36882507          	flw	fa0,872(a6)
    2370:	36c82587          	flw	fa1,876(a6)
    2374:	a0b51653          	flt.s	a2,fa0,fa1
    2378:	001028f3          	frflags	a7
    237c:	2ec7a823          	sw	a2,752(a5)
    2380:	2f17aa23          	sw	a7,756(a5)

00002384 <inst_364>:
    2384:	37082507          	flw	fa0,880(a6)
    2388:	37482587          	flw	fa1,884(a6)
    238c:	a0b51653          	flt.s	a2,fa0,fa1
    2390:	001028f3          	frflags	a7
    2394:	2ec7ac23          	sw	a2,760(a5)
    2398:	2f17ae23          	sw	a7,764(a5)

0000239c <inst_365>:
    239c:	37882507          	flw	fa0,888(a6)
    23a0:	37c82587          	flw	fa1,892(a6)
    23a4:	a0b51653          	flt.s	a2,fa0,fa1
    23a8:	001028f3          	frflags	a7
    23ac:	30c7a023          	sw	a2,768(a5)
    23b0:	3117a223          	sw	a7,772(a5)

000023b4 <inst_366>:
    23b4:	38082507          	flw	fa0,896(a6)
    23b8:	38482587          	flw	fa1,900(a6)
    23bc:	a0b51653          	flt.s	a2,fa0,fa1
    23c0:	001028f3          	frflags	a7
    23c4:	30c7a423          	sw	a2,776(a5)
    23c8:	3117a623          	sw	a7,780(a5)

000023cc <inst_367>:
    23cc:	38882507          	flw	fa0,904(a6)
    23d0:	38c82587          	flw	fa1,908(a6)
    23d4:	a0b51653          	flt.s	a2,fa0,fa1
    23d8:	001028f3          	frflags	a7
    23dc:	30c7a823          	sw	a2,784(a5)
    23e0:	3117aa23          	sw	a7,788(a5)

000023e4 <inst_368>:
    23e4:	39082507          	flw	fa0,912(a6)
    23e8:	39482587          	flw	fa1,916(a6)
    23ec:	a0b51653          	flt.s	a2,fa0,fa1
    23f0:	001028f3          	frflags	a7
    23f4:	30c7ac23          	sw	a2,792(a5)
    23f8:	3117ae23          	sw	a7,796(a5)

000023fc <inst_369>:
    23fc:	39882507          	flw	fa0,920(a6)
    2400:	39c82587          	flw	fa1,924(a6)
    2404:	a0b51653          	flt.s	a2,fa0,fa1
    2408:	001028f3          	frflags	a7
    240c:	32c7a023          	sw	a2,800(a5)
    2410:	3317a223          	sw	a7,804(a5)

00002414 <inst_370>:
    2414:	3a082507          	flw	fa0,928(a6)
    2418:	3a482587          	flw	fa1,932(a6)
    241c:	a0b51653          	flt.s	a2,fa0,fa1
    2420:	001028f3          	frflags	a7
    2424:	32c7a423          	sw	a2,808(a5)
    2428:	3317a623          	sw	a7,812(a5)

0000242c <inst_371>:
    242c:	3a882507          	flw	fa0,936(a6)
    2430:	3ac82587          	flw	fa1,940(a6)
    2434:	a0b51653          	flt.s	a2,fa0,fa1
    2438:	001028f3          	frflags	a7
    243c:	32c7a823          	sw	a2,816(a5)
    2440:	3317aa23          	sw	a7,820(a5)

00002444 <inst_372>:
    2444:	3b082507          	flw	fa0,944(a6)
    2448:	3b482587          	flw	fa1,948(a6)
    244c:	a0b51653          	flt.s	a2,fa0,fa1
    2450:	001028f3          	frflags	a7
    2454:	32c7ac23          	sw	a2,824(a5)
    2458:	3317ae23          	sw	a7,828(a5)

0000245c <inst_373>:
    245c:	3b882507          	flw	fa0,952(a6)
    2460:	3bc82587          	flw	fa1,956(a6)
    2464:	a0b51653          	flt.s	a2,fa0,fa1
    2468:	001028f3          	frflags	a7
    246c:	34c7a023          	sw	a2,832(a5)
    2470:	3517a223          	sw	a7,836(a5)

00002474 <inst_374>:
    2474:	3c082507          	flw	fa0,960(a6)
    2478:	3c482587          	flw	fa1,964(a6)
    247c:	a0b51653          	flt.s	a2,fa0,fa1
    2480:	001028f3          	frflags	a7
    2484:	34c7a423          	sw	a2,840(a5)
    2488:	3517a623          	sw	a7,844(a5)

0000248c <inst_375>:
    248c:	3c882507          	flw	fa0,968(a6)
    2490:	3cc82587          	flw	fa1,972(a6)
    2494:	a0b51653          	flt.s	a2,fa0,fa1
    2498:	001028f3          	frflags	a7
    249c:	34c7a823          	sw	a2,848(a5)
    24a0:	3517aa23          	sw	a7,852(a5)

000024a4 <inst_376>:
    24a4:	3d082507          	flw	fa0,976(a6)
    24a8:	3d482587          	flw	fa1,980(a6)
    24ac:	a0b51653          	flt.s	a2,fa0,fa1
    24b0:	001028f3          	frflags	a7
    24b4:	34c7ac23          	sw	a2,856(a5)
    24b8:	3517ae23          	sw	a7,860(a5)

000024bc <inst_377>:
    24bc:	3d882507          	flw	fa0,984(a6)
    24c0:	3dc82587          	flw	fa1,988(a6)
    24c4:	a0b51653          	flt.s	a2,fa0,fa1
    24c8:	001028f3          	frflags	a7
    24cc:	36c7a023          	sw	a2,864(a5)
    24d0:	3717a223          	sw	a7,868(a5)

000024d4 <inst_378>:
    24d4:	3e082507          	flw	fa0,992(a6)
    24d8:	3e482587          	flw	fa1,996(a6)
    24dc:	a0b51653          	flt.s	a2,fa0,fa1
    24e0:	001028f3          	frflags	a7
    24e4:	36c7a423          	sw	a2,872(a5)
    24e8:	3717a623          	sw	a7,876(a5)

000024ec <inst_379>:
    24ec:	3e882507          	flw	fa0,1000(a6)
    24f0:	3ec82587          	flw	fa1,1004(a6)
    24f4:	a0b51653          	flt.s	a2,fa0,fa1
    24f8:	001028f3          	frflags	a7
    24fc:	36c7a823          	sw	a2,880(a5)
    2500:	3717aa23          	sw	a7,884(a5)

00002504 <inst_380>:
    2504:	3f082507          	flw	fa0,1008(a6)
    2508:	3f482587          	flw	fa1,1012(a6)
    250c:	a0b51653          	flt.s	a2,fa0,fa1
    2510:	001028f3          	frflags	a7
    2514:	36c7ac23          	sw	a2,888(a5)
    2518:	3717ae23          	sw	a7,892(a5)

0000251c <inst_381>:
    251c:	3f882507          	flw	fa0,1016(a6)
    2520:	3fc82587          	flw	fa1,1020(a6)
    2524:	a0b51653          	flt.s	a2,fa0,fa1
    2528:	001028f3          	frflags	a7
    252c:	38c7a023          	sw	a2,896(a5)
    2530:	3917a223          	sw	a7,900(a5)

00002534 <inst_382>:
    2534:	40082507          	flw	fa0,1024(a6)
    2538:	40482587          	flw	fa1,1028(a6)
    253c:	a0b51653          	flt.s	a2,fa0,fa1
    2540:	001028f3          	frflags	a7
    2544:	38c7a423          	sw	a2,904(a5)
    2548:	3917a623          	sw	a7,908(a5)

0000254c <inst_383>:
    254c:	40882507          	flw	fa0,1032(a6)
    2550:	40c82587          	flw	fa1,1036(a6)
    2554:	a0b51653          	flt.s	a2,fa0,fa1
    2558:	001028f3          	frflags	a7
    255c:	38c7a823          	sw	a2,912(a5)
    2560:	3917aa23          	sw	a7,916(a5)

00002564 <inst_384>:
    2564:	41082507          	flw	fa0,1040(a6)
    2568:	41482587          	flw	fa1,1044(a6)
    256c:	a0b51653          	flt.s	a2,fa0,fa1
    2570:	001028f3          	frflags	a7
    2574:	38c7ac23          	sw	a2,920(a5)
    2578:	3917ae23          	sw	a7,924(a5)

0000257c <inst_385>:
    257c:	41882507          	flw	fa0,1048(a6)
    2580:	41c82587          	flw	fa1,1052(a6)
    2584:	a0b51653          	flt.s	a2,fa0,fa1
    2588:	001028f3          	frflags	a7
    258c:	3ac7a023          	sw	a2,928(a5)
    2590:	3b17a223          	sw	a7,932(a5)

00002594 <inst_386>:
    2594:	42082507          	flw	fa0,1056(a6)
    2598:	42482587          	flw	fa1,1060(a6)
    259c:	a0b51653          	flt.s	a2,fa0,fa1
    25a0:	001028f3          	frflags	a7
    25a4:	3ac7a423          	sw	a2,936(a5)
    25a8:	3b17a623          	sw	a7,940(a5)

000025ac <inst_387>:
    25ac:	42882507          	flw	fa0,1064(a6)
    25b0:	42c82587          	flw	fa1,1068(a6)
    25b4:	a0b51653          	flt.s	a2,fa0,fa1
    25b8:	001028f3          	frflags	a7
    25bc:	3ac7a823          	sw	a2,944(a5)
    25c0:	3b17aa23          	sw	a7,948(a5)

000025c4 <inst_388>:
    25c4:	43082507          	flw	fa0,1072(a6)
    25c8:	43482587          	flw	fa1,1076(a6)
    25cc:	a0b51653          	flt.s	a2,fa0,fa1
    25d0:	001028f3          	frflags	a7
    25d4:	3ac7ac23          	sw	a2,952(a5)
    25d8:	3b17ae23          	sw	a7,956(a5)

000025dc <inst_389>:
    25dc:	43882507          	flw	fa0,1080(a6)
    25e0:	43c82587          	flw	fa1,1084(a6)
    25e4:	a0b51653          	flt.s	a2,fa0,fa1
    25e8:	001028f3          	frflags	a7
    25ec:	3cc7a023          	sw	a2,960(a5)
    25f0:	3d17a223          	sw	a7,964(a5)

000025f4 <inst_390>:
    25f4:	44082507          	flw	fa0,1088(a6)
    25f8:	44482587          	flw	fa1,1092(a6)
    25fc:	a0b51653          	flt.s	a2,fa0,fa1
    2600:	001028f3          	frflags	a7
    2604:	3cc7a423          	sw	a2,968(a5)
    2608:	3d17a623          	sw	a7,972(a5)

0000260c <inst_391>:
    260c:	44882507          	flw	fa0,1096(a6)
    2610:	44c82587          	flw	fa1,1100(a6)
    2614:	a0b51653          	flt.s	a2,fa0,fa1
    2618:	001028f3          	frflags	a7
    261c:	3cc7a823          	sw	a2,976(a5)
    2620:	3d17aa23          	sw	a7,980(a5)

00002624 <inst_392>:
    2624:	45082507          	flw	fa0,1104(a6)
    2628:	45482587          	flw	fa1,1108(a6)
    262c:	a0b51653          	flt.s	a2,fa0,fa1
    2630:	001028f3          	frflags	a7
    2634:	3cc7ac23          	sw	a2,984(a5)
    2638:	3d17ae23          	sw	a7,988(a5)

0000263c <inst_393>:
    263c:	45882507          	flw	fa0,1112(a6)
    2640:	45c82587          	flw	fa1,1116(a6)
    2644:	a0b51653          	flt.s	a2,fa0,fa1
    2648:	001028f3          	frflags	a7
    264c:	3ec7a023          	sw	a2,992(a5)
    2650:	3f17a223          	sw	a7,996(a5)

00002654 <inst_394>:
    2654:	46082507          	flw	fa0,1120(a6)
    2658:	46482587          	flw	fa1,1124(a6)
    265c:	a0b51653          	flt.s	a2,fa0,fa1
    2660:	001028f3          	frflags	a7
    2664:	3ec7a423          	sw	a2,1000(a5)
    2668:	3f17a623          	sw	a7,1004(a5)

0000266c <inst_395>:
    266c:	46882507          	flw	fa0,1128(a6)
    2670:	46c82587          	flw	fa1,1132(a6)
    2674:	a0b51653          	flt.s	a2,fa0,fa1
    2678:	001028f3          	frflags	a7
    267c:	3ec7a823          	sw	a2,1008(a5)
    2680:	3f17aa23          	sw	a7,1012(a5)

00002684 <inst_396>:
    2684:	47082507          	flw	fa0,1136(a6)
    2688:	47482587          	flw	fa1,1140(a6)
    268c:	a0b51653          	flt.s	a2,fa0,fa1
    2690:	001028f3          	frflags	a7
    2694:	3ec7ac23          	sw	a2,1016(a5)
    2698:	3f17ae23          	sw	a7,1020(a5)

0000269c <inst_397>:
    269c:	47882507          	flw	fa0,1144(a6)
    26a0:	47c82587          	flw	fa1,1148(a6)
    26a4:	a0b51653          	flt.s	a2,fa0,fa1
    26a8:	001028f3          	frflags	a7
    26ac:	40c7a023          	sw	a2,1024(a5)
    26b0:	4117a223          	sw	a7,1028(a5)

000026b4 <inst_398>:
    26b4:	48082507          	flw	fa0,1152(a6)
    26b8:	48482587          	flw	fa1,1156(a6)
    26bc:	a0b51653          	flt.s	a2,fa0,fa1
    26c0:	001028f3          	frflags	a7
    26c4:	40c7a423          	sw	a2,1032(a5)
    26c8:	4117a623          	sw	a7,1036(a5)

000026cc <inst_399>:
    26cc:	48882507          	flw	fa0,1160(a6)
    26d0:	48c82587          	flw	fa1,1164(a6)
    26d4:	a0b51653          	flt.s	a2,fa0,fa1
    26d8:	001028f3          	frflags	a7
    26dc:	40c7a823          	sw	a2,1040(a5)
    26e0:	4117aa23          	sw	a7,1044(a5)

000026e4 <inst_400>:
    26e4:	49082507          	flw	fa0,1168(a6)
    26e8:	49482587          	flw	fa1,1172(a6)
    26ec:	a0b51653          	flt.s	a2,fa0,fa1
    26f0:	001028f3          	frflags	a7
    26f4:	40c7ac23          	sw	a2,1048(a5)
    26f8:	4117ae23          	sw	a7,1052(a5)

000026fc <inst_401>:
    26fc:	49882507          	flw	fa0,1176(a6)
    2700:	49c82587          	flw	fa1,1180(a6)
    2704:	a0b51653          	flt.s	a2,fa0,fa1
    2708:	001028f3          	frflags	a7
    270c:	42c7a023          	sw	a2,1056(a5)
    2710:	4317a223          	sw	a7,1060(a5)

00002714 <inst_402>:
    2714:	4a082507          	flw	fa0,1184(a6)
    2718:	4a482587          	flw	fa1,1188(a6)
    271c:	a0b51653          	flt.s	a2,fa0,fa1
    2720:	001028f3          	frflags	a7
    2724:	42c7a423          	sw	a2,1064(a5)
    2728:	4317a623          	sw	a7,1068(a5)

0000272c <inst_403>:
    272c:	4a882507          	flw	fa0,1192(a6)
    2730:	4ac82587          	flw	fa1,1196(a6)
    2734:	a0b51653          	flt.s	a2,fa0,fa1
    2738:	001028f3          	frflags	a7
    273c:	42c7a823          	sw	a2,1072(a5)
    2740:	4317aa23          	sw	a7,1076(a5)

00002744 <inst_404>:
    2744:	4b082507          	flw	fa0,1200(a6)
    2748:	4b482587          	flw	fa1,1204(a6)
    274c:	a0b51653          	flt.s	a2,fa0,fa1
    2750:	001028f3          	frflags	a7
    2754:	42c7ac23          	sw	a2,1080(a5)
    2758:	4317ae23          	sw	a7,1084(a5)

0000275c <inst_405>:
    275c:	4b882507          	flw	fa0,1208(a6)
    2760:	4bc82587          	flw	fa1,1212(a6)
    2764:	a0b51653          	flt.s	a2,fa0,fa1
    2768:	001028f3          	frflags	a7
    276c:	44c7a023          	sw	a2,1088(a5)
    2770:	4517a223          	sw	a7,1092(a5)

00002774 <inst_406>:
    2774:	4c082507          	flw	fa0,1216(a6)
    2778:	4c482587          	flw	fa1,1220(a6)
    277c:	a0b51653          	flt.s	a2,fa0,fa1
    2780:	001028f3          	frflags	a7
    2784:	44c7a423          	sw	a2,1096(a5)
    2788:	4517a623          	sw	a7,1100(a5)

0000278c <inst_407>:
    278c:	4c882507          	flw	fa0,1224(a6)
    2790:	4cc82587          	flw	fa1,1228(a6)
    2794:	a0b51653          	flt.s	a2,fa0,fa1
    2798:	001028f3          	frflags	a7
    279c:	44c7a823          	sw	a2,1104(a5)
    27a0:	4517aa23          	sw	a7,1108(a5)

000027a4 <inst_408>:
    27a4:	4d082507          	flw	fa0,1232(a6)
    27a8:	4d482587          	flw	fa1,1236(a6)
    27ac:	a0b51653          	flt.s	a2,fa0,fa1
    27b0:	001028f3          	frflags	a7
    27b4:	44c7ac23          	sw	a2,1112(a5)
    27b8:	4517ae23          	sw	a7,1116(a5)

000027bc <inst_409>:
    27bc:	4d882507          	flw	fa0,1240(a6)
    27c0:	4dc82587          	flw	fa1,1244(a6)
    27c4:	a0b51653          	flt.s	a2,fa0,fa1
    27c8:	001028f3          	frflags	a7
    27cc:	46c7a023          	sw	a2,1120(a5)
    27d0:	4717a223          	sw	a7,1124(a5)

000027d4 <inst_410>:
    27d4:	4e082507          	flw	fa0,1248(a6)
    27d8:	4e482587          	flw	fa1,1252(a6)
    27dc:	a0b51653          	flt.s	a2,fa0,fa1
    27e0:	001028f3          	frflags	a7
    27e4:	46c7a423          	sw	a2,1128(a5)
    27e8:	4717a623          	sw	a7,1132(a5)

000027ec <inst_411>:
    27ec:	4e882507          	flw	fa0,1256(a6)
    27f0:	4ec82587          	flw	fa1,1260(a6)
    27f4:	a0b51653          	flt.s	a2,fa0,fa1
    27f8:	001028f3          	frflags	a7
    27fc:	46c7a823          	sw	a2,1136(a5)
    2800:	4717aa23          	sw	a7,1140(a5)

00002804 <inst_412>:
    2804:	4f082507          	flw	fa0,1264(a6)
    2808:	4f482587          	flw	fa1,1268(a6)
    280c:	a0b51653          	flt.s	a2,fa0,fa1
    2810:	001028f3          	frflags	a7
    2814:	46c7ac23          	sw	a2,1144(a5)
    2818:	4717ae23          	sw	a7,1148(a5)

0000281c <inst_413>:
    281c:	4f882507          	flw	fa0,1272(a6)
    2820:	4fc82587          	flw	fa1,1276(a6)
    2824:	a0b51653          	flt.s	a2,fa0,fa1
    2828:	001028f3          	frflags	a7
    282c:	48c7a023          	sw	a2,1152(a5)
    2830:	4917a223          	sw	a7,1156(a5)

00002834 <inst_414>:
    2834:	50082507          	flw	fa0,1280(a6)
    2838:	50482587          	flw	fa1,1284(a6)
    283c:	a0b51653          	flt.s	a2,fa0,fa1
    2840:	001028f3          	frflags	a7
    2844:	48c7a423          	sw	a2,1160(a5)
    2848:	4917a623          	sw	a7,1164(a5)

0000284c <inst_415>:
    284c:	50882507          	flw	fa0,1288(a6)
    2850:	50c82587          	flw	fa1,1292(a6)
    2854:	a0b51653          	flt.s	a2,fa0,fa1
    2858:	001028f3          	frflags	a7
    285c:	48c7a823          	sw	a2,1168(a5)
    2860:	4917aa23          	sw	a7,1172(a5)

00002864 <inst_416>:
    2864:	51082507          	flw	fa0,1296(a6)
    2868:	51482587          	flw	fa1,1300(a6)
    286c:	a0b51653          	flt.s	a2,fa0,fa1
    2870:	001028f3          	frflags	a7
    2874:	48c7ac23          	sw	a2,1176(a5)
    2878:	4917ae23          	sw	a7,1180(a5)

0000287c <inst_417>:
    287c:	51882507          	flw	fa0,1304(a6)
    2880:	51c82587          	flw	fa1,1308(a6)
    2884:	a0b51653          	flt.s	a2,fa0,fa1
    2888:	001028f3          	frflags	a7
    288c:	4ac7a023          	sw	a2,1184(a5)
    2890:	4b17a223          	sw	a7,1188(a5)

00002894 <inst_418>:
    2894:	52082507          	flw	fa0,1312(a6)
    2898:	52482587          	flw	fa1,1316(a6)
    289c:	a0b51653          	flt.s	a2,fa0,fa1
    28a0:	001028f3          	frflags	a7
    28a4:	4ac7a423          	sw	a2,1192(a5)
    28a8:	4b17a623          	sw	a7,1196(a5)

000028ac <inst_419>:
    28ac:	52882507          	flw	fa0,1320(a6)
    28b0:	52c82587          	flw	fa1,1324(a6)
    28b4:	a0b51653          	flt.s	a2,fa0,fa1
    28b8:	001028f3          	frflags	a7
    28bc:	4ac7a823          	sw	a2,1200(a5)
    28c0:	4b17aa23          	sw	a7,1204(a5)

000028c4 <inst_420>:
    28c4:	53082507          	flw	fa0,1328(a6)
    28c8:	53482587          	flw	fa1,1332(a6)
    28cc:	a0b51653          	flt.s	a2,fa0,fa1
    28d0:	001028f3          	frflags	a7
    28d4:	4ac7ac23          	sw	a2,1208(a5)
    28d8:	4b17ae23          	sw	a7,1212(a5)

000028dc <inst_421>:
    28dc:	53882507          	flw	fa0,1336(a6)
    28e0:	53c82587          	flw	fa1,1340(a6)
    28e4:	a0b51653          	flt.s	a2,fa0,fa1
    28e8:	001028f3          	frflags	a7
    28ec:	4cc7a023          	sw	a2,1216(a5)
    28f0:	4d17a223          	sw	a7,1220(a5)

000028f4 <inst_422>:
    28f4:	54082507          	flw	fa0,1344(a6)
    28f8:	54482587          	flw	fa1,1348(a6)
    28fc:	a0b51653          	flt.s	a2,fa0,fa1
    2900:	001028f3          	frflags	a7
    2904:	4cc7a423          	sw	a2,1224(a5)
    2908:	4d17a623          	sw	a7,1228(a5)

0000290c <inst_423>:
    290c:	54882507          	flw	fa0,1352(a6)
    2910:	54c82587          	flw	fa1,1356(a6)
    2914:	a0b51653          	flt.s	a2,fa0,fa1
    2918:	001028f3          	frflags	a7
    291c:	4cc7a823          	sw	a2,1232(a5)
    2920:	4d17aa23          	sw	a7,1236(a5)

00002924 <inst_424>:
    2924:	55082507          	flw	fa0,1360(a6)
    2928:	55482587          	flw	fa1,1364(a6)
    292c:	a0b51653          	flt.s	a2,fa0,fa1
    2930:	001028f3          	frflags	a7
    2934:	4cc7ac23          	sw	a2,1240(a5)
    2938:	4d17ae23          	sw	a7,1244(a5)

0000293c <inst_425>:
    293c:	55882507          	flw	fa0,1368(a6)
    2940:	55c82587          	flw	fa1,1372(a6)
    2944:	a0b51653          	flt.s	a2,fa0,fa1
    2948:	001028f3          	frflags	a7
    294c:	4ec7a023          	sw	a2,1248(a5)
    2950:	4f17a223          	sw	a7,1252(a5)

00002954 <inst_426>:
    2954:	56082507          	flw	fa0,1376(a6)
    2958:	56482587          	flw	fa1,1380(a6)
    295c:	a0b51653          	flt.s	a2,fa0,fa1
    2960:	001028f3          	frflags	a7
    2964:	4ec7a423          	sw	a2,1256(a5)
    2968:	4f17a623          	sw	a7,1260(a5)

0000296c <inst_427>:
    296c:	56882507          	flw	fa0,1384(a6)
    2970:	56c82587          	flw	fa1,1388(a6)
    2974:	a0b51653          	flt.s	a2,fa0,fa1
    2978:	001028f3          	frflags	a7
    297c:	4ec7a823          	sw	a2,1264(a5)
    2980:	4f17aa23          	sw	a7,1268(a5)

00002984 <inst_428>:
    2984:	57082507          	flw	fa0,1392(a6)
    2988:	57482587          	flw	fa1,1396(a6)
    298c:	a0b51653          	flt.s	a2,fa0,fa1
    2990:	001028f3          	frflags	a7
    2994:	4ec7ac23          	sw	a2,1272(a5)
    2998:	4f17ae23          	sw	a7,1276(a5)

0000299c <inst_429>:
    299c:	57882507          	flw	fa0,1400(a6)
    29a0:	57c82587          	flw	fa1,1404(a6)
    29a4:	a0b51653          	flt.s	a2,fa0,fa1
    29a8:	001028f3          	frflags	a7
    29ac:	50c7a023          	sw	a2,1280(a5)
    29b0:	5117a223          	sw	a7,1284(a5)

000029b4 <inst_430>:
    29b4:	58082507          	flw	fa0,1408(a6)
    29b8:	58482587          	flw	fa1,1412(a6)
    29bc:	a0b51653          	flt.s	a2,fa0,fa1
    29c0:	001028f3          	frflags	a7
    29c4:	50c7a423          	sw	a2,1288(a5)
    29c8:	5117a623          	sw	a7,1292(a5)

000029cc <inst_431>:
    29cc:	58882507          	flw	fa0,1416(a6)
    29d0:	58c82587          	flw	fa1,1420(a6)
    29d4:	a0b51653          	flt.s	a2,fa0,fa1
    29d8:	001028f3          	frflags	a7
    29dc:	50c7a823          	sw	a2,1296(a5)
    29e0:	5117aa23          	sw	a7,1300(a5)

000029e4 <inst_432>:
    29e4:	59082507          	flw	fa0,1424(a6)
    29e8:	59482587          	flw	fa1,1428(a6)
    29ec:	a0b51653          	flt.s	a2,fa0,fa1
    29f0:	001028f3          	frflags	a7
    29f4:	50c7ac23          	sw	a2,1304(a5)
    29f8:	5117ae23          	sw	a7,1308(a5)

000029fc <inst_433>:
    29fc:	59882507          	flw	fa0,1432(a6)
    2a00:	59c82587          	flw	fa1,1436(a6)
    2a04:	a0b51653          	flt.s	a2,fa0,fa1
    2a08:	001028f3          	frflags	a7
    2a0c:	52c7a023          	sw	a2,1312(a5)
    2a10:	5317a223          	sw	a7,1316(a5)

00002a14 <inst_434>:
    2a14:	5a082507          	flw	fa0,1440(a6)
    2a18:	5a482587          	flw	fa1,1444(a6)
    2a1c:	a0b51653          	flt.s	a2,fa0,fa1
    2a20:	001028f3          	frflags	a7
    2a24:	52c7a423          	sw	a2,1320(a5)
    2a28:	5317a623          	sw	a7,1324(a5)

00002a2c <inst_435>:
    2a2c:	5a882507          	flw	fa0,1448(a6)
    2a30:	5ac82587          	flw	fa1,1452(a6)
    2a34:	a0b51653          	flt.s	a2,fa0,fa1
    2a38:	001028f3          	frflags	a7
    2a3c:	52c7a823          	sw	a2,1328(a5)
    2a40:	5317aa23          	sw	a7,1332(a5)

00002a44 <inst_436>:
    2a44:	5b082507          	flw	fa0,1456(a6)
    2a48:	5b482587          	flw	fa1,1460(a6)
    2a4c:	a0b51653          	flt.s	a2,fa0,fa1
    2a50:	001028f3          	frflags	a7
    2a54:	52c7ac23          	sw	a2,1336(a5)
    2a58:	5317ae23          	sw	a7,1340(a5)

00002a5c <inst_437>:
    2a5c:	5b882507          	flw	fa0,1464(a6)
    2a60:	5bc82587          	flw	fa1,1468(a6)
    2a64:	a0b51653          	flt.s	a2,fa0,fa1
    2a68:	001028f3          	frflags	a7
    2a6c:	54c7a023          	sw	a2,1344(a5)
    2a70:	5517a223          	sw	a7,1348(a5)

00002a74 <inst_438>:
    2a74:	5c082507          	flw	fa0,1472(a6)
    2a78:	5c482587          	flw	fa1,1476(a6)
    2a7c:	a0b51653          	flt.s	a2,fa0,fa1
    2a80:	001028f3          	frflags	a7
    2a84:	54c7a423          	sw	a2,1352(a5)
    2a88:	5517a623          	sw	a7,1356(a5)

00002a8c <inst_439>:
    2a8c:	5c882507          	flw	fa0,1480(a6)
    2a90:	5cc82587          	flw	fa1,1484(a6)
    2a94:	a0b51653          	flt.s	a2,fa0,fa1
    2a98:	001028f3          	frflags	a7
    2a9c:	54c7a823          	sw	a2,1360(a5)
    2aa0:	5517aa23          	sw	a7,1364(a5)

00002aa4 <inst_440>:
    2aa4:	5d082507          	flw	fa0,1488(a6)
    2aa8:	5d482587          	flw	fa1,1492(a6)
    2aac:	a0b51653          	flt.s	a2,fa0,fa1
    2ab0:	001028f3          	frflags	a7
    2ab4:	54c7ac23          	sw	a2,1368(a5)
    2ab8:	5517ae23          	sw	a7,1372(a5)

00002abc <inst_441>:
    2abc:	5d882507          	flw	fa0,1496(a6)
    2ac0:	5dc82587          	flw	fa1,1500(a6)
    2ac4:	a0b51653          	flt.s	a2,fa0,fa1
    2ac8:	001028f3          	frflags	a7
    2acc:	56c7a023          	sw	a2,1376(a5)
    2ad0:	5717a223          	sw	a7,1380(a5)

00002ad4 <inst_442>:
    2ad4:	5e082507          	flw	fa0,1504(a6)
    2ad8:	5e482587          	flw	fa1,1508(a6)
    2adc:	a0b51653          	flt.s	a2,fa0,fa1
    2ae0:	001028f3          	frflags	a7
    2ae4:	56c7a423          	sw	a2,1384(a5)
    2ae8:	5717a623          	sw	a7,1388(a5)

00002aec <inst_443>:
    2aec:	5e882507          	flw	fa0,1512(a6)
    2af0:	5ec82587          	flw	fa1,1516(a6)
    2af4:	a0b51653          	flt.s	a2,fa0,fa1
    2af8:	001028f3          	frflags	a7
    2afc:	56c7a823          	sw	a2,1392(a5)
    2b00:	5717aa23          	sw	a7,1396(a5)

00002b04 <inst_444>:
    2b04:	5f082507          	flw	fa0,1520(a6)
    2b08:	5f482587          	flw	fa1,1524(a6)
    2b0c:	a0b51653          	flt.s	a2,fa0,fa1
    2b10:	001028f3          	frflags	a7
    2b14:	56c7ac23          	sw	a2,1400(a5)
    2b18:	5717ae23          	sw	a7,1404(a5)

00002b1c <inst_445>:
    2b1c:	5f882507          	flw	fa0,1528(a6)
    2b20:	5fc82587          	flw	fa1,1532(a6)
    2b24:	a0b51653          	flt.s	a2,fa0,fa1
    2b28:	001028f3          	frflags	a7
    2b2c:	58c7a023          	sw	a2,1408(a5)
    2b30:	5917a223          	sw	a7,1412(a5)

00002b34 <inst_446>:
    2b34:	60082507          	flw	fa0,1536(a6)
    2b38:	60482587          	flw	fa1,1540(a6)
    2b3c:	a0b51653          	flt.s	a2,fa0,fa1
    2b40:	001028f3          	frflags	a7
    2b44:	58c7a423          	sw	a2,1416(a5)
    2b48:	5917a623          	sw	a7,1420(a5)

00002b4c <inst_447>:
    2b4c:	60882507          	flw	fa0,1544(a6)
    2b50:	60c82587          	flw	fa1,1548(a6)
    2b54:	a0b51653          	flt.s	a2,fa0,fa1
    2b58:	001028f3          	frflags	a7
    2b5c:	58c7a823          	sw	a2,1424(a5)
    2b60:	5917aa23          	sw	a7,1428(a5)

00002b64 <inst_448>:
    2b64:	61082507          	flw	fa0,1552(a6)
    2b68:	61482587          	flw	fa1,1556(a6)
    2b6c:	a0b51653          	flt.s	a2,fa0,fa1
    2b70:	001028f3          	frflags	a7
    2b74:	58c7ac23          	sw	a2,1432(a5)
    2b78:	5917ae23          	sw	a7,1436(a5)

00002b7c <inst_449>:
    2b7c:	61882507          	flw	fa0,1560(a6)
    2b80:	61c82587          	flw	fa1,1564(a6)
    2b84:	a0b51653          	flt.s	a2,fa0,fa1
    2b88:	001028f3          	frflags	a7
    2b8c:	5ac7a023          	sw	a2,1440(a5)
    2b90:	5b17a223          	sw	a7,1444(a5)

00002b94 <inst_450>:
    2b94:	62082507          	flw	fa0,1568(a6)
    2b98:	62482587          	flw	fa1,1572(a6)
    2b9c:	a0b51653          	flt.s	a2,fa0,fa1
    2ba0:	001028f3          	frflags	a7
    2ba4:	5ac7a423          	sw	a2,1448(a5)
    2ba8:	5b17a623          	sw	a7,1452(a5)

00002bac <inst_451>:
    2bac:	62882507          	flw	fa0,1576(a6)
    2bb0:	62c82587          	flw	fa1,1580(a6)
    2bb4:	a0b51653          	flt.s	a2,fa0,fa1
    2bb8:	001028f3          	frflags	a7
    2bbc:	5ac7a823          	sw	a2,1456(a5)
    2bc0:	5b17aa23          	sw	a7,1460(a5)

00002bc4 <inst_452>:
    2bc4:	63082507          	flw	fa0,1584(a6)
    2bc8:	63482587          	flw	fa1,1588(a6)
    2bcc:	a0b51653          	flt.s	a2,fa0,fa1
    2bd0:	001028f3          	frflags	a7
    2bd4:	5ac7ac23          	sw	a2,1464(a5)
    2bd8:	5b17ae23          	sw	a7,1468(a5)

00002bdc <inst_453>:
    2bdc:	63882507          	flw	fa0,1592(a6)
    2be0:	63c82587          	flw	fa1,1596(a6)
    2be4:	a0b51653          	flt.s	a2,fa0,fa1
    2be8:	001028f3          	frflags	a7
    2bec:	5cc7a023          	sw	a2,1472(a5)
    2bf0:	5d17a223          	sw	a7,1476(a5)

00002bf4 <inst_454>:
    2bf4:	64082507          	flw	fa0,1600(a6)
    2bf8:	64482587          	flw	fa1,1604(a6)
    2bfc:	a0b51653          	flt.s	a2,fa0,fa1
    2c00:	001028f3          	frflags	a7
    2c04:	5cc7a423          	sw	a2,1480(a5)
    2c08:	5d17a623          	sw	a7,1484(a5)

00002c0c <inst_455>:
    2c0c:	64882507          	flw	fa0,1608(a6)
    2c10:	64c82587          	flw	fa1,1612(a6)
    2c14:	a0b51653          	flt.s	a2,fa0,fa1
    2c18:	001028f3          	frflags	a7
    2c1c:	5cc7a823          	sw	a2,1488(a5)
    2c20:	5d17aa23          	sw	a7,1492(a5)

00002c24 <inst_456>:
    2c24:	65082507          	flw	fa0,1616(a6)
    2c28:	65482587          	flw	fa1,1620(a6)
    2c2c:	a0b51653          	flt.s	a2,fa0,fa1
    2c30:	001028f3          	frflags	a7
    2c34:	5cc7ac23          	sw	a2,1496(a5)
    2c38:	5d17ae23          	sw	a7,1500(a5)

00002c3c <inst_457>:
    2c3c:	65882507          	flw	fa0,1624(a6)
    2c40:	65c82587          	flw	fa1,1628(a6)
    2c44:	a0b51653          	flt.s	a2,fa0,fa1
    2c48:	001028f3          	frflags	a7
    2c4c:	5ec7a023          	sw	a2,1504(a5)
    2c50:	5f17a223          	sw	a7,1508(a5)

00002c54 <inst_458>:
    2c54:	66082507          	flw	fa0,1632(a6)
    2c58:	66482587          	flw	fa1,1636(a6)
    2c5c:	a0b51653          	flt.s	a2,fa0,fa1
    2c60:	001028f3          	frflags	a7
    2c64:	5ec7a423          	sw	a2,1512(a5)
    2c68:	5f17a623          	sw	a7,1516(a5)

00002c6c <inst_459>:
    2c6c:	66882507          	flw	fa0,1640(a6)
    2c70:	66c82587          	flw	fa1,1644(a6)
    2c74:	a0b51653          	flt.s	a2,fa0,fa1
    2c78:	001028f3          	frflags	a7
    2c7c:	5ec7a823          	sw	a2,1520(a5)
    2c80:	5f17aa23          	sw	a7,1524(a5)

00002c84 <inst_460>:
    2c84:	67082507          	flw	fa0,1648(a6)
    2c88:	67482587          	flw	fa1,1652(a6)
    2c8c:	a0b51653          	flt.s	a2,fa0,fa1
    2c90:	001028f3          	frflags	a7
    2c94:	5ec7ac23          	sw	a2,1528(a5)
    2c98:	5f17ae23          	sw	a7,1532(a5)

00002c9c <inst_461>:
    2c9c:	67882507          	flw	fa0,1656(a6)
    2ca0:	67c82587          	flw	fa1,1660(a6)
    2ca4:	a0b51653          	flt.s	a2,fa0,fa1
    2ca8:	001028f3          	frflags	a7
    2cac:	60c7a023          	sw	a2,1536(a5)
    2cb0:	6117a223          	sw	a7,1540(a5)

00002cb4 <inst_462>:
    2cb4:	68082507          	flw	fa0,1664(a6)
    2cb8:	68482587          	flw	fa1,1668(a6)
    2cbc:	a0b51653          	flt.s	a2,fa0,fa1
    2cc0:	001028f3          	frflags	a7
    2cc4:	60c7a423          	sw	a2,1544(a5)
    2cc8:	6117a623          	sw	a7,1548(a5)

00002ccc <inst_463>:
    2ccc:	68882507          	flw	fa0,1672(a6)
    2cd0:	68c82587          	flw	fa1,1676(a6)
    2cd4:	a0b51653          	flt.s	a2,fa0,fa1
    2cd8:	001028f3          	frflags	a7
    2cdc:	60c7a823          	sw	a2,1552(a5)
    2ce0:	6117aa23          	sw	a7,1556(a5)

00002ce4 <inst_464>:
    2ce4:	69082507          	flw	fa0,1680(a6)
    2ce8:	69482587          	flw	fa1,1684(a6)
    2cec:	a0b51653          	flt.s	a2,fa0,fa1
    2cf0:	001028f3          	frflags	a7
    2cf4:	60c7ac23          	sw	a2,1560(a5)
    2cf8:	6117ae23          	sw	a7,1564(a5)

00002cfc <inst_465>:
    2cfc:	69882507          	flw	fa0,1688(a6)
    2d00:	69c82587          	flw	fa1,1692(a6)
    2d04:	a0b51653          	flt.s	a2,fa0,fa1
    2d08:	001028f3          	frflags	a7
    2d0c:	62c7a023          	sw	a2,1568(a5)
    2d10:	6317a223          	sw	a7,1572(a5)

00002d14 <inst_466>:
    2d14:	6a082507          	flw	fa0,1696(a6)
    2d18:	6a482587          	flw	fa1,1700(a6)
    2d1c:	a0b51653          	flt.s	a2,fa0,fa1
    2d20:	001028f3          	frflags	a7
    2d24:	62c7a423          	sw	a2,1576(a5)
    2d28:	6317a623          	sw	a7,1580(a5)

00002d2c <inst_467>:
    2d2c:	6a882507          	flw	fa0,1704(a6)
    2d30:	6ac82587          	flw	fa1,1708(a6)
    2d34:	a0b51653          	flt.s	a2,fa0,fa1
    2d38:	001028f3          	frflags	a7
    2d3c:	62c7a823          	sw	a2,1584(a5)
    2d40:	6317aa23          	sw	a7,1588(a5)

00002d44 <inst_468>:
    2d44:	6b082507          	flw	fa0,1712(a6)
    2d48:	6b482587          	flw	fa1,1716(a6)
    2d4c:	a0b51653          	flt.s	a2,fa0,fa1
    2d50:	001028f3          	frflags	a7
    2d54:	62c7ac23          	sw	a2,1592(a5)
    2d58:	6317ae23          	sw	a7,1596(a5)

00002d5c <inst_469>:
    2d5c:	6b882507          	flw	fa0,1720(a6)
    2d60:	6bc82587          	flw	fa1,1724(a6)
    2d64:	a0b51653          	flt.s	a2,fa0,fa1
    2d68:	001028f3          	frflags	a7
    2d6c:	64c7a023          	sw	a2,1600(a5)
    2d70:	6517a223          	sw	a7,1604(a5)

00002d74 <inst_470>:
    2d74:	6c082507          	flw	fa0,1728(a6)
    2d78:	6c482587          	flw	fa1,1732(a6)
    2d7c:	a0b51653          	flt.s	a2,fa0,fa1
    2d80:	001028f3          	frflags	a7
    2d84:	64c7a423          	sw	a2,1608(a5)
    2d88:	6517a623          	sw	a7,1612(a5)

00002d8c <inst_471>:
    2d8c:	6c882507          	flw	fa0,1736(a6)
    2d90:	6cc82587          	flw	fa1,1740(a6)
    2d94:	a0b51653          	flt.s	a2,fa0,fa1
    2d98:	001028f3          	frflags	a7
    2d9c:	64c7a823          	sw	a2,1616(a5)
    2da0:	6517aa23          	sw	a7,1620(a5)

00002da4 <inst_472>:
    2da4:	6d082507          	flw	fa0,1744(a6)
    2da8:	6d482587          	flw	fa1,1748(a6)
    2dac:	a0b51653          	flt.s	a2,fa0,fa1
    2db0:	001028f3          	frflags	a7
    2db4:	64c7ac23          	sw	a2,1624(a5)
    2db8:	6517ae23          	sw	a7,1628(a5)

00002dbc <inst_473>:
    2dbc:	6d882507          	flw	fa0,1752(a6)
    2dc0:	6dc82587          	flw	fa1,1756(a6)
    2dc4:	a0b51653          	flt.s	a2,fa0,fa1
    2dc8:	001028f3          	frflags	a7
    2dcc:	66c7a023          	sw	a2,1632(a5)
    2dd0:	6717a223          	sw	a7,1636(a5)

00002dd4 <inst_474>:
    2dd4:	6e082507          	flw	fa0,1760(a6)
    2dd8:	6e482587          	flw	fa1,1764(a6)
    2ddc:	a0b51653          	flt.s	a2,fa0,fa1
    2de0:	001028f3          	frflags	a7
    2de4:	66c7a423          	sw	a2,1640(a5)
    2de8:	6717a623          	sw	a7,1644(a5)

00002dec <inst_475>:
    2dec:	6e882507          	flw	fa0,1768(a6)
    2df0:	6ec82587          	flw	fa1,1772(a6)
    2df4:	a0b51653          	flt.s	a2,fa0,fa1
    2df8:	001028f3          	frflags	a7
    2dfc:	66c7a823          	sw	a2,1648(a5)
    2e00:	6717aa23          	sw	a7,1652(a5)

00002e04 <inst_476>:
    2e04:	6f082507          	flw	fa0,1776(a6)
    2e08:	6f482587          	flw	fa1,1780(a6)
    2e0c:	a0b51653          	flt.s	a2,fa0,fa1
    2e10:	001028f3          	frflags	a7
    2e14:	66c7ac23          	sw	a2,1656(a5)
    2e18:	6717ae23          	sw	a7,1660(a5)

00002e1c <inst_477>:
    2e1c:	6f882507          	flw	fa0,1784(a6)
    2e20:	6fc82587          	flw	fa1,1788(a6)
    2e24:	a0b51653          	flt.s	a2,fa0,fa1
    2e28:	001028f3          	frflags	a7
    2e2c:	68c7a023          	sw	a2,1664(a5)
    2e30:	6917a223          	sw	a7,1668(a5)

00002e34 <inst_478>:
    2e34:	70082507          	flw	fa0,1792(a6)
    2e38:	70482587          	flw	fa1,1796(a6)
    2e3c:	a0b51653          	flt.s	a2,fa0,fa1
    2e40:	001028f3          	frflags	a7
    2e44:	68c7a423          	sw	a2,1672(a5)
    2e48:	6917a623          	sw	a7,1676(a5)

00002e4c <inst_479>:
    2e4c:	70882507          	flw	fa0,1800(a6)
    2e50:	70c82587          	flw	fa1,1804(a6)
    2e54:	a0b51653          	flt.s	a2,fa0,fa1
    2e58:	001028f3          	frflags	a7
    2e5c:	68c7a823          	sw	a2,1680(a5)
    2e60:	6917aa23          	sw	a7,1684(a5)

00002e64 <inst_480>:
    2e64:	71082507          	flw	fa0,1808(a6)
    2e68:	71482587          	flw	fa1,1812(a6)
    2e6c:	a0b51653          	flt.s	a2,fa0,fa1
    2e70:	001028f3          	frflags	a7
    2e74:	68c7ac23          	sw	a2,1688(a5)
    2e78:	6917ae23          	sw	a7,1692(a5)

00002e7c <inst_481>:
    2e7c:	71882507          	flw	fa0,1816(a6)
    2e80:	71c82587          	flw	fa1,1820(a6)
    2e84:	a0b51653          	flt.s	a2,fa0,fa1
    2e88:	001028f3          	frflags	a7
    2e8c:	6ac7a023          	sw	a2,1696(a5)
    2e90:	6b17a223          	sw	a7,1700(a5)

00002e94 <inst_482>:
    2e94:	72082507          	flw	fa0,1824(a6)
    2e98:	72482587          	flw	fa1,1828(a6)
    2e9c:	a0b51653          	flt.s	a2,fa0,fa1
    2ea0:	001028f3          	frflags	a7
    2ea4:	6ac7a423          	sw	a2,1704(a5)
    2ea8:	6b17a623          	sw	a7,1708(a5)

00002eac <inst_483>:
    2eac:	72882507          	flw	fa0,1832(a6)
    2eb0:	72c82587          	flw	fa1,1836(a6)
    2eb4:	a0b51653          	flt.s	a2,fa0,fa1
    2eb8:	001028f3          	frflags	a7
    2ebc:	6ac7a823          	sw	a2,1712(a5)
    2ec0:	6b17aa23          	sw	a7,1716(a5)

00002ec4 <inst_484>:
    2ec4:	73082507          	flw	fa0,1840(a6)
    2ec8:	73482587          	flw	fa1,1844(a6)
    2ecc:	a0b51653          	flt.s	a2,fa0,fa1
    2ed0:	001028f3          	frflags	a7
    2ed4:	6ac7ac23          	sw	a2,1720(a5)
    2ed8:	6b17ae23          	sw	a7,1724(a5)

00002edc <inst_485>:
    2edc:	73882507          	flw	fa0,1848(a6)
    2ee0:	73c82587          	flw	fa1,1852(a6)
    2ee4:	a0b51653          	flt.s	a2,fa0,fa1
    2ee8:	001028f3          	frflags	a7
    2eec:	6cc7a023          	sw	a2,1728(a5)
    2ef0:	6d17a223          	sw	a7,1732(a5)

00002ef4 <inst_486>:
    2ef4:	74082507          	flw	fa0,1856(a6)
    2ef8:	74482587          	flw	fa1,1860(a6)
    2efc:	a0b51653          	flt.s	a2,fa0,fa1
    2f00:	001028f3          	frflags	a7
    2f04:	6cc7a423          	sw	a2,1736(a5)
    2f08:	6d17a623          	sw	a7,1740(a5)

00002f0c <inst_487>:
    2f0c:	74882507          	flw	fa0,1864(a6)
    2f10:	74c82587          	flw	fa1,1868(a6)
    2f14:	a0b51653          	flt.s	a2,fa0,fa1
    2f18:	001028f3          	frflags	a7
    2f1c:	6cc7a823          	sw	a2,1744(a5)
    2f20:	6d17aa23          	sw	a7,1748(a5)

00002f24 <inst_488>:
    2f24:	75082507          	flw	fa0,1872(a6)
    2f28:	75482587          	flw	fa1,1876(a6)
    2f2c:	a0b51653          	flt.s	a2,fa0,fa1
    2f30:	001028f3          	frflags	a7
    2f34:	6cc7ac23          	sw	a2,1752(a5)
    2f38:	6d17ae23          	sw	a7,1756(a5)

00002f3c <inst_489>:
    2f3c:	75882507          	flw	fa0,1880(a6)
    2f40:	75c82587          	flw	fa1,1884(a6)
    2f44:	a0b51653          	flt.s	a2,fa0,fa1
    2f48:	001028f3          	frflags	a7
    2f4c:	6ec7a023          	sw	a2,1760(a5)
    2f50:	6f17a223          	sw	a7,1764(a5)

00002f54 <inst_490>:
    2f54:	76082507          	flw	fa0,1888(a6)
    2f58:	76482587          	flw	fa1,1892(a6)
    2f5c:	a0b51653          	flt.s	a2,fa0,fa1
    2f60:	001028f3          	frflags	a7
    2f64:	6ec7a423          	sw	a2,1768(a5)
    2f68:	6f17a623          	sw	a7,1772(a5)

00002f6c <inst_491>:
    2f6c:	76882507          	flw	fa0,1896(a6)
    2f70:	76c82587          	flw	fa1,1900(a6)
    2f74:	a0b51653          	flt.s	a2,fa0,fa1
    2f78:	001028f3          	frflags	a7
    2f7c:	6ec7a823          	sw	a2,1776(a5)
    2f80:	6f17aa23          	sw	a7,1780(a5)

00002f84 <inst_492>:
    2f84:	77082507          	flw	fa0,1904(a6)
    2f88:	77482587          	flw	fa1,1908(a6)
    2f8c:	a0b51653          	flt.s	a2,fa0,fa1
    2f90:	001028f3          	frflags	a7
    2f94:	6ec7ac23          	sw	a2,1784(a5)
    2f98:	6f17ae23          	sw	a7,1788(a5)

00002f9c <inst_493>:
    2f9c:	77882507          	flw	fa0,1912(a6)
    2fa0:	77c82587          	flw	fa1,1916(a6)
    2fa4:	a0b51653          	flt.s	a2,fa0,fa1
    2fa8:	001028f3          	frflags	a7
    2fac:	70c7a023          	sw	a2,1792(a5)
    2fb0:	7117a223          	sw	a7,1796(a5)

00002fb4 <inst_494>:
    2fb4:	78082507          	flw	fa0,1920(a6)
    2fb8:	78482587          	flw	fa1,1924(a6)
    2fbc:	a0b51653          	flt.s	a2,fa0,fa1
    2fc0:	001028f3          	frflags	a7
    2fc4:	70c7a423          	sw	a2,1800(a5)
    2fc8:	7117a623          	sw	a7,1804(a5)

00002fcc <inst_495>:
    2fcc:	78882507          	flw	fa0,1928(a6)
    2fd0:	78c82587          	flw	fa1,1932(a6)
    2fd4:	a0b51653          	flt.s	a2,fa0,fa1
    2fd8:	001028f3          	frflags	a7
    2fdc:	70c7a823          	sw	a2,1808(a5)
    2fe0:	7117aa23          	sw	a7,1812(a5)

00002fe4 <inst_496>:
    2fe4:	79082507          	flw	fa0,1936(a6)
    2fe8:	79482587          	flw	fa1,1940(a6)
    2fec:	a0b51653          	flt.s	a2,fa0,fa1
    2ff0:	001028f3          	frflags	a7
    2ff4:	70c7ac23          	sw	a2,1816(a5)
    2ff8:	7117ae23          	sw	a7,1820(a5)

00002ffc <inst_497>:
    2ffc:	79882507          	flw	fa0,1944(a6)
    3000:	79c82587          	flw	fa1,1948(a6)
    3004:	a0b51653          	flt.s	a2,fa0,fa1
    3008:	001028f3          	frflags	a7
    300c:	72c7a023          	sw	a2,1824(a5)
    3010:	7317a223          	sw	a7,1828(a5)

00003014 <inst_498>:
    3014:	7a082507          	flw	fa0,1952(a6)
    3018:	7a482587          	flw	fa1,1956(a6)
    301c:	a0b51653          	flt.s	a2,fa0,fa1
    3020:	001028f3          	frflags	a7
    3024:	72c7a423          	sw	a2,1832(a5)
    3028:	7317a623          	sw	a7,1836(a5)

0000302c <inst_499>:
    302c:	7a882507          	flw	fa0,1960(a6)
    3030:	7ac82587          	flw	fa1,1964(a6)
    3034:	a0b51653          	flt.s	a2,fa0,fa1
    3038:	001028f3          	frflags	a7
    303c:	72c7a823          	sw	a2,1840(a5)
    3040:	7317aa23          	sw	a7,1844(a5)

00003044 <inst_500>:
    3044:	7b082507          	flw	fa0,1968(a6)
    3048:	7b482587          	flw	fa1,1972(a6)
    304c:	a0b51653          	flt.s	a2,fa0,fa1
    3050:	001028f3          	frflags	a7
    3054:	72c7ac23          	sw	a2,1848(a5)
    3058:	7317ae23          	sw	a7,1852(a5)

0000305c <inst_501>:
    305c:	7b882507          	flw	fa0,1976(a6)
    3060:	7bc82587          	flw	fa1,1980(a6)
    3064:	a0b51653          	flt.s	a2,fa0,fa1
    3068:	001028f3          	frflags	a7
    306c:	74c7a023          	sw	a2,1856(a5)
    3070:	7517a223          	sw	a7,1860(a5)

00003074 <inst_502>:
    3074:	7c082507          	flw	fa0,1984(a6)
    3078:	7c482587          	flw	fa1,1988(a6)
    307c:	a0b51653          	flt.s	a2,fa0,fa1
    3080:	001028f3          	frflags	a7
    3084:	74c7a423          	sw	a2,1864(a5)
    3088:	7517a623          	sw	a7,1868(a5)

0000308c <inst_503>:
    308c:	7c882507          	flw	fa0,1992(a6)
    3090:	7cc82587          	flw	fa1,1996(a6)
    3094:	a0b51653          	flt.s	a2,fa0,fa1
    3098:	001028f3          	frflags	a7
    309c:	74c7a823          	sw	a2,1872(a5)
    30a0:	7517aa23          	sw	a7,1876(a5)

000030a4 <inst_504>:
    30a4:	7d082507          	flw	fa0,2000(a6)
    30a8:	7d482587          	flw	fa1,2004(a6)
    30ac:	a0b51653          	flt.s	a2,fa0,fa1
    30b0:	001028f3          	frflags	a7
    30b4:	74c7ac23          	sw	a2,1880(a5)
    30b8:	7517ae23          	sw	a7,1884(a5)

000030bc <inst_505>:
    30bc:	7d882507          	flw	fa0,2008(a6)
    30c0:	7dc82587          	flw	fa1,2012(a6)
    30c4:	a0b51653          	flt.s	a2,fa0,fa1
    30c8:	001028f3          	frflags	a7
    30cc:	76c7a023          	sw	a2,1888(a5)
    30d0:	7717a223          	sw	a7,1892(a5)

000030d4 <inst_506>:
    30d4:	7e082507          	flw	fa0,2016(a6)
    30d8:	7e482587          	flw	fa1,2020(a6)
    30dc:	a0b51653          	flt.s	a2,fa0,fa1
    30e0:	001028f3          	frflags	a7
    30e4:	76c7a423          	sw	a2,1896(a5)
    30e8:	7717a623          	sw	a7,1900(a5)

000030ec <inst_507>:
    30ec:	7e882507          	flw	fa0,2024(a6)
    30f0:	7ec82587          	flw	fa1,2028(a6)
    30f4:	a0b51653          	flt.s	a2,fa0,fa1
    30f8:	001028f3          	frflags	a7
    30fc:	76c7a823          	sw	a2,1904(a5)
    3100:	7717aa23          	sw	a7,1908(a5)
    3104:	7f080813          	add	a6,a6,2032

00003108 <inst_508>:
    3108:	00082507          	flw	fa0,0(a6)
    310c:	00482587          	flw	fa1,4(a6)
    3110:	a0b51653          	flt.s	a2,fa0,fa1
    3114:	001028f3          	frflags	a7
    3118:	76c7ac23          	sw	a2,1912(a5)
    311c:	7717ae23          	sw	a7,1916(a5)

00003120 <inst_509>:
    3120:	00882507          	flw	fa0,8(a6)
    3124:	00c82587          	flw	fa1,12(a6)
    3128:	a0b51653          	flt.s	a2,fa0,fa1
    312c:	001028f3          	frflags	a7
    3130:	78c7a023          	sw	a2,1920(a5)
    3134:	7917a223          	sw	a7,1924(a5)

00003138 <inst_510>:
    3138:	01082507          	flw	fa0,16(a6)
    313c:	01482587          	flw	fa1,20(a6)
    3140:	a0b51653          	flt.s	a2,fa0,fa1
    3144:	001028f3          	frflags	a7
    3148:	78c7a423          	sw	a2,1928(a5)
    314c:	7917a623          	sw	a7,1932(a5)

00003150 <inst_511>:
    3150:	01882507          	flw	fa0,24(a6)
    3154:	01c82587          	flw	fa1,28(a6)
    3158:	a0b51653          	flt.s	a2,fa0,fa1
    315c:	001028f3          	frflags	a7
    3160:	78c7a823          	sw	a2,1936(a5)
    3164:	7917aa23          	sw	a7,1940(a5)

00003168 <inst_512>:
    3168:	02082507          	flw	fa0,32(a6)
    316c:	02482587          	flw	fa1,36(a6)
    3170:	a0b51653          	flt.s	a2,fa0,fa1
    3174:	001028f3          	frflags	a7
    3178:	78c7ac23          	sw	a2,1944(a5)
    317c:	7917ae23          	sw	a7,1948(a5)

00003180 <inst_513>:
    3180:	02882507          	flw	fa0,40(a6)
    3184:	02c82587          	flw	fa1,44(a6)
    3188:	a0b51653          	flt.s	a2,fa0,fa1
    318c:	001028f3          	frflags	a7
    3190:	7ac7a023          	sw	a2,1952(a5)
    3194:	7b17a223          	sw	a7,1956(a5)

00003198 <inst_514>:
    3198:	03082507          	flw	fa0,48(a6)
    319c:	03482587          	flw	fa1,52(a6)
    31a0:	a0b51653          	flt.s	a2,fa0,fa1
    31a4:	001028f3          	frflags	a7
    31a8:	7ac7a423          	sw	a2,1960(a5)
    31ac:	7b17a623          	sw	a7,1964(a5)

000031b0 <inst_515>:
    31b0:	03882507          	flw	fa0,56(a6)
    31b4:	03c82587          	flw	fa1,60(a6)
    31b8:	a0b51653          	flt.s	a2,fa0,fa1
    31bc:	001028f3          	frflags	a7
    31c0:	7ac7a823          	sw	a2,1968(a5)
    31c4:	7b17aa23          	sw	a7,1972(a5)

000031c8 <inst_516>:
    31c8:	04082507          	flw	fa0,64(a6)
    31cc:	04482587          	flw	fa1,68(a6)
    31d0:	a0b51653          	flt.s	a2,fa0,fa1
    31d4:	001028f3          	frflags	a7
    31d8:	7ac7ac23          	sw	a2,1976(a5)
    31dc:	7b17ae23          	sw	a7,1980(a5)

000031e0 <inst_517>:
    31e0:	04882507          	flw	fa0,72(a6)
    31e4:	04c82587          	flw	fa1,76(a6)
    31e8:	a0b51653          	flt.s	a2,fa0,fa1
    31ec:	001028f3          	frflags	a7
    31f0:	7cc7a023          	sw	a2,1984(a5)
    31f4:	7d17a223          	sw	a7,1988(a5)

000031f8 <inst_518>:
    31f8:	05082507          	flw	fa0,80(a6)
    31fc:	05482587          	flw	fa1,84(a6)
    3200:	a0b51653          	flt.s	a2,fa0,fa1
    3204:	001028f3          	frflags	a7
    3208:	7cc7a423          	sw	a2,1992(a5)
    320c:	7d17a623          	sw	a7,1996(a5)

00003210 <inst_519>:
    3210:	05882507          	flw	fa0,88(a6)
    3214:	05c82587          	flw	fa1,92(a6)
    3218:	a0b51653          	flt.s	a2,fa0,fa1
    321c:	001028f3          	frflags	a7
    3220:	7cc7a823          	sw	a2,2000(a5)
    3224:	7d17aa23          	sw	a7,2004(a5)

00003228 <inst_520>:
    3228:	06082507          	flw	fa0,96(a6)
    322c:	06482587          	flw	fa1,100(a6)
    3230:	a0b51653          	flt.s	a2,fa0,fa1
    3234:	001028f3          	frflags	a7
    3238:	7cc7ac23          	sw	a2,2008(a5)
    323c:	7d17ae23          	sw	a7,2012(a5)

00003240 <inst_521>:
    3240:	06882507          	flw	fa0,104(a6)
    3244:	06c82587          	flw	fa1,108(a6)
    3248:	a0b51653          	flt.s	a2,fa0,fa1
    324c:	001028f3          	frflags	a7
    3250:	7ec7a023          	sw	a2,2016(a5)
    3254:	7f17a223          	sw	a7,2020(a5)

00003258 <inst_522>:
    3258:	07082507          	flw	fa0,112(a6)
    325c:	07482587          	flw	fa1,116(a6)
    3260:	a0b51653          	flt.s	a2,fa0,fa1
    3264:	001028f3          	frflags	a7
    3268:	7ec7a423          	sw	a2,2024(a5)
    326c:	7f17a623          	sw	a7,2028(a5)
    3270:	00003797          	auipc	a5,0x3
    3274:	00878793          	add	a5,a5,8 # 6278 <signature_x15_6>

00003278 <inst_523>:
    3278:	07882507          	flw	fa0,120(a6)
    327c:	07c82587          	flw	fa1,124(a6)
    3280:	a0b51653          	flt.s	a2,fa0,fa1
    3284:	001028f3          	frflags	a7
    3288:	00c7a023          	sw	a2,0(a5)
    328c:	0117a223          	sw	a7,4(a5)

00003290 <inst_524>:
    3290:	08082507          	flw	fa0,128(a6)
    3294:	08482587          	flw	fa1,132(a6)
    3298:	a0b51653          	flt.s	a2,fa0,fa1
    329c:	001028f3          	frflags	a7
    32a0:	00c7a423          	sw	a2,8(a5)
    32a4:	0117a623          	sw	a7,12(a5)

000032a8 <inst_525>:
    32a8:	08882507          	flw	fa0,136(a6)
    32ac:	08c82587          	flw	fa1,140(a6)
    32b0:	a0b51653          	flt.s	a2,fa0,fa1
    32b4:	001028f3          	frflags	a7
    32b8:	00c7a823          	sw	a2,16(a5)
    32bc:	0117aa23          	sw	a7,20(a5)

000032c0 <inst_526>:
    32c0:	09082507          	flw	fa0,144(a6)
    32c4:	09482587          	flw	fa1,148(a6)
    32c8:	a0b51653          	flt.s	a2,fa0,fa1
    32cc:	001028f3          	frflags	a7
    32d0:	00c7ac23          	sw	a2,24(a5)
    32d4:	0117ae23          	sw	a7,28(a5)

000032d8 <inst_527>:
    32d8:	09882507          	flw	fa0,152(a6)
    32dc:	09c82587          	flw	fa1,156(a6)
    32e0:	a0b51653          	flt.s	a2,fa0,fa1
    32e4:	001028f3          	frflags	a7
    32e8:	02c7a023          	sw	a2,32(a5)
    32ec:	0317a223          	sw	a7,36(a5)

000032f0 <inst_528>:
    32f0:	0a082507          	flw	fa0,160(a6)
    32f4:	0a482587          	flw	fa1,164(a6)
    32f8:	a0b51653          	flt.s	a2,fa0,fa1
    32fc:	001028f3          	frflags	a7
    3300:	02c7a423          	sw	a2,40(a5)
    3304:	0317a623          	sw	a7,44(a5)

00003308 <inst_529>:
    3308:	0a882507          	flw	fa0,168(a6)
    330c:	0ac82587          	flw	fa1,172(a6)
    3310:	a0b51653          	flt.s	a2,fa0,fa1
    3314:	001028f3          	frflags	a7
    3318:	02c7a823          	sw	a2,48(a5)
    331c:	0317aa23          	sw	a7,52(a5)

00003320 <inst_530>:
    3320:	0b082507          	flw	fa0,176(a6)
    3324:	0b482587          	flw	fa1,180(a6)
    3328:	a0b51653          	flt.s	a2,fa0,fa1
    332c:	001028f3          	frflags	a7
    3330:	02c7ac23          	sw	a2,56(a5)
    3334:	0317ae23          	sw	a7,60(a5)

00003338 <inst_531>:
    3338:	0b882507          	flw	fa0,184(a6)
    333c:	0bc82587          	flw	fa1,188(a6)
    3340:	a0b51653          	flt.s	a2,fa0,fa1
    3344:	001028f3          	frflags	a7
    3348:	04c7a023          	sw	a2,64(a5)
    334c:	0517a223          	sw	a7,68(a5)

00003350 <inst_532>:
    3350:	0c082507          	flw	fa0,192(a6)
    3354:	0c482587          	flw	fa1,196(a6)
    3358:	a0b51653          	flt.s	a2,fa0,fa1
    335c:	001028f3          	frflags	a7
    3360:	04c7a423          	sw	a2,72(a5)
    3364:	0517a623          	sw	a7,76(a5)

00003368 <inst_533>:
    3368:	0c882507          	flw	fa0,200(a6)
    336c:	0cc82587          	flw	fa1,204(a6)
    3370:	a0b51653          	flt.s	a2,fa0,fa1
    3374:	001028f3          	frflags	a7
    3378:	04c7a823          	sw	a2,80(a5)
    337c:	0517aa23          	sw	a7,84(a5)

00003380 <inst_534>:
    3380:	0d082507          	flw	fa0,208(a6)
    3384:	0d482587          	flw	fa1,212(a6)
    3388:	a0b51653          	flt.s	a2,fa0,fa1
    338c:	001028f3          	frflags	a7
    3390:	04c7ac23          	sw	a2,88(a5)
    3394:	0517ae23          	sw	a7,92(a5)

00003398 <inst_535>:
    3398:	0d882507          	flw	fa0,216(a6)
    339c:	0dc82587          	flw	fa1,220(a6)
    33a0:	a0b51653          	flt.s	a2,fa0,fa1
    33a4:	001028f3          	frflags	a7
    33a8:	06c7a023          	sw	a2,96(a5)
    33ac:	0717a223          	sw	a7,100(a5)

000033b0 <inst_536>:
    33b0:	0e082507          	flw	fa0,224(a6)
    33b4:	0e482587          	flw	fa1,228(a6)
    33b8:	a0b51653          	flt.s	a2,fa0,fa1
    33bc:	001028f3          	frflags	a7
    33c0:	06c7a423          	sw	a2,104(a5)
    33c4:	0717a623          	sw	a7,108(a5)

000033c8 <inst_537>:
    33c8:	0e882507          	flw	fa0,232(a6)
    33cc:	0ec82587          	flw	fa1,236(a6)
    33d0:	a0b51653          	flt.s	a2,fa0,fa1
    33d4:	001028f3          	frflags	a7
    33d8:	06c7a823          	sw	a2,112(a5)
    33dc:	0717aa23          	sw	a7,116(a5)

000033e0 <inst_538>:
    33e0:	0f082507          	flw	fa0,240(a6)
    33e4:	0f482587          	flw	fa1,244(a6)
    33e8:	a0b51653          	flt.s	a2,fa0,fa1
    33ec:	001028f3          	frflags	a7
    33f0:	06c7ac23          	sw	a2,120(a5)
    33f4:	0717ae23          	sw	a7,124(a5)

000033f8 <inst_539>:
    33f8:	0f882507          	flw	fa0,248(a6)
    33fc:	0fc82587          	flw	fa1,252(a6)
    3400:	a0b51653          	flt.s	a2,fa0,fa1
    3404:	001028f3          	frflags	a7
    3408:	08c7a023          	sw	a2,128(a5)
    340c:	0917a223          	sw	a7,132(a5)

00003410 <inst_540>:
    3410:	10082507          	flw	fa0,256(a6)
    3414:	10482587          	flw	fa1,260(a6)
    3418:	a0b51653          	flt.s	a2,fa0,fa1
    341c:	001028f3          	frflags	a7
    3420:	08c7a423          	sw	a2,136(a5)
    3424:	0917a623          	sw	a7,140(a5)

00003428 <inst_541>:
    3428:	10882507          	flw	fa0,264(a6)
    342c:	10c82587          	flw	fa1,268(a6)
    3430:	a0b51653          	flt.s	a2,fa0,fa1
    3434:	001028f3          	frflags	a7
    3438:	08c7a823          	sw	a2,144(a5)
    343c:	0917aa23          	sw	a7,148(a5)

00003440 <inst_542>:
    3440:	11082507          	flw	fa0,272(a6)
    3444:	11482587          	flw	fa1,276(a6)
    3448:	a0b51653          	flt.s	a2,fa0,fa1
    344c:	001028f3          	frflags	a7
    3450:	08c7ac23          	sw	a2,152(a5)
    3454:	0917ae23          	sw	a7,156(a5)

00003458 <inst_543>:
    3458:	11882507          	flw	fa0,280(a6)
    345c:	11c82587          	flw	fa1,284(a6)
    3460:	a0b51653          	flt.s	a2,fa0,fa1
    3464:	001028f3          	frflags	a7
    3468:	0ac7a023          	sw	a2,160(a5)
    346c:	0b17a223          	sw	a7,164(a5)

00003470 <inst_544>:
    3470:	12082507          	flw	fa0,288(a6)
    3474:	12482587          	flw	fa1,292(a6)
    3478:	a0b51653          	flt.s	a2,fa0,fa1
    347c:	001028f3          	frflags	a7
    3480:	0ac7a423          	sw	a2,168(a5)
    3484:	0b17a623          	sw	a7,172(a5)

00003488 <inst_545>:
    3488:	12882507          	flw	fa0,296(a6)
    348c:	12c82587          	flw	fa1,300(a6)
    3490:	a0b51653          	flt.s	a2,fa0,fa1
    3494:	001028f3          	frflags	a7
    3498:	0ac7a823          	sw	a2,176(a5)
    349c:	0b17aa23          	sw	a7,180(a5)

000034a0 <inst_546>:
    34a0:	13082507          	flw	fa0,304(a6)
    34a4:	13482587          	flw	fa1,308(a6)
    34a8:	a0b51653          	flt.s	a2,fa0,fa1
    34ac:	001028f3          	frflags	a7
    34b0:	0ac7ac23          	sw	a2,184(a5)
    34b4:	0b17ae23          	sw	a7,188(a5)

000034b8 <inst_547>:
    34b8:	13882507          	flw	fa0,312(a6)
    34bc:	13c82587          	flw	fa1,316(a6)
    34c0:	a0b51653          	flt.s	a2,fa0,fa1
    34c4:	001028f3          	frflags	a7
    34c8:	0cc7a023          	sw	a2,192(a5)
    34cc:	0d17a223          	sw	a7,196(a5)

000034d0 <inst_548>:
    34d0:	14082507          	flw	fa0,320(a6)
    34d4:	14482587          	flw	fa1,324(a6)
    34d8:	a0b51653          	flt.s	a2,fa0,fa1
    34dc:	001028f3          	frflags	a7
    34e0:	0cc7a423          	sw	a2,200(a5)
    34e4:	0d17a623          	sw	a7,204(a5)

000034e8 <inst_549>:
    34e8:	14882507          	flw	fa0,328(a6)
    34ec:	14c82587          	flw	fa1,332(a6)
    34f0:	a0b51653          	flt.s	a2,fa0,fa1
    34f4:	001028f3          	frflags	a7
    34f8:	0cc7a823          	sw	a2,208(a5)
    34fc:	0d17aa23          	sw	a7,212(a5)

00003500 <inst_550>:
    3500:	15082507          	flw	fa0,336(a6)
    3504:	15482587          	flw	fa1,340(a6)
    3508:	a0b51653          	flt.s	a2,fa0,fa1
    350c:	001028f3          	frflags	a7
    3510:	0cc7ac23          	sw	a2,216(a5)
    3514:	0d17ae23          	sw	a7,220(a5)

00003518 <inst_551>:
    3518:	15882507          	flw	fa0,344(a6)
    351c:	15c82587          	flw	fa1,348(a6)
    3520:	a0b51653          	flt.s	a2,fa0,fa1
    3524:	001028f3          	frflags	a7
    3528:	0ec7a023          	sw	a2,224(a5)
    352c:	0f17a223          	sw	a7,228(a5)

00003530 <inst_552>:
    3530:	16082507          	flw	fa0,352(a6)
    3534:	16482587          	flw	fa1,356(a6)
    3538:	a0b51653          	flt.s	a2,fa0,fa1
    353c:	001028f3          	frflags	a7
    3540:	0ec7a423          	sw	a2,232(a5)
    3544:	0f17a623          	sw	a7,236(a5)

00003548 <inst_553>:
    3548:	16882507          	flw	fa0,360(a6)
    354c:	16c82587          	flw	fa1,364(a6)
    3550:	a0b51653          	flt.s	a2,fa0,fa1
    3554:	001028f3          	frflags	a7
    3558:	0ec7a823          	sw	a2,240(a5)
    355c:	0f17aa23          	sw	a7,244(a5)

00003560 <inst_554>:
    3560:	17082507          	flw	fa0,368(a6)
    3564:	17482587          	flw	fa1,372(a6)
    3568:	a0b51653          	flt.s	a2,fa0,fa1
    356c:	001028f3          	frflags	a7
    3570:	0ec7ac23          	sw	a2,248(a5)
    3574:	0f17ae23          	sw	a7,252(a5)

00003578 <inst_555>:
    3578:	17882507          	flw	fa0,376(a6)
    357c:	17c82587          	flw	fa1,380(a6)
    3580:	a0b51653          	flt.s	a2,fa0,fa1
    3584:	001028f3          	frflags	a7
    3588:	10c7a023          	sw	a2,256(a5)
    358c:	1117a223          	sw	a7,260(a5)

00003590 <inst_556>:
    3590:	18082507          	flw	fa0,384(a6)
    3594:	18482587          	flw	fa1,388(a6)
    3598:	a0b51653          	flt.s	a2,fa0,fa1
    359c:	001028f3          	frflags	a7
    35a0:	10c7a423          	sw	a2,264(a5)
    35a4:	1117a623          	sw	a7,268(a5)

000035a8 <inst_557>:
    35a8:	18882507          	flw	fa0,392(a6)
    35ac:	18c82587          	flw	fa1,396(a6)
    35b0:	a0b51653          	flt.s	a2,fa0,fa1
    35b4:	001028f3          	frflags	a7
    35b8:	10c7a823          	sw	a2,272(a5)
    35bc:	1117aa23          	sw	a7,276(a5)

000035c0 <inst_558>:
    35c0:	19082507          	flw	fa0,400(a6)
    35c4:	19482587          	flw	fa1,404(a6)
    35c8:	a0b51653          	flt.s	a2,fa0,fa1
    35cc:	001028f3          	frflags	a7
    35d0:	10c7ac23          	sw	a2,280(a5)
    35d4:	1117ae23          	sw	a7,284(a5)

000035d8 <inst_559>:
    35d8:	19882507          	flw	fa0,408(a6)
    35dc:	19c82587          	flw	fa1,412(a6)
    35e0:	a0b51653          	flt.s	a2,fa0,fa1
    35e4:	001028f3          	frflags	a7
    35e8:	12c7a023          	sw	a2,288(a5)
    35ec:	1317a223          	sw	a7,292(a5)

000035f0 <inst_560>:
    35f0:	1a082507          	flw	fa0,416(a6)
    35f4:	1a482587          	flw	fa1,420(a6)
    35f8:	a0b51653          	flt.s	a2,fa0,fa1
    35fc:	001028f3          	frflags	a7
    3600:	12c7a423          	sw	a2,296(a5)
    3604:	1317a623          	sw	a7,300(a5)

00003608 <inst_561>:
    3608:	1a882507          	flw	fa0,424(a6)
    360c:	1ac82587          	flw	fa1,428(a6)
    3610:	a0b51653          	flt.s	a2,fa0,fa1
    3614:	001028f3          	frflags	a7
    3618:	12c7a823          	sw	a2,304(a5)
    361c:	1317aa23          	sw	a7,308(a5)

00003620 <inst_562>:
    3620:	1b082507          	flw	fa0,432(a6)
    3624:	1b482587          	flw	fa1,436(a6)
    3628:	a0b51653          	flt.s	a2,fa0,fa1
    362c:	001028f3          	frflags	a7
    3630:	12c7ac23          	sw	a2,312(a5)
    3634:	1317ae23          	sw	a7,316(a5)

00003638 <inst_563>:
    3638:	1b882507          	flw	fa0,440(a6)
    363c:	1bc82587          	flw	fa1,444(a6)
    3640:	a0b51653          	flt.s	a2,fa0,fa1
    3644:	001028f3          	frflags	a7
    3648:	14c7a023          	sw	a2,320(a5)
    364c:	1517a223          	sw	a7,324(a5)

00003650 <inst_564>:
    3650:	1c082507          	flw	fa0,448(a6)
    3654:	1c482587          	flw	fa1,452(a6)
    3658:	a0b51653          	flt.s	a2,fa0,fa1
    365c:	001028f3          	frflags	a7
    3660:	14c7a423          	sw	a2,328(a5)
    3664:	1517a623          	sw	a7,332(a5)

00003668 <inst_565>:
    3668:	1c882507          	flw	fa0,456(a6)
    366c:	1cc82587          	flw	fa1,460(a6)
    3670:	a0b51653          	flt.s	a2,fa0,fa1
    3674:	001028f3          	frflags	a7
    3678:	14c7a823          	sw	a2,336(a5)
    367c:	1517aa23          	sw	a7,340(a5)

00003680 <inst_566>:
    3680:	1d082507          	flw	fa0,464(a6)
    3684:	1d482587          	flw	fa1,468(a6)
    3688:	a0b51653          	flt.s	a2,fa0,fa1
    368c:	001028f3          	frflags	a7
    3690:	14c7ac23          	sw	a2,344(a5)
    3694:	1517ae23          	sw	a7,348(a5)

00003698 <inst_567>:
    3698:	1d882507          	flw	fa0,472(a6)
    369c:	1dc82587          	flw	fa1,476(a6)
    36a0:	a0b51653          	flt.s	a2,fa0,fa1
    36a4:	001028f3          	frflags	a7
    36a8:	16c7a023          	sw	a2,352(a5)
    36ac:	1717a223          	sw	a7,356(a5)

000036b0 <inst_568>:
    36b0:	1e082507          	flw	fa0,480(a6)
    36b4:	1e482587          	flw	fa1,484(a6)
    36b8:	a0b51653          	flt.s	a2,fa0,fa1
    36bc:	001028f3          	frflags	a7
    36c0:	16c7a423          	sw	a2,360(a5)
    36c4:	1717a623          	sw	a7,364(a5)

000036c8 <inst_569>:
    36c8:	1e882507          	flw	fa0,488(a6)
    36cc:	1ec82587          	flw	fa1,492(a6)
    36d0:	a0b51653          	flt.s	a2,fa0,fa1
    36d4:	001028f3          	frflags	a7
    36d8:	16c7a823          	sw	a2,368(a5)
    36dc:	1717aa23          	sw	a7,372(a5)

000036e0 <inst_570>:
    36e0:	1f082507          	flw	fa0,496(a6)
    36e4:	1f482587          	flw	fa1,500(a6)
    36e8:	a0b51653          	flt.s	a2,fa0,fa1
    36ec:	001028f3          	frflags	a7
    36f0:	16c7ac23          	sw	a2,376(a5)
    36f4:	1717ae23          	sw	a7,380(a5)

000036f8 <inst_571>:
    36f8:	1f882507          	flw	fa0,504(a6)
    36fc:	1fc82587          	flw	fa1,508(a6)
    3700:	a0b51653          	flt.s	a2,fa0,fa1
    3704:	001028f3          	frflags	a7
    3708:	18c7a023          	sw	a2,384(a5)
    370c:	1917a223          	sw	a7,388(a5)

00003710 <inst_572>:
    3710:	20082507          	flw	fa0,512(a6)
    3714:	20482587          	flw	fa1,516(a6)
    3718:	a0b51653          	flt.s	a2,fa0,fa1
    371c:	001028f3          	frflags	a7
    3720:	18c7a423          	sw	a2,392(a5)
    3724:	1917a623          	sw	a7,396(a5)

00003728 <inst_573>:
    3728:	20882507          	flw	fa0,520(a6)
    372c:	20c82587          	flw	fa1,524(a6)
    3730:	a0b51653          	flt.s	a2,fa0,fa1
    3734:	001028f3          	frflags	a7
    3738:	18c7a823          	sw	a2,400(a5)
    373c:	1917aa23          	sw	a7,404(a5)

00003740 <inst_574>:
    3740:	21082507          	flw	fa0,528(a6)
    3744:	21482587          	flw	fa1,532(a6)
    3748:	a0b51653          	flt.s	a2,fa0,fa1
    374c:	001028f3          	frflags	a7
    3750:	18c7ac23          	sw	a2,408(a5)
    3754:	1917ae23          	sw	a7,412(a5)

00003758 <inst_575>:
    3758:	21882507          	flw	fa0,536(a6)
    375c:	21c82587          	flw	fa1,540(a6)
    3760:	a0b51653          	flt.s	a2,fa0,fa1
    3764:	001028f3          	frflags	a7
    3768:	1ac7a023          	sw	a2,416(a5)
    376c:	1b17a223          	sw	a7,420(a5)

00003770 <inst_576>:
    3770:	22082507          	flw	fa0,544(a6)
    3774:	22482587          	flw	fa1,548(a6)
    3778:	a0b51653          	flt.s	a2,fa0,fa1
    377c:	001028f3          	frflags	a7
    3780:	1ac7a423          	sw	a2,424(a5)
    3784:	1b17a623          	sw	a7,428(a5)

00003788 <inst_577>:
    3788:	22882507          	flw	fa0,552(a6)
    378c:	22c82587          	flw	fa1,556(a6)
    3790:	a0b51653          	flt.s	a2,fa0,fa1
    3794:	001028f3          	frflags	a7
    3798:	1ac7a823          	sw	a2,432(a5)
    379c:	1b17aa23          	sw	a7,436(a5)

000037a0 <inst_578>:
    37a0:	23082507          	flw	fa0,560(a6)
    37a4:	23482587          	flw	fa1,564(a6)
    37a8:	a0b51653          	flt.s	a2,fa0,fa1
    37ac:	001028f3          	frflags	a7
    37b0:	1ac7ac23          	sw	a2,440(a5)
    37b4:	1b17ae23          	sw	a7,444(a5)
    37b8:	00000013          	nop
    37bc:	00000013          	nop

000037c0 <rvtest_code_end>:
    37c0:	00002517          	auipc	a0,0x2
    37c4:	a6050513          	add	a0,a0,-1440 # 5220 <data_begin>
    37c8:	00003597          	auipc	a1,0x3
    37cc:	c7858593          	add	a1,a1,-904 # 6440 <_end>
    37d0:	80001637          	lui	a2,0x80001
    37d4:	00860613          	add	a2,a2,8 # 80001008 <_end+0x7fffabc8>

000037d8 <compliance_halt_loop>:
    37d8:	06b50063          	beq	a0,a1,3838 <compliance_halt_break>
    37dc:	00450693          	add	a3,a0,4

000037e0 <compliance_halt_loop2>:
    37e0:	fff68693          	add	a3,a3,-1
    37e4:	00068703          	lb	a4,0(a3)
    37e8:	40475793          	sra	a5,a4,0x4
    37ec:	00f7f793          	and	a5,a5,15
    37f0:	00a00813          	li	a6,10
    37f4:	0107c463          	blt	a5,a6,37fc <notLetter>
    37f8:	02778793          	add	a5,a5,39

000037fc <notLetter>:
    37fc:	03078793          	add	a5,a5,48
    3800:	00f60023          	sb	a5,0(a2)
    3804:	40075793          	sra	a5,a4,0x0
    3808:	00f7f793          	and	a5,a5,15
    380c:	00a00813          	li	a6,10
    3810:	0107c463          	blt	a5,a6,3818 <notLetter2>
    3814:	02778793          	add	a5,a5,39

00003818 <notLetter2>:
    3818:	03078793          	add	a5,a5,48
    381c:	00f60023          	sb	a5,0(a2)
    3820:	fcd510e3          	bne	a0,a3,37e0 <compliance_halt_loop2>
    3824:	00450513          	add	a0,a0,4
    3828:	00a00713          	li	a4,10
    382c:	00e60023          	sb	a4,0(a2)
    3830:	fa9ff06f          	j	37d8 <compliance_halt_loop>
    3834:	0040006f          	j	3838 <compliance_halt_break>

00003838 <compliance_halt_break>:
    3838:	80001537          	lui	a0,0x80001
    383c:	00950513          	add	a0,a0,9 # 80001009 <_end+0x7fffabc9>
    3840:	00d50023          	sb	a3,0(a0)
	...

Desensamblado de la sección .data:

00004000 <rvtest_data_begin>:
    4000:	cafe                	.2byte	0xcafe
    4002:	babe                	.2byte	0xbabe

00004004 <test_fp>:
	...
    400c:	0000                	.2byte	0x0
    400e:	bf80                	.2byte	0xbf80
    4010:	0000                	.2byte	0x0
    4012:	bf80                	.2byte	0xbf80
    4014:	0000                	.2byte	0x0
    4016:	bf80                	.2byte	0xbf80
    4018:	0000                	.2byte	0x0
    401a:	3f80                	.2byte	0x3f80
    401c:	0000                	.2byte	0x0
    401e:	bf80                	.2byte	0xbf80
    4020:	aaaa                	.2byte	0xaaaa
    4022:	ffaa                	.2byte	0xffaa
    4024:	0000                	.2byte	0x0
    4026:	bf80                	.2byte	0xbf80
    4028:	0001                	.2byte	0x1
    402a:	7f80                	.2byte	0x7f80
    402c:	0000                	.2byte	0x0
    402e:	bf80                	.2byte	0xbf80
    4030:	5555                	.2byte	0x5555
    4032:	ffc5                	.2byte	0xffc5
    4034:	0000                	.2byte	0x0
    4036:	bf80                	.2byte	0xbf80
    4038:	0001                	.2byte	0x1
    403a:	7fc0                	.2byte	0x7fc0
    403c:	0000                	.2byte	0x0
    403e:	bf80                	.2byte	0xbf80
    4040:	0000                	.2byte	0x0
    4042:	ffc0                	.2byte	0xffc0
    4044:	0000                	.2byte	0x0
    4046:	bf80                	.2byte	0xbf80
    4048:	0000                	.2byte	0x0
    404a:	7fc0                	.2byte	0x7fc0
    404c:	0000                	.2byte	0x0
    404e:	bf80                	.2byte	0xbf80
    4050:	0000                	.2byte	0x0
    4052:	ff80                	.2byte	0xff80
    4054:	0000                	.2byte	0x0
    4056:	bf80                	.2byte	0xbf80
    4058:	0000                	.2byte	0x0
    405a:	7f80                	.2byte	0x7f80
    405c:	0000                	.2byte	0x0
    405e:	bf80                	.2byte	0xbf80
    4060:	ffff                	.2byte	0xffff
    4062:	ff7f                	.2byte	0xff7f
    4064:	0000                	.2byte	0x0
    4066:	bf80                	.2byte	0xbf80
    4068:	ffff                	.2byte	0xffff
    406a:	7f7f                	.2byte	0x7f7f
    406c:	0000                	.2byte	0x0
    406e:	bf80                	.2byte	0xbf80
    4070:	5555                	.2byte	0x5555
    4072:	8085                	.2byte	0x8085
    4074:	0000                	.2byte	0x0
    4076:	bf80                	.2byte	0xbf80
    4078:	0001                	.2byte	0x1
    407a:	0080                	.2byte	0x80
    407c:	0000                	.2byte	0x0
    407e:	bf80                	.2byte	0xbf80
    4080:	0000                	.2byte	0x0
    4082:	8080                	.2byte	0x8080
    4084:	0000                	.2byte	0x0
    4086:	bf80                	.2byte	0xbf80
    4088:	0000                	.2byte	0x0
    408a:	0080                	.2byte	0x80
    408c:	0000                	.2byte	0x0
    408e:	bf80                	.2byte	0xbf80
    4090:	ffff                	.2byte	0xffff
    4092:	807f 0000 bf80 ffff 	.byte	0x7f, 0x80, 0x00, 0x00, 0x80, 0xbf, 0xff, 0xff, 0x7f, 0x00
    409a:	007f 
    409c:	0000                	.2byte	0x0
    409e:	bf80                	.2byte	0xbf80
    40a0:	fffe                	.2byte	0xfffe
    40a2:	807f 0000 bf80 0002 	.byte	0x7f, 0x80, 0x00, 0x00, 0x80, 0xbf, 0x02, 0x00, 0x00, 0x00
    40aa:	0000 
    40ac:	0000                	.2byte	0x0
    40ae:	bf80                	.2byte	0xbf80
    40b0:	0001                	.2byte	0x1
    40b2:	8000                	.2byte	0x8000
    40b4:	0000                	.2byte	0x0
    40b6:	bf80                	.2byte	0xbf80
    40b8:	0001                	.2byte	0x1
    40ba:	0000                	.2byte	0x0
    40bc:	0000                	.2byte	0x0
    40be:	bf80                	.2byte	0xbf80
    40c0:	0000                	.2byte	0x0
    40c2:	8000                	.2byte	0x8000
    40c4:	0000                	.2byte	0x0
    40c6:	bf80                	.2byte	0xbf80
    40c8:	0000                	.2byte	0x0
    40ca:	0000                	.2byte	0x0
    40cc:	0000                	.2byte	0x0
    40ce:	3f80                	.2byte	0x3f80
    40d0:	0000                	.2byte	0x0
    40d2:	bf80                	.2byte	0xbf80
    40d4:	0000                	.2byte	0x0
    40d6:	3f80                	.2byte	0x3f80
    40d8:	0000                	.2byte	0x0
    40da:	3f80                	.2byte	0x3f80
    40dc:	0000                	.2byte	0x0
    40de:	3f80                	.2byte	0x3f80
    40e0:	aaaa                	.2byte	0xaaaa
    40e2:	ffaa                	.2byte	0xffaa
    40e4:	0000                	.2byte	0x0
    40e6:	3f80                	.2byte	0x3f80
    40e8:	0001                	.2byte	0x1
    40ea:	7f80                	.2byte	0x7f80
    40ec:	0000                	.2byte	0x0
    40ee:	3f80                	.2byte	0x3f80
    40f0:	5555                	.2byte	0x5555
    40f2:	ffc5                	.2byte	0xffc5
    40f4:	0000                	.2byte	0x0
    40f6:	3f80                	.2byte	0x3f80
    40f8:	0001                	.2byte	0x1
    40fa:	7fc0                	.2byte	0x7fc0
    40fc:	0000                	.2byte	0x0
    40fe:	3f80                	.2byte	0x3f80
    4100:	0000                	.2byte	0x0
    4102:	ffc0                	.2byte	0xffc0
    4104:	0000                	.2byte	0x0
    4106:	3f80                	.2byte	0x3f80
    4108:	0000                	.2byte	0x0
    410a:	7fc0                	.2byte	0x7fc0
    410c:	0000                	.2byte	0x0
    410e:	3f80                	.2byte	0x3f80
    4110:	0000                	.2byte	0x0
    4112:	ff80                	.2byte	0xff80
    4114:	0000                	.2byte	0x0
    4116:	3f80                	.2byte	0x3f80
    4118:	0000                	.2byte	0x0
    411a:	7f80                	.2byte	0x7f80
    411c:	0000                	.2byte	0x0
    411e:	3f80                	.2byte	0x3f80
    4120:	ffff                	.2byte	0xffff
    4122:	ff7f                	.2byte	0xff7f
    4124:	0000                	.2byte	0x0
    4126:	3f80                	.2byte	0x3f80
    4128:	ffff                	.2byte	0xffff
    412a:	7f7f                	.2byte	0x7f7f
    412c:	0000                	.2byte	0x0
    412e:	3f80                	.2byte	0x3f80
    4130:	5555                	.2byte	0x5555
    4132:	8085                	.2byte	0x8085
    4134:	0000                	.2byte	0x0
    4136:	3f80                	.2byte	0x3f80
    4138:	0001                	.2byte	0x1
    413a:	0080                	.2byte	0x80
    413c:	0000                	.2byte	0x0
    413e:	3f80                	.2byte	0x3f80
    4140:	0000                	.2byte	0x0
    4142:	8080                	.2byte	0x8080
    4144:	0000                	.2byte	0x0
    4146:	3f80                	.2byte	0x3f80
    4148:	0000                	.2byte	0x0
    414a:	0080                	.2byte	0x80
    414c:	0000                	.2byte	0x0
    414e:	3f80                	.2byte	0x3f80
    4150:	ffff                	.2byte	0xffff
    4152:	807f 0000 3f80 ffff 	.byte	0x7f, 0x80, 0x00, 0x00, 0x80, 0x3f, 0xff, 0xff, 0x7f, 0x00
    415a:	007f 
    415c:	0000                	.2byte	0x0
    415e:	3f80                	.2byte	0x3f80
    4160:	fffe                	.2byte	0xfffe
    4162:	807f 0000 3f80 0002 	.byte	0x7f, 0x80, 0x00, 0x00, 0x80, 0x3f, 0x02, 0x00, 0x00, 0x00
    416a:	0000 
    416c:	0000                	.2byte	0x0
    416e:	3f80                	.2byte	0x3f80
    4170:	0001                	.2byte	0x1
    4172:	8000                	.2byte	0x8000
    4174:	0000                	.2byte	0x0
    4176:	3f80                	.2byte	0x3f80
    4178:	0001                	.2byte	0x1
    417a:	0000                	.2byte	0x0
    417c:	0000                	.2byte	0x0
    417e:	3f80                	.2byte	0x3f80
    4180:	0000                	.2byte	0x0
    4182:	8000                	.2byte	0x8000
    4184:	0000                	.2byte	0x0
    4186:	3f80                	.2byte	0x3f80
    4188:	0000                	.2byte	0x0
    418a:	0000                	.2byte	0x0
    418c:	aaaa                	.2byte	0xaaaa
    418e:	ffaa                	.2byte	0xffaa
    4190:	0000                	.2byte	0x0
    4192:	bf80                	.2byte	0xbf80
    4194:	aaaa                	.2byte	0xaaaa
    4196:	ffaa                	.2byte	0xffaa
    4198:	0000                	.2byte	0x0
    419a:	3f80                	.2byte	0x3f80
    419c:	aaaa                	.2byte	0xaaaa
    419e:	ffaa                	.2byte	0xffaa
    41a0:	aaaa                	.2byte	0xaaaa
    41a2:	ffaa                	.2byte	0xffaa
    41a4:	aaaa                	.2byte	0xaaaa
    41a6:	ffaa                	.2byte	0xffaa
    41a8:	0001                	.2byte	0x1
    41aa:	7f80                	.2byte	0x7f80
    41ac:	aaaa                	.2byte	0xaaaa
    41ae:	ffaa                	.2byte	0xffaa
    41b0:	5555                	.2byte	0x5555
    41b2:	ffc5                	.2byte	0xffc5
    41b4:	aaaa                	.2byte	0xaaaa
    41b6:	ffaa                	.2byte	0xffaa
    41b8:	0001                	.2byte	0x1
    41ba:	7fc0                	.2byte	0x7fc0
    41bc:	aaaa                	.2byte	0xaaaa
    41be:	ffaa                	.2byte	0xffaa
    41c0:	0000                	.2byte	0x0
    41c2:	ffc0                	.2byte	0xffc0
    41c4:	aaaa                	.2byte	0xaaaa
    41c6:	ffaa                	.2byte	0xffaa
    41c8:	0000                	.2byte	0x0
    41ca:	7fc0                	.2byte	0x7fc0
    41cc:	aaaa                	.2byte	0xaaaa
    41ce:	ffaa                	.2byte	0xffaa
    41d0:	0000                	.2byte	0x0
    41d2:	ff80                	.2byte	0xff80
    41d4:	aaaa                	.2byte	0xaaaa
    41d6:	ffaa                	.2byte	0xffaa
    41d8:	0000                	.2byte	0x0
    41da:	7f80                	.2byte	0x7f80
    41dc:	aaaa                	.2byte	0xaaaa
    41de:	ffaa                	.2byte	0xffaa
    41e0:	ffff                	.2byte	0xffff
    41e2:	ff7f                	.2byte	0xff7f
    41e4:	aaaa                	.2byte	0xaaaa
    41e6:	ffaa                	.2byte	0xffaa
    41e8:	ffff                	.2byte	0xffff
    41ea:	7f7f                	.2byte	0x7f7f
    41ec:	aaaa                	.2byte	0xaaaa
    41ee:	ffaa                	.2byte	0xffaa
    41f0:	5555                	.2byte	0x5555
    41f2:	8085                	.2byte	0x8085
    41f4:	aaaa                	.2byte	0xaaaa
    41f6:	ffaa                	.2byte	0xffaa
    41f8:	0001                	.2byte	0x1
    41fa:	0080                	.2byte	0x80
    41fc:	aaaa                	.2byte	0xaaaa
    41fe:	ffaa                	.2byte	0xffaa
    4200:	0000                	.2byte	0x0
    4202:	8080                	.2byte	0x8080
    4204:	aaaa                	.2byte	0xaaaa
    4206:	ffaa                	.2byte	0xffaa
    4208:	0000                	.2byte	0x0
    420a:	0080                	.2byte	0x80
    420c:	aaaa                	.2byte	0xaaaa
    420e:	ffaa                	.2byte	0xffaa
    4210:	ffff                	.2byte	0xffff
    4212:	807f aaaa ffaa ffff 	.byte	0x7f, 0x80, 0xaa, 0xaa, 0xaa, 0xff, 0xff, 0xff, 0x7f, 0x00
    421a:	007f 
    421c:	aaaa                	.2byte	0xaaaa
    421e:	ffaa                	.2byte	0xffaa
    4220:	fffe                	.2byte	0xfffe
    4222:	807f aaaa ffaa 0002 	.byte	0x7f, 0x80, 0xaa, 0xaa, 0xaa, 0xff, 0x02, 0x00, 0x00, 0x00
    422a:	0000 
    422c:	aaaa                	.2byte	0xaaaa
    422e:	ffaa                	.2byte	0xffaa
    4230:	0001                	.2byte	0x1
    4232:	8000                	.2byte	0x8000
    4234:	aaaa                	.2byte	0xaaaa
    4236:	ffaa                	.2byte	0xffaa
    4238:	0001                	.2byte	0x1
    423a:	0000                	.2byte	0x0
    423c:	aaaa                	.2byte	0xaaaa
    423e:	ffaa                	.2byte	0xffaa
    4240:	0000                	.2byte	0x0
    4242:	8000                	.2byte	0x8000
    4244:	aaaa                	.2byte	0xaaaa
    4246:	ffaa                	.2byte	0xffaa
    4248:	0000                	.2byte	0x0
    424a:	0000                	.2byte	0x0
    424c:	0001                	.2byte	0x1
    424e:	7f80                	.2byte	0x7f80
    4250:	0000                	.2byte	0x0
    4252:	bf80                	.2byte	0xbf80
    4254:	0001                	.2byte	0x1
    4256:	7f80                	.2byte	0x7f80
    4258:	0000                	.2byte	0x0
    425a:	3f80                	.2byte	0x3f80
    425c:	0001                	.2byte	0x1
    425e:	7f80                	.2byte	0x7f80
    4260:	aaaa                	.2byte	0xaaaa
    4262:	ffaa                	.2byte	0xffaa
    4264:	0001                	.2byte	0x1
    4266:	7f80                	.2byte	0x7f80
    4268:	0001                	.2byte	0x1
    426a:	7f80                	.2byte	0x7f80
    426c:	0001                	.2byte	0x1
    426e:	7f80                	.2byte	0x7f80
    4270:	5555                	.2byte	0x5555
    4272:	ffc5                	.2byte	0xffc5
    4274:	0001                	.2byte	0x1
    4276:	7f80                	.2byte	0x7f80
    4278:	0001                	.2byte	0x1
    427a:	7fc0                	.2byte	0x7fc0
    427c:	0001                	.2byte	0x1
    427e:	7f80                	.2byte	0x7f80
    4280:	0000                	.2byte	0x0
    4282:	ffc0                	.2byte	0xffc0
    4284:	0001                	.2byte	0x1
    4286:	7f80                	.2byte	0x7f80
    4288:	0000                	.2byte	0x0
    428a:	7fc0                	.2byte	0x7fc0
    428c:	0001                	.2byte	0x1
    428e:	7f80                	.2byte	0x7f80
    4290:	0000                	.2byte	0x0
    4292:	ff80                	.2byte	0xff80
    4294:	0001                	.2byte	0x1
    4296:	7f80                	.2byte	0x7f80
    4298:	0000                	.2byte	0x0
    429a:	7f80                	.2byte	0x7f80
    429c:	0001                	.2byte	0x1
    429e:	7f80                	.2byte	0x7f80
    42a0:	ffff                	.2byte	0xffff
    42a2:	ff7f                	.2byte	0xff7f
    42a4:	0001                	.2byte	0x1
    42a6:	7f80                	.2byte	0x7f80
    42a8:	ffff                	.2byte	0xffff
    42aa:	7f7f                	.2byte	0x7f7f
    42ac:	0001                	.2byte	0x1
    42ae:	7f80                	.2byte	0x7f80
    42b0:	5555                	.2byte	0x5555
    42b2:	8085                	.2byte	0x8085
    42b4:	0001                	.2byte	0x1
    42b6:	7f80                	.2byte	0x7f80
    42b8:	0001                	.2byte	0x1
    42ba:	0080                	.2byte	0x80
    42bc:	0001                	.2byte	0x1
    42be:	7f80                	.2byte	0x7f80
    42c0:	0000                	.2byte	0x0
    42c2:	8080                	.2byte	0x8080
    42c4:	0001                	.2byte	0x1
    42c6:	7f80                	.2byte	0x7f80
    42c8:	0000                	.2byte	0x0
    42ca:	0080                	.2byte	0x80
    42cc:	0001                	.2byte	0x1
    42ce:	7f80                	.2byte	0x7f80
    42d0:	ffff                	.2byte	0xffff
    42d2:	807f 0001 7f80 ffff 	.byte	0x7f, 0x80, 0x01, 0x00, 0x80, 0x7f, 0xff, 0xff, 0x7f, 0x00
    42da:	007f 
    42dc:	0001                	.2byte	0x1
    42de:	7f80                	.2byte	0x7f80
    42e0:	fffe                	.2byte	0xfffe
    42e2:	807f 0001 7f80 0002 	.byte	0x7f, 0x80, 0x01, 0x00, 0x80, 0x7f, 0x02, 0x00, 0x00, 0x00
    42ea:	0000 
    42ec:	0001                	.2byte	0x1
    42ee:	7f80                	.2byte	0x7f80
    42f0:	0001                	.2byte	0x1
    42f2:	8000                	.2byte	0x8000
    42f4:	0001                	.2byte	0x1
    42f6:	7f80                	.2byte	0x7f80
    42f8:	0001                	.2byte	0x1
    42fa:	0000                	.2byte	0x0
    42fc:	0001                	.2byte	0x1
    42fe:	7f80                	.2byte	0x7f80
    4300:	0000                	.2byte	0x0
    4302:	8000                	.2byte	0x8000
    4304:	0001                	.2byte	0x1
    4306:	7f80                	.2byte	0x7f80
    4308:	0000                	.2byte	0x0
    430a:	0000                	.2byte	0x0
    430c:	5555                	.2byte	0x5555
    430e:	ffc5                	.2byte	0xffc5
    4310:	0000                	.2byte	0x0
    4312:	bf80                	.2byte	0xbf80
    4314:	5555                	.2byte	0x5555
    4316:	ffc5                	.2byte	0xffc5
    4318:	0000                	.2byte	0x0
    431a:	3f80                	.2byte	0x3f80
    431c:	5555                	.2byte	0x5555
    431e:	ffc5                	.2byte	0xffc5
    4320:	aaaa                	.2byte	0xaaaa
    4322:	ffaa                	.2byte	0xffaa
    4324:	5555                	.2byte	0x5555
    4326:	ffc5                	.2byte	0xffc5
    4328:	0001                	.2byte	0x1
    432a:	7f80                	.2byte	0x7f80
    432c:	5555                	.2byte	0x5555
    432e:	ffc5                	.2byte	0xffc5
    4330:	5555                	.2byte	0x5555
    4332:	ffc5                	.2byte	0xffc5
    4334:	5555                	.2byte	0x5555
    4336:	ffc5                	.2byte	0xffc5
    4338:	0001                	.2byte	0x1
    433a:	7fc0                	.2byte	0x7fc0
    433c:	5555                	.2byte	0x5555
    433e:	ffc5                	.2byte	0xffc5
    4340:	0000                	.2byte	0x0
    4342:	ffc0                	.2byte	0xffc0
    4344:	5555                	.2byte	0x5555
    4346:	ffc5                	.2byte	0xffc5
    4348:	0000                	.2byte	0x0
    434a:	7fc0                	.2byte	0x7fc0
    434c:	5555                	.2byte	0x5555
    434e:	ffc5                	.2byte	0xffc5
    4350:	0000                	.2byte	0x0
    4352:	ff80                	.2byte	0xff80
    4354:	5555                	.2byte	0x5555
    4356:	ffc5                	.2byte	0xffc5
    4358:	0000                	.2byte	0x0
    435a:	7f80                	.2byte	0x7f80
    435c:	5555                	.2byte	0x5555
    435e:	ffc5                	.2byte	0xffc5
    4360:	ffff                	.2byte	0xffff
    4362:	ff7f                	.2byte	0xff7f
    4364:	5555                	.2byte	0x5555
    4366:	ffc5                	.2byte	0xffc5
    4368:	ffff                	.2byte	0xffff
    436a:	7f7f                	.2byte	0x7f7f
    436c:	5555                	.2byte	0x5555
    436e:	ffc5                	.2byte	0xffc5
    4370:	5555                	.2byte	0x5555
    4372:	8085                	.2byte	0x8085
    4374:	5555                	.2byte	0x5555
    4376:	ffc5                	.2byte	0xffc5
    4378:	0001                	.2byte	0x1
    437a:	0080                	.2byte	0x80
    437c:	5555                	.2byte	0x5555
    437e:	ffc5                	.2byte	0xffc5
    4380:	0000                	.2byte	0x0
    4382:	8080                	.2byte	0x8080
    4384:	5555                	.2byte	0x5555
    4386:	ffc5                	.2byte	0xffc5
    4388:	0000                	.2byte	0x0
    438a:	0080                	.2byte	0x80
    438c:	5555                	.2byte	0x5555
    438e:	ffc5                	.2byte	0xffc5
    4390:	ffff                	.2byte	0xffff
    4392:	807f 5555 ffc5 ffff 	.byte	0x7f, 0x80, 0x55, 0x55, 0xc5, 0xff, 0xff, 0xff, 0x7f, 0x00
    439a:	007f 
    439c:	5555                	.2byte	0x5555
    439e:	ffc5                	.2byte	0xffc5
    43a0:	fffe                	.2byte	0xfffe
    43a2:	807f 5555 ffc5 0002 	.byte	0x7f, 0x80, 0x55, 0x55, 0xc5, 0xff, 0x02, 0x00, 0x00, 0x00
    43aa:	0000 
    43ac:	5555                	.2byte	0x5555
    43ae:	ffc5                	.2byte	0xffc5
    43b0:	0001                	.2byte	0x1
    43b2:	8000                	.2byte	0x8000
    43b4:	5555                	.2byte	0x5555
    43b6:	ffc5                	.2byte	0xffc5
    43b8:	0001                	.2byte	0x1
    43ba:	0000                	.2byte	0x0
    43bc:	5555                	.2byte	0x5555
    43be:	ffc5                	.2byte	0xffc5
    43c0:	0000                	.2byte	0x0
    43c2:	8000                	.2byte	0x8000
    43c4:	5555                	.2byte	0x5555
    43c6:	ffc5                	.2byte	0xffc5
    43c8:	0000                	.2byte	0x0
    43ca:	0000                	.2byte	0x0
    43cc:	0001                	.2byte	0x1
    43ce:	7fc0                	.2byte	0x7fc0
    43d0:	0000                	.2byte	0x0
    43d2:	bf80                	.2byte	0xbf80
    43d4:	0001                	.2byte	0x1
    43d6:	7fc0                	.2byte	0x7fc0
    43d8:	0000                	.2byte	0x0
    43da:	3f80                	.2byte	0x3f80
    43dc:	0001                	.2byte	0x1
    43de:	7fc0                	.2byte	0x7fc0
    43e0:	aaaa                	.2byte	0xaaaa
    43e2:	ffaa                	.2byte	0xffaa
    43e4:	0001                	.2byte	0x1
    43e6:	7fc0                	.2byte	0x7fc0
    43e8:	0001                	.2byte	0x1
    43ea:	7f80                	.2byte	0x7f80
    43ec:	0001                	.2byte	0x1
    43ee:	7fc0                	.2byte	0x7fc0
    43f0:	5555                	.2byte	0x5555
    43f2:	ffc5                	.2byte	0xffc5
    43f4:	0001                	.2byte	0x1
    43f6:	7fc0                	.2byte	0x7fc0
    43f8:	0001                	.2byte	0x1
    43fa:	7fc0                	.2byte	0x7fc0
    43fc:	0001                	.2byte	0x1
    43fe:	7fc0                	.2byte	0x7fc0
    4400:	0000                	.2byte	0x0
    4402:	ffc0                	.2byte	0xffc0
    4404:	0001                	.2byte	0x1
    4406:	7fc0                	.2byte	0x7fc0
    4408:	0000                	.2byte	0x0
    440a:	7fc0                	.2byte	0x7fc0
    440c:	0001                	.2byte	0x1
    440e:	7fc0                	.2byte	0x7fc0
    4410:	0000                	.2byte	0x0
    4412:	ff80                	.2byte	0xff80
    4414:	0001                	.2byte	0x1
    4416:	7fc0                	.2byte	0x7fc0
    4418:	0000                	.2byte	0x0
    441a:	7f80                	.2byte	0x7f80
    441c:	0001                	.2byte	0x1
    441e:	7fc0                	.2byte	0x7fc0
    4420:	ffff                	.2byte	0xffff
    4422:	ff7f                	.2byte	0xff7f
    4424:	0001                	.2byte	0x1
    4426:	7fc0                	.2byte	0x7fc0
    4428:	ffff                	.2byte	0xffff
    442a:	7f7f                	.2byte	0x7f7f
    442c:	0001                	.2byte	0x1
    442e:	7fc0                	.2byte	0x7fc0
    4430:	5555                	.2byte	0x5555
    4432:	8085                	.2byte	0x8085
    4434:	0001                	.2byte	0x1
    4436:	7fc0                	.2byte	0x7fc0
    4438:	0001                	.2byte	0x1
    443a:	0080                	.2byte	0x80
    443c:	0001                	.2byte	0x1
    443e:	7fc0                	.2byte	0x7fc0
    4440:	0000                	.2byte	0x0
    4442:	8080                	.2byte	0x8080
    4444:	0001                	.2byte	0x1
    4446:	7fc0                	.2byte	0x7fc0
    4448:	0000                	.2byte	0x0
    444a:	0080                	.2byte	0x80
    444c:	0001                	.2byte	0x1
    444e:	7fc0                	.2byte	0x7fc0
    4450:	ffff                	.2byte	0xffff
    4452:	807f 0001 7fc0 ffff 	.byte	0x7f, 0x80, 0x01, 0x00, 0xc0, 0x7f, 0xff, 0xff, 0x7f, 0x00
    445a:	007f 
    445c:	0001                	.2byte	0x1
    445e:	7fc0                	.2byte	0x7fc0
    4460:	fffe                	.2byte	0xfffe
    4462:	807f 0001 7fc0 0002 	.byte	0x7f, 0x80, 0x01, 0x00, 0xc0, 0x7f, 0x02, 0x00, 0x00, 0x00
    446a:	0000 
    446c:	0001                	.2byte	0x1
    446e:	7fc0                	.2byte	0x7fc0
    4470:	0001                	.2byte	0x1
    4472:	8000                	.2byte	0x8000
    4474:	0001                	.2byte	0x1
    4476:	7fc0                	.2byte	0x7fc0
    4478:	0001                	.2byte	0x1
    447a:	0000                	.2byte	0x0
    447c:	0001                	.2byte	0x1
    447e:	7fc0                	.2byte	0x7fc0
    4480:	0000                	.2byte	0x0
    4482:	8000                	.2byte	0x8000
    4484:	0001                	.2byte	0x1
    4486:	7fc0                	.2byte	0x7fc0
    4488:	0000                	.2byte	0x0
    448a:	0000                	.2byte	0x0
    448c:	0000                	.2byte	0x0
    448e:	ffc0                	.2byte	0xffc0
    4490:	0000                	.2byte	0x0
    4492:	bf80                	.2byte	0xbf80
    4494:	0000                	.2byte	0x0
    4496:	ffc0                	.2byte	0xffc0
    4498:	0000                	.2byte	0x0
    449a:	3f80                	.2byte	0x3f80
    449c:	0000                	.2byte	0x0
    449e:	ffc0                	.2byte	0xffc0
    44a0:	aaaa                	.2byte	0xaaaa
    44a2:	ffaa                	.2byte	0xffaa
    44a4:	0000                	.2byte	0x0
    44a6:	ffc0                	.2byte	0xffc0
    44a8:	0001                	.2byte	0x1
    44aa:	7f80                	.2byte	0x7f80
    44ac:	0000                	.2byte	0x0
    44ae:	ffc0                	.2byte	0xffc0
    44b0:	5555                	.2byte	0x5555
    44b2:	ffc5                	.2byte	0xffc5
    44b4:	0000                	.2byte	0x0
    44b6:	ffc0                	.2byte	0xffc0
    44b8:	0001                	.2byte	0x1
    44ba:	7fc0                	.2byte	0x7fc0
    44bc:	0000                	.2byte	0x0
    44be:	ffc0                	.2byte	0xffc0
    44c0:	0000                	.2byte	0x0
    44c2:	ffc0                	.2byte	0xffc0
    44c4:	0000                	.2byte	0x0
    44c6:	ffc0                	.2byte	0xffc0
    44c8:	0000                	.2byte	0x0
    44ca:	7fc0                	.2byte	0x7fc0
    44cc:	0000                	.2byte	0x0
    44ce:	ffc0                	.2byte	0xffc0
    44d0:	0000                	.2byte	0x0
    44d2:	ff80                	.2byte	0xff80
    44d4:	0000                	.2byte	0x0
    44d6:	ffc0                	.2byte	0xffc0
    44d8:	0000                	.2byte	0x0
    44da:	7f80                	.2byte	0x7f80
    44dc:	0000                	.2byte	0x0
    44de:	ffc0                	.2byte	0xffc0
    44e0:	ffff                	.2byte	0xffff
    44e2:	ff7f                	.2byte	0xff7f
    44e4:	0000                	.2byte	0x0
    44e6:	ffc0                	.2byte	0xffc0
    44e8:	ffff                	.2byte	0xffff
    44ea:	7f7f                	.2byte	0x7f7f
    44ec:	0000                	.2byte	0x0
    44ee:	ffc0                	.2byte	0xffc0
    44f0:	5555                	.2byte	0x5555
    44f2:	8085                	.2byte	0x8085
    44f4:	0000                	.2byte	0x0
    44f6:	ffc0                	.2byte	0xffc0
    44f8:	0001                	.2byte	0x1
    44fa:	0080                	.2byte	0x80
    44fc:	0000                	.2byte	0x0
    44fe:	ffc0                	.2byte	0xffc0
    4500:	0000                	.2byte	0x0
    4502:	8080                	.2byte	0x8080
    4504:	0000                	.2byte	0x0
    4506:	ffc0                	.2byte	0xffc0
    4508:	0000                	.2byte	0x0
    450a:	0080                	.2byte	0x80
    450c:	0000                	.2byte	0x0
    450e:	ffc0                	.2byte	0xffc0
    4510:	ffff                	.2byte	0xffff
    4512:	807f 0000 ffc0 ffff 	.byte	0x7f, 0x80, 0x00, 0x00, 0xc0, 0xff, 0xff, 0xff, 0x7f, 0x00
    451a:	007f 
    451c:	0000                	.2byte	0x0
    451e:	ffc0                	.2byte	0xffc0
    4520:	fffe                	.2byte	0xfffe
    4522:	807f 0000 ffc0 0002 	.byte	0x7f, 0x80, 0x00, 0x00, 0xc0, 0xff, 0x02, 0x00, 0x00, 0x00
    452a:	0000 
    452c:	0000                	.2byte	0x0
    452e:	ffc0                	.2byte	0xffc0
    4530:	0001                	.2byte	0x1
    4532:	8000                	.2byte	0x8000
    4534:	0000                	.2byte	0x0
    4536:	ffc0                	.2byte	0xffc0
    4538:	0001                	.2byte	0x1
    453a:	0000                	.2byte	0x0
    453c:	0000                	.2byte	0x0
    453e:	ffc0                	.2byte	0xffc0
    4540:	0000                	.2byte	0x0
    4542:	8000                	.2byte	0x8000
    4544:	0000                	.2byte	0x0
    4546:	ffc0                	.2byte	0xffc0
    4548:	0000                	.2byte	0x0
    454a:	0000                	.2byte	0x0
    454c:	0000                	.2byte	0x0
    454e:	7fc0                	.2byte	0x7fc0
    4550:	0000                	.2byte	0x0
    4552:	bf80                	.2byte	0xbf80
    4554:	0000                	.2byte	0x0
    4556:	7fc0                	.2byte	0x7fc0
    4558:	0000                	.2byte	0x0
    455a:	3f80                	.2byte	0x3f80
    455c:	0000                	.2byte	0x0
    455e:	7fc0                	.2byte	0x7fc0
    4560:	aaaa                	.2byte	0xaaaa
    4562:	ffaa                	.2byte	0xffaa
    4564:	0000                	.2byte	0x0
    4566:	7fc0                	.2byte	0x7fc0
    4568:	0001                	.2byte	0x1
    456a:	7f80                	.2byte	0x7f80
    456c:	0000                	.2byte	0x0
    456e:	7fc0                	.2byte	0x7fc0
    4570:	5555                	.2byte	0x5555
    4572:	ffc5                	.2byte	0xffc5
    4574:	0000                	.2byte	0x0
    4576:	7fc0                	.2byte	0x7fc0
    4578:	0001                	.2byte	0x1
    457a:	7fc0                	.2byte	0x7fc0
    457c:	0000                	.2byte	0x0
    457e:	7fc0                	.2byte	0x7fc0
    4580:	0000                	.2byte	0x0
    4582:	ffc0                	.2byte	0xffc0
    4584:	0000                	.2byte	0x0
    4586:	7fc0                	.2byte	0x7fc0
    4588:	0000                	.2byte	0x0
    458a:	7fc0                	.2byte	0x7fc0
    458c:	0000                	.2byte	0x0
    458e:	7fc0                	.2byte	0x7fc0
    4590:	0000                	.2byte	0x0
    4592:	ff80                	.2byte	0xff80
    4594:	0000                	.2byte	0x0
    4596:	7fc0                	.2byte	0x7fc0
    4598:	0000                	.2byte	0x0
    459a:	7f80                	.2byte	0x7f80
    459c:	0000                	.2byte	0x0
    459e:	7fc0                	.2byte	0x7fc0
    45a0:	ffff                	.2byte	0xffff
    45a2:	ff7f                	.2byte	0xff7f
    45a4:	0000                	.2byte	0x0
    45a6:	7fc0                	.2byte	0x7fc0
    45a8:	ffff                	.2byte	0xffff
    45aa:	7f7f                	.2byte	0x7f7f
    45ac:	0000                	.2byte	0x0
    45ae:	7fc0                	.2byte	0x7fc0
    45b0:	5555                	.2byte	0x5555
    45b2:	8085                	.2byte	0x8085
    45b4:	0000                	.2byte	0x0
    45b6:	7fc0                	.2byte	0x7fc0
    45b8:	0001                	.2byte	0x1
    45ba:	0080                	.2byte	0x80
    45bc:	0000                	.2byte	0x0
    45be:	7fc0                	.2byte	0x7fc0
    45c0:	0000                	.2byte	0x0
    45c2:	8080                	.2byte	0x8080
    45c4:	0000                	.2byte	0x0
    45c6:	7fc0                	.2byte	0x7fc0
    45c8:	0000                	.2byte	0x0
    45ca:	0080                	.2byte	0x80
    45cc:	0000                	.2byte	0x0
    45ce:	7fc0                	.2byte	0x7fc0
    45d0:	ffff                	.2byte	0xffff
    45d2:	807f 0000 7fc0 ffff 	.byte	0x7f, 0x80, 0x00, 0x00, 0xc0, 0x7f, 0xff, 0xff, 0x7f, 0x00
    45da:	007f 
    45dc:	0000                	.2byte	0x0
    45de:	7fc0                	.2byte	0x7fc0
    45e0:	fffe                	.2byte	0xfffe
    45e2:	807f 0000 7fc0 0002 	.byte	0x7f, 0x80, 0x00, 0x00, 0xc0, 0x7f, 0x02, 0x00, 0x00, 0x00
    45ea:	0000 
    45ec:	0000                	.2byte	0x0
    45ee:	7fc0                	.2byte	0x7fc0
    45f0:	0001                	.2byte	0x1
    45f2:	8000                	.2byte	0x8000
    45f4:	0000                	.2byte	0x0
    45f6:	7fc0                	.2byte	0x7fc0
    45f8:	0001                	.2byte	0x1
    45fa:	0000                	.2byte	0x0
    45fc:	0000                	.2byte	0x0
    45fe:	7fc0                	.2byte	0x7fc0
    4600:	0000                	.2byte	0x0
    4602:	8000                	.2byte	0x8000
    4604:	0000                	.2byte	0x0
    4606:	7fc0                	.2byte	0x7fc0
    4608:	0000                	.2byte	0x0
    460a:	0000                	.2byte	0x0
    460c:	0000                	.2byte	0x0
    460e:	ff80                	.2byte	0xff80
    4610:	0000                	.2byte	0x0
    4612:	bf80                	.2byte	0xbf80
    4614:	0000                	.2byte	0x0
    4616:	ff80                	.2byte	0xff80
    4618:	0000                	.2byte	0x0
    461a:	3f80                	.2byte	0x3f80
    461c:	0000                	.2byte	0x0
    461e:	ff80                	.2byte	0xff80
    4620:	aaaa                	.2byte	0xaaaa
    4622:	ffaa                	.2byte	0xffaa
    4624:	0000                	.2byte	0x0
    4626:	ff80                	.2byte	0xff80
    4628:	0001                	.2byte	0x1
    462a:	7f80                	.2byte	0x7f80
    462c:	0000                	.2byte	0x0
    462e:	ff80                	.2byte	0xff80
    4630:	5555                	.2byte	0x5555
    4632:	ffc5                	.2byte	0xffc5
    4634:	0000                	.2byte	0x0
    4636:	ff80                	.2byte	0xff80
    4638:	0001                	.2byte	0x1
    463a:	7fc0                	.2byte	0x7fc0
    463c:	0000                	.2byte	0x0
    463e:	ff80                	.2byte	0xff80
    4640:	0000                	.2byte	0x0
    4642:	ffc0                	.2byte	0xffc0
    4644:	0000                	.2byte	0x0
    4646:	ff80                	.2byte	0xff80
    4648:	0000                	.2byte	0x0
    464a:	7fc0                	.2byte	0x7fc0
    464c:	0000                	.2byte	0x0
    464e:	ff80                	.2byte	0xff80
    4650:	0000                	.2byte	0x0
    4652:	ff80                	.2byte	0xff80
    4654:	0000                	.2byte	0x0
    4656:	ff80                	.2byte	0xff80
    4658:	0000                	.2byte	0x0
    465a:	7f80                	.2byte	0x7f80
    465c:	0000                	.2byte	0x0
    465e:	ff80                	.2byte	0xff80
    4660:	ffff                	.2byte	0xffff
    4662:	ff7f                	.2byte	0xff7f
    4664:	0000                	.2byte	0x0
    4666:	ff80                	.2byte	0xff80
    4668:	ffff                	.2byte	0xffff
    466a:	7f7f                	.2byte	0x7f7f
    466c:	0000                	.2byte	0x0
    466e:	ff80                	.2byte	0xff80
    4670:	5555                	.2byte	0x5555
    4672:	8085                	.2byte	0x8085
    4674:	0000                	.2byte	0x0
    4676:	ff80                	.2byte	0xff80
    4678:	0001                	.2byte	0x1
    467a:	0080                	.2byte	0x80
    467c:	0000                	.2byte	0x0
    467e:	ff80                	.2byte	0xff80
    4680:	0000                	.2byte	0x0
    4682:	8080                	.2byte	0x8080
    4684:	0000                	.2byte	0x0
    4686:	ff80                	.2byte	0xff80
    4688:	0000                	.2byte	0x0
    468a:	0080                	.2byte	0x80
    468c:	0000                	.2byte	0x0
    468e:	ff80                	.2byte	0xff80
    4690:	ffff                	.2byte	0xffff
    4692:	807f 0000 ff80 ffff 	.byte	0x7f, 0x80, 0x00, 0x00, 0x80, 0xff, 0xff, 0xff, 0x7f, 0x00
    469a:	007f 
    469c:	0000                	.2byte	0x0
    469e:	ff80                	.2byte	0xff80
    46a0:	fffe                	.2byte	0xfffe
    46a2:	807f 0000 ff80 0002 	.byte	0x7f, 0x80, 0x00, 0x00, 0x80, 0xff, 0x02, 0x00, 0x00, 0x00
    46aa:	0000 
    46ac:	0000                	.2byte	0x0
    46ae:	ff80                	.2byte	0xff80
    46b0:	0001                	.2byte	0x1
    46b2:	8000                	.2byte	0x8000
    46b4:	0000                	.2byte	0x0
    46b6:	ff80                	.2byte	0xff80
    46b8:	0001                	.2byte	0x1
    46ba:	0000                	.2byte	0x0
    46bc:	0000                	.2byte	0x0
    46be:	ff80                	.2byte	0xff80
    46c0:	0000                	.2byte	0x0
    46c2:	8000                	.2byte	0x8000
    46c4:	0000                	.2byte	0x0
    46c6:	ff80                	.2byte	0xff80
    46c8:	0000                	.2byte	0x0
    46ca:	0000                	.2byte	0x0
    46cc:	0000                	.2byte	0x0
    46ce:	7f80                	.2byte	0x7f80
    46d0:	0000                	.2byte	0x0
    46d2:	bf80                	.2byte	0xbf80
    46d4:	0000                	.2byte	0x0
    46d6:	7f80                	.2byte	0x7f80
    46d8:	0000                	.2byte	0x0
    46da:	3f80                	.2byte	0x3f80
    46dc:	0000                	.2byte	0x0
    46de:	7f80                	.2byte	0x7f80
    46e0:	aaaa                	.2byte	0xaaaa
    46e2:	ffaa                	.2byte	0xffaa
    46e4:	0000                	.2byte	0x0
    46e6:	7f80                	.2byte	0x7f80
    46e8:	0001                	.2byte	0x1
    46ea:	7f80                	.2byte	0x7f80
    46ec:	0000                	.2byte	0x0
    46ee:	7f80                	.2byte	0x7f80
    46f0:	5555                	.2byte	0x5555
    46f2:	ffc5                	.2byte	0xffc5
    46f4:	0000                	.2byte	0x0
    46f6:	7f80                	.2byte	0x7f80
    46f8:	0001                	.2byte	0x1
    46fa:	7fc0                	.2byte	0x7fc0
    46fc:	0000                	.2byte	0x0
    46fe:	7f80                	.2byte	0x7f80
    4700:	0000                	.2byte	0x0
    4702:	ffc0                	.2byte	0xffc0
    4704:	0000                	.2byte	0x0
    4706:	7f80                	.2byte	0x7f80
    4708:	0000                	.2byte	0x0
    470a:	7fc0                	.2byte	0x7fc0
    470c:	0000                	.2byte	0x0
    470e:	7f80                	.2byte	0x7f80
    4710:	0000                	.2byte	0x0
    4712:	ff80                	.2byte	0xff80
    4714:	0000                	.2byte	0x0
    4716:	7f80                	.2byte	0x7f80
    4718:	0000                	.2byte	0x0
    471a:	7f80                	.2byte	0x7f80
    471c:	0000                	.2byte	0x0
    471e:	7f80                	.2byte	0x7f80
    4720:	ffff                	.2byte	0xffff
    4722:	ff7f                	.2byte	0xff7f
    4724:	0000                	.2byte	0x0
    4726:	7f80                	.2byte	0x7f80
    4728:	ffff                	.2byte	0xffff
    472a:	7f7f                	.2byte	0x7f7f
    472c:	0000                	.2byte	0x0
    472e:	7f80                	.2byte	0x7f80
    4730:	5555                	.2byte	0x5555
    4732:	8085                	.2byte	0x8085
    4734:	0000                	.2byte	0x0
    4736:	7f80                	.2byte	0x7f80
    4738:	0001                	.2byte	0x1
    473a:	0080                	.2byte	0x80
    473c:	0000                	.2byte	0x0
    473e:	7f80                	.2byte	0x7f80
    4740:	0000                	.2byte	0x0
    4742:	8080                	.2byte	0x8080
    4744:	0000                	.2byte	0x0
    4746:	7f80                	.2byte	0x7f80
    4748:	0000                	.2byte	0x0
    474a:	0080                	.2byte	0x80
    474c:	0000                	.2byte	0x0
    474e:	7f80                	.2byte	0x7f80
    4750:	ffff                	.2byte	0xffff
    4752:	807f 0000 7f80 ffff 	.byte	0x7f, 0x80, 0x00, 0x00, 0x80, 0x7f, 0xff, 0xff, 0x7f, 0x00
    475a:	007f 
    475c:	0000                	.2byte	0x0
    475e:	7f80                	.2byte	0x7f80
    4760:	fffe                	.2byte	0xfffe
    4762:	807f 0000 7f80 0002 	.byte	0x7f, 0x80, 0x00, 0x00, 0x80, 0x7f, 0x02, 0x00, 0x00, 0x00
    476a:	0000 
    476c:	0000                	.2byte	0x0
    476e:	7f80                	.2byte	0x7f80
    4770:	0001                	.2byte	0x1
    4772:	8000                	.2byte	0x8000
    4774:	0000                	.2byte	0x0
    4776:	7f80                	.2byte	0x7f80
    4778:	0001                	.2byte	0x1
    477a:	0000                	.2byte	0x0
    477c:	0000                	.2byte	0x0
    477e:	7f80                	.2byte	0x7f80
    4780:	0000                	.2byte	0x0
    4782:	8000                	.2byte	0x8000
    4784:	0000                	.2byte	0x0
    4786:	7f80                	.2byte	0x7f80
    4788:	0000                	.2byte	0x0
    478a:	0000                	.2byte	0x0
    478c:	ffff                	.2byte	0xffff
    478e:	ff7f                	.2byte	0xff7f
    4790:	0000                	.2byte	0x0
    4792:	bf80                	.2byte	0xbf80
    4794:	ffff                	.2byte	0xffff
    4796:	ff7f                	.2byte	0xff7f
    4798:	0000                	.2byte	0x0
    479a:	3f80                	.2byte	0x3f80
    479c:	ffff                	.2byte	0xffff
    479e:	ff7f                	.2byte	0xff7f
    47a0:	aaaa                	.2byte	0xaaaa
    47a2:	ffaa                	.2byte	0xffaa
    47a4:	ffff                	.2byte	0xffff
    47a6:	ff7f                	.2byte	0xff7f
    47a8:	0001                	.2byte	0x1
    47aa:	7f80                	.2byte	0x7f80
    47ac:	ffff                	.2byte	0xffff
    47ae:	ff7f                	.2byte	0xff7f
    47b0:	5555                	.2byte	0x5555
    47b2:	ffc5                	.2byte	0xffc5
    47b4:	ffff                	.2byte	0xffff
    47b6:	ff7f                	.2byte	0xff7f
    47b8:	0001                	.2byte	0x1
    47ba:	7fc0                	.2byte	0x7fc0
    47bc:	ffff                	.2byte	0xffff
    47be:	ff7f                	.2byte	0xff7f
    47c0:	0000                	.2byte	0x0
    47c2:	ffc0                	.2byte	0xffc0
    47c4:	ffff                	.2byte	0xffff
    47c6:	ff7f                	.2byte	0xff7f
    47c8:	0000                	.2byte	0x0
    47ca:	7fc0                	.2byte	0x7fc0
    47cc:	ffff                	.2byte	0xffff
    47ce:	ff7f                	.2byte	0xff7f
    47d0:	0000                	.2byte	0x0
    47d2:	ff80                	.2byte	0xff80
    47d4:	ffff                	.2byte	0xffff
    47d6:	ff7f                	.2byte	0xff7f
    47d8:	0000                	.2byte	0x0
    47da:	7f80                	.2byte	0x7f80
    47dc:	ffff                	.2byte	0xffff
    47de:	ff7f                	.2byte	0xff7f
    47e0:	ffff                	.2byte	0xffff
    47e2:	ff7f                	.2byte	0xff7f
    47e4:	ffff                	.2byte	0xffff
    47e6:	ff7f                	.2byte	0xff7f
    47e8:	ffff                	.2byte	0xffff
    47ea:	7f7f                	.2byte	0x7f7f
    47ec:	ffff                	.2byte	0xffff
    47ee:	ff7f                	.2byte	0xff7f
    47f0:	5555                	.2byte	0x5555
    47f2:	8085                	.2byte	0x8085
    47f4:	ffff                	.2byte	0xffff
    47f6:	ff7f                	.2byte	0xff7f
    47f8:	0001                	.2byte	0x1
    47fa:	0080                	.2byte	0x80
    47fc:	ffff                	.2byte	0xffff
    47fe:	ff7f                	.2byte	0xff7f
    4800:	0000                	.2byte	0x0
    4802:	8080                	.2byte	0x8080
    4804:	ffff                	.2byte	0xffff
    4806:	ff7f                	.2byte	0xff7f
    4808:	0000                	.2byte	0x0
    480a:	0080                	.2byte	0x80
    480c:	ffff                	.2byte	0xffff
    480e:	ff7f                	.2byte	0xff7f
    4810:	ffff                	.2byte	0xffff
    4812:	807f ffff ff7f ffff 	.byte	0x7f, 0x80, 0xff, 0xff, 0x7f, 0xff, 0xff, 0xff, 0x7f, 0x00
    481a:	007f 
    481c:	ffff                	.2byte	0xffff
    481e:	ff7f                	.2byte	0xff7f
    4820:	fffe                	.2byte	0xfffe
    4822:	807f ffff ff7f 0002 	.byte	0x7f, 0x80, 0xff, 0xff, 0x7f, 0xff, 0x02, 0x00, 0x00, 0x00
    482a:	0000 
    482c:	ffff                	.2byte	0xffff
    482e:	ff7f                	.2byte	0xff7f
    4830:	0001                	.2byte	0x1
    4832:	8000                	.2byte	0x8000
    4834:	ffff                	.2byte	0xffff
    4836:	ff7f                	.2byte	0xff7f
    4838:	0001                	.2byte	0x1
    483a:	0000                	.2byte	0x0
    483c:	ffff                	.2byte	0xffff
    483e:	ff7f                	.2byte	0xff7f
    4840:	0000                	.2byte	0x0
    4842:	8000                	.2byte	0x8000
    4844:	ffff                	.2byte	0xffff
    4846:	ff7f                	.2byte	0xff7f
    4848:	0000                	.2byte	0x0
    484a:	0000                	.2byte	0x0
    484c:	ffff                	.2byte	0xffff
    484e:	7f7f                	.2byte	0x7f7f
    4850:	0000                	.2byte	0x0
    4852:	bf80                	.2byte	0xbf80
    4854:	ffff                	.2byte	0xffff
    4856:	7f7f                	.2byte	0x7f7f
    4858:	0000                	.2byte	0x0
    485a:	3f80                	.2byte	0x3f80
    485c:	ffff                	.2byte	0xffff
    485e:	7f7f                	.2byte	0x7f7f
    4860:	aaaa                	.2byte	0xaaaa
    4862:	ffaa                	.2byte	0xffaa
    4864:	ffff                	.2byte	0xffff
    4866:	7f7f                	.2byte	0x7f7f
    4868:	0001                	.2byte	0x1
    486a:	7f80                	.2byte	0x7f80
    486c:	ffff                	.2byte	0xffff
    486e:	7f7f                	.2byte	0x7f7f
    4870:	5555                	.2byte	0x5555
    4872:	ffc5                	.2byte	0xffc5
    4874:	ffff                	.2byte	0xffff
    4876:	7f7f                	.2byte	0x7f7f
    4878:	0001                	.2byte	0x1
    487a:	7fc0                	.2byte	0x7fc0
    487c:	ffff                	.2byte	0xffff
    487e:	7f7f                	.2byte	0x7f7f
    4880:	0000                	.2byte	0x0
    4882:	ffc0                	.2byte	0xffc0
    4884:	ffff                	.2byte	0xffff
    4886:	7f7f                	.2byte	0x7f7f
    4888:	0000                	.2byte	0x0
    488a:	7fc0                	.2byte	0x7fc0
    488c:	ffff                	.2byte	0xffff
    488e:	7f7f                	.2byte	0x7f7f
    4890:	0000                	.2byte	0x0
    4892:	ff80                	.2byte	0xff80
    4894:	ffff                	.2byte	0xffff
    4896:	7f7f                	.2byte	0x7f7f
    4898:	0000                	.2byte	0x0
    489a:	7f80                	.2byte	0x7f80
    489c:	ffff                	.2byte	0xffff
    489e:	7f7f                	.2byte	0x7f7f
    48a0:	ffff                	.2byte	0xffff
    48a2:	ff7f                	.2byte	0xff7f
    48a4:	ffff                	.2byte	0xffff
    48a6:	7f7f                	.2byte	0x7f7f
    48a8:	ffff                	.2byte	0xffff
    48aa:	7f7f                	.2byte	0x7f7f
    48ac:	ffff                	.2byte	0xffff
    48ae:	7f7f                	.2byte	0x7f7f
    48b0:	5555                	.2byte	0x5555
    48b2:	8085                	.2byte	0x8085
    48b4:	ffff                	.2byte	0xffff
    48b6:	7f7f                	.2byte	0x7f7f
    48b8:	0001                	.2byte	0x1
    48ba:	0080                	.2byte	0x80
    48bc:	ffff                	.2byte	0xffff
    48be:	7f7f                	.2byte	0x7f7f
    48c0:	0000                	.2byte	0x0
    48c2:	8080                	.2byte	0x8080
    48c4:	ffff                	.2byte	0xffff
    48c6:	7f7f                	.2byte	0x7f7f
    48c8:	0000                	.2byte	0x0
    48ca:	0080                	.2byte	0x80
    48cc:	ffff                	.2byte	0xffff
    48ce:	7f7f                	.2byte	0x7f7f
    48d0:	ffff                	.2byte	0xffff
    48d2:	807f ffff 7f7f ffff 	.byte	0x7f, 0x80, 0xff, 0xff, 0x7f, 0x7f, 0xff, 0xff, 0x7f, 0x00
    48da:	007f 
    48dc:	ffff                	.2byte	0xffff
    48de:	7f7f                	.2byte	0x7f7f
    48e0:	fffe                	.2byte	0xfffe
    48e2:	807f ffff 7f7f 0002 	.byte	0x7f, 0x80, 0xff, 0xff, 0x7f, 0x7f, 0x02, 0x00, 0x00, 0x00
    48ea:	0000 
    48ec:	ffff                	.2byte	0xffff
    48ee:	7f7f                	.2byte	0x7f7f
    48f0:	0001                	.2byte	0x1
    48f2:	8000                	.2byte	0x8000
    48f4:	ffff                	.2byte	0xffff
    48f6:	7f7f                	.2byte	0x7f7f
    48f8:	0001                	.2byte	0x1
    48fa:	0000                	.2byte	0x0
    48fc:	ffff                	.2byte	0xffff
    48fe:	7f7f                	.2byte	0x7f7f
    4900:	0000                	.2byte	0x0
    4902:	8000                	.2byte	0x8000
    4904:	ffff                	.2byte	0xffff
    4906:	7f7f                	.2byte	0x7f7f
    4908:	0000                	.2byte	0x0
    490a:	0000                	.2byte	0x0
    490c:	5555                	.2byte	0x5555
    490e:	8085                	.2byte	0x8085
    4910:	0000                	.2byte	0x0
    4912:	bf80                	.2byte	0xbf80
    4914:	5555                	.2byte	0x5555
    4916:	8085                	.2byte	0x8085
    4918:	0000                	.2byte	0x0
    491a:	3f80                	.2byte	0x3f80
    491c:	5555                	.2byte	0x5555
    491e:	8085                	.2byte	0x8085
    4920:	aaaa                	.2byte	0xaaaa
    4922:	ffaa                	.2byte	0xffaa
    4924:	5555                	.2byte	0x5555
    4926:	8085                	.2byte	0x8085
    4928:	0001                	.2byte	0x1
    492a:	7f80                	.2byte	0x7f80
    492c:	5555                	.2byte	0x5555
    492e:	8085                	.2byte	0x8085
    4930:	5555                	.2byte	0x5555
    4932:	ffc5                	.2byte	0xffc5
    4934:	5555                	.2byte	0x5555
    4936:	8085                	.2byte	0x8085
    4938:	0001                	.2byte	0x1
    493a:	7fc0                	.2byte	0x7fc0
    493c:	5555                	.2byte	0x5555
    493e:	8085                	.2byte	0x8085
    4940:	0000                	.2byte	0x0
    4942:	ffc0                	.2byte	0xffc0
    4944:	5555                	.2byte	0x5555
    4946:	8085                	.2byte	0x8085
    4948:	0000                	.2byte	0x0
    494a:	7fc0                	.2byte	0x7fc0
    494c:	5555                	.2byte	0x5555
    494e:	8085                	.2byte	0x8085
    4950:	0000                	.2byte	0x0
    4952:	ff80                	.2byte	0xff80
    4954:	5555                	.2byte	0x5555
    4956:	8085                	.2byte	0x8085
    4958:	0000                	.2byte	0x0
    495a:	7f80                	.2byte	0x7f80
    495c:	5555                	.2byte	0x5555
    495e:	8085                	.2byte	0x8085
    4960:	ffff                	.2byte	0xffff
    4962:	ff7f                	.2byte	0xff7f
    4964:	5555                	.2byte	0x5555
    4966:	8085                	.2byte	0x8085
    4968:	ffff                	.2byte	0xffff
    496a:	7f7f                	.2byte	0x7f7f
    496c:	5555                	.2byte	0x5555
    496e:	8085                	.2byte	0x8085
    4970:	5555                	.2byte	0x5555
    4972:	8085                	.2byte	0x8085
    4974:	5555                	.2byte	0x5555
    4976:	8085                	.2byte	0x8085
    4978:	0001                	.2byte	0x1
    497a:	0080                	.2byte	0x80
    497c:	5555                	.2byte	0x5555
    497e:	8085                	.2byte	0x8085
    4980:	0000                	.2byte	0x0
    4982:	8080                	.2byte	0x8080
    4984:	5555                	.2byte	0x5555
    4986:	8085                	.2byte	0x8085
    4988:	0000                	.2byte	0x0
    498a:	0080                	.2byte	0x80
    498c:	5555                	.2byte	0x5555
    498e:	8085                	.2byte	0x8085
    4990:	ffff                	.2byte	0xffff
    4992:	807f 5555 8085 ffff 	.byte	0x7f, 0x80, 0x55, 0x55, 0x85, 0x80, 0xff, 0xff, 0x7f, 0x00
    499a:	007f 
    499c:	5555                	.2byte	0x5555
    499e:	8085                	.2byte	0x8085
    49a0:	fffe                	.2byte	0xfffe
    49a2:	807f 5555 8085 0002 	.byte	0x7f, 0x80, 0x55, 0x55, 0x85, 0x80, 0x02, 0x00, 0x00, 0x00
    49aa:	0000 
    49ac:	5555                	.2byte	0x5555
    49ae:	8085                	.2byte	0x8085
    49b0:	0001                	.2byte	0x1
    49b2:	8000                	.2byte	0x8000
    49b4:	5555                	.2byte	0x5555
    49b6:	8085                	.2byte	0x8085
    49b8:	0001                	.2byte	0x1
    49ba:	0000                	.2byte	0x0
    49bc:	5555                	.2byte	0x5555
    49be:	8085                	.2byte	0x8085
    49c0:	0000                	.2byte	0x0
    49c2:	8000                	.2byte	0x8000
    49c4:	5555                	.2byte	0x5555
    49c6:	8085                	.2byte	0x8085
    49c8:	0000                	.2byte	0x0
    49ca:	0000                	.2byte	0x0
    49cc:	0001                	.2byte	0x1
    49ce:	0080                	.2byte	0x80
    49d0:	0000                	.2byte	0x0
    49d2:	bf80                	.2byte	0xbf80
    49d4:	0001                	.2byte	0x1
    49d6:	0080                	.2byte	0x80
    49d8:	0000                	.2byte	0x0
    49da:	3f80                	.2byte	0x3f80
    49dc:	0001                	.2byte	0x1
    49de:	0080                	.2byte	0x80
    49e0:	aaaa                	.2byte	0xaaaa
    49e2:	ffaa                	.2byte	0xffaa
    49e4:	0001                	.2byte	0x1
    49e6:	0080                	.2byte	0x80
    49e8:	0001                	.2byte	0x1
    49ea:	7f80                	.2byte	0x7f80
    49ec:	0001                	.2byte	0x1
    49ee:	0080                	.2byte	0x80
    49f0:	5555                	.2byte	0x5555
    49f2:	ffc5                	.2byte	0xffc5
    49f4:	0001                	.2byte	0x1
    49f6:	0080                	.2byte	0x80
    49f8:	0001                	.2byte	0x1
    49fa:	7fc0                	.2byte	0x7fc0
    49fc:	0001                	.2byte	0x1
    49fe:	0080                	.2byte	0x80
    4a00:	0000                	.2byte	0x0
    4a02:	ffc0                	.2byte	0xffc0
    4a04:	0001                	.2byte	0x1
    4a06:	0080                	.2byte	0x80
    4a08:	0000                	.2byte	0x0
    4a0a:	7fc0                	.2byte	0x7fc0
    4a0c:	0001                	.2byte	0x1
    4a0e:	0080                	.2byte	0x80
    4a10:	0000                	.2byte	0x0
    4a12:	ff80                	.2byte	0xff80
    4a14:	0001                	.2byte	0x1
    4a16:	0080                	.2byte	0x80
    4a18:	0000                	.2byte	0x0
    4a1a:	7f80                	.2byte	0x7f80
    4a1c:	0001                	.2byte	0x1
    4a1e:	0080                	.2byte	0x80
    4a20:	ffff                	.2byte	0xffff
    4a22:	ff7f                	.2byte	0xff7f
    4a24:	0001                	.2byte	0x1
    4a26:	0080                	.2byte	0x80
    4a28:	ffff                	.2byte	0xffff
    4a2a:	7f7f                	.2byte	0x7f7f
    4a2c:	0001                	.2byte	0x1
    4a2e:	0080                	.2byte	0x80
    4a30:	5555                	.2byte	0x5555
    4a32:	8085                	.2byte	0x8085
    4a34:	0001                	.2byte	0x1
    4a36:	0080                	.2byte	0x80
    4a38:	0001                	.2byte	0x1
    4a3a:	0080                	.2byte	0x80
    4a3c:	0001                	.2byte	0x1
    4a3e:	0080                	.2byte	0x80
    4a40:	0000                	.2byte	0x0
    4a42:	8080                	.2byte	0x8080
    4a44:	0001                	.2byte	0x1
    4a46:	0080                	.2byte	0x80
    4a48:	0000                	.2byte	0x0
    4a4a:	0080                	.2byte	0x80
    4a4c:	0001                	.2byte	0x1
    4a4e:	0080                	.2byte	0x80
    4a50:	ffff                	.2byte	0xffff
    4a52:	807f 0001 0080 ffff 	.byte	0x7f, 0x80, 0x01, 0x00, 0x80, 0x00, 0xff, 0xff, 0x7f, 0x00
    4a5a:	007f 
    4a5c:	0001                	.2byte	0x1
    4a5e:	0080                	.2byte	0x80
    4a60:	fffe                	.2byte	0xfffe
    4a62:	807f 0001 0080 0002 	.byte	0x7f, 0x80, 0x01, 0x00, 0x80, 0x00, 0x02, 0x00, 0x00, 0x00
    4a6a:	0000 
    4a6c:	0001                	.2byte	0x1
    4a6e:	0080                	.2byte	0x80
    4a70:	0001                	.2byte	0x1
    4a72:	8000                	.2byte	0x8000
    4a74:	0001                	.2byte	0x1
    4a76:	0080                	.2byte	0x80
    4a78:	0001                	.2byte	0x1
    4a7a:	0000                	.2byte	0x0
    4a7c:	0001                	.2byte	0x1
    4a7e:	0080                	.2byte	0x80
    4a80:	0000                	.2byte	0x0
    4a82:	8000                	.2byte	0x8000
    4a84:	0001                	.2byte	0x1
    4a86:	0080                	.2byte	0x80
    4a88:	0000                	.2byte	0x0
    4a8a:	0000                	.2byte	0x0
    4a8c:	0000                	.2byte	0x0
    4a8e:	8080                	.2byte	0x8080
    4a90:	0000                	.2byte	0x0
    4a92:	bf80                	.2byte	0xbf80
    4a94:	0000                	.2byte	0x0
    4a96:	8080                	.2byte	0x8080
    4a98:	0000                	.2byte	0x0
    4a9a:	3f80                	.2byte	0x3f80
    4a9c:	0000                	.2byte	0x0
    4a9e:	8080                	.2byte	0x8080
    4aa0:	aaaa                	.2byte	0xaaaa
    4aa2:	ffaa                	.2byte	0xffaa
    4aa4:	0000                	.2byte	0x0
    4aa6:	8080                	.2byte	0x8080
    4aa8:	0001                	.2byte	0x1
    4aaa:	7f80                	.2byte	0x7f80
    4aac:	0000                	.2byte	0x0
    4aae:	8080                	.2byte	0x8080
    4ab0:	5555                	.2byte	0x5555
    4ab2:	ffc5                	.2byte	0xffc5
    4ab4:	0000                	.2byte	0x0
    4ab6:	8080                	.2byte	0x8080
    4ab8:	0001                	.2byte	0x1
    4aba:	7fc0                	.2byte	0x7fc0
    4abc:	0000                	.2byte	0x0
    4abe:	8080                	.2byte	0x8080
    4ac0:	0000                	.2byte	0x0
    4ac2:	ffc0                	.2byte	0xffc0
    4ac4:	0000                	.2byte	0x0
    4ac6:	8080                	.2byte	0x8080
    4ac8:	0000                	.2byte	0x0
    4aca:	7fc0                	.2byte	0x7fc0
    4acc:	0000                	.2byte	0x0
    4ace:	8080                	.2byte	0x8080
    4ad0:	0000                	.2byte	0x0
    4ad2:	ff80                	.2byte	0xff80
    4ad4:	0000                	.2byte	0x0
    4ad6:	8080                	.2byte	0x8080
    4ad8:	0000                	.2byte	0x0
    4ada:	7f80                	.2byte	0x7f80
    4adc:	0000                	.2byte	0x0
    4ade:	8080                	.2byte	0x8080
    4ae0:	ffff                	.2byte	0xffff
    4ae2:	ff7f                	.2byte	0xff7f
    4ae4:	0000                	.2byte	0x0
    4ae6:	8080                	.2byte	0x8080
    4ae8:	ffff                	.2byte	0xffff
    4aea:	7f7f                	.2byte	0x7f7f
    4aec:	0000                	.2byte	0x0
    4aee:	8080                	.2byte	0x8080
    4af0:	5555                	.2byte	0x5555
    4af2:	8085                	.2byte	0x8085
    4af4:	0000                	.2byte	0x0
    4af6:	8080                	.2byte	0x8080
    4af8:	0001                	.2byte	0x1
    4afa:	0080                	.2byte	0x80
    4afc:	0000                	.2byte	0x0
    4afe:	8080                	.2byte	0x8080
    4b00:	0000                	.2byte	0x0
    4b02:	8080                	.2byte	0x8080
    4b04:	0000                	.2byte	0x0
    4b06:	8080                	.2byte	0x8080
    4b08:	0000                	.2byte	0x0
    4b0a:	0080                	.2byte	0x80
    4b0c:	0000                	.2byte	0x0
    4b0e:	8080                	.2byte	0x8080
    4b10:	ffff                	.2byte	0xffff
    4b12:	807f 0000 8080 ffff 	.byte	0x7f, 0x80, 0x00, 0x00, 0x80, 0x80, 0xff, 0xff, 0x7f, 0x00
    4b1a:	007f 
    4b1c:	0000                	.2byte	0x0
    4b1e:	8080                	.2byte	0x8080
    4b20:	fffe                	.2byte	0xfffe
    4b22:	807f 0000 8080 0002 	.byte	0x7f, 0x80, 0x00, 0x00, 0x80, 0x80, 0x02, 0x00, 0x00, 0x00
    4b2a:	0000 
    4b2c:	0000                	.2byte	0x0
    4b2e:	8080                	.2byte	0x8080
    4b30:	0001                	.2byte	0x1
    4b32:	8000                	.2byte	0x8000
    4b34:	0000                	.2byte	0x0
    4b36:	8080                	.2byte	0x8080
    4b38:	0001                	.2byte	0x1
    4b3a:	0000                	.2byte	0x0
    4b3c:	0000                	.2byte	0x0
    4b3e:	8080                	.2byte	0x8080
    4b40:	0000                	.2byte	0x0
    4b42:	8000                	.2byte	0x8000
    4b44:	0000                	.2byte	0x0
    4b46:	8080                	.2byte	0x8080
    4b48:	0000                	.2byte	0x0
    4b4a:	0000                	.2byte	0x0
    4b4c:	0000                	.2byte	0x0
    4b4e:	0080                	.2byte	0x80
    4b50:	0000                	.2byte	0x0
    4b52:	bf80                	.2byte	0xbf80
    4b54:	0000                	.2byte	0x0
    4b56:	0080                	.2byte	0x80
    4b58:	0000                	.2byte	0x0
    4b5a:	3f80                	.2byte	0x3f80
    4b5c:	0000                	.2byte	0x0
    4b5e:	0080                	.2byte	0x80
    4b60:	aaaa                	.2byte	0xaaaa
    4b62:	ffaa                	.2byte	0xffaa
    4b64:	0000                	.2byte	0x0
    4b66:	0080                	.2byte	0x80
    4b68:	0001                	.2byte	0x1
    4b6a:	7f80                	.2byte	0x7f80
    4b6c:	0000                	.2byte	0x0
    4b6e:	0080                	.2byte	0x80
    4b70:	5555                	.2byte	0x5555
    4b72:	ffc5                	.2byte	0xffc5
    4b74:	0000                	.2byte	0x0
    4b76:	0080                	.2byte	0x80
    4b78:	0001                	.2byte	0x1
    4b7a:	7fc0                	.2byte	0x7fc0
    4b7c:	0000                	.2byte	0x0
    4b7e:	0080                	.2byte	0x80
    4b80:	0000                	.2byte	0x0
    4b82:	ffc0                	.2byte	0xffc0
    4b84:	0000                	.2byte	0x0
    4b86:	0080                	.2byte	0x80
    4b88:	0000                	.2byte	0x0
    4b8a:	7fc0                	.2byte	0x7fc0
    4b8c:	0000                	.2byte	0x0
    4b8e:	0080                	.2byte	0x80
    4b90:	0000                	.2byte	0x0
    4b92:	ff80                	.2byte	0xff80
    4b94:	0000                	.2byte	0x0
    4b96:	0080                	.2byte	0x80
    4b98:	0000                	.2byte	0x0
    4b9a:	7f80                	.2byte	0x7f80
    4b9c:	0000                	.2byte	0x0
    4b9e:	0080                	.2byte	0x80
    4ba0:	ffff                	.2byte	0xffff
    4ba2:	ff7f                	.2byte	0xff7f
    4ba4:	0000                	.2byte	0x0
    4ba6:	0080                	.2byte	0x80
    4ba8:	ffff                	.2byte	0xffff
    4baa:	7f7f                	.2byte	0x7f7f
    4bac:	0000                	.2byte	0x0
    4bae:	0080                	.2byte	0x80
    4bb0:	5555                	.2byte	0x5555
    4bb2:	8085                	.2byte	0x8085
    4bb4:	0000                	.2byte	0x0
    4bb6:	0080                	.2byte	0x80
    4bb8:	0001                	.2byte	0x1
    4bba:	0080                	.2byte	0x80
    4bbc:	0000                	.2byte	0x0
    4bbe:	0080                	.2byte	0x80
    4bc0:	0000                	.2byte	0x0
    4bc2:	8080                	.2byte	0x8080
    4bc4:	0000                	.2byte	0x0
    4bc6:	0080                	.2byte	0x80
    4bc8:	0000                	.2byte	0x0
    4bca:	0080                	.2byte	0x80
    4bcc:	0000                	.2byte	0x0
    4bce:	0080                	.2byte	0x80
    4bd0:	ffff                	.2byte	0xffff
    4bd2:	807f 0000 0080 ffff 	.byte	0x7f, 0x80, 0x00, 0x00, 0x80, 0x00, 0xff, 0xff, 0x7f, 0x00
    4bda:	007f 
    4bdc:	0000                	.2byte	0x0
    4bde:	0080                	.2byte	0x80
    4be0:	fffe                	.2byte	0xfffe
    4be2:	807f 0000 0080 0002 	.byte	0x7f, 0x80, 0x00, 0x00, 0x80, 0x00, 0x02, 0x00, 0x00, 0x00
    4bea:	0000 
    4bec:	0000                	.2byte	0x0
    4bee:	0080                	.2byte	0x80
    4bf0:	0001                	.2byte	0x1
    4bf2:	8000                	.2byte	0x8000
    4bf4:	0000                	.2byte	0x0
    4bf6:	0080                	.2byte	0x80
    4bf8:	0001                	.2byte	0x1
    4bfa:	0000                	.2byte	0x0
    4bfc:	0000                	.2byte	0x0
    4bfe:	0080                	.2byte	0x80
    4c00:	0000                	.2byte	0x0
    4c02:	8000                	.2byte	0x8000
    4c04:	0000                	.2byte	0x0
    4c06:	0080                	.2byte	0x80
    4c08:	0000                	.2byte	0x0
    4c0a:	0000                	.2byte	0x0
    4c0c:	ffff                	.2byte	0xffff
    4c0e:	807f 0000 bf80 ffff 	.byte	0x7f, 0x80, 0x00, 0x00, 0x80, 0xbf, 0xff, 0xff, 0x7f, 0x80
    4c16:	807f 
    4c18:	0000                	.2byte	0x0
    4c1a:	3f80                	.2byte	0x3f80
    4c1c:	ffff                	.2byte	0xffff
    4c1e:	807f aaaa ffaa ffff 	.byte	0x7f, 0x80, 0xaa, 0xaa, 0xaa, 0xff, 0xff, 0xff, 0x7f, 0x80
    4c26:	807f 
    4c28:	0001                	.2byte	0x1
    4c2a:	7f80                	.2byte	0x7f80
    4c2c:	ffff                	.2byte	0xffff
    4c2e:	807f 5555 ffc5 ffff 	.byte	0x7f, 0x80, 0x55, 0x55, 0xc5, 0xff, 0xff, 0xff, 0x7f, 0x80
    4c36:	807f 
    4c38:	0001                	.2byte	0x1
    4c3a:	7fc0                	.2byte	0x7fc0
    4c3c:	ffff                	.2byte	0xffff
    4c3e:	807f 0000 ffc0 ffff 	.byte	0x7f, 0x80, 0x00, 0x00, 0xc0, 0xff, 0xff, 0xff, 0x7f, 0x80
    4c46:	807f 
    4c48:	0000                	.2byte	0x0
    4c4a:	7fc0                	.2byte	0x7fc0
    4c4c:	ffff                	.2byte	0xffff
    4c4e:	807f 0000 ff80 ffff 	.byte	0x7f, 0x80, 0x00, 0x00, 0x80, 0xff, 0xff, 0xff, 0x7f, 0x80
    4c56:	807f 
    4c58:	0000                	.2byte	0x0
    4c5a:	7f80                	.2byte	0x7f80
    4c5c:	ffff                	.2byte	0xffff
    4c5e:	807f ffff ff7f ffff 	.byte	0x7f, 0x80, 0xff, 0xff, 0x7f, 0xff, 0xff, 0xff, 0x7f, 0x80
    4c66:	807f 
    4c68:	ffff                	.2byte	0xffff
    4c6a:	7f7f                	.2byte	0x7f7f
    4c6c:	ffff                	.2byte	0xffff
    4c6e:	807f 5555 8085 ffff 	.byte	0x7f, 0x80, 0x55, 0x55, 0x85, 0x80, 0xff, 0xff, 0x7f, 0x80
    4c76:	807f 
    4c78:	0001                	.2byte	0x1
    4c7a:	0080                	.2byte	0x80
    4c7c:	ffff                	.2byte	0xffff
    4c7e:	807f 0000 8080 ffff 	.byte	0x7f, 0x80, 0x00, 0x00, 0x80, 0x80, 0xff, 0xff, 0x7f, 0x80
    4c86:	807f 
    4c88:	0000                	.2byte	0x0
    4c8a:	0080                	.2byte	0x80
    4c8c:	ffff                	.2byte	0xffff
    4c8e:	807f ffff 807f ffff 	.byte	0x7f, 0x80, 0xff, 0xff, 0x7f, 0x80, 0xff, 0xff, 0x7f, 0x80
    4c96:	807f 
    4c98:	ffff                	.2byte	0xffff
    4c9a:	007f ffff 807f fffe 	.byte	0x7f, 0x00, 0xff, 0xff, 0x7f, 0x80, 0xfe, 0xff, 0x7f, 0x80
    4ca2:	807f 
    4ca4:	ffff                	.2byte	0xffff
    4ca6:	807f 0002 0000 ffff 	.byte	0x7f, 0x80, 0x02, 0x00, 0x00, 0x00, 0xff, 0xff, 0x7f, 0x80
    4cae:	807f 
    4cb0:	0001                	.2byte	0x1
    4cb2:	8000                	.2byte	0x8000
    4cb4:	ffff                	.2byte	0xffff
    4cb6:	807f 0001 0000 ffff 	.byte	0x7f, 0x80, 0x01, 0x00, 0x00, 0x00, 0xff, 0xff, 0x7f, 0x80
    4cbe:	807f 
    4cc0:	0000                	.2byte	0x0
    4cc2:	8000                	.2byte	0x8000
    4cc4:	ffff                	.2byte	0xffff
    4cc6:	807f 0000 0000 ffff 	.byte	0x7f, 0x80, 0x00, 0x00, 0x00, 0x00, 0xff, 0xff, 0x7f, 0x00
    4cce:	007f 
    4cd0:	0000                	.2byte	0x0
    4cd2:	bf80                	.2byte	0xbf80
    4cd4:	ffff                	.2byte	0xffff
    4cd6:	007f 0000 3f80 ffff 	.byte	0x7f, 0x00, 0x00, 0x00, 0x80, 0x3f, 0xff, 0xff, 0x7f, 0x00
    4cde:	007f 
    4ce0:	aaaa                	.2byte	0xaaaa
    4ce2:	ffaa                	.2byte	0xffaa
    4ce4:	ffff                	.2byte	0xffff
    4ce6:	007f 0001 7f80 ffff 	.byte	0x7f, 0x00, 0x01, 0x00, 0x80, 0x7f, 0xff, 0xff, 0x7f, 0x00
    4cee:	007f 
    4cf0:	5555                	.2byte	0x5555
    4cf2:	ffc5                	.2byte	0xffc5
    4cf4:	ffff                	.2byte	0xffff
    4cf6:	007f 0001 7fc0 ffff 	.byte	0x7f, 0x00, 0x01, 0x00, 0xc0, 0x7f, 0xff, 0xff, 0x7f, 0x00
    4cfe:	007f 
    4d00:	0000                	.2byte	0x0
    4d02:	ffc0                	.2byte	0xffc0
    4d04:	ffff                	.2byte	0xffff
    4d06:	007f 0000 7fc0 ffff 	.byte	0x7f, 0x00, 0x00, 0x00, 0xc0, 0x7f, 0xff, 0xff, 0x7f, 0x00
    4d0e:	007f 
    4d10:	0000                	.2byte	0x0
    4d12:	ff80                	.2byte	0xff80
    4d14:	ffff                	.2byte	0xffff
    4d16:	007f 0000 7f80 ffff 	.byte	0x7f, 0x00, 0x00, 0x00, 0x80, 0x7f, 0xff, 0xff, 0x7f, 0x00
    4d1e:	007f 
    4d20:	ffff                	.2byte	0xffff
    4d22:	ff7f                	.2byte	0xff7f
    4d24:	ffff                	.2byte	0xffff
    4d26:	007f ffff 7f7f ffff 	.byte	0x7f, 0x00, 0xff, 0xff, 0x7f, 0x7f, 0xff, 0xff, 0x7f, 0x00
    4d2e:	007f 
    4d30:	5555                	.2byte	0x5555
    4d32:	8085                	.2byte	0x8085
    4d34:	ffff                	.2byte	0xffff
    4d36:	007f 0001 0080 ffff 	.byte	0x7f, 0x00, 0x01, 0x00, 0x80, 0x00, 0xff, 0xff, 0x7f, 0x00
    4d3e:	007f 
    4d40:	0000                	.2byte	0x0
    4d42:	8080                	.2byte	0x8080
    4d44:	ffff                	.2byte	0xffff
    4d46:	007f 0000 0080 ffff 	.byte	0x7f, 0x00, 0x00, 0x00, 0x80, 0x00, 0xff, 0xff, 0x7f, 0x00
    4d4e:	007f 
    4d50:	ffff                	.2byte	0xffff
    4d52:	807f ffff 007f ffff 	.byte	0x7f, 0x80, 0xff, 0xff, 0x7f, 0x00, 0xff, 0xff, 0x7f, 0x00
    4d5a:	007f 
    4d5c:	ffff                	.2byte	0xffff
    4d5e:	007f fffe 807f ffff 	.byte	0x7f, 0x00, 0xfe, 0xff, 0x7f, 0x80, 0xff, 0xff, 0x7f, 0x00
    4d66:	007f 
    4d68:	0002                	.2byte	0x2
    4d6a:	0000                	.2byte	0x0
    4d6c:	ffff                	.2byte	0xffff
    4d6e:	007f 0001 8000 ffff 	.byte	0x7f, 0x00, 0x01, 0x00, 0x00, 0x80, 0xff, 0xff, 0x7f, 0x00
    4d76:	007f 
    4d78:	0001                	.2byte	0x1
    4d7a:	0000                	.2byte	0x0
    4d7c:	ffff                	.2byte	0xffff
    4d7e:	007f 0000 8000 ffff 	.byte	0x7f, 0x00, 0x00, 0x00, 0x00, 0x80, 0xff, 0xff, 0x7f, 0x00
    4d86:	007f 
    4d88:	0000                	.2byte	0x0
    4d8a:	0000                	.2byte	0x0
    4d8c:	fffe                	.2byte	0xfffe
    4d8e:	807f 0000 bf80 fffe 	.byte	0x7f, 0x80, 0x00, 0x00, 0x80, 0xbf, 0xfe, 0xff, 0x7f, 0x80
    4d96:	807f 
    4d98:	0000                	.2byte	0x0
    4d9a:	3f80                	.2byte	0x3f80
    4d9c:	fffe                	.2byte	0xfffe
    4d9e:	807f aaaa ffaa fffe 	.byte	0x7f, 0x80, 0xaa, 0xaa, 0xaa, 0xff, 0xfe, 0xff, 0x7f, 0x80
    4da6:	807f 
    4da8:	0001                	.2byte	0x1
    4daa:	7f80                	.2byte	0x7f80
    4dac:	fffe                	.2byte	0xfffe
    4dae:	807f 5555 ffc5 fffe 	.byte	0x7f, 0x80, 0x55, 0x55, 0xc5, 0xff, 0xfe, 0xff, 0x7f, 0x80
    4db6:	807f 
    4db8:	0001                	.2byte	0x1
    4dba:	7fc0                	.2byte	0x7fc0
    4dbc:	fffe                	.2byte	0xfffe
    4dbe:	807f 0000 ffc0 fffe 	.byte	0x7f, 0x80, 0x00, 0x00, 0xc0, 0xff, 0xfe, 0xff, 0x7f, 0x80
    4dc6:	807f 
    4dc8:	0000                	.2byte	0x0
    4dca:	7fc0                	.2byte	0x7fc0
    4dcc:	fffe                	.2byte	0xfffe
    4dce:	807f 0000 ff80 fffe 	.byte	0x7f, 0x80, 0x00, 0x00, 0x80, 0xff, 0xfe, 0xff, 0x7f, 0x80
    4dd6:	807f 
    4dd8:	0000                	.2byte	0x0
    4dda:	7f80                	.2byte	0x7f80
    4ddc:	fffe                	.2byte	0xfffe
    4dde:	807f ffff ff7f fffe 	.byte	0x7f, 0x80, 0xff, 0xff, 0x7f, 0xff, 0xfe, 0xff, 0x7f, 0x80
    4de6:	807f 
    4de8:	ffff                	.2byte	0xffff
    4dea:	7f7f                	.2byte	0x7f7f
    4dec:	fffe                	.2byte	0xfffe
    4dee:	807f 5555 8085 fffe 	.byte	0x7f, 0x80, 0x55, 0x55, 0x85, 0x80, 0xfe, 0xff, 0x7f, 0x80
    4df6:	807f 
    4df8:	0001                	.2byte	0x1
    4dfa:	0080                	.2byte	0x80
    4dfc:	fffe                	.2byte	0xfffe
    4dfe:	807f 0000 8080 fffe 	.byte	0x7f, 0x80, 0x00, 0x00, 0x80, 0x80, 0xfe, 0xff, 0x7f, 0x80
    4e06:	807f 
    4e08:	0000                	.2byte	0x0
    4e0a:	0080                	.2byte	0x80
    4e0c:	fffe                	.2byte	0xfffe
    4e0e:	807f ffff 807f fffe 	.byte	0x7f, 0x80, 0xff, 0xff, 0x7f, 0x80, 0xfe, 0xff, 0x7f, 0x80
    4e16:	807f 
    4e18:	ffff                	.2byte	0xffff
    4e1a:	007f fffe 807f fffe 	.byte	0x7f, 0x00, 0xfe, 0xff, 0x7f, 0x80, 0xfe, 0xff, 0x7f, 0x80
    4e22:	807f 
    4e24:	fffe                	.2byte	0xfffe
    4e26:	807f 0002 0000 fffe 	.byte	0x7f, 0x80, 0x02, 0x00, 0x00, 0x00, 0xfe, 0xff, 0x7f, 0x80
    4e2e:	807f 
    4e30:	0001                	.2byte	0x1
    4e32:	8000                	.2byte	0x8000
    4e34:	fffe                	.2byte	0xfffe
    4e36:	807f 0001 0000 fffe 	.byte	0x7f, 0x80, 0x01, 0x00, 0x00, 0x00, 0xfe, 0xff, 0x7f, 0x80
    4e3e:	807f 
    4e40:	0000                	.2byte	0x0
    4e42:	8000                	.2byte	0x8000
    4e44:	fffe                	.2byte	0xfffe
    4e46:	807f 0000 0000 0002 	.byte	0x7f, 0x80, 0x00, 0x00, 0x00, 0x00, 0x02, 0x00, 0x00, 0x00
    4e4e:	0000 
    4e50:	0000                	.2byte	0x0
    4e52:	bf80                	.2byte	0xbf80
    4e54:	0002                	.2byte	0x2
    4e56:	0000                	.2byte	0x0
    4e58:	0000                	.2byte	0x0
    4e5a:	3f80                	.2byte	0x3f80
    4e5c:	0002                	.2byte	0x2
    4e5e:	0000                	.2byte	0x0
    4e60:	aaaa                	.2byte	0xaaaa
    4e62:	ffaa                	.2byte	0xffaa
    4e64:	0002                	.2byte	0x2
    4e66:	0000                	.2byte	0x0
    4e68:	0001                	.2byte	0x1
    4e6a:	7f80                	.2byte	0x7f80
    4e6c:	0002                	.2byte	0x2
    4e6e:	0000                	.2byte	0x0
    4e70:	5555                	.2byte	0x5555
    4e72:	ffc5                	.2byte	0xffc5
    4e74:	0002                	.2byte	0x2
    4e76:	0000                	.2byte	0x0
    4e78:	0001                	.2byte	0x1
    4e7a:	7fc0                	.2byte	0x7fc0
    4e7c:	0002                	.2byte	0x2
    4e7e:	0000                	.2byte	0x0
    4e80:	0000                	.2byte	0x0
    4e82:	ffc0                	.2byte	0xffc0
    4e84:	0002                	.2byte	0x2
    4e86:	0000                	.2byte	0x0
    4e88:	0000                	.2byte	0x0
    4e8a:	7fc0                	.2byte	0x7fc0
    4e8c:	0002                	.2byte	0x2
    4e8e:	0000                	.2byte	0x0
    4e90:	0000                	.2byte	0x0
    4e92:	ff80                	.2byte	0xff80
    4e94:	0002                	.2byte	0x2
    4e96:	0000                	.2byte	0x0
    4e98:	0000                	.2byte	0x0
    4e9a:	7f80                	.2byte	0x7f80
    4e9c:	0002                	.2byte	0x2
    4e9e:	0000                	.2byte	0x0
    4ea0:	ffff                	.2byte	0xffff
    4ea2:	ff7f                	.2byte	0xff7f
    4ea4:	0002                	.2byte	0x2
    4ea6:	0000                	.2byte	0x0
    4ea8:	ffff                	.2byte	0xffff
    4eaa:	7f7f                	.2byte	0x7f7f
    4eac:	0002                	.2byte	0x2
    4eae:	0000                	.2byte	0x0
    4eb0:	5555                	.2byte	0x5555
    4eb2:	8085                	.2byte	0x8085
    4eb4:	0002                	.2byte	0x2
    4eb6:	0000                	.2byte	0x0
    4eb8:	0001                	.2byte	0x1
    4eba:	0080                	.2byte	0x80
    4ebc:	0002                	.2byte	0x2
    4ebe:	0000                	.2byte	0x0
    4ec0:	0000                	.2byte	0x0
    4ec2:	8080                	.2byte	0x8080
    4ec4:	0002                	.2byte	0x2
    4ec6:	0000                	.2byte	0x0
    4ec8:	0000                	.2byte	0x0
    4eca:	0080                	.2byte	0x80
    4ecc:	0002                	.2byte	0x2
    4ece:	0000                	.2byte	0x0
    4ed0:	ffff                	.2byte	0xffff
    4ed2:	807f 0002 0000 ffff 	.byte	0x7f, 0x80, 0x02, 0x00, 0x00, 0x00, 0xff, 0xff, 0x7f, 0x00
    4eda:	007f 
    4edc:	0002                	.2byte	0x2
    4ede:	0000                	.2byte	0x0
    4ee0:	fffe                	.2byte	0xfffe
    4ee2:	807f 0002 0000 0002 	.byte	0x7f, 0x80, 0x02, 0x00, 0x00, 0x00, 0x02, 0x00, 0x00, 0x00
    4eea:	0000 
    4eec:	0002                	.2byte	0x2
    4eee:	0000                	.2byte	0x0
    4ef0:	0001                	.2byte	0x1
    4ef2:	8000                	.2byte	0x8000
    4ef4:	0002                	.2byte	0x2
    4ef6:	0000                	.2byte	0x0
    4ef8:	0001                	.2byte	0x1
    4efa:	0000                	.2byte	0x0
    4efc:	0002                	.2byte	0x2
    4efe:	0000                	.2byte	0x0
    4f00:	0000                	.2byte	0x0
    4f02:	8000                	.2byte	0x8000
    4f04:	0002                	.2byte	0x2
    4f06:	0000                	.2byte	0x0
    4f08:	0000                	.2byte	0x0
    4f0a:	0000                	.2byte	0x0
    4f0c:	0001                	.2byte	0x1
    4f0e:	8000                	.2byte	0x8000
    4f10:	0000                	.2byte	0x0
    4f12:	bf80                	.2byte	0xbf80
    4f14:	0001                	.2byte	0x1
    4f16:	8000                	.2byte	0x8000
    4f18:	0000                	.2byte	0x0
    4f1a:	3f80                	.2byte	0x3f80
    4f1c:	0001                	.2byte	0x1
    4f1e:	8000                	.2byte	0x8000
    4f20:	aaaa                	.2byte	0xaaaa
    4f22:	ffaa                	.2byte	0xffaa
    4f24:	0001                	.2byte	0x1
    4f26:	8000                	.2byte	0x8000
    4f28:	0001                	.2byte	0x1
    4f2a:	7f80                	.2byte	0x7f80
    4f2c:	0001                	.2byte	0x1
    4f2e:	8000                	.2byte	0x8000
    4f30:	5555                	.2byte	0x5555
    4f32:	ffc5                	.2byte	0xffc5
    4f34:	0001                	.2byte	0x1
    4f36:	8000                	.2byte	0x8000
    4f38:	0001                	.2byte	0x1
    4f3a:	7fc0                	.2byte	0x7fc0
    4f3c:	0001                	.2byte	0x1
