
/home/alejandro/Escritorio/test_riscv2.5/riscv-compliance/work/rv32i_m/F/flt_b19-01.elf:     formato del fichero elf32-littleriscv


Desensamblado de la sección .text.init:

00000000 <rvtest_entry_point>:
       0:	feedc0b7          	lui	ra,0xfeedc
       4:	ead08093          	add	ra,ra,-339 # feedbead <_end+0xfeed20ed>
       8:	ff76e137          	lui	sp,0xff76e
       c:	f5610113          	add	sp,sp,-170 # ff76df56 <_end+0xff764196>
      10:	7fbb71b7          	lui	gp,0x7fbb7
      14:	fab18193          	add	gp,gp,-85 # 7fbb6fab <_end+0x7fbad1eb>
      18:	bfddb237          	lui	tp,0xbfddb
      1c:	7d520213          	add	tp,tp,2005 # bfddb7d5 <_end+0xbfdd1a15>
      20:	00000297          	auipc	t0,0x0
      24:	0d828293          	add	t0,t0,216 # f8 <rvtest_code_begin>
      28:	00006317          	auipc	t1,0x6
      2c:	fd830313          	add	t1,t1,-40 # 6000 <rvtest_data_begin>
      30:	b7fbb3b7          	lui	t2,0xb7fbb
      34:	6fa38393          	add	t2,t2,1786 # b7fbb6fa <_end+0xb7fb193a>
      38:	5bfde437          	lui	s0,0x5bfde
      3c:	b7d40413          	add	s0,s0,-1155 # 5bfddb7d <_end+0x5bfd3dbd>
      40:	adfef4b7          	lui	s1,0xadfef
      44:	dbe48493          	add	s1,s1,-578 # adfeedbe <_end+0xadfe4ffe>
      48:	56ff7537          	lui	a0,0x56ff7
      4c:	6df50513          	add	a0,a0,1759 # 56ff76df <_end+0x56fed91f>
      50:	ab7fc5b7          	lui	a1,0xab7fc
      54:	b6f58593          	add	a1,a1,-1169 # ab7fbb6f <_end+0xab7f1daf>
      58:	d5bfe637          	lui	a2,0xd5bfe
      5c:	db760613          	add	a2,a2,-585 # d5bfddb7 <_end+0xd5bf3ff7>
      60:	eadff6b7          	lui	a3,0xeadff
      64:	edb68693          	add	a3,a3,-293 # eadfeedb <_end+0xeadf511b>
      68:	f56ff737          	lui	a4,0xf56ff
      6c:	76d70713          	add	a4,a4,1901 # f56ff76d <_end+0xf56f59ad>
      70:	fab807b7          	lui	a5,0xfab80
      74:	bb678793          	add	a5,a5,-1098 # fab7fbb6 <_end+0xfab75df6>
      78:	7d5c0837          	lui	a6,0x7d5c0
      7c:	ddb80813          	add	a6,a6,-549 # 7d5bfddb <_end+0x7d5b601b>
      80:	beae08b7          	lui	a7,0xbeae0
      84:	eed88893          	add	a7,a7,-275 # beadfeed <_end+0xbead612d>
      88:	df570937          	lui	s2,0xdf570
      8c:	f7690913          	add	s2,s2,-138 # df56ff76 <_end+0xdf5661b6>
      90:	6fab89b7          	lui	s3,0x6fab8
      94:	fbb98993          	add	s3,s3,-69 # 6fab7fbb <_end+0x6faae1fb>
      98:	b7d5ca37          	lui	s4,0xb7d5c
      9c:	fdda0a13          	add	s4,s4,-35 # b7d5bfdd <_end+0xb7d5221d>
      a0:	dbeaeab7          	lui	s5,0xdbeae
      a4:	feea8a93          	add	s5,s5,-18 # dbeadfee <_end+0xdbea422e>
      a8:	6df57b37          	lui	s6,0x6df57
      ac:	ff7b0b13          	add	s6,s6,-9 # 6df56ff7 <_end+0x6df4d237>
      b0:	b6fabbb7          	lui	s7,0xb6fab
      b4:	7fbb8b93          	add	s7,s7,2043 # b6fab7fb <_end+0xb6fa1a3b>
      b8:	db7d6c37          	lui	s8,0xdb7d6
      bc:	bfdc0c13          	add	s8,s8,-1027 # db7d5bfd <_end+0xdb7cbe3d>
      c0:	edbebcb7          	lui	s9,0xedbeb
      c4:	dfec8c93          	add	s9,s9,-514 # edbeadfe <_end+0xedbe103e>
      c8:	76df5d37          	lui	s10,0x76df5
      cc:	6ffd0d13          	add	s10,s10,1791 # 76df56ff <_end+0x76deb93f>
      d0:	bb6fbdb7          	lui	s11,0xbb6fb
      d4:	b7fd8d93          	add	s11,s11,-1153 # bb6fab7f <_end+0xbb6f0dbf>
      d8:	ddb7de37          	lui	t3,0xddb7d
      dc:	5bfe0e13          	add	t3,t3,1471 # ddb7d5bf <_end+0xddb737ff>
      e0:	eedbfeb7          	lui	t4,0xeedbf
      e4:	adfe8e93          	add	t4,t4,-1313 # eedbeadf <_end+0xeedb4d1f>
      e8:	f76dff37          	lui	t5,0xf76df
      ec:	56ff0f13          	add	t5,t5,1391 # f76df56f <_end+0xf76d57af>
      f0:	fbb70fb7          	lui	t6,0xfbb70
      f4:	ab7f8f93          	add	t6,t6,-1353 # fbb6fab7 <_end+0xfbb65cf7>

000000f8 <rvtest_code_begin>:
      f8:	00002537          	lui	a0,0x2
      fc:	30052073          	csrs	mstatus,a0
     100:	00006a17          	auipc	s4,0x6
     104:	f04a0a13          	add	s4,s4,-252 # 6004 <test_fp>
     108:	00008997          	auipc	s3,0x8
     10c:	dd898993          	add	s3,s3,-552 # 7ee0 <data_begin>

00000110 <inst_0>:
     110:	000a2607          	flw	fa2,0(s4)
     114:	004a2607          	flw	fa2,4(s4)
     118:	a0c617d3          	flt.s	a5,fa2,fa2
     11c:	00102af3          	frflags	s5
     120:	00f9a023          	sw	a5,0(s3)
     124:	0159a223          	sw	s5,4(s3)
     128:	000a0833          	add	a6,s4,zero
     12c:	00008797          	auipc	a5,0x8
     130:	dbc78793          	add	a5,a5,-580 # 7ee8 <signature_x15_0>

00000134 <inst_1>:
     134:	00882907          	flw	fs2,8(a6)
     138:	00c82987          	flw	fs3,12(a6)
     13c:	a13916d3          	flt.s	a3,fs2,fs3
     140:	001028f3          	frflags	a7
     144:	00d7a023          	sw	a3,0(a5)
     148:	0117a223          	sw	a7,4(a5)

0000014c <inst_2>:
     14c:	01082a87          	flw	fs5,16(a6)
     150:	01482807          	flw	fa6,20(a6)
     154:	a10a9ad3          	flt.s	s5,fs5,fa6
     158:	001028f3          	frflags	a7
     15c:	0157a423          	sw	s5,8(a5)
     160:	0117a623          	sw	a7,12(a5)

00000164 <inst_3>:
     164:	01882a07          	flw	fs4,24(a6)
     168:	01c82d07          	flw	fs10,28(a6)
     16c:	a1aa1953          	flt.s	s2,fs4,fs10
     170:	001028f3          	frflags	a7
     174:	0127a823          	sw	s2,16(a5)
     178:	0117aa23          	sw	a7,20(a5)

0000017c <inst_4>:
     17c:	02082b07          	flw	fs6,32(a6)
     180:	02482007          	flw	ft0,36(a6)
     184:	a00b1753          	flt.s	a4,fs6,ft0
     188:	001028f3          	frflags	a7
     18c:	00e7ac23          	sw	a4,24(a5)
     190:	0117ae23          	sw	a7,28(a5)

00000194 <inst_5>:
     194:	02882f87          	flw	ft11,40(a6)
     198:	02c82507          	flw	fa0,44(a6)
     19c:	a0af93d3          	flt.s	t2,ft11,fa0
     1a0:	001028f3          	frflags	a7
     1a4:	0277a023          	sw	t2,32(a5)
     1a8:	0317a223          	sw	a7,36(a5)
     1ac:	00080a33          	add	s4,a6,zero
     1b0:	00008997          	auipc	s3,0x8
     1b4:	d6098993          	add	s3,s3,-672 # 7f10 <signature_x19_2>

000001b8 <inst_6>:
     1b8:	030a2587          	flw	fa1,48(s4)
     1bc:	034a2387          	flw	ft7,52(s4)
     1c0:	a0759853          	flt.s	a6,fa1,ft7
     1c4:	00102af3          	frflags	s5
     1c8:	0109a023          	sw	a6,0(s3)
     1cc:	0159a223          	sw	s5,4(s3)
     1d0:	000a0833          	add	a6,s4,zero
     1d4:	00008797          	auipc	a5,0x8
     1d8:	d4478793          	add	a5,a5,-700 # 7f18 <signature_x15_1>

000001dc <inst_7>:
     1dc:	03882507          	flw	fa0,56(a6)
     1e0:	03c82b07          	flw	fs6,60(a6)
     1e4:	a16514d3          	flt.s	s1,fa0,fs6
     1e8:	001028f3          	frflags	a7
     1ec:	0097a023          	sw	s1,0(a5)
     1f0:	0117a223          	sw	a7,4(a5)

000001f4 <inst_8>:
     1f4:	04082707          	flw	fa4,64(a6)
     1f8:	04482887          	flw	fa7,68(a6)
     1fc:	a11712d3          	flt.s	t0,fa4,fa7
     200:	001028f3          	frflags	a7
     204:	0057a423          	sw	t0,8(a5)
     208:	0117a623          	sw	a7,12(a5)

0000020c <inst_9>:
     20c:	04882987          	flw	fs3,72(a6)
     210:	04c82207          	flw	ft4,76(a6)
     214:	a0499c53          	flt.s	s8,fs3,ft4
     218:	001028f3          	frflags	a7
     21c:	0187a823          	sw	s8,16(a5)
     220:	0117aa23          	sw	a7,20(a5)

00000224 <inst_10>:
     224:	05082307          	flw	ft6,80(a6)
     228:	05482f07          	flw	ft10,84(a6)
     22c:	a1e31b53          	flt.s	s6,ft6,ft10
     230:	001028f3          	frflags	a7
     234:	0167ac23          	sw	s6,24(a5)
     238:	0117ae23          	sw	a7,28(a5)

0000023c <inst_11>:
     23c:	05882387          	flw	ft7,88(a6)
     240:	05c82a07          	flw	fs4,92(a6)
     244:	a14399d3          	flt.s	s3,ft7,fs4
     248:	001028f3          	frflags	a7
     24c:	0337a023          	sw	s3,32(a5)
     250:	0317a223          	sw	a7,36(a5)

00000254 <inst_12>:
     254:	06082407          	flw	fs0,96(a6)
     258:	06482d87          	flw	fs11,100(a6)
     25c:	a1b415d3          	flt.s	a1,fs0,fs11
     260:	001028f3          	frflags	a7
     264:	02b7a423          	sw	a1,40(a5)
     268:	0317a623          	sw	a7,44(a5)

0000026c <inst_13>:
     26c:	06882807          	flw	fa6,104(a6)
     270:	06c82b87          	flw	fs7,108(a6)
     274:	a17810d3          	flt.s	ra,fa6,fs7
     278:	001028f3          	frflags	a7
     27c:	0217a823          	sw	ra,48(a5)
     280:	0317aa23          	sw	a7,52(a5)

00000284 <inst_14>:
     284:	07082e87          	flw	ft9,112(a6)
     288:	07482187          	flw	ft3,116(a6)
     28c:	a03e91d3          	flt.s	gp,ft9,ft3
     290:	001028f3          	frflags	a7
     294:	0237ac23          	sw	gp,56(a5)
     298:	0317ae23          	sw	a7,60(a5)

0000029c <inst_15>:
     29c:	07882687          	flw	fa3,120(a6)
     2a0:	07c82087          	flw	ft1,124(a6)
     2a4:	a0169dd3          	flt.s	s11,fa3,ft1
     2a8:	001028f3          	frflags	a7
     2ac:	05b7a023          	sw	s11,64(a5)
     2b0:	0517a223          	sw	a7,68(a5)

000002b4 <inst_16>:
     2b4:	08082e07          	flw	ft8,128(a6)
     2b8:	08482407          	flw	fs0,132(a6)
     2bc:	a08e1fd3          	flt.s	t6,ft8,fs0
     2c0:	001028f3          	frflags	a7
     2c4:	05f7a423          	sw	t6,72(a5)
     2c8:	0517a623          	sw	a7,76(a5)

000002cc <inst_17>:
     2cc:	08882c87          	flw	fs9,136(a6)
     2d0:	08c82687          	flw	fa3,140(a6)
     2d4:	a0dc9453          	flt.s	s0,fs9,fa3
     2d8:	001028f3          	frflags	a7
     2dc:	0487a823          	sw	s0,80(a5)
     2e0:	0517aa23          	sw	a7,84(a5)

000002e4 <inst_18>:
     2e4:	09082887          	flw	fa7,144(a6)
     2e8:	09482f87          	flw	ft11,148(a6)
     2ec:	a1f89253          	flt.s	tp,fa7,ft11
     2f0:	001028f3          	frflags	a7
     2f4:	0447ac23          	sw	tp,88(a5)
     2f8:	0517ae23          	sw	a7,92(a5)

000002fc <inst_19>:
     2fc:	09882787          	flw	fa5,152(a6)
     300:	09c82307          	flw	ft6,156(a6)
     304:	a0679153          	flt.s	sp,fa5,ft6
     308:	001028f3          	frflags	a7
     30c:	0627a023          	sw	sp,96(a5)
     310:	0717a223          	sw	a7,100(a5)
     314:	00080a33          	add	s4,a6,zero
     318:	00008997          	auipc	s3,0x8
     31c:	c6898993          	add	s3,s3,-920 # 7f80 <signature_x19_3>

00000320 <inst_20>:
     320:	0a0a2d87          	flw	fs11,160(s4)
     324:	0a4a2107          	flw	ft2,164(s4)
     328:	a02d98d3          	flt.s	a7,fs11,ft2
     32c:	00102af3          	frflags	s5
     330:	0119a023          	sw	a7,0(s3)
     334:	0159a223          	sw	s5,4(s3)
     338:	000a0833          	add	a6,s4,zero
     33c:	00008797          	auipc	a5,0x8
     340:	c4c78793          	add	a5,a5,-948 # 7f88 <signature_x15_2>

00000344 <inst_21>:
     344:	0a882d07          	flw	fs10,168(a6)
     348:	0ac82287          	flw	ft5,172(a6)
     34c:	a05d1353          	flt.s	t1,fs10,ft5
     350:	001028f3          	frflags	a7
     354:	0067a023          	sw	t1,0(a5)
     358:	0117a223          	sw	a7,4(a5)

0000035c <inst_22>:
     35c:	0b082107          	flw	ft2,176(a6)
     360:	0b482587          	flw	fa1,180(a6)
     364:	a0b11cd3          	flt.s	s9,ft2,fa1
     368:	001028f3          	frflags	a7
     36c:	0197a423          	sw	s9,8(a5)
     370:	0117a623          	sw	a7,12(a5)

00000374 <inst_23>:
     374:	0b882087          	flw	ft1,184(a6)
     378:	0bc82e07          	flw	ft8,188(a6)
     37c:	a1c09bd3          	flt.s	s7,ft1,ft8
     380:	001028f3          	frflags	a7
     384:	0177a823          	sw	s7,16(a5)
     388:	0117aa23          	sw	a7,20(a5)

0000038c <inst_24>:
     38c:	0c082487          	flw	fs1,192(a6)
     390:	0c482e87          	flw	ft9,196(a6)
     394:	a1d49d53          	flt.s	s10,fs1,ft9
     398:	001028f3          	frflags	a7
     39c:	01a7ac23          	sw	s10,24(a5)
     3a0:	0117ae23          	sw	a7,28(a5)

000003a4 <inst_25>:
     3a4:	0c882287          	flw	ft5,200(a6)
     3a8:	0cc82707          	flw	fa4,204(a6)
     3ac:	a0e29553          	flt.s	a0,ft5,fa4
     3b0:	001028f3          	frflags	a7
     3b4:	02a7a023          	sw	a0,32(a5)
     3b8:	0317a223          	sw	a7,36(a5)

000003bc <inst_26>:
     3bc:	0d082207          	flw	ft4,208(a6)
     3c0:	0d482c87          	flw	fs9,212(a6)
     3c4:	a1921a53          	flt.s	s4,ft4,fs9
     3c8:	001028f3          	frflags	a7
     3cc:	0347a423          	sw	s4,40(a5)
     3d0:	0317a623          	sw	a7,44(a5)

000003d4 <inst_27>:
     3d4:	0d882007          	flw	ft0,216(a6)
     3d8:	0dc82907          	flw	fs2,220(a6)
     3dc:	a1201653          	flt.s	a2,ft0,fs2
     3e0:	001028f3          	frflags	a7
     3e4:	02c7a823          	sw	a2,48(a5)
     3e8:	0317aa23          	sw	a7,52(a5)

000003ec <inst_28>:
     3ec:	0e082187          	flw	ft3,224(a6)
     3f0:	0e482787          	flw	fa5,228(a6)
     3f4:	a0f19e53          	flt.s	t3,ft3,fa5
     3f8:	001028f3          	frflags	a7
     3fc:	03c7ac23          	sw	t3,56(a5)
     400:	0317ae23          	sw	a7,60(a5)

00000404 <inst_29>:
     404:	0e882c07          	flw	fs8,232(a6)
     408:	0ec82487          	flw	fs1,236(a6)
     40c:	a09c1053          	flt.s	zero,fs8,fs1
     410:	001028f3          	frflags	a7
     414:	0407a023          	sw	zero,64(a5)
     418:	0517a223          	sw	a7,68(a5)

0000041c <inst_30>:
     41c:	0f082f07          	flw	ft10,240(a6)
     420:	0f482a87          	flw	fs5,244(a6)
     424:	a15f1ed3          	flt.s	t4,ft10,fs5
     428:	001028f3          	frflags	a7
     42c:	05d7a423          	sw	t4,72(a5)
     430:	0517a623          	sw	a7,76(a5)

00000434 <inst_31>:
     434:	0f882b87          	flw	fs7,248(a6)
     438:	0fc82c07          	flw	fs8,252(a6)
     43c:	a18b9f53          	flt.s	t5,fs7,fs8
     440:	001028f3          	frflags	a7
     444:	05e7a823          	sw	t5,80(a5)
     448:	0517aa23          	sw	a7,84(a5)

0000044c <inst_32>:
     44c:	10082507          	flw	fa0,256(a6)
     450:	10482587          	flw	fa1,260(a6)
     454:	a0b51653          	flt.s	a2,fa0,fa1
     458:	001028f3          	frflags	a7
     45c:	04c7ac23          	sw	a2,88(a5)
     460:	0517ae23          	sw	a7,92(a5)

00000464 <inst_33>:
     464:	10882507          	flw	fa0,264(a6)
     468:	10c82587          	flw	fa1,268(a6)
     46c:	a0b51653          	flt.s	a2,fa0,fa1
     470:	001028f3          	frflags	a7
     474:	06c7a023          	sw	a2,96(a5)
     478:	0717a223          	sw	a7,100(a5)

0000047c <inst_34>:
     47c:	11082507          	flw	fa0,272(a6)
     480:	11482587          	flw	fa1,276(a6)
     484:	a0b51653          	flt.s	a2,fa0,fa1
     488:	001028f3          	frflags	a7
     48c:	06c7a423          	sw	a2,104(a5)
     490:	0717a623          	sw	a7,108(a5)

00000494 <inst_35>:
     494:	11882507          	flw	fa0,280(a6)
     498:	11c82587          	flw	fa1,284(a6)
     49c:	a0b51653          	flt.s	a2,fa0,fa1
     4a0:	001028f3          	frflags	a7
     4a4:	06c7a823          	sw	a2,112(a5)
     4a8:	0717aa23          	sw	a7,116(a5)

000004ac <inst_36>:
     4ac:	12082507          	flw	fa0,288(a6)
     4b0:	12482587          	flw	fa1,292(a6)
     4b4:	a0b51653          	flt.s	a2,fa0,fa1
     4b8:	001028f3          	frflags	a7
     4bc:	06c7ac23          	sw	a2,120(a5)
     4c0:	0717ae23          	sw	a7,124(a5)

000004c4 <inst_37>:
     4c4:	12882507          	flw	fa0,296(a6)
     4c8:	12c82587          	flw	fa1,300(a6)
     4cc:	a0b51653          	flt.s	a2,fa0,fa1
     4d0:	001028f3          	frflags	a7
     4d4:	08c7a023          	sw	a2,128(a5)
     4d8:	0917a223          	sw	a7,132(a5)

000004dc <inst_38>:
     4dc:	13082507          	flw	fa0,304(a6)
     4e0:	13482587          	flw	fa1,308(a6)
     4e4:	a0b51653          	flt.s	a2,fa0,fa1
     4e8:	001028f3          	frflags	a7
     4ec:	08c7a423          	sw	a2,136(a5)
     4f0:	0917a623          	sw	a7,140(a5)

000004f4 <inst_39>:
     4f4:	13882507          	flw	fa0,312(a6)
     4f8:	13c82587          	flw	fa1,316(a6)
     4fc:	a0b51653          	flt.s	a2,fa0,fa1
     500:	001028f3          	frflags	a7
     504:	08c7a823          	sw	a2,144(a5)
     508:	0917aa23          	sw	a7,148(a5)

0000050c <inst_40>:
     50c:	14082507          	flw	fa0,320(a6)
     510:	14482587          	flw	fa1,324(a6)
     514:	a0b51653          	flt.s	a2,fa0,fa1
     518:	001028f3          	frflags	a7
     51c:	08c7ac23          	sw	a2,152(a5)
     520:	0917ae23          	sw	a7,156(a5)

00000524 <inst_41>:
     524:	14882507          	flw	fa0,328(a6)
     528:	14c82587          	flw	fa1,332(a6)
     52c:	a0b51653          	flt.s	a2,fa0,fa1
     530:	001028f3          	frflags	a7
     534:	0ac7a023          	sw	a2,160(a5)
     538:	0b17a223          	sw	a7,164(a5)

0000053c <inst_42>:
     53c:	15082507          	flw	fa0,336(a6)
     540:	15482587          	flw	fa1,340(a6)
     544:	a0b51653          	flt.s	a2,fa0,fa1
     548:	001028f3          	frflags	a7
     54c:	0ac7a423          	sw	a2,168(a5)
     550:	0b17a623          	sw	a7,172(a5)

00000554 <inst_43>:
     554:	15882507          	flw	fa0,344(a6)
     558:	15c82587          	flw	fa1,348(a6)
     55c:	a0b51653          	flt.s	a2,fa0,fa1
     560:	001028f3          	frflags	a7
     564:	0ac7a823          	sw	a2,176(a5)
     568:	0b17aa23          	sw	a7,180(a5)

0000056c <inst_44>:
     56c:	16082507          	flw	fa0,352(a6)
     570:	16482587          	flw	fa1,356(a6)
     574:	a0b51653          	flt.s	a2,fa0,fa1
     578:	001028f3          	frflags	a7
     57c:	0ac7ac23          	sw	a2,184(a5)
     580:	0b17ae23          	sw	a7,188(a5)

00000584 <inst_45>:
     584:	16882507          	flw	fa0,360(a6)
     588:	16c82587          	flw	fa1,364(a6)
     58c:	a0b51653          	flt.s	a2,fa0,fa1
     590:	001028f3          	frflags	a7
     594:	0cc7a023          	sw	a2,192(a5)
     598:	0d17a223          	sw	a7,196(a5)

0000059c <inst_46>:
     59c:	17082507          	flw	fa0,368(a6)
     5a0:	17482587          	flw	fa1,372(a6)
     5a4:	a0b51653          	flt.s	a2,fa0,fa1
     5a8:	001028f3          	frflags	a7
     5ac:	0cc7a423          	sw	a2,200(a5)
     5b0:	0d17a623          	sw	a7,204(a5)

000005b4 <inst_47>:
     5b4:	17882507          	flw	fa0,376(a6)
     5b8:	17c82587          	flw	fa1,380(a6)
     5bc:	a0b51653          	flt.s	a2,fa0,fa1
     5c0:	001028f3          	frflags	a7
     5c4:	0cc7a823          	sw	a2,208(a5)
     5c8:	0d17aa23          	sw	a7,212(a5)

000005cc <inst_48>:
     5cc:	18082507          	flw	fa0,384(a6)
     5d0:	18482587          	flw	fa1,388(a6)
     5d4:	a0b51653          	flt.s	a2,fa0,fa1
     5d8:	001028f3          	frflags	a7
     5dc:	0cc7ac23          	sw	a2,216(a5)
     5e0:	0d17ae23          	sw	a7,220(a5)

000005e4 <inst_49>:
     5e4:	18882507          	flw	fa0,392(a6)
     5e8:	18c82587          	flw	fa1,396(a6)
     5ec:	a0b51653          	flt.s	a2,fa0,fa1
     5f0:	001028f3          	frflags	a7
     5f4:	0ec7a023          	sw	a2,224(a5)
     5f8:	0f17a223          	sw	a7,228(a5)

000005fc <inst_50>:
     5fc:	19082507          	flw	fa0,400(a6)
     600:	19482587          	flw	fa1,404(a6)
     604:	a0b51653          	flt.s	a2,fa0,fa1
     608:	001028f3          	frflags	a7
     60c:	0ec7a423          	sw	a2,232(a5)
     610:	0f17a623          	sw	a7,236(a5)

00000614 <inst_51>:
     614:	19882507          	flw	fa0,408(a6)
     618:	19c82587          	flw	fa1,412(a6)
     61c:	a0b51653          	flt.s	a2,fa0,fa1
     620:	001028f3          	frflags	a7
     624:	0ec7a823          	sw	a2,240(a5)
     628:	0f17aa23          	sw	a7,244(a5)

0000062c <inst_52>:
     62c:	1a082507          	flw	fa0,416(a6)
     630:	1a482587          	flw	fa1,420(a6)
     634:	a0b51653          	flt.s	a2,fa0,fa1
     638:	001028f3          	frflags	a7
     63c:	0ec7ac23          	sw	a2,248(a5)
     640:	0f17ae23          	sw	a7,252(a5)

00000644 <inst_53>:
     644:	1a882507          	flw	fa0,424(a6)
     648:	1ac82587          	flw	fa1,428(a6)
     64c:	a0b51653          	flt.s	a2,fa0,fa1
     650:	001028f3          	frflags	a7
     654:	10c7a023          	sw	a2,256(a5)
     658:	1117a223          	sw	a7,260(a5)

0000065c <inst_54>:
     65c:	1b082507          	flw	fa0,432(a6)
     660:	1b482587          	flw	fa1,436(a6)
     664:	a0b51653          	flt.s	a2,fa0,fa1
     668:	001028f3          	frflags	a7
     66c:	10c7a423          	sw	a2,264(a5)
     670:	1117a623          	sw	a7,268(a5)

00000674 <inst_55>:
     674:	1b882507          	flw	fa0,440(a6)
     678:	1bc82587          	flw	fa1,444(a6)
     67c:	a0b51653          	flt.s	a2,fa0,fa1
     680:	001028f3          	frflags	a7
     684:	10c7a823          	sw	a2,272(a5)
     688:	1117aa23          	sw	a7,276(a5)

0000068c <inst_56>:
     68c:	1c082507          	flw	fa0,448(a6)
     690:	1c482587          	flw	fa1,452(a6)
     694:	a0b51653          	flt.s	a2,fa0,fa1
     698:	001028f3          	frflags	a7
     69c:	10c7ac23          	sw	a2,280(a5)
     6a0:	1117ae23          	sw	a7,284(a5)

000006a4 <inst_57>:
     6a4:	1c882507          	flw	fa0,456(a6)
     6a8:	1cc82587          	flw	fa1,460(a6)
     6ac:	a0b51653          	flt.s	a2,fa0,fa1
     6b0:	001028f3          	frflags	a7
     6b4:	12c7a023          	sw	a2,288(a5)
     6b8:	1317a223          	sw	a7,292(a5)

000006bc <inst_58>:
     6bc:	1d082507          	flw	fa0,464(a6)
     6c0:	1d482587          	flw	fa1,468(a6)
     6c4:	a0b51653          	flt.s	a2,fa0,fa1
     6c8:	001028f3          	frflags	a7
     6cc:	12c7a423          	sw	a2,296(a5)
     6d0:	1317a623          	sw	a7,300(a5)

000006d4 <inst_59>:
     6d4:	1d882507          	flw	fa0,472(a6)
     6d8:	1dc82587          	flw	fa1,476(a6)
     6dc:	a0b51653          	flt.s	a2,fa0,fa1
     6e0:	001028f3          	frflags	a7
     6e4:	12c7a823          	sw	a2,304(a5)
     6e8:	1317aa23          	sw	a7,308(a5)

000006ec <inst_60>:
     6ec:	1e082507          	flw	fa0,480(a6)
     6f0:	1e482587          	flw	fa1,484(a6)
     6f4:	a0b51653          	flt.s	a2,fa0,fa1
     6f8:	001028f3          	frflags	a7
     6fc:	12c7ac23          	sw	a2,312(a5)
     700:	1317ae23          	sw	a7,316(a5)

00000704 <inst_61>:
     704:	1e882507          	flw	fa0,488(a6)
     708:	1ec82587          	flw	fa1,492(a6)
     70c:	a0b51653          	flt.s	a2,fa0,fa1
     710:	001028f3          	frflags	a7
     714:	14c7a023          	sw	a2,320(a5)
     718:	1517a223          	sw	a7,324(a5)

0000071c <inst_62>:
     71c:	1f082507          	flw	fa0,496(a6)
     720:	1f482587          	flw	fa1,500(a6)
     724:	a0b51653          	flt.s	a2,fa0,fa1
     728:	001028f3          	frflags	a7
     72c:	14c7a423          	sw	a2,328(a5)
     730:	1517a623          	sw	a7,332(a5)

00000734 <inst_63>:
     734:	1f882507          	flw	fa0,504(a6)
     738:	1fc82587          	flw	fa1,508(a6)
     73c:	a0b51653          	flt.s	a2,fa0,fa1
     740:	001028f3          	frflags	a7
     744:	14c7a823          	sw	a2,336(a5)
     748:	1517aa23          	sw	a7,340(a5)

0000074c <inst_64>:
     74c:	20082507          	flw	fa0,512(a6)
     750:	20482587          	flw	fa1,516(a6)
     754:	a0b51653          	flt.s	a2,fa0,fa1
     758:	001028f3          	frflags	a7
     75c:	14c7ac23          	sw	a2,344(a5)
     760:	1517ae23          	sw	a7,348(a5)

00000764 <inst_65>:
     764:	20882507          	flw	fa0,520(a6)
     768:	20c82587          	flw	fa1,524(a6)
     76c:	a0b51653          	flt.s	a2,fa0,fa1
     770:	001028f3          	frflags	a7
     774:	16c7a023          	sw	a2,352(a5)
     778:	1717a223          	sw	a7,356(a5)

0000077c <inst_66>:
     77c:	21082507          	flw	fa0,528(a6)
     780:	21482587          	flw	fa1,532(a6)
     784:	a0b51653          	flt.s	a2,fa0,fa1
     788:	001028f3          	frflags	a7
     78c:	16c7a423          	sw	a2,360(a5)
     790:	1717a623          	sw	a7,364(a5)

00000794 <inst_67>:
     794:	21882507          	flw	fa0,536(a6)
     798:	21c82587          	flw	fa1,540(a6)
     79c:	a0b51653          	flt.s	a2,fa0,fa1
     7a0:	001028f3          	frflags	a7
     7a4:	16c7a823          	sw	a2,368(a5)
     7a8:	1717aa23          	sw	a7,372(a5)

000007ac <inst_68>:
     7ac:	22082507          	flw	fa0,544(a6)
     7b0:	22482587          	flw	fa1,548(a6)
     7b4:	a0b51653          	flt.s	a2,fa0,fa1
     7b8:	001028f3          	frflags	a7
     7bc:	16c7ac23          	sw	a2,376(a5)
     7c0:	1717ae23          	sw	a7,380(a5)

000007c4 <inst_69>:
     7c4:	22882507          	flw	fa0,552(a6)
     7c8:	22c82587          	flw	fa1,556(a6)
     7cc:	a0b51653          	flt.s	a2,fa0,fa1
     7d0:	001028f3          	frflags	a7
     7d4:	18c7a023          	sw	a2,384(a5)
     7d8:	1917a223          	sw	a7,388(a5)

000007dc <inst_70>:
     7dc:	23082507          	flw	fa0,560(a6)
     7e0:	23482587          	flw	fa1,564(a6)
     7e4:	a0b51653          	flt.s	a2,fa0,fa1
     7e8:	001028f3          	frflags	a7
     7ec:	18c7a423          	sw	a2,392(a5)
     7f0:	1917a623          	sw	a7,396(a5)

000007f4 <inst_71>:
     7f4:	23882507          	flw	fa0,568(a6)
     7f8:	23c82587          	flw	fa1,572(a6)
     7fc:	a0b51653          	flt.s	a2,fa0,fa1
     800:	001028f3          	frflags	a7
     804:	18c7a823          	sw	a2,400(a5)
     808:	1917aa23          	sw	a7,404(a5)

0000080c <inst_72>:
     80c:	24082507          	flw	fa0,576(a6)
     810:	24482587          	flw	fa1,580(a6)
     814:	a0b51653          	flt.s	a2,fa0,fa1
     818:	001028f3          	frflags	a7
     81c:	18c7ac23          	sw	a2,408(a5)
     820:	1917ae23          	sw	a7,412(a5)

00000824 <inst_73>:
     824:	24882507          	flw	fa0,584(a6)
     828:	24c82587          	flw	fa1,588(a6)
     82c:	a0b51653          	flt.s	a2,fa0,fa1
     830:	001028f3          	frflags	a7
     834:	1ac7a023          	sw	a2,416(a5)
     838:	1b17a223          	sw	a7,420(a5)

0000083c <inst_74>:
     83c:	25082507          	flw	fa0,592(a6)
     840:	25482587          	flw	fa1,596(a6)
     844:	a0b51653          	flt.s	a2,fa0,fa1
     848:	001028f3          	frflags	a7
     84c:	1ac7a423          	sw	a2,424(a5)
     850:	1b17a623          	sw	a7,428(a5)

00000854 <inst_75>:
     854:	25882507          	flw	fa0,600(a6)
     858:	25c82587          	flw	fa1,604(a6)
     85c:	a0b51653          	flt.s	a2,fa0,fa1
     860:	001028f3          	frflags	a7
     864:	1ac7a823          	sw	a2,432(a5)
     868:	1b17aa23          	sw	a7,436(a5)

0000086c <inst_76>:
     86c:	26082507          	flw	fa0,608(a6)
     870:	26482587          	flw	fa1,612(a6)
     874:	a0b51653          	flt.s	a2,fa0,fa1
     878:	001028f3          	frflags	a7
     87c:	1ac7ac23          	sw	a2,440(a5)
     880:	1b17ae23          	sw	a7,444(a5)

00000884 <inst_77>:
     884:	26882507          	flw	fa0,616(a6)
     888:	26c82587          	flw	fa1,620(a6)
     88c:	a0b51653          	flt.s	a2,fa0,fa1
     890:	001028f3          	frflags	a7
     894:	1cc7a023          	sw	a2,448(a5)
     898:	1d17a223          	sw	a7,452(a5)

0000089c <inst_78>:
     89c:	27082507          	flw	fa0,624(a6)
     8a0:	27482587          	flw	fa1,628(a6)
     8a4:	a0b51653          	flt.s	a2,fa0,fa1
     8a8:	001028f3          	frflags	a7
     8ac:	1cc7a423          	sw	a2,456(a5)
     8b0:	1d17a623          	sw	a7,460(a5)

000008b4 <inst_79>:
     8b4:	27882507          	flw	fa0,632(a6)
     8b8:	27c82587          	flw	fa1,636(a6)
     8bc:	a0b51653          	flt.s	a2,fa0,fa1
     8c0:	001028f3          	frflags	a7
     8c4:	1cc7a823          	sw	a2,464(a5)
     8c8:	1d17aa23          	sw	a7,468(a5)

000008cc <inst_80>:
     8cc:	28082507          	flw	fa0,640(a6)
     8d0:	28482587          	flw	fa1,644(a6)
     8d4:	a0b51653          	flt.s	a2,fa0,fa1
     8d8:	001028f3          	frflags	a7
     8dc:	1cc7ac23          	sw	a2,472(a5)
     8e0:	1d17ae23          	sw	a7,476(a5)

000008e4 <inst_81>:
     8e4:	28882507          	flw	fa0,648(a6)
     8e8:	28c82587          	flw	fa1,652(a6)
     8ec:	a0b51653          	flt.s	a2,fa0,fa1
     8f0:	001028f3          	frflags	a7
     8f4:	1ec7a023          	sw	a2,480(a5)
     8f8:	1f17a223          	sw	a7,484(a5)

000008fc <inst_82>:
     8fc:	29082507          	flw	fa0,656(a6)
     900:	29482587          	flw	fa1,660(a6)
     904:	a0b51653          	flt.s	a2,fa0,fa1
     908:	001028f3          	frflags	a7
     90c:	1ec7a423          	sw	a2,488(a5)
     910:	1f17a623          	sw	a7,492(a5)

00000914 <inst_83>:
     914:	29882507          	flw	fa0,664(a6)
     918:	29c82587          	flw	fa1,668(a6)
     91c:	a0b51653          	flt.s	a2,fa0,fa1
     920:	001028f3          	frflags	a7
     924:	1ec7a823          	sw	a2,496(a5)
     928:	1f17aa23          	sw	a7,500(a5)

0000092c <inst_84>:
     92c:	2a082507          	flw	fa0,672(a6)
     930:	2a482587          	flw	fa1,676(a6)
     934:	a0b51653          	flt.s	a2,fa0,fa1
     938:	001028f3          	frflags	a7
     93c:	1ec7ac23          	sw	a2,504(a5)
     940:	1f17ae23          	sw	a7,508(a5)

00000944 <inst_85>:
     944:	2a882507          	flw	fa0,680(a6)
     948:	2ac82587          	flw	fa1,684(a6)
     94c:	a0b51653          	flt.s	a2,fa0,fa1
     950:	001028f3          	frflags	a7
     954:	20c7a023          	sw	a2,512(a5)
     958:	2117a223          	sw	a7,516(a5)

0000095c <inst_86>:
     95c:	2b082507          	flw	fa0,688(a6)
     960:	2b482587          	flw	fa1,692(a6)
     964:	a0b51653          	flt.s	a2,fa0,fa1
     968:	001028f3          	frflags	a7
     96c:	20c7a423          	sw	a2,520(a5)
     970:	2117a623          	sw	a7,524(a5)

00000974 <inst_87>:
     974:	2b882507          	flw	fa0,696(a6)
     978:	2bc82587          	flw	fa1,700(a6)
     97c:	a0b51653          	flt.s	a2,fa0,fa1
     980:	001028f3          	frflags	a7
     984:	20c7a823          	sw	a2,528(a5)
     988:	2117aa23          	sw	a7,532(a5)

0000098c <inst_88>:
     98c:	2c082507          	flw	fa0,704(a6)
     990:	2c482587          	flw	fa1,708(a6)
     994:	a0b51653          	flt.s	a2,fa0,fa1
     998:	001028f3          	frflags	a7
     99c:	20c7ac23          	sw	a2,536(a5)
     9a0:	2117ae23          	sw	a7,540(a5)

000009a4 <inst_89>:
     9a4:	2c882507          	flw	fa0,712(a6)
     9a8:	2cc82587          	flw	fa1,716(a6)
     9ac:	a0b51653          	flt.s	a2,fa0,fa1
     9b0:	001028f3          	frflags	a7
     9b4:	22c7a023          	sw	a2,544(a5)
     9b8:	2317a223          	sw	a7,548(a5)

000009bc <inst_90>:
     9bc:	2d082507          	flw	fa0,720(a6)
     9c0:	2d482587          	flw	fa1,724(a6)
     9c4:	a0b51653          	flt.s	a2,fa0,fa1
     9c8:	001028f3          	frflags	a7
     9cc:	22c7a423          	sw	a2,552(a5)
     9d0:	2317a623          	sw	a7,556(a5)

000009d4 <inst_91>:
     9d4:	2d882507          	flw	fa0,728(a6)
     9d8:	2dc82587          	flw	fa1,732(a6)
     9dc:	a0b51653          	flt.s	a2,fa0,fa1
     9e0:	001028f3          	frflags	a7
     9e4:	22c7a823          	sw	a2,560(a5)
     9e8:	2317aa23          	sw	a7,564(a5)

000009ec <inst_92>:
     9ec:	2e082507          	flw	fa0,736(a6)
     9f0:	2e482587          	flw	fa1,740(a6)
     9f4:	a0b51653          	flt.s	a2,fa0,fa1
     9f8:	001028f3          	frflags	a7
     9fc:	22c7ac23          	sw	a2,568(a5)
     a00:	2317ae23          	sw	a7,572(a5)

00000a04 <inst_93>:
     a04:	2e882507          	flw	fa0,744(a6)
     a08:	2ec82587          	flw	fa1,748(a6)
     a0c:	a0b51653          	flt.s	a2,fa0,fa1
     a10:	001028f3          	frflags	a7
     a14:	24c7a023          	sw	a2,576(a5)
     a18:	2517a223          	sw	a7,580(a5)

00000a1c <inst_94>:
     a1c:	2f082507          	flw	fa0,752(a6)
     a20:	2f482587          	flw	fa1,756(a6)
     a24:	a0b51653          	flt.s	a2,fa0,fa1
     a28:	001028f3          	frflags	a7
     a2c:	24c7a423          	sw	a2,584(a5)
     a30:	2517a623          	sw	a7,588(a5)

00000a34 <inst_95>:
     a34:	2f882507          	flw	fa0,760(a6)
     a38:	2fc82587          	flw	fa1,764(a6)
     a3c:	a0b51653          	flt.s	a2,fa0,fa1
     a40:	001028f3          	frflags	a7
     a44:	24c7a823          	sw	a2,592(a5)
     a48:	2517aa23          	sw	a7,596(a5)

00000a4c <inst_96>:
     a4c:	30082507          	flw	fa0,768(a6)
     a50:	30482587          	flw	fa1,772(a6)
     a54:	a0b51653          	flt.s	a2,fa0,fa1
     a58:	001028f3          	frflags	a7
     a5c:	24c7ac23          	sw	a2,600(a5)
     a60:	2517ae23          	sw	a7,604(a5)

00000a64 <inst_97>:
     a64:	30882507          	flw	fa0,776(a6)
     a68:	30c82587          	flw	fa1,780(a6)
     a6c:	a0b51653          	flt.s	a2,fa0,fa1
     a70:	001028f3          	frflags	a7
     a74:	26c7a023          	sw	a2,608(a5)
     a78:	2717a223          	sw	a7,612(a5)

00000a7c <inst_98>:
     a7c:	31082507          	flw	fa0,784(a6)
     a80:	31482587          	flw	fa1,788(a6)
     a84:	a0b51653          	flt.s	a2,fa0,fa1
     a88:	001028f3          	frflags	a7
     a8c:	26c7a423          	sw	a2,616(a5)
     a90:	2717a623          	sw	a7,620(a5)

00000a94 <inst_99>:
     a94:	31882507          	flw	fa0,792(a6)
     a98:	31c82587          	flw	fa1,796(a6)
     a9c:	a0b51653          	flt.s	a2,fa0,fa1
     aa0:	001028f3          	frflags	a7
     aa4:	26c7a823          	sw	a2,624(a5)
     aa8:	2717aa23          	sw	a7,628(a5)

00000aac <inst_100>:
     aac:	32082507          	flw	fa0,800(a6)
     ab0:	32482587          	flw	fa1,804(a6)
     ab4:	a0b51653          	flt.s	a2,fa0,fa1
     ab8:	001028f3          	frflags	a7
     abc:	26c7ac23          	sw	a2,632(a5)
     ac0:	2717ae23          	sw	a7,636(a5)

00000ac4 <inst_101>:
     ac4:	32882507          	flw	fa0,808(a6)
     ac8:	32c82587          	flw	fa1,812(a6)
     acc:	a0b51653          	flt.s	a2,fa0,fa1
     ad0:	001028f3          	frflags	a7
     ad4:	28c7a023          	sw	a2,640(a5)
     ad8:	2917a223          	sw	a7,644(a5)

00000adc <inst_102>:
     adc:	33082507          	flw	fa0,816(a6)
     ae0:	33482587          	flw	fa1,820(a6)
     ae4:	a0b51653          	flt.s	a2,fa0,fa1
     ae8:	001028f3          	frflags	a7
     aec:	28c7a423          	sw	a2,648(a5)
     af0:	2917a623          	sw	a7,652(a5)

00000af4 <inst_103>:
     af4:	33882507          	flw	fa0,824(a6)
     af8:	33c82587          	flw	fa1,828(a6)
     afc:	a0b51653          	flt.s	a2,fa0,fa1
     b00:	001028f3          	frflags	a7
     b04:	28c7a823          	sw	a2,656(a5)
     b08:	2917aa23          	sw	a7,660(a5)

00000b0c <inst_104>:
     b0c:	34082507          	flw	fa0,832(a6)
     b10:	34482587          	flw	fa1,836(a6)
     b14:	a0b51653          	flt.s	a2,fa0,fa1
     b18:	001028f3          	frflags	a7
     b1c:	28c7ac23          	sw	a2,664(a5)
     b20:	2917ae23          	sw	a7,668(a5)

00000b24 <inst_105>:
     b24:	34882507          	flw	fa0,840(a6)
     b28:	34c82587          	flw	fa1,844(a6)
     b2c:	a0b51653          	flt.s	a2,fa0,fa1
     b30:	001028f3          	frflags	a7
     b34:	2ac7a023          	sw	a2,672(a5)
     b38:	2b17a223          	sw	a7,676(a5)

00000b3c <inst_106>:
     b3c:	35082507          	flw	fa0,848(a6)
     b40:	35482587          	flw	fa1,852(a6)
     b44:	a0b51653          	flt.s	a2,fa0,fa1
     b48:	001028f3          	frflags	a7
     b4c:	2ac7a423          	sw	a2,680(a5)
     b50:	2b17a623          	sw	a7,684(a5)

00000b54 <inst_107>:
     b54:	35882507          	flw	fa0,856(a6)
     b58:	35c82587          	flw	fa1,860(a6)
     b5c:	a0b51653          	flt.s	a2,fa0,fa1
     b60:	001028f3          	frflags	a7
     b64:	2ac7a823          	sw	a2,688(a5)
     b68:	2b17aa23          	sw	a7,692(a5)

00000b6c <inst_108>:
     b6c:	36082507          	flw	fa0,864(a6)
     b70:	36482587          	flw	fa1,868(a6)
     b74:	a0b51653          	flt.s	a2,fa0,fa1
     b78:	001028f3          	frflags	a7
     b7c:	2ac7ac23          	sw	a2,696(a5)
     b80:	2b17ae23          	sw	a7,700(a5)

00000b84 <inst_109>:
     b84:	36882507          	flw	fa0,872(a6)
     b88:	36c82587          	flw	fa1,876(a6)
     b8c:	a0b51653          	flt.s	a2,fa0,fa1
     b90:	001028f3          	frflags	a7
     b94:	2cc7a023          	sw	a2,704(a5)
     b98:	2d17a223          	sw	a7,708(a5)

00000b9c <inst_110>:
     b9c:	37082507          	flw	fa0,880(a6)
     ba0:	37482587          	flw	fa1,884(a6)
     ba4:	a0b51653          	flt.s	a2,fa0,fa1
     ba8:	001028f3          	frflags	a7
     bac:	2cc7a423          	sw	a2,712(a5)
     bb0:	2d17a623          	sw	a7,716(a5)

00000bb4 <inst_111>:
     bb4:	37882507          	flw	fa0,888(a6)
     bb8:	37c82587          	flw	fa1,892(a6)
     bbc:	a0b51653          	flt.s	a2,fa0,fa1
     bc0:	001028f3          	frflags	a7
     bc4:	2cc7a823          	sw	a2,720(a5)
     bc8:	2d17aa23          	sw	a7,724(a5)

00000bcc <inst_112>:
     bcc:	38082507          	flw	fa0,896(a6)
     bd0:	38482587          	flw	fa1,900(a6)
     bd4:	a0b51653          	flt.s	a2,fa0,fa1
     bd8:	001028f3          	frflags	a7
     bdc:	2cc7ac23          	sw	a2,728(a5)
     be0:	2d17ae23          	sw	a7,732(a5)

00000be4 <inst_113>:
     be4:	38882507          	flw	fa0,904(a6)
     be8:	38c82587          	flw	fa1,908(a6)
     bec:	a0b51653          	flt.s	a2,fa0,fa1
     bf0:	001028f3          	frflags	a7
     bf4:	2ec7a023          	sw	a2,736(a5)
     bf8:	2f17a223          	sw	a7,740(a5)

00000bfc <inst_114>:
     bfc:	39082507          	flw	fa0,912(a6)
     c00:	39482587          	flw	fa1,916(a6)
     c04:	a0b51653          	flt.s	a2,fa0,fa1
     c08:	001028f3          	frflags	a7
     c0c:	2ec7a423          	sw	a2,744(a5)
     c10:	2f17a623          	sw	a7,748(a5)

00000c14 <inst_115>:
     c14:	39882507          	flw	fa0,920(a6)
     c18:	39c82587          	flw	fa1,924(a6)
     c1c:	a0b51653          	flt.s	a2,fa0,fa1
     c20:	001028f3          	frflags	a7
     c24:	2ec7a823          	sw	a2,752(a5)
     c28:	2f17aa23          	sw	a7,756(a5)

00000c2c <inst_116>:
     c2c:	3a082507          	flw	fa0,928(a6)
     c30:	3a482587          	flw	fa1,932(a6)
     c34:	a0b51653          	flt.s	a2,fa0,fa1
     c38:	001028f3          	frflags	a7
     c3c:	2ec7ac23          	sw	a2,760(a5)
     c40:	2f17ae23          	sw	a7,764(a5)

00000c44 <inst_117>:
     c44:	3a882507          	flw	fa0,936(a6)
     c48:	3ac82587          	flw	fa1,940(a6)
     c4c:	a0b51653          	flt.s	a2,fa0,fa1
     c50:	001028f3          	frflags	a7
     c54:	30c7a023          	sw	a2,768(a5)
     c58:	3117a223          	sw	a7,772(a5)

00000c5c <inst_118>:
     c5c:	3b082507          	flw	fa0,944(a6)
     c60:	3b482587          	flw	fa1,948(a6)
     c64:	a0b51653          	flt.s	a2,fa0,fa1
     c68:	001028f3          	frflags	a7
     c6c:	30c7a423          	sw	a2,776(a5)
     c70:	3117a623          	sw	a7,780(a5)

00000c74 <inst_119>:
     c74:	3b882507          	flw	fa0,952(a6)
     c78:	3bc82587          	flw	fa1,956(a6)
     c7c:	a0b51653          	flt.s	a2,fa0,fa1
     c80:	001028f3          	frflags	a7
     c84:	30c7a823          	sw	a2,784(a5)
     c88:	3117aa23          	sw	a7,788(a5)

00000c8c <inst_120>:
     c8c:	3c082507          	flw	fa0,960(a6)
     c90:	3c482587          	flw	fa1,964(a6)
     c94:	a0b51653          	flt.s	a2,fa0,fa1
     c98:	001028f3          	frflags	a7
     c9c:	30c7ac23          	sw	a2,792(a5)
     ca0:	3117ae23          	sw	a7,796(a5)

00000ca4 <inst_121>:
     ca4:	3c882507          	flw	fa0,968(a6)
     ca8:	3cc82587          	flw	fa1,972(a6)
     cac:	a0b51653          	flt.s	a2,fa0,fa1
     cb0:	001028f3          	frflags	a7
     cb4:	32c7a023          	sw	a2,800(a5)
     cb8:	3317a223          	sw	a7,804(a5)

00000cbc <inst_122>:
     cbc:	3d082507          	flw	fa0,976(a6)
     cc0:	3d482587          	flw	fa1,980(a6)
     cc4:	a0b51653          	flt.s	a2,fa0,fa1
     cc8:	001028f3          	frflags	a7
     ccc:	32c7a423          	sw	a2,808(a5)
     cd0:	3317a623          	sw	a7,812(a5)

00000cd4 <inst_123>:
     cd4:	3d882507          	flw	fa0,984(a6)
     cd8:	3dc82587          	flw	fa1,988(a6)
     cdc:	a0b51653          	flt.s	a2,fa0,fa1
     ce0:	001028f3          	frflags	a7
     ce4:	32c7a823          	sw	a2,816(a5)
     ce8:	3317aa23          	sw	a7,820(a5)

00000cec <inst_124>:
     cec:	3e082507          	flw	fa0,992(a6)
     cf0:	3e482587          	flw	fa1,996(a6)
     cf4:	a0b51653          	flt.s	a2,fa0,fa1
     cf8:	001028f3          	frflags	a7
     cfc:	32c7ac23          	sw	a2,824(a5)
     d00:	3317ae23          	sw	a7,828(a5)

00000d04 <inst_125>:
     d04:	3e882507          	flw	fa0,1000(a6)
     d08:	3ec82587          	flw	fa1,1004(a6)
     d0c:	a0b51653          	flt.s	a2,fa0,fa1
     d10:	001028f3          	frflags	a7
     d14:	34c7a023          	sw	a2,832(a5)
     d18:	3517a223          	sw	a7,836(a5)

00000d1c <inst_126>:
     d1c:	3f082507          	flw	fa0,1008(a6)
     d20:	3f482587          	flw	fa1,1012(a6)
     d24:	a0b51653          	flt.s	a2,fa0,fa1
     d28:	001028f3          	frflags	a7
     d2c:	34c7a423          	sw	a2,840(a5)
     d30:	3517a623          	sw	a7,844(a5)

00000d34 <inst_127>:
     d34:	3f882507          	flw	fa0,1016(a6)
     d38:	3fc82587          	flw	fa1,1020(a6)
     d3c:	a0b51653          	flt.s	a2,fa0,fa1
     d40:	001028f3          	frflags	a7
     d44:	34c7a823          	sw	a2,848(a5)
     d48:	3517aa23          	sw	a7,852(a5)

00000d4c <inst_128>:
     d4c:	40082507          	flw	fa0,1024(a6)
     d50:	40482587          	flw	fa1,1028(a6)
     d54:	a0b51653          	flt.s	a2,fa0,fa1
     d58:	001028f3          	frflags	a7
     d5c:	34c7ac23          	sw	a2,856(a5)
     d60:	3517ae23          	sw	a7,860(a5)

00000d64 <inst_129>:
     d64:	40882507          	flw	fa0,1032(a6)
     d68:	40c82587          	flw	fa1,1036(a6)
     d6c:	a0b51653          	flt.s	a2,fa0,fa1
     d70:	001028f3          	frflags	a7
     d74:	36c7a023          	sw	a2,864(a5)
     d78:	3717a223          	sw	a7,868(a5)

00000d7c <inst_130>:
     d7c:	41082507          	flw	fa0,1040(a6)
     d80:	41482587          	flw	fa1,1044(a6)
     d84:	a0b51653          	flt.s	a2,fa0,fa1
     d88:	001028f3          	frflags	a7
     d8c:	36c7a423          	sw	a2,872(a5)
     d90:	3717a623          	sw	a7,876(a5)

00000d94 <inst_131>:
     d94:	41882507          	flw	fa0,1048(a6)
     d98:	41c82587          	flw	fa1,1052(a6)
     d9c:	a0b51653          	flt.s	a2,fa0,fa1
     da0:	001028f3          	frflags	a7
     da4:	36c7a823          	sw	a2,880(a5)
     da8:	3717aa23          	sw	a7,884(a5)

00000dac <inst_132>:
     dac:	42082507          	flw	fa0,1056(a6)
     db0:	42482587          	flw	fa1,1060(a6)
     db4:	a0b51653          	flt.s	a2,fa0,fa1
     db8:	001028f3          	frflags	a7
     dbc:	36c7ac23          	sw	a2,888(a5)
     dc0:	3717ae23          	sw	a7,892(a5)

00000dc4 <inst_133>:
     dc4:	42882507          	flw	fa0,1064(a6)
     dc8:	42c82587          	flw	fa1,1068(a6)
     dcc:	a0b51653          	flt.s	a2,fa0,fa1
     dd0:	001028f3          	frflags	a7
     dd4:	38c7a023          	sw	a2,896(a5)
     dd8:	3917a223          	sw	a7,900(a5)

00000ddc <inst_134>:
     ddc:	43082507          	flw	fa0,1072(a6)
     de0:	43482587          	flw	fa1,1076(a6)
     de4:	a0b51653          	flt.s	a2,fa0,fa1
     de8:	001028f3          	frflags	a7
     dec:	38c7a423          	sw	a2,904(a5)
     df0:	3917a623          	sw	a7,908(a5)

00000df4 <inst_135>:
     df4:	43882507          	flw	fa0,1080(a6)
     df8:	43c82587          	flw	fa1,1084(a6)
     dfc:	a0b51653          	flt.s	a2,fa0,fa1
     e00:	001028f3          	frflags	a7
     e04:	38c7a823          	sw	a2,912(a5)
     e08:	3917aa23          	sw	a7,916(a5)

00000e0c <inst_136>:
     e0c:	44082507          	flw	fa0,1088(a6)
     e10:	44482587          	flw	fa1,1092(a6)
     e14:	a0b51653          	flt.s	a2,fa0,fa1
     e18:	001028f3          	frflags	a7
     e1c:	38c7ac23          	sw	a2,920(a5)
     e20:	3917ae23          	sw	a7,924(a5)

00000e24 <inst_137>:
     e24:	44882507          	flw	fa0,1096(a6)
     e28:	44c82587          	flw	fa1,1100(a6)
     e2c:	a0b51653          	flt.s	a2,fa0,fa1
     e30:	001028f3          	frflags	a7
     e34:	3ac7a023          	sw	a2,928(a5)
     e38:	3b17a223          	sw	a7,932(a5)

00000e3c <inst_138>:
     e3c:	45082507          	flw	fa0,1104(a6)
     e40:	45482587          	flw	fa1,1108(a6)
     e44:	a0b51653          	flt.s	a2,fa0,fa1
     e48:	001028f3          	frflags	a7
     e4c:	3ac7a423          	sw	a2,936(a5)
     e50:	3b17a623          	sw	a7,940(a5)

00000e54 <inst_139>:
     e54:	45882507          	flw	fa0,1112(a6)
     e58:	45c82587          	flw	fa1,1116(a6)
     e5c:	a0b51653          	flt.s	a2,fa0,fa1
     e60:	001028f3          	frflags	a7
     e64:	3ac7a823          	sw	a2,944(a5)
     e68:	3b17aa23          	sw	a7,948(a5)

00000e6c <inst_140>:
     e6c:	46082507          	flw	fa0,1120(a6)
     e70:	46482587          	flw	fa1,1124(a6)
     e74:	a0b51653          	flt.s	a2,fa0,fa1
     e78:	001028f3          	frflags	a7
     e7c:	3ac7ac23          	sw	a2,952(a5)
     e80:	3b17ae23          	sw	a7,956(a5)

00000e84 <inst_141>:
     e84:	46882507          	flw	fa0,1128(a6)
     e88:	46c82587          	flw	fa1,1132(a6)
     e8c:	a0b51653          	flt.s	a2,fa0,fa1
     e90:	001028f3          	frflags	a7
     e94:	3cc7a023          	sw	a2,960(a5)
     e98:	3d17a223          	sw	a7,964(a5)

00000e9c <inst_142>:
     e9c:	47082507          	flw	fa0,1136(a6)
     ea0:	47482587          	flw	fa1,1140(a6)
     ea4:	a0b51653          	flt.s	a2,fa0,fa1
     ea8:	001028f3          	frflags	a7
     eac:	3cc7a423          	sw	a2,968(a5)
     eb0:	3d17a623          	sw	a7,972(a5)

00000eb4 <inst_143>:
     eb4:	47882507          	flw	fa0,1144(a6)
     eb8:	47c82587          	flw	fa1,1148(a6)
     ebc:	a0b51653          	flt.s	a2,fa0,fa1
     ec0:	001028f3          	frflags	a7
     ec4:	3cc7a823          	sw	a2,976(a5)
     ec8:	3d17aa23          	sw	a7,980(a5)

00000ecc <inst_144>:
     ecc:	48082507          	flw	fa0,1152(a6)
     ed0:	48482587          	flw	fa1,1156(a6)
     ed4:	a0b51653          	flt.s	a2,fa0,fa1
     ed8:	001028f3          	frflags	a7
     edc:	3cc7ac23          	sw	a2,984(a5)
     ee0:	3d17ae23          	sw	a7,988(a5)

00000ee4 <inst_145>:
     ee4:	48882507          	flw	fa0,1160(a6)
     ee8:	48c82587          	flw	fa1,1164(a6)
     eec:	a0b51653          	flt.s	a2,fa0,fa1
     ef0:	001028f3          	frflags	a7
     ef4:	3ec7a023          	sw	a2,992(a5)
     ef8:	3f17a223          	sw	a7,996(a5)

00000efc <inst_146>:
     efc:	49082507          	flw	fa0,1168(a6)
     f00:	49482587          	flw	fa1,1172(a6)
     f04:	a0b51653          	flt.s	a2,fa0,fa1
     f08:	001028f3          	frflags	a7
     f0c:	3ec7a423          	sw	a2,1000(a5)
     f10:	3f17a623          	sw	a7,1004(a5)

00000f14 <inst_147>:
     f14:	49882507          	flw	fa0,1176(a6)
     f18:	49c82587          	flw	fa1,1180(a6)
     f1c:	a0b51653          	flt.s	a2,fa0,fa1
     f20:	001028f3          	frflags	a7
     f24:	3ec7a823          	sw	a2,1008(a5)
     f28:	3f17aa23          	sw	a7,1012(a5)

00000f2c <inst_148>:
     f2c:	4a082507          	flw	fa0,1184(a6)
     f30:	4a482587          	flw	fa1,1188(a6)
     f34:	a0b51653          	flt.s	a2,fa0,fa1
     f38:	001028f3          	frflags	a7
     f3c:	3ec7ac23          	sw	a2,1016(a5)
     f40:	3f17ae23          	sw	a7,1020(a5)

00000f44 <inst_149>:
     f44:	4a882507          	flw	fa0,1192(a6)
     f48:	4ac82587          	flw	fa1,1196(a6)
     f4c:	a0b51653          	flt.s	a2,fa0,fa1
     f50:	001028f3          	frflags	a7
     f54:	40c7a023          	sw	a2,1024(a5)
     f58:	4117a223          	sw	a7,1028(a5)

00000f5c <inst_150>:
     f5c:	4b082507          	flw	fa0,1200(a6)
     f60:	4b482587          	flw	fa1,1204(a6)
     f64:	a0b51653          	flt.s	a2,fa0,fa1
     f68:	001028f3          	frflags	a7
     f6c:	40c7a423          	sw	a2,1032(a5)
     f70:	4117a623          	sw	a7,1036(a5)

00000f74 <inst_151>:
     f74:	4b882507          	flw	fa0,1208(a6)
     f78:	4bc82587          	flw	fa1,1212(a6)
     f7c:	a0b51653          	flt.s	a2,fa0,fa1
     f80:	001028f3          	frflags	a7
     f84:	40c7a823          	sw	a2,1040(a5)
     f88:	4117aa23          	sw	a7,1044(a5)

00000f8c <inst_152>:
     f8c:	4c082507          	flw	fa0,1216(a6)
     f90:	4c482587          	flw	fa1,1220(a6)
     f94:	a0b51653          	flt.s	a2,fa0,fa1
     f98:	001028f3          	frflags	a7
     f9c:	40c7ac23          	sw	a2,1048(a5)
     fa0:	4117ae23          	sw	a7,1052(a5)

00000fa4 <inst_153>:
     fa4:	4c882507          	flw	fa0,1224(a6)
     fa8:	4cc82587          	flw	fa1,1228(a6)
     fac:	a0b51653          	flt.s	a2,fa0,fa1
     fb0:	001028f3          	frflags	a7
     fb4:	42c7a023          	sw	a2,1056(a5)
     fb8:	4317a223          	sw	a7,1060(a5)

00000fbc <inst_154>:
     fbc:	4d082507          	flw	fa0,1232(a6)
     fc0:	4d482587          	flw	fa1,1236(a6)
     fc4:	a0b51653          	flt.s	a2,fa0,fa1
     fc8:	001028f3          	frflags	a7
     fcc:	42c7a423          	sw	a2,1064(a5)
     fd0:	4317a623          	sw	a7,1068(a5)

00000fd4 <inst_155>:
     fd4:	4d882507          	flw	fa0,1240(a6)
     fd8:	4dc82587          	flw	fa1,1244(a6)
     fdc:	a0b51653          	flt.s	a2,fa0,fa1
     fe0:	001028f3          	frflags	a7
     fe4:	42c7a823          	sw	a2,1072(a5)
     fe8:	4317aa23          	sw	a7,1076(a5)

00000fec <inst_156>:
     fec:	4e082507          	flw	fa0,1248(a6)
     ff0:	4e482587          	flw	fa1,1252(a6)
     ff4:	a0b51653          	flt.s	a2,fa0,fa1
     ff8:	001028f3          	frflags	a7
     ffc:	42c7ac23          	sw	a2,1080(a5)
    1000:	4317ae23          	sw	a7,1084(a5)

00001004 <inst_157>:
    1004:	4e882507          	flw	fa0,1256(a6)
    1008:	4ec82587          	flw	fa1,1260(a6)
    100c:	a0b51653          	flt.s	a2,fa0,fa1
    1010:	001028f3          	frflags	a7
    1014:	44c7a023          	sw	a2,1088(a5)
    1018:	4517a223          	sw	a7,1092(a5)

0000101c <inst_158>:
    101c:	4f082507          	flw	fa0,1264(a6)
    1020:	4f482587          	flw	fa1,1268(a6)
    1024:	a0b51653          	flt.s	a2,fa0,fa1
    1028:	001028f3          	frflags	a7
    102c:	44c7a423          	sw	a2,1096(a5)
    1030:	4517a623          	sw	a7,1100(a5)

00001034 <inst_159>:
    1034:	4f882507          	flw	fa0,1272(a6)
    1038:	4fc82587          	flw	fa1,1276(a6)
    103c:	a0b51653          	flt.s	a2,fa0,fa1
    1040:	001028f3          	frflags	a7
    1044:	44c7a823          	sw	a2,1104(a5)
    1048:	4517aa23          	sw	a7,1108(a5)

0000104c <inst_160>:
    104c:	50082507          	flw	fa0,1280(a6)
    1050:	50482587          	flw	fa1,1284(a6)
    1054:	a0b51653          	flt.s	a2,fa0,fa1
    1058:	001028f3          	frflags	a7
    105c:	44c7ac23          	sw	a2,1112(a5)
    1060:	4517ae23          	sw	a7,1116(a5)

00001064 <inst_161>:
    1064:	50882507          	flw	fa0,1288(a6)
    1068:	50c82587          	flw	fa1,1292(a6)
    106c:	a0b51653          	flt.s	a2,fa0,fa1
    1070:	001028f3          	frflags	a7
    1074:	46c7a023          	sw	a2,1120(a5)
    1078:	4717a223          	sw	a7,1124(a5)

0000107c <inst_162>:
    107c:	51082507          	flw	fa0,1296(a6)
    1080:	51482587          	flw	fa1,1300(a6)
    1084:	a0b51653          	flt.s	a2,fa0,fa1
    1088:	001028f3          	frflags	a7
    108c:	46c7a423          	sw	a2,1128(a5)
    1090:	4717a623          	sw	a7,1132(a5)

00001094 <inst_163>:
    1094:	51882507          	flw	fa0,1304(a6)
    1098:	51c82587          	flw	fa1,1308(a6)
    109c:	a0b51653          	flt.s	a2,fa0,fa1
    10a0:	001028f3          	frflags	a7
    10a4:	46c7a823          	sw	a2,1136(a5)
    10a8:	4717aa23          	sw	a7,1140(a5)

000010ac <inst_164>:
    10ac:	52082507          	flw	fa0,1312(a6)
    10b0:	52482587          	flw	fa1,1316(a6)
    10b4:	a0b51653          	flt.s	a2,fa0,fa1
    10b8:	001028f3          	frflags	a7
    10bc:	46c7ac23          	sw	a2,1144(a5)
    10c0:	4717ae23          	sw	a7,1148(a5)

000010c4 <inst_165>:
    10c4:	52882507          	flw	fa0,1320(a6)
    10c8:	52c82587          	flw	fa1,1324(a6)
    10cc:	a0b51653          	flt.s	a2,fa0,fa1
    10d0:	001028f3          	frflags	a7
    10d4:	48c7a023          	sw	a2,1152(a5)
    10d8:	4917a223          	sw	a7,1156(a5)

000010dc <inst_166>:
    10dc:	53082507          	flw	fa0,1328(a6)
    10e0:	53482587          	flw	fa1,1332(a6)
    10e4:	a0b51653          	flt.s	a2,fa0,fa1
    10e8:	001028f3          	frflags	a7
    10ec:	48c7a423          	sw	a2,1160(a5)
    10f0:	4917a623          	sw	a7,1164(a5)

000010f4 <inst_167>:
    10f4:	53882507          	flw	fa0,1336(a6)
    10f8:	53c82587          	flw	fa1,1340(a6)
    10fc:	a0b51653          	flt.s	a2,fa0,fa1
    1100:	001028f3          	frflags	a7
    1104:	48c7a823          	sw	a2,1168(a5)
    1108:	4917aa23          	sw	a7,1172(a5)

0000110c <inst_168>:
    110c:	54082507          	flw	fa0,1344(a6)
    1110:	54482587          	flw	fa1,1348(a6)
    1114:	a0b51653          	flt.s	a2,fa0,fa1
    1118:	001028f3          	frflags	a7
    111c:	48c7ac23          	sw	a2,1176(a5)
    1120:	4917ae23          	sw	a7,1180(a5)

00001124 <inst_169>:
    1124:	54882507          	flw	fa0,1352(a6)
    1128:	54c82587          	flw	fa1,1356(a6)
    112c:	a0b51653          	flt.s	a2,fa0,fa1
    1130:	001028f3          	frflags	a7
    1134:	4ac7a023          	sw	a2,1184(a5)
    1138:	4b17a223          	sw	a7,1188(a5)

0000113c <inst_170>:
    113c:	55082507          	flw	fa0,1360(a6)
    1140:	55482587          	flw	fa1,1364(a6)
    1144:	a0b51653          	flt.s	a2,fa0,fa1
    1148:	001028f3          	frflags	a7
    114c:	4ac7a423          	sw	a2,1192(a5)
    1150:	4b17a623          	sw	a7,1196(a5)

00001154 <inst_171>:
    1154:	55882507          	flw	fa0,1368(a6)
    1158:	55c82587          	flw	fa1,1372(a6)
    115c:	a0b51653          	flt.s	a2,fa0,fa1
    1160:	001028f3          	frflags	a7
    1164:	4ac7a823          	sw	a2,1200(a5)
    1168:	4b17aa23          	sw	a7,1204(a5)

0000116c <inst_172>:
    116c:	56082507          	flw	fa0,1376(a6)
    1170:	56482587          	flw	fa1,1380(a6)
    1174:	a0b51653          	flt.s	a2,fa0,fa1
    1178:	001028f3          	frflags	a7
    117c:	4ac7ac23          	sw	a2,1208(a5)
    1180:	4b17ae23          	sw	a7,1212(a5)

00001184 <inst_173>:
    1184:	56882507          	flw	fa0,1384(a6)
    1188:	56c82587          	flw	fa1,1388(a6)
    118c:	a0b51653          	flt.s	a2,fa0,fa1
    1190:	001028f3          	frflags	a7
    1194:	4cc7a023          	sw	a2,1216(a5)
    1198:	4d17a223          	sw	a7,1220(a5)

0000119c <inst_174>:
    119c:	57082507          	flw	fa0,1392(a6)
    11a0:	57482587          	flw	fa1,1396(a6)
    11a4:	a0b51653          	flt.s	a2,fa0,fa1
    11a8:	001028f3          	frflags	a7
    11ac:	4cc7a423          	sw	a2,1224(a5)
    11b0:	4d17a623          	sw	a7,1228(a5)

000011b4 <inst_175>:
    11b4:	57882507          	flw	fa0,1400(a6)
    11b8:	57c82587          	flw	fa1,1404(a6)
    11bc:	a0b51653          	flt.s	a2,fa0,fa1
    11c0:	001028f3          	frflags	a7
    11c4:	4cc7a823          	sw	a2,1232(a5)
    11c8:	4d17aa23          	sw	a7,1236(a5)

000011cc <inst_176>:
    11cc:	58082507          	flw	fa0,1408(a6)
    11d0:	58482587          	flw	fa1,1412(a6)
    11d4:	a0b51653          	flt.s	a2,fa0,fa1
    11d8:	001028f3          	frflags	a7
    11dc:	4cc7ac23          	sw	a2,1240(a5)
    11e0:	4d17ae23          	sw	a7,1244(a5)

000011e4 <inst_177>:
    11e4:	58882507          	flw	fa0,1416(a6)
    11e8:	58c82587          	flw	fa1,1420(a6)
    11ec:	a0b51653          	flt.s	a2,fa0,fa1
    11f0:	001028f3          	frflags	a7
    11f4:	4ec7a023          	sw	a2,1248(a5)
    11f8:	4f17a223          	sw	a7,1252(a5)

000011fc <inst_178>:
    11fc:	59082507          	flw	fa0,1424(a6)
    1200:	59482587          	flw	fa1,1428(a6)
    1204:	a0b51653          	flt.s	a2,fa0,fa1
    1208:	001028f3          	frflags	a7
    120c:	4ec7a423          	sw	a2,1256(a5)
    1210:	4f17a623          	sw	a7,1260(a5)

00001214 <inst_179>:
    1214:	59882507          	flw	fa0,1432(a6)
    1218:	59c82587          	flw	fa1,1436(a6)
    121c:	a0b51653          	flt.s	a2,fa0,fa1
    1220:	001028f3          	frflags	a7
    1224:	4ec7a823          	sw	a2,1264(a5)
    1228:	4f17aa23          	sw	a7,1268(a5)

0000122c <inst_180>:
    122c:	5a082507          	flw	fa0,1440(a6)
    1230:	5a482587          	flw	fa1,1444(a6)
    1234:	a0b51653          	flt.s	a2,fa0,fa1
    1238:	001028f3          	frflags	a7
    123c:	4ec7ac23          	sw	a2,1272(a5)
    1240:	4f17ae23          	sw	a7,1276(a5)

00001244 <inst_181>:
    1244:	5a882507          	flw	fa0,1448(a6)
    1248:	5ac82587          	flw	fa1,1452(a6)
    124c:	a0b51653          	flt.s	a2,fa0,fa1
    1250:	001028f3          	frflags	a7
    1254:	50c7a023          	sw	a2,1280(a5)
    1258:	5117a223          	sw	a7,1284(a5)

0000125c <inst_182>:
    125c:	5b082507          	flw	fa0,1456(a6)
    1260:	5b482587          	flw	fa1,1460(a6)
    1264:	a0b51653          	flt.s	a2,fa0,fa1
    1268:	001028f3          	frflags	a7
    126c:	50c7a423          	sw	a2,1288(a5)
    1270:	5117a623          	sw	a7,1292(a5)

00001274 <inst_183>:
    1274:	5b882507          	flw	fa0,1464(a6)
    1278:	5bc82587          	flw	fa1,1468(a6)
    127c:	a0b51653          	flt.s	a2,fa0,fa1
    1280:	001028f3          	frflags	a7
    1284:	50c7a823          	sw	a2,1296(a5)
    1288:	5117aa23          	sw	a7,1300(a5)

0000128c <inst_184>:
    128c:	5c082507          	flw	fa0,1472(a6)
    1290:	5c482587          	flw	fa1,1476(a6)
    1294:	a0b51653          	flt.s	a2,fa0,fa1
    1298:	001028f3          	frflags	a7
    129c:	50c7ac23          	sw	a2,1304(a5)
    12a0:	5117ae23          	sw	a7,1308(a5)

000012a4 <inst_185>:
    12a4:	5c882507          	flw	fa0,1480(a6)
    12a8:	5cc82587          	flw	fa1,1484(a6)
    12ac:	a0b51653          	flt.s	a2,fa0,fa1
    12b0:	001028f3          	frflags	a7
    12b4:	52c7a023          	sw	a2,1312(a5)
    12b8:	5317a223          	sw	a7,1316(a5)

000012bc <inst_186>:
    12bc:	5d082507          	flw	fa0,1488(a6)
    12c0:	5d482587          	flw	fa1,1492(a6)
    12c4:	a0b51653          	flt.s	a2,fa0,fa1
    12c8:	001028f3          	frflags	a7
    12cc:	52c7a423          	sw	a2,1320(a5)
    12d0:	5317a623          	sw	a7,1324(a5)

000012d4 <inst_187>:
    12d4:	5d882507          	flw	fa0,1496(a6)
    12d8:	5dc82587          	flw	fa1,1500(a6)
    12dc:	a0b51653          	flt.s	a2,fa0,fa1
    12e0:	001028f3          	frflags	a7
    12e4:	52c7a823          	sw	a2,1328(a5)
    12e8:	5317aa23          	sw	a7,1332(a5)

000012ec <inst_188>:
    12ec:	5e082507          	flw	fa0,1504(a6)
    12f0:	5e482587          	flw	fa1,1508(a6)
    12f4:	a0b51653          	flt.s	a2,fa0,fa1
    12f8:	001028f3          	frflags	a7
    12fc:	52c7ac23          	sw	a2,1336(a5)
    1300:	5317ae23          	sw	a7,1340(a5)

00001304 <inst_189>:
    1304:	5e882507          	flw	fa0,1512(a6)
    1308:	5ec82587          	flw	fa1,1516(a6)
    130c:	a0b51653          	flt.s	a2,fa0,fa1
    1310:	001028f3          	frflags	a7
    1314:	54c7a023          	sw	a2,1344(a5)
    1318:	5517a223          	sw	a7,1348(a5)

0000131c <inst_190>:
    131c:	5f082507          	flw	fa0,1520(a6)
    1320:	5f482587          	flw	fa1,1524(a6)
    1324:	a0b51653          	flt.s	a2,fa0,fa1
    1328:	001028f3          	frflags	a7
    132c:	54c7a423          	sw	a2,1352(a5)
    1330:	5517a623          	sw	a7,1356(a5)

00001334 <inst_191>:
    1334:	5f882507          	flw	fa0,1528(a6)
    1338:	5fc82587          	flw	fa1,1532(a6)
    133c:	a0b51653          	flt.s	a2,fa0,fa1
    1340:	001028f3          	frflags	a7
    1344:	54c7a823          	sw	a2,1360(a5)
    1348:	5517aa23          	sw	a7,1364(a5)

0000134c <inst_192>:
    134c:	60082507          	flw	fa0,1536(a6)
    1350:	60482587          	flw	fa1,1540(a6)
    1354:	a0b51653          	flt.s	a2,fa0,fa1
    1358:	001028f3          	frflags	a7
    135c:	54c7ac23          	sw	a2,1368(a5)
    1360:	5517ae23          	sw	a7,1372(a5)

00001364 <inst_193>:
    1364:	60882507          	flw	fa0,1544(a6)
    1368:	60c82587          	flw	fa1,1548(a6)
    136c:	a0b51653          	flt.s	a2,fa0,fa1
    1370:	001028f3          	frflags	a7
    1374:	56c7a023          	sw	a2,1376(a5)
    1378:	5717a223          	sw	a7,1380(a5)

0000137c <inst_194>:
    137c:	61082507          	flw	fa0,1552(a6)
    1380:	61482587          	flw	fa1,1556(a6)
    1384:	a0b51653          	flt.s	a2,fa0,fa1
    1388:	001028f3          	frflags	a7
    138c:	56c7a423          	sw	a2,1384(a5)
    1390:	5717a623          	sw	a7,1388(a5)

00001394 <inst_195>:
    1394:	61882507          	flw	fa0,1560(a6)
    1398:	61c82587          	flw	fa1,1564(a6)
    139c:	a0b51653          	flt.s	a2,fa0,fa1
    13a0:	001028f3          	frflags	a7
    13a4:	56c7a823          	sw	a2,1392(a5)
    13a8:	5717aa23          	sw	a7,1396(a5)

000013ac <inst_196>:
    13ac:	62082507          	flw	fa0,1568(a6)
    13b0:	62482587          	flw	fa1,1572(a6)
    13b4:	a0b51653          	flt.s	a2,fa0,fa1
    13b8:	001028f3          	frflags	a7
    13bc:	56c7ac23          	sw	a2,1400(a5)
    13c0:	5717ae23          	sw	a7,1404(a5)

000013c4 <inst_197>:
    13c4:	62882507          	flw	fa0,1576(a6)
    13c8:	62c82587          	flw	fa1,1580(a6)
    13cc:	a0b51653          	flt.s	a2,fa0,fa1
    13d0:	001028f3          	frflags	a7
    13d4:	58c7a023          	sw	a2,1408(a5)
    13d8:	5917a223          	sw	a7,1412(a5)

000013dc <inst_198>:
    13dc:	63082507          	flw	fa0,1584(a6)
    13e0:	63482587          	flw	fa1,1588(a6)
    13e4:	a0b51653          	flt.s	a2,fa0,fa1
    13e8:	001028f3          	frflags	a7
    13ec:	58c7a423          	sw	a2,1416(a5)
    13f0:	5917a623          	sw	a7,1420(a5)

000013f4 <inst_199>:
    13f4:	63882507          	flw	fa0,1592(a6)
    13f8:	63c82587          	flw	fa1,1596(a6)
    13fc:	a0b51653          	flt.s	a2,fa0,fa1
    1400:	001028f3          	frflags	a7
    1404:	58c7a823          	sw	a2,1424(a5)
    1408:	5917aa23          	sw	a7,1428(a5)

0000140c <inst_200>:
    140c:	64082507          	flw	fa0,1600(a6)
    1410:	64482587          	flw	fa1,1604(a6)
    1414:	a0b51653          	flt.s	a2,fa0,fa1
    1418:	001028f3          	frflags	a7
    141c:	58c7ac23          	sw	a2,1432(a5)
    1420:	5917ae23          	sw	a7,1436(a5)

00001424 <inst_201>:
    1424:	64882507          	flw	fa0,1608(a6)
    1428:	64c82587          	flw	fa1,1612(a6)
    142c:	a0b51653          	flt.s	a2,fa0,fa1
    1430:	001028f3          	frflags	a7
    1434:	5ac7a023          	sw	a2,1440(a5)
    1438:	5b17a223          	sw	a7,1444(a5)

0000143c <inst_202>:
    143c:	65082507          	flw	fa0,1616(a6)
    1440:	65482587          	flw	fa1,1620(a6)
    1444:	a0b51653          	flt.s	a2,fa0,fa1
    1448:	001028f3          	frflags	a7
    144c:	5ac7a423          	sw	a2,1448(a5)
    1450:	5b17a623          	sw	a7,1452(a5)

00001454 <inst_203>:
    1454:	65882507          	flw	fa0,1624(a6)
    1458:	65c82587          	flw	fa1,1628(a6)
    145c:	a0b51653          	flt.s	a2,fa0,fa1
    1460:	001028f3          	frflags	a7
    1464:	5ac7a823          	sw	a2,1456(a5)
    1468:	5b17aa23          	sw	a7,1460(a5)

0000146c <inst_204>:
    146c:	66082507          	flw	fa0,1632(a6)
    1470:	66482587          	flw	fa1,1636(a6)
    1474:	a0b51653          	flt.s	a2,fa0,fa1
    1478:	001028f3          	frflags	a7
    147c:	5ac7ac23          	sw	a2,1464(a5)
    1480:	5b17ae23          	sw	a7,1468(a5)

00001484 <inst_205>:
    1484:	66882507          	flw	fa0,1640(a6)
    1488:	66c82587          	flw	fa1,1644(a6)
    148c:	a0b51653          	flt.s	a2,fa0,fa1
    1490:	001028f3          	frflags	a7
    1494:	5cc7a023          	sw	a2,1472(a5)
    1498:	5d17a223          	sw	a7,1476(a5)

0000149c <inst_206>:
    149c:	67082507          	flw	fa0,1648(a6)
    14a0:	67482587          	flw	fa1,1652(a6)
    14a4:	a0b51653          	flt.s	a2,fa0,fa1
    14a8:	001028f3          	frflags	a7
    14ac:	5cc7a423          	sw	a2,1480(a5)
    14b0:	5d17a623          	sw	a7,1484(a5)

000014b4 <inst_207>:
    14b4:	67882507          	flw	fa0,1656(a6)
    14b8:	67c82587          	flw	fa1,1660(a6)
    14bc:	a0b51653          	flt.s	a2,fa0,fa1
    14c0:	001028f3          	frflags	a7
    14c4:	5cc7a823          	sw	a2,1488(a5)
    14c8:	5d17aa23          	sw	a7,1492(a5)

000014cc <inst_208>:
    14cc:	68082507          	flw	fa0,1664(a6)
    14d0:	68482587          	flw	fa1,1668(a6)
    14d4:	a0b51653          	flt.s	a2,fa0,fa1
    14d8:	001028f3          	frflags	a7
    14dc:	5cc7ac23          	sw	a2,1496(a5)
    14e0:	5d17ae23          	sw	a7,1500(a5)

000014e4 <inst_209>:
    14e4:	68882507          	flw	fa0,1672(a6)
    14e8:	68c82587          	flw	fa1,1676(a6)
    14ec:	a0b51653          	flt.s	a2,fa0,fa1
    14f0:	001028f3          	frflags	a7
    14f4:	5ec7a023          	sw	a2,1504(a5)
    14f8:	5f17a223          	sw	a7,1508(a5)

000014fc <inst_210>:
    14fc:	69082507          	flw	fa0,1680(a6)
    1500:	69482587          	flw	fa1,1684(a6)
    1504:	a0b51653          	flt.s	a2,fa0,fa1
    1508:	001028f3          	frflags	a7
    150c:	5ec7a423          	sw	a2,1512(a5)
    1510:	5f17a623          	sw	a7,1516(a5)

00001514 <inst_211>:
    1514:	69882507          	flw	fa0,1688(a6)
    1518:	69c82587          	flw	fa1,1692(a6)
    151c:	a0b51653          	flt.s	a2,fa0,fa1
    1520:	001028f3          	frflags	a7
    1524:	5ec7a823          	sw	a2,1520(a5)
    1528:	5f17aa23          	sw	a7,1524(a5)

0000152c <inst_212>:
    152c:	6a082507          	flw	fa0,1696(a6)
    1530:	6a482587          	flw	fa1,1700(a6)
    1534:	a0b51653          	flt.s	a2,fa0,fa1
    1538:	001028f3          	frflags	a7
    153c:	5ec7ac23          	sw	a2,1528(a5)
    1540:	5f17ae23          	sw	a7,1532(a5)

00001544 <inst_213>:
    1544:	6a882507          	flw	fa0,1704(a6)
    1548:	6ac82587          	flw	fa1,1708(a6)
    154c:	a0b51653          	flt.s	a2,fa0,fa1
    1550:	001028f3          	frflags	a7
    1554:	60c7a023          	sw	a2,1536(a5)
    1558:	6117a223          	sw	a7,1540(a5)

0000155c <inst_214>:
    155c:	6b082507          	flw	fa0,1712(a6)
    1560:	6b482587          	flw	fa1,1716(a6)
    1564:	a0b51653          	flt.s	a2,fa0,fa1
    1568:	001028f3          	frflags	a7
    156c:	60c7a423          	sw	a2,1544(a5)
    1570:	6117a623          	sw	a7,1548(a5)

00001574 <inst_215>:
    1574:	6b882507          	flw	fa0,1720(a6)
    1578:	6bc82587          	flw	fa1,1724(a6)
    157c:	a0b51653          	flt.s	a2,fa0,fa1
    1580:	001028f3          	frflags	a7
    1584:	60c7a823          	sw	a2,1552(a5)
    1588:	6117aa23          	sw	a7,1556(a5)

0000158c <inst_216>:
    158c:	6c082507          	flw	fa0,1728(a6)
    1590:	6c482587          	flw	fa1,1732(a6)
    1594:	a0b51653          	flt.s	a2,fa0,fa1
    1598:	001028f3          	frflags	a7
    159c:	60c7ac23          	sw	a2,1560(a5)
    15a0:	6117ae23          	sw	a7,1564(a5)

000015a4 <inst_217>:
    15a4:	6c882507          	flw	fa0,1736(a6)
    15a8:	6cc82587          	flw	fa1,1740(a6)
    15ac:	a0b51653          	flt.s	a2,fa0,fa1
    15b0:	001028f3          	frflags	a7
    15b4:	62c7a023          	sw	a2,1568(a5)
    15b8:	6317a223          	sw	a7,1572(a5)

000015bc <inst_218>:
    15bc:	6d082507          	flw	fa0,1744(a6)
    15c0:	6d482587          	flw	fa1,1748(a6)
    15c4:	a0b51653          	flt.s	a2,fa0,fa1
    15c8:	001028f3          	frflags	a7
    15cc:	62c7a423          	sw	a2,1576(a5)
    15d0:	6317a623          	sw	a7,1580(a5)

000015d4 <inst_219>:
    15d4:	6d882507          	flw	fa0,1752(a6)
    15d8:	6dc82587          	flw	fa1,1756(a6)
    15dc:	a0b51653          	flt.s	a2,fa0,fa1
    15e0:	001028f3          	frflags	a7
    15e4:	62c7a823          	sw	a2,1584(a5)
    15e8:	6317aa23          	sw	a7,1588(a5)

000015ec <inst_220>:
    15ec:	6e082507          	flw	fa0,1760(a6)
    15f0:	6e482587          	flw	fa1,1764(a6)
    15f4:	a0b51653          	flt.s	a2,fa0,fa1
    15f8:	001028f3          	frflags	a7
    15fc:	62c7ac23          	sw	a2,1592(a5)
    1600:	6317ae23          	sw	a7,1596(a5)

00001604 <inst_221>:
    1604:	6e882507          	flw	fa0,1768(a6)
    1608:	6ec82587          	flw	fa1,1772(a6)
    160c:	a0b51653          	flt.s	a2,fa0,fa1
    1610:	001028f3          	frflags	a7
    1614:	64c7a023          	sw	a2,1600(a5)
    1618:	6517a223          	sw	a7,1604(a5)

0000161c <inst_222>:
    161c:	6f082507          	flw	fa0,1776(a6)
    1620:	6f482587          	flw	fa1,1780(a6)
    1624:	a0b51653          	flt.s	a2,fa0,fa1
    1628:	001028f3          	frflags	a7
    162c:	64c7a423          	sw	a2,1608(a5)
    1630:	6517a623          	sw	a7,1612(a5)

00001634 <inst_223>:
    1634:	6f882507          	flw	fa0,1784(a6)
    1638:	6fc82587          	flw	fa1,1788(a6)
    163c:	a0b51653          	flt.s	a2,fa0,fa1
    1640:	001028f3          	frflags	a7
    1644:	64c7a823          	sw	a2,1616(a5)
    1648:	6517aa23          	sw	a7,1620(a5)

0000164c <inst_224>:
    164c:	70082507          	flw	fa0,1792(a6)
    1650:	70482587          	flw	fa1,1796(a6)
    1654:	a0b51653          	flt.s	a2,fa0,fa1
    1658:	001028f3          	frflags	a7
    165c:	64c7ac23          	sw	a2,1624(a5)
    1660:	6517ae23          	sw	a7,1628(a5)

00001664 <inst_225>:
    1664:	70882507          	flw	fa0,1800(a6)
    1668:	70c82587          	flw	fa1,1804(a6)
    166c:	a0b51653          	flt.s	a2,fa0,fa1
    1670:	001028f3          	frflags	a7
    1674:	66c7a023          	sw	a2,1632(a5)
    1678:	6717a223          	sw	a7,1636(a5)

0000167c <inst_226>:
    167c:	71082507          	flw	fa0,1808(a6)
    1680:	71482587          	flw	fa1,1812(a6)
    1684:	a0b51653          	flt.s	a2,fa0,fa1
    1688:	001028f3          	frflags	a7
    168c:	66c7a423          	sw	a2,1640(a5)
    1690:	6717a623          	sw	a7,1644(a5)

00001694 <inst_227>:
    1694:	71882507          	flw	fa0,1816(a6)
    1698:	71c82587          	flw	fa1,1820(a6)
    169c:	a0b51653          	flt.s	a2,fa0,fa1
    16a0:	001028f3          	frflags	a7
    16a4:	66c7a823          	sw	a2,1648(a5)
    16a8:	6717aa23          	sw	a7,1652(a5)

000016ac <inst_228>:
    16ac:	72082507          	flw	fa0,1824(a6)
    16b0:	72482587          	flw	fa1,1828(a6)
    16b4:	a0b51653          	flt.s	a2,fa0,fa1
    16b8:	001028f3          	frflags	a7
    16bc:	66c7ac23          	sw	a2,1656(a5)
    16c0:	6717ae23          	sw	a7,1660(a5)

000016c4 <inst_229>:
    16c4:	72882507          	flw	fa0,1832(a6)
    16c8:	72c82587          	flw	fa1,1836(a6)
    16cc:	a0b51653          	flt.s	a2,fa0,fa1
    16d0:	001028f3          	frflags	a7
    16d4:	68c7a023          	sw	a2,1664(a5)
    16d8:	6917a223          	sw	a7,1668(a5)

000016dc <inst_230>:
    16dc:	73082507          	flw	fa0,1840(a6)
    16e0:	73482587          	flw	fa1,1844(a6)
    16e4:	a0b51653          	flt.s	a2,fa0,fa1
    16e8:	001028f3          	frflags	a7
    16ec:	68c7a423          	sw	a2,1672(a5)
    16f0:	6917a623          	sw	a7,1676(a5)

000016f4 <inst_231>:
    16f4:	73882507          	flw	fa0,1848(a6)
    16f8:	73c82587          	flw	fa1,1852(a6)
    16fc:	a0b51653          	flt.s	a2,fa0,fa1
    1700:	001028f3          	frflags	a7
    1704:	68c7a823          	sw	a2,1680(a5)
    1708:	6917aa23          	sw	a7,1684(a5)

0000170c <inst_232>:
    170c:	74082507          	flw	fa0,1856(a6)
    1710:	74482587          	flw	fa1,1860(a6)
    1714:	a0b51653          	flt.s	a2,fa0,fa1
    1718:	001028f3          	frflags	a7
    171c:	68c7ac23          	sw	a2,1688(a5)
    1720:	6917ae23          	sw	a7,1692(a5)

00001724 <inst_233>:
    1724:	74882507          	flw	fa0,1864(a6)
    1728:	74c82587          	flw	fa1,1868(a6)
    172c:	a0b51653          	flt.s	a2,fa0,fa1
    1730:	001028f3          	frflags	a7
    1734:	6ac7a023          	sw	a2,1696(a5)
    1738:	6b17a223          	sw	a7,1700(a5)

0000173c <inst_234>:
    173c:	75082507          	flw	fa0,1872(a6)
    1740:	75482587          	flw	fa1,1876(a6)
    1744:	a0b51653          	flt.s	a2,fa0,fa1
    1748:	001028f3          	frflags	a7
    174c:	6ac7a423          	sw	a2,1704(a5)
    1750:	6b17a623          	sw	a7,1708(a5)

00001754 <inst_235>:
    1754:	75882507          	flw	fa0,1880(a6)
    1758:	75c82587          	flw	fa1,1884(a6)
    175c:	a0b51653          	flt.s	a2,fa0,fa1
    1760:	001028f3          	frflags	a7
    1764:	6ac7a823          	sw	a2,1712(a5)
    1768:	6b17aa23          	sw	a7,1716(a5)

0000176c <inst_236>:
    176c:	76082507          	flw	fa0,1888(a6)
    1770:	76482587          	flw	fa1,1892(a6)
    1774:	a0b51653          	flt.s	a2,fa0,fa1
    1778:	001028f3          	frflags	a7
    177c:	6ac7ac23          	sw	a2,1720(a5)
    1780:	6b17ae23          	sw	a7,1724(a5)

00001784 <inst_237>:
    1784:	76882507          	flw	fa0,1896(a6)
    1788:	76c82587          	flw	fa1,1900(a6)
    178c:	a0b51653          	flt.s	a2,fa0,fa1
    1790:	001028f3          	frflags	a7
    1794:	6cc7a023          	sw	a2,1728(a5)
    1798:	6d17a223          	sw	a7,1732(a5)

0000179c <inst_238>:
    179c:	77082507          	flw	fa0,1904(a6)
    17a0:	77482587          	flw	fa1,1908(a6)
    17a4:	a0b51653          	flt.s	a2,fa0,fa1
    17a8:	001028f3          	frflags	a7
    17ac:	6cc7a423          	sw	a2,1736(a5)
    17b0:	6d17a623          	sw	a7,1740(a5)

000017b4 <inst_239>:
    17b4:	77882507          	flw	fa0,1912(a6)
    17b8:	77c82587          	flw	fa1,1916(a6)
    17bc:	a0b51653          	flt.s	a2,fa0,fa1
    17c0:	001028f3          	frflags	a7
    17c4:	6cc7a823          	sw	a2,1744(a5)
    17c8:	6d17aa23          	sw	a7,1748(a5)

000017cc <inst_240>:
    17cc:	78082507          	flw	fa0,1920(a6)
    17d0:	78482587          	flw	fa1,1924(a6)
    17d4:	a0b51653          	flt.s	a2,fa0,fa1
    17d8:	001028f3          	frflags	a7
    17dc:	6cc7ac23          	sw	a2,1752(a5)
    17e0:	6d17ae23          	sw	a7,1756(a5)

000017e4 <inst_241>:
    17e4:	78882507          	flw	fa0,1928(a6)
    17e8:	78c82587          	flw	fa1,1932(a6)
    17ec:	a0b51653          	flt.s	a2,fa0,fa1
    17f0:	001028f3          	frflags	a7
    17f4:	6ec7a023          	sw	a2,1760(a5)
    17f8:	6f17a223          	sw	a7,1764(a5)

000017fc <inst_242>:
    17fc:	79082507          	flw	fa0,1936(a6)
    1800:	79482587          	flw	fa1,1940(a6)
    1804:	a0b51653          	flt.s	a2,fa0,fa1
    1808:	001028f3          	frflags	a7
    180c:	6ec7a423          	sw	a2,1768(a5)
    1810:	6f17a623          	sw	a7,1772(a5)

00001814 <inst_243>:
    1814:	79882507          	flw	fa0,1944(a6)
    1818:	79c82587          	flw	fa1,1948(a6)
    181c:	a0b51653          	flt.s	a2,fa0,fa1
    1820:	001028f3          	frflags	a7
    1824:	6ec7a823          	sw	a2,1776(a5)
    1828:	6f17aa23          	sw	a7,1780(a5)

0000182c <inst_244>:
    182c:	7a082507          	flw	fa0,1952(a6)
    1830:	7a482587          	flw	fa1,1956(a6)
    1834:	a0b51653          	flt.s	a2,fa0,fa1
    1838:	001028f3          	frflags	a7
    183c:	6ec7ac23          	sw	a2,1784(a5)
    1840:	6f17ae23          	sw	a7,1788(a5)

00001844 <inst_245>:
    1844:	7a882507          	flw	fa0,1960(a6)
    1848:	7ac82587          	flw	fa1,1964(a6)
    184c:	a0b51653          	flt.s	a2,fa0,fa1
    1850:	001028f3          	frflags	a7
    1854:	70c7a023          	sw	a2,1792(a5)
    1858:	7117a223          	sw	a7,1796(a5)

0000185c <inst_246>:
    185c:	7b082507          	flw	fa0,1968(a6)
    1860:	7b482587          	flw	fa1,1972(a6)
    1864:	a0b51653          	flt.s	a2,fa0,fa1
    1868:	001028f3          	frflags	a7
    186c:	70c7a423          	sw	a2,1800(a5)
    1870:	7117a623          	sw	a7,1804(a5)

00001874 <inst_247>:
    1874:	7b882507          	flw	fa0,1976(a6)
    1878:	7bc82587          	flw	fa1,1980(a6)
    187c:	a0b51653          	flt.s	a2,fa0,fa1
    1880:	001028f3          	frflags	a7
    1884:	70c7a823          	sw	a2,1808(a5)
    1888:	7117aa23          	sw	a7,1812(a5)

0000188c <inst_248>:
    188c:	7c082507          	flw	fa0,1984(a6)
    1890:	7c482587          	flw	fa1,1988(a6)
    1894:	a0b51653          	flt.s	a2,fa0,fa1
    1898:	001028f3          	frflags	a7
    189c:	70c7ac23          	sw	a2,1816(a5)
    18a0:	7117ae23          	sw	a7,1820(a5)

000018a4 <inst_249>:
    18a4:	7c882507          	flw	fa0,1992(a6)
    18a8:	7cc82587          	flw	fa1,1996(a6)
    18ac:	a0b51653          	flt.s	a2,fa0,fa1
    18b0:	001028f3          	frflags	a7
    18b4:	72c7a023          	sw	a2,1824(a5)
    18b8:	7317a223          	sw	a7,1828(a5)

000018bc <inst_250>:
    18bc:	7d082507          	flw	fa0,2000(a6)
    18c0:	7d482587          	flw	fa1,2004(a6)
    18c4:	a0b51653          	flt.s	a2,fa0,fa1
    18c8:	001028f3          	frflags	a7
    18cc:	72c7a423          	sw	a2,1832(a5)
    18d0:	7317a623          	sw	a7,1836(a5)

000018d4 <inst_251>:
    18d4:	7d882507          	flw	fa0,2008(a6)
    18d8:	7dc82587          	flw	fa1,2012(a6)
    18dc:	a0b51653          	flt.s	a2,fa0,fa1
    18e0:	001028f3          	frflags	a7
    18e4:	72c7a823          	sw	a2,1840(a5)
    18e8:	7317aa23          	sw	a7,1844(a5)

000018ec <inst_252>:
    18ec:	7e082507          	flw	fa0,2016(a6)
    18f0:	7e482587          	flw	fa1,2020(a6)
    18f4:	a0b51653          	flt.s	a2,fa0,fa1
    18f8:	001028f3          	frflags	a7
    18fc:	72c7ac23          	sw	a2,1848(a5)
    1900:	7317ae23          	sw	a7,1852(a5)

00001904 <inst_253>:
    1904:	7e882507          	flw	fa0,2024(a6)
    1908:	7ec82587          	flw	fa1,2028(a6)
    190c:	a0b51653          	flt.s	a2,fa0,fa1
    1910:	001028f3          	frflags	a7
    1914:	74c7a023          	sw	a2,1856(a5)
    1918:	7517a223          	sw	a7,1860(a5)
    191c:	7f080813          	add	a6,a6,2032

00001920 <inst_254>:
    1920:	00082507          	flw	fa0,0(a6)
    1924:	00482587          	flw	fa1,4(a6)
    1928:	a0b51653          	flt.s	a2,fa0,fa1
    192c:	001028f3          	frflags	a7
    1930:	74c7a423          	sw	a2,1864(a5)
    1934:	7517a623          	sw	a7,1868(a5)

00001938 <inst_255>:
    1938:	00882507          	flw	fa0,8(a6)
    193c:	00c82587          	flw	fa1,12(a6)
    1940:	a0b51653          	flt.s	a2,fa0,fa1
    1944:	001028f3          	frflags	a7
    1948:	74c7a823          	sw	a2,1872(a5)
    194c:	7517aa23          	sw	a7,1876(a5)

00001950 <inst_256>:
    1950:	01082507          	flw	fa0,16(a6)
    1954:	01482587          	flw	fa1,20(a6)
    1958:	a0b51653          	flt.s	a2,fa0,fa1
    195c:	001028f3          	frflags	a7
    1960:	74c7ac23          	sw	a2,1880(a5)
    1964:	7517ae23          	sw	a7,1884(a5)

00001968 <inst_257>:
    1968:	01882507          	flw	fa0,24(a6)
    196c:	01c82587          	flw	fa1,28(a6)
    1970:	a0b51653          	flt.s	a2,fa0,fa1
    1974:	001028f3          	frflags	a7
    1978:	76c7a023          	sw	a2,1888(a5)
    197c:	7717a223          	sw	a7,1892(a5)

00001980 <inst_258>:
    1980:	02082507          	flw	fa0,32(a6)
    1984:	02482587          	flw	fa1,36(a6)
    1988:	a0b51653          	flt.s	a2,fa0,fa1
    198c:	001028f3          	frflags	a7
    1990:	76c7a423          	sw	a2,1896(a5)
    1994:	7717a623          	sw	a7,1900(a5)

00001998 <inst_259>:
    1998:	02882507          	flw	fa0,40(a6)
    199c:	02c82587          	flw	fa1,44(a6)
    19a0:	a0b51653          	flt.s	a2,fa0,fa1
    19a4:	001028f3          	frflags	a7
    19a8:	76c7a823          	sw	a2,1904(a5)
    19ac:	7717aa23          	sw	a7,1908(a5)

000019b0 <inst_260>:
    19b0:	03082507          	flw	fa0,48(a6)
    19b4:	03482587          	flw	fa1,52(a6)
    19b8:	a0b51653          	flt.s	a2,fa0,fa1
    19bc:	001028f3          	frflags	a7
    19c0:	76c7ac23          	sw	a2,1912(a5)
    19c4:	7717ae23          	sw	a7,1916(a5)

000019c8 <inst_261>:
    19c8:	03882507          	flw	fa0,56(a6)
    19cc:	03c82587          	flw	fa1,60(a6)
    19d0:	a0b51653          	flt.s	a2,fa0,fa1
    19d4:	001028f3          	frflags	a7
    19d8:	78c7a023          	sw	a2,1920(a5)
    19dc:	7917a223          	sw	a7,1924(a5)

000019e0 <inst_262>:
    19e0:	04082507          	flw	fa0,64(a6)
    19e4:	04482587          	flw	fa1,68(a6)
    19e8:	a0b51653          	flt.s	a2,fa0,fa1
    19ec:	001028f3          	frflags	a7
    19f0:	78c7a423          	sw	a2,1928(a5)
    19f4:	7917a623          	sw	a7,1932(a5)

000019f8 <inst_263>:
    19f8:	04882507          	flw	fa0,72(a6)
    19fc:	04c82587          	flw	fa1,76(a6)
    1a00:	a0b51653          	flt.s	a2,fa0,fa1
    1a04:	001028f3          	frflags	a7
    1a08:	78c7a823          	sw	a2,1936(a5)
    1a0c:	7917aa23          	sw	a7,1940(a5)

00001a10 <inst_264>:
    1a10:	05082507          	flw	fa0,80(a6)
    1a14:	05482587          	flw	fa1,84(a6)
    1a18:	a0b51653          	flt.s	a2,fa0,fa1
    1a1c:	001028f3          	frflags	a7
    1a20:	78c7ac23          	sw	a2,1944(a5)
    1a24:	7917ae23          	sw	a7,1948(a5)

00001a28 <inst_265>:
    1a28:	05882507          	flw	fa0,88(a6)
    1a2c:	05c82587          	flw	fa1,92(a6)
    1a30:	a0b51653          	flt.s	a2,fa0,fa1
    1a34:	001028f3          	frflags	a7
    1a38:	7ac7a023          	sw	a2,1952(a5)
    1a3c:	7b17a223          	sw	a7,1956(a5)

00001a40 <inst_266>:
    1a40:	06082507          	flw	fa0,96(a6)
    1a44:	06482587          	flw	fa1,100(a6)
    1a48:	a0b51653          	flt.s	a2,fa0,fa1
    1a4c:	001028f3          	frflags	a7
    1a50:	7ac7a423          	sw	a2,1960(a5)
    1a54:	7b17a623          	sw	a7,1964(a5)

00001a58 <inst_267>:
    1a58:	06882507          	flw	fa0,104(a6)
    1a5c:	06c82587          	flw	fa1,108(a6)
    1a60:	a0b51653          	flt.s	a2,fa0,fa1
    1a64:	001028f3          	frflags	a7
    1a68:	7ac7a823          	sw	a2,1968(a5)
    1a6c:	7b17aa23          	sw	a7,1972(a5)

00001a70 <inst_268>:
    1a70:	07082507          	flw	fa0,112(a6)
    1a74:	07482587          	flw	fa1,116(a6)
    1a78:	a0b51653          	flt.s	a2,fa0,fa1
    1a7c:	001028f3          	frflags	a7
    1a80:	7ac7ac23          	sw	a2,1976(a5)
    1a84:	7b17ae23          	sw	a7,1980(a5)

00001a88 <inst_269>:
    1a88:	07882507          	flw	fa0,120(a6)
    1a8c:	07c82587          	flw	fa1,124(a6)
    1a90:	a0b51653          	flt.s	a2,fa0,fa1
    1a94:	001028f3          	frflags	a7
    1a98:	7cc7a023          	sw	a2,1984(a5)
    1a9c:	7d17a223          	sw	a7,1988(a5)

00001aa0 <inst_270>:
    1aa0:	08082507          	flw	fa0,128(a6)
    1aa4:	08482587          	flw	fa1,132(a6)
    1aa8:	a0b51653          	flt.s	a2,fa0,fa1
    1aac:	001028f3          	frflags	a7
    1ab0:	7cc7a423          	sw	a2,1992(a5)
    1ab4:	7d17a623          	sw	a7,1996(a5)

00001ab8 <inst_271>:
    1ab8:	08882507          	flw	fa0,136(a6)
    1abc:	08c82587          	flw	fa1,140(a6)
    1ac0:	a0b51653          	flt.s	a2,fa0,fa1
    1ac4:	001028f3          	frflags	a7
    1ac8:	7cc7a823          	sw	a2,2000(a5)
    1acc:	7d17aa23          	sw	a7,2004(a5)

00001ad0 <inst_272>:
    1ad0:	09082507          	flw	fa0,144(a6)
    1ad4:	09482587          	flw	fa1,148(a6)
    1ad8:	a0b51653          	flt.s	a2,fa0,fa1
    1adc:	001028f3          	frflags	a7
    1ae0:	7cc7ac23          	sw	a2,2008(a5)
    1ae4:	7d17ae23          	sw	a7,2012(a5)

00001ae8 <inst_273>:
    1ae8:	09882507          	flw	fa0,152(a6)
    1aec:	09c82587          	flw	fa1,156(a6)
    1af0:	a0b51653          	flt.s	a2,fa0,fa1
    1af4:	001028f3          	frflags	a7
    1af8:	7ec7a023          	sw	a2,2016(a5)
    1afc:	7f17a223          	sw	a7,2020(a5)

00001b00 <inst_274>:
    1b00:	0a082507          	flw	fa0,160(a6)
    1b04:	0a482587          	flw	fa1,164(a6)
    1b08:	a0b51653          	flt.s	a2,fa0,fa1
    1b0c:	001028f3          	frflags	a7
    1b10:	7ec7a423          	sw	a2,2024(a5)
    1b14:	7f17a623          	sw	a7,2028(a5)
    1b18:	00007797          	auipc	a5,0x7
    1b1c:	c6078793          	add	a5,a5,-928 # 8778 <signature_x15_3>

00001b20 <inst_275>:
    1b20:	0a882507          	flw	fa0,168(a6)
    1b24:	0ac82587          	flw	fa1,172(a6)
    1b28:	a0b51653          	flt.s	a2,fa0,fa1
    1b2c:	001028f3          	frflags	a7
    1b30:	00c7a023          	sw	a2,0(a5)
    1b34:	0117a223          	sw	a7,4(a5)

00001b38 <inst_276>:
    1b38:	0b082507          	flw	fa0,176(a6)
    1b3c:	0b482587          	flw	fa1,180(a6)
    1b40:	a0b51653          	flt.s	a2,fa0,fa1
    1b44:	001028f3          	frflags	a7
    1b48:	00c7a423          	sw	a2,8(a5)
    1b4c:	0117a623          	sw	a7,12(a5)

00001b50 <inst_277>:
    1b50:	0b882507          	flw	fa0,184(a6)
    1b54:	0bc82587          	flw	fa1,188(a6)
    1b58:	a0b51653          	flt.s	a2,fa0,fa1
    1b5c:	001028f3          	frflags	a7
    1b60:	00c7a823          	sw	a2,16(a5)
    1b64:	0117aa23          	sw	a7,20(a5)

00001b68 <inst_278>:
    1b68:	0c082507          	flw	fa0,192(a6)
    1b6c:	0c482587          	flw	fa1,196(a6)
    1b70:	a0b51653          	flt.s	a2,fa0,fa1
    1b74:	001028f3          	frflags	a7
    1b78:	00c7ac23          	sw	a2,24(a5)
    1b7c:	0117ae23          	sw	a7,28(a5)

00001b80 <inst_279>:
    1b80:	0c882507          	flw	fa0,200(a6)
    1b84:	0cc82587          	flw	fa1,204(a6)
    1b88:	a0b51653          	flt.s	a2,fa0,fa1
    1b8c:	001028f3          	frflags	a7
    1b90:	02c7a023          	sw	a2,32(a5)
    1b94:	0317a223          	sw	a7,36(a5)

00001b98 <inst_280>:
    1b98:	0d082507          	flw	fa0,208(a6)
    1b9c:	0d482587          	flw	fa1,212(a6)
    1ba0:	a0b51653          	flt.s	a2,fa0,fa1
    1ba4:	001028f3          	frflags	a7
    1ba8:	02c7a423          	sw	a2,40(a5)
    1bac:	0317a623          	sw	a7,44(a5)

00001bb0 <inst_281>:
    1bb0:	0d882507          	flw	fa0,216(a6)
    1bb4:	0dc82587          	flw	fa1,220(a6)
    1bb8:	a0b51653          	flt.s	a2,fa0,fa1
    1bbc:	001028f3          	frflags	a7
    1bc0:	02c7a823          	sw	a2,48(a5)
    1bc4:	0317aa23          	sw	a7,52(a5)

00001bc8 <inst_282>:
    1bc8:	0e082507          	flw	fa0,224(a6)
    1bcc:	0e482587          	flw	fa1,228(a6)
    1bd0:	a0b51653          	flt.s	a2,fa0,fa1
    1bd4:	001028f3          	frflags	a7
    1bd8:	02c7ac23          	sw	a2,56(a5)
    1bdc:	0317ae23          	sw	a7,60(a5)

00001be0 <inst_283>:
    1be0:	0e882507          	flw	fa0,232(a6)
    1be4:	0ec82587          	flw	fa1,236(a6)
    1be8:	a0b51653          	flt.s	a2,fa0,fa1
    1bec:	001028f3          	frflags	a7
    1bf0:	04c7a023          	sw	a2,64(a5)
    1bf4:	0517a223          	sw	a7,68(a5)

00001bf8 <inst_284>:
    1bf8:	0f082507          	flw	fa0,240(a6)
    1bfc:	0f482587          	flw	fa1,244(a6)
    1c00:	a0b51653          	flt.s	a2,fa0,fa1
    1c04:	001028f3          	frflags	a7
    1c08:	04c7a423          	sw	a2,72(a5)
    1c0c:	0517a623          	sw	a7,76(a5)

00001c10 <inst_285>:
    1c10:	0f882507          	flw	fa0,248(a6)
    1c14:	0fc82587          	flw	fa1,252(a6)
    1c18:	a0b51653          	flt.s	a2,fa0,fa1
    1c1c:	001028f3          	frflags	a7
    1c20:	04c7a823          	sw	a2,80(a5)
    1c24:	0517aa23          	sw	a7,84(a5)

00001c28 <inst_286>:
    1c28:	10082507          	flw	fa0,256(a6)
    1c2c:	10482587          	flw	fa1,260(a6)
    1c30:	a0b51653          	flt.s	a2,fa0,fa1
    1c34:	001028f3          	frflags	a7
    1c38:	04c7ac23          	sw	a2,88(a5)
    1c3c:	0517ae23          	sw	a7,92(a5)

00001c40 <inst_287>:
    1c40:	10882507          	flw	fa0,264(a6)
    1c44:	10c82587          	flw	fa1,268(a6)
    1c48:	a0b51653          	flt.s	a2,fa0,fa1
    1c4c:	001028f3          	frflags	a7
    1c50:	06c7a023          	sw	a2,96(a5)
    1c54:	0717a223          	sw	a7,100(a5)

00001c58 <inst_288>:
    1c58:	11082507          	flw	fa0,272(a6)
    1c5c:	11482587          	flw	fa1,276(a6)
    1c60:	a0b51653          	flt.s	a2,fa0,fa1
    1c64:	001028f3          	frflags	a7
    1c68:	06c7a423          	sw	a2,104(a5)
    1c6c:	0717a623          	sw	a7,108(a5)

00001c70 <inst_289>:
    1c70:	11882507          	flw	fa0,280(a6)
    1c74:	11c82587          	flw	fa1,284(a6)
    1c78:	a0b51653          	flt.s	a2,fa0,fa1
    1c7c:	001028f3          	frflags	a7
    1c80:	06c7a823          	sw	a2,112(a5)
    1c84:	0717aa23          	sw	a7,116(a5)

00001c88 <inst_290>:
    1c88:	12082507          	flw	fa0,288(a6)
    1c8c:	12482587          	flw	fa1,292(a6)
    1c90:	a0b51653          	flt.s	a2,fa0,fa1
    1c94:	001028f3          	frflags	a7
    1c98:	06c7ac23          	sw	a2,120(a5)
    1c9c:	0717ae23          	sw	a7,124(a5)

00001ca0 <inst_291>:
    1ca0:	12882507          	flw	fa0,296(a6)
    1ca4:	12c82587          	flw	fa1,300(a6)
    1ca8:	a0b51653          	flt.s	a2,fa0,fa1
    1cac:	001028f3          	frflags	a7
    1cb0:	08c7a023          	sw	a2,128(a5)
    1cb4:	0917a223          	sw	a7,132(a5)

00001cb8 <inst_292>:
    1cb8:	13082507          	flw	fa0,304(a6)
    1cbc:	13482587          	flw	fa1,308(a6)
    1cc0:	a0b51653          	flt.s	a2,fa0,fa1
    1cc4:	001028f3          	frflags	a7
    1cc8:	08c7a423          	sw	a2,136(a5)
    1ccc:	0917a623          	sw	a7,140(a5)

00001cd0 <inst_293>:
    1cd0:	13882507          	flw	fa0,312(a6)
    1cd4:	13c82587          	flw	fa1,316(a6)
    1cd8:	a0b51653          	flt.s	a2,fa0,fa1
    1cdc:	001028f3          	frflags	a7
    1ce0:	08c7a823          	sw	a2,144(a5)
    1ce4:	0917aa23          	sw	a7,148(a5)

00001ce8 <inst_294>:
    1ce8:	14082507          	flw	fa0,320(a6)
    1cec:	14482587          	flw	fa1,324(a6)
    1cf0:	a0b51653          	flt.s	a2,fa0,fa1
    1cf4:	001028f3          	frflags	a7
    1cf8:	08c7ac23          	sw	a2,152(a5)
    1cfc:	0917ae23          	sw	a7,156(a5)

00001d00 <inst_295>:
    1d00:	14882507          	flw	fa0,328(a6)
    1d04:	14c82587          	flw	fa1,332(a6)
    1d08:	a0b51653          	flt.s	a2,fa0,fa1
    1d0c:	001028f3          	frflags	a7
    1d10:	0ac7a023          	sw	a2,160(a5)
    1d14:	0b17a223          	sw	a7,164(a5)

00001d18 <inst_296>:
    1d18:	15082507          	flw	fa0,336(a6)
    1d1c:	15482587          	flw	fa1,340(a6)
    1d20:	a0b51653          	flt.s	a2,fa0,fa1
    1d24:	001028f3          	frflags	a7
    1d28:	0ac7a423          	sw	a2,168(a5)
    1d2c:	0b17a623          	sw	a7,172(a5)

00001d30 <inst_297>:
    1d30:	15882507          	flw	fa0,344(a6)
    1d34:	15c82587          	flw	fa1,348(a6)
    1d38:	a0b51653          	flt.s	a2,fa0,fa1
    1d3c:	001028f3          	frflags	a7
    1d40:	0ac7a823          	sw	a2,176(a5)
    1d44:	0b17aa23          	sw	a7,180(a5)

00001d48 <inst_298>:
    1d48:	16082507          	flw	fa0,352(a6)
    1d4c:	16482587          	flw	fa1,356(a6)
    1d50:	a0b51653          	flt.s	a2,fa0,fa1
    1d54:	001028f3          	frflags	a7
    1d58:	0ac7ac23          	sw	a2,184(a5)
    1d5c:	0b17ae23          	sw	a7,188(a5)

00001d60 <inst_299>:
    1d60:	16882507          	flw	fa0,360(a6)
    1d64:	16c82587          	flw	fa1,364(a6)
    1d68:	a0b51653          	flt.s	a2,fa0,fa1
    1d6c:	001028f3          	frflags	a7
    1d70:	0cc7a023          	sw	a2,192(a5)
    1d74:	0d17a223          	sw	a7,196(a5)

00001d78 <inst_300>:
    1d78:	17082507          	flw	fa0,368(a6)
    1d7c:	17482587          	flw	fa1,372(a6)
    1d80:	a0b51653          	flt.s	a2,fa0,fa1
    1d84:	001028f3          	frflags	a7
    1d88:	0cc7a423          	sw	a2,200(a5)
    1d8c:	0d17a623          	sw	a7,204(a5)

00001d90 <inst_301>:
    1d90:	17882507          	flw	fa0,376(a6)
    1d94:	17c82587          	flw	fa1,380(a6)
    1d98:	a0b51653          	flt.s	a2,fa0,fa1
    1d9c:	001028f3          	frflags	a7
    1da0:	0cc7a823          	sw	a2,208(a5)
    1da4:	0d17aa23          	sw	a7,212(a5)

00001da8 <inst_302>:
    1da8:	18082507          	flw	fa0,384(a6)
    1dac:	18482587          	flw	fa1,388(a6)
    1db0:	a0b51653          	flt.s	a2,fa0,fa1
    1db4:	001028f3          	frflags	a7
    1db8:	0cc7ac23          	sw	a2,216(a5)
    1dbc:	0d17ae23          	sw	a7,220(a5)

00001dc0 <inst_303>:
    1dc0:	18882507          	flw	fa0,392(a6)
    1dc4:	18c82587          	flw	fa1,396(a6)
    1dc8:	a0b51653          	flt.s	a2,fa0,fa1
    1dcc:	001028f3          	frflags	a7
    1dd0:	0ec7a023          	sw	a2,224(a5)
    1dd4:	0f17a223          	sw	a7,228(a5)

00001dd8 <inst_304>:
    1dd8:	19082507          	flw	fa0,400(a6)
    1ddc:	19482587          	flw	fa1,404(a6)
    1de0:	a0b51653          	flt.s	a2,fa0,fa1
    1de4:	001028f3          	frflags	a7
    1de8:	0ec7a423          	sw	a2,232(a5)
    1dec:	0f17a623          	sw	a7,236(a5)

00001df0 <inst_305>:
    1df0:	19882507          	flw	fa0,408(a6)
    1df4:	19c82587          	flw	fa1,412(a6)
    1df8:	a0b51653          	flt.s	a2,fa0,fa1
    1dfc:	001028f3          	frflags	a7
    1e00:	0ec7a823          	sw	a2,240(a5)
    1e04:	0f17aa23          	sw	a7,244(a5)

00001e08 <inst_306>:
    1e08:	1a082507          	flw	fa0,416(a6)
    1e0c:	1a482587          	flw	fa1,420(a6)
    1e10:	a0b51653          	flt.s	a2,fa0,fa1
    1e14:	001028f3          	frflags	a7
    1e18:	0ec7ac23          	sw	a2,248(a5)
    1e1c:	0f17ae23          	sw	a7,252(a5)

00001e20 <inst_307>:
    1e20:	1a882507          	flw	fa0,424(a6)
    1e24:	1ac82587          	flw	fa1,428(a6)
    1e28:	a0b51653          	flt.s	a2,fa0,fa1
    1e2c:	001028f3          	frflags	a7
    1e30:	10c7a023          	sw	a2,256(a5)
    1e34:	1117a223          	sw	a7,260(a5)

00001e38 <inst_308>:
    1e38:	1b082507          	flw	fa0,432(a6)
    1e3c:	1b482587          	flw	fa1,436(a6)
    1e40:	a0b51653          	flt.s	a2,fa0,fa1
    1e44:	001028f3          	frflags	a7
    1e48:	10c7a423          	sw	a2,264(a5)
    1e4c:	1117a623          	sw	a7,268(a5)

00001e50 <inst_309>:
    1e50:	1b882507          	flw	fa0,440(a6)
    1e54:	1bc82587          	flw	fa1,444(a6)
    1e58:	a0b51653          	flt.s	a2,fa0,fa1
    1e5c:	001028f3          	frflags	a7
    1e60:	10c7a823          	sw	a2,272(a5)
    1e64:	1117aa23          	sw	a7,276(a5)

00001e68 <inst_310>:
    1e68:	1c082507          	flw	fa0,448(a6)
    1e6c:	1c482587          	flw	fa1,452(a6)
    1e70:	a0b51653          	flt.s	a2,fa0,fa1
    1e74:	001028f3          	frflags	a7
    1e78:	10c7ac23          	sw	a2,280(a5)
    1e7c:	1117ae23          	sw	a7,284(a5)

00001e80 <inst_311>:
    1e80:	1c882507          	flw	fa0,456(a6)
    1e84:	1cc82587          	flw	fa1,460(a6)
    1e88:	a0b51653          	flt.s	a2,fa0,fa1
    1e8c:	001028f3          	frflags	a7
    1e90:	12c7a023          	sw	a2,288(a5)
    1e94:	1317a223          	sw	a7,292(a5)

00001e98 <inst_312>:
    1e98:	1d082507          	flw	fa0,464(a6)
    1e9c:	1d482587          	flw	fa1,468(a6)
    1ea0:	a0b51653          	flt.s	a2,fa0,fa1
    1ea4:	001028f3          	frflags	a7
    1ea8:	12c7a423          	sw	a2,296(a5)
    1eac:	1317a623          	sw	a7,300(a5)

00001eb0 <inst_313>:
    1eb0:	1d882507          	flw	fa0,472(a6)
    1eb4:	1dc82587          	flw	fa1,476(a6)
    1eb8:	a0b51653          	flt.s	a2,fa0,fa1
    1ebc:	001028f3          	frflags	a7
    1ec0:	12c7a823          	sw	a2,304(a5)
    1ec4:	1317aa23          	sw	a7,308(a5)

00001ec8 <inst_314>:
    1ec8:	1e082507          	flw	fa0,480(a6)
    1ecc:	1e482587          	flw	fa1,484(a6)
    1ed0:	a0b51653          	flt.s	a2,fa0,fa1
    1ed4:	001028f3          	frflags	a7
    1ed8:	12c7ac23          	sw	a2,312(a5)
    1edc:	1317ae23          	sw	a7,316(a5)

00001ee0 <inst_315>:
    1ee0:	1e882507          	flw	fa0,488(a6)
    1ee4:	1ec82587          	flw	fa1,492(a6)
    1ee8:	a0b51653          	flt.s	a2,fa0,fa1
    1eec:	001028f3          	frflags	a7
    1ef0:	14c7a023          	sw	a2,320(a5)
    1ef4:	1517a223          	sw	a7,324(a5)

00001ef8 <inst_316>:
    1ef8:	1f082507          	flw	fa0,496(a6)
    1efc:	1f482587          	flw	fa1,500(a6)
    1f00:	a0b51653          	flt.s	a2,fa0,fa1
    1f04:	001028f3          	frflags	a7
    1f08:	14c7a423          	sw	a2,328(a5)
    1f0c:	1517a623          	sw	a7,332(a5)

00001f10 <inst_317>:
    1f10:	1f882507          	flw	fa0,504(a6)
    1f14:	1fc82587          	flw	fa1,508(a6)
    1f18:	a0b51653          	flt.s	a2,fa0,fa1
    1f1c:	001028f3          	frflags	a7
    1f20:	14c7a823          	sw	a2,336(a5)
    1f24:	1517aa23          	sw	a7,340(a5)

00001f28 <inst_318>:
    1f28:	20082507          	flw	fa0,512(a6)
    1f2c:	20482587          	flw	fa1,516(a6)
    1f30:	a0b51653          	flt.s	a2,fa0,fa1
    1f34:	001028f3          	frflags	a7
    1f38:	14c7ac23          	sw	a2,344(a5)
    1f3c:	1517ae23          	sw	a7,348(a5)

00001f40 <inst_319>:
    1f40:	20882507          	flw	fa0,520(a6)
    1f44:	20c82587          	flw	fa1,524(a6)
    1f48:	a0b51653          	flt.s	a2,fa0,fa1
    1f4c:	001028f3          	frflags	a7
    1f50:	16c7a023          	sw	a2,352(a5)
    1f54:	1717a223          	sw	a7,356(a5)

00001f58 <inst_320>:
    1f58:	21082507          	flw	fa0,528(a6)
    1f5c:	21482587          	flw	fa1,532(a6)
    1f60:	a0b51653          	flt.s	a2,fa0,fa1
    1f64:	001028f3          	frflags	a7
    1f68:	16c7a423          	sw	a2,360(a5)
    1f6c:	1717a623          	sw	a7,364(a5)

00001f70 <inst_321>:
    1f70:	21882507          	flw	fa0,536(a6)
    1f74:	21c82587          	flw	fa1,540(a6)
    1f78:	a0b51653          	flt.s	a2,fa0,fa1
    1f7c:	001028f3          	frflags	a7
    1f80:	16c7a823          	sw	a2,368(a5)
    1f84:	1717aa23          	sw	a7,372(a5)

00001f88 <inst_322>:
    1f88:	22082507          	flw	fa0,544(a6)
    1f8c:	22482587          	flw	fa1,548(a6)
    1f90:	a0b51653          	flt.s	a2,fa0,fa1
    1f94:	001028f3          	frflags	a7
    1f98:	16c7ac23          	sw	a2,376(a5)
    1f9c:	1717ae23          	sw	a7,380(a5)

00001fa0 <inst_323>:
    1fa0:	22882507          	flw	fa0,552(a6)
    1fa4:	22c82587          	flw	fa1,556(a6)
    1fa8:	a0b51653          	flt.s	a2,fa0,fa1
    1fac:	001028f3          	frflags	a7
    1fb0:	18c7a023          	sw	a2,384(a5)
    1fb4:	1917a223          	sw	a7,388(a5)

00001fb8 <inst_324>:
    1fb8:	23082507          	flw	fa0,560(a6)
    1fbc:	23482587          	flw	fa1,564(a6)
    1fc0:	a0b51653          	flt.s	a2,fa0,fa1
    1fc4:	001028f3          	frflags	a7
    1fc8:	18c7a423          	sw	a2,392(a5)
    1fcc:	1917a623          	sw	a7,396(a5)

00001fd0 <inst_325>:
    1fd0:	23882507          	flw	fa0,568(a6)
    1fd4:	23c82587          	flw	fa1,572(a6)
    1fd8:	a0b51653          	flt.s	a2,fa0,fa1
    1fdc:	001028f3          	frflags	a7
    1fe0:	18c7a823          	sw	a2,400(a5)
    1fe4:	1917aa23          	sw	a7,404(a5)

00001fe8 <inst_326>:
    1fe8:	24082507          	flw	fa0,576(a6)
    1fec:	24482587          	flw	fa1,580(a6)
    1ff0:	a0b51653          	flt.s	a2,fa0,fa1
    1ff4:	001028f3          	frflags	a7
    1ff8:	18c7ac23          	sw	a2,408(a5)
    1ffc:	1917ae23          	sw	a7,412(a5)

00002000 <inst_327>:
    2000:	24882507          	flw	fa0,584(a6)
    2004:	24c82587          	flw	fa1,588(a6)
    2008:	a0b51653          	flt.s	a2,fa0,fa1
    200c:	001028f3          	frflags	a7
    2010:	1ac7a023          	sw	a2,416(a5)
    2014:	1b17a223          	sw	a7,420(a5)

00002018 <inst_328>:
    2018:	25082507          	flw	fa0,592(a6)
    201c:	25482587          	flw	fa1,596(a6)
    2020:	a0b51653          	flt.s	a2,fa0,fa1
    2024:	001028f3          	frflags	a7
    2028:	1ac7a423          	sw	a2,424(a5)
    202c:	1b17a623          	sw	a7,428(a5)

00002030 <inst_329>:
    2030:	25882507          	flw	fa0,600(a6)
    2034:	25c82587          	flw	fa1,604(a6)
    2038:	a0b51653          	flt.s	a2,fa0,fa1
    203c:	001028f3          	frflags	a7
    2040:	1ac7a823          	sw	a2,432(a5)
    2044:	1b17aa23          	sw	a7,436(a5)

00002048 <inst_330>:
    2048:	26082507          	flw	fa0,608(a6)
    204c:	26482587          	flw	fa1,612(a6)
    2050:	a0b51653          	flt.s	a2,fa0,fa1
    2054:	001028f3          	frflags	a7
    2058:	1ac7ac23          	sw	a2,440(a5)
    205c:	1b17ae23          	sw	a7,444(a5)

00002060 <inst_331>:
    2060:	26882507          	flw	fa0,616(a6)
    2064:	26c82587          	flw	fa1,620(a6)
    2068:	a0b51653          	flt.s	a2,fa0,fa1
    206c:	001028f3          	frflags	a7
    2070:	1cc7a023          	sw	a2,448(a5)
    2074:	1d17a223          	sw	a7,452(a5)

00002078 <inst_332>:
    2078:	27082507          	flw	fa0,624(a6)
    207c:	27482587          	flw	fa1,628(a6)
    2080:	a0b51653          	flt.s	a2,fa0,fa1
    2084:	001028f3          	frflags	a7
    2088:	1cc7a423          	sw	a2,456(a5)
    208c:	1d17a623          	sw	a7,460(a5)

00002090 <inst_333>:
    2090:	27882507          	flw	fa0,632(a6)
    2094:	27c82587          	flw	fa1,636(a6)
    2098:	a0b51653          	flt.s	a2,fa0,fa1
    209c:	001028f3          	frflags	a7
    20a0:	1cc7a823          	sw	a2,464(a5)
    20a4:	1d17aa23          	sw	a7,468(a5)

000020a8 <inst_334>:
    20a8:	28082507          	flw	fa0,640(a6)
    20ac:	28482587          	flw	fa1,644(a6)
    20b0:	a0b51653          	flt.s	a2,fa0,fa1
    20b4:	001028f3          	frflags	a7
    20b8:	1cc7ac23          	sw	a2,472(a5)
    20bc:	1d17ae23          	sw	a7,476(a5)

000020c0 <inst_335>:
    20c0:	28882507          	flw	fa0,648(a6)
    20c4:	28c82587          	flw	fa1,652(a6)
    20c8:	a0b51653          	flt.s	a2,fa0,fa1
    20cc:	001028f3          	frflags	a7
    20d0:	1ec7a023          	sw	a2,480(a5)
    20d4:	1f17a223          	sw	a7,484(a5)

000020d8 <inst_336>:
    20d8:	29082507          	flw	fa0,656(a6)
    20dc:	29482587          	flw	fa1,660(a6)
    20e0:	a0b51653          	flt.s	a2,fa0,fa1
    20e4:	001028f3          	frflags	a7
    20e8:	1ec7a423          	sw	a2,488(a5)
    20ec:	1f17a623          	sw	a7,492(a5)

000020f0 <inst_337>:
    20f0:	29882507          	flw	fa0,664(a6)
    20f4:	29c82587          	flw	fa1,668(a6)
    20f8:	a0b51653          	flt.s	a2,fa0,fa1
    20fc:	001028f3          	frflags	a7
    2100:	1ec7a823          	sw	a2,496(a5)
    2104:	1f17aa23          	sw	a7,500(a5)

00002108 <inst_338>:
    2108:	2a082507          	flw	fa0,672(a6)
    210c:	2a482587          	flw	fa1,676(a6)
    2110:	a0b51653          	flt.s	a2,fa0,fa1
    2114:	001028f3          	frflags	a7
    2118:	1ec7ac23          	sw	a2,504(a5)
    211c:	1f17ae23          	sw	a7,508(a5)

00002120 <inst_339>:
    2120:	2a882507          	flw	fa0,680(a6)
    2124:	2ac82587          	flw	fa1,684(a6)
    2128:	a0b51653          	flt.s	a2,fa0,fa1
    212c:	001028f3          	frflags	a7
    2130:	20c7a023          	sw	a2,512(a5)
    2134:	2117a223          	sw	a7,516(a5)

00002138 <inst_340>:
    2138:	2b082507          	flw	fa0,688(a6)
    213c:	2b482587          	flw	fa1,692(a6)
    2140:	a0b51653          	flt.s	a2,fa0,fa1
    2144:	001028f3          	frflags	a7
    2148:	20c7a423          	sw	a2,520(a5)
    214c:	2117a623          	sw	a7,524(a5)

00002150 <inst_341>:
    2150:	2b882507          	flw	fa0,696(a6)
    2154:	2bc82587          	flw	fa1,700(a6)
    2158:	a0b51653          	flt.s	a2,fa0,fa1
    215c:	001028f3          	frflags	a7
    2160:	20c7a823          	sw	a2,528(a5)
    2164:	2117aa23          	sw	a7,532(a5)

00002168 <inst_342>:
    2168:	2c082507          	flw	fa0,704(a6)
    216c:	2c482587          	flw	fa1,708(a6)
    2170:	a0b51653          	flt.s	a2,fa0,fa1
    2174:	001028f3          	frflags	a7
    2178:	20c7ac23          	sw	a2,536(a5)
    217c:	2117ae23          	sw	a7,540(a5)

00002180 <inst_343>:
    2180:	2c882507          	flw	fa0,712(a6)
    2184:	2cc82587          	flw	fa1,716(a6)
    2188:	a0b51653          	flt.s	a2,fa0,fa1
    218c:	001028f3          	frflags	a7
    2190:	22c7a023          	sw	a2,544(a5)
    2194:	2317a223          	sw	a7,548(a5)

00002198 <inst_344>:
    2198:	2d082507          	flw	fa0,720(a6)
    219c:	2d482587          	flw	fa1,724(a6)
    21a0:	a0b51653          	flt.s	a2,fa0,fa1
    21a4:	001028f3          	frflags	a7
    21a8:	22c7a423          	sw	a2,552(a5)
    21ac:	2317a623          	sw	a7,556(a5)

000021b0 <inst_345>:
    21b0:	2d882507          	flw	fa0,728(a6)
    21b4:	2dc82587          	flw	fa1,732(a6)
    21b8:	a0b51653          	flt.s	a2,fa0,fa1
    21bc:	001028f3          	frflags	a7
    21c0:	22c7a823          	sw	a2,560(a5)
    21c4:	2317aa23          	sw	a7,564(a5)

000021c8 <inst_346>:
    21c8:	2e082507          	flw	fa0,736(a6)
    21cc:	2e482587          	flw	fa1,740(a6)
    21d0:	a0b51653          	flt.s	a2,fa0,fa1
    21d4:	001028f3          	frflags	a7
    21d8:	22c7ac23          	sw	a2,568(a5)
    21dc:	2317ae23          	sw	a7,572(a5)

000021e0 <inst_347>:
    21e0:	2e882507          	flw	fa0,744(a6)
    21e4:	2ec82587          	flw	fa1,748(a6)
    21e8:	a0b51653          	flt.s	a2,fa0,fa1
    21ec:	001028f3          	frflags	a7
    21f0:	24c7a023          	sw	a2,576(a5)
    21f4:	2517a223          	sw	a7,580(a5)

000021f8 <inst_348>:
    21f8:	2f082507          	flw	fa0,752(a6)
    21fc:	2f482587          	flw	fa1,756(a6)
    2200:	a0b51653          	flt.s	a2,fa0,fa1
    2204:	001028f3          	frflags	a7
    2208:	24c7a423          	sw	a2,584(a5)
    220c:	2517a623          	sw	a7,588(a5)

00002210 <inst_349>:
    2210:	2f882507          	flw	fa0,760(a6)
    2214:	2fc82587          	flw	fa1,764(a6)
    2218:	a0b51653          	flt.s	a2,fa0,fa1
    221c:	001028f3          	frflags	a7
    2220:	24c7a823          	sw	a2,592(a5)
    2224:	2517aa23          	sw	a7,596(a5)

00002228 <inst_350>:
    2228:	30082507          	flw	fa0,768(a6)
    222c:	30482587          	flw	fa1,772(a6)
    2230:	a0b51653          	flt.s	a2,fa0,fa1
    2234:	001028f3          	frflags	a7
    2238:	24c7ac23          	sw	a2,600(a5)
    223c:	2517ae23          	sw	a7,604(a5)

00002240 <inst_351>:
    2240:	30882507          	flw	fa0,776(a6)
    2244:	30c82587          	flw	fa1,780(a6)
    2248:	a0b51653          	flt.s	a2,fa0,fa1
    224c:	001028f3          	frflags	a7
    2250:	26c7a023          	sw	a2,608(a5)
    2254:	2717a223          	sw	a7,612(a5)

00002258 <inst_352>:
    2258:	31082507          	flw	fa0,784(a6)
    225c:	31482587          	flw	fa1,788(a6)
    2260:	a0b51653          	flt.s	a2,fa0,fa1
    2264:	001028f3          	frflags	a7
    2268:	26c7a423          	sw	a2,616(a5)
    226c:	2717a623          	sw	a7,620(a5)

00002270 <inst_353>:
    2270:	31882507          	flw	fa0,792(a6)
    2274:	31c82587          	flw	fa1,796(a6)
    2278:	a0b51653          	flt.s	a2,fa0,fa1
    227c:	001028f3          	frflags	a7
    2280:	26c7a823          	sw	a2,624(a5)
    2284:	2717aa23          	sw	a7,628(a5)

00002288 <inst_354>:
    2288:	32082507          	flw	fa0,800(a6)
    228c:	32482587          	flw	fa1,804(a6)
    2290:	a0b51653          	flt.s	a2,fa0,fa1
    2294:	001028f3          	frflags	a7
    2298:	26c7ac23          	sw	a2,632(a5)
    229c:	2717ae23          	sw	a7,636(a5)

000022a0 <inst_355>:
    22a0:	32882507          	flw	fa0,808(a6)
    22a4:	32c82587          	flw	fa1,812(a6)
    22a8:	a0b51653          	flt.s	a2,fa0,fa1
    22ac:	001028f3          	frflags	a7
    22b0:	28c7a023          	sw	a2,640(a5)
    22b4:	2917a223          	sw	a7,644(a5)

000022b8 <inst_356>:
    22b8:	33082507          	flw	fa0,816(a6)
    22bc:	33482587          	flw	fa1,820(a6)
    22c0:	a0b51653          	flt.s	a2,fa0,fa1
    22c4:	001028f3          	frflags	a7
    22c8:	28c7a423          	sw	a2,648(a5)
    22cc:	2917a623          	sw	a7,652(a5)

000022d0 <inst_357>:
    22d0:	33882507          	flw	fa0,824(a6)
    22d4:	33c82587          	flw	fa1,828(a6)
    22d8:	a0b51653          	flt.s	a2,fa0,fa1
    22dc:	001028f3          	frflags	a7
    22e0:	28c7a823          	sw	a2,656(a5)
    22e4:	2917aa23          	sw	a7,660(a5)

000022e8 <inst_358>:
    22e8:	34082507          	flw	fa0,832(a6)
    22ec:	34482587          	flw	fa1,836(a6)
    22f0:	a0b51653          	flt.s	a2,fa0,fa1
    22f4:	001028f3          	frflags	a7
    22f8:	28c7ac23          	sw	a2,664(a5)
    22fc:	2917ae23          	sw	a7,668(a5)

00002300 <inst_359>:
    2300:	34882507          	flw	fa0,840(a6)
    2304:	34c82587          	flw	fa1,844(a6)
    2308:	a0b51653          	flt.s	a2,fa0,fa1
    230c:	001028f3          	frflags	a7
    2310:	2ac7a023          	sw	a2,672(a5)
    2314:	2b17a223          	sw	a7,676(a5)

00002318 <inst_360>:
    2318:	35082507          	flw	fa0,848(a6)
    231c:	35482587          	flw	fa1,852(a6)
    2320:	a0b51653          	flt.s	a2,fa0,fa1
    2324:	001028f3          	frflags	a7
    2328:	2ac7a423          	sw	a2,680(a5)
    232c:	2b17a623          	sw	a7,684(a5)

00002330 <inst_361>:
    2330:	35882507          	flw	fa0,856(a6)
    2334:	35c82587          	flw	fa1,860(a6)
    2338:	a0b51653          	flt.s	a2,fa0,fa1
    233c:	001028f3          	frflags	a7
    2340:	2ac7a823          	sw	a2,688(a5)
    2344:	2b17aa23          	sw	a7,692(a5)

00002348 <inst_362>:
    2348:	36082507          	flw	fa0,864(a6)
    234c:	36482587          	flw	fa1,868(a6)
    2350:	a0b51653          	flt.s	a2,fa0,fa1
    2354:	001028f3          	frflags	a7
    2358:	2ac7ac23          	sw	a2,696(a5)
    235c:	2b17ae23          	sw	a7,700(a5)

00002360 <inst_363>:
    2360:	36882507          	flw	fa0,872(a6)
    2364:	36c82587          	flw	fa1,876(a6)
    2368:	a0b51653          	flt.s	a2,fa0,fa1
    236c:	001028f3          	frflags	a7
    2370:	2cc7a023          	sw	a2,704(a5)
    2374:	2d17a223          	sw	a7,708(a5)

00002378 <inst_364>:
    2378:	37082507          	flw	fa0,880(a6)
    237c:	37482587          	flw	fa1,884(a6)
    2380:	a0b51653          	flt.s	a2,fa0,fa1
    2384:	001028f3          	frflags	a7
    2388:	2cc7a423          	sw	a2,712(a5)
    238c:	2d17a623          	sw	a7,716(a5)

00002390 <inst_365>:
    2390:	37882507          	flw	fa0,888(a6)
    2394:	37c82587          	flw	fa1,892(a6)
    2398:	a0b51653          	flt.s	a2,fa0,fa1
    239c:	001028f3          	frflags	a7
    23a0:	2cc7a823          	sw	a2,720(a5)
    23a4:	2d17aa23          	sw	a7,724(a5)

000023a8 <inst_366>:
    23a8:	38082507          	flw	fa0,896(a6)
    23ac:	38482587          	flw	fa1,900(a6)
    23b0:	a0b51653          	flt.s	a2,fa0,fa1
    23b4:	001028f3          	frflags	a7
    23b8:	2cc7ac23          	sw	a2,728(a5)
    23bc:	2d17ae23          	sw	a7,732(a5)

000023c0 <inst_367>:
    23c0:	38882507          	flw	fa0,904(a6)
    23c4:	38c82587          	flw	fa1,908(a6)
    23c8:	a0b51653          	flt.s	a2,fa0,fa1
    23cc:	001028f3          	frflags	a7
    23d0:	2ec7a023          	sw	a2,736(a5)
    23d4:	2f17a223          	sw	a7,740(a5)

000023d8 <inst_368>:
    23d8:	39082507          	flw	fa0,912(a6)
    23dc:	39482587          	flw	fa1,916(a6)
    23e0:	a0b51653          	flt.s	a2,fa0,fa1
    23e4:	001028f3          	frflags	a7
    23e8:	2ec7a423          	sw	a2,744(a5)
    23ec:	2f17a623          	sw	a7,748(a5)

000023f0 <inst_369>:
    23f0:	39882507          	flw	fa0,920(a6)
    23f4:	39c82587          	flw	fa1,924(a6)
    23f8:	a0b51653          	flt.s	a2,fa0,fa1
    23fc:	001028f3          	frflags	a7
    2400:	2ec7a823          	sw	a2,752(a5)
    2404:	2f17aa23          	sw	a7,756(a5)

00002408 <inst_370>:
    2408:	3a082507          	flw	fa0,928(a6)
    240c:	3a482587          	flw	fa1,932(a6)
    2410:	a0b51653          	flt.s	a2,fa0,fa1
    2414:	001028f3          	frflags	a7
    2418:	2ec7ac23          	sw	a2,760(a5)
    241c:	2f17ae23          	sw	a7,764(a5)

00002420 <inst_371>:
    2420:	3a882507          	flw	fa0,936(a6)
    2424:	3ac82587          	flw	fa1,940(a6)
    2428:	a0b51653          	flt.s	a2,fa0,fa1
    242c:	001028f3          	frflags	a7
    2430:	30c7a023          	sw	a2,768(a5)
    2434:	3117a223          	sw	a7,772(a5)

00002438 <inst_372>:
    2438:	3b082507          	flw	fa0,944(a6)
    243c:	3b482587          	flw	fa1,948(a6)
    2440:	a0b51653          	flt.s	a2,fa0,fa1
    2444:	001028f3          	frflags	a7
    2448:	30c7a423          	sw	a2,776(a5)
    244c:	3117a623          	sw	a7,780(a5)

00002450 <inst_373>:
    2450:	3b882507          	flw	fa0,952(a6)
    2454:	3bc82587          	flw	fa1,956(a6)
    2458:	a0b51653          	flt.s	a2,fa0,fa1
    245c:	001028f3          	frflags	a7
    2460:	30c7a823          	sw	a2,784(a5)
    2464:	3117aa23          	sw	a7,788(a5)

00002468 <inst_374>:
    2468:	3c082507          	flw	fa0,960(a6)
    246c:	3c482587          	flw	fa1,964(a6)
    2470:	a0b51653          	flt.s	a2,fa0,fa1
    2474:	001028f3          	frflags	a7
    2478:	30c7ac23          	sw	a2,792(a5)
    247c:	3117ae23          	sw	a7,796(a5)

00002480 <inst_375>:
    2480:	3c882507          	flw	fa0,968(a6)
    2484:	3cc82587          	flw	fa1,972(a6)
    2488:	a0b51653          	flt.s	a2,fa0,fa1
    248c:	001028f3          	frflags	a7
    2490:	32c7a023          	sw	a2,800(a5)
    2494:	3317a223          	sw	a7,804(a5)

00002498 <inst_376>:
    2498:	3d082507          	flw	fa0,976(a6)
    249c:	3d482587          	flw	fa1,980(a6)
    24a0:	a0b51653          	flt.s	a2,fa0,fa1
    24a4:	001028f3          	frflags	a7
    24a8:	32c7a423          	sw	a2,808(a5)
    24ac:	3317a623          	sw	a7,812(a5)

000024b0 <inst_377>:
    24b0:	3d882507          	flw	fa0,984(a6)
    24b4:	3dc82587          	flw	fa1,988(a6)
    24b8:	a0b51653          	flt.s	a2,fa0,fa1
    24bc:	001028f3          	frflags	a7
    24c0:	32c7a823          	sw	a2,816(a5)
    24c4:	3317aa23          	sw	a7,820(a5)

000024c8 <inst_378>:
    24c8:	3e082507          	flw	fa0,992(a6)
    24cc:	3e482587          	flw	fa1,996(a6)
    24d0:	a0b51653          	flt.s	a2,fa0,fa1
    24d4:	001028f3          	frflags	a7
    24d8:	32c7ac23          	sw	a2,824(a5)
    24dc:	3317ae23          	sw	a7,828(a5)

000024e0 <inst_379>:
    24e0:	3e882507          	flw	fa0,1000(a6)
    24e4:	3ec82587          	flw	fa1,1004(a6)
    24e8:	a0b51653          	flt.s	a2,fa0,fa1
    24ec:	001028f3          	frflags	a7
    24f0:	34c7a023          	sw	a2,832(a5)
    24f4:	3517a223          	sw	a7,836(a5)

000024f8 <inst_380>:
    24f8:	3f082507          	flw	fa0,1008(a6)
    24fc:	3f482587          	flw	fa1,1012(a6)
    2500:	a0b51653          	flt.s	a2,fa0,fa1
    2504:	001028f3          	frflags	a7
    2508:	34c7a423          	sw	a2,840(a5)
    250c:	3517a623          	sw	a7,844(a5)

00002510 <inst_381>:
    2510:	3f882507          	flw	fa0,1016(a6)
    2514:	3fc82587          	flw	fa1,1020(a6)
    2518:	a0b51653          	flt.s	a2,fa0,fa1
    251c:	001028f3          	frflags	a7
    2520:	34c7a823          	sw	a2,848(a5)
    2524:	3517aa23          	sw	a7,852(a5)

00002528 <inst_382>:
    2528:	40082507          	flw	fa0,1024(a6)
    252c:	40482587          	flw	fa1,1028(a6)
    2530:	a0b51653          	flt.s	a2,fa0,fa1
    2534:	001028f3          	frflags	a7
    2538:	34c7ac23          	sw	a2,856(a5)
    253c:	3517ae23          	sw	a7,860(a5)

00002540 <inst_383>:
    2540:	40882507          	flw	fa0,1032(a6)
    2544:	40c82587          	flw	fa1,1036(a6)
    2548:	a0b51653          	flt.s	a2,fa0,fa1
    254c:	001028f3          	frflags	a7
    2550:	36c7a023          	sw	a2,864(a5)
    2554:	3717a223          	sw	a7,868(a5)

00002558 <inst_384>:
    2558:	41082507          	flw	fa0,1040(a6)
    255c:	41482587          	flw	fa1,1044(a6)
    2560:	a0b51653          	flt.s	a2,fa0,fa1
    2564:	001028f3          	frflags	a7
    2568:	36c7a423          	sw	a2,872(a5)
    256c:	3717a623          	sw	a7,876(a5)

00002570 <inst_385>:
    2570:	41882507          	flw	fa0,1048(a6)
    2574:	41c82587          	flw	fa1,1052(a6)
    2578:	a0b51653          	flt.s	a2,fa0,fa1
    257c:	001028f3          	frflags	a7
    2580:	36c7a823          	sw	a2,880(a5)
    2584:	3717aa23          	sw	a7,884(a5)

00002588 <inst_386>:
    2588:	42082507          	flw	fa0,1056(a6)
    258c:	42482587          	flw	fa1,1060(a6)
    2590:	a0b51653          	flt.s	a2,fa0,fa1
    2594:	001028f3          	frflags	a7
    2598:	36c7ac23          	sw	a2,888(a5)
    259c:	3717ae23          	sw	a7,892(a5)

000025a0 <inst_387>:
    25a0:	42882507          	flw	fa0,1064(a6)
    25a4:	42c82587          	flw	fa1,1068(a6)
    25a8:	a0b51653          	flt.s	a2,fa0,fa1
    25ac:	001028f3          	frflags	a7
    25b0:	38c7a023          	sw	a2,896(a5)
    25b4:	3917a223          	sw	a7,900(a5)

000025b8 <inst_388>:
    25b8:	43082507          	flw	fa0,1072(a6)
    25bc:	43482587          	flw	fa1,1076(a6)
    25c0:	a0b51653          	flt.s	a2,fa0,fa1
    25c4:	001028f3          	frflags	a7
    25c8:	38c7a423          	sw	a2,904(a5)
    25cc:	3917a623          	sw	a7,908(a5)

000025d0 <inst_389>:
    25d0:	43882507          	flw	fa0,1080(a6)
    25d4:	43c82587          	flw	fa1,1084(a6)
    25d8:	a0b51653          	flt.s	a2,fa0,fa1
    25dc:	001028f3          	frflags	a7
    25e0:	38c7a823          	sw	a2,912(a5)
    25e4:	3917aa23          	sw	a7,916(a5)

000025e8 <inst_390>:
    25e8:	44082507          	flw	fa0,1088(a6)
    25ec:	44482587          	flw	fa1,1092(a6)
    25f0:	a0b51653          	flt.s	a2,fa0,fa1
    25f4:	001028f3          	frflags	a7
    25f8:	38c7ac23          	sw	a2,920(a5)
    25fc:	3917ae23          	sw	a7,924(a5)

00002600 <inst_391>:
    2600:	44882507          	flw	fa0,1096(a6)
    2604:	44c82587          	flw	fa1,1100(a6)
    2608:	a0b51653          	flt.s	a2,fa0,fa1
    260c:	001028f3          	frflags	a7
    2610:	3ac7a023          	sw	a2,928(a5)
    2614:	3b17a223          	sw	a7,932(a5)

00002618 <inst_392>:
    2618:	45082507          	flw	fa0,1104(a6)
    261c:	45482587          	flw	fa1,1108(a6)
    2620:	a0b51653          	flt.s	a2,fa0,fa1
    2624:	001028f3          	frflags	a7
    2628:	3ac7a423          	sw	a2,936(a5)
    262c:	3b17a623          	sw	a7,940(a5)

00002630 <inst_393>:
    2630:	45882507          	flw	fa0,1112(a6)
    2634:	45c82587          	flw	fa1,1116(a6)
    2638:	a0b51653          	flt.s	a2,fa0,fa1
    263c:	001028f3          	frflags	a7
    2640:	3ac7a823          	sw	a2,944(a5)
    2644:	3b17aa23          	sw	a7,948(a5)

00002648 <inst_394>:
    2648:	46082507          	flw	fa0,1120(a6)
    264c:	46482587          	flw	fa1,1124(a6)
    2650:	a0b51653          	flt.s	a2,fa0,fa1
    2654:	001028f3          	frflags	a7
    2658:	3ac7ac23          	sw	a2,952(a5)
    265c:	3b17ae23          	sw	a7,956(a5)

00002660 <inst_395>:
    2660:	46882507          	flw	fa0,1128(a6)
    2664:	46c82587          	flw	fa1,1132(a6)
    2668:	a0b51653          	flt.s	a2,fa0,fa1
    266c:	001028f3          	frflags	a7
    2670:	3cc7a023          	sw	a2,960(a5)
    2674:	3d17a223          	sw	a7,964(a5)

00002678 <inst_396>:
    2678:	47082507          	flw	fa0,1136(a6)
    267c:	47482587          	flw	fa1,1140(a6)
    2680:	a0b51653          	flt.s	a2,fa0,fa1
    2684:	001028f3          	frflags	a7
    2688:	3cc7a423          	sw	a2,968(a5)
    268c:	3d17a623          	sw	a7,972(a5)

00002690 <inst_397>:
    2690:	47882507          	flw	fa0,1144(a6)
    2694:	47c82587          	flw	fa1,1148(a6)
    2698:	a0b51653          	flt.s	a2,fa0,fa1
    269c:	001028f3          	frflags	a7
    26a0:	3cc7a823          	sw	a2,976(a5)
    26a4:	3d17aa23          	sw	a7,980(a5)

000026a8 <inst_398>:
    26a8:	48082507          	flw	fa0,1152(a6)
    26ac:	48482587          	flw	fa1,1156(a6)
    26b0:	a0b51653          	flt.s	a2,fa0,fa1
    26b4:	001028f3          	frflags	a7
    26b8:	3cc7ac23          	sw	a2,984(a5)
    26bc:	3d17ae23          	sw	a7,988(a5)

000026c0 <inst_399>:
    26c0:	48882507          	flw	fa0,1160(a6)
    26c4:	48c82587          	flw	fa1,1164(a6)
    26c8:	a0b51653          	flt.s	a2,fa0,fa1
    26cc:	001028f3          	frflags	a7
    26d0:	3ec7a023          	sw	a2,992(a5)
    26d4:	3f17a223          	sw	a7,996(a5)

000026d8 <inst_400>:
    26d8:	49082507          	flw	fa0,1168(a6)
    26dc:	49482587          	flw	fa1,1172(a6)
    26e0:	a0b51653          	flt.s	a2,fa0,fa1
    26e4:	001028f3          	frflags	a7
    26e8:	3ec7a423          	sw	a2,1000(a5)
    26ec:	3f17a623          	sw	a7,1004(a5)

000026f0 <inst_401>:
    26f0:	49882507          	flw	fa0,1176(a6)
    26f4:	49c82587          	flw	fa1,1180(a6)
    26f8:	a0b51653          	flt.s	a2,fa0,fa1
    26fc:	001028f3          	frflags	a7
    2700:	3ec7a823          	sw	a2,1008(a5)
    2704:	3f17aa23          	sw	a7,1012(a5)

00002708 <inst_402>:
    2708:	4a082507          	flw	fa0,1184(a6)
    270c:	4a482587          	flw	fa1,1188(a6)
    2710:	a0b51653          	flt.s	a2,fa0,fa1
    2714:	001028f3          	frflags	a7
    2718:	3ec7ac23          	sw	a2,1016(a5)
    271c:	3f17ae23          	sw	a7,1020(a5)

00002720 <inst_403>:
    2720:	4a882507          	flw	fa0,1192(a6)
    2724:	4ac82587          	flw	fa1,1196(a6)
    2728:	a0b51653          	flt.s	a2,fa0,fa1
    272c:	001028f3          	frflags	a7
    2730:	40c7a023          	sw	a2,1024(a5)
    2734:	4117a223          	sw	a7,1028(a5)

00002738 <inst_404>:
    2738:	4b082507          	flw	fa0,1200(a6)
    273c:	4b482587          	flw	fa1,1204(a6)
    2740:	a0b51653          	flt.s	a2,fa0,fa1
    2744:	001028f3          	frflags	a7
    2748:	40c7a423          	sw	a2,1032(a5)
    274c:	4117a623          	sw	a7,1036(a5)

00002750 <inst_405>:
    2750:	4b882507          	flw	fa0,1208(a6)
    2754:	4bc82587          	flw	fa1,1212(a6)
    2758:	a0b51653          	flt.s	a2,fa0,fa1
    275c:	001028f3          	frflags	a7
    2760:	40c7a823          	sw	a2,1040(a5)
    2764:	4117aa23          	sw	a7,1044(a5)

00002768 <inst_406>:
    2768:	4c082507          	flw	fa0,1216(a6)
    276c:	4c482587          	flw	fa1,1220(a6)
    2770:	a0b51653          	flt.s	a2,fa0,fa1
    2774:	001028f3          	frflags	a7
    2778:	40c7ac23          	sw	a2,1048(a5)
    277c:	4117ae23          	sw	a7,1052(a5)

00002780 <inst_407>:
    2780:	4c882507          	flw	fa0,1224(a6)
    2784:	4cc82587          	flw	fa1,1228(a6)
    2788:	a0b51653          	flt.s	a2,fa0,fa1
    278c:	001028f3          	frflags	a7
    2790:	42c7a023          	sw	a2,1056(a5)
    2794:	4317a223          	sw	a7,1060(a5)

00002798 <inst_408>:
    2798:	4d082507          	flw	fa0,1232(a6)
    279c:	4d482587          	flw	fa1,1236(a6)
    27a0:	a0b51653          	flt.s	a2,fa0,fa1
    27a4:	001028f3          	frflags	a7
    27a8:	42c7a423          	sw	a2,1064(a5)
    27ac:	4317a623          	sw	a7,1068(a5)

000027b0 <inst_409>:
    27b0:	4d882507          	flw	fa0,1240(a6)
    27b4:	4dc82587          	flw	fa1,1244(a6)
    27b8:	a0b51653          	flt.s	a2,fa0,fa1
    27bc:	001028f3          	frflags	a7
    27c0:	42c7a823          	sw	a2,1072(a5)
    27c4:	4317aa23          	sw	a7,1076(a5)

000027c8 <inst_410>:
    27c8:	4e082507          	flw	fa0,1248(a6)
    27cc:	4e482587          	flw	fa1,1252(a6)
    27d0:	a0b51653          	flt.s	a2,fa0,fa1
    27d4:	001028f3          	frflags	a7
    27d8:	42c7ac23          	sw	a2,1080(a5)
    27dc:	4317ae23          	sw	a7,1084(a5)

000027e0 <inst_411>:
    27e0:	4e882507          	flw	fa0,1256(a6)
    27e4:	4ec82587          	flw	fa1,1260(a6)
    27e8:	a0b51653          	flt.s	a2,fa0,fa1
    27ec:	001028f3          	frflags	a7
    27f0:	44c7a023          	sw	a2,1088(a5)
    27f4:	4517a223          	sw	a7,1092(a5)

000027f8 <inst_412>:
    27f8:	4f082507          	flw	fa0,1264(a6)
    27fc:	4f482587          	flw	fa1,1268(a6)
    2800:	a0b51653          	flt.s	a2,fa0,fa1
    2804:	001028f3          	frflags	a7
    2808:	44c7a423          	sw	a2,1096(a5)
    280c:	4517a623          	sw	a7,1100(a5)

00002810 <inst_413>:
    2810:	4f882507          	flw	fa0,1272(a6)
    2814:	4fc82587          	flw	fa1,1276(a6)
    2818:	a0b51653          	flt.s	a2,fa0,fa1
    281c:	001028f3          	frflags	a7
    2820:	44c7a823          	sw	a2,1104(a5)
    2824:	4517aa23          	sw	a7,1108(a5)

00002828 <inst_414>:
    2828:	50082507          	flw	fa0,1280(a6)
    282c:	50482587          	flw	fa1,1284(a6)
    2830:	a0b51653          	flt.s	a2,fa0,fa1
    2834:	001028f3          	frflags	a7
    2838:	44c7ac23          	sw	a2,1112(a5)
    283c:	4517ae23          	sw	a7,1116(a5)

00002840 <inst_415>:
    2840:	50882507          	flw	fa0,1288(a6)
    2844:	50c82587          	flw	fa1,1292(a6)
    2848:	a0b51653          	flt.s	a2,fa0,fa1
    284c:	001028f3          	frflags	a7
    2850:	46c7a023          	sw	a2,1120(a5)
    2854:	4717a223          	sw	a7,1124(a5)

00002858 <inst_416>:
    2858:	51082507          	flw	fa0,1296(a6)
    285c:	51482587          	flw	fa1,1300(a6)
    2860:	a0b51653          	flt.s	a2,fa0,fa1
    2864:	001028f3          	frflags	a7
    2868:	46c7a423          	sw	a2,1128(a5)
    286c:	4717a623          	sw	a7,1132(a5)

00002870 <inst_417>:
    2870:	51882507          	flw	fa0,1304(a6)
    2874:	51c82587          	flw	fa1,1308(a6)
    2878:	a0b51653          	flt.s	a2,fa0,fa1
    287c:	001028f3          	frflags	a7
    2880:	46c7a823          	sw	a2,1136(a5)
    2884:	4717aa23          	sw	a7,1140(a5)

00002888 <inst_418>:
    2888:	52082507          	flw	fa0,1312(a6)
    288c:	52482587          	flw	fa1,1316(a6)
    2890:	a0b51653          	flt.s	a2,fa0,fa1
    2894:	001028f3          	frflags	a7
    2898:	46c7ac23          	sw	a2,1144(a5)
    289c:	4717ae23          	sw	a7,1148(a5)

000028a0 <inst_419>:
    28a0:	52882507          	flw	fa0,1320(a6)
    28a4:	52c82587          	flw	fa1,1324(a6)
    28a8:	a0b51653          	flt.s	a2,fa0,fa1
    28ac:	001028f3          	frflags	a7
    28b0:	48c7a023          	sw	a2,1152(a5)
    28b4:	4917a223          	sw	a7,1156(a5)

000028b8 <inst_420>:
    28b8:	53082507          	flw	fa0,1328(a6)
    28bc:	53482587          	flw	fa1,1332(a6)
    28c0:	a0b51653          	flt.s	a2,fa0,fa1
    28c4:	001028f3          	frflags	a7
    28c8:	48c7a423          	sw	a2,1160(a5)
    28cc:	4917a623          	sw	a7,1164(a5)

000028d0 <inst_421>:
    28d0:	53882507          	flw	fa0,1336(a6)
    28d4:	53c82587          	flw	fa1,1340(a6)
    28d8:	a0b51653          	flt.s	a2,fa0,fa1
    28dc:	001028f3          	frflags	a7
    28e0:	48c7a823          	sw	a2,1168(a5)
    28e4:	4917aa23          	sw	a7,1172(a5)

000028e8 <inst_422>:
    28e8:	54082507          	flw	fa0,1344(a6)
    28ec:	54482587          	flw	fa1,1348(a6)
    28f0:	a0b51653          	flt.s	a2,fa0,fa1
    28f4:	001028f3          	frflags	a7
    28f8:	48c7ac23          	sw	a2,1176(a5)
    28fc:	4917ae23          	sw	a7,1180(a5)

00002900 <inst_423>:
    2900:	54882507          	flw	fa0,1352(a6)
    2904:	54c82587          	flw	fa1,1356(a6)
    2908:	a0b51653          	flt.s	a2,fa0,fa1
    290c:	001028f3          	frflags	a7
    2910:	4ac7a023          	sw	a2,1184(a5)
    2914:	4b17a223          	sw	a7,1188(a5)

00002918 <inst_424>:
    2918:	55082507          	flw	fa0,1360(a6)
    291c:	55482587          	flw	fa1,1364(a6)
    2920:	a0b51653          	flt.s	a2,fa0,fa1
    2924:	001028f3          	frflags	a7
    2928:	4ac7a423          	sw	a2,1192(a5)
    292c:	4b17a623          	sw	a7,1196(a5)

00002930 <inst_425>:
    2930:	55882507          	flw	fa0,1368(a6)
    2934:	55c82587          	flw	fa1,1372(a6)
    2938:	a0b51653          	flt.s	a2,fa0,fa1
    293c:	001028f3          	frflags	a7
    2940:	4ac7a823          	sw	a2,1200(a5)
    2944:	4b17aa23          	sw	a7,1204(a5)

00002948 <inst_426>:
    2948:	56082507          	flw	fa0,1376(a6)
    294c:	56482587          	flw	fa1,1380(a6)
    2950:	a0b51653          	flt.s	a2,fa0,fa1
    2954:	001028f3          	frflags	a7
    2958:	4ac7ac23          	sw	a2,1208(a5)
    295c:	4b17ae23          	sw	a7,1212(a5)

00002960 <inst_427>:
    2960:	56882507          	flw	fa0,1384(a6)
    2964:	56c82587          	flw	fa1,1388(a6)
    2968:	a0b51653          	flt.s	a2,fa0,fa1
    296c:	001028f3          	frflags	a7
    2970:	4cc7a023          	sw	a2,1216(a5)
    2974:	4d17a223          	sw	a7,1220(a5)

00002978 <inst_428>:
    2978:	57082507          	flw	fa0,1392(a6)
    297c:	57482587          	flw	fa1,1396(a6)
    2980:	a0b51653          	flt.s	a2,fa0,fa1
    2984:	001028f3          	frflags	a7
    2988:	4cc7a423          	sw	a2,1224(a5)
    298c:	4d17a623          	sw	a7,1228(a5)

00002990 <inst_429>:
    2990:	57882507          	flw	fa0,1400(a6)
    2994:	57c82587          	flw	fa1,1404(a6)
    2998:	a0b51653          	flt.s	a2,fa0,fa1
    299c:	001028f3          	frflags	a7
    29a0:	4cc7a823          	sw	a2,1232(a5)
    29a4:	4d17aa23          	sw	a7,1236(a5)

000029a8 <inst_430>:
    29a8:	58082507          	flw	fa0,1408(a6)
    29ac:	58482587          	flw	fa1,1412(a6)
    29b0:	a0b51653          	flt.s	a2,fa0,fa1
    29b4:	001028f3          	frflags	a7
    29b8:	4cc7ac23          	sw	a2,1240(a5)
    29bc:	4d17ae23          	sw	a7,1244(a5)

000029c0 <inst_431>:
    29c0:	58882507          	flw	fa0,1416(a6)
    29c4:	58c82587          	flw	fa1,1420(a6)
    29c8:	a0b51653          	flt.s	a2,fa0,fa1
    29cc:	001028f3          	frflags	a7
    29d0:	4ec7a023          	sw	a2,1248(a5)
    29d4:	4f17a223          	sw	a7,1252(a5)

000029d8 <inst_432>:
    29d8:	59082507          	flw	fa0,1424(a6)
    29dc:	59482587          	flw	fa1,1428(a6)
    29e0:	a0b51653          	flt.s	a2,fa0,fa1
    29e4:	001028f3          	frflags	a7
    29e8:	4ec7a423          	sw	a2,1256(a5)
    29ec:	4f17a623          	sw	a7,1260(a5)

000029f0 <inst_433>:
    29f0:	59882507          	flw	fa0,1432(a6)
    29f4:	59c82587          	flw	fa1,1436(a6)
    29f8:	a0b51653          	flt.s	a2,fa0,fa1
    29fc:	001028f3          	frflags	a7
    2a00:	4ec7a823          	sw	a2,1264(a5)
    2a04:	4f17aa23          	sw	a7,1268(a5)

00002a08 <inst_434>:
    2a08:	5a082507          	flw	fa0,1440(a6)
    2a0c:	5a482587          	flw	fa1,1444(a6)
    2a10:	a0b51653          	flt.s	a2,fa0,fa1
    2a14:	001028f3          	frflags	a7
    2a18:	4ec7ac23          	sw	a2,1272(a5)
    2a1c:	4f17ae23          	sw	a7,1276(a5)

00002a20 <inst_435>:
    2a20:	5a882507          	flw	fa0,1448(a6)
    2a24:	5ac82587          	flw	fa1,1452(a6)
    2a28:	a0b51653          	flt.s	a2,fa0,fa1
    2a2c:	001028f3          	frflags	a7
    2a30:	50c7a023          	sw	a2,1280(a5)
    2a34:	5117a223          	sw	a7,1284(a5)

00002a38 <inst_436>:
    2a38:	5b082507          	flw	fa0,1456(a6)
    2a3c:	5b482587          	flw	fa1,1460(a6)
    2a40:	a0b51653          	flt.s	a2,fa0,fa1
    2a44:	001028f3          	frflags	a7
    2a48:	50c7a423          	sw	a2,1288(a5)
    2a4c:	5117a623          	sw	a7,1292(a5)

00002a50 <inst_437>:
    2a50:	5b882507          	flw	fa0,1464(a6)
    2a54:	5bc82587          	flw	fa1,1468(a6)
    2a58:	a0b51653          	flt.s	a2,fa0,fa1
    2a5c:	001028f3          	frflags	a7
    2a60:	50c7a823          	sw	a2,1296(a5)
    2a64:	5117aa23          	sw	a7,1300(a5)

00002a68 <inst_438>:
    2a68:	5c082507          	flw	fa0,1472(a6)
    2a6c:	5c482587          	flw	fa1,1476(a6)
    2a70:	a0b51653          	flt.s	a2,fa0,fa1
    2a74:	001028f3          	frflags	a7
    2a78:	50c7ac23          	sw	a2,1304(a5)
    2a7c:	5117ae23          	sw	a7,1308(a5)

00002a80 <inst_439>:
    2a80:	5c882507          	flw	fa0,1480(a6)
    2a84:	5cc82587          	flw	fa1,1484(a6)
    2a88:	a0b51653          	flt.s	a2,fa0,fa1
    2a8c:	001028f3          	frflags	a7
    2a90:	52c7a023          	sw	a2,1312(a5)
    2a94:	5317a223          	sw	a7,1316(a5)

00002a98 <inst_440>:
    2a98:	5d082507          	flw	fa0,1488(a6)
    2a9c:	5d482587          	flw	fa1,1492(a6)
    2aa0:	a0b51653          	flt.s	a2,fa0,fa1
    2aa4:	001028f3          	frflags	a7
    2aa8:	52c7a423          	sw	a2,1320(a5)
    2aac:	5317a623          	sw	a7,1324(a5)

00002ab0 <inst_441>:
    2ab0:	5d882507          	flw	fa0,1496(a6)
    2ab4:	5dc82587          	flw	fa1,1500(a6)
    2ab8:	a0b51653          	flt.s	a2,fa0,fa1
    2abc:	001028f3          	frflags	a7
    2ac0:	52c7a823          	sw	a2,1328(a5)
    2ac4:	5317aa23          	sw	a7,1332(a5)

00002ac8 <inst_442>:
    2ac8:	5e082507          	flw	fa0,1504(a6)
    2acc:	5e482587          	flw	fa1,1508(a6)
    2ad0:	a0b51653          	flt.s	a2,fa0,fa1
    2ad4:	001028f3          	frflags	a7
    2ad8:	52c7ac23          	sw	a2,1336(a5)
    2adc:	5317ae23          	sw	a7,1340(a5)

00002ae0 <inst_443>:
    2ae0:	5e882507          	flw	fa0,1512(a6)
    2ae4:	5ec82587          	flw	fa1,1516(a6)
    2ae8:	a0b51653          	flt.s	a2,fa0,fa1
    2aec:	001028f3          	frflags	a7
    2af0:	54c7a023          	sw	a2,1344(a5)
    2af4:	5517a223          	sw	a7,1348(a5)

00002af8 <inst_444>:
    2af8:	5f082507          	flw	fa0,1520(a6)
    2afc:	5f482587          	flw	fa1,1524(a6)
    2b00:	a0b51653          	flt.s	a2,fa0,fa1
    2b04:	001028f3          	frflags	a7
    2b08:	54c7a423          	sw	a2,1352(a5)
    2b0c:	5517a623          	sw	a7,1356(a5)

00002b10 <inst_445>:
    2b10:	5f882507          	flw	fa0,1528(a6)
    2b14:	5fc82587          	flw	fa1,1532(a6)
    2b18:	a0b51653          	flt.s	a2,fa0,fa1
    2b1c:	001028f3          	frflags	a7
    2b20:	54c7a823          	sw	a2,1360(a5)
    2b24:	5517aa23          	sw	a7,1364(a5)

00002b28 <inst_446>:
    2b28:	60082507          	flw	fa0,1536(a6)
    2b2c:	60482587          	flw	fa1,1540(a6)
    2b30:	a0b51653          	flt.s	a2,fa0,fa1
    2b34:	001028f3          	frflags	a7
    2b38:	54c7ac23          	sw	a2,1368(a5)
    2b3c:	5517ae23          	sw	a7,1372(a5)

00002b40 <inst_447>:
    2b40:	60882507          	flw	fa0,1544(a6)
    2b44:	60c82587          	flw	fa1,1548(a6)
    2b48:	a0b51653          	flt.s	a2,fa0,fa1
    2b4c:	001028f3          	frflags	a7
    2b50:	56c7a023          	sw	a2,1376(a5)
    2b54:	5717a223          	sw	a7,1380(a5)

00002b58 <inst_448>:
    2b58:	61082507          	flw	fa0,1552(a6)
    2b5c:	61482587          	flw	fa1,1556(a6)
    2b60:	a0b51653          	flt.s	a2,fa0,fa1
    2b64:	001028f3          	frflags	a7
    2b68:	56c7a423          	sw	a2,1384(a5)
    2b6c:	5717a623          	sw	a7,1388(a5)

00002b70 <inst_449>:
    2b70:	61882507          	flw	fa0,1560(a6)
    2b74:	61c82587          	flw	fa1,1564(a6)
    2b78:	a0b51653          	flt.s	a2,fa0,fa1
    2b7c:	001028f3          	frflags	a7
    2b80:	56c7a823          	sw	a2,1392(a5)
    2b84:	5717aa23          	sw	a7,1396(a5)

00002b88 <inst_450>:
    2b88:	62082507          	flw	fa0,1568(a6)
    2b8c:	62482587          	flw	fa1,1572(a6)
    2b90:	a0b51653          	flt.s	a2,fa0,fa1
    2b94:	001028f3          	frflags	a7
    2b98:	56c7ac23          	sw	a2,1400(a5)
    2b9c:	5717ae23          	sw	a7,1404(a5)

00002ba0 <inst_451>:
    2ba0:	62882507          	flw	fa0,1576(a6)
    2ba4:	62c82587          	flw	fa1,1580(a6)
    2ba8:	a0b51653          	flt.s	a2,fa0,fa1
    2bac:	001028f3          	frflags	a7
    2bb0:	58c7a023          	sw	a2,1408(a5)
    2bb4:	5917a223          	sw	a7,1412(a5)

00002bb8 <inst_452>:
    2bb8:	63082507          	flw	fa0,1584(a6)
    2bbc:	63482587          	flw	fa1,1588(a6)
    2bc0:	a0b51653          	flt.s	a2,fa0,fa1
    2bc4:	001028f3          	frflags	a7
    2bc8:	58c7a423          	sw	a2,1416(a5)
    2bcc:	5917a623          	sw	a7,1420(a5)

00002bd0 <inst_453>:
    2bd0:	63882507          	flw	fa0,1592(a6)
    2bd4:	63c82587          	flw	fa1,1596(a6)
    2bd8:	a0b51653          	flt.s	a2,fa0,fa1
    2bdc:	001028f3          	frflags	a7
    2be0:	58c7a823          	sw	a2,1424(a5)
    2be4:	5917aa23          	sw	a7,1428(a5)

00002be8 <inst_454>:
    2be8:	64082507          	flw	fa0,1600(a6)
    2bec:	64482587          	flw	fa1,1604(a6)
    2bf0:	a0b51653          	flt.s	a2,fa0,fa1
    2bf4:	001028f3          	frflags	a7
    2bf8:	58c7ac23          	sw	a2,1432(a5)
    2bfc:	5917ae23          	sw	a7,1436(a5)

00002c00 <inst_455>:
    2c00:	64882507          	flw	fa0,1608(a6)
    2c04:	64c82587          	flw	fa1,1612(a6)
    2c08:	a0b51653          	flt.s	a2,fa0,fa1
    2c0c:	001028f3          	frflags	a7
    2c10:	5ac7a023          	sw	a2,1440(a5)
    2c14:	5b17a223          	sw	a7,1444(a5)

00002c18 <inst_456>:
    2c18:	65082507          	flw	fa0,1616(a6)
    2c1c:	65482587          	flw	fa1,1620(a6)
    2c20:	a0b51653          	flt.s	a2,fa0,fa1
    2c24:	001028f3          	frflags	a7
    2c28:	5ac7a423          	sw	a2,1448(a5)
    2c2c:	5b17a623          	sw	a7,1452(a5)

00002c30 <inst_457>:
    2c30:	65882507          	flw	fa0,1624(a6)
    2c34:	65c82587          	flw	fa1,1628(a6)
    2c38:	a0b51653          	flt.s	a2,fa0,fa1
    2c3c:	001028f3          	frflags	a7
    2c40:	5ac7a823          	sw	a2,1456(a5)
    2c44:	5b17aa23          	sw	a7,1460(a5)

00002c48 <inst_458>:
    2c48:	66082507          	flw	fa0,1632(a6)
    2c4c:	66482587          	flw	fa1,1636(a6)
    2c50:	a0b51653          	flt.s	a2,fa0,fa1
    2c54:	001028f3          	frflags	a7
    2c58:	5ac7ac23          	sw	a2,1464(a5)
    2c5c:	5b17ae23          	sw	a7,1468(a5)

00002c60 <inst_459>:
    2c60:	66882507          	flw	fa0,1640(a6)
    2c64:	66c82587          	flw	fa1,1644(a6)
    2c68:	a0b51653          	flt.s	a2,fa0,fa1
    2c6c:	001028f3          	frflags	a7
    2c70:	5cc7a023          	sw	a2,1472(a5)
    2c74:	5d17a223          	sw	a7,1476(a5)

00002c78 <inst_460>:
    2c78:	67082507          	flw	fa0,1648(a6)
    2c7c:	67482587          	flw	fa1,1652(a6)
    2c80:	a0b51653          	flt.s	a2,fa0,fa1
    2c84:	001028f3          	frflags	a7
    2c88:	5cc7a423          	sw	a2,1480(a5)
    2c8c:	5d17a623          	sw	a7,1484(a5)

00002c90 <inst_461>:
    2c90:	67882507          	flw	fa0,1656(a6)
    2c94:	67c82587          	flw	fa1,1660(a6)
    2c98:	a0b51653          	flt.s	a2,fa0,fa1
    2c9c:	001028f3          	frflags	a7
    2ca0:	5cc7a823          	sw	a2,1488(a5)
    2ca4:	5d17aa23          	sw	a7,1492(a5)

00002ca8 <inst_462>:
    2ca8:	68082507          	flw	fa0,1664(a6)
    2cac:	68482587          	flw	fa1,1668(a6)
    2cb0:	a0b51653          	flt.s	a2,fa0,fa1
    2cb4:	001028f3          	frflags	a7
    2cb8:	5cc7ac23          	sw	a2,1496(a5)
    2cbc:	5d17ae23          	sw	a7,1500(a5)

00002cc0 <inst_463>:
    2cc0:	68882507          	flw	fa0,1672(a6)
    2cc4:	68c82587          	flw	fa1,1676(a6)
    2cc8:	a0b51653          	flt.s	a2,fa0,fa1
    2ccc:	001028f3          	frflags	a7
    2cd0:	5ec7a023          	sw	a2,1504(a5)
    2cd4:	5f17a223          	sw	a7,1508(a5)

00002cd8 <inst_464>:
    2cd8:	69082507          	flw	fa0,1680(a6)
    2cdc:	69482587          	flw	fa1,1684(a6)
    2ce0:	a0b51653          	flt.s	a2,fa0,fa1
    2ce4:	001028f3          	frflags	a7
    2ce8:	5ec7a423          	sw	a2,1512(a5)
    2cec:	5f17a623          	sw	a7,1516(a5)

00002cf0 <inst_465>:
    2cf0:	69882507          	flw	fa0,1688(a6)
    2cf4:	69c82587          	flw	fa1,1692(a6)
    2cf8:	a0b51653          	flt.s	a2,fa0,fa1
    2cfc:	001028f3          	frflags	a7
    2d00:	5ec7a823          	sw	a2,1520(a5)
    2d04:	5f17aa23          	sw	a7,1524(a5)

00002d08 <inst_466>:
    2d08:	6a082507          	flw	fa0,1696(a6)
    2d0c:	6a482587          	flw	fa1,1700(a6)
    2d10:	a0b51653          	flt.s	a2,fa0,fa1
    2d14:	001028f3          	frflags	a7
    2d18:	5ec7ac23          	sw	a2,1528(a5)
    2d1c:	5f17ae23          	sw	a7,1532(a5)

00002d20 <inst_467>:
    2d20:	6a882507          	flw	fa0,1704(a6)
    2d24:	6ac82587          	flw	fa1,1708(a6)
    2d28:	a0b51653          	flt.s	a2,fa0,fa1
    2d2c:	001028f3          	frflags	a7
    2d30:	60c7a023          	sw	a2,1536(a5)
    2d34:	6117a223          	sw	a7,1540(a5)

00002d38 <inst_468>:
    2d38:	6b082507          	flw	fa0,1712(a6)
    2d3c:	6b482587          	flw	fa1,1716(a6)
    2d40:	a0b51653          	flt.s	a2,fa0,fa1
    2d44:	001028f3          	frflags	a7
    2d48:	60c7a423          	sw	a2,1544(a5)
    2d4c:	6117a623          	sw	a7,1548(a5)

00002d50 <inst_469>:
    2d50:	6b882507          	flw	fa0,1720(a6)
    2d54:	6bc82587          	flw	fa1,1724(a6)
    2d58:	a0b51653          	flt.s	a2,fa0,fa1
    2d5c:	001028f3          	frflags	a7
    2d60:	60c7a823          	sw	a2,1552(a5)
    2d64:	6117aa23          	sw	a7,1556(a5)

00002d68 <inst_470>:
    2d68:	6c082507          	flw	fa0,1728(a6)
    2d6c:	6c482587          	flw	fa1,1732(a6)
    2d70:	a0b51653          	flt.s	a2,fa0,fa1
    2d74:	001028f3          	frflags	a7
    2d78:	60c7ac23          	sw	a2,1560(a5)
    2d7c:	6117ae23          	sw	a7,1564(a5)

00002d80 <inst_471>:
    2d80:	6c882507          	flw	fa0,1736(a6)
    2d84:	6cc82587          	flw	fa1,1740(a6)
    2d88:	a0b51653          	flt.s	a2,fa0,fa1
    2d8c:	001028f3          	frflags	a7
    2d90:	62c7a023          	sw	a2,1568(a5)
    2d94:	6317a223          	sw	a7,1572(a5)

00002d98 <inst_472>:
    2d98:	6d082507          	flw	fa0,1744(a6)
    2d9c:	6d482587          	flw	fa1,1748(a6)
    2da0:	a0b51653          	flt.s	a2,fa0,fa1
    2da4:	001028f3          	frflags	a7
    2da8:	62c7a423          	sw	a2,1576(a5)
    2dac:	6317a623          	sw	a7,1580(a5)

00002db0 <inst_473>:
    2db0:	6d882507          	flw	fa0,1752(a6)
    2db4:	6dc82587          	flw	fa1,1756(a6)
    2db8:	a0b51653          	flt.s	a2,fa0,fa1
    2dbc:	001028f3          	frflags	a7
    2dc0:	62c7a823          	sw	a2,1584(a5)
    2dc4:	6317aa23          	sw	a7,1588(a5)

00002dc8 <inst_474>:
    2dc8:	6e082507          	flw	fa0,1760(a6)
    2dcc:	6e482587          	flw	fa1,1764(a6)
    2dd0:	a0b51653          	flt.s	a2,fa0,fa1
    2dd4:	001028f3          	frflags	a7
    2dd8:	62c7ac23          	sw	a2,1592(a5)
    2ddc:	6317ae23          	sw	a7,1596(a5)

00002de0 <inst_475>:
    2de0:	6e882507          	flw	fa0,1768(a6)
    2de4:	6ec82587          	flw	fa1,1772(a6)
    2de8:	a0b51653          	flt.s	a2,fa0,fa1
    2dec:	001028f3          	frflags	a7
    2df0:	64c7a023          	sw	a2,1600(a5)
    2df4:	6517a223          	sw	a7,1604(a5)

00002df8 <inst_476>:
    2df8:	6f082507          	flw	fa0,1776(a6)
    2dfc:	6f482587          	flw	fa1,1780(a6)
    2e00:	a0b51653          	flt.s	a2,fa0,fa1
    2e04:	001028f3          	frflags	a7
    2e08:	64c7a423          	sw	a2,1608(a5)
    2e0c:	6517a623          	sw	a7,1612(a5)

00002e10 <inst_477>:
    2e10:	6f882507          	flw	fa0,1784(a6)
    2e14:	6fc82587          	flw	fa1,1788(a6)
    2e18:	a0b51653          	flt.s	a2,fa0,fa1
    2e1c:	001028f3          	frflags	a7
    2e20:	64c7a823          	sw	a2,1616(a5)
    2e24:	6517aa23          	sw	a7,1620(a5)

00002e28 <inst_478>:
    2e28:	70082507          	flw	fa0,1792(a6)
    2e2c:	70482587          	flw	fa1,1796(a6)
    2e30:	a0b51653          	flt.s	a2,fa0,fa1
    2e34:	001028f3          	frflags	a7
    2e38:	64c7ac23          	sw	a2,1624(a5)
    2e3c:	6517ae23          	sw	a7,1628(a5)

00002e40 <inst_479>:
    2e40:	70882507          	flw	fa0,1800(a6)
    2e44:	70c82587          	flw	fa1,1804(a6)
    2e48:	a0b51653          	flt.s	a2,fa0,fa1
    2e4c:	001028f3          	frflags	a7
    2e50:	66c7a023          	sw	a2,1632(a5)
    2e54:	6717a223          	sw	a7,1636(a5)

00002e58 <inst_480>:
    2e58:	71082507          	flw	fa0,1808(a6)
    2e5c:	71482587          	flw	fa1,1812(a6)
    2e60:	a0b51653          	flt.s	a2,fa0,fa1
    2e64:	001028f3          	frflags	a7
    2e68:	66c7a423          	sw	a2,1640(a5)
    2e6c:	6717a623          	sw	a7,1644(a5)

00002e70 <inst_481>:
    2e70:	71882507          	flw	fa0,1816(a6)
    2e74:	71c82587          	flw	fa1,1820(a6)
    2e78:	a0b51653          	flt.s	a2,fa0,fa1
    2e7c:	001028f3          	frflags	a7
    2e80:	66c7a823          	sw	a2,1648(a5)
    2e84:	6717aa23          	sw	a7,1652(a5)

00002e88 <inst_482>:
    2e88:	72082507          	flw	fa0,1824(a6)
    2e8c:	72482587          	flw	fa1,1828(a6)
    2e90:	a0b51653          	flt.s	a2,fa0,fa1
    2e94:	001028f3          	frflags	a7
    2e98:	66c7ac23          	sw	a2,1656(a5)
    2e9c:	6717ae23          	sw	a7,1660(a5)

00002ea0 <inst_483>:
    2ea0:	72882507          	flw	fa0,1832(a6)
    2ea4:	72c82587          	flw	fa1,1836(a6)
    2ea8:	a0b51653          	flt.s	a2,fa0,fa1
    2eac:	001028f3          	frflags	a7
    2eb0:	68c7a023          	sw	a2,1664(a5)
    2eb4:	6917a223          	sw	a7,1668(a5)

00002eb8 <inst_484>:
    2eb8:	73082507          	flw	fa0,1840(a6)
    2ebc:	73482587          	flw	fa1,1844(a6)
    2ec0:	a0b51653          	flt.s	a2,fa0,fa1
    2ec4:	001028f3          	frflags	a7
    2ec8:	68c7a423          	sw	a2,1672(a5)
    2ecc:	6917a623          	sw	a7,1676(a5)

00002ed0 <inst_485>:
    2ed0:	73882507          	flw	fa0,1848(a6)
    2ed4:	73c82587          	flw	fa1,1852(a6)
    2ed8:	a0b51653          	flt.s	a2,fa0,fa1
    2edc:	001028f3          	frflags	a7
    2ee0:	68c7a823          	sw	a2,1680(a5)
    2ee4:	6917aa23          	sw	a7,1684(a5)

00002ee8 <inst_486>:
    2ee8:	74082507          	flw	fa0,1856(a6)
    2eec:	74482587          	flw	fa1,1860(a6)
    2ef0:	a0b51653          	flt.s	a2,fa0,fa1
    2ef4:	001028f3          	frflags	a7
    2ef8:	68c7ac23          	sw	a2,1688(a5)
    2efc:	6917ae23          	sw	a7,1692(a5)

00002f00 <inst_487>:
    2f00:	74882507          	flw	fa0,1864(a6)
    2f04:	74c82587          	flw	fa1,1868(a6)
    2f08:	a0b51653          	flt.s	a2,fa0,fa1
    2f0c:	001028f3          	frflags	a7
    2f10:	6ac7a023          	sw	a2,1696(a5)
    2f14:	6b17a223          	sw	a7,1700(a5)

00002f18 <inst_488>:
    2f18:	75082507          	flw	fa0,1872(a6)
    2f1c:	75482587          	flw	fa1,1876(a6)
    2f20:	a0b51653          	flt.s	a2,fa0,fa1
    2f24:	001028f3          	frflags	a7
    2f28:	6ac7a423          	sw	a2,1704(a5)
    2f2c:	6b17a623          	sw	a7,1708(a5)

00002f30 <inst_489>:
    2f30:	75882507          	flw	fa0,1880(a6)
    2f34:	75c82587          	flw	fa1,1884(a6)
    2f38:	a0b51653          	flt.s	a2,fa0,fa1
    2f3c:	001028f3          	frflags	a7
    2f40:	6ac7a823          	sw	a2,1712(a5)
    2f44:	6b17aa23          	sw	a7,1716(a5)

00002f48 <inst_490>:
    2f48:	76082507          	flw	fa0,1888(a6)
    2f4c:	76482587          	flw	fa1,1892(a6)
    2f50:	a0b51653          	flt.s	a2,fa0,fa1
    2f54:	001028f3          	frflags	a7
    2f58:	6ac7ac23          	sw	a2,1720(a5)
    2f5c:	6b17ae23          	sw	a7,1724(a5)

00002f60 <inst_491>:
    2f60:	76882507          	flw	fa0,1896(a6)
    2f64:	76c82587          	flw	fa1,1900(a6)
    2f68:	a0b51653          	flt.s	a2,fa0,fa1
    2f6c:	001028f3          	frflags	a7
    2f70:	6cc7a023          	sw	a2,1728(a5)
    2f74:	6d17a223          	sw	a7,1732(a5)

00002f78 <inst_492>:
    2f78:	77082507          	flw	fa0,1904(a6)
    2f7c:	77482587          	flw	fa1,1908(a6)
    2f80:	a0b51653          	flt.s	a2,fa0,fa1
    2f84:	001028f3          	frflags	a7
    2f88:	6cc7a423          	sw	a2,1736(a5)
    2f8c:	6d17a623          	sw	a7,1740(a5)

00002f90 <inst_493>:
    2f90:	77882507          	flw	fa0,1912(a6)
    2f94:	77c82587          	flw	fa1,1916(a6)
    2f98:	a0b51653          	flt.s	a2,fa0,fa1
    2f9c:	001028f3          	frflags	a7
    2fa0:	6cc7a823          	sw	a2,1744(a5)
    2fa4:	6d17aa23          	sw	a7,1748(a5)

00002fa8 <inst_494>:
    2fa8:	78082507          	flw	fa0,1920(a6)
    2fac:	78482587          	flw	fa1,1924(a6)
    2fb0:	a0b51653          	flt.s	a2,fa0,fa1
    2fb4:	001028f3          	frflags	a7
    2fb8:	6cc7ac23          	sw	a2,1752(a5)
    2fbc:	6d17ae23          	sw	a7,1756(a5)

00002fc0 <inst_495>:
    2fc0:	78882507          	flw	fa0,1928(a6)
    2fc4:	78c82587          	flw	fa1,1932(a6)
    2fc8:	a0b51653          	flt.s	a2,fa0,fa1
    2fcc:	001028f3          	frflags	a7
    2fd0:	6ec7a023          	sw	a2,1760(a5)
    2fd4:	6f17a223          	sw	a7,1764(a5)

00002fd8 <inst_496>:
    2fd8:	79082507          	flw	fa0,1936(a6)
    2fdc:	79482587          	flw	fa1,1940(a6)
    2fe0:	a0b51653          	flt.s	a2,fa0,fa1
    2fe4:	001028f3          	frflags	a7
    2fe8:	6ec7a423          	sw	a2,1768(a5)
    2fec:	6f17a623          	sw	a7,1772(a5)

00002ff0 <inst_497>:
    2ff0:	79882507          	flw	fa0,1944(a6)
    2ff4:	79c82587          	flw	fa1,1948(a6)
    2ff8:	a0b51653          	flt.s	a2,fa0,fa1
    2ffc:	001028f3          	frflags	a7
    3000:	6ec7a823          	sw	a2,1776(a5)
    3004:	6f17aa23          	sw	a7,1780(a5)

00003008 <inst_498>:
    3008:	7a082507          	flw	fa0,1952(a6)
    300c:	7a482587          	flw	fa1,1956(a6)
    3010:	a0b51653          	flt.s	a2,fa0,fa1
    3014:	001028f3          	frflags	a7
    3018:	6ec7ac23          	sw	a2,1784(a5)
    301c:	6f17ae23          	sw	a7,1788(a5)

00003020 <inst_499>:
    3020:	7a882507          	flw	fa0,1960(a6)
    3024:	7ac82587          	flw	fa1,1964(a6)
    3028:	a0b51653          	flt.s	a2,fa0,fa1
    302c:	001028f3          	frflags	a7
    3030:	70c7a023          	sw	a2,1792(a5)
    3034:	7117a223          	sw	a7,1796(a5)

00003038 <inst_500>:
    3038:	7b082507          	flw	fa0,1968(a6)
    303c:	7b482587          	flw	fa1,1972(a6)
    3040:	a0b51653          	flt.s	a2,fa0,fa1
    3044:	001028f3          	frflags	a7
    3048:	70c7a423          	sw	a2,1800(a5)
    304c:	7117a623          	sw	a7,1804(a5)

00003050 <inst_501>:
    3050:	7b882507          	flw	fa0,1976(a6)
    3054:	7bc82587          	flw	fa1,1980(a6)
    3058:	a0b51653          	flt.s	a2,fa0,fa1
    305c:	001028f3          	frflags	a7
    3060:	70c7a823          	sw	a2,1808(a5)
    3064:	7117aa23          	sw	a7,1812(a5)

00003068 <inst_502>:
    3068:	7c082507          	flw	fa0,1984(a6)
    306c:	7c482587          	flw	fa1,1988(a6)
    3070:	a0b51653          	flt.s	a2,fa0,fa1
    3074:	001028f3          	frflags	a7
    3078:	70c7ac23          	sw	a2,1816(a5)
    307c:	7117ae23          	sw	a7,1820(a5)

00003080 <inst_503>:
    3080:	7c882507          	flw	fa0,1992(a6)
    3084:	7cc82587          	flw	fa1,1996(a6)
    3088:	a0b51653          	flt.s	a2,fa0,fa1
    308c:	001028f3          	frflags	a7
    3090:	72c7a023          	sw	a2,1824(a5)
    3094:	7317a223          	sw	a7,1828(a5)

00003098 <inst_504>:
    3098:	7d082507          	flw	fa0,2000(a6)
    309c:	7d482587          	flw	fa1,2004(a6)
    30a0:	a0b51653          	flt.s	a2,fa0,fa1
    30a4:	001028f3          	frflags	a7
    30a8:	72c7a423          	sw	a2,1832(a5)
    30ac:	7317a623          	sw	a7,1836(a5)

000030b0 <inst_505>:
    30b0:	7d882507          	flw	fa0,2008(a6)
    30b4:	7dc82587          	flw	fa1,2012(a6)
    30b8:	a0b51653          	flt.s	a2,fa0,fa1
    30bc:	001028f3          	frflags	a7
    30c0:	72c7a823          	sw	a2,1840(a5)
    30c4:	7317aa23          	sw	a7,1844(a5)

000030c8 <inst_506>:
    30c8:	7e082507          	flw	fa0,2016(a6)
    30cc:	7e482587          	flw	fa1,2020(a6)
    30d0:	a0b51653          	flt.s	a2,fa0,fa1
    30d4:	001028f3          	frflags	a7
    30d8:	72c7ac23          	sw	a2,1848(a5)
    30dc:	7317ae23          	sw	a7,1852(a5)

000030e0 <inst_507>:
    30e0:	7e882507          	flw	fa0,2024(a6)
    30e4:	7ec82587          	flw	fa1,2028(a6)
    30e8:	a0b51653          	flt.s	a2,fa0,fa1
    30ec:	001028f3          	frflags	a7
    30f0:	74c7a023          	sw	a2,1856(a5)
    30f4:	7517a223          	sw	a7,1860(a5)
    30f8:	7f080813          	add	a6,a6,2032

000030fc <inst_508>:
    30fc:	00082507          	flw	fa0,0(a6)
    3100:	00482587          	flw	fa1,4(a6)
    3104:	a0b51653          	flt.s	a2,fa0,fa1
    3108:	001028f3          	frflags	a7
    310c:	74c7a423          	sw	a2,1864(a5)
    3110:	7517a623          	sw	a7,1868(a5)

00003114 <inst_509>:
    3114:	00882507          	flw	fa0,8(a6)
    3118:	00c82587          	flw	fa1,12(a6)
    311c:	a0b51653          	flt.s	a2,fa0,fa1
    3120:	001028f3          	frflags	a7
    3124:	74c7a823          	sw	a2,1872(a5)
    3128:	7517aa23          	sw	a7,1876(a5)

0000312c <inst_510>:
    312c:	01082507          	flw	fa0,16(a6)
    3130:	01482587          	flw	fa1,20(a6)
    3134:	a0b51653          	flt.s	a2,fa0,fa1
    3138:	001028f3          	frflags	a7
    313c:	74c7ac23          	sw	a2,1880(a5)
    3140:	7517ae23          	sw	a7,1884(a5)

00003144 <inst_511>:
    3144:	01882507          	flw	fa0,24(a6)
    3148:	01c82587          	flw	fa1,28(a6)
    314c:	a0b51653          	flt.s	a2,fa0,fa1
    3150:	001028f3          	frflags	a7
    3154:	76c7a023          	sw	a2,1888(a5)
    3158:	7717a223          	sw	a7,1892(a5)

0000315c <inst_512>:
    315c:	02082507          	flw	fa0,32(a6)
    3160:	02482587          	flw	fa1,36(a6)
    3164:	a0b51653          	flt.s	a2,fa0,fa1
    3168:	001028f3          	frflags	a7
    316c:	76c7a423          	sw	a2,1896(a5)
    3170:	7717a623          	sw	a7,1900(a5)

00003174 <inst_513>:
    3174:	02882507          	flw	fa0,40(a6)
    3178:	02c82587          	flw	fa1,44(a6)
    317c:	a0b51653          	flt.s	a2,fa0,fa1
    3180:	001028f3          	frflags	a7
    3184:	76c7a823          	sw	a2,1904(a5)
    3188:	7717aa23          	sw	a7,1908(a5)

0000318c <inst_514>:
    318c:	03082507          	flw	fa0,48(a6)
    3190:	03482587          	flw	fa1,52(a6)
    3194:	a0b51653          	flt.s	a2,fa0,fa1
    3198:	001028f3          	frflags	a7
    319c:	76c7ac23          	sw	a2,1912(a5)
    31a0:	7717ae23          	sw	a7,1916(a5)

000031a4 <inst_515>:
    31a4:	03882507          	flw	fa0,56(a6)
    31a8:	03c82587          	flw	fa1,60(a6)
    31ac:	a0b51653          	flt.s	a2,fa0,fa1
    31b0:	001028f3          	frflags	a7
    31b4:	78c7a023          	sw	a2,1920(a5)
    31b8:	7917a223          	sw	a7,1924(a5)

000031bc <inst_516>:
    31bc:	04082507          	flw	fa0,64(a6)
    31c0:	04482587          	flw	fa1,68(a6)
    31c4:	a0b51653          	flt.s	a2,fa0,fa1
    31c8:	001028f3          	frflags	a7
    31cc:	78c7a423          	sw	a2,1928(a5)
    31d0:	7917a623          	sw	a7,1932(a5)

000031d4 <inst_517>:
    31d4:	04882507          	flw	fa0,72(a6)
    31d8:	04c82587          	flw	fa1,76(a6)
    31dc:	a0b51653          	flt.s	a2,fa0,fa1
    31e0:	001028f3          	frflags	a7
    31e4:	78c7a823          	sw	a2,1936(a5)
    31e8:	7917aa23          	sw	a7,1940(a5)

000031ec <inst_518>:
    31ec:	05082507          	flw	fa0,80(a6)
    31f0:	05482587          	flw	fa1,84(a6)
    31f4:	a0b51653          	flt.s	a2,fa0,fa1
    31f8:	001028f3          	frflags	a7
    31fc:	78c7ac23          	sw	a2,1944(a5)
    3200:	7917ae23          	sw	a7,1948(a5)

00003204 <inst_519>:
    3204:	05882507          	flw	fa0,88(a6)
    3208:	05c82587          	flw	fa1,92(a6)
    320c:	a0b51653          	flt.s	a2,fa0,fa1
    3210:	001028f3          	frflags	a7
    3214:	7ac7a023          	sw	a2,1952(a5)
    3218:	7b17a223          	sw	a7,1956(a5)

0000321c <inst_520>:
    321c:	06082507          	flw	fa0,96(a6)
    3220:	06482587          	flw	fa1,100(a6)
    3224:	a0b51653          	flt.s	a2,fa0,fa1
    3228:	001028f3          	frflags	a7
    322c:	7ac7a423          	sw	a2,1960(a5)
    3230:	7b17a623          	sw	a7,1964(a5)

00003234 <inst_521>:
    3234:	06882507          	flw	fa0,104(a6)
    3238:	06c82587          	flw	fa1,108(a6)
    323c:	a0b51653          	flt.s	a2,fa0,fa1
    3240:	001028f3          	frflags	a7
    3244:	7ac7a823          	sw	a2,1968(a5)
    3248:	7b17aa23          	sw	a7,1972(a5)

0000324c <inst_522>:
    324c:	07082507          	flw	fa0,112(a6)
    3250:	07482587          	flw	fa1,116(a6)
    3254:	a0b51653          	flt.s	a2,fa0,fa1
    3258:	001028f3          	frflags	a7
    325c:	7ac7ac23          	sw	a2,1976(a5)
    3260:	7b17ae23          	sw	a7,1980(a5)

00003264 <inst_523>:
    3264:	07882507          	flw	fa0,120(a6)
    3268:	07c82587          	flw	fa1,124(a6)
    326c:	a0b51653          	flt.s	a2,fa0,fa1
    3270:	001028f3          	frflags	a7
    3274:	7cc7a023          	sw	a2,1984(a5)
    3278:	7d17a223          	sw	a7,1988(a5)

0000327c <inst_524>:
    327c:	08082507          	flw	fa0,128(a6)
    3280:	08482587          	flw	fa1,132(a6)
    3284:	a0b51653          	flt.s	a2,fa0,fa1
    3288:	001028f3          	frflags	a7
    328c:	7cc7a423          	sw	a2,1992(a5)
    3290:	7d17a623          	sw	a7,1996(a5)

00003294 <inst_525>:
    3294:	08882507          	flw	fa0,136(a6)
    3298:	08c82587          	flw	fa1,140(a6)
    329c:	a0b51653          	flt.s	a2,fa0,fa1
    32a0:	001028f3          	frflags	a7
    32a4:	7cc7a823          	sw	a2,2000(a5)
    32a8:	7d17aa23          	sw	a7,2004(a5)

000032ac <inst_526>:
    32ac:	09082507          	flw	fa0,144(a6)
    32b0:	09482587          	flw	fa1,148(a6)
    32b4:	a0b51653          	flt.s	a2,fa0,fa1
    32b8:	001028f3          	frflags	a7
    32bc:	7cc7ac23          	sw	a2,2008(a5)
    32c0:	7d17ae23          	sw	a7,2012(a5)

000032c4 <inst_527>:
    32c4:	09882507          	flw	fa0,152(a6)
    32c8:	09c82587          	flw	fa1,156(a6)
    32cc:	a0b51653          	flt.s	a2,fa0,fa1
    32d0:	001028f3          	frflags	a7
    32d4:	7ec7a023          	sw	a2,2016(a5)
    32d8:	7f17a223          	sw	a7,2020(a5)

000032dc <inst_528>:
    32dc:	0a082507          	flw	fa0,160(a6)
    32e0:	0a482587          	flw	fa1,164(a6)
    32e4:	a0b51653          	flt.s	a2,fa0,fa1
    32e8:	001028f3          	frflags	a7
    32ec:	7ec7a423          	sw	a2,2024(a5)
    32f0:	7f17a623          	sw	a7,2028(a5)
    32f4:	00006797          	auipc	a5,0x6
    32f8:	c7478793          	add	a5,a5,-908 # 8f68 <signature_x15_4>

000032fc <inst_529>:
    32fc:	0a882507          	flw	fa0,168(a6)
    3300:	0ac82587          	flw	fa1,172(a6)
    3304:	a0b51653          	flt.s	a2,fa0,fa1
    3308:	001028f3          	frflags	a7
    330c:	00c7a023          	sw	a2,0(a5)
    3310:	0117a223          	sw	a7,4(a5)

00003314 <inst_530>:
    3314:	0b082507          	flw	fa0,176(a6)
    3318:	0b482587          	flw	fa1,180(a6)
    331c:	a0b51653          	flt.s	a2,fa0,fa1
    3320:	001028f3          	frflags	a7
    3324:	00c7a423          	sw	a2,8(a5)
    3328:	0117a623          	sw	a7,12(a5)

0000332c <inst_531>:
    332c:	0b882507          	flw	fa0,184(a6)
    3330:	0bc82587          	flw	fa1,188(a6)
    3334:	a0b51653          	flt.s	a2,fa0,fa1
    3338:	001028f3          	frflags	a7
    333c:	00c7a823          	sw	a2,16(a5)
    3340:	0117aa23          	sw	a7,20(a5)

00003344 <inst_532>:
    3344:	0c082507          	flw	fa0,192(a6)
    3348:	0c482587          	flw	fa1,196(a6)
    334c:	a0b51653          	flt.s	a2,fa0,fa1
    3350:	001028f3          	frflags	a7
    3354:	00c7ac23          	sw	a2,24(a5)
    3358:	0117ae23          	sw	a7,28(a5)

0000335c <inst_533>:
    335c:	0c882507          	flw	fa0,200(a6)
    3360:	0cc82587          	flw	fa1,204(a6)
    3364:	a0b51653          	flt.s	a2,fa0,fa1
    3368:	001028f3          	frflags	a7
    336c:	02c7a023          	sw	a2,32(a5)
    3370:	0317a223          	sw	a7,36(a5)

00003374 <inst_534>:
    3374:	0d082507          	flw	fa0,208(a6)
    3378:	0d482587          	flw	fa1,212(a6)
    337c:	a0b51653          	flt.s	a2,fa0,fa1
    3380:	001028f3          	frflags	a7
    3384:	02c7a423          	sw	a2,40(a5)
    3388:	0317a623          	sw	a7,44(a5)

0000338c <inst_535>:
    338c:	0d882507          	flw	fa0,216(a6)
    3390:	0dc82587          	flw	fa1,220(a6)
    3394:	a0b51653          	flt.s	a2,fa0,fa1
    3398:	001028f3          	frflags	a7
    339c:	02c7a823          	sw	a2,48(a5)
    33a0:	0317aa23          	sw	a7,52(a5)

000033a4 <inst_536>:
    33a4:	0e082507          	flw	fa0,224(a6)
    33a8:	0e482587          	flw	fa1,228(a6)
    33ac:	a0b51653          	flt.s	a2,fa0,fa1
    33b0:	001028f3          	frflags	a7
    33b4:	02c7ac23          	sw	a2,56(a5)
    33b8:	0317ae23          	sw	a7,60(a5)

000033bc <inst_537>:
    33bc:	0e882507          	flw	fa0,232(a6)
    33c0:	0ec82587          	flw	fa1,236(a6)
    33c4:	a0b51653          	flt.s	a2,fa0,fa1
    33c8:	001028f3          	frflags	a7
    33cc:	04c7a023          	sw	a2,64(a5)
    33d0:	0517a223          	sw	a7,68(a5)

000033d4 <inst_538>:
    33d4:	0f082507          	flw	fa0,240(a6)
    33d8:	0f482587          	flw	fa1,244(a6)
    33dc:	a0b51653          	flt.s	a2,fa0,fa1
    33e0:	001028f3          	frflags	a7
    33e4:	04c7a423          	sw	a2,72(a5)
    33e8:	0517a623          	sw	a7,76(a5)

000033ec <inst_539>:
    33ec:	0f882507          	flw	fa0,248(a6)
    33f0:	0fc82587          	flw	fa1,252(a6)
    33f4:	a0b51653          	flt.s	a2,fa0,fa1
    33f8:	001028f3          	frflags	a7
    33fc:	04c7a823          	sw	a2,80(a5)
    3400:	0517aa23          	sw	a7,84(a5)

00003404 <inst_540>:
    3404:	10082507          	flw	fa0,256(a6)
    3408:	10482587          	flw	fa1,260(a6)
    340c:	a0b51653          	flt.s	a2,fa0,fa1
    3410:	001028f3          	frflags	a7
    3414:	04c7ac23          	sw	a2,88(a5)
    3418:	0517ae23          	sw	a7,92(a5)

0000341c <inst_541>:
    341c:	10882507          	flw	fa0,264(a6)
    3420:	10c82587          	flw	fa1,268(a6)
    3424:	a0b51653          	flt.s	a2,fa0,fa1
    3428:	001028f3          	frflags	a7
    342c:	06c7a023          	sw	a2,96(a5)
    3430:	0717a223          	sw	a7,100(a5)

00003434 <inst_542>:
    3434:	11082507          	flw	fa0,272(a6)
    3438:	11482587          	flw	fa1,276(a6)
    343c:	a0b51653          	flt.s	a2,fa0,fa1
    3440:	001028f3          	frflags	a7
    3444:	06c7a423          	sw	a2,104(a5)
    3448:	0717a623          	sw	a7,108(a5)

0000344c <inst_543>:
    344c:	11882507          	flw	fa0,280(a6)
    3450:	11c82587          	flw	fa1,284(a6)
    3454:	a0b51653          	flt.s	a2,fa0,fa1
    3458:	001028f3          	frflags	a7
    345c:	06c7a823          	sw	a2,112(a5)
    3460:	0717aa23          	sw	a7,116(a5)

00003464 <inst_544>:
    3464:	12082507          	flw	fa0,288(a6)
    3468:	12482587          	flw	fa1,292(a6)
    346c:	a0b51653          	flt.s	a2,fa0,fa1
    3470:	001028f3          	frflags	a7
    3474:	06c7ac23          	sw	a2,120(a5)
    3478:	0717ae23          	sw	a7,124(a5)

0000347c <inst_545>:
    347c:	12882507          	flw	fa0,296(a6)
    3480:	12c82587          	flw	fa1,300(a6)
    3484:	a0b51653          	flt.s	a2,fa0,fa1
    3488:	001028f3          	frflags	a7
    348c:	08c7a023          	sw	a2,128(a5)
    3490:	0917a223          	sw	a7,132(a5)

00003494 <inst_546>:
    3494:	13082507          	flw	fa0,304(a6)
    3498:	13482587          	flw	fa1,308(a6)
    349c:	a0b51653          	flt.s	a2,fa0,fa1
    34a0:	001028f3          	frflags	a7
    34a4:	08c7a423          	sw	a2,136(a5)
    34a8:	0917a623          	sw	a7,140(a5)

000034ac <inst_547>:
    34ac:	13882507          	flw	fa0,312(a6)
    34b0:	13c82587          	flw	fa1,316(a6)
    34b4:	a0b51653          	flt.s	a2,fa0,fa1
    34b8:	001028f3          	frflags	a7
    34bc:	08c7a823          	sw	a2,144(a5)
    34c0:	0917aa23          	sw	a7,148(a5)

000034c4 <inst_548>:
    34c4:	14082507          	flw	fa0,320(a6)
    34c8:	14482587          	flw	fa1,324(a6)
    34cc:	a0b51653          	flt.s	a2,fa0,fa1
    34d0:	001028f3          	frflags	a7
    34d4:	08c7ac23          	sw	a2,152(a5)
    34d8:	0917ae23          	sw	a7,156(a5)

000034dc <inst_549>:
    34dc:	14882507          	flw	fa0,328(a6)
    34e0:	14c82587          	flw	fa1,332(a6)
    34e4:	a0b51653          	flt.s	a2,fa0,fa1
    34e8:	001028f3          	frflags	a7
    34ec:	0ac7a023          	sw	a2,160(a5)
    34f0:	0b17a223          	sw	a7,164(a5)

000034f4 <inst_550>:
    34f4:	15082507          	flw	fa0,336(a6)
    34f8:	15482587          	flw	fa1,340(a6)
    34fc:	a0b51653          	flt.s	a2,fa0,fa1
    3500:	001028f3          	frflags	a7
    3504:	0ac7a423          	sw	a2,168(a5)
    3508:	0b17a623          	sw	a7,172(a5)

0000350c <inst_551>:
    350c:	15882507          	flw	fa0,344(a6)
    3510:	15c82587          	flw	fa1,348(a6)
    3514:	a0b51653          	flt.s	a2,fa0,fa1
    3518:	001028f3          	frflags	a7
    351c:	0ac7a823          	sw	a2,176(a5)
    3520:	0b17aa23          	sw	a7,180(a5)

00003524 <inst_552>:
    3524:	16082507          	flw	fa0,352(a6)
    3528:	16482587          	flw	fa1,356(a6)
    352c:	a0b51653          	flt.s	a2,fa0,fa1
    3530:	001028f3          	frflags	a7
    3534:	0ac7ac23          	sw	a2,184(a5)
    3538:	0b17ae23          	sw	a7,188(a5)

0000353c <inst_553>:
    353c:	16882507          	flw	fa0,360(a6)
    3540:	16c82587          	flw	fa1,364(a6)
    3544:	a0b51653          	flt.s	a2,fa0,fa1
    3548:	001028f3          	frflags	a7
    354c:	0cc7a023          	sw	a2,192(a5)
    3550:	0d17a223          	sw	a7,196(a5)

00003554 <inst_554>:
    3554:	17082507          	flw	fa0,368(a6)
    3558:	17482587          	flw	fa1,372(a6)
    355c:	a0b51653          	flt.s	a2,fa0,fa1
    3560:	001028f3          	frflags	a7
    3564:	0cc7a423          	sw	a2,200(a5)
    3568:	0d17a623          	sw	a7,204(a5)

0000356c <inst_555>:
    356c:	17882507          	flw	fa0,376(a6)
    3570:	17c82587          	flw	fa1,380(a6)
    3574:	a0b51653          	flt.s	a2,fa0,fa1
    3578:	001028f3          	frflags	a7
    357c:	0cc7a823          	sw	a2,208(a5)
    3580:	0d17aa23          	sw	a7,212(a5)

00003584 <inst_556>:
    3584:	18082507          	flw	fa0,384(a6)
    3588:	18482587          	flw	fa1,388(a6)
    358c:	a0b51653          	flt.s	a2,fa0,fa1
    3590:	001028f3          	frflags	a7
    3594:	0cc7ac23          	sw	a2,216(a5)
    3598:	0d17ae23          	sw	a7,220(a5)

0000359c <inst_557>:
    359c:	18882507          	flw	fa0,392(a6)
    35a0:	18c82587          	flw	fa1,396(a6)
    35a4:	a0b51653          	flt.s	a2,fa0,fa1
    35a8:	001028f3          	frflags	a7
    35ac:	0ec7a023          	sw	a2,224(a5)
    35b0:	0f17a223          	sw	a7,228(a5)

000035b4 <inst_558>:
    35b4:	19082507          	flw	fa0,400(a6)
    35b8:	19482587          	flw	fa1,404(a6)
    35bc:	a0b51653          	flt.s	a2,fa0,fa1
    35c0:	001028f3          	frflags	a7
    35c4:	0ec7a423          	sw	a2,232(a5)
    35c8:	0f17a623          	sw	a7,236(a5)

000035cc <inst_559>:
    35cc:	19882507          	flw	fa0,408(a6)
    35d0:	19c82587          	flw	fa1,412(a6)
    35d4:	a0b51653          	flt.s	a2,fa0,fa1
    35d8:	001028f3          	frflags	a7
    35dc:	0ec7a823          	sw	a2,240(a5)
    35e0:	0f17aa23          	sw	a7,244(a5)

000035e4 <inst_560>:
    35e4:	1a082507          	flw	fa0,416(a6)
    35e8:	1a482587          	flw	fa1,420(a6)
    35ec:	a0b51653          	flt.s	a2,fa0,fa1
    35f0:	001028f3          	frflags	a7
    35f4:	0ec7ac23          	sw	a2,248(a5)
    35f8:	0f17ae23          	sw	a7,252(a5)

000035fc <inst_561>:
    35fc:	1a882507          	flw	fa0,424(a6)
    3600:	1ac82587          	flw	fa1,428(a6)
    3604:	a0b51653          	flt.s	a2,fa0,fa1
    3608:	001028f3          	frflags	a7
    360c:	10c7a023          	sw	a2,256(a5)
    3610:	1117a223          	sw	a7,260(a5)

00003614 <inst_562>:
    3614:	1b082507          	flw	fa0,432(a6)
    3618:	1b482587          	flw	fa1,436(a6)
    361c:	a0b51653          	flt.s	a2,fa0,fa1
    3620:	001028f3          	frflags	a7
    3624:	10c7a423          	sw	a2,264(a5)
    3628:	1117a623          	sw	a7,268(a5)

0000362c <inst_563>:
    362c:	1b882507          	flw	fa0,440(a6)
    3630:	1bc82587          	flw	fa1,444(a6)
    3634:	a0b51653          	flt.s	a2,fa0,fa1
    3638:	001028f3          	frflags	a7
    363c:	10c7a823          	sw	a2,272(a5)
    3640:	1117aa23          	sw	a7,276(a5)

00003644 <inst_564>:
    3644:	1c082507          	flw	fa0,448(a6)
    3648:	1c482587          	flw	fa1,452(a6)
    364c:	a0b51653          	flt.s	a2,fa0,fa1
    3650:	001028f3          	frflags	a7
    3654:	10c7ac23          	sw	a2,280(a5)
    3658:	1117ae23          	sw	a7,284(a5)

0000365c <inst_565>:
    365c:	1c882507          	flw	fa0,456(a6)
    3660:	1cc82587          	flw	fa1,460(a6)
    3664:	a0b51653          	flt.s	a2,fa0,fa1
    3668:	001028f3          	frflags	a7
    366c:	12c7a023          	sw	a2,288(a5)
    3670:	1317a223          	sw	a7,292(a5)

00003674 <inst_566>:
    3674:	1d082507          	flw	fa0,464(a6)
    3678:	1d482587          	flw	fa1,468(a6)
    367c:	a0b51653          	flt.s	a2,fa0,fa1
    3680:	001028f3          	frflags	a7
    3684:	12c7a423          	sw	a2,296(a5)
    3688:	1317a623          	sw	a7,300(a5)

0000368c <inst_567>:
    368c:	1d882507          	flw	fa0,472(a6)
    3690:	1dc82587          	flw	fa1,476(a6)
    3694:	a0b51653          	flt.s	a2,fa0,fa1
    3698:	001028f3          	frflags	a7
    369c:	12c7a823          	sw	a2,304(a5)
    36a0:	1317aa23          	sw	a7,308(a5)

000036a4 <inst_568>:
    36a4:	1e082507          	flw	fa0,480(a6)
    36a8:	1e482587          	flw	fa1,484(a6)
    36ac:	a0b51653          	flt.s	a2,fa0,fa1
    36b0:	001028f3          	frflags	a7
    36b4:	12c7ac23          	sw	a2,312(a5)
    36b8:	1317ae23          	sw	a7,316(a5)

000036bc <inst_569>:
    36bc:	1e882507          	flw	fa0,488(a6)
    36c0:	1ec82587          	flw	fa1,492(a6)
    36c4:	a0b51653          	flt.s	a2,fa0,fa1
    36c8:	001028f3          	frflags	a7
    36cc:	14c7a023          	sw	a2,320(a5)
    36d0:	1517a223          	sw	a7,324(a5)

000036d4 <inst_570>:
    36d4:	1f082507          	flw	fa0,496(a6)
    36d8:	1f482587          	flw	fa1,500(a6)
    36dc:	a0b51653          	flt.s	a2,fa0,fa1
    36e0:	001028f3          	frflags	a7
    36e4:	14c7a423          	sw	a2,328(a5)
    36e8:	1517a623          	sw	a7,332(a5)

000036ec <inst_571>:
    36ec:	1f882507          	flw	fa0,504(a6)
    36f0:	1fc82587          	flw	fa1,508(a6)
    36f4:	a0b51653          	flt.s	a2,fa0,fa1
    36f8:	001028f3          	frflags	a7
    36fc:	14c7a823          	sw	a2,336(a5)
    3700:	1517aa23          	sw	a7,340(a5)

00003704 <inst_572>:
    3704:	20082507          	flw	fa0,512(a6)
    3708:	20482587          	flw	fa1,516(a6)
    370c:	a0b51653          	flt.s	a2,fa0,fa1
    3710:	001028f3          	frflags	a7
    3714:	14c7ac23          	sw	a2,344(a5)
    3718:	1517ae23          	sw	a7,348(a5)

0000371c <inst_573>:
    371c:	20882507          	flw	fa0,520(a6)
    3720:	20c82587          	flw	fa1,524(a6)
    3724:	a0b51653          	flt.s	a2,fa0,fa1
    3728:	001028f3          	frflags	a7
    372c:	16c7a023          	sw	a2,352(a5)
    3730:	1717a223          	sw	a7,356(a5)

00003734 <inst_574>:
    3734:	21082507          	flw	fa0,528(a6)
    3738:	21482587          	flw	fa1,532(a6)
    373c:	a0b51653          	flt.s	a2,fa0,fa1
    3740:	001028f3          	frflags	a7
    3744:	16c7a423          	sw	a2,360(a5)
    3748:	1717a623          	sw	a7,364(a5)

0000374c <inst_575>:
    374c:	21882507          	flw	fa0,536(a6)
    3750:	21c82587          	flw	fa1,540(a6)
    3754:	a0b51653          	flt.s	a2,fa0,fa1
    3758:	001028f3          	frflags	a7
    375c:	16c7a823          	sw	a2,368(a5)
    3760:	1717aa23          	sw	a7,372(a5)

00003764 <inst_576>:
    3764:	22082507          	flw	fa0,544(a6)
    3768:	22482587          	flw	fa1,548(a6)
    376c:	a0b51653          	flt.s	a2,fa0,fa1
    3770:	001028f3          	frflags	a7
    3774:	16c7ac23          	sw	a2,376(a5)
    3778:	1717ae23          	sw	a7,380(a5)

0000377c <inst_577>:
    377c:	22882507          	flw	fa0,552(a6)
    3780:	22c82587          	flw	fa1,556(a6)
    3784:	a0b51653          	flt.s	a2,fa0,fa1
    3788:	001028f3          	frflags	a7
    378c:	18c7a023          	sw	a2,384(a5)
    3790:	1917a223          	sw	a7,388(a5)

00003794 <inst_578>:
    3794:	23082507          	flw	fa0,560(a6)
    3798:	23482587          	flw	fa1,564(a6)
    379c:	a0b51653          	flt.s	a2,fa0,fa1
    37a0:	001028f3          	frflags	a7
    37a4:	18c7a423          	sw	a2,392(a5)
    37a8:	1917a623          	sw	a7,396(a5)

000037ac <inst_579>:
    37ac:	23882507          	flw	fa0,568(a6)
    37b0:	23c82587          	flw	fa1,572(a6)
    37b4:	a0b51653          	flt.s	a2,fa0,fa1
    37b8:	001028f3          	frflags	a7
    37bc:	18c7a823          	sw	a2,400(a5)
    37c0:	1917aa23          	sw	a7,404(a5)

000037c4 <inst_580>:
    37c4:	24082507          	flw	fa0,576(a6)
    37c8:	24482587          	flw	fa1,580(a6)
    37cc:	a0b51653          	flt.s	a2,fa0,fa1
    37d0:	001028f3          	frflags	a7
    37d4:	18c7ac23          	sw	a2,408(a5)
    37d8:	1917ae23          	sw	a7,412(a5)

000037dc <inst_581>:
    37dc:	24882507          	flw	fa0,584(a6)
    37e0:	24c82587          	flw	fa1,588(a6)
    37e4:	a0b51653          	flt.s	a2,fa0,fa1
    37e8:	001028f3          	frflags	a7
    37ec:	1ac7a023          	sw	a2,416(a5)
    37f0:	1b17a223          	sw	a7,420(a5)

000037f4 <inst_582>:
    37f4:	25082507          	flw	fa0,592(a6)
    37f8:	25482587          	flw	fa1,596(a6)
    37fc:	a0b51653          	flt.s	a2,fa0,fa1
    3800:	001028f3          	frflags	a7
    3804:	1ac7a423          	sw	a2,424(a5)
    3808:	1b17a623          	sw	a7,428(a5)

0000380c <inst_583>:
    380c:	25882507          	flw	fa0,600(a6)
    3810:	25c82587          	flw	fa1,604(a6)
    3814:	a0b51653          	flt.s	a2,fa0,fa1
    3818:	001028f3          	frflags	a7
    381c:	1ac7a823          	sw	a2,432(a5)
    3820:	1b17aa23          	sw	a7,436(a5)

00003824 <inst_584>:
    3824:	26082507          	flw	fa0,608(a6)
    3828:	26482587          	flw	fa1,612(a6)
    382c:	a0b51653          	flt.s	a2,fa0,fa1
    3830:	001028f3          	frflags	a7
    3834:	1ac7ac23          	sw	a2,440(a5)
    3838:	1b17ae23          	sw	a7,444(a5)

0000383c <inst_585>:
    383c:	26882507          	flw	fa0,616(a6)
    3840:	26c82587          	flw	fa1,620(a6)
    3844:	a0b51653          	flt.s	a2,fa0,fa1
    3848:	001028f3          	frflags	a7
    384c:	1cc7a023          	sw	a2,448(a5)
    3850:	1d17a223          	sw	a7,452(a5)

00003854 <inst_586>:
    3854:	27082507          	flw	fa0,624(a6)
    3858:	27482587          	flw	fa1,628(a6)
    385c:	a0b51653          	flt.s	a2,fa0,fa1
    3860:	001028f3          	frflags	a7
    3864:	1cc7a423          	sw	a2,456(a5)
    3868:	1d17a623          	sw	a7,460(a5)

0000386c <inst_587>:
    386c:	27882507          	flw	fa0,632(a6)
    3870:	27c82587          	flw	fa1,636(a6)
    3874:	a0b51653          	flt.s	a2,fa0,fa1
    3878:	001028f3          	frflags	a7
    387c:	1cc7a823          	sw	a2,464(a5)
    3880:	1d17aa23          	sw	a7,468(a5)

00003884 <inst_588>:
    3884:	28082507          	flw	fa0,640(a6)
    3888:	28482587          	flw	fa1,644(a6)
    388c:	a0b51653          	flt.s	a2,fa0,fa1
    3890:	001028f3          	frflags	a7
    3894:	1cc7ac23          	sw	a2,472(a5)
    3898:	1d17ae23          	sw	a7,476(a5)

0000389c <inst_589>:
    389c:	28882507          	flw	fa0,648(a6)
    38a0:	28c82587          	flw	fa1,652(a6)
    38a4:	a0b51653          	flt.s	a2,fa0,fa1
    38a8:	001028f3          	frflags	a7
    38ac:	1ec7a023          	sw	a2,480(a5)
    38b0:	1f17a223          	sw	a7,484(a5)

000038b4 <inst_590>:
    38b4:	29082507          	flw	fa0,656(a6)
    38b8:	29482587          	flw	fa1,660(a6)
    38bc:	a0b51653          	flt.s	a2,fa0,fa1
    38c0:	001028f3          	frflags	a7
    38c4:	1ec7a423          	sw	a2,488(a5)
    38c8:	1f17a623          	sw	a7,492(a5)

000038cc <inst_591>:
    38cc:	29882507          	flw	fa0,664(a6)
    38d0:	29c82587          	flw	fa1,668(a6)
    38d4:	a0b51653          	flt.s	a2,fa0,fa1
    38d8:	001028f3          	frflags	a7
    38dc:	1ec7a823          	sw	a2,496(a5)
    38e0:	1f17aa23          	sw	a7,500(a5)

000038e4 <inst_592>:
    38e4:	2a082507          	flw	fa0,672(a6)
    38e8:	2a482587          	flw	fa1,676(a6)
    38ec:	a0b51653          	flt.s	a2,fa0,fa1
    38f0:	001028f3          	frflags	a7
    38f4:	1ec7ac23          	sw	a2,504(a5)
    38f8:	1f17ae23          	sw	a7,508(a5)

000038fc <inst_593>:
    38fc:	2a882507          	flw	fa0,680(a6)
    3900:	2ac82587          	flw	fa1,684(a6)
    3904:	a0b51653          	flt.s	a2,fa0,fa1
    3908:	001028f3          	frflags	a7
    390c:	20c7a023          	sw	a2,512(a5)
    3910:	2117a223          	sw	a7,516(a5)

00003914 <inst_594>:
    3914:	2b082507          	flw	fa0,688(a6)
    3918:	2b482587          	flw	fa1,692(a6)
    391c:	a0b51653          	flt.s	a2,fa0,fa1
    3920:	001028f3          	frflags	a7
    3924:	20c7a423          	sw	a2,520(a5)
    3928:	2117a623          	sw	a7,524(a5)

0000392c <inst_595>:
    392c:	2b882507          	flw	fa0,696(a6)
    3930:	2bc82587          	flw	fa1,700(a6)
    3934:	a0b51653          	flt.s	a2,fa0,fa1
    3938:	001028f3          	frflags	a7
    393c:	20c7a823          	sw	a2,528(a5)
    3940:	2117aa23          	sw	a7,532(a5)

00003944 <inst_596>:
    3944:	2c082507          	flw	fa0,704(a6)
    3948:	2c482587          	flw	fa1,708(a6)
    394c:	a0b51653          	flt.s	a2,fa0,fa1
    3950:	001028f3          	frflags	a7
    3954:	20c7ac23          	sw	a2,536(a5)
    3958:	2117ae23          	sw	a7,540(a5)

0000395c <inst_597>:
    395c:	2c882507          	flw	fa0,712(a6)
    3960:	2cc82587          	flw	fa1,716(a6)
    3964:	a0b51653          	flt.s	a2,fa0,fa1
    3968:	001028f3          	frflags	a7
    396c:	22c7a023          	sw	a2,544(a5)
    3970:	2317a223          	sw	a7,548(a5)

00003974 <inst_598>:
    3974:	2d082507          	flw	fa0,720(a6)
    3978:	2d482587          	flw	fa1,724(a6)
    397c:	a0b51653          	flt.s	a2,fa0,fa1
    3980:	001028f3          	frflags	a7
    3984:	22c7a423          	sw	a2,552(a5)
    3988:	2317a623          	sw	a7,556(a5)

0000398c <inst_599>:
    398c:	2d882507          	flw	fa0,728(a6)
    3990:	2dc82587          	flw	fa1,732(a6)
    3994:	a0b51653          	flt.s	a2,fa0,fa1
    3998:	001028f3          	frflags	a7
    399c:	22c7a823          	sw	a2,560(a5)
    39a0:	2317aa23          	sw	a7,564(a5)

000039a4 <inst_600>:
    39a4:	2e082507          	flw	fa0,736(a6)
    39a8:	2e482587          	flw	fa1,740(a6)
    39ac:	a0b51653          	flt.s	a2,fa0,fa1
    39b0:	001028f3          	frflags	a7
    39b4:	22c7ac23          	sw	a2,568(a5)
    39b8:	2317ae23          	sw	a7,572(a5)

000039bc <inst_601>:
    39bc:	2e882507          	flw	fa0,744(a6)
    39c0:	2ec82587          	flw	fa1,748(a6)
    39c4:	a0b51653          	flt.s	a2,fa0,fa1
    39c8:	001028f3          	frflags	a7
    39cc:	24c7a023          	sw	a2,576(a5)
    39d0:	2517a223          	sw	a7,580(a5)

000039d4 <inst_602>:
    39d4:	2f082507          	flw	fa0,752(a6)
    39d8:	2f482587          	flw	fa1,756(a6)
    39dc:	a0b51653          	flt.s	a2,fa0,fa1
    39e0:	001028f3          	frflags	a7
    39e4:	24c7a423          	sw	a2,584(a5)
    39e8:	2517a623          	sw	a7,588(a5)

000039ec <inst_603>:
    39ec:	2f882507          	flw	fa0,760(a6)
    39f0:	2fc82587          	flw	fa1,764(a6)
    39f4:	a0b51653          	flt.s	a2,fa0,fa1
    39f8:	001028f3          	frflags	a7
    39fc:	24c7a823          	sw	a2,592(a5)
    3a00:	2517aa23          	sw	a7,596(a5)

00003a04 <inst_604>:
    3a04:	30082507          	flw	fa0,768(a6)
    3a08:	30482587          	flw	fa1,772(a6)
    3a0c:	a0b51653          	flt.s	a2,fa0,fa1
    3a10:	001028f3          	frflags	a7
    3a14:	24c7ac23          	sw	a2,600(a5)
    3a18:	2517ae23          	sw	a7,604(a5)

00003a1c <inst_605>:
    3a1c:	30882507          	flw	fa0,776(a6)
    3a20:	30c82587          	flw	fa1,780(a6)
    3a24:	a0b51653          	flt.s	a2,fa0,fa1
    3a28:	001028f3          	frflags	a7
    3a2c:	26c7a023          	sw	a2,608(a5)
    3a30:	2717a223          	sw	a7,612(a5)

00003a34 <inst_606>:
    3a34:	31082507          	flw	fa0,784(a6)
    3a38:	31482587          	flw	fa1,788(a6)
    3a3c:	a0b51653          	flt.s	a2,fa0,fa1
    3a40:	001028f3          	frflags	a7
    3a44:	26c7a423          	sw	a2,616(a5)
    3a48:	2717a623          	sw	a7,620(a5)

00003a4c <inst_607>:
    3a4c:	31882507          	flw	fa0,792(a6)
    3a50:	31c82587          	flw	fa1,796(a6)
    3a54:	a0b51653          	flt.s	a2,fa0,fa1
    3a58:	001028f3          	frflags	a7
    3a5c:	26c7a823          	sw	a2,624(a5)
    3a60:	2717aa23          	sw	a7,628(a5)

00003a64 <inst_608>:
    3a64:	32082507          	flw	fa0,800(a6)
    3a68:	32482587          	flw	fa1,804(a6)
    3a6c:	a0b51653          	flt.s	a2,fa0,fa1
    3a70:	001028f3          	frflags	a7
    3a74:	26c7ac23          	sw	a2,632(a5)
    3a78:	2717ae23          	sw	a7,636(a5)

00003a7c <inst_609>:
    3a7c:	32882507          	flw	fa0,808(a6)
    3a80:	32c82587          	flw	fa1,812(a6)
    3a84:	a0b51653          	flt.s	a2,fa0,fa1
    3a88:	001028f3          	frflags	a7
    3a8c:	28c7a023          	sw	a2,640(a5)
    3a90:	2917a223          	sw	a7,644(a5)

00003a94 <inst_610>:
    3a94:	33082507          	flw	fa0,816(a6)
    3a98:	33482587          	flw	fa1,820(a6)
    3a9c:	a0b51653          	flt.s	a2,fa0,fa1
    3aa0:	001028f3          	frflags	a7
    3aa4:	28c7a423          	sw	a2,648(a5)
    3aa8:	2917a623          	sw	a7,652(a5)

00003aac <inst_611>:
    3aac:	33882507          	flw	fa0,824(a6)
    3ab0:	33c82587          	flw	fa1,828(a6)
    3ab4:	a0b51653          	flt.s	a2,fa0,fa1
    3ab8:	001028f3          	frflags	a7
    3abc:	28c7a823          	sw	a2,656(a5)
    3ac0:	2917aa23          	sw	a7,660(a5)

00003ac4 <inst_612>:
    3ac4:	34082507          	flw	fa0,832(a6)
    3ac8:	34482587          	flw	fa1,836(a6)
    3acc:	a0b51653          	flt.s	a2,fa0,fa1
    3ad0:	001028f3          	frflags	a7
    3ad4:	28c7ac23          	sw	a2,664(a5)
    3ad8:	2917ae23          	sw	a7,668(a5)

00003adc <inst_613>:
    3adc:	34882507          	flw	fa0,840(a6)
    3ae0:	34c82587          	flw	fa1,844(a6)
    3ae4:	a0b51653          	flt.s	a2,fa0,fa1
    3ae8:	001028f3          	frflags	a7
    3aec:	2ac7a023          	sw	a2,672(a5)
    3af0:	2b17a223          	sw	a7,676(a5)

00003af4 <inst_614>:
    3af4:	35082507          	flw	fa0,848(a6)
    3af8:	35482587          	flw	fa1,852(a6)
    3afc:	a0b51653          	flt.s	a2,fa0,fa1
    3b00:	001028f3          	frflags	a7
    3b04:	2ac7a423          	sw	a2,680(a5)
    3b08:	2b17a623          	sw	a7,684(a5)

00003b0c <inst_615>:
    3b0c:	35882507          	flw	fa0,856(a6)
    3b10:	35c82587          	flw	fa1,860(a6)
    3b14:	a0b51653          	flt.s	a2,fa0,fa1
    3b18:	001028f3          	frflags	a7
    3b1c:	2ac7a823          	sw	a2,688(a5)
    3b20:	2b17aa23          	sw	a7,692(a5)

00003b24 <inst_616>:
    3b24:	36082507          	flw	fa0,864(a6)
    3b28:	36482587          	flw	fa1,868(a6)
    3b2c:	a0b51653          	flt.s	a2,fa0,fa1
    3b30:	001028f3          	frflags	a7
    3b34:	2ac7ac23          	sw	a2,696(a5)
    3b38:	2b17ae23          	sw	a7,700(a5)

00003b3c <inst_617>:
    3b3c:	36882507          	flw	fa0,872(a6)
    3b40:	36c82587          	flw	fa1,876(a6)
    3b44:	a0b51653          	flt.s	a2,fa0,fa1
    3b48:	001028f3          	frflags	a7
    3b4c:	2cc7a023          	sw	a2,704(a5)
    3b50:	2d17a223          	sw	a7,708(a5)

00003b54 <inst_618>:
    3b54:	37082507          	flw	fa0,880(a6)
    3b58:	37482587          	flw	fa1,884(a6)
    3b5c:	a0b51653          	flt.s	a2,fa0,fa1
    3b60:	001028f3          	frflags	a7
    3b64:	2cc7a423          	sw	a2,712(a5)
    3b68:	2d17a623          	sw	a7,716(a5)

00003b6c <inst_619>:
    3b6c:	37882507          	flw	fa0,888(a6)
    3b70:	37c82587          	flw	fa1,892(a6)
    3b74:	a0b51653          	flt.s	a2,fa0,fa1
    3b78:	001028f3          	frflags	a7
    3b7c:	2cc7a823          	sw	a2,720(a5)
    3b80:	2d17aa23          	sw	a7,724(a5)

00003b84 <inst_620>:
    3b84:	38082507          	flw	fa0,896(a6)
    3b88:	38482587          	flw	fa1,900(a6)
    3b8c:	a0b51653          	flt.s	a2,fa0,fa1
    3b90:	001028f3          	frflags	a7
    3b94:	2cc7ac23          	sw	a2,728(a5)
    3b98:	2d17ae23          	sw	a7,732(a5)

00003b9c <inst_621>:
    3b9c:	38882507          	flw	fa0,904(a6)
    3ba0:	38c82587          	flw	fa1,908(a6)
    3ba4:	a0b51653          	flt.s	a2,fa0,fa1
    3ba8:	001028f3          	frflags	a7
    3bac:	2ec7a023          	sw	a2,736(a5)
    3bb0:	2f17a223          	sw	a7,740(a5)

00003bb4 <inst_622>:
    3bb4:	39082507          	flw	fa0,912(a6)
    3bb8:	39482587          	flw	fa1,916(a6)
    3bbc:	a0b51653          	flt.s	a2,fa0,fa1
    3bc0:	001028f3          	frflags	a7
    3bc4:	2ec7a423          	sw	a2,744(a5)
    3bc8:	2f17a623          	sw	a7,748(a5)

00003bcc <inst_623>:
    3bcc:	39882507          	flw	fa0,920(a6)
    3bd0:	39c82587          	flw	fa1,924(a6)
    3bd4:	a0b51653          	flt.s	a2,fa0,fa1
    3bd8:	001028f3          	frflags	a7
    3bdc:	2ec7a823          	sw	a2,752(a5)
    3be0:	2f17aa23          	sw	a7,756(a5)

00003be4 <inst_624>:
    3be4:	3a082507          	flw	fa0,928(a6)
    3be8:	3a482587          	flw	fa1,932(a6)
    3bec:	a0b51653          	flt.s	a2,fa0,fa1
    3bf0:	001028f3          	frflags	a7
    3bf4:	2ec7ac23          	sw	a2,760(a5)
    3bf8:	2f17ae23          	sw	a7,764(a5)

00003bfc <inst_625>:
    3bfc:	3a882507          	flw	fa0,936(a6)
    3c00:	3ac82587          	flw	fa1,940(a6)
    3c04:	a0b51653          	flt.s	a2,fa0,fa1
    3c08:	001028f3          	frflags	a7
    3c0c:	30c7a023          	sw	a2,768(a5)
    3c10:	3117a223          	sw	a7,772(a5)

00003c14 <inst_626>:
    3c14:	3b082507          	flw	fa0,944(a6)
    3c18:	3b482587          	flw	fa1,948(a6)
    3c1c:	a0b51653          	flt.s	a2,fa0,fa1
    3c20:	001028f3          	frflags	a7
    3c24:	30c7a423          	sw	a2,776(a5)
    3c28:	3117a623          	sw	a7,780(a5)

00003c2c <inst_627>:
    3c2c:	3b882507          	flw	fa0,952(a6)
    3c30:	3bc82587          	flw	fa1,956(a6)
    3c34:	a0b51653          	flt.s	a2,fa0,fa1
    3c38:	001028f3          	frflags	a7
    3c3c:	30c7a823          	sw	a2,784(a5)
    3c40:	3117aa23          	sw	a7,788(a5)

00003c44 <inst_628>:
    3c44:	3c082507          	flw	fa0,960(a6)
    3c48:	3c482587          	flw	fa1,964(a6)
    3c4c:	a0b51653          	flt.s	a2,fa0,fa1
    3c50:	001028f3          	frflags	a7
    3c54:	30c7ac23          	sw	a2,792(a5)
    3c58:	3117ae23          	sw	a7,796(a5)

00003c5c <inst_629>:
    3c5c:	3c882507          	flw	fa0,968(a6)
    3c60:	3cc82587          	flw	fa1,972(a6)
    3c64:	a0b51653          	flt.s	a2,fa0,fa1
    3c68:	001028f3          	frflags	a7
    3c6c:	32c7a023          	sw	a2,800(a5)
    3c70:	3317a223          	sw	a7,804(a5)

00003c74 <inst_630>:
    3c74:	3d082507          	flw	fa0,976(a6)
    3c78:	3d482587          	flw	fa1,980(a6)
    3c7c:	a0b51653          	flt.s	a2,fa0,fa1
    3c80:	001028f3          	frflags	a7
    3c84:	32c7a423          	sw	a2,808(a5)
    3c88:	3317a623          	sw	a7,812(a5)

00003c8c <inst_631>:
    3c8c:	3d882507          	flw	fa0,984(a6)
    3c90:	3dc82587          	flw	fa1,988(a6)
    3c94:	a0b51653          	flt.s	a2,fa0,fa1
    3c98:	001028f3          	frflags	a7
    3c9c:	32c7a823          	sw	a2,816(a5)
    3ca0:	3317aa23          	sw	a7,820(a5)

00003ca4 <inst_632>:
    3ca4:	3e082507          	flw	fa0,992(a6)
    3ca8:	3e482587          	flw	fa1,996(a6)
    3cac:	a0b51653          	flt.s	a2,fa0,fa1
    3cb0:	001028f3          	frflags	a7
    3cb4:	32c7ac23          	sw	a2,824(a5)
    3cb8:	3317ae23          	sw	a7,828(a5)

00003cbc <inst_633>:
    3cbc:	3e882507          	flw	fa0,1000(a6)
    3cc0:	3ec82587          	flw	fa1,1004(a6)
    3cc4:	a0b51653          	flt.s	a2,fa0,fa1
    3cc8:	001028f3          	frflags	a7
    3ccc:	34c7a023          	sw	a2,832(a5)
    3cd0:	3517a223          	sw	a7,836(a5)

00003cd4 <inst_634>:
    3cd4:	3f082507          	flw	fa0,1008(a6)
    3cd8:	3f482587          	flw	fa1,1012(a6)
    3cdc:	a0b51653          	flt.s	a2,fa0,fa1
    3ce0:	001028f3          	frflags	a7
    3ce4:	34c7a423          	sw	a2,840(a5)
    3ce8:	3517a623          	sw	a7,844(a5)

00003cec <inst_635>:
    3cec:	3f882507          	flw	fa0,1016(a6)
    3cf0:	3fc82587          	flw	fa1,1020(a6)
    3cf4:	a0b51653          	flt.s	a2,fa0,fa1
    3cf8:	001028f3          	frflags	a7
    3cfc:	34c7a823          	sw	a2,848(a5)
    3d00:	3517aa23          	sw	a7,852(a5)

00003d04 <inst_636>:
    3d04:	40082507          	flw	fa0,1024(a6)
    3d08:	40482587          	flw	fa1,1028(a6)
    3d0c:	a0b51653          	flt.s	a2,fa0,fa1
    3d10:	001028f3          	frflags	a7
    3d14:	34c7ac23          	sw	a2,856(a5)
    3d18:	3517ae23          	sw	a7,860(a5)

00003d1c <inst_637>:
    3d1c:	40882507          	flw	fa0,1032(a6)
    3d20:	40c82587          	flw	fa1,1036(a6)
    3d24:	a0b51653          	flt.s	a2,fa0,fa1
    3d28:	001028f3          	frflags	a7
    3d2c:	36c7a023          	sw	a2,864(a5)
    3d30:	3717a223          	sw	a7,868(a5)

00003d34 <inst_638>:
    3d34:	41082507          	flw	fa0,1040(a6)
    3d38:	41482587          	flw	fa1,1044(a6)
    3d3c:	a0b51653          	flt.s	a2,fa0,fa1
    3d40:	001028f3          	frflags	a7
    3d44:	36c7a423          	sw	a2,872(a5)
    3d48:	3717a623          	sw	a7,876(a5)

00003d4c <inst_639>:
    3d4c:	41882507          	flw	fa0,1048(a6)
    3d50:	41c82587          	flw	fa1,1052(a6)
    3d54:	a0b51653          	flt.s	a2,fa0,fa1
    3d58:	001028f3          	frflags	a7
    3d5c:	36c7a823          	sw	a2,880(a5)
    3d60:	3717aa23          	sw	a7,884(a5)

00003d64 <inst_640>:
    3d64:	42082507          	flw	fa0,1056(a6)
    3d68:	42482587          	flw	fa1,1060(a6)
    3d6c:	a0b51653          	flt.s	a2,fa0,fa1
    3d70:	001028f3          	frflags	a7
    3d74:	36c7ac23          	sw	a2,888(a5)
    3d78:	3717ae23          	sw	a7,892(a5)

00003d7c <inst_641>:
    3d7c:	42882507          	flw	fa0,1064(a6)
    3d80:	42c82587          	flw	fa1,1068(a6)
    3d84:	a0b51653          	flt.s	a2,fa0,fa1
    3d88:	001028f3          	frflags	a7
    3d8c:	38c7a023          	sw	a2,896(a5)
    3d90:	3917a223          	sw	a7,900(a5)

00003d94 <inst_642>:
    3d94:	43082507          	flw	fa0,1072(a6)
    3d98:	43482587          	flw	fa1,1076(a6)
    3d9c:	a0b51653          	flt.s	a2,fa0,fa1
    3da0:	001028f3          	frflags	a7
    3da4:	38c7a423          	sw	a2,904(a5)
    3da8:	3917a623          	sw	a7,908(a5)

00003dac <inst_643>:
    3dac:	43882507          	flw	fa0,1080(a6)
    3db0:	43c82587          	flw	fa1,1084(a6)
    3db4:	a0b51653          	flt.s	a2,fa0,fa1
    3db8:	001028f3          	frflags	a7
    3dbc:	38c7a823          	sw	a2,912(a5)
    3dc0:	3917aa23          	sw	a7,916(a5)

00003dc4 <inst_644>:
    3dc4:	44082507          	flw	fa0,1088(a6)
    3dc8:	44482587          	flw	fa1,1092(a6)
    3dcc:	a0b51653          	flt.s	a2,fa0,fa1
    3dd0:	001028f3          	frflags	a7
    3dd4:	38c7ac23          	sw	a2,920(a5)
    3dd8:	3917ae23          	sw	a7,924(a5)

00003ddc <inst_645>:
    3ddc:	44882507          	flw	fa0,1096(a6)
    3de0:	44c82587          	flw	fa1,1100(a6)
    3de4:	a0b51653          	flt.s	a2,fa0,fa1
    3de8:	001028f3          	frflags	a7
    3dec:	3ac7a023          	sw	a2,928(a5)
    3df0:	3b17a223          	sw	a7,932(a5)

00003df4 <inst_646>:
    3df4:	45082507          	flw	fa0,1104(a6)
    3df8:	45482587          	flw	fa1,1108(a6)
    3dfc:	a0b51653          	flt.s	a2,fa0,fa1
    3e00:	001028f3          	frflags	a7
    3e04:	3ac7a423          	sw	a2,936(a5)
    3e08:	3b17a623          	sw	a7,940(a5)

00003e0c <inst_647>:
    3e0c:	45882507          	flw	fa0,1112(a6)
    3e10:	45c82587          	flw	fa1,1116(a6)
    3e14:	a0b51653          	flt.s	a2,fa0,fa1
    3e18:	001028f3          	frflags	a7
    3e1c:	3ac7a823          	sw	a2,944(a5)
    3e20:	3b17aa23          	sw	a7,948(a5)

00003e24 <inst_648>:
    3e24:	46082507          	flw	fa0,1120(a6)
    3e28:	46482587          	flw	fa1,1124(a6)
    3e2c:	a0b51653          	flt.s	a2,fa0,fa1
    3e30:	001028f3          	frflags	a7
    3e34:	3ac7ac23          	sw	a2,952(a5)
    3e38:	3b17ae23          	sw	a7,956(a5)

00003e3c <inst_649>:
    3e3c:	46882507          	flw	fa0,1128(a6)
    3e40:	46c82587          	flw	fa1,1132(a6)
    3e44:	a0b51653          	flt.s	a2,fa0,fa1
    3e48:	001028f3          	frflags	a7
    3e4c:	3cc7a023          	sw	a2,960(a5)
    3e50:	3d17a223          	sw	a7,964(a5)

00003e54 <inst_650>:
    3e54:	47082507          	flw	fa0,1136(a6)
    3e58:	47482587          	flw	fa1,1140(a6)
    3e5c:	a0b51653          	flt.s	a2,fa0,fa1
    3e60:	001028f3          	frflags	a7
    3e64:	3cc7a423          	sw	a2,968(a5)
    3e68:	3d17a623          	sw	a7,972(a5)

00003e6c <inst_651>:
    3e6c:	47882507          	flw	fa0,1144(a6)
    3e70:	47c82587          	flw	fa1,1148(a6)
    3e74:	a0b51653          	flt.s	a2,fa0,fa1
    3e78:	001028f3          	frflags	a7
    3e7c:	3cc7a823          	sw	a2,976(a5)
    3e80:	3d17aa23          	sw	a7,980(a5)

00003e84 <inst_652>:
    3e84:	48082507          	flw	fa0,1152(a6)
    3e88:	48482587          	flw	fa1,1156(a6)
    3e8c:	a0b51653          	flt.s	a2,fa0,fa1
    3e90:	001028f3          	frflags	a7
    3e94:	3cc7ac23          	sw	a2,984(a5)
    3e98:	3d17ae23          	sw	a7,988(a5)

00003e9c <inst_653>:
    3e9c:	48882507          	flw	fa0,1160(a6)
    3ea0:	48c82587          	flw	fa1,1164(a6)
    3ea4:	a0b51653          	flt.s	a2,fa0,fa1
    3ea8:	001028f3          	frflags	a7
    3eac:	3ec7a023          	sw	a2,992(a5)
    3eb0:	3f17a223          	sw	a7,996(a5)

00003eb4 <inst_654>:
    3eb4:	49082507          	flw	fa0,1168(a6)
    3eb8:	49482587          	flw	fa1,1172(a6)
    3ebc:	a0b51653          	flt.s	a2,fa0,fa1
    3ec0:	001028f3          	frflags	a7
    3ec4:	3ec7a423          	sw	a2,1000(a5)
    3ec8:	3f17a623          	sw	a7,1004(a5)

00003ecc <inst_655>:
    3ecc:	49882507          	flw	fa0,1176(a6)
    3ed0:	49c82587          	flw	fa1,1180(a6)
    3ed4:	a0b51653          	flt.s	a2,fa0,fa1
    3ed8:	001028f3          	frflags	a7
    3edc:	3ec7a823          	sw	a2,1008(a5)
    3ee0:	3f17aa23          	sw	a7,1012(a5)

00003ee4 <inst_656>:
    3ee4:	4a082507          	flw	fa0,1184(a6)
    3ee8:	4a482587          	flw	fa1,1188(a6)
    3eec:	a0b51653          	flt.s	a2,fa0,fa1
    3ef0:	001028f3          	frflags	a7
    3ef4:	3ec7ac23          	sw	a2,1016(a5)
    3ef8:	3f17ae23          	sw	a7,1020(a5)

00003efc <inst_657>:
    3efc:	4a882507          	flw	fa0,1192(a6)
    3f00:	4ac82587          	flw	fa1,1196(a6)
    3f04:	a0b51653          	flt.s	a2,fa0,fa1
    3f08:	001028f3          	frflags	a7
    3f0c:	40c7a023          	sw	a2,1024(a5)
    3f10:	4117a223          	sw	a7,1028(a5)

00003f14 <inst_658>:
    3f14:	4b082507          	flw	fa0,1200(a6)
    3f18:	4b482587          	flw	fa1,1204(a6)
    3f1c:	a0b51653          	flt.s	a2,fa0,fa1
    3f20:	001028f3          	frflags	a7
    3f24:	40c7a423          	sw	a2,1032(a5)
    3f28:	4117a623          	sw	a7,1036(a5)

00003f2c <inst_659>:
    3f2c:	4b882507          	flw	fa0,1208(a6)
    3f30:	4bc82587          	flw	fa1,1212(a6)
    3f34:	a0b51653          	flt.s	a2,fa0,fa1
    3f38:	001028f3          	frflags	a7
    3f3c:	40c7a823          	sw	a2,1040(a5)
    3f40:	4117aa23          	sw	a7,1044(a5)

00003f44 <inst_660>:
    3f44:	4c082507          	flw	fa0,1216(a6)
    3f48:	4c482587          	flw	fa1,1220(a6)
    3f4c:	a0b51653          	flt.s	a2,fa0,fa1
    3f50:	001028f3          	frflags	a7
    3f54:	40c7ac23          	sw	a2,1048(a5)
    3f58:	4117ae23          	sw	a7,1052(a5)

00003f5c <inst_661>:
    3f5c:	4c882507          	flw	fa0,1224(a6)
    3f60:	4cc82587          	flw	fa1,1228(a6)
    3f64:	a0b51653          	flt.s	a2,fa0,fa1
    3f68:	001028f3          	frflags	a7
    3f6c:	42c7a023          	sw	a2,1056(a5)
    3f70:	4317a223          	sw	a7,1060(a5)

00003f74 <inst_662>:
    3f74:	4d082507          	flw	fa0,1232(a6)
    3f78:	4d482587          	flw	fa1,1236(a6)
    3f7c:	a0b51653          	flt.s	a2,fa0,fa1
    3f80:	001028f3          	frflags	a7
    3f84:	42c7a423          	sw	a2,1064(a5)
    3f88:	4317a623          	sw	a7,1068(a5)

00003f8c <inst_663>:
    3f8c:	4d882507          	flw	fa0,1240(a6)
    3f90:	4dc82587          	flw	fa1,1244(a6)
    3f94:	a0b51653          	flt.s	a2,fa0,fa1
    3f98:	001028f3          	frflags	a7
    3f9c:	42c7a823          	sw	a2,1072(a5)
    3fa0:	4317aa23          	sw	a7,1076(a5)

00003fa4 <inst_664>:
    3fa4:	4e082507          	flw	fa0,1248(a6)
    3fa8:	4e482587          	flw	fa1,1252(a6)
    3fac:	a0b51653          	flt.s	a2,fa0,fa1
    3fb0:	001028f3          	frflags	a7
    3fb4:	42c7ac23          	sw	a2,1080(a5)
    3fb8:	4317ae23          	sw	a7,1084(a5)

00003fbc <inst_665>:
    3fbc:	4e882507          	flw	fa0,1256(a6)
    3fc0:	4ec82587          	flw	fa1,1260(a6)
    3fc4:	a0b51653          	flt.s	a2,fa0,fa1
    3fc8:	001028f3          	frflags	a7
    3fcc:	44c7a023          	sw	a2,1088(a5)
    3fd0:	4517a223          	sw	a7,1092(a5)

00003fd4 <inst_666>:
    3fd4:	4f082507          	flw	fa0,1264(a6)
    3fd8:	4f482587          	flw	fa1,1268(a6)
    3fdc:	a0b51653          	flt.s	a2,fa0,fa1
    3fe0:	001028f3          	frflags	a7
    3fe4:	44c7a423          	sw	a2,1096(a5)
    3fe8:	4517a623          	sw	a7,1100(a5)

00003fec <inst_667>:
    3fec:	4f882507          	flw	fa0,1272(a6)
    3ff0:	4fc82587          	flw	fa1,1276(a6)
    3ff4:	a0b51653          	flt.s	a2,fa0,fa1
    3ff8:	001028f3          	frflags	a7
    3ffc:	44c7a823          	sw	a2,1104(a5)
    4000:	4517aa23          	sw	a7,1108(a5)

00004004 <inst_668>:
    4004:	50082507          	flw	fa0,1280(a6)
    4008:	50482587          	flw	fa1,1284(a6)
    400c:	a0b51653          	flt.s	a2,fa0,fa1
    4010:	001028f3          	frflags	a7
    4014:	44c7ac23          	sw	a2,1112(a5)
    4018:	4517ae23          	sw	a7,1116(a5)

0000401c <inst_669>:
    401c:	50882507          	flw	fa0,1288(a6)
    4020:	50c82587          	flw	fa1,1292(a6)
    4024:	a0b51653          	flt.s	a2,fa0,fa1
    4028:	001028f3          	frflags	a7
    402c:	46c7a023          	sw	a2,1120(a5)
    4030:	4717a223          	sw	a7,1124(a5)

00004034 <inst_670>:
    4034:	51082507          	flw	fa0,1296(a6)
    4038:	51482587          	flw	fa1,1300(a6)
    403c:	a0b51653          	flt.s	a2,fa0,fa1
    4040:	001028f3          	frflags	a7
    4044:	46c7a423          	sw	a2,1128(a5)
    4048:	4717a623          	sw	a7,1132(a5)

0000404c <inst_671>:
    404c:	51882507          	flw	fa0,1304(a6)
    4050:	51c82587          	flw	fa1,1308(a6)
    4054:	a0b51653          	flt.s	a2,fa0,fa1
    4058:	001028f3          	frflags	a7
    405c:	46c7a823          	sw	a2,1136(a5)
    4060:	4717aa23          	sw	a7,1140(a5)

00004064 <inst_672>:
    4064:	52082507          	flw	fa0,1312(a6)
    4068:	52482587          	flw	fa1,1316(a6)
    406c:	a0b51653          	flt.s	a2,fa0,fa1
    4070:	001028f3          	frflags	a7
    4074:	46c7ac23          	sw	a2,1144(a5)
    4078:	4717ae23          	sw	a7,1148(a5)

0000407c <inst_673>:
    407c:	52882507          	flw	fa0,1320(a6)
    4080:	52c82587          	flw	fa1,1324(a6)
    4084:	a0b51653          	flt.s	a2,fa0,fa1
    4088:	001028f3          	frflags	a7
    408c:	48c7a023          	sw	a2,1152(a5)
    4090:	4917a223          	sw	a7,1156(a5)

00004094 <inst_674>:
    4094:	53082507          	flw	fa0,1328(a6)
    4098:	53482587          	flw	fa1,1332(a6)
    409c:	a0b51653          	flt.s	a2,fa0,fa1
    40a0:	001028f3          	frflags	a7
    40a4:	48c7a423          	sw	a2,1160(a5)
    40a8:	4917a623          	sw	a7,1164(a5)

000040ac <inst_675>:
    40ac:	53882507          	flw	fa0,1336(a6)
    40b0:	53c82587          	flw	fa1,1340(a6)
    40b4:	a0b51653          	flt.s	a2,fa0,fa1
    40b8:	001028f3          	frflags	a7
    40bc:	48c7a823          	sw	a2,1168(a5)
    40c0:	4917aa23          	sw	a7,1172(a5)

000040c4 <inst_676>:
    40c4:	54082507          	flw	fa0,1344(a6)
    40c8:	54482587          	flw	fa1,1348(a6)
    40cc:	a0b51653          	flt.s	a2,fa0,fa1
    40d0:	001028f3          	frflags	a7
    40d4:	48c7ac23          	sw	a2,1176(a5)
    40d8:	4917ae23          	sw	a7,1180(a5)

000040dc <inst_677>:
    40dc:	54882507          	flw	fa0,1352(a6)
    40e0:	54c82587          	flw	fa1,1356(a6)
    40e4:	a0b51653          	flt.s	a2,fa0,fa1
    40e8:	001028f3          	frflags	a7
    40ec:	4ac7a023          	sw	a2,1184(a5)
    40f0:	4b17a223          	sw	a7,1188(a5)

000040f4 <inst_678>:
    40f4:	55082507          	flw	fa0,1360(a6)
    40f8:	55482587          	flw	fa1,1364(a6)
    40fc:	a0b51653          	flt.s	a2,fa0,fa1
    4100:	001028f3          	frflags	a7
    4104:	4ac7a423          	sw	a2,1192(a5)
    4108:	4b17a623          	sw	a7,1196(a5)

0000410c <inst_679>:
    410c:	55882507          	flw	fa0,1368(a6)
    4110:	55c82587          	flw	fa1,1372(a6)
    4114:	a0b51653          	flt.s	a2,fa0,fa1
    4118:	001028f3          	frflags	a7
    411c:	4ac7a823          	sw	a2,1200(a5)
    4120:	4b17aa23          	sw	a7,1204(a5)

00004124 <inst_680>:
    4124:	56082507          	flw	fa0,1376(a6)
    4128:	56482587          	flw	fa1,1380(a6)
    412c:	a0b51653          	flt.s	a2,fa0,fa1
    4130:	001028f3          	frflags	a7
    4134:	4ac7ac23          	sw	a2,1208(a5)
    4138:	4b17ae23          	sw	a7,1212(a5)

0000413c <inst_681>:
    413c:	56882507          	flw	fa0,1384(a6)
    4140:	56c82587          	flw	fa1,1388(a6)
    4144:	a0b51653          	flt.s	a2,fa0,fa1
    4148:	001028f3          	frflags	a7
    414c:	4cc7a023          	sw	a2,1216(a5)
    4150:	4d17a223          	sw	a7,1220(a5)

00004154 <inst_682>:
    4154:	57082507          	flw	fa0,1392(a6)
    4158:	57482587          	flw	fa1,1396(a6)
    415c:	a0b51653          	flt.s	a2,fa0,fa1
    4160:	001028f3          	frflags	a7
    4164:	4cc7a423          	sw	a2,1224(a5)
    4168:	4d17a623          	sw	a7,1228(a5)

0000416c <inst_683>:
    416c:	57882507          	flw	fa0,1400(a6)
    4170:	57c82587          	flw	fa1,1404(a6)
    4174:	a0b51653          	flt.s	a2,fa0,fa1
    4178:	001028f3          	frflags	a7
    417c:	4cc7a823          	sw	a2,1232(a5)
    4180:	4d17aa23          	sw	a7,1236(a5)

00004184 <inst_684>:
    4184:	58082507          	flw	fa0,1408(a6)
    4188:	58482587          	flw	fa1,1412(a6)
    418c:	a0b51653          	flt.s	a2,fa0,fa1
    4190:	001028f3          	frflags	a7
    4194:	4cc7ac23          	sw	a2,1240(a5)
    4198:	4d17ae23          	sw	a7,1244(a5)

0000419c <inst_685>:
    419c:	58882507          	flw	fa0,1416(a6)
    41a0:	58c82587          	flw	fa1,1420(a6)
    41a4:	a0b51653          	flt.s	a2,fa0,fa1
    41a8:	001028f3          	frflags	a7
    41ac:	4ec7a023          	sw	a2,1248(a5)
    41b0:	4f17a223          	sw	a7,1252(a5)

000041b4 <inst_686>:
    41b4:	59082507          	flw	fa0,1424(a6)
    41b8:	59482587          	flw	fa1,1428(a6)
    41bc:	a0b51653          	flt.s	a2,fa0,fa1
    41c0:	001028f3          	frflags	a7
    41c4:	4ec7a423          	sw	a2,1256(a5)
    41c8:	4f17a623          	sw	a7,1260(a5)

000041cc <inst_687>:
    41cc:	59882507          	flw	fa0,1432(a6)
    41d0:	59c82587          	flw	fa1,1436(a6)
    41d4:	a0b51653          	flt.s	a2,fa0,fa1
    41d8:	001028f3          	frflags	a7
    41dc:	4ec7a823          	sw	a2,1264(a5)
    41e0:	4f17aa23          	sw	a7,1268(a5)

000041e4 <inst_688>:
    41e4:	5a082507          	flw	fa0,1440(a6)
    41e8:	5a482587          	flw	fa1,1444(a6)
    41ec:	a0b51653          	flt.s	a2,fa0,fa1
    41f0:	001028f3          	frflags	a7
    41f4:	4ec7ac23          	sw	a2,1272(a5)
    41f8:	4f17ae23          	sw	a7,1276(a5)

000041fc <inst_689>:
    41fc:	5a882507          	flw	fa0,1448(a6)
    4200:	5ac82587          	flw	fa1,1452(a6)
    4204:	a0b51653          	flt.s	a2,fa0,fa1
    4208:	001028f3          	frflags	a7
    420c:	50c7a023          	sw	a2,1280(a5)
    4210:	5117a223          	sw	a7,1284(a5)

00004214 <inst_690>:
    4214:	5b082507          	flw	fa0,1456(a6)
    4218:	5b482587          	flw	fa1,1460(a6)
    421c:	a0b51653          	flt.s	a2,fa0,fa1
    4220:	001028f3          	frflags	a7
    4224:	50c7a423          	sw	a2,1288(a5)
    4228:	5117a623          	sw	a7,1292(a5)

0000422c <inst_691>:
    422c:	5b882507          	flw	fa0,1464(a6)
    4230:	5bc82587          	flw	fa1,1468(a6)
    4234:	a0b51653          	flt.s	a2,fa0,fa1
    4238:	001028f3          	frflags	a7
    423c:	50c7a823          	sw	a2,1296(a5)
    4240:	5117aa23          	sw	a7,1300(a5)

00004244 <inst_692>:
    4244:	5c082507          	flw	fa0,1472(a6)
    4248:	5c482587          	flw	fa1,1476(a6)
    424c:	a0b51653          	flt.s	a2,fa0,fa1
    4250:	001028f3          	frflags	a7
    4254:	50c7ac23          	sw	a2,1304(a5)
    4258:	5117ae23          	sw	a7,1308(a5)

0000425c <inst_693>:
    425c:	5c882507          	flw	fa0,1480(a6)
    4260:	5cc82587          	flw	fa1,1484(a6)
    4264:	a0b51653          	flt.s	a2,fa0,fa1
    4268:	001028f3          	frflags	a7
    426c:	52c7a023          	sw	a2,1312(a5)
    4270:	5317a223          	sw	a7,1316(a5)

00004274 <inst_694>:
    4274:	5d082507          	flw	fa0,1488(a6)
    4278:	5d482587          	flw	fa1,1492(a6)
    427c:	a0b51653          	flt.s	a2,fa0,fa1
    4280:	001028f3          	frflags	a7
    4284:	52c7a423          	sw	a2,1320(a5)
    4288:	5317a623          	sw	a7,1324(a5)

0000428c <inst_695>:
    428c:	5d882507          	flw	fa0,1496(a6)
    4290:	5dc82587          	flw	fa1,1500(a6)
    4294:	a0b51653          	flt.s	a2,fa0,fa1
    4298:	001028f3          	frflags	a7
    429c:	52c7a823          	sw	a2,1328(a5)
    42a0:	5317aa23          	sw	a7,1332(a5)

000042a4 <inst_696>:
    42a4:	5e082507          	flw	fa0,1504(a6)
    42a8:	5e482587          	flw	fa1,1508(a6)
    42ac:	a0b51653          	flt.s	a2,fa0,fa1
    42b0:	001028f3          	frflags	a7
    42b4:	52c7ac23          	sw	a2,1336(a5)
    42b8:	5317ae23          	sw	a7,1340(a5)

000042bc <inst_697>:
    42bc:	5e882507          	flw	fa0,1512(a6)
    42c0:	5ec82587          	flw	fa1,1516(a6)
    42c4:	a0b51653          	flt.s	a2,fa0,fa1
    42c8:	001028f3          	frflags	a7
    42cc:	54c7a023          	sw	a2,1344(a5)
    42d0:	5517a223          	sw	a7,1348(a5)

000042d4 <inst_698>:
    42d4:	5f082507          	flw	fa0,1520(a6)
    42d8:	5f482587          	flw	fa1,1524(a6)
    42dc:	a0b51653          	flt.s	a2,fa0,fa1
    42e0:	001028f3          	frflags	a7
    42e4:	54c7a423          	sw	a2,1352(a5)
    42e8:	5517a623          	sw	a7,1356(a5)

000042ec <inst_699>:
    42ec:	5f882507          	flw	fa0,1528(a6)
    42f0:	5fc82587          	flw	fa1,1532(a6)
    42f4:	a0b51653          	flt.s	a2,fa0,fa1
    42f8:	001028f3          	frflags	a7
    42fc:	54c7a823          	sw	a2,1360(a5)
    4300:	5517aa23          	sw	a7,1364(a5)

00004304 <inst_700>:
    4304:	60082507          	flw	fa0,1536(a6)
    4308:	60482587          	flw	fa1,1540(a6)
    430c:	a0b51653          	flt.s	a2,fa0,fa1
    4310:	001028f3          	frflags	a7
    4314:	54c7ac23          	sw	a2,1368(a5)
    4318:	5517ae23          	sw	a7,1372(a5)

0000431c <inst_701>:
    431c:	60882507          	flw	fa0,1544(a6)
    4320:	60c82587          	flw	fa1,1548(a6)
    4324:	a0b51653          	flt.s	a2,fa0,fa1
    4328:	001028f3          	frflags	a7
    432c:	56c7a023          	sw	a2,1376(a5)
    4330:	5717a223          	sw	a7,1380(a5)

00004334 <inst_702>:
    4334:	61082507          	flw	fa0,1552(a6)
    4338:	61482587          	flw	fa1,1556(a6)
    433c:	a0b51653          	flt.s	a2,fa0,fa1
    4340:	001028f3          	frflags	a7
    4344:	56c7a423          	sw	a2,1384(a5)
    4348:	5717a623          	sw	a7,1388(a5)

0000434c <inst_703>:
    434c:	61882507          	flw	fa0,1560(a6)
    4350:	61c82587          	flw	fa1,1564(a6)
    4354:	a0b51653          	flt.s	a2,fa0,fa1
    4358:	001028f3          	frflags	a7
    435c:	56c7a823          	sw	a2,1392(a5)
    4360:	5717aa23          	sw	a7,1396(a5)

00004364 <inst_704>:
    4364:	62082507          	flw	fa0,1568(a6)
    4368:	62482587          	flw	fa1,1572(a6)
    436c:	a0b51653          	flt.s	a2,fa0,fa1
    4370:	001028f3          	frflags	a7
    4374:	56c7ac23          	sw	a2,1400(a5)
    4378:	5717ae23          	sw	a7,1404(a5)

0000437c <inst_705>:
    437c:	62882507          	flw	fa0,1576(a6)
    4380:	62c82587          	flw	fa1,1580(a6)
    4384:	a0b51653          	flt.s	a2,fa0,fa1
    4388:	001028f3          	frflags	a7
    438c:	58c7a023          	sw	a2,1408(a5)
    4390:	5917a223          	sw	a7,1412(a5)

00004394 <inst_706>:
    4394:	63082507          	flw	fa0,1584(a6)
    4398:	63482587          	flw	fa1,1588(a6)
    439c:	a0b51653          	flt.s	a2,fa0,fa1
    43a0:	001028f3          	frflags	a7
    43a4:	58c7a423          	sw	a2,1416(a5)
    43a8:	5917a623          	sw	a7,1420(a5)

000043ac <inst_707>:
    43ac:	63882507          	flw	fa0,1592(a6)
    43b0:	63c82587          	flw	fa1,1596(a6)
    43b4:	a0b51653          	flt.s	a2,fa0,fa1
    43b8:	001028f3          	frflags	a7
    43bc:	58c7a823          	sw	a2,1424(a5)
    43c0:	5917aa23          	sw	a7,1428(a5)

000043c4 <inst_708>:
    43c4:	64082507          	flw	fa0,1600(a6)
    43c8:	64482587          	flw	fa1,1604(a6)
    43cc:	a0b51653          	flt.s	a2,fa0,fa1
    43d0:	001028f3          	frflags	a7
    43d4:	58c7ac23          	sw	a2,1432(a5)
    43d8:	5917ae23          	sw	a7,1436(a5)

000043dc <inst_709>:
    43dc:	64882507          	flw	fa0,1608(a6)
    43e0:	64c82587          	flw	fa1,1612(a6)
    43e4:	a0b51653          	flt.s	a2,fa0,fa1
    43e8:	001028f3          	frflags	a7
    43ec:	5ac7a023          	sw	a2,1440(a5)
    43f0:	5b17a223          	sw	a7,1444(a5)

000043f4 <inst_710>:
    43f4:	65082507          	flw	fa0,1616(a6)
    43f8:	65482587          	flw	fa1,1620(a6)
    43fc:	a0b51653          	flt.s	a2,fa0,fa1
    4400:	001028f3          	frflags	a7
    4404:	5ac7a423          	sw	a2,1448(a5)
    4408:	5b17a623          	sw	a7,1452(a5)

0000440c <inst_711>:
    440c:	65882507          	flw	fa0,1624(a6)
    4410:	65c82587          	flw	fa1,1628(a6)
    4414:	a0b51653          	flt.s	a2,fa0,fa1
    4418:	001028f3          	frflags	a7
    441c:	5ac7a823          	sw	a2,1456(a5)
    4420:	5b17aa23          	sw	a7,1460(a5)

00004424 <inst_712>:
    4424:	66082507          	flw	fa0,1632(a6)
    4428:	66482587          	flw	fa1,1636(a6)
    442c:	a0b51653          	flt.s	a2,fa0,fa1
    4430:	001028f3          	frflags	a7
    4434:	5ac7ac23          	sw	a2,1464(a5)
    4438:	5b17ae23          	sw	a7,1468(a5)

0000443c <inst_713>:
    443c:	66882507          	flw	fa0,1640(a6)
    4440:	66c82587          	flw	fa1,1644(a6)
    4444:	a0b51653          	flt.s	a2,fa0,fa1
    4448:	001028f3          	frflags	a7
    444c:	5cc7a023          	sw	a2,1472(a5)
    4450:	5d17a223          	sw	a7,1476(a5)

00004454 <inst_714>:
    4454:	67082507          	flw	fa0,1648(a6)
    4458:	67482587          	flw	fa1,1652(a6)
    445c:	a0b51653          	flt.s	a2,fa0,fa1
    4460:	001028f3          	frflags	a7
    4464:	5cc7a423          	sw	a2,1480(a5)
    4468:	5d17a623          	sw	a7,1484(a5)

0000446c <inst_715>:
    446c:	67882507          	flw	fa0,1656(a6)
    4470:	67c82587          	flw	fa1,1660(a6)
    4474:	a0b51653          	flt.s	a2,fa0,fa1
    4478:	001028f3          	frflags	a7
    447c:	5cc7a823          	sw	a2,1488(a5)
    4480:	5d17aa23          	sw	a7,1492(a5)

00004484 <inst_716>:
    4484:	68082507          	flw	fa0,1664(a6)
    4488:	68482587          	flw	fa1,1668(a6)
    448c:	a0b51653          	flt.s	a2,fa0,fa1
    4490:	001028f3          	frflags	a7
    4494:	5cc7ac23          	sw	a2,1496(a5)
    4498:	5d17ae23          	sw	a7,1500(a5)

0000449c <inst_717>:
    449c:	68882507          	flw	fa0,1672(a6)
    44a0:	68c82587          	flw	fa1,1676(a6)
    44a4:	a0b51653          	flt.s	a2,fa0,fa1
    44a8:	001028f3          	frflags	a7
    44ac:	5ec7a023          	sw	a2,1504(a5)
    44b0:	5f17a223          	sw	a7,1508(a5)

000044b4 <inst_718>:
    44b4:	69082507          	flw	fa0,1680(a6)
    44b8:	69482587          	flw	fa1,1684(a6)
    44bc:	a0b51653          	flt.s	a2,fa0,fa1
    44c0:	001028f3          	frflags	a7
    44c4:	5ec7a423          	sw	a2,1512(a5)
    44c8:	5f17a623          	sw	a7,1516(a5)

000044cc <inst_719>:
    44cc:	69882507          	flw	fa0,1688(a6)
    44d0:	69c82587          	flw	fa1,1692(a6)
    44d4:	a0b51653          	flt.s	a2,fa0,fa1
    44d8:	001028f3          	frflags	a7
    44dc:	5ec7a823          	sw	a2,1520(a5)
    44e0:	5f17aa23          	sw	a7,1524(a5)

000044e4 <inst_720>:
    44e4:	6a082507          	flw	fa0,1696(a6)
    44e8:	6a482587          	flw	fa1,1700(a6)
    44ec:	a0b51653          	flt.s	a2,fa0,fa1
    44f0:	001028f3          	frflags	a7
    44f4:	5ec7ac23          	sw	a2,1528(a5)
    44f8:	5f17ae23          	sw	a7,1532(a5)

000044fc <inst_721>:
    44fc:	6a882507          	flw	fa0,1704(a6)
    4500:	6ac82587          	flw	fa1,1708(a6)
    4504:	a0b51653          	flt.s	a2,fa0,fa1
    4508:	001028f3          	frflags	a7
    450c:	60c7a023          	sw	a2,1536(a5)
    4510:	6117a223          	sw	a7,1540(a5)

00004514 <inst_722>:
    4514:	6b082507          	flw	fa0,1712(a6)
    4518:	6b482587          	flw	fa1,1716(a6)
    451c:	a0b51653          	flt.s	a2,fa0,fa1
    4520:	001028f3          	frflags	a7
    4524:	60c7a423          	sw	a2,1544(a5)
    4528:	6117a623          	sw	a7,1548(a5)

0000452c <inst_723>:
    452c:	6b882507          	flw	fa0,1720(a6)
    4530:	6bc82587          	flw	fa1,1724(a6)
    4534:	a0b51653          	flt.s	a2,fa0,fa1
    4538:	001028f3          	frflags	a7
    453c:	60c7a823          	sw	a2,1552(a5)
    4540:	6117aa23          	sw	a7,1556(a5)

00004544 <inst_724>:
    4544:	6c082507          	flw	fa0,1728(a6)
    4548:	6c482587          	flw	fa1,1732(a6)
    454c:	a0b51653          	flt.s	a2,fa0,fa1
    4550:	001028f3          	frflags	a7
    4554:	60c7ac23          	sw	a2,1560(a5)
    4558:	6117ae23          	sw	a7,1564(a5)

0000455c <inst_725>:
    455c:	6c882507          	flw	fa0,1736(a6)
    4560:	6cc82587          	flw	fa1,1740(a6)
    4564:	a0b51653          	flt.s	a2,fa0,fa1
    4568:	001028f3          	frflags	a7
    456c:	62c7a023          	sw	a2,1568(a5)
    4570:	6317a223          	sw	a7,1572(a5)

00004574 <inst_726>:
    4574:	6d082507          	flw	fa0,1744(a6)
    4578:	6d482587          	flw	fa1,1748(a6)
    457c:	a0b51653          	flt.s	a2,fa0,fa1
    4580:	001028f3          	frflags	a7
    4584:	62c7a423          	sw	a2,1576(a5)
    4588:	6317a623          	sw	a7,1580(a5)

0000458c <inst_727>:
    458c:	6d882507          	flw	fa0,1752(a6)
    4590:	6dc82587          	flw	fa1,1756(a6)
    4594:	a0b51653          	flt.s	a2,fa0,fa1
    4598:	001028f3          	frflags	a7
    459c:	62c7a823          	sw	a2,1584(a5)
    45a0:	6317aa23          	sw	a7,1588(a5)

000045a4 <inst_728>:
    45a4:	6e082507          	flw	fa0,1760(a6)
    45a8:	6e482587          	flw	fa1,1764(a6)
    45ac:	a0b51653          	flt.s	a2,fa0,fa1
    45b0:	001028f3          	frflags	a7
    45b4:	62c7ac23          	sw	a2,1592(a5)
    45b8:	6317ae23          	sw	a7,1596(a5)

000045bc <inst_729>:
    45bc:	6e882507          	flw	fa0,1768(a6)
    45c0:	6ec82587          	flw	fa1,1772(a6)
    45c4:	a0b51653          	flt.s	a2,fa0,fa1
    45c8:	001028f3          	frflags	a7
    45cc:	64c7a023          	sw	a2,1600(a5)
    45d0:	6517a223          	sw	a7,1604(a5)

000045d4 <inst_730>:
    45d4:	6f082507          	flw	fa0,1776(a6)
    45d8:	6f482587          	flw	fa1,1780(a6)
    45dc:	a0b51653          	flt.s	a2,fa0,fa1
    45e0:	001028f3          	frflags	a7
    45e4:	64c7a423          	sw	a2,1608(a5)
    45e8:	6517a623          	sw	a7,1612(a5)

000045ec <inst_731>:
    45ec:	6f882507          	flw	fa0,1784(a6)
    45f0:	6fc82587          	flw	fa1,1788(a6)
    45f4:	a0b51653          	flt.s	a2,fa0,fa1
    45f8:	001028f3          	frflags	a7
    45fc:	64c7a823          	sw	a2,1616(a5)
    4600:	6517aa23          	sw	a7,1620(a5)

00004604 <inst_732>:
    4604:	70082507          	flw	fa0,1792(a6)
    4608:	70482587          	flw	fa1,1796(a6)
    460c:	a0b51653          	flt.s	a2,fa0,fa1
    4610:	001028f3          	frflags	a7
    4614:	64c7ac23          	sw	a2,1624(a5)
    4618:	6517ae23          	sw	a7,1628(a5)

0000461c <inst_733>:
    461c:	70882507          	flw	fa0,1800(a6)
    4620:	70c82587          	flw	fa1,1804(a6)
    4624:	a0b51653          	flt.s	a2,fa0,fa1
    4628:	001028f3          	frflags	a7
    462c:	66c7a023          	sw	a2,1632(a5)
    4630:	6717a223          	sw	a7,1636(a5)

00004634 <inst_734>:
    4634:	71082507          	flw	fa0,1808(a6)
    4638:	71482587          	flw	fa1,1812(a6)
    463c:	a0b51653          	flt.s	a2,fa0,fa1
    4640:	001028f3          	frflags	a7
    4644:	66c7a423          	sw	a2,1640(a5)
    4648:	6717a623          	sw	a7,1644(a5)

0000464c <inst_735>:
    464c:	71882507          	flw	fa0,1816(a6)
    4650:	71c82587          	flw	fa1,1820(a6)
    4654:	a0b51653          	flt.s	a2,fa0,fa1
    4658:	001028f3          	frflags	a7
    465c:	66c7a823          	sw	a2,1648(a5)
    4660:	6717aa23          	sw	a7,1652(a5)

00004664 <inst_736>:
    4664:	72082507          	flw	fa0,1824(a6)
    4668:	72482587          	flw	fa1,1828(a6)
    466c:	a0b51653          	flt.s	a2,fa0,fa1
    4670:	001028f3          	frflags	a7
    4674:	66c7ac23          	sw	a2,1656(a5)
    4678:	6717ae23          	sw	a7,1660(a5)

0000467c <inst_737>:
    467c:	72882507          	flw	fa0,1832(a6)
    4680:	72c82587          	flw	fa1,1836(a6)
    4684:	a0b51653          	flt.s	a2,fa0,fa1
    4688:	001028f3          	frflags	a7
    468c:	68c7a023          	sw	a2,1664(a5)
    4690:	6917a223          	sw	a7,1668(a5)

00004694 <inst_738>:
    4694:	73082507          	flw	fa0,1840(a6)
    4698:	73482587          	flw	fa1,1844(a6)
    469c:	a0b51653          	flt.s	a2,fa0,fa1
    46a0:	001028f3          	frflags	a7
    46a4:	68c7a423          	sw	a2,1672(a5)
    46a8:	6917a623          	sw	a7,1676(a5)

000046ac <inst_739>:
    46ac:	73882507          	flw	fa0,1848(a6)
    46b0:	73c82587          	flw	fa1,1852(a6)
    46b4:	a0b51653          	flt.s	a2,fa0,fa1
    46b8:	001028f3          	frflags	a7
    46bc:	68c7a823          	sw	a2,1680(a5)
    46c0:	6917aa23          	sw	a7,1684(a5)

000046c4 <inst_740>:
    46c4:	74082507          	flw	fa0,1856(a6)
    46c8:	74482587          	flw	fa1,1860(a6)
    46cc:	a0b51653          	flt.s	a2,fa0,fa1
    46d0:	001028f3          	frflags	a7
    46d4:	68c7ac23          	sw	a2,1688(a5)
    46d8:	6917ae23          	sw	a7,1692(a5)

000046dc <inst_741>:
    46dc:	74882507          	flw	fa0,1864(a6)
    46e0:	74c82587          	flw	fa1,1868(a6)
    46e4:	a0b51653          	flt.s	a2,fa0,fa1
    46e8:	001028f3          	frflags	a7
    46ec:	6ac7a023          	sw	a2,1696(a5)
    46f0:	6b17a223          	sw	a7,1700(a5)

000046f4 <inst_742>:
    46f4:	75082507          	flw	fa0,1872(a6)
    46f8:	75482587          	flw	fa1,1876(a6)
    46fc:	a0b51653          	flt.s	a2,fa0,fa1
    4700:	001028f3          	frflags	a7
    4704:	6ac7a423          	sw	a2,1704(a5)
    4708:	6b17a623          	sw	a7,1708(a5)

0000470c <inst_743>:
    470c:	75882507          	flw	fa0,1880(a6)
    4710:	75c82587          	flw	fa1,1884(a6)
    4714:	a0b51653          	flt.s	a2,fa0,fa1
    4718:	001028f3          	frflags	a7
    471c:	6ac7a823          	sw	a2,1712(a5)
    4720:	6b17aa23          	sw	a7,1716(a5)

00004724 <inst_744>:
    4724:	76082507          	flw	fa0,1888(a6)
    4728:	76482587          	flw	fa1,1892(a6)
    472c:	a0b51653          	flt.s	a2,fa0,fa1
    4730:	001028f3          	frflags	a7
    4734:	6ac7ac23          	sw	a2,1720(a5)
    4738:	6b17ae23          	sw	a7,1724(a5)

0000473c <inst_745>:
    473c:	76882507          	flw	fa0,1896(a6)
    4740:	76c82587          	flw	fa1,1900(a6)
    4744:	a0b51653          	flt.s	a2,fa0,fa1
    4748:	001028f3          	frflags	a7
    474c:	6cc7a023          	sw	a2,1728(a5)
    4750:	6d17a223          	sw	a7,1732(a5)

00004754 <inst_746>:
    4754:	77082507          	flw	fa0,1904(a6)
    4758:	77482587          	flw	fa1,1908(a6)
    475c:	a0b51653          	flt.s	a2,fa0,fa1
    4760:	001028f3          	frflags	a7
    4764:	6cc7a423          	sw	a2,1736(a5)
    4768:	6d17a623          	sw	a7,1740(a5)

0000476c <inst_747>:
    476c:	77882507          	flw	fa0,1912(a6)
    4770:	77c82587          	flw	fa1,1916(a6)
    4774:	a0b51653          	flt.s	a2,fa0,fa1
    4778:	001028f3          	frflags	a7
    477c:	6cc7a823          	sw	a2,1744(a5)
    4780:	6d17aa23          	sw	a7,1748(a5)

00004784 <inst_748>:
    4784:	78082507          	flw	fa0,1920(a6)
    4788:	78482587          	flw	fa1,1924(a6)
    478c:	a0b51653          	flt.s	a2,fa0,fa1
    4790:	001028f3          	frflags	a7
    4794:	6cc7ac23          	sw	a2,1752(a5)
    4798:	6d17ae23          	sw	a7,1756(a5)

0000479c <inst_749>:
    479c:	78882507          	flw	fa0,1928(a6)
    47a0:	78c82587          	flw	fa1,1932(a6)
    47a4:	a0b51653          	flt.s	a2,fa0,fa1
    47a8:	001028f3          	frflags	a7
    47ac:	6ec7a023          	sw	a2,1760(a5)
    47b0:	6f17a223          	sw	a7,1764(a5)

000047b4 <inst_750>:
    47b4:	79082507          	flw	fa0,1936(a6)
    47b8:	79482587          	flw	fa1,1940(a6)
    47bc:	a0b51653          	flt.s	a2,fa0,fa1
    47c0:	001028f3          	frflags	a7
    47c4:	6ec7a423          	sw	a2,1768(a5)
    47c8:	6f17a623          	sw	a7,1772(a5)

000047cc <inst_751>:
    47cc:	79882507          	flw	fa0,1944(a6)
    47d0:	79c82587          	flw	fa1,1948(a6)
    47d4:	a0b51653          	flt.s	a2,fa0,fa1
    47d8:	001028f3          	frflags	a7
    47dc:	6ec7a823          	sw	a2,1776(a5)
    47e0:	6f17aa23          	sw	a7,1780(a5)

000047e4 <inst_752>:
    47e4:	7a082507          	flw	fa0,1952(a6)
    47e8:	7a482587          	flw	fa1,1956(a6)
    47ec:	a0b51653          	flt.s	a2,fa0,fa1
    47f0:	001028f3          	frflags	a7
    47f4:	6ec7ac23          	sw	a2,1784(a5)
    47f8:	6f17ae23          	sw	a7,1788(a5)

000047fc <inst_753>:
    47fc:	7a882507          	flw	fa0,1960(a6)
    4800:	7ac82587          	flw	fa1,1964(a6)
    4804:	a0b51653          	flt.s	a2,fa0,fa1
    4808:	001028f3          	frflags	a7
    480c:	70c7a023          	sw	a2,1792(a5)
    4810:	7117a223          	sw	a7,1796(a5)

00004814 <inst_754>:
    4814:	7b082507          	flw	fa0,1968(a6)
    4818:	7b482587          	flw	fa1,1972(a6)
    481c:	a0b51653          	flt.s	a2,fa0,fa1
    4820:	001028f3          	frflags	a7
    4824:	70c7a423          	sw	a2,1800(a5)
    4828:	7117a623          	sw	a7,1804(a5)

0000482c <inst_755>:
    482c:	7b882507          	flw	fa0,1976(a6)
    4830:	7bc82587          	flw	fa1,1980(a6)
    4834:	a0b51653          	flt.s	a2,fa0,fa1
    4838:	001028f3          	frflags	a7
    483c:	70c7a823          	sw	a2,1808(a5)
    4840:	7117aa23          	sw	a7,1812(a5)

00004844 <inst_756>:
    4844:	7c082507          	flw	fa0,1984(a6)
    4848:	7c482587          	flw	fa1,1988(a6)
    484c:	a0b51653          	flt.s	a2,fa0,fa1
    4850:	001028f3          	frflags	a7
    4854:	70c7ac23          	sw	a2,1816(a5)
    4858:	7117ae23          	sw	a7,1820(a5)

0000485c <inst_757>:
    485c:	7c882507          	flw	fa0,1992(a6)
    4860:	7cc82587          	flw	fa1,1996(a6)
    4864:	a0b51653          	flt.s	a2,fa0,fa1
    4868:	001028f3          	frflags	a7
    486c:	72c7a023          	sw	a2,1824(a5)
    4870:	7317a223          	sw	a7,1828(a5)

00004874 <inst_758>:
    4874:	7d082507          	flw	fa0,2000(a6)
    4878:	7d482587          	flw	fa1,2004(a6)
    487c:	a0b51653          	flt.s	a2,fa0,fa1
    4880:	001028f3          	frflags	a7
    4884:	72c7a423          	sw	a2,1832(a5)
    4888:	7317a623          	sw	a7,1836(a5)

0000488c <inst_759>:
    488c:	7d882507          	flw	fa0,2008(a6)
    4890:	7dc82587          	flw	fa1,2012(a6)
    4894:	a0b51653          	flt.s	a2,fa0,fa1
    4898:	001028f3          	frflags	a7
    489c:	72c7a823          	sw	a2,1840(a5)
    48a0:	7317aa23          	sw	a7,1844(a5)

000048a4 <inst_760>:
    48a4:	7e082507          	flw	fa0,2016(a6)
    48a8:	7e482587          	flw	fa1,2020(a6)
    48ac:	a0b51653          	flt.s	a2,fa0,fa1
    48b0:	001028f3          	frflags	a7
    48b4:	72c7ac23          	sw	a2,1848(a5)
    48b8:	7317ae23          	sw	a7,1852(a5)

000048bc <inst_761>:
    48bc:	7e882507          	flw	fa0,2024(a6)
    48c0:	7ec82587          	flw	fa1,2028(a6)
    48c4:	a0b51653          	flt.s	a2,fa0,fa1
    48c8:	001028f3          	frflags	a7
    48cc:	74c7a023          	sw	a2,1856(a5)
    48d0:	7517a223          	sw	a7,1860(a5)
    48d4:	7f080813          	add	a6,a6,2032

000048d8 <inst_762>:
    48d8:	00082507          	flw	fa0,0(a6)
    48dc:	00482587          	flw	fa1,4(a6)
    48e0:	a0b51653          	flt.s	a2,fa0,fa1
    48e4:	001028f3          	frflags	a7
    48e8:	74c7a423          	sw	a2,1864(a5)
    48ec:	7517a623          	sw	a7,1868(a5)

000048f0 <inst_763>:
    48f0:	00882507          	flw	fa0,8(a6)
    48f4:	00c82587          	flw	fa1,12(a6)
    48f8:	a0b51653          	flt.s	a2,fa0,fa1
    48fc:	001028f3          	frflags	a7
    4900:	74c7a823          	sw	a2,1872(a5)
    4904:	7517aa23          	sw	a7,1876(a5)

00004908 <inst_764>:
    4908:	01082507          	flw	fa0,16(a6)
    490c:	01482587          	flw	fa1,20(a6)
    4910:	a0b51653          	flt.s	a2,fa0,fa1
    4914:	001028f3          	frflags	a7
    4918:	74c7ac23          	sw	a2,1880(a5)
    491c:	7517ae23          	sw	a7,1884(a5)

00004920 <inst_765>:
    4920:	01882507          	flw	fa0,24(a6)
    4924:	01c82587          	flw	fa1,28(a6)
    4928:	a0b51653          	flt.s	a2,fa0,fa1
    492c:	001028f3          	frflags	a7
    4930:	76c7a023          	sw	a2,1888(a5)
    4934:	7717a223          	sw	a7,1892(a5)

00004938 <inst_766>:
    4938:	02082507          	flw	fa0,32(a6)
    493c:	02482587          	flw	fa1,36(a6)
    4940:	a0b51653          	flt.s	a2,fa0,fa1
    4944:	001028f3          	frflags	a7
    4948:	76c7a423          	sw	a2,1896(a5)
    494c:	7717a623          	sw	a7,1900(a5)

00004950 <inst_767>:
    4950:	02882507          	flw	fa0,40(a6)
    4954:	02c82587          	flw	fa1,44(a6)
    4958:	a0b51653          	flt.s	a2,fa0,fa1
    495c:	001028f3          	frflags	a7
    4960:	76c7a823          	sw	a2,1904(a5)
    4964:	7717aa23          	sw	a7,1908(a5)

00004968 <inst_768>:
    4968:	03082507          	flw	fa0,48(a6)
    496c:	03482587          	flw	fa1,52(a6)
    4970:	a0b51653          	flt.s	a2,fa0,fa1
    4974:	001028f3          	frflags	a7
    4978:	76c7ac23          	sw	a2,1912(a5)
    497c:	7717ae23          	sw	a7,1916(a5)

00004980 <inst_769>:
    4980:	03882507          	flw	fa0,56(a6)
    4984:	03c82587          	flw	fa1,60(a6)
    4988:	a0b51653          	flt.s	a2,fa0,fa1
    498c:	001028f3          	frflags	a7
    4990:	78c7a023          	sw	a2,1920(a5)
    4994:	7917a223          	sw	a7,1924(a5)

00004998 <inst_770>:
    4998:	04082507          	flw	fa0,64(a6)
    499c:	04482587          	flw	fa1,68(a6)
    49a0:	a0b51653          	flt.s	a2,fa0,fa1
    49a4:	001028f3          	frflags	a7
    49a8:	78c7a423          	sw	a2,1928(a5)
    49ac:	7917a623          	sw	a7,1932(a5)

000049b0 <inst_771>:
    49b0:	04882507          	flw	fa0,72(a6)
    49b4:	04c82587          	flw	fa1,76(a6)
    49b8:	a0b51653          	flt.s	a2,fa0,fa1
    49bc:	001028f3          	frflags	a7
    49c0:	78c7a823          	sw	a2,1936(a5)
    49c4:	7917aa23          	sw	a7,1940(a5)

000049c8 <inst_772>:
    49c8:	05082507          	flw	fa0,80(a6)
    49cc:	05482587          	flw	fa1,84(a6)
    49d0:	a0b51653          	flt.s	a2,fa0,fa1
    49d4:	001028f3          	frflags	a7
    49d8:	78c7ac23          	sw	a2,1944(a5)
    49dc:	7917ae23          	sw	a7,1948(a5)

000049e0 <inst_773>:
    49e0:	05882507          	flw	fa0,88(a6)
    49e4:	05c82587          	flw	fa1,92(a6)
    49e8:	a0b51653          	flt.s	a2,fa0,fa1
    49ec:	001028f3          	frflags	a7
    49f0:	7ac7a023          	sw	a2,1952(a5)
    49f4:	7b17a223          	sw	a7,1956(a5)

000049f8 <inst_774>:
    49f8:	06082507          	flw	fa0,96(a6)
    49fc:	06482587          	flw	fa1,100(a6)
    4a00:	a0b51653          	flt.s	a2,fa0,fa1
    4a04:	001028f3          	frflags	a7
    4a08:	7ac7a423          	sw	a2,1960(a5)
    4a0c:	7b17a623          	sw	a7,1964(a5)

00004a10 <inst_775>:
    4a10:	06882507          	flw	fa0,104(a6)
    4a14:	06c82587          	flw	fa1,108(a6)
    4a18:	a0b51653          	flt.s	a2,fa0,fa1
    4a1c:	001028f3          	frflags	a7
    4a20:	7ac7a823          	sw	a2,1968(a5)
    4a24:	7b17aa23          	sw	a7,1972(a5)

00004a28 <inst_776>:
    4a28:	07082507          	flw	fa0,112(a6)
    4a2c:	07482587          	flw	fa1,116(a6)
    4a30:	a0b51653          	flt.s	a2,fa0,fa1
    4a34:	001028f3          	frflags	a7
    4a38:	7ac7ac23          	sw	a2,1976(a5)
    4a3c:	7b17ae23          	sw	a7,1980(a5)

00004a40 <inst_777>:
    4a40:	07882507          	flw	fa0,120(a6)
    4a44:	07c82587          	flw	fa1,124(a6)
    4a48:	a0b51653          	flt.s	a2,fa0,fa1
    4a4c:	001028f3          	frflags	a7
    4a50:	7cc7a023          	sw	a2,1984(a5)
    4a54:	7d17a223          	sw	a7,1988(a5)

00004a58 <inst_778>:
    4a58:	08082507          	flw	fa0,128(a6)
    4a5c:	08482587          	flw	fa1,132(a6)
    4a60:	a0b51653          	flt.s	a2,fa0,fa1
    4a64:	001028f3          	frflags	a7
    4a68:	7cc7a423          	sw	a2,1992(a5)
    4a6c:	7d17a623          	sw	a7,1996(a5)

00004a70 <inst_779>:
    4a70:	08882507          	flw	fa0,136(a6)
    4a74:	08c82587          	flw	fa1,140(a6)
    4a78:	a0b51653          	flt.s	a2,fa0,fa1
    4a7c:	001028f3          	frflags	a7
    4a80:	7cc7a823          	sw	a2,2000(a5)
    4a84:	7d17aa23          	sw	a7,2004(a5)

00004a88 <inst_780>:
    4a88:	09082507          	flw	fa0,144(a6)
    4a8c:	09482587          	flw	fa1,148(a6)
    4a90:	a0b51653          	flt.s	a2,fa0,fa1
    4a94:	001028f3          	frflags	a7
    4a98:	7cc7ac23          	sw	a2,2008(a5)
    4a9c:	7d17ae23          	sw	a7,2012(a5)

00004aa0 <inst_781>:
    4aa0:	09882507          	flw	fa0,152(a6)
    4aa4:	09c82587          	flw	fa1,156(a6)
    4aa8:	a0b51653          	flt.s	a2,fa0,fa1
    4aac:	001028f3          	frflags	a7
    4ab0:	7ec7a023          	sw	a2,2016(a5)
    4ab4:	7f17a223          	sw	a7,2020(a5)

00004ab8 <inst_782>:
    4ab8:	0a082507          	flw	fa0,160(a6)
    4abc:	0a482587          	flw	fa1,164(a6)
    4ac0:	a0b51653          	flt.s	a2,fa0,fa1
    4ac4:	001028f3          	frflags	a7
    4ac8:	7ec7a423          	sw	a2,2024(a5)
    4acc:	7f17a623          	sw	a7,2028(a5)
    4ad0:	00005797          	auipc	a5,0x5
    4ad4:	c8878793          	add	a5,a5,-888 # 9758 <signature_x15_5>

00004ad8 <inst_783>:
    4ad8:	0a882507          	flw	fa0,168(a6)
    4adc:	0ac82587          	flw	fa1,172(a6)
    4ae0:	a0b51653          	flt.s	a2,fa0,fa1
    4ae4:	001028f3          	frflags	a7
    4ae8:	00c7a023          	sw	a2,0(a5)
    4aec:	0117a223          	sw	a7,4(a5)

00004af0 <inst_784>:
    4af0:	0b082507          	flw	fa0,176(a6)
    4af4:	0b482587          	flw	fa1,180(a6)
    4af8:	a0b51653          	flt.s	a2,fa0,fa1
    4afc:	001028f3          	frflags	a7
    4b00:	00c7a423          	sw	a2,8(a5)
    4b04:	0117a623          	sw	a7,12(a5)

00004b08 <inst_785>:
    4b08:	0b882507          	flw	fa0,184(a6)
    4b0c:	0bc82587          	flw	fa1,188(a6)
    4b10:	a0b51653          	flt.s	a2,fa0,fa1
    4b14:	001028f3          	frflags	a7
    4b18:	00c7a823          	sw	a2,16(a5)
    4b1c:	0117aa23          	sw	a7,20(a5)

00004b20 <inst_786>:
    4b20:	0c082507          	flw	fa0,192(a6)
    4b24:	0c482587          	flw	fa1,196(a6)
    4b28:	a0b51653          	flt.s	a2,fa0,fa1
    4b2c:	001028f3          	frflags	a7
    4b30:	00c7ac23          	sw	a2,24(a5)
    4b34:	0117ae23          	sw	a7,28(a5)

00004b38 <inst_787>:
    4b38:	0c882507          	flw	fa0,200(a6)
    4b3c:	0cc82587          	flw	fa1,204(a6)
    4b40:	a0b51653          	flt.s	a2,fa0,fa1
    4b44:	001028f3          	frflags	a7
    4b48:	02c7a023          	sw	a2,32(a5)
    4b4c:	0317a223          	sw	a7,36(a5)

00004b50 <inst_788>:
    4b50:	0d082507          	flw	fa0,208(a6)
    4b54:	0d482587          	flw	fa1,212(a6)
    4b58:	a0b51653          	flt.s	a2,fa0,fa1
    4b5c:	001028f3          	frflags	a7
    4b60:	02c7a423          	sw	a2,40(a5)
    4b64:	0317a623          	sw	a7,44(a5)

00004b68 <inst_789>:
    4b68:	0d882507          	flw	fa0,216(a6)
    4b6c:	0dc82587          	flw	fa1,220(a6)
    4b70:	a0b51653          	flt.s	a2,fa0,fa1
    4b74:	001028f3          	frflags	a7
    4b78:	02c7a823          	sw	a2,48(a5)
    4b7c:	0317aa23          	sw	a7,52(a5)

00004b80 <inst_790>:
    4b80:	0e082507          	flw	fa0,224(a6)
    4b84:	0e482587          	flw	fa1,228(a6)
    4b88:	a0b51653          	flt.s	a2,fa0,fa1
    4b8c:	001028f3          	frflags	a7
    4b90:	02c7ac23          	sw	a2,56(a5)
    4b94:	0317ae23          	sw	a7,60(a5)

00004b98 <inst_791>:
    4b98:	0e882507          	flw	fa0,232(a6)
    4b9c:	0ec82587          	flw	fa1,236(a6)
    4ba0:	a0b51653          	flt.s	a2,fa0,fa1
    4ba4:	001028f3          	frflags	a7
    4ba8:	04c7a023          	sw	a2,64(a5)
    4bac:	0517a223          	sw	a7,68(a5)

00004bb0 <inst_792>:
    4bb0:	0f082507          	flw	fa0,240(a6)
    4bb4:	0f482587          	flw	fa1,244(a6)
    4bb8:	a0b51653          	flt.s	a2,fa0,fa1
    4bbc:	001028f3          	frflags	a7
    4bc0:	04c7a423          	sw	a2,72(a5)
    4bc4:	0517a623          	sw	a7,76(a5)

00004bc8 <inst_793>:
    4bc8:	0f882507          	flw	fa0,248(a6)
    4bcc:	0fc82587          	flw	fa1,252(a6)
    4bd0:	a0b51653          	flt.s	a2,fa0,fa1
    4bd4:	001028f3          	frflags	a7
    4bd8:	04c7a823          	sw	a2,80(a5)
    4bdc:	0517aa23          	sw	a7,84(a5)

00004be0 <inst_794>:
    4be0:	10082507          	flw	fa0,256(a6)
    4be4:	10482587          	flw	fa1,260(a6)
    4be8:	a0b51653          	flt.s	a2,fa0,fa1
    4bec:	001028f3          	frflags	a7
    4bf0:	04c7ac23          	sw	a2,88(a5)
    4bf4:	0517ae23          	sw	a7,92(a5)

00004bf8 <inst_795>:
    4bf8:	10882507          	flw	fa0,264(a6)
    4bfc:	10c82587          	flw	fa1,268(a6)
    4c00:	a0b51653          	flt.s	a2,fa0,fa1
    4c04:	001028f3          	frflags	a7
    4c08:	06c7a023          	sw	a2,96(a5)
    4c0c:	0717a223          	sw	a7,100(a5)

00004c10 <inst_796>:
    4c10:	11082507          	flw	fa0,272(a6)
    4c14:	11482587          	flw	fa1,276(a6)
    4c18:	a0b51653          	flt.s	a2,fa0,fa1
    4c1c:	001028f3          	frflags	a7
    4c20:	06c7a423          	sw	a2,104(a5)
    4c24:	0717a623          	sw	a7,108(a5)

00004c28 <inst_797>:
    4c28:	11882507          	flw	fa0,280(a6)
    4c2c:	11c82587          	flw	fa1,284(a6)
    4c30:	a0b51653          	flt.s	a2,fa0,fa1
    4c34:	001028f3          	frflags	a7
    4c38:	06c7a823          	sw	a2,112(a5)
    4c3c:	0717aa23          	sw	a7,116(a5)

00004c40 <inst_798>:
    4c40:	12082507          	flw	fa0,288(a6)
    4c44:	12482587          	flw	fa1,292(a6)
    4c48:	a0b51653          	flt.s	a2,fa0,fa1
    4c4c:	001028f3          	frflags	a7
    4c50:	06c7ac23          	sw	a2,120(a5)
    4c54:	0717ae23          	sw	a7,124(a5)

00004c58 <inst_799>:
    4c58:	12882507          	flw	fa0,296(a6)
    4c5c:	12c82587          	flw	fa1,300(a6)
    4c60:	a0b51653          	flt.s	a2,fa0,fa1
    4c64:	001028f3          	frflags	a7
    4c68:	08c7a023          	sw	a2,128(a5)
    4c6c:	0917a223          	sw	a7,132(a5)

00004c70 <inst_800>:
    4c70:	13082507          	flw	fa0,304(a6)
    4c74:	13482587          	flw	fa1,308(a6)
    4c78:	a0b51653          	flt.s	a2,fa0,fa1
    4c7c:	001028f3          	frflags	a7
    4c80:	08c7a423          	sw	a2,136(a5)
    4c84:	0917a623          	sw	a7,140(a5)

00004c88 <inst_801>:
    4c88:	13882507          	flw	fa0,312(a6)
    4c8c:	13c82587          	flw	fa1,316(a6)
    4c90:	a0b51653          	flt.s	a2,fa0,fa1
    4c94:	001028f3          	frflags	a7
    4c98:	08c7a823          	sw	a2,144(a5)
    4c9c:	0917aa23          	sw	a7,148(a5)

00004ca0 <inst_802>:
    4ca0:	14082507          	flw	fa0,320(a6)
    4ca4:	14482587          	flw	fa1,324(a6)
    4ca8:	a0b51653          	flt.s	a2,fa0,fa1
    4cac:	001028f3          	frflags	a7
    4cb0:	08c7ac23          	sw	a2,152(a5)
    4cb4:	0917ae23          	sw	a7,156(a5)

00004cb8 <inst_803>:
    4cb8:	14882507          	flw	fa0,328(a6)
    4cbc:	14c82587          	flw	fa1,332(a6)
    4cc0:	a0b51653          	flt.s	a2,fa0,fa1
    4cc4:	001028f3          	frflags	a7
    4cc8:	0ac7a023          	sw	a2,160(a5)
    4ccc:	0b17a223          	sw	a7,164(a5)

00004cd0 <inst_804>:
    4cd0:	15082507          	flw	fa0,336(a6)
    4cd4:	15482587          	flw	fa1,340(a6)
    4cd8:	a0b51653          	flt.s	a2,fa0,fa1
    4cdc:	001028f3          	frflags	a7
    4ce0:	0ac7a423          	sw	a2,168(a5)
    4ce4:	0b17a623          	sw	a7,172(a5)

00004ce8 <inst_805>:
    4ce8:	15882507          	flw	fa0,344(a6)
    4cec:	15c82587          	flw	fa1,348(a6)
    4cf0:	a0b51653          	flt.s	a2,fa0,fa1
    4cf4:	001028f3          	frflags	a7
    4cf8:	0ac7a823          	sw	a2,176(a5)
    4cfc:	0b17aa23          	sw	a7,180(a5)

00004d00 <inst_806>:
    4d00:	16082507          	flw	fa0,352(a6)
    4d04:	16482587          	flw	fa1,356(a6)
    4d08:	a0b51653          	flt.s	a2,fa0,fa1
    4d0c:	001028f3          	frflags	a7
    4d10:	0ac7ac23          	sw	a2,184(a5)
    4d14:	0b17ae23          	sw	a7,188(a5)

00004d18 <inst_807>:
    4d18:	16882507          	flw	fa0,360(a6)
    4d1c:	16c82587          	flw	fa1,364(a6)
    4d20:	a0b51653          	flt.s	a2,fa0,fa1
    4d24:	001028f3          	frflags	a7
    4d28:	0cc7a023          	sw	a2,192(a5)
    4d2c:	0d17a223          	sw	a7,196(a5)

00004d30 <inst_808>:
    4d30:	17082507          	flw	fa0,368(a6)
    4d34:	17482587          	flw	fa1,372(a6)
    4d38:	a0b51653          	flt.s	a2,fa0,fa1
    4d3c:	001028f3          	frflags	a7
    4d40:	0cc7a423          	sw	a2,200(a5)
    4d44:	0d17a623          	sw	a7,204(a5)

00004d48 <inst_809>:
    4d48:	17882507          	flw	fa0,376(a6)
    4d4c:	17c82587          	flw	fa1,380(a6)
    4d50:	a0b51653          	flt.s	a2,fa0,fa1
    4d54:	001028f3          	frflags	a7
    4d58:	0cc7a823          	sw	a2,208(a5)
    4d5c:	0d17aa23          	sw	a7,212(a5)

00004d60 <inst_810>:
    4d60:	18082507          	flw	fa0,384(a6)
    4d64:	18482587          	flw	fa1,388(a6)
    4d68:	a0b51653          	flt.s	a2,fa0,fa1
    4d6c:	001028f3          	frflags	a7
    4d70:	0cc7ac23          	sw	a2,216(a5)
    4d74:	0d17ae23          	sw	a7,220(a5)

00004d78 <inst_811>:
    4d78:	18882507          	flw	fa0,392(a6)
    4d7c:	18c82587          	flw	fa1,396(a6)
    4d80:	a0b51653          	flt.s	a2,fa0,fa1
    4d84:	001028f3          	frflags	a7
    4d88:	0ec7a023          	sw	a2,224(a5)
    4d8c:	0f17a223          	sw	a7,228(a5)

00004d90 <inst_812>:
    4d90:	19082507          	flw	fa0,400(a6)
    4d94:	19482587          	flw	fa1,404(a6)
    4d98:	a0b51653          	flt.s	a2,fa0,fa1
    4d9c:	001028f3          	frflags	a7
    4da0:	0ec7a423          	sw	a2,232(a5)
    4da4:	0f17a623          	sw	a7,236(a5)

00004da8 <inst_813>:
    4da8:	19882507          	flw	fa0,408(a6)
    4dac:	19c82587          	flw	fa1,412(a6)
    4db0:	a0b51653          	flt.s	a2,fa0,fa1
    4db4:	001028f3          	frflags	a7
    4db8:	0ec7a823          	sw	a2,240(a5)
    4dbc:	0f17aa23          	sw	a7,244(a5)

00004dc0 <inst_814>:
    4dc0:	1a082507          	flw	fa0,416(a6)
    4dc4:	1a482587          	flw	fa1,420(a6)
    4dc8:	a0b51653          	flt.s	a2,fa0,fa1
    4dcc:	001028f3          	frflags	a7
    4dd0:	0ec7ac23          	sw	a2,248(a5)
    4dd4:	0f17ae23          	sw	a7,252(a5)

00004dd8 <inst_815>:
    4dd8:	1a882507          	flw	fa0,424(a6)
    4ddc:	1ac82587          	flw	fa1,428(a6)
    4de0:	a0b51653          	flt.s	a2,fa0,fa1
    4de4:	001028f3          	frflags	a7
    4de8:	10c7a023          	sw	a2,256(a5)
    4dec:	1117a223          	sw	a7,260(a5)

00004df0 <inst_816>:
    4df0:	1b082507          	flw	fa0,432(a6)
    4df4:	1b482587          	flw	fa1,436(a6)
    4df8:	a0b51653          	flt.s	a2,fa0,fa1
    4dfc:	001028f3          	frflags	a7
    4e00:	10c7a423          	sw	a2,264(a5)
    4e04:	1117a623          	sw	a7,268(a5)

00004e08 <inst_817>:
    4e08:	1b882507          	flw	fa0,440(a6)
    4e0c:	1bc82587          	flw	fa1,444(a6)
    4e10:	a0b51653          	flt.s	a2,fa0,fa1
    4e14:	001028f3          	frflags	a7
    4e18:	10c7a823          	sw	a2,272(a5)
    4e1c:	1117aa23          	sw	a7,276(a5)

00004e20 <inst_818>:
    4e20:	1c082507          	flw	fa0,448(a6)
    4e24:	1c482587          	flw	fa1,452(a6)
    4e28:	a0b51653          	flt.s	a2,fa0,fa1
    4e2c:	001028f3          	frflags	a7
    4e30:	10c7ac23          	sw	a2,280(a5)
    4e34:	1117ae23          	sw	a7,284(a5)

00004e38 <inst_819>:
    4e38:	1c882507          	flw	fa0,456(a6)
    4e3c:	1cc82587          	flw	fa1,460(a6)
    4e40:	a0b51653          	flt.s	a2,fa0,fa1
    4e44:	001028f3          	frflags	a7
    4e48:	12c7a023          	sw	a2,288(a5)
    4e4c:	1317a223          	sw	a7,292(a5)

00004e50 <inst_820>:
    4e50:	1d082507          	flw	fa0,464(a6)
    4e54:	1d482587          	flw	fa1,468(a6)
    4e58:	a0b51653          	flt.s	a2,fa0,fa1
    4e5c:	001028f3          	frflags	a7
    4e60:	12c7a423          	sw	a2,296(a5)
    4e64:	1317a623          	sw	a7,300(a5)

00004e68 <inst_821>:
    4e68:	1d882507          	flw	fa0,472(a6)
    4e6c:	1dc82587          	flw	fa1,476(a6)
    4e70:	a0b51653          	flt.s	a2,fa0,fa1
    4e74:	001028f3          	frflags	a7
    4e78:	12c7a823          	sw	a2,304(a5)
    4e7c:	1317aa23          	sw	a7,308(a5)

00004e80 <inst_822>:
    4e80:	1e082507          	flw	fa0,480(a6)
    4e84:	1e482587          	flw	fa1,484(a6)
    4e88:	a0b51653          	flt.s	a2,fa0,fa1
    4e8c:	001028f3          	frflags	a7
    4e90:	12c7ac23          	sw	a2,312(a5)
    4e94:	1317ae23          	sw	a7,316(a5)

00004e98 <inst_823>:
    4e98:	1e882507          	flw	fa0,488(a6)
    4e9c:	1ec82587          	flw	fa1,492(a6)
    4ea0:	a0b51653          	flt.s	a2,fa0,fa1
    4ea4:	001028f3          	frflags	a7
    4ea8:	14c7a023          	sw	a2,320(a5)
    4eac:	1517a223          	sw	a7,324(a5)

00004eb0 <inst_824>:
    4eb0:	1f082507          	flw	fa0,496(a6)
    4eb4:	1f482587          	flw	fa1,500(a6)
    4eb8:	a0b51653          	flt.s	a2,fa0,fa1
    4ebc:	001028f3          	frflags	a7
    4ec0:	14c7a423          	sw	a2,328(a5)
    4ec4:	1517a623          	sw	a7,332(a5)

00004ec8 <inst_825>:
    4ec8:	1f882507          	flw	fa0,504(a6)
    4ecc:	1fc82587          	flw	fa1,508(a6)
    4ed0:	a0b51653          	flt.s	a2,fa0,fa1
    4ed4:	001028f3          	frflags	a7
    4ed8:	14c7a823          	sw	a2,336(a5)
    4edc:	1517aa23          	sw	a7,340(a5)

00004ee0 <inst_826>:
    4ee0:	20082507          	flw	fa0,512(a6)
    4ee4:	20482587          	flw	fa1,516(a6)
    4ee8:	a0b51653          	flt.s	a2,fa0,fa1
    4eec:	001028f3          	frflags	a7
    4ef0:	14c7ac23          	sw	a2,344(a5)
    4ef4:	1517ae23          	sw	a7,348(a5)

00004ef8 <inst_827>:
    4ef8:	20882507          	flw	fa0,520(a6)
    4efc:	20c82587          	flw	fa1,524(a6)
    4f00:	a0b51653          	flt.s	a2,fa0,fa1
    4f04:	001028f3          	frflags	a7
    4f08:	16c7a023          	sw	a2,352(a5)
    4f0c:	1717a223          	sw	a7,356(a5)

00004f10 <inst_828>:
    4f10:	21082507          	flw	fa0,528(a6)
    4f14:	21482587          	flw	fa1,532(a6)
    4f18:	a0b51653          	flt.s	a2,fa0,fa1
    4f1c:	001028f3          	frflags	a7
    4f20:	16c7a423          	sw	a2,360(a5)
    4f24:	1717a623          	sw	a7,364(a5)

00004f28 <inst_829>:
    4f28:	21882507          	flw	fa0,536(a6)
    4f2c:	21c82587          	flw	fa1,540(a6)
    4f30:	a0b51653          	flt.s	a2,fa0,fa1
    4f34:	001028f3          	frflags	a7
    4f38:	16c7a823          	sw	a2,368(a5)
    4f3c:	1717aa23          	sw	a7,372(a5)

00004f40 <inst_830>:
    4f40:	22082507          	flw	fa0,544(a6)
    4f44:	22482587          	flw	fa1,548(a6)
    4f48:	a0b51653          	flt.s	a2,fa0,fa1
    4f4c:	001028f3          	frflags	a7
    4f50:	16c7ac23          	sw	a2,376(a5)
    4f54:	1717ae23          	sw	a7,380(a5)

00004f58 <inst_831>:
    4f58:	22882507          	flw	fa0,552(a6)
    4f5c:	22c82587          	flw	fa1,556(a6)
    4f60:	a0b51653          	flt.s	a2,fa0,fa1
    4f64:	001028f3          	frflags	a7
    4f68:	18c7a023          	sw	a2,384(a5)
    4f6c:	1917a223          	sw	a7,388(a5)

00004f70 <inst_832>:
    4f70:	23082507          	flw	fa0,560(a6)
    4f74:	23482587          	flw	fa1,564(a6)
    4f78:	a0b51653          	flt.s	a2,fa0,fa1
    4f7c:	001028f3          	frflags	a7
    4f80:	18c7a423          	sw	a2,392(a5)
    4f84:	1917a623          	sw	a7,396(a5)

00004f88 <inst_833>:
    4f88:	23882507          	flw	fa0,568(a6)
    4f8c:	23c82587          	flw	fa1,572(a6)
    4f90:	a0b51653          	flt.s	a2,fa0,fa1
    4f94:	001028f3          	frflags	a7
    4f98:	18c7a823          	sw	a2,400(a5)
    4f9c:	1917aa23          	sw	a7,404(a5)

00004fa0 <inst_834>:
    4fa0:	24082507          	flw	fa0,576(a6)
    4fa4:	24482587          	flw	fa1,580(a6)
    4fa8:	a0b51653          	flt.s	a2,fa0,fa1
    4fac:	001028f3          	frflags	a7
    4fb0:	18c7ac23          	sw	a2,408(a5)
    4fb4:	1917ae23          	sw	a7,412(a5)

00004fb8 <inst_835>:
    4fb8:	24882507          	flw	fa0,584(a6)
    4fbc:	24c82587          	flw	fa1,588(a6)
    4fc0:	a0b51653          	flt.s	a2,fa0,fa1
    4fc4:	001028f3          	frflags	a7
    4fc8:	1ac7a023          	sw	a2,416(a5)
    4fcc:	1b17a223          	sw	a7,420(a5)

00004fd0 <inst_836>:
    4fd0:	25082507          	flw	fa0,592(a6)
    4fd4:	25482587          	flw	fa1,596(a6)
    4fd8:	a0b51653          	flt.s	a2,fa0,fa1
    4fdc:	001028f3          	frflags	a7
    4fe0:	1ac7a423          	sw	a2,424(a5)
    4fe4:	1b17a623          	sw	a7,428(a5)

00004fe8 <inst_837>:
    4fe8:	25882507          	flw	fa0,600(a6)
    4fec:	25c82587          	flw	fa1,604(a6)
    4ff0:	a0b51653          	flt.s	a2,fa0,fa1
    4ff4:	001028f3          	frflags	a7
    4ff8:	1ac7a823          	sw	a2,432(a5)
    4ffc:	1b17aa23          	sw	a7,436(a5)

00005000 <inst_838>:
    5000:	26082507          	flw	fa0,608(a6)
    5004:	26482587          	flw	fa1,612(a6)
    5008:	a0b51653          	flt.s	a2,fa0,fa1
    500c:	001028f3          	frflags	a7
    5010:	1ac7ac23          	sw	a2,440(a5)
    5014:	1b17ae23          	sw	a7,444(a5)

00005018 <inst_839>:
    5018:	26882507          	flw	fa0,616(a6)
    501c:	26c82587          	flw	fa1,620(a6)
    5020:	a0b51653          	flt.s	a2,fa0,fa1
    5024:	001028f3          	frflags	a7
    5028:	1cc7a023          	sw	a2,448(a5)
    502c:	1d17a223          	sw	a7,452(a5)

00005030 <inst_840>:
    5030:	27082507          	flw	fa0,624(a6)
    5034:	27482587          	flw	fa1,628(a6)
    5038:	a0b51653          	flt.s	a2,fa0,fa1
    503c:	001028f3          	frflags	a7
    5040:	1cc7a423          	sw	a2,456(a5)
    5044:	1d17a623          	sw	a7,460(a5)

00005048 <inst_841>:
    5048:	27882507          	flw	fa0,632(a6)
    504c:	27c82587          	flw	fa1,636(a6)
    5050:	a0b51653          	flt.s	a2,fa0,fa1
    5054:	001028f3          	frflags	a7
    5058:	1cc7a823          	sw	a2,464(a5)
    505c:	1d17aa23          	sw	a7,468(a5)

00005060 <inst_842>:
    5060:	28082507          	flw	fa0,640(a6)
    5064:	28482587          	flw	fa1,644(a6)
    5068:	a0b51653          	flt.s	a2,fa0,fa1
    506c:	001028f3          	frflags	a7
    5070:	1cc7ac23          	sw	a2,472(a5)
    5074:	1d17ae23          	sw	a7,476(a5)

00005078 <inst_843>:
    5078:	28882507          	flw	fa0,648(a6)
    507c:	28c82587          	flw	fa1,652(a6)
    5080:	a0b51653          	flt.s	a2,fa0,fa1
    5084:	001028f3          	frflags	a7
    5088:	1ec7a023          	sw	a2,480(a5)
    508c:	1f17a223          	sw	a7,484(a5)

00005090 <inst_844>:
    5090:	29082507          	flw	fa0,656(a6)
    5094:	29482587          	flw	fa1,660(a6)
    5098:	a0b51653          	flt.s	a2,fa0,fa1
    509c:	001028f3          	frflags	a7
    50a0:	1ec7a423          	sw	a2,488(a5)
    50a4:	1f17a623          	sw	a7,492(a5)

000050a8 <inst_845>:
    50a8:	29882507          	flw	fa0,664(a6)
    50ac:	29c82587          	flw	fa1,668(a6)
    50b0:	a0b51653          	flt.s	a2,fa0,fa1
    50b4:	001028f3          	frflags	a7
    50b8:	1ec7a823          	sw	a2,496(a5)
    50bc:	1f17aa23          	sw	a7,500(a5)

000050c0 <inst_846>:
    50c0:	2a082507          	flw	fa0,672(a6)
    50c4:	2a482587          	flw	fa1,676(a6)
    50c8:	a0b51653          	flt.s	a2,fa0,fa1
    50cc:	001028f3          	frflags	a7
    50d0:	1ec7ac23          	sw	a2,504(a5)
    50d4:	1f17ae23          	sw	a7,508(a5)

000050d8 <inst_847>:
    50d8:	2a882507          	flw	fa0,680(a6)
    50dc:	2ac82587          	flw	fa1,684(a6)
    50e0:	a0b51653          	flt.s	a2,fa0,fa1
    50e4:	001028f3          	frflags	a7
    50e8:	20c7a023          	sw	a2,512(a5)
    50ec:	2117a223          	sw	a7,516(a5)

000050f0 <inst_848>:
    50f0:	2b082507          	flw	fa0,688(a6)
    50f4:	2b482587          	flw	fa1,692(a6)
    50f8:	a0b51653          	flt.s	a2,fa0,fa1
    50fc:	001028f3          	frflags	a7
    5100:	20c7a423          	sw	a2,520(a5)
    5104:	2117a623          	sw	a7,524(a5)

00005108 <inst_849>:
    5108:	2b882507          	flw	fa0,696(a6)
    510c:	2bc82587          	flw	fa1,700(a6)
    5110:	a0b51653          	flt.s	a2,fa0,fa1
    5114:	001028f3          	frflags	a7
    5118:	20c7a823          	sw	a2,528(a5)
    511c:	2117aa23          	sw	a7,532(a5)

00005120 <inst_850>:
    5120:	2c082507          	flw	fa0,704(a6)
    5124:	2c482587          	flw	fa1,708(a6)
    5128:	a0b51653          	flt.s	a2,fa0,fa1
    512c:	001028f3          	frflags	a7
    5130:	20c7ac23          	sw	a2,536(a5)
    5134:	2117ae23          	sw	a7,540(a5)

00005138 <inst_851>:
    5138:	2c882507          	flw	fa0,712(a6)
    513c:	2cc82587          	flw	fa1,716(a6)
    5140:	a0b51653          	flt.s	a2,fa0,fa1
    5144:	001028f3          	frflags	a7
    5148:	22c7a023          	sw	a2,544(a5)
    514c:	2317a223          	sw	a7,548(a5)

00005150 <inst_852>:
    5150:	2d082507          	flw	fa0,720(a6)
    5154:	2d482587          	flw	fa1,724(a6)
    5158:	a0b51653          	flt.s	a2,fa0,fa1
    515c:	001028f3          	frflags	a7
    5160:	22c7a423          	sw	a2,552(a5)
    5164:	2317a623          	sw	a7,556(a5)

00005168 <inst_853>:
    5168:	2d882507          	flw	fa0,728(a6)
    516c:	2dc82587          	flw	fa1,732(a6)
    5170:	a0b51653          	flt.s	a2,fa0,fa1
    5174:	001028f3          	frflags	a7
    5178:	22c7a823          	sw	a2,560(a5)
    517c:	2317aa23          	sw	a7,564(a5)

00005180 <inst_854>:
    5180:	2e082507          	flw	fa0,736(a6)
    5184:	2e482587          	flw	fa1,740(a6)
    5188:	a0b51653          	flt.s	a2,fa0,fa1
    518c:	001028f3          	frflags	a7
    5190:	22c7ac23          	sw	a2,568(a5)
    5194:	2317ae23          	sw	a7,572(a5)

00005198 <inst_855>:
    5198:	2e882507          	flw	fa0,744(a6)
    519c:	2ec82587          	flw	fa1,748(a6)
    51a0:	a0b51653          	flt.s	a2,fa0,fa1
    51a4:	001028f3          	frflags	a7
    51a8:	24c7a023          	sw	a2,576(a5)
    51ac:	2517a223          	sw	a7,580(a5)

000051b0 <inst_856>:
    51b0:	2f082507          	flw	fa0,752(a6)
    51b4:	2f482587          	flw	fa1,756(a6)
    51b8:	a0b51653          	flt.s	a2,fa0,fa1
    51bc:	001028f3          	frflags	a7
    51c0:	24c7a423          	sw	a2,584(a5)
    51c4:	2517a623          	sw	a7,588(a5)

000051c8 <inst_857>:
