
/home/alejandro/Escritorio/test_riscv2.5/riscv-compliance/work/rv32i_m/F/fmadd_b7-01.elf:     formato del fichero elf32-littleriscv


Desensamblado de la sección .text.init:

00000000 <rvtest_entry_point>:
       0:	feedc0b7          	lui	ra,0xfeedc
       4:	ead08093          	add	ra,ra,-339 # feedbead <_end+0xfeed917d>
       8:	ff76e137          	lui	sp,0xff76e
       c:	f5610113          	add	sp,sp,-170 # ff76df56 <_end+0xff76b226>
      10:	7fbb71b7          	lui	gp,0x7fbb7
      14:	fab18193          	add	gp,gp,-85 # 7fbb6fab <_end+0x7fbb427b>
      18:	bfddb237          	lui	tp,0xbfddb
      1c:	7d520213          	add	tp,tp,2005 # bfddb7d5 <_end+0xbfdd8aa5>
      20:	00000297          	auipc	t0,0x0
      24:	0d828293          	add	t0,t0,216 # f8 <rvtest_code_begin>
      28:	00002317          	auipc	t1,0x2
      2c:	fd830313          	add	t1,t1,-40 # 2000 <rvtest_data_begin>
      30:	b7fbb3b7          	lui	t2,0xb7fbb
      34:	6fa38393          	add	t2,t2,1786 # b7fbb6fa <_end+0xb7fb89ca>
      38:	5bfde437          	lui	s0,0x5bfde
      3c:	b7d40413          	add	s0,s0,-1155 # 5bfddb7d <_end+0x5bfdae4d>
      40:	adfef4b7          	lui	s1,0xadfef
      44:	dbe48493          	add	s1,s1,-578 # adfeedbe <_end+0xadfec08e>
      48:	56ff7537          	lui	a0,0x56ff7
      4c:	6df50513          	add	a0,a0,1759 # 56ff76df <_end+0x56ff49af>
      50:	ab7fc5b7          	lui	a1,0xab7fc
      54:	b6f58593          	add	a1,a1,-1169 # ab7fbb6f <_end+0xab7f8e3f>
      58:	d5bfe637          	lui	a2,0xd5bfe
      5c:	db760613          	add	a2,a2,-585 # d5bfddb7 <_end+0xd5bfb087>
      60:	eadff6b7          	lui	a3,0xeadff
      64:	edb68693          	add	a3,a3,-293 # eadfeedb <_end+0xeadfc1ab>
      68:	f56ff737          	lui	a4,0xf56ff
      6c:	76d70713          	add	a4,a4,1901 # f56ff76d <_end+0xf56fca3d>
      70:	fab807b7          	lui	a5,0xfab80
      74:	bb678793          	add	a5,a5,-1098 # fab7fbb6 <_end+0xfab7ce86>
      78:	7d5c0837          	lui	a6,0x7d5c0
      7c:	ddb80813          	add	a6,a6,-549 # 7d5bfddb <_end+0x7d5bd0ab>
      80:	beae08b7          	lui	a7,0xbeae0
      84:	eed88893          	add	a7,a7,-275 # beadfeed <_end+0xbeadd1bd>
      88:	df570937          	lui	s2,0xdf570
      8c:	f7690913          	add	s2,s2,-138 # df56ff76 <_end+0xdf56d246>
      90:	6fab89b7          	lui	s3,0x6fab8
      94:	fbb98993          	add	s3,s3,-69 # 6fab7fbb <_end+0x6fab528b>
      98:	b7d5ca37          	lui	s4,0xb7d5c
      9c:	fdda0a13          	add	s4,s4,-35 # b7d5bfdd <_end+0xb7d592ad>
      a0:	dbeaeab7          	lui	s5,0xdbeae
      a4:	feea8a93          	add	s5,s5,-18 # dbeadfee <_end+0xdbeab2be>
      a8:	6df57b37          	lui	s6,0x6df57
      ac:	ff7b0b13          	add	s6,s6,-9 # 6df56ff7 <_end+0x6df542c7>
      b0:	b6fabbb7          	lui	s7,0xb6fab
      b4:	7fbb8b93          	add	s7,s7,2043 # b6fab7fb <_end+0xb6fa8acb>
      b8:	db7d6c37          	lui	s8,0xdb7d6
      bc:	bfdc0c13          	add	s8,s8,-1027 # db7d5bfd <_end+0xdb7d2ecd>
      c0:	edbebcb7          	lui	s9,0xedbeb
      c4:	dfec8c93          	add	s9,s9,-514 # edbeadfe <_end+0xedbe80ce>
      c8:	76df5d37          	lui	s10,0x76df5
      cc:	6ffd0d13          	add	s10,s10,1791 # 76df56ff <_end+0x76df29cf>
      d0:	bb6fbdb7          	lui	s11,0xbb6fb
      d4:	b7fd8d93          	add	s11,s11,-1153 # bb6fab7f <_end+0xbb6f7e4f>
      d8:	ddb7de37          	lui	t3,0xddb7d
      dc:	5bfe0e13          	add	t3,t3,1471 # ddb7d5bf <_end+0xddb7a88f>
      e0:	eedbfeb7          	lui	t4,0xeedbf
      e4:	adfe8e93          	add	t4,t4,-1313 # eedbeadf <_end+0xeedbbdaf>
      e8:	f76dff37          	lui	t5,0xf76df
      ec:	56ff0f13          	add	t5,t5,1391 # f76df56f <_end+0xf76dc83f>
      f0:	fbb70fb7          	lui	t6,0xfbb70
      f4:	ab7f8f93          	add	t6,t6,-1353 # fbb6fab7 <_end+0xfbb6cd87>

000000f8 <rvtest_code_begin>:
      f8:	00002537          	lui	a0,0x2
      fc:	30052073          	csrs	mstatus,a0
     100:	00002817          	auipc	a6,0x2
     104:	f0480813          	add	a6,a6,-252 # 2004 <test_fp>
     108:	00002797          	auipc	a5,0x2
     10c:	6e878793          	add	a5,a5,1768 # 27f0 <data_begin>

00000110 <inst_0>:
     110:	00082e07          	flw	ft8,0(a6)
     114:	00482007          	flw	ft0,4(a6)
     118:	00882e07          	flw	ft8,8(a6)
     11c:	0021d073          	fsrmi	zero,3
     120:	e00e7b43          	fmadd.s	fs6,ft8,ft0,ft8
     124:	001028f3          	frflags	a7
     128:	0167a027          	fsw	fs6,0(a5)
     12c:	0117a223          	sw	a7,4(a5)

00000130 <inst_1>:
     130:	00c82f07          	flw	ft10,12(a6)
     134:	01082f87          	flw	ft11,16(a6)
     138:	01482a07          	flw	fs4,20(a6)
     13c:	0021d073          	fsrmi	zero,3
     140:	a1ff7fc3          	fmadd.s	ft11,ft10,ft11,fs4
     144:	001028f3          	frflags	a7
     148:	01f7a427          	fsw	ft11,8(a5)
     14c:	0117a623          	sw	a7,12(a5)

00000150 <inst_2>:
     150:	01882507          	flw	fa0,24(a6)
     154:	01c82187          	flw	ft3,28(a6)
     158:	02082387          	flw	ft7,32(a6)
     15c:	0021d073          	fsrmi	zero,3
     160:	383573c3          	fmadd.s	ft7,fa0,ft3,ft7
     164:	001028f3          	frflags	a7
     168:	0077a827          	fsw	ft7,16(a5)
     16c:	0117aa23          	sw	a7,20(a5)

00000170 <inst_3>:
     170:	02482487          	flw	fs1,36(a6)
     174:	02882487          	flw	fs1,40(a6)
     178:	02c82207          	flw	ft4,44(a6)
     17c:	0021d073          	fsrmi	zero,3
     180:	2094fdc3          	fmadd.s	fs11,fs1,fs1,ft4
     184:	001028f3          	frflags	a7
     188:	01b7ac27          	fsw	fs11,24(a5)
     18c:	0117ae23          	sw	a7,28(a5)

00000190 <inst_4>:
     190:	03082787          	flw	fa5,48(a6)
     194:	03482787          	flw	fa5,52(a6)
     198:	03882487          	flw	fs1,56(a6)
     19c:	0021d073          	fsrmi	zero,3
     1a0:	48f7f7c3          	fmadd.s	fa5,fa5,fa5,fs1
     1a4:	001028f3          	frflags	a7
     1a8:	02f7a027          	fsw	fa5,32(a5)
     1ac:	0317a223          	sw	a7,36(a5)

000001b0 <inst_5>:
     1b0:	03c82707          	flw	fa4,60(a6)
     1b4:	04082707          	flw	fa4,64(a6)
     1b8:	04482707          	flw	fa4,68(a6)
     1bc:	0021d073          	fsrmi	zero,3
     1c0:	70e77343          	fmadd.s	ft6,fa4,fa4,fa4
     1c4:	001028f3          	frflags	a7
     1c8:	0267a427          	fsw	ft6,40(a5)
     1cc:	0317a623          	sw	a7,44(a5)

000001d0 <inst_6>:
     1d0:	04882c07          	flw	fs8,72(a6)
     1d4:	04c82c07          	flw	fs8,76(a6)
     1d8:	05082c07          	flw	fs8,80(a6)
     1dc:	0021d073          	fsrmi	zero,3
     1e0:	c18c7c43          	fmadd.s	fs8,fs8,fs8,fs8
     1e4:	001028f3          	frflags	a7
     1e8:	0387a827          	fsw	fs8,48(a5)
     1ec:	0317aa23          	sw	a7,52(a5)

000001f0 <inst_7>:
     1f0:	05482a87          	flw	fs5,84(a6)
     1f4:	05882987          	flw	fs3,88(a6)
     1f8:	05c82d07          	flw	fs10,92(a6)
     1fc:	0021d073          	fsrmi	zero,3
     200:	d13afac3          	fmadd.s	fs5,fs5,fs3,fs10
     204:	001028f3          	frflags	a7
     208:	0357ac27          	fsw	fs5,56(a5)
     20c:	0317ae23          	sw	a7,60(a5)

00000210 <inst_8>:
     210:	06082f87          	flw	ft11,96(a6)
     214:	06482c87          	flw	fs9,100(a6)
     218:	06882c87          	flw	fs9,104(a6)
     21c:	0021d073          	fsrmi	zero,3
     220:	c99ffcc3          	fmadd.s	fs9,ft11,fs9,fs9
     224:	001028f3          	frflags	a7
     228:	0597a027          	fsw	fs9,64(a5)
     22c:	0517a223          	sw	a7,68(a5)

00000230 <inst_9>:
     230:	06c82987          	flw	fs3,108(a6)
     234:	07082107          	flw	ft2,112(a6)
     238:	07482987          	flw	fs3,116(a6)
     23c:	0021d073          	fsrmi	zero,3
     240:	9829f9c3          	fmadd.s	fs3,fs3,ft2,fs3
     244:	001028f3          	frflags	a7
     248:	0537a427          	fsw	fs3,72(a5)
     24c:	0517a623          	sw	a7,76(a5)

00000250 <inst_10>:
     250:	07882e87          	flw	ft9,120(a6)
     254:	07c82f07          	flw	ft10,124(a6)
     258:	08082287          	flw	ft5,128(a6)
     25c:	0021d073          	fsrmi	zero,3
     260:	29eef943          	fmadd.s	fs2,ft9,ft10,ft5
     264:	001028f3          	frflags	a7
     268:	0527a827          	fsw	fs2,80(a5)
     26c:	0517aa23          	sw	a7,84(a5)

00000270 <inst_11>:
     270:	08482687          	flw	fa3,132(a6)
     274:	08882307          	flw	ft6,136(a6)
     278:	08c82307          	flw	ft6,140(a6)
     27c:	0021d073          	fsrmi	zero,3
     280:	3066f843          	fmadd.s	fa6,fa3,ft6,ft6
     284:	001028f3          	frflags	a7
     288:	0507ac27          	fsw	fa6,88(a5)
     28c:	0517ae23          	sw	a7,92(a5)

00000290 <inst_12>:
     290:	09082587          	flw	fa1,144(a6)
     294:	09482a87          	flw	fs5,148(a6)
     298:	09882007          	flw	ft0,152(a6)
     29c:	0021d073          	fsrmi	zero,3
     2a0:	0155f143          	fmadd.s	ft2,fa1,fs5,ft0
     2a4:	001028f3          	frflags	a7
     2a8:	0627a027          	fsw	ft2,96(a5)
     2ac:	0717a223          	sw	a7,100(a5)

000002b0 <inst_13>:
     2b0:	09c82d87          	flw	fs11,156(a6)
     2b4:	0a082507          	flw	fa0,160(a6)
     2b8:	0a482787          	flw	fa5,164(a6)
     2bc:	0021d073          	fsrmi	zero,3
     2c0:	78adfec3          	fmadd.s	ft9,fs11,fa0,fa5
     2c4:	001028f3          	frflags	a7
     2c8:	07d7a427          	fsw	ft9,104(a5)
     2cc:	0717a623          	sw	a7,108(a5)

000002d0 <inst_14>:
     2d0:	0a882107          	flw	ft2,168(a6)
     2d4:	0ac82e07          	flw	ft8,172(a6)
     2d8:	0b082f87          	flw	ft11,176(a6)
     2dc:	0021d073          	fsrmi	zero,3
     2e0:	f9c171c3          	fmadd.s	ft3,ft2,ft8,ft11
     2e4:	001028f3          	frflags	a7
     2e8:	0637a827          	fsw	ft3,112(a5)
     2ec:	0717aa23          	sw	a7,116(a5)

000002f0 <inst_15>:
     2f0:	0b482087          	flw	ft1,180(a6)
     2f4:	0b882287          	flw	ft5,184(a6)
     2f8:	0bc82887          	flw	fa7,188(a6)
     2fc:	0021d073          	fsrmi	zero,3
     300:	8850fbc3          	fmadd.s	fs7,ft1,ft5,fa7
     304:	001028f3          	frflags	a7
     308:	0777ac27          	fsw	fs7,120(a5)
     30c:	0717ae23          	sw	a7,124(a5)

00000310 <inst_16>:
     310:	0c082d07          	flw	fs10,192(a6)
     314:	0c482d87          	flw	fs11,196(a6)
     318:	0c882b87          	flw	fs7,200(a6)
     31c:	0021d073          	fsrmi	zero,3
     320:	b9bd7e43          	fmadd.s	ft8,fs10,fs11,fs7
     324:	001028f3          	frflags	a7
     328:	09c7a027          	fsw	ft8,128(a5)
     32c:	0917a223          	sw	a7,132(a5)

00000330 <inst_17>:
     330:	0cc82387          	flw	ft7,204(a6)
     334:	0d082687          	flw	fa3,208(a6)
     338:	0d482187          	flw	ft3,212(a6)
     33c:	0021d073          	fsrmi	zero,3
     340:	18d3f2c3          	fmadd.s	ft5,ft7,fa3,ft3
     344:	001028f3          	frflags	a7
     348:	0857a427          	fsw	ft5,136(a5)
     34c:	0917a623          	sw	a7,140(a5)

00000350 <inst_18>:
     350:	0d882a07          	flw	fs4,216(a6)
     354:	0dc82607          	flw	fa2,220(a6)
     358:	0e082807          	flw	fa6,224(a6)
     35c:	0021d073          	fsrmi	zero,3
     360:	80ca78c3          	fmadd.s	fa7,fs4,fa2,fa6
     364:	001028f3          	frflags	a7
     368:	0917a827          	fsw	fa7,144(a5)
     36c:	0917aa23          	sw	a7,148(a5)

00000370 <inst_19>:
     370:	0e482907          	flw	fs2,228(a6)
     374:	0e882b87          	flw	fs7,232(a6)
     378:	0ec82607          	flw	fa2,236(a6)
     37c:	0021d073          	fsrmi	zero,3
     380:	617970c3          	fmadd.s	ft1,fs2,fs7,fa2
     384:	001028f3          	frflags	a7
     388:	0817ac27          	fsw	ft1,152(a5)
     38c:	0917ae23          	sw	a7,156(a5)

00000390 <inst_20>:
     390:	0f082287          	flw	ft5,240(a6)
     394:	0f482387          	flw	ft7,244(a6)
     398:	0f882e87          	flw	ft9,248(a6)
     39c:	0021d073          	fsrmi	zero,3
     3a0:	e872ff43          	fmadd.s	ft10,ft5,ft7,ft9
     3a4:	001028f3          	frflags	a7
     3a8:	0be7a027          	fsw	ft10,160(a5)
     3ac:	0b17a223          	sw	a7,164(a5)

000003b0 <inst_21>:
     3b0:	0fc82b87          	flw	fs7,252(a6)
     3b4:	10082407          	flw	fs0,256(a6)
     3b8:	10482087          	flw	ft1,260(a6)
     3bc:	0021d073          	fsrmi	zero,3
     3c0:	088bf4c3          	fmadd.s	fs1,fs7,fs0,ft1
     3c4:	001028f3          	frflags	a7
     3c8:	0a97a427          	fsw	fs1,168(a5)
     3cc:	0b17a623          	sw	a7,172(a5)

000003d0 <inst_22>:
     3d0:	10882007          	flw	ft0,264(a6)
     3d4:	10c82b07          	flw	fs6,268(a6)
     3d8:	11082a87          	flw	fs5,272(a6)
     3dc:	0021d073          	fsrmi	zero,3
     3e0:	a9607643          	fmadd.s	fa2,ft0,fs6,fs5
     3e4:	001028f3          	frflags	a7
     3e8:	0ac7a827          	fsw	fa2,176(a5)
     3ec:	0b17aa23          	sw	a7,180(a5)

000003f0 <inst_23>:
     3f0:	11482187          	flw	ft3,276(a6)
     3f4:	11882d07          	flw	fs10,280(a6)
     3f8:	11c82f07          	flw	ft10,284(a6)
     3fc:	0021d073          	fsrmi	zero,3
     400:	f1a1f043          	fmadd.s	ft0,ft3,fs10,ft10
     404:	001028f3          	frflags	a7
     408:	0a07ac27          	fsw	ft0,184(a5)
     40c:	0b17ae23          	sw	a7,188(a5)

00000410 <inst_24>:
     410:	12082407          	flw	fs0,288(a6)
     414:	12482087          	flw	ft1,292(a6)
     418:	12882507          	flw	fa0,296(a6)
     41c:	0021d073          	fsrmi	zero,3
     420:	501475c3          	fmadd.s	fa1,fs0,ft1,fa0
     424:	001028f3          	frflags	a7
     428:	0cb7a027          	fsw	fa1,192(a5)
     42c:	0d17a223          	sw	a7,196(a5)

00000430 <inst_25>:
     430:	12c82b07          	flw	fs6,300(a6)
     434:	13082807          	flw	fa6,304(a6)
     438:	13482107          	flw	ft2,308(a6)
     43c:	0021d073          	fsrmi	zero,3
     440:	110b7243          	fmadd.s	ft4,fs6,fa6,ft2
     444:	001028f3          	frflags	a7
     448:	0c47a427          	fsw	ft4,200(a5)
     44c:	0d17a623          	sw	a7,204(a5)

00000450 <inst_26>:
     450:	13882807          	flw	fa6,312(a6)
     454:	13c82207          	flw	ft4,316(a6)
     458:	14082907          	flw	fs2,320(a6)
     45c:	0021d073          	fsrmi	zero,3
     460:	904876c3          	fmadd.s	fa3,fa6,ft4,fs2
     464:	001028f3          	frflags	a7
     468:	0cd7a827          	fsw	fa3,208(a5)
     46c:	0d17aa23          	sw	a7,212(a5)

00000470 <inst_27>:
     470:	14482607          	flw	fa2,324(a6)
     474:	14882e87          	flw	ft9,328(a6)
     478:	14c82407          	flw	fs0,332(a6)
     47c:	0021d073          	fsrmi	zero,3
     480:	41d67543          	fmadd.s	fa0,fa2,ft9,fs0
     484:	001028f3          	frflags	a7
     488:	0ca7ac27          	fsw	fa0,216(a5)
     48c:	0d17ae23          	sw	a7,220(a5)

00000490 <inst_28>:
     490:	15082307          	flw	ft6,336(a6)
     494:	15482a07          	flw	fs4,340(a6)
     498:	15882b07          	flw	fs6,344(a6)
     49c:	0021d073          	fsrmi	zero,3
     4a0:	b1437d43          	fmadd.s	fs10,ft6,fs4,fs6
     4a4:	001028f3          	frflags	a7
     4a8:	0fa7a027          	fsw	fs10,224(a5)
     4ac:	0f17a223          	sw	a7,228(a5)

000004b0 <inst_29>:
     4b0:	15c82c87          	flw	fs9,348(a6)
     4b4:	16082907          	flw	fs2,352(a6)
     4b8:	16482687          	flw	fa3,356(a6)
     4bc:	0021d073          	fsrmi	zero,3
     4c0:	692cf443          	fmadd.s	fs0,fs9,fs2,fa3
     4c4:	001028f3          	frflags	a7
     4c8:	0e87a427          	fsw	fs0,232(a5)
     4cc:	0f17a623          	sw	a7,236(a5)

000004d0 <inst_30>:
     4d0:	16882887          	flw	fa7,360(a6)
     4d4:	16c82587          	flw	fa1,364(a6)
     4d8:	17082d87          	flw	fs11,368(a6)
     4dc:	0021d073          	fsrmi	zero,3
     4e0:	d8b8f743          	fmadd.s	fa4,fa7,fa1,fs11
     4e4:	001028f3          	frflags	a7
     4e8:	0ee7a827          	fsw	fa4,240(a5)
     4ec:	0f17aa23          	sw	a7,244(a5)

000004f0 <inst_31>:
     4f0:	17482207          	flw	ft4,372(a6)
     4f4:	17882887          	flw	fa7,376(a6)
     4f8:	17c82587          	flw	fa1,380(a6)
     4fc:	0021d073          	fsrmi	zero,3
     500:	59127a43          	fmadd.s	fs4,ft4,fa7,fa1
     504:	001028f3          	frflags	a7
     508:	0f47ac27          	fsw	fs4,248(a5)
     50c:	0f17ae23          	sw	a7,252(a5)

00000510 <inst_32>:
     510:	18082507          	flw	fa0,384(a6)
     514:	18482587          	flw	fa1,388(a6)
     518:	18882607          	flw	fa2,392(a6)
     51c:	0021d073          	fsrmi	zero,3
     520:	60b576c3          	fmadd.s	fa3,fa0,fa1,fa2
     524:	001028f3          	frflags	a7
     528:	10d7a027          	fsw	fa3,256(a5)
     52c:	1117a223          	sw	a7,260(a5)

00000530 <inst_33>:
     530:	18c82507          	flw	fa0,396(a6)
     534:	19082587          	flw	fa1,400(a6)
     538:	19482607          	flw	fa2,404(a6)
     53c:	0021d073          	fsrmi	zero,3
     540:	60b576c3          	fmadd.s	fa3,fa0,fa1,fa2
     544:	001028f3          	frflags	a7
     548:	10d7a427          	fsw	fa3,264(a5)
     54c:	1117a623          	sw	a7,268(a5)

00000550 <inst_34>:
     550:	19882507          	flw	fa0,408(a6)
     554:	19c82587          	flw	fa1,412(a6)
     558:	1a082607          	flw	fa2,416(a6)
     55c:	0021d073          	fsrmi	zero,3
     560:	60b576c3          	fmadd.s	fa3,fa0,fa1,fa2
     564:	001028f3          	frflags	a7
     568:	10d7a827          	fsw	fa3,272(a5)
     56c:	1117aa23          	sw	a7,276(a5)

00000570 <inst_35>:
     570:	1a482507          	flw	fa0,420(a6)
     574:	1a882587          	flw	fa1,424(a6)
     578:	1ac82607          	flw	fa2,428(a6)
     57c:	0021d073          	fsrmi	zero,3
     580:	60b576c3          	fmadd.s	fa3,fa0,fa1,fa2
     584:	001028f3          	frflags	a7
     588:	10d7ac27          	fsw	fa3,280(a5)
     58c:	1117ae23          	sw	a7,284(a5)

00000590 <inst_36>:
     590:	1b082507          	flw	fa0,432(a6)
     594:	1b482587          	flw	fa1,436(a6)
     598:	1b882607          	flw	fa2,440(a6)
     59c:	0021d073          	fsrmi	zero,3
     5a0:	60b576c3          	fmadd.s	fa3,fa0,fa1,fa2
     5a4:	001028f3          	frflags	a7
     5a8:	12d7a027          	fsw	fa3,288(a5)
     5ac:	1317a223          	sw	a7,292(a5)

000005b0 <inst_37>:
     5b0:	1bc82507          	flw	fa0,444(a6)
     5b4:	1c082587          	flw	fa1,448(a6)
     5b8:	1c482607          	flw	fa2,452(a6)
     5bc:	0021d073          	fsrmi	zero,3
     5c0:	60b576c3          	fmadd.s	fa3,fa0,fa1,fa2
     5c4:	001028f3          	frflags	a7
     5c8:	12d7a427          	fsw	fa3,296(a5)
     5cc:	1317a623          	sw	a7,300(a5)

000005d0 <inst_38>:
     5d0:	1c882507          	flw	fa0,456(a6)
     5d4:	1cc82587          	flw	fa1,460(a6)
     5d8:	1d082607          	flw	fa2,464(a6)
     5dc:	0021d073          	fsrmi	zero,3
     5e0:	60b576c3          	fmadd.s	fa3,fa0,fa1,fa2
     5e4:	001028f3          	frflags	a7
     5e8:	12d7a827          	fsw	fa3,304(a5)
     5ec:	1317aa23          	sw	a7,308(a5)

000005f0 <inst_39>:
     5f0:	1d482507          	flw	fa0,468(a6)
     5f4:	1d882587          	flw	fa1,472(a6)
     5f8:	1dc82607          	flw	fa2,476(a6)
     5fc:	0021d073          	fsrmi	zero,3
     600:	60b576c3          	fmadd.s	fa3,fa0,fa1,fa2
     604:	001028f3          	frflags	a7
     608:	12d7ac27          	fsw	fa3,312(a5)
     60c:	1317ae23          	sw	a7,316(a5)

00000610 <inst_40>:
     610:	1e082507          	flw	fa0,480(a6)
     614:	1e482587          	flw	fa1,484(a6)
     618:	1e882607          	flw	fa2,488(a6)
     61c:	0021d073          	fsrmi	zero,3
     620:	60b576c3          	fmadd.s	fa3,fa0,fa1,fa2
     624:	001028f3          	frflags	a7
     628:	14d7a027          	fsw	fa3,320(a5)
     62c:	1517a223          	sw	a7,324(a5)

00000630 <inst_41>:
     630:	1ec82507          	flw	fa0,492(a6)
     634:	1f082587          	flw	fa1,496(a6)
     638:	1f482607          	flw	fa2,500(a6)
     63c:	0021d073          	fsrmi	zero,3
     640:	60b576c3          	fmadd.s	fa3,fa0,fa1,fa2
     644:	001028f3          	frflags	a7
     648:	14d7a427          	fsw	fa3,328(a5)
     64c:	1517a623          	sw	a7,332(a5)

00000650 <inst_42>:
     650:	1f882507          	flw	fa0,504(a6)
     654:	1fc82587          	flw	fa1,508(a6)
     658:	20082607          	flw	fa2,512(a6)
     65c:	0021d073          	fsrmi	zero,3
     660:	60b576c3          	fmadd.s	fa3,fa0,fa1,fa2
     664:	001028f3          	frflags	a7
     668:	14d7a827          	fsw	fa3,336(a5)
     66c:	1517aa23          	sw	a7,340(a5)

00000670 <inst_43>:
     670:	20482507          	flw	fa0,516(a6)
     674:	20882587          	flw	fa1,520(a6)
     678:	20c82607          	flw	fa2,524(a6)
     67c:	0021d073          	fsrmi	zero,3
     680:	60b576c3          	fmadd.s	fa3,fa0,fa1,fa2
     684:	001028f3          	frflags	a7
     688:	14d7ac27          	fsw	fa3,344(a5)
     68c:	1517ae23          	sw	a7,348(a5)

00000690 <inst_44>:
     690:	21082507          	flw	fa0,528(a6)
     694:	21482587          	flw	fa1,532(a6)
     698:	21882607          	flw	fa2,536(a6)
     69c:	0021d073          	fsrmi	zero,3
     6a0:	60b576c3          	fmadd.s	fa3,fa0,fa1,fa2
     6a4:	001028f3          	frflags	a7
     6a8:	16d7a027          	fsw	fa3,352(a5)
     6ac:	1717a223          	sw	a7,356(a5)

000006b0 <inst_45>:
     6b0:	21c82507          	flw	fa0,540(a6)
     6b4:	22082587          	flw	fa1,544(a6)
     6b8:	22482607          	flw	fa2,548(a6)
     6bc:	0021d073          	fsrmi	zero,3
     6c0:	60b576c3          	fmadd.s	fa3,fa0,fa1,fa2
     6c4:	001028f3          	frflags	a7
     6c8:	16d7a427          	fsw	fa3,360(a5)
     6cc:	1717a623          	sw	a7,364(a5)

000006d0 <inst_46>:
     6d0:	22882507          	flw	fa0,552(a6)
     6d4:	22c82587          	flw	fa1,556(a6)
     6d8:	23082607          	flw	fa2,560(a6)
     6dc:	0021d073          	fsrmi	zero,3
     6e0:	60b576c3          	fmadd.s	fa3,fa0,fa1,fa2
     6e4:	001028f3          	frflags	a7
     6e8:	16d7a827          	fsw	fa3,368(a5)
     6ec:	1717aa23          	sw	a7,372(a5)

000006f0 <inst_47>:
     6f0:	23482507          	flw	fa0,564(a6)
     6f4:	23882587          	flw	fa1,568(a6)
     6f8:	23c82607          	flw	fa2,572(a6)
     6fc:	0021d073          	fsrmi	zero,3
     700:	60b576c3          	fmadd.s	fa3,fa0,fa1,fa2
     704:	001028f3          	frflags	a7
     708:	16d7ac27          	fsw	fa3,376(a5)
     70c:	1717ae23          	sw	a7,380(a5)

00000710 <inst_48>:
     710:	24082507          	flw	fa0,576(a6)
     714:	24482587          	flw	fa1,580(a6)
     718:	24882607          	flw	fa2,584(a6)
     71c:	0021d073          	fsrmi	zero,3
     720:	60b576c3          	fmadd.s	fa3,fa0,fa1,fa2
     724:	001028f3          	frflags	a7
     728:	18d7a027          	fsw	fa3,384(a5)
     72c:	1917a223          	sw	a7,388(a5)

00000730 <inst_49>:
     730:	24c82507          	flw	fa0,588(a6)
     734:	25082587          	flw	fa1,592(a6)
     738:	25482607          	flw	fa2,596(a6)
     73c:	0021d073          	fsrmi	zero,3
     740:	60b576c3          	fmadd.s	fa3,fa0,fa1,fa2
     744:	001028f3          	frflags	a7
     748:	18d7a427          	fsw	fa3,392(a5)
     74c:	1917a623          	sw	a7,396(a5)

00000750 <inst_50>:
     750:	25882507          	flw	fa0,600(a6)
     754:	25c82587          	flw	fa1,604(a6)
     758:	26082607          	flw	fa2,608(a6)
     75c:	0021d073          	fsrmi	zero,3
     760:	60b576c3          	fmadd.s	fa3,fa0,fa1,fa2
     764:	001028f3          	frflags	a7
     768:	18d7a827          	fsw	fa3,400(a5)
     76c:	1917aa23          	sw	a7,404(a5)

00000770 <inst_51>:
     770:	26482507          	flw	fa0,612(a6)
     774:	26882587          	flw	fa1,616(a6)
     778:	26c82607          	flw	fa2,620(a6)
     77c:	0021d073          	fsrmi	zero,3
     780:	60b576c3          	fmadd.s	fa3,fa0,fa1,fa2
     784:	001028f3          	frflags	a7
     788:	18d7ac27          	fsw	fa3,408(a5)
     78c:	1917ae23          	sw	a7,412(a5)

00000790 <inst_52>:
     790:	27082507          	flw	fa0,624(a6)
     794:	27482587          	flw	fa1,628(a6)
     798:	27882607          	flw	fa2,632(a6)
     79c:	0021d073          	fsrmi	zero,3
     7a0:	60b576c3          	fmadd.s	fa3,fa0,fa1,fa2
     7a4:	001028f3          	frflags	a7
     7a8:	1ad7a027          	fsw	fa3,416(a5)
     7ac:	1b17a223          	sw	a7,420(a5)

000007b0 <inst_53>:
     7b0:	27c82507          	flw	fa0,636(a6)
     7b4:	28082587          	flw	fa1,640(a6)
     7b8:	28482607          	flw	fa2,644(a6)
     7bc:	0021d073          	fsrmi	zero,3
     7c0:	60b576c3          	fmadd.s	fa3,fa0,fa1,fa2
     7c4:	001028f3          	frflags	a7
     7c8:	1ad7a427          	fsw	fa3,424(a5)
     7cc:	1b17a623          	sw	a7,428(a5)

000007d0 <inst_54>:
     7d0:	28882507          	flw	fa0,648(a6)
     7d4:	28c82587          	flw	fa1,652(a6)
     7d8:	29082607          	flw	fa2,656(a6)
     7dc:	0021d073          	fsrmi	zero,3
     7e0:	60b576c3          	fmadd.s	fa3,fa0,fa1,fa2
     7e4:	001028f3          	frflags	a7
     7e8:	1ad7a827          	fsw	fa3,432(a5)
     7ec:	1b17aa23          	sw	a7,436(a5)

000007f0 <inst_55>:
     7f0:	29482507          	flw	fa0,660(a6)
     7f4:	29882587          	flw	fa1,664(a6)
     7f8:	29c82607          	flw	fa2,668(a6)
     7fc:	0021d073          	fsrmi	zero,3
     800:	60b576c3          	fmadd.s	fa3,fa0,fa1,fa2
     804:	001028f3          	frflags	a7
     808:	1ad7ac27          	fsw	fa3,440(a5)
     80c:	1b17ae23          	sw	a7,444(a5)

00000810 <inst_56>:
     810:	2a082507          	flw	fa0,672(a6)
     814:	2a482587          	flw	fa1,676(a6)
     818:	2a882607          	flw	fa2,680(a6)
     81c:	0021d073          	fsrmi	zero,3
     820:	60b576c3          	fmadd.s	fa3,fa0,fa1,fa2
     824:	001028f3          	frflags	a7
     828:	1cd7a027          	fsw	fa3,448(a5)
     82c:	1d17a223          	sw	a7,452(a5)

00000830 <inst_57>:
     830:	2ac82507          	flw	fa0,684(a6)
     834:	2b082587          	flw	fa1,688(a6)
     838:	2b482607          	flw	fa2,692(a6)
     83c:	0021d073          	fsrmi	zero,3
     840:	60b576c3          	fmadd.s	fa3,fa0,fa1,fa2
     844:	001028f3          	frflags	a7
     848:	1cd7a427          	fsw	fa3,456(a5)
     84c:	1d17a623          	sw	a7,460(a5)

00000850 <inst_58>:
     850:	2b882507          	flw	fa0,696(a6)
     854:	2bc82587          	flw	fa1,700(a6)
     858:	2c082607          	flw	fa2,704(a6)
     85c:	0021d073          	fsrmi	zero,3
     860:	60b576c3          	fmadd.s	fa3,fa0,fa1,fa2
     864:	001028f3          	frflags	a7
     868:	1cd7a827          	fsw	fa3,464(a5)
     86c:	1d17aa23          	sw	a7,468(a5)

00000870 <inst_59>:
     870:	2c482507          	flw	fa0,708(a6)
     874:	2c882587          	flw	fa1,712(a6)
     878:	2cc82607          	flw	fa2,716(a6)
     87c:	0021d073          	fsrmi	zero,3
     880:	60b576c3          	fmadd.s	fa3,fa0,fa1,fa2
     884:	001028f3          	frflags	a7
     888:	1cd7ac27          	fsw	fa3,472(a5)
     88c:	1d17ae23          	sw	a7,476(a5)

00000890 <inst_60>:
     890:	2d082507          	flw	fa0,720(a6)
     894:	2d482587          	flw	fa1,724(a6)
     898:	2d882607          	flw	fa2,728(a6)
     89c:	0021d073          	fsrmi	zero,3
     8a0:	60b576c3          	fmadd.s	fa3,fa0,fa1,fa2
     8a4:	001028f3          	frflags	a7
     8a8:	1ed7a027          	fsw	fa3,480(a5)
     8ac:	1f17a223          	sw	a7,484(a5)

000008b0 <inst_61>:
     8b0:	2dc82507          	flw	fa0,732(a6)
     8b4:	2e082587          	flw	fa1,736(a6)
     8b8:	2e482607          	flw	fa2,740(a6)
     8bc:	0021d073          	fsrmi	zero,3
     8c0:	60b576c3          	fmadd.s	fa3,fa0,fa1,fa2
     8c4:	001028f3          	frflags	a7
     8c8:	1ed7a427          	fsw	fa3,488(a5)
     8cc:	1f17a623          	sw	a7,492(a5)

000008d0 <inst_62>:
     8d0:	2e882507          	flw	fa0,744(a6)
     8d4:	2ec82587          	flw	fa1,748(a6)
     8d8:	2f082607          	flw	fa2,752(a6)
     8dc:	0021d073          	fsrmi	zero,3
     8e0:	60b576c3          	fmadd.s	fa3,fa0,fa1,fa2
     8e4:	001028f3          	frflags	a7
     8e8:	1ed7a827          	fsw	fa3,496(a5)
     8ec:	1f17aa23          	sw	a7,500(a5)

000008f0 <inst_63>:
     8f0:	2f482507          	flw	fa0,756(a6)
     8f4:	2f882587          	flw	fa1,760(a6)
     8f8:	2fc82607          	flw	fa2,764(a6)
     8fc:	0021d073          	fsrmi	zero,3
     900:	60b576c3          	fmadd.s	fa3,fa0,fa1,fa2
     904:	001028f3          	frflags	a7
     908:	1ed7ac27          	fsw	fa3,504(a5)
     90c:	1f17ae23          	sw	a7,508(a5)

00000910 <inst_64>:
     910:	30082507          	flw	fa0,768(a6)
     914:	30482587          	flw	fa1,772(a6)
     918:	30882607          	flw	fa2,776(a6)
     91c:	0021d073          	fsrmi	zero,3
     920:	60b576c3          	fmadd.s	fa3,fa0,fa1,fa2
     924:	001028f3          	frflags	a7
     928:	20d7a027          	fsw	fa3,512(a5)
     92c:	2117a223          	sw	a7,516(a5)

00000930 <inst_65>:
     930:	30c82507          	flw	fa0,780(a6)
     934:	31082587          	flw	fa1,784(a6)
     938:	31482607          	flw	fa2,788(a6)
     93c:	0021d073          	fsrmi	zero,3
     940:	60b576c3          	fmadd.s	fa3,fa0,fa1,fa2
     944:	001028f3          	frflags	a7
     948:	20d7a427          	fsw	fa3,520(a5)
     94c:	2117a623          	sw	a7,524(a5)

00000950 <inst_66>:
     950:	31882507          	flw	fa0,792(a6)
     954:	31c82587          	flw	fa1,796(a6)
     958:	32082607          	flw	fa2,800(a6)
     95c:	0021d073          	fsrmi	zero,3
     960:	60b576c3          	fmadd.s	fa3,fa0,fa1,fa2
     964:	001028f3          	frflags	a7
     968:	20d7a827          	fsw	fa3,528(a5)
     96c:	2117aa23          	sw	a7,532(a5)

00000970 <inst_67>:
     970:	32482507          	flw	fa0,804(a6)
     974:	32882587          	flw	fa1,808(a6)
     978:	32c82607          	flw	fa2,812(a6)
     97c:	0021d073          	fsrmi	zero,3
     980:	60b576c3          	fmadd.s	fa3,fa0,fa1,fa2
     984:	001028f3          	frflags	a7
     988:	20d7ac27          	fsw	fa3,536(a5)
     98c:	2117ae23          	sw	a7,540(a5)

00000990 <inst_68>:
     990:	33082507          	flw	fa0,816(a6)
     994:	33482587          	flw	fa1,820(a6)
     998:	33882607          	flw	fa2,824(a6)
     99c:	0021d073          	fsrmi	zero,3
     9a0:	60b576c3          	fmadd.s	fa3,fa0,fa1,fa2
     9a4:	001028f3          	frflags	a7
     9a8:	22d7a027          	fsw	fa3,544(a5)
     9ac:	2317a223          	sw	a7,548(a5)

000009b0 <inst_69>:
     9b0:	33c82507          	flw	fa0,828(a6)
     9b4:	34082587          	flw	fa1,832(a6)
     9b8:	34482607          	flw	fa2,836(a6)
     9bc:	0021d073          	fsrmi	zero,3
     9c0:	60b576c3          	fmadd.s	fa3,fa0,fa1,fa2
     9c4:	001028f3          	frflags	a7
     9c8:	22d7a427          	fsw	fa3,552(a5)
     9cc:	2317a623          	sw	a7,556(a5)

000009d0 <inst_70>:
     9d0:	34882507          	flw	fa0,840(a6)
     9d4:	34c82587          	flw	fa1,844(a6)
     9d8:	35082607          	flw	fa2,848(a6)
     9dc:	0021d073          	fsrmi	zero,3
     9e0:	60b576c3          	fmadd.s	fa3,fa0,fa1,fa2
     9e4:	001028f3          	frflags	a7
     9e8:	22d7a827          	fsw	fa3,560(a5)
     9ec:	2317aa23          	sw	a7,564(a5)

000009f0 <inst_71>:
     9f0:	35482507          	flw	fa0,852(a6)
     9f4:	35882587          	flw	fa1,856(a6)
     9f8:	35c82607          	flw	fa2,860(a6)
     9fc:	0021d073          	fsrmi	zero,3
     a00:	60b576c3          	fmadd.s	fa3,fa0,fa1,fa2
     a04:	001028f3          	frflags	a7
     a08:	22d7ac27          	fsw	fa3,568(a5)
     a0c:	2317ae23          	sw	a7,572(a5)

00000a10 <inst_72>:
     a10:	36082507          	flw	fa0,864(a6)
     a14:	36482587          	flw	fa1,868(a6)
     a18:	36882607          	flw	fa2,872(a6)
     a1c:	0021d073          	fsrmi	zero,3
     a20:	60b576c3          	fmadd.s	fa3,fa0,fa1,fa2
     a24:	001028f3          	frflags	a7
     a28:	24d7a027          	fsw	fa3,576(a5)
     a2c:	2517a223          	sw	a7,580(a5)

00000a30 <inst_73>:
     a30:	36c82507          	flw	fa0,876(a6)
     a34:	37082587          	flw	fa1,880(a6)
     a38:	37482607          	flw	fa2,884(a6)
     a3c:	0021d073          	fsrmi	zero,3
     a40:	60b576c3          	fmadd.s	fa3,fa0,fa1,fa2
     a44:	001028f3          	frflags	a7
     a48:	24d7a427          	fsw	fa3,584(a5)
     a4c:	2517a623          	sw	a7,588(a5)

00000a50 <inst_74>:
     a50:	37882507          	flw	fa0,888(a6)
     a54:	37c82587          	flw	fa1,892(a6)
     a58:	38082607          	flw	fa2,896(a6)
     a5c:	0021d073          	fsrmi	zero,3
     a60:	60b576c3          	fmadd.s	fa3,fa0,fa1,fa2
     a64:	001028f3          	frflags	a7
     a68:	24d7a827          	fsw	fa3,592(a5)
     a6c:	2517aa23          	sw	a7,596(a5)

00000a70 <inst_75>:
     a70:	38482507          	flw	fa0,900(a6)
     a74:	38882587          	flw	fa1,904(a6)
     a78:	38c82607          	flw	fa2,908(a6)
     a7c:	0021d073          	fsrmi	zero,3
     a80:	60b576c3          	fmadd.s	fa3,fa0,fa1,fa2
     a84:	001028f3          	frflags	a7
     a88:	24d7ac27          	fsw	fa3,600(a5)
     a8c:	2517ae23          	sw	a7,604(a5)

00000a90 <inst_76>:
     a90:	39082507          	flw	fa0,912(a6)
     a94:	39482587          	flw	fa1,916(a6)
     a98:	39882607          	flw	fa2,920(a6)
     a9c:	0021d073          	fsrmi	zero,3
     aa0:	60b576c3          	fmadd.s	fa3,fa0,fa1,fa2
     aa4:	001028f3          	frflags	a7
     aa8:	26d7a027          	fsw	fa3,608(a5)
     aac:	2717a223          	sw	a7,612(a5)

00000ab0 <inst_77>:
     ab0:	39c82507          	flw	fa0,924(a6)
     ab4:	3a082587          	flw	fa1,928(a6)
     ab8:	3a482607          	flw	fa2,932(a6)
     abc:	0021d073          	fsrmi	zero,3
     ac0:	60b576c3          	fmadd.s	fa3,fa0,fa1,fa2
     ac4:	001028f3          	frflags	a7
     ac8:	26d7a427          	fsw	fa3,616(a5)
     acc:	2717a623          	sw	a7,620(a5)

00000ad0 <inst_78>:
     ad0:	3a882507          	flw	fa0,936(a6)
     ad4:	3ac82587          	flw	fa1,940(a6)
     ad8:	3b082607          	flw	fa2,944(a6)
     adc:	0021d073          	fsrmi	zero,3
     ae0:	60b576c3          	fmadd.s	fa3,fa0,fa1,fa2
     ae4:	001028f3          	frflags	a7
     ae8:	26d7a827          	fsw	fa3,624(a5)
     aec:	2717aa23          	sw	a7,628(a5)

00000af0 <inst_79>:
     af0:	3b482507          	flw	fa0,948(a6)
     af4:	3b882587          	flw	fa1,952(a6)
     af8:	3bc82607          	flw	fa2,956(a6)
     afc:	0021d073          	fsrmi	zero,3
     b00:	60b576c3          	fmadd.s	fa3,fa0,fa1,fa2
     b04:	001028f3          	frflags	a7
     b08:	26d7ac27          	fsw	fa3,632(a5)
     b0c:	2717ae23          	sw	a7,636(a5)

00000b10 <inst_80>:
     b10:	3c082507          	flw	fa0,960(a6)
     b14:	3c482587          	flw	fa1,964(a6)
     b18:	3c882607          	flw	fa2,968(a6)
     b1c:	0021d073          	fsrmi	zero,3
     b20:	60b576c3          	fmadd.s	fa3,fa0,fa1,fa2
     b24:	001028f3          	frflags	a7
     b28:	28d7a027          	fsw	fa3,640(a5)
     b2c:	2917a223          	sw	a7,644(a5)

00000b30 <inst_81>:
     b30:	3cc82507          	flw	fa0,972(a6)
     b34:	3d082587          	flw	fa1,976(a6)
     b38:	3d482607          	flw	fa2,980(a6)
     b3c:	0021d073          	fsrmi	zero,3
     b40:	60b576c3          	fmadd.s	fa3,fa0,fa1,fa2
     b44:	001028f3          	frflags	a7
     b48:	28d7a427          	fsw	fa3,648(a5)
     b4c:	2917a623          	sw	a7,652(a5)

00000b50 <inst_82>:
     b50:	3d882507          	flw	fa0,984(a6)
     b54:	3dc82587          	flw	fa1,988(a6)
     b58:	3e082607          	flw	fa2,992(a6)
     b5c:	0021d073          	fsrmi	zero,3
     b60:	60b576c3          	fmadd.s	fa3,fa0,fa1,fa2
     b64:	001028f3          	frflags	a7
     b68:	28d7a827          	fsw	fa3,656(a5)
     b6c:	2917aa23          	sw	a7,660(a5)

00000b70 <inst_83>:
     b70:	3e482507          	flw	fa0,996(a6)
     b74:	3e882587          	flw	fa1,1000(a6)
     b78:	3ec82607          	flw	fa2,1004(a6)
     b7c:	0021d073          	fsrmi	zero,3
     b80:	60b576c3          	fmadd.s	fa3,fa0,fa1,fa2
     b84:	001028f3          	frflags	a7
     b88:	28d7ac27          	fsw	fa3,664(a5)
     b8c:	2917ae23          	sw	a7,668(a5)

00000b90 <inst_84>:
     b90:	3f082507          	flw	fa0,1008(a6)
     b94:	3f482587          	flw	fa1,1012(a6)
     b98:	3f882607          	flw	fa2,1016(a6)
     b9c:	0021d073          	fsrmi	zero,3
     ba0:	60b576c3          	fmadd.s	fa3,fa0,fa1,fa2
     ba4:	001028f3          	frflags	a7
     ba8:	2ad7a027          	fsw	fa3,672(a5)
     bac:	2b17a223          	sw	a7,676(a5)

00000bb0 <inst_85>:
     bb0:	3fc82507          	flw	fa0,1020(a6)
     bb4:	40082587          	flw	fa1,1024(a6)
     bb8:	40482607          	flw	fa2,1028(a6)
     bbc:	0021d073          	fsrmi	zero,3
     bc0:	60b576c3          	fmadd.s	fa3,fa0,fa1,fa2
     bc4:	001028f3          	frflags	a7
     bc8:	2ad7a427          	fsw	fa3,680(a5)
     bcc:	2b17a623          	sw	a7,684(a5)

00000bd0 <inst_86>:
     bd0:	40882507          	flw	fa0,1032(a6)
     bd4:	40c82587          	flw	fa1,1036(a6)
     bd8:	41082607          	flw	fa2,1040(a6)
     bdc:	0021d073          	fsrmi	zero,3
     be0:	60b576c3          	fmadd.s	fa3,fa0,fa1,fa2
     be4:	001028f3          	frflags	a7
     be8:	2ad7a827          	fsw	fa3,688(a5)
     bec:	2b17aa23          	sw	a7,692(a5)

00000bf0 <inst_87>:
     bf0:	41482507          	flw	fa0,1044(a6)
     bf4:	41882587          	flw	fa1,1048(a6)
     bf8:	41c82607          	flw	fa2,1052(a6)
     bfc:	0021d073          	fsrmi	zero,3
     c00:	60b576c3          	fmadd.s	fa3,fa0,fa1,fa2
     c04:	001028f3          	frflags	a7
     c08:	2ad7ac27          	fsw	fa3,696(a5)
     c0c:	2b17ae23          	sw	a7,700(a5)

00000c10 <inst_88>:
     c10:	42082507          	flw	fa0,1056(a6)
     c14:	42482587          	flw	fa1,1060(a6)
     c18:	42882607          	flw	fa2,1064(a6)
     c1c:	0021d073          	fsrmi	zero,3
     c20:	60b576c3          	fmadd.s	fa3,fa0,fa1,fa2
     c24:	001028f3          	frflags	a7
     c28:	2cd7a027          	fsw	fa3,704(a5)
     c2c:	2d17a223          	sw	a7,708(a5)

00000c30 <inst_89>:
     c30:	42c82507          	flw	fa0,1068(a6)
     c34:	43082587          	flw	fa1,1072(a6)
     c38:	43482607          	flw	fa2,1076(a6)
     c3c:	0021d073          	fsrmi	zero,3
     c40:	60b576c3          	fmadd.s	fa3,fa0,fa1,fa2
     c44:	001028f3          	frflags	a7
     c48:	2cd7a427          	fsw	fa3,712(a5)
     c4c:	2d17a623          	sw	a7,716(a5)

00000c50 <inst_90>:
     c50:	43882507          	flw	fa0,1080(a6)
     c54:	43c82587          	flw	fa1,1084(a6)
     c58:	44082607          	flw	fa2,1088(a6)
     c5c:	0021d073          	fsrmi	zero,3
     c60:	60b576c3          	fmadd.s	fa3,fa0,fa1,fa2
     c64:	001028f3          	frflags	a7
     c68:	2cd7a827          	fsw	fa3,720(a5)
     c6c:	2d17aa23          	sw	a7,724(a5)

00000c70 <inst_91>:
     c70:	44482507          	flw	fa0,1092(a6)
     c74:	44882587          	flw	fa1,1096(a6)
     c78:	44c82607          	flw	fa2,1100(a6)
     c7c:	0021d073          	fsrmi	zero,3
     c80:	60b576c3          	fmadd.s	fa3,fa0,fa1,fa2
     c84:	001028f3          	frflags	a7
     c88:	2cd7ac27          	fsw	fa3,728(a5)
     c8c:	2d17ae23          	sw	a7,732(a5)

00000c90 <inst_92>:
     c90:	45082507          	flw	fa0,1104(a6)
     c94:	45482587          	flw	fa1,1108(a6)
     c98:	45882607          	flw	fa2,1112(a6)
     c9c:	0021d073          	fsrmi	zero,3
     ca0:	60b576c3          	fmadd.s	fa3,fa0,fa1,fa2
     ca4:	001028f3          	frflags	a7
     ca8:	2ed7a027          	fsw	fa3,736(a5)
     cac:	2f17a223          	sw	a7,740(a5)

00000cb0 <inst_93>:
     cb0:	45c82507          	flw	fa0,1116(a6)
     cb4:	46082587          	flw	fa1,1120(a6)
     cb8:	46482607          	flw	fa2,1124(a6)
     cbc:	0021d073          	fsrmi	zero,3
     cc0:	60b576c3          	fmadd.s	fa3,fa0,fa1,fa2
     cc4:	001028f3          	frflags	a7
     cc8:	2ed7a427          	fsw	fa3,744(a5)
     ccc:	2f17a623          	sw	a7,748(a5)

00000cd0 <inst_94>:
     cd0:	46882507          	flw	fa0,1128(a6)
     cd4:	46c82587          	flw	fa1,1132(a6)
     cd8:	47082607          	flw	fa2,1136(a6)
     cdc:	0021d073          	fsrmi	zero,3
     ce0:	60b576c3          	fmadd.s	fa3,fa0,fa1,fa2
     ce4:	001028f3          	frflags	a7
     ce8:	2ed7a827          	fsw	fa3,752(a5)
     cec:	2f17aa23          	sw	a7,756(a5)

00000cf0 <inst_95>:
     cf0:	47482507          	flw	fa0,1140(a6)
     cf4:	47882587          	flw	fa1,1144(a6)
     cf8:	47c82607          	flw	fa2,1148(a6)
     cfc:	0021d073          	fsrmi	zero,3
     d00:	60b576c3          	fmadd.s	fa3,fa0,fa1,fa2
     d04:	001028f3          	frflags	a7
     d08:	2ed7ac27          	fsw	fa3,760(a5)
     d0c:	2f17ae23          	sw	a7,764(a5)

00000d10 <inst_96>:
     d10:	48082507          	flw	fa0,1152(a6)
     d14:	48482587          	flw	fa1,1156(a6)
     d18:	48882607          	flw	fa2,1160(a6)
     d1c:	0021d073          	fsrmi	zero,3
     d20:	60b576c3          	fmadd.s	fa3,fa0,fa1,fa2
     d24:	001028f3          	frflags	a7
     d28:	30d7a027          	fsw	fa3,768(a5)
     d2c:	3117a223          	sw	a7,772(a5)

00000d30 <inst_97>:
     d30:	48c82507          	flw	fa0,1164(a6)
     d34:	49082587          	flw	fa1,1168(a6)
     d38:	49482607          	flw	fa2,1172(a6)
     d3c:	0021d073          	fsrmi	zero,3
     d40:	60b576c3          	fmadd.s	fa3,fa0,fa1,fa2
     d44:	001028f3          	frflags	a7
     d48:	30d7a427          	fsw	fa3,776(a5)
     d4c:	3117a623          	sw	a7,780(a5)

00000d50 <inst_98>:
     d50:	49882507          	flw	fa0,1176(a6)
     d54:	49c82587          	flw	fa1,1180(a6)
     d58:	4a082607          	flw	fa2,1184(a6)
     d5c:	0021d073          	fsrmi	zero,3
     d60:	60b576c3          	fmadd.s	fa3,fa0,fa1,fa2
     d64:	001028f3          	frflags	a7
     d68:	30d7a827          	fsw	fa3,784(a5)
     d6c:	3117aa23          	sw	a7,788(a5)

00000d70 <inst_99>:
     d70:	4a482507          	flw	fa0,1188(a6)
     d74:	4a882587          	flw	fa1,1192(a6)
     d78:	4ac82607          	flw	fa2,1196(a6)
     d7c:	0021d073          	fsrmi	zero,3
     d80:	60b576c3          	fmadd.s	fa3,fa0,fa1,fa2
     d84:	001028f3          	frflags	a7
     d88:	30d7ac27          	fsw	fa3,792(a5)
     d8c:	3117ae23          	sw	a7,796(a5)

00000d90 <inst_100>:
     d90:	4b082507          	flw	fa0,1200(a6)
     d94:	4b482587          	flw	fa1,1204(a6)
     d98:	4b882607          	flw	fa2,1208(a6)
     d9c:	0021d073          	fsrmi	zero,3
     da0:	60b576c3          	fmadd.s	fa3,fa0,fa1,fa2
     da4:	001028f3          	frflags	a7
     da8:	32d7a027          	fsw	fa3,800(a5)
     dac:	3317a223          	sw	a7,804(a5)

00000db0 <inst_101>:
     db0:	4bc82507          	flw	fa0,1212(a6)
     db4:	4c082587          	flw	fa1,1216(a6)
     db8:	4c482607          	flw	fa2,1220(a6)
     dbc:	0021d073          	fsrmi	zero,3
     dc0:	60b576c3          	fmadd.s	fa3,fa0,fa1,fa2
     dc4:	001028f3          	frflags	a7
     dc8:	32d7a427          	fsw	fa3,808(a5)
     dcc:	3317a623          	sw	a7,812(a5)

00000dd0 <inst_102>:
     dd0:	4c882507          	flw	fa0,1224(a6)
     dd4:	4cc82587          	flw	fa1,1228(a6)
     dd8:	4d082607          	flw	fa2,1232(a6)
     ddc:	0021d073          	fsrmi	zero,3
     de0:	60b576c3          	fmadd.s	fa3,fa0,fa1,fa2
     de4:	001028f3          	frflags	a7
     de8:	32d7a827          	fsw	fa3,816(a5)
     dec:	3317aa23          	sw	a7,820(a5)

00000df0 <inst_103>:
     df0:	4d482507          	flw	fa0,1236(a6)
     df4:	4d882587          	flw	fa1,1240(a6)
     df8:	4dc82607          	flw	fa2,1244(a6)
     dfc:	0021d073          	fsrmi	zero,3
     e00:	60b576c3          	fmadd.s	fa3,fa0,fa1,fa2
     e04:	001028f3          	frflags	a7
     e08:	32d7ac27          	fsw	fa3,824(a5)
     e0c:	3317ae23          	sw	a7,828(a5)

00000e10 <inst_104>:
     e10:	4e082507          	flw	fa0,1248(a6)
     e14:	4e482587          	flw	fa1,1252(a6)
     e18:	4e882607          	flw	fa2,1256(a6)
     e1c:	0021d073          	fsrmi	zero,3
     e20:	60b576c3          	fmadd.s	fa3,fa0,fa1,fa2
     e24:	001028f3          	frflags	a7
     e28:	34d7a027          	fsw	fa3,832(a5)
     e2c:	3517a223          	sw	a7,836(a5)

00000e30 <inst_105>:
     e30:	4ec82507          	flw	fa0,1260(a6)
     e34:	4f082587          	flw	fa1,1264(a6)
     e38:	4f482607          	flw	fa2,1268(a6)
     e3c:	0021d073          	fsrmi	zero,3
     e40:	60b576c3          	fmadd.s	fa3,fa0,fa1,fa2
     e44:	001028f3          	frflags	a7
     e48:	34d7a427          	fsw	fa3,840(a5)
     e4c:	3517a623          	sw	a7,844(a5)

00000e50 <inst_106>:
     e50:	4f882507          	flw	fa0,1272(a6)
     e54:	4fc82587          	flw	fa1,1276(a6)
     e58:	50082607          	flw	fa2,1280(a6)
     e5c:	0021d073          	fsrmi	zero,3
     e60:	60b576c3          	fmadd.s	fa3,fa0,fa1,fa2
     e64:	001028f3          	frflags	a7
     e68:	34d7a827          	fsw	fa3,848(a5)
     e6c:	3517aa23          	sw	a7,852(a5)

00000e70 <inst_107>:
     e70:	50482507          	flw	fa0,1284(a6)
     e74:	50882587          	flw	fa1,1288(a6)
     e78:	50c82607          	flw	fa2,1292(a6)
     e7c:	0021d073          	fsrmi	zero,3
     e80:	60b576c3          	fmadd.s	fa3,fa0,fa1,fa2
     e84:	001028f3          	frflags	a7
     e88:	34d7ac27          	fsw	fa3,856(a5)
     e8c:	3517ae23          	sw	a7,860(a5)

00000e90 <inst_108>:
     e90:	51082507          	flw	fa0,1296(a6)
     e94:	51482587          	flw	fa1,1300(a6)
     e98:	51882607          	flw	fa2,1304(a6)
     e9c:	0021d073          	fsrmi	zero,3
     ea0:	60b576c3          	fmadd.s	fa3,fa0,fa1,fa2
     ea4:	001028f3          	frflags	a7
     ea8:	36d7a027          	fsw	fa3,864(a5)
     eac:	3717a223          	sw	a7,868(a5)

00000eb0 <inst_109>:
     eb0:	51c82507          	flw	fa0,1308(a6)
     eb4:	52082587          	flw	fa1,1312(a6)
     eb8:	52482607          	flw	fa2,1316(a6)
     ebc:	0021d073          	fsrmi	zero,3
     ec0:	60b576c3          	fmadd.s	fa3,fa0,fa1,fa2
     ec4:	001028f3          	frflags	a7
     ec8:	36d7a427          	fsw	fa3,872(a5)
     ecc:	3717a623          	sw	a7,876(a5)

00000ed0 <inst_110>:
     ed0:	52882507          	flw	fa0,1320(a6)
     ed4:	52c82587          	flw	fa1,1324(a6)
     ed8:	53082607          	flw	fa2,1328(a6)
     edc:	0021d073          	fsrmi	zero,3
     ee0:	60b576c3          	fmadd.s	fa3,fa0,fa1,fa2
     ee4:	001028f3          	frflags	a7
     ee8:	36d7a827          	fsw	fa3,880(a5)
     eec:	3717aa23          	sw	a7,884(a5)

00000ef0 <inst_111>:
     ef0:	53482507          	flw	fa0,1332(a6)
     ef4:	53882587          	flw	fa1,1336(a6)
     ef8:	53c82607          	flw	fa2,1340(a6)
     efc:	0021d073          	fsrmi	zero,3
     f00:	60b576c3          	fmadd.s	fa3,fa0,fa1,fa2
     f04:	001028f3          	frflags	a7
     f08:	36d7ac27          	fsw	fa3,888(a5)
     f0c:	3717ae23          	sw	a7,892(a5)

00000f10 <inst_112>:
     f10:	54082507          	flw	fa0,1344(a6)
     f14:	54482587          	flw	fa1,1348(a6)
     f18:	54882607          	flw	fa2,1352(a6)
     f1c:	0021d073          	fsrmi	zero,3
     f20:	60b576c3          	fmadd.s	fa3,fa0,fa1,fa2
     f24:	001028f3          	frflags	a7
     f28:	38d7a027          	fsw	fa3,896(a5)
     f2c:	3917a223          	sw	a7,900(a5)

00000f30 <inst_113>:
     f30:	54c82507          	flw	fa0,1356(a6)
     f34:	55082587          	flw	fa1,1360(a6)
     f38:	55482607          	flw	fa2,1364(a6)
     f3c:	0021d073          	fsrmi	zero,3
     f40:	60b576c3          	fmadd.s	fa3,fa0,fa1,fa2
     f44:	001028f3          	frflags	a7
     f48:	38d7a427          	fsw	fa3,904(a5)
     f4c:	3917a623          	sw	a7,908(a5)

00000f50 <inst_114>:
     f50:	55882507          	flw	fa0,1368(a6)
     f54:	55c82587          	flw	fa1,1372(a6)
     f58:	56082607          	flw	fa2,1376(a6)
     f5c:	0021d073          	fsrmi	zero,3
     f60:	60b576c3          	fmadd.s	fa3,fa0,fa1,fa2
     f64:	001028f3          	frflags	a7
     f68:	38d7a827          	fsw	fa3,912(a5)
     f6c:	3917aa23          	sw	a7,916(a5)

00000f70 <inst_115>:
     f70:	56482507          	flw	fa0,1380(a6)
     f74:	56882587          	flw	fa1,1384(a6)
     f78:	56c82607          	flw	fa2,1388(a6)
     f7c:	0021d073          	fsrmi	zero,3
     f80:	60b576c3          	fmadd.s	fa3,fa0,fa1,fa2
     f84:	001028f3          	frflags	a7
     f88:	38d7ac27          	fsw	fa3,920(a5)
     f8c:	3917ae23          	sw	a7,924(a5)

00000f90 <inst_116>:
     f90:	57082507          	flw	fa0,1392(a6)
     f94:	57482587          	flw	fa1,1396(a6)
     f98:	57882607          	flw	fa2,1400(a6)
     f9c:	0021d073          	fsrmi	zero,3
     fa0:	60b576c3          	fmadd.s	fa3,fa0,fa1,fa2
     fa4:	001028f3          	frflags	a7
     fa8:	3ad7a027          	fsw	fa3,928(a5)
     fac:	3b17a223          	sw	a7,932(a5)

00000fb0 <inst_117>:
     fb0:	57c82507          	flw	fa0,1404(a6)
     fb4:	58082587          	flw	fa1,1408(a6)
     fb8:	58482607          	flw	fa2,1412(a6)
     fbc:	0021d073          	fsrmi	zero,3
     fc0:	60b576c3          	fmadd.s	fa3,fa0,fa1,fa2
     fc4:	001028f3          	frflags	a7
     fc8:	3ad7a427          	fsw	fa3,936(a5)
     fcc:	3b17a623          	sw	a7,940(a5)

00000fd0 <inst_118>:
     fd0:	58882507          	flw	fa0,1416(a6)
     fd4:	58c82587          	flw	fa1,1420(a6)
     fd8:	59082607          	flw	fa2,1424(a6)
     fdc:	0021d073          	fsrmi	zero,3
     fe0:	60b576c3          	fmadd.s	fa3,fa0,fa1,fa2
     fe4:	001028f3          	frflags	a7
     fe8:	3ad7a827          	fsw	fa3,944(a5)
     fec:	3b17aa23          	sw	a7,948(a5)

00000ff0 <inst_119>:
     ff0:	59482507          	flw	fa0,1428(a6)
     ff4:	59882587          	flw	fa1,1432(a6)
     ff8:	59c82607          	flw	fa2,1436(a6)
     ffc:	0021d073          	fsrmi	zero,3
    1000:	60b576c3          	fmadd.s	fa3,fa0,fa1,fa2
    1004:	001028f3          	frflags	a7
    1008:	3ad7ac27          	fsw	fa3,952(a5)
    100c:	3b17ae23          	sw	a7,956(a5)

00001010 <inst_120>:
    1010:	5a082507          	flw	fa0,1440(a6)
    1014:	5a482587          	flw	fa1,1444(a6)
    1018:	5a882607          	flw	fa2,1448(a6)
    101c:	0021d073          	fsrmi	zero,3
    1020:	60b576c3          	fmadd.s	fa3,fa0,fa1,fa2
    1024:	001028f3          	frflags	a7
    1028:	3cd7a027          	fsw	fa3,960(a5)
    102c:	3d17a223          	sw	a7,964(a5)

00001030 <inst_121>:
    1030:	5ac82507          	flw	fa0,1452(a6)
    1034:	5b082587          	flw	fa1,1456(a6)
    1038:	5b482607          	flw	fa2,1460(a6)
    103c:	0021d073          	fsrmi	zero,3
    1040:	60b576c3          	fmadd.s	fa3,fa0,fa1,fa2
    1044:	001028f3          	frflags	a7
    1048:	3cd7a427          	fsw	fa3,968(a5)
    104c:	3d17a623          	sw	a7,972(a5)

00001050 <inst_122>:
    1050:	5b882507          	flw	fa0,1464(a6)
    1054:	5bc82587          	flw	fa1,1468(a6)
    1058:	5c082607          	flw	fa2,1472(a6)
    105c:	0021d073          	fsrmi	zero,3
    1060:	60b576c3          	fmadd.s	fa3,fa0,fa1,fa2
    1064:	001028f3          	frflags	a7
    1068:	3cd7a827          	fsw	fa3,976(a5)
    106c:	3d17aa23          	sw	a7,980(a5)

00001070 <inst_123>:
    1070:	5c482507          	flw	fa0,1476(a6)
    1074:	5c882587          	flw	fa1,1480(a6)
    1078:	5cc82607          	flw	fa2,1484(a6)
    107c:	0021d073          	fsrmi	zero,3
    1080:	60b576c3          	fmadd.s	fa3,fa0,fa1,fa2
    1084:	001028f3          	frflags	a7
    1088:	3cd7ac27          	fsw	fa3,984(a5)
    108c:	3d17ae23          	sw	a7,988(a5)

00001090 <inst_124>:
    1090:	5d082507          	flw	fa0,1488(a6)
    1094:	5d482587          	flw	fa1,1492(a6)
    1098:	5d882607          	flw	fa2,1496(a6)
    109c:	0021d073          	fsrmi	zero,3
    10a0:	60b576c3          	fmadd.s	fa3,fa0,fa1,fa2
    10a4:	001028f3          	frflags	a7
    10a8:	3ed7a027          	fsw	fa3,992(a5)
    10ac:	3f17a223          	sw	a7,996(a5)

000010b0 <inst_125>:
    10b0:	5dc82507          	flw	fa0,1500(a6)
    10b4:	5e082587          	flw	fa1,1504(a6)
    10b8:	5e482607          	flw	fa2,1508(a6)
    10bc:	0021d073          	fsrmi	zero,3
    10c0:	60b576c3          	fmadd.s	fa3,fa0,fa1,fa2
    10c4:	001028f3          	frflags	a7
    10c8:	3ed7a427          	fsw	fa3,1000(a5)
    10cc:	3f17a623          	sw	a7,1004(a5)

000010d0 <inst_126>:
    10d0:	5e882507          	flw	fa0,1512(a6)
    10d4:	5ec82587          	flw	fa1,1516(a6)
    10d8:	5f082607          	flw	fa2,1520(a6)
    10dc:	0021d073          	fsrmi	zero,3
    10e0:	60b576c3          	fmadd.s	fa3,fa0,fa1,fa2
    10e4:	001028f3          	frflags	a7
    10e8:	3ed7a827          	fsw	fa3,1008(a5)
    10ec:	3f17aa23          	sw	a7,1012(a5)

000010f0 <inst_127>:
    10f0:	5f482507          	flw	fa0,1524(a6)
    10f4:	5f882587          	flw	fa1,1528(a6)
    10f8:	5fc82607          	flw	fa2,1532(a6)
    10fc:	0021d073          	fsrmi	zero,3
    1100:	60b576c3          	fmadd.s	fa3,fa0,fa1,fa2
    1104:	001028f3          	frflags	a7
    1108:	3ed7ac27          	fsw	fa3,1016(a5)
    110c:	3f17ae23          	sw	a7,1020(a5)

00001110 <inst_128>:
    1110:	60082507          	flw	fa0,1536(a6)
    1114:	60482587          	flw	fa1,1540(a6)
    1118:	60882607          	flw	fa2,1544(a6)
    111c:	0021d073          	fsrmi	zero,3
    1120:	60b576c3          	fmadd.s	fa3,fa0,fa1,fa2
    1124:	001028f3          	frflags	a7
    1128:	40d7a027          	fsw	fa3,1024(a5)
    112c:	4117a223          	sw	a7,1028(a5)

00001130 <inst_129>:
    1130:	60c82507          	flw	fa0,1548(a6)
    1134:	61082587          	flw	fa1,1552(a6)
    1138:	61482607          	flw	fa2,1556(a6)
    113c:	0021d073          	fsrmi	zero,3
    1140:	60b576c3          	fmadd.s	fa3,fa0,fa1,fa2
    1144:	001028f3          	frflags	a7
    1148:	40d7a427          	fsw	fa3,1032(a5)
    114c:	4117a623          	sw	a7,1036(a5)

00001150 <inst_130>:
    1150:	61882507          	flw	fa0,1560(a6)
    1154:	61c82587          	flw	fa1,1564(a6)
    1158:	62082607          	flw	fa2,1568(a6)
    115c:	0021d073          	fsrmi	zero,3
    1160:	60b576c3          	fmadd.s	fa3,fa0,fa1,fa2
    1164:	001028f3          	frflags	a7
    1168:	40d7a827          	fsw	fa3,1040(a5)
    116c:	4117aa23          	sw	a7,1044(a5)

00001170 <inst_131>:
    1170:	62482507          	flw	fa0,1572(a6)
    1174:	62882587          	flw	fa1,1576(a6)
    1178:	62c82607          	flw	fa2,1580(a6)
    117c:	0021d073          	fsrmi	zero,3
    1180:	60b576c3          	fmadd.s	fa3,fa0,fa1,fa2
    1184:	001028f3          	frflags	a7
    1188:	40d7ac27          	fsw	fa3,1048(a5)
    118c:	4117ae23          	sw	a7,1052(a5)

00001190 <inst_132>:
    1190:	63082507          	flw	fa0,1584(a6)
    1194:	63482587          	flw	fa1,1588(a6)
    1198:	63882607          	flw	fa2,1592(a6)
    119c:	0021d073          	fsrmi	zero,3
    11a0:	60b576c3          	fmadd.s	fa3,fa0,fa1,fa2
    11a4:	001028f3          	frflags	a7
    11a8:	42d7a027          	fsw	fa3,1056(a5)
    11ac:	4317a223          	sw	a7,1060(a5)

000011b0 <inst_133>:
    11b0:	63c82507          	flw	fa0,1596(a6)
    11b4:	64082587          	flw	fa1,1600(a6)
    11b8:	64482607          	flw	fa2,1604(a6)
    11bc:	0021d073          	fsrmi	zero,3
    11c0:	60b576c3          	fmadd.s	fa3,fa0,fa1,fa2
    11c4:	001028f3          	frflags	a7
    11c8:	42d7a427          	fsw	fa3,1064(a5)
    11cc:	4317a623          	sw	a7,1068(a5)

000011d0 <inst_134>:
    11d0:	64882507          	flw	fa0,1608(a6)
    11d4:	64c82587          	flw	fa1,1612(a6)
    11d8:	65082607          	flw	fa2,1616(a6)
    11dc:	0021d073          	fsrmi	zero,3
    11e0:	60b576c3          	fmadd.s	fa3,fa0,fa1,fa2
    11e4:	001028f3          	frflags	a7
    11e8:	42d7a827          	fsw	fa3,1072(a5)
    11ec:	4317aa23          	sw	a7,1076(a5)

000011f0 <inst_135>:
    11f0:	65482507          	flw	fa0,1620(a6)
    11f4:	65882587          	flw	fa1,1624(a6)
    11f8:	65c82607          	flw	fa2,1628(a6)
    11fc:	0021d073          	fsrmi	zero,3
    1200:	60b576c3          	fmadd.s	fa3,fa0,fa1,fa2
    1204:	001028f3          	frflags	a7
    1208:	42d7ac27          	fsw	fa3,1080(a5)
    120c:	4317ae23          	sw	a7,1084(a5)

00001210 <inst_136>:
    1210:	66082507          	flw	fa0,1632(a6)
    1214:	66482587          	flw	fa1,1636(a6)
    1218:	66882607          	flw	fa2,1640(a6)
    121c:	0021d073          	fsrmi	zero,3
    1220:	60b576c3          	fmadd.s	fa3,fa0,fa1,fa2
    1224:	001028f3          	frflags	a7
    1228:	44d7a027          	fsw	fa3,1088(a5)
    122c:	4517a223          	sw	a7,1092(a5)

00001230 <inst_137>:
    1230:	66c82507          	flw	fa0,1644(a6)
    1234:	67082587          	flw	fa1,1648(a6)
    1238:	67482607          	flw	fa2,1652(a6)
    123c:	0021d073          	fsrmi	zero,3
    1240:	60b576c3          	fmadd.s	fa3,fa0,fa1,fa2
    1244:	001028f3          	frflags	a7
    1248:	44d7a427          	fsw	fa3,1096(a5)
    124c:	4517a623          	sw	a7,1100(a5)

00001250 <inst_138>:
    1250:	67882507          	flw	fa0,1656(a6)
    1254:	67c82587          	flw	fa1,1660(a6)
    1258:	68082607          	flw	fa2,1664(a6)
    125c:	0021d073          	fsrmi	zero,3
    1260:	60b576c3          	fmadd.s	fa3,fa0,fa1,fa2
    1264:	001028f3          	frflags	a7
    1268:	44d7a827          	fsw	fa3,1104(a5)
    126c:	4517aa23          	sw	a7,1108(a5)

00001270 <inst_139>:
    1270:	68482507          	flw	fa0,1668(a6)
    1274:	68882587          	flw	fa1,1672(a6)
    1278:	68c82607          	flw	fa2,1676(a6)
    127c:	0021d073          	fsrmi	zero,3
    1280:	60b576c3          	fmadd.s	fa3,fa0,fa1,fa2
    1284:	001028f3          	frflags	a7
    1288:	44d7ac27          	fsw	fa3,1112(a5)
    128c:	4517ae23          	sw	a7,1116(a5)

00001290 <inst_140>:
    1290:	69082507          	flw	fa0,1680(a6)
    1294:	69482587          	flw	fa1,1684(a6)
    1298:	69882607          	flw	fa2,1688(a6)
    129c:	0021d073          	fsrmi	zero,3
    12a0:	60b576c3          	fmadd.s	fa3,fa0,fa1,fa2
    12a4:	001028f3          	frflags	a7
    12a8:	46d7a027          	fsw	fa3,1120(a5)
    12ac:	4717a223          	sw	a7,1124(a5)

000012b0 <inst_141>:
    12b0:	69c82507          	flw	fa0,1692(a6)
    12b4:	6a082587          	flw	fa1,1696(a6)
    12b8:	6a482607          	flw	fa2,1700(a6)
    12bc:	0021d073          	fsrmi	zero,3
    12c0:	60b576c3          	fmadd.s	fa3,fa0,fa1,fa2
    12c4:	001028f3          	frflags	a7
    12c8:	46d7a427          	fsw	fa3,1128(a5)
    12cc:	4717a623          	sw	a7,1132(a5)

000012d0 <inst_142>:
    12d0:	6a882507          	flw	fa0,1704(a6)
    12d4:	6ac82587          	flw	fa1,1708(a6)
    12d8:	6b082607          	flw	fa2,1712(a6)
    12dc:	0021d073          	fsrmi	zero,3
    12e0:	60b576c3          	fmadd.s	fa3,fa0,fa1,fa2
    12e4:	001028f3          	frflags	a7
    12e8:	46d7a827          	fsw	fa3,1136(a5)
    12ec:	4717aa23          	sw	a7,1140(a5)

000012f0 <inst_143>:
    12f0:	6b482507          	flw	fa0,1716(a6)
    12f4:	6b882587          	flw	fa1,1720(a6)
    12f8:	6bc82607          	flw	fa2,1724(a6)
    12fc:	0021d073          	fsrmi	zero,3
    1300:	60b576c3          	fmadd.s	fa3,fa0,fa1,fa2
    1304:	001028f3          	frflags	a7
    1308:	46d7ac27          	fsw	fa3,1144(a5)
    130c:	4717ae23          	sw	a7,1148(a5)

00001310 <inst_144>:
    1310:	6c082507          	flw	fa0,1728(a6)
    1314:	6c482587          	flw	fa1,1732(a6)
    1318:	6c882607          	flw	fa2,1736(a6)
    131c:	0021d073          	fsrmi	zero,3
    1320:	60b576c3          	fmadd.s	fa3,fa0,fa1,fa2
    1324:	001028f3          	frflags	a7
    1328:	48d7a027          	fsw	fa3,1152(a5)
    132c:	4917a223          	sw	a7,1156(a5)

00001330 <inst_145>:
    1330:	6cc82507          	flw	fa0,1740(a6)
    1334:	6d082587          	flw	fa1,1744(a6)
    1338:	6d482607          	flw	fa2,1748(a6)
    133c:	0021d073          	fsrmi	zero,3
    1340:	60b576c3          	fmadd.s	fa3,fa0,fa1,fa2
    1344:	001028f3          	frflags	a7
    1348:	48d7a427          	fsw	fa3,1160(a5)
    134c:	4917a623          	sw	a7,1164(a5)

00001350 <inst_146>:
    1350:	6d882507          	flw	fa0,1752(a6)
    1354:	6dc82587          	flw	fa1,1756(a6)
    1358:	6e082607          	flw	fa2,1760(a6)
    135c:	0021d073          	fsrmi	zero,3
    1360:	60b576c3          	fmadd.s	fa3,fa0,fa1,fa2
    1364:	001028f3          	frflags	a7
    1368:	48d7a827          	fsw	fa3,1168(a5)
    136c:	4917aa23          	sw	a7,1172(a5)

00001370 <inst_147>:
    1370:	6e482507          	flw	fa0,1764(a6)
    1374:	6e882587          	flw	fa1,1768(a6)
    1378:	6ec82607          	flw	fa2,1772(a6)
    137c:	0021d073          	fsrmi	zero,3
    1380:	60b576c3          	fmadd.s	fa3,fa0,fa1,fa2
    1384:	001028f3          	frflags	a7
    1388:	48d7ac27          	fsw	fa3,1176(a5)
    138c:	4917ae23          	sw	a7,1180(a5)

00001390 <inst_148>:
    1390:	6f082507          	flw	fa0,1776(a6)
    1394:	6f482587          	flw	fa1,1780(a6)
    1398:	6f882607          	flw	fa2,1784(a6)
    139c:	0021d073          	fsrmi	zero,3
    13a0:	60b576c3          	fmadd.s	fa3,fa0,fa1,fa2
    13a4:	001028f3          	frflags	a7
    13a8:	4ad7a027          	fsw	fa3,1184(a5)
    13ac:	4b17a223          	sw	a7,1188(a5)

000013b0 <inst_149>:
    13b0:	6fc82507          	flw	fa0,1788(a6)
    13b4:	70082587          	flw	fa1,1792(a6)
    13b8:	70482607          	flw	fa2,1796(a6)
    13bc:	0021d073          	fsrmi	zero,3
    13c0:	60b576c3          	fmadd.s	fa3,fa0,fa1,fa2
    13c4:	001028f3          	frflags	a7
    13c8:	4ad7a427          	fsw	fa3,1192(a5)
    13cc:	4b17a623          	sw	a7,1196(a5)

000013d0 <inst_150>:
    13d0:	70882507          	flw	fa0,1800(a6)
    13d4:	70c82587          	flw	fa1,1804(a6)
    13d8:	71082607          	flw	fa2,1808(a6)
    13dc:	0021d073          	fsrmi	zero,3
    13e0:	60b576c3          	fmadd.s	fa3,fa0,fa1,fa2
    13e4:	001028f3          	frflags	a7
    13e8:	4ad7a827          	fsw	fa3,1200(a5)
    13ec:	4b17aa23          	sw	a7,1204(a5)

000013f0 <inst_151>:
    13f0:	71482507          	flw	fa0,1812(a6)
    13f4:	71882587          	flw	fa1,1816(a6)
    13f8:	71c82607          	flw	fa2,1820(a6)
    13fc:	0021d073          	fsrmi	zero,3
    1400:	60b576c3          	fmadd.s	fa3,fa0,fa1,fa2
    1404:	001028f3          	frflags	a7
    1408:	4ad7ac27          	fsw	fa3,1208(a5)
    140c:	4b17ae23          	sw	a7,1212(a5)

00001410 <inst_152>:
    1410:	72082507          	flw	fa0,1824(a6)
    1414:	72482587          	flw	fa1,1828(a6)
    1418:	72882607          	flw	fa2,1832(a6)
    141c:	0021d073          	fsrmi	zero,3
    1420:	60b576c3          	fmadd.s	fa3,fa0,fa1,fa2
    1424:	001028f3          	frflags	a7
    1428:	4cd7a027          	fsw	fa3,1216(a5)
    142c:	4d17a223          	sw	a7,1220(a5)

00001430 <inst_153>:
    1430:	72c82507          	flw	fa0,1836(a6)
    1434:	73082587          	flw	fa1,1840(a6)
    1438:	73482607          	flw	fa2,1844(a6)
    143c:	0021d073          	fsrmi	zero,3
    1440:	60b576c3          	fmadd.s	fa3,fa0,fa1,fa2
    1444:	001028f3          	frflags	a7
    1448:	4cd7a427          	fsw	fa3,1224(a5)
    144c:	4d17a623          	sw	a7,1228(a5)

00001450 <inst_154>:
    1450:	73882507          	flw	fa0,1848(a6)
    1454:	73c82587          	flw	fa1,1852(a6)
    1458:	74082607          	flw	fa2,1856(a6)
    145c:	0021d073          	fsrmi	zero,3
    1460:	60b576c3          	fmadd.s	fa3,fa0,fa1,fa2
    1464:	001028f3          	frflags	a7
    1468:	4cd7a827          	fsw	fa3,1232(a5)
    146c:	4d17aa23          	sw	a7,1236(a5)

00001470 <inst_155>:
    1470:	74482507          	flw	fa0,1860(a6)
    1474:	74882587          	flw	fa1,1864(a6)
    1478:	74c82607          	flw	fa2,1868(a6)
    147c:	0021d073          	fsrmi	zero,3
    1480:	60b576c3          	fmadd.s	fa3,fa0,fa1,fa2
    1484:	001028f3          	frflags	a7
    1488:	4cd7ac27          	fsw	fa3,1240(a5)
    148c:	4d17ae23          	sw	a7,1244(a5)

00001490 <inst_156>:
    1490:	75082507          	flw	fa0,1872(a6)
    1494:	75482587          	flw	fa1,1876(a6)
    1498:	75882607          	flw	fa2,1880(a6)
    149c:	0021d073          	fsrmi	zero,3
    14a0:	60b576c3          	fmadd.s	fa3,fa0,fa1,fa2
    14a4:	001028f3          	frflags	a7
    14a8:	4ed7a027          	fsw	fa3,1248(a5)
    14ac:	4f17a223          	sw	a7,1252(a5)

000014b0 <inst_157>:
    14b0:	75c82507          	flw	fa0,1884(a6)
    14b4:	76082587          	flw	fa1,1888(a6)
    14b8:	76482607          	flw	fa2,1892(a6)
    14bc:	0021d073          	fsrmi	zero,3
    14c0:	60b576c3          	fmadd.s	fa3,fa0,fa1,fa2
    14c4:	001028f3          	frflags	a7
    14c8:	4ed7a427          	fsw	fa3,1256(a5)
    14cc:	4f17a623          	sw	a7,1260(a5)

000014d0 <inst_158>:
    14d0:	76882507          	flw	fa0,1896(a6)
    14d4:	76c82587          	flw	fa1,1900(a6)
    14d8:	77082607          	flw	fa2,1904(a6)
    14dc:	0021d073          	fsrmi	zero,3
    14e0:	60b576c3          	fmadd.s	fa3,fa0,fa1,fa2
    14e4:	001028f3          	frflags	a7
    14e8:	4ed7a827          	fsw	fa3,1264(a5)
    14ec:	4f17aa23          	sw	a7,1268(a5)

000014f0 <inst_159>:
    14f0:	77482507          	flw	fa0,1908(a6)
    14f4:	77882587          	flw	fa1,1912(a6)
    14f8:	77c82607          	flw	fa2,1916(a6)
    14fc:	0021d073          	fsrmi	zero,3
    1500:	60b576c3          	fmadd.s	fa3,fa0,fa1,fa2
    1504:	001028f3          	frflags	a7
    1508:	4ed7ac27          	fsw	fa3,1272(a5)
    150c:	4f17ae23          	sw	a7,1276(a5)

00001510 <inst_160>:
    1510:	78082507          	flw	fa0,1920(a6)
    1514:	78482587          	flw	fa1,1924(a6)
    1518:	78882607          	flw	fa2,1928(a6)
    151c:	0021d073          	fsrmi	zero,3
    1520:	60b576c3          	fmadd.s	fa3,fa0,fa1,fa2
    1524:	001028f3          	frflags	a7
    1528:	50d7a027          	fsw	fa3,1280(a5)
    152c:	5117a223          	sw	a7,1284(a5)

00001530 <inst_161>:
    1530:	78c82507          	flw	fa0,1932(a6)
    1534:	79082587          	flw	fa1,1936(a6)
    1538:	79482607          	flw	fa2,1940(a6)
    153c:	0021d073          	fsrmi	zero,3
    1540:	60b576c3          	fmadd.s	fa3,fa0,fa1,fa2
    1544:	001028f3          	frflags	a7
    1548:	50d7a427          	fsw	fa3,1288(a5)
    154c:	5117a623          	sw	a7,1292(a5)

00001550 <inst_162>:
    1550:	79882507          	flw	fa0,1944(a6)
    1554:	79c82587          	flw	fa1,1948(a6)
    1558:	7a082607          	flw	fa2,1952(a6)
    155c:	0021d073          	fsrmi	zero,3
    1560:	60b576c3          	fmadd.s	fa3,fa0,fa1,fa2
    1564:	001028f3          	frflags	a7
    1568:	50d7a827          	fsw	fa3,1296(a5)
    156c:	5117aa23          	sw	a7,1300(a5)

00001570 <inst_163>:
    1570:	7a482507          	flw	fa0,1956(a6)
    1574:	7a882587          	flw	fa1,1960(a6)
    1578:	7ac82607          	flw	fa2,1964(a6)
    157c:	0021d073          	fsrmi	zero,3
    1580:	60b576c3          	fmadd.s	fa3,fa0,fa1,fa2
    1584:	001028f3          	frflags	a7
    1588:	50d7ac27          	fsw	fa3,1304(a5)
    158c:	5117ae23          	sw	a7,1308(a5)

00001590 <inst_164>:
    1590:	7b082507          	flw	fa0,1968(a6)
    1594:	7b482587          	flw	fa1,1972(a6)
    1598:	7b882607          	flw	fa2,1976(a6)
    159c:	0021d073          	fsrmi	zero,3
    15a0:	60b576c3          	fmadd.s	fa3,fa0,fa1,fa2
    15a4:	001028f3          	frflags	a7
    15a8:	52d7a027          	fsw	fa3,1312(a5)
    15ac:	5317a223          	sw	a7,1316(a5)

000015b0 <inst_165>:
    15b0:	7bc82507          	flw	fa0,1980(a6)
    15b4:	7c082587          	flw	fa1,1984(a6)
    15b8:	7c482607          	flw	fa2,1988(a6)
    15bc:	0021d073          	fsrmi	zero,3
    15c0:	60b576c3          	fmadd.s	fa3,fa0,fa1,fa2
    15c4:	001028f3          	frflags	a7
    15c8:	52d7a427          	fsw	fa3,1320(a5)
    15cc:	5317a623          	sw	a7,1324(a5)

000015d0 <inst_166>:
    15d0:	7c882507          	flw	fa0,1992(a6)
    15d4:	7cc82587          	flw	fa1,1996(a6)
    15d8:	7d082607          	flw	fa2,2000(a6)
    15dc:	0021d073          	fsrmi	zero,3
    15e0:	60b576c3          	fmadd.s	fa3,fa0,fa1,fa2
    15e4:	001028f3          	frflags	a7
    15e8:	52d7a827          	fsw	fa3,1328(a5)
    15ec:	5317aa23          	sw	a7,1332(a5)

000015f0 <inst_167>:
    15f0:	7d482507          	flw	fa0,2004(a6)
    15f4:	7d882587          	flw	fa1,2008(a6)
    15f8:	7dc82607          	flw	fa2,2012(a6)
    15fc:	0021d073          	fsrmi	zero,3
    1600:	60b576c3          	fmadd.s	fa3,fa0,fa1,fa2
    1604:	001028f3          	frflags	a7
    1608:	52d7ac27          	fsw	fa3,1336(a5)
    160c:	5317ae23          	sw	a7,1340(a5)

00001610 <rvtest_code_end>:
    1610:	00001517          	auipc	a0,0x1
    1614:	1e050513          	add	a0,a0,480 # 27f0 <data_begin>
    1618:	00001597          	auipc	a1,0x1
    161c:	71858593          	add	a1,a1,1816 # 2d30 <_end>
    1620:	80001637          	lui	a2,0x80001
    1624:	00860613          	add	a2,a2,8 # 80001008 <_end+0x7fffe2d8>

00001628 <compliance_halt_loop>:
    1628:	06b50063          	beq	a0,a1,1688 <compliance_halt_break>
    162c:	00450693          	add	a3,a0,4

00001630 <compliance_halt_loop2>:
    1630:	fff68693          	add	a3,a3,-1
    1634:	00068703          	lb	a4,0(a3)
    1638:	40475793          	sra	a5,a4,0x4
    163c:	00f7f793          	and	a5,a5,15
    1640:	00a00813          	li	a6,10
    1644:	0107c463          	blt	a5,a6,164c <notLetter>
    1648:	02778793          	add	a5,a5,39

0000164c <notLetter>:
    164c:	03078793          	add	a5,a5,48
    1650:	00f60023          	sb	a5,0(a2)
    1654:	40075793          	sra	a5,a4,0x0
    1658:	00f7f793          	and	a5,a5,15
    165c:	00a00813          	li	a6,10
    1660:	0107c463          	blt	a5,a6,1668 <notLetter2>
    1664:	02778793          	add	a5,a5,39

00001668 <notLetter2>:
    1668:	03078793          	add	a5,a5,48
    166c:	00f60023          	sb	a5,0(a2)
    1670:	fcd510e3          	bne	a0,a3,1630 <compliance_halt_loop2>
    1674:	00450513          	add	a0,a0,4
    1678:	00a00713          	li	a4,10
    167c:	00e60023          	sb	a4,0(a2)
    1680:	fa9ff06f          	j	1628 <compliance_halt_loop>
    1684:	0040006f          	j	1688 <compliance_halt_break>

00001688 <compliance_halt_break>:
    1688:	80001537          	lui	a0,0x80001
    168c:	00950513          	add	a0,a0,9 # 80001009 <_end+0x7fffe2d9>
    1690:	00d50023          	sb	a3,0(a0)
    1694:	0000                	.2byte	0x0
	...

Desensamblado de la sección .data:

00002000 <rvtest_data_begin>:
    2000:	cafe                	.2byte	0xcafe
    2002:	babe                	.2byte	0xbabe

00002004 <test_fp>:
    2004:	31b9                	.2byte	0x31b9
    2006:	6e027eef          	jal	t4,296e6 <_end+0x269b6>
    200a:	bf98                	.2byte	0xbf98
    200c:	31b9                	.2byte	0x31b9
    200e:	90a77eef          	jal	t4,fff79118 <_end+0xfff763e8>
    2012:	28777f23          	.4byte	0x28777f23
    2016:	be6c                	.2byte	0xbe6c
    2018:	e335                	.2byte	0xe335
    201a:	7e16                	.2byte	0x7e16
    201c:	058d                	.2byte	0x58d
    201e:	7e94                	.2byte	0x7e94
    2020:	1f69                	.2byte	0x1f69
    2022:	bf82                	.2byte	0xbf82
    2024:	79f6                	.2byte	0x79f6
    2026:	7e96                	.2byte	0x7e96
    2028:	7eb90aa3          	sb	a1,2037(s2)
    202c:	7eb90aa3          	sb	a1,2037(s2)
    2030:	0ca1                	.2byte	0xca1
    2032:	f8857f2f          	.4byte	0xf8857f2f
    2036:	f8857f07          	.4byte	0xf8857f07
    203a:	c7427f07          	.4byte	0xc7427f07
    203e:	7ef2                	.2byte	0x7ef2
    2040:	3fb8                	.2byte	0x3fb8
    2042:	7ea4                	.2byte	0x7ea4
    2044:	3fb8                	.2byte	0x3fb8
    2046:	7ea4                	.2byte	0x7ea4
    2048:	3fb8                	.2byte	0x3fb8
    204a:	7ea4                	.2byte	0x7ea4
    204c:	eb6c                	.2byte	0xeb6c
    204e:	7c32                	.2byte	0x7c32
    2050:	eb6c                	.2byte	0xeb6c
    2052:	7c32                	.2byte	0x7c32
    2054:	eb6c                	.2byte	0xeb6c
    2056:	7c32                	.2byte	0x7c32
    2058:	7c0d                	.2byte	0x7c0d
    205a:	7f2a                	.2byte	0x7f2a
    205c:	bf1d4c63          	blt	s10,a7,1454 <inst_154+0x4>
    2060:	81e6                	.2byte	0x81e6
    2062:	7ed1                	.2byte	0x7ed1
    2064:	f4a6                	.2byte	0xf4a6
    2066:	7eae                	.2byte	0x7eae
    2068:	c03c                	.2byte	0xc03c
    206a:	c000                	.2byte	0xc000
    206c:	c03c                	.2byte	0xc03c
    206e:	c000                	.2byte	0xc000
    2070:	d1b9                	.2byte	0xd1b9
    2072:	7cdf bbf1 c0dd      	.byte	0xdf, 0x7c, 0xf1, 0xbb, 0xdd, 0xc0
    2078:	d1b9                	.2byte	0xd1b9
    207a:	7cdf 0b15 7f0f      	.byte	0xdf, 0x7c, 0x15, 0x0b, 0x0f, 0x7f
    2080:	0294                	.2byte	0x294
    2082:	de76bf4b          	.4byte	0xde76bf4b
    2086:	7ee2                	.2byte	0x7ee2
    2088:	4e28                	.2byte	0x4e28
    208a:	7eb2                	.2byte	0x7eb2
    208c:	0cb8                	.2byte	0xcb8
    208e:	0cb8bf47          	.4byte	0xcb8bf47
    2092:	f59cbf47          	.4byte	0xf59cbf47
    2096:	7f4a7e63          	bgeu	s4,s4,2892 <data_begin+0xa2>
    209a:	bfe4                	.2byte	0xbfe4
    209c:	7ecb7817          	auipc	a6,0x7ecb7
    20a0:	dcfa                	.2byte	0xdcfa
    20a2:	7ecc                	.2byte	0x7ecc
    20a4:	49e2                	.2byte	0x49e2
    20a6:	bf21                	.2byte	0xbf21
    20a8:	1219                	.2byte	0x1219
    20aa:	7e81                	.2byte	0x7e81
    20ac:	ff1d                	.2byte	0xff1d
    20ae:	7f11                	.2byte	0x7f11
    20b0:	beca76b7          	lui	a3,0xbeca7
    20b4:	ee02                	.2byte	0xee02
    20b6:	7e66                	.2byte	0x7e66
    20b8:	bf31                	.2byte	0xbf31
    20ba:	7f0e                	.2byte	0x7f0e
    20bc:	be22c52b          	.4byte	0xbe22c52b
    20c0:	85de                	.2byte	0x85de
    20c2:	7db5                	.2byte	0x7db5
    20c4:	7ef7a1f3          	csrrs	gp,0x7ef,a5
    20c8:	b705                	.2byte	0xb705
    20ca:	e13bbf6f          	jal	t5,fffbdedc <_end+0xfffbb1ac>
    20ce:	7c867ee7          	.4byte	0x7c867ee7
    20d2:	7ee9                	.2byte	0x7ee9
    20d4:	bf47d51b          	.4byte	0xbf47d51b
    20d8:	422a                	.2byte	0x422a
    20da:	7eb6                	.2byte	0x7eb6
    20dc:	dabc                	.2byte	0xdabc
    20de:	7f3d                	.2byte	0x7f3d
    20e0:	cf0e                	.2byte	0xcf0e
    20e2:	2b27be97          	auipc	t4,0x2b27b
    20e6:	7e61                	.2byte	0x7e61
    20e8:	7e4d95b3          	.4byte	0x7e4d95b3
    20ec:	0204                	.2byte	0x204
    20ee:	bf14                	.2byte	0xbf14
    20f0:	b854                	.2byte	0xb854
    20f2:	7ded                	.2byte	0x7ded
    20f4:	204d                	.2byte	0x204d
    20f6:	7f16                	.2byte	0x7f16
    20f8:	bea0dc4b          	.4byte	0xbea0dc4b
    20fc:	aac1                	.2byte	0xaac1
    20fe:	7e3c                	.2byte	0x7e3c
    2100:	44d5                	.2byte	0x44d5
    2102:	7e52                	.2byte	0x7e52
    2104:	9f6c                	.2byte	0x9f6c
    2106:	c05a                	.2byte	0xc05a
    2108:	7f33918f          	.4byte	0x7f33918f
    210c:	3dfa                	.2byte	0x3dfa
    210e:	7c22                	.2byte	0x7c22
    2110:	57ca                	.2byte	0x57ca
    2112:	c221                	.2byte	0xc221
    2114:	7ecc813b          	.4byte	0x7ecc813b
    2118:	166d                	.2byte	0x166d
    211a:	7f16                	.2byte	0x7f16
    211c:	627c                	.2byte	0x627c
    211e:	bf21bf87          	.4byte	0xbf21bf87
    2122:	7f1e                	.2byte	0x7f1e
    2124:	7eaa4aa3          	.4byte	0x7eaa4aa3
    2128:	3302                	.2byte	0x3302
    212a:	bf29                	.2byte	0xbf29
    212c:	1a69                	.2byte	0x1a69
    212e:	7e61                	.2byte	0x7e61
    2130:	7dbb3787          	.4byte	0x7dbb3787
    2134:	37c4                	.2byte	0x37c4
    2136:	ba47c0a3          	.4byte	0xba47c0a3
    213a:	7eee                	.2byte	0x7eee
    213c:	f434                	.2byte	0xf434
    213e:	28277e5b          	.4byte	0x28277e5b
    2142:	bfd5                	.2byte	0xbfd5
    2144:	7eb724af          	.4byte	0x7eb724af
    2148:	fb28                	.2byte	0xfb28
    214a:	7f3c                	.2byte	0x7f3c
    214c:	ccec                	.2byte	0xccec
    214e:	d574beff 8c7e7ebc 	.byte	0xff, 0xbe, 0x74, 0xd5, 0xbc, 0x7e, 0x7e, 0x8c, 0x9f, 0x7e, 0x4f, 0xa4, 0x44, 0xbf, 0xf1, 0x1b
    2156:	a44f7e9f 1bf1bf44 
    215e:	7e75                	.2byte	0x7e75
    2160:	7f3c5927          	.4byte	0x7f3c5927
    2164:	847e                	.2byte	0x847e
    2166:	bf01                	.2byte	0xbf01
    2168:	94d0                	.2byte	0x94d0
    216a:	7ebe                	.2byte	0x7ebe
    216c:	ca80                	.2byte	0xca80
    216e:	7ee4                	.2byte	0x7ee4
    2170:	46b8                	.2byte	0x46b8
    2172:	bedf 8b9a 7e47      	.byte	0xdf, 0xbe, 0x9a, 0x8b, 0x47, 0x7e
    2178:	89e8                	.2byte	0x89e8
    217a:	7f38                	.2byte	0x7f38
    217c:	608d                	.2byte	0x608d
    217e:	7080bf73          	csrrc	t5,0x708,ra
    2182:	b6167f2f          	.4byte	0xb6167f2f
    2186:	7f3a                	.2byte	0x7f3a
    2188:	f49a                	.2byte	0xf49a
    218a:	d5f1bec7          	.4byte	0xd5f1bec7
    218e:	7e91                	.2byte	0x7e91
    2190:	d370                	.2byte	0xd370
    2192:	7e2d                	.2byte	0x7e2d
    2194:	bfa4d96b          	.4byte	0xbfa4d96b
    2198:	de2a                	.2byte	0xde2a
    219a:	7e5f 5363 7e90      	.byte	0x5f, 0x7e, 0x63, 0x53, 0x90, 0x7e
    21a0:	bf9303f7          	.4byte	0xbf9303f7
    21a4:	c43d                	.2byte	0xc43d
    21a6:	7ea5                	.2byte	0x7ea5
    21a8:	b611                	.2byte	0xb611
    21aa:	7ef1                	.2byte	0x7ef1
    21ac:	bfb53e03          	.4byte	0xbfb53e03
    21b0:	7f2b2047          	.4byte	0x7f2b2047
    21b4:	3979                	.2byte	0x3979
    21b6:	7eec                	.2byte	0x7eec
    21b8:	3541                	.2byte	0x3541
    21ba:	be6a                	.2byte	0xbe6a
    21bc:	1dad                	.2byte	0x1dad
    21be:	7dd8                	.2byte	0x7dd8
    21c0:	7da5c337          	lui	t1,0x7da5c
    21c4:	c65d                	.2byte	0xc65d
    21c6:	4594c0a7          	.4byte	0x4594c0a7
    21ca:	7ed9                	.2byte	0x7ed9
    21cc:	8bb0                	.2byte	0x8bb0
    21ce:	fed77f2b          	.4byte	0xfed77f2b
    21d2:	ba8a                	.2byte	0xba8a
    21d4:	4824                	.2byte	0x4824
    21d6:	7a3a                	.2byte	0x7a3a
    21d8:	b4c8                	.2byte	0xb4c8
    21da:	7ee9                	.2byte	0x7ee9
    21dc:	b0b0                	.2byte	0xb0b0
    21de:	d41dbf13          	sltiu	t5,s11,-703
    21e2:	7e86                	.2byte	0x7e86
    21e4:	c8e9                	.2byte	0xc8e9
    21e6:	712d7f37          	lui	t5,0x712d7
    21ea:	bf81                	.2byte	0xbf81
    21ec:	7f39dafb          	.4byte	0x7f39dafb
    21f0:	d70d                	.2byte	0xd70d
    21f2:	7ee4                	.2byte	0x7ee4
    21f4:	3849                	.2byte	0x3849
    21f6:	bf72                	.2byte	0xbf72
    21f8:	7ed8859b          	.4byte	0x7ed8859b
    21fc:	ddb2                	.2byte	0xddb2
    21fe:	7e8d                	.2byte	0x7e8d
    2200:	f318                	.2byte	0xf318
    2202:	bec4                	.2byte	0xbec4
    2204:	48e6                	.2byte	0x48e6
    2206:	7dda                	.2byte	0x7dda
    2208:	7f1c1813          	.4byte	0x7f1c1813
    220c:	4039                	.2byte	0x4039
    220e:	bf4a                	.2byte	0xbf4a
    2210:	a451                	.2byte	0xa451
    2212:	7ef6                	.2byte	0x7ef6
    2214:	27fd                	.2byte	0x27fd
    2216:	7f1d                	.2byte	0x7f1d
    2218:	13ed                	.2byte	0x13ed
    221a:	ef64bf03          	.4byte	0xef64bf03
    221e:	7ea0                	.2byte	0x7ea0
    2220:	7edf106b          	.4byte	0x7edf106b
    2224:	2924                	.2byte	0x2924
    2226:	fe62bfd3          	.4byte	0xfe62bfd3
    222a:	5d637f37          	lui	t5,0x5d637
    222e:	7ed1                	.2byte	0x7ed1
    2230:	58f4                	.2byte	0x58f4
    2232:	bf1f 51c0 7e82      	.byte	0x1f, 0xbf, 0xc0, 0x51, 0x82, 0x7e
    2238:	9bcd                	.2byte	0x9bcd
    223a:	405c7eeb          	.4byte	0x405c7eeb
    223e:	be1e                	.2byte	0xbe1e
    2240:	a564                	.2byte	0xa564
    2242:	7d91                	.2byte	0x7d91
    2244:	91dd                	.2byte	0x91dd
    2246:	89907e8f          	.4byte	0x89907e8f
    224a:	bdc5                	.2byte	0xbdc5
    224c:	7cdd90cb          	.4byte	0x7cdd90cb
    2250:	7db0c11b          	.4byte	0x7db0c11b
    2254:	c0e73027          	.4byte	0xc0e73027
    2258:	7f1f9f7f 7e55e8d8 	.byte	0x7f, 0x9f, 0x1f, 0x7f, 0xd8, 0xe8, 0x55, 0x7e, 0x42, 0x70, 0xbc, 0xbf
    2260:	bfbc7042 
    2264:	74cc                	.2byte	0x74cc
    2266:	7e9d                	.2byte	0x7e9d
    2268:	e1e1                	.2byte	0xe1e1
    226a:	7a01                	.2byte	0x7a01
    226c:	6885                	.2byte	0x6885
    226e:	c419                	.2byte	0xc419
    2270:	aa0e                	.2byte	0xaa0e
    2272:	aa817e9b          	.4byte	0xaa817e9b
    2276:	7e36                	.2byte	0x7e36
    2278:	0786                	.2byte	0x786
    227a:	6937c073          	.4byte	0x6937c073
    227e:	7f2d                	.2byte	0x7f2d
    2280:	edca                	.2byte	0xedca
    2282:	7eea                	.2byte	0x7eea
    2284:	f305                	.2byte	0xf305
    2286:	bf76                	.2byte	0xbf76
    2288:	9f84                	.2byte	0x9f84
    228a:	7ee2                	.2byte	0x7ee2
    228c:	afd0                	.2byte	0xafd0
    228e:	7eb2                	.2byte	0x7eb2
    2290:	3864                	.2byte	0x3864
    2292:	bf51                	.2byte	0xbf51
    2294:	08e5                	.2byte	0x8e5
    2296:	7e92                	.2byte	0x7e92
    2298:	8024                	.2byte	0x8024
    229a:	7e14                	.2byte	0x7e14
    229c:	d5fe                	.2byte	0xd5fe
    229e:	be3c                	.2byte	0xbe3c
    22a0:	1479                	.2byte	0x1479
    22a2:	b9b67cdb          	.4byte	0xb9b67cdb
    22a6:	733e7e73          	csrrc	t3,mhpmevent19h,28
    22aa:	bf12                	.2byte	0xbf12
    22ac:	6da2                	.2byte	0x6da2
    22ae:	53cb7e0b          	.4byte	0x53cb7e0b
    22b2:	7d26                	.2byte	0x7d26
    22b4:	d609                	.2byte	0xd609
    22b6:	c01d                	.2byte	0xc01d
    22b8:	7dcd18e7          	.4byte	0x7dcd18e7
    22bc:	16bd                	.2byte	0x16bd
    22be:	7eb5                	.2byte	0x7eb5
    22c0:	bef5a1a3          	sw	a5,-1053(a1)
    22c4:	c11a                	.2byte	0xc11a
    22c6:	7e2d                	.2byte	0x7e2d
    22c8:	4091                	.2byte	0x4091
    22ca:	7ef2                	.2byte	0x7ef2
    22cc:	bd87e5ab          	.4byte	0xbd87e5ab
    22d0:	9962                	.2byte	0x9962
    22d2:	7d00                	.2byte	0x7d00
    22d4:	7e2838a7          	.4byte	0x7e2838a7
    22d8:	6d6d                	.2byte	0x6d6d
    22da:	c048                	.2byte	0xc048
    22dc:	7f03b42b          	.4byte	0x7f03b42b
    22e0:	5ec9                	.2byte	0x5ec9
    22e2:	7ea9                	.2byte	0x7ea9
    22e4:	aab6                	.2byte	0xaab6
    22e6:	bfbc                	.2byte	0xbfbc
    22e8:	a51a                	.2byte	0xa51a
    22ea:	7ef9                	.2byte	0x7ef9
    22ec:	b5ac                	.2byte	0xb5ac
    22ee:	7ca9                	.2byte	0x7ca9
    22f0:	62d8                	.2byte	0x62d8
    22f2:	c0b9                	.2byte	0xc0b9
    22f4:	cba0                	.2byte	0xcba0
    22f6:	7df5                	.2byte	0x7df5
    22f8:	8e89                	.2byte	0x8e89
    22fa:	7ef4                	.2byte	0x7ef4
    22fc:	cab1                	.2byte	0xcab1
    22fe:	bf90                	.2byte	0xbf90
    2300:	7f0a51cf          	.4byte	0x7f0a51cf
    2304:	83d9                	.2byte	0x83d9
    2306:	fb147eef          	jal	t4,fff4a2b6 <_end+0xfff47586>
    230a:	bf9e                	.2byte	0xbf9e
    230c:	be49                	.2byte	0xbe49
    230e:	7f14                	.2byte	0x7f14
    2310:	92d6                	.2byte	0x92d6
    2312:	7eff                	.2byte	0x7eff
    2314:	da8e                	.2byte	0xda8e
    2316:	bf21                	.2byte	0xbf21
    2318:	9589                	.2byte	0x9589
    231a:	7ea1                	.2byte	0x7ea1
    231c:	7f15d4d3          	.4byte	0x7f15d4d3
    2320:	8bad                	.2byte	0x8bad
    2322:	bf3e                	.2byte	0xbf3e
    2324:	0b6a                	.2byte	0xb6a
    2326:	7edf 3a54 7f0c      	.byte	0xdf, 0x7e, 0x54, 0x3a, 0x0c, 0x7f
    232c:	e95d                	.2byte	0xe95d
    232e:	be70                	.2byte	0xbe70
    2330:	7e03f683          	.4byte	0x7e03f683
    2334:	c0f2                	.2byte	0xc0f2
    2336:	7f04                	.2byte	0x7f04
    2338:	3b56                	.2byte	0x3b56
    233a:	bf85                	.2byte	0xbf85
    233c:	7f0a2e07          	flw	ft8,2032(s4)
    2340:	fa2e                	.2byte	0xfa2e
    2342:	55a17f33          	.4byte	0x55a17f33
    2346:	bf02                	.2byte	0xbf02
    2348:	427e                	.2byte	0x427e
    234a:	3dba7eb7          	lui	t4,0x3dba7
    234e:	7dff                	.2byte	0x7dff
    2350:	1bd1                	.2byte	0x1bd1
    2352:	c0a1                	.2byte	0xc0a1
    2354:	a18e                	.2byte	0xa18e
    2356:	7f20                	.2byte	0x7f20
    2358:	f72d                	.2byte	0xf72d
    235a:	7ec6                	.2byte	0x7ec6
    235c:	c459                	.2byte	0xc459
    235e:	bf82                	.2byte	0xbf82
    2360:	443e                	.2byte	0x443e
    2362:	6a5b7ecb          	.4byte	0x6a5b7ecb
    2366:	dbb07f3b          	.4byte	0xdbb07f3b
    236a:	bf7a                	.2byte	0xbf7a
    236c:	a6b2                	.2byte	0xa6b2
    236e:	05e07f37          	lui	t5,0x5e07
    2372:	90d77f27          	.4byte	0x90d77f27
    2376:	bf4a                	.2byte	0xbf4a
    2378:	7f042923          	sw	a6,2034(s0)
    237c:	6ad6                	.2byte	0x6ad6
    237e:	7e86                	.2byte	0x7e86
    2380:	1b4e                	.2byte	0x1b4e
    2382:	c01a                	.2byte	0xc01a
    2384:	7f21d537          	lui	a0,0x7f21d
    2388:	a9b0                	.2byte	0xa9b0
    238a:	7f0d                	.2byte	0x7f0d
    238c:	ad14                	.2byte	0xad14
    238e:	0320bf8f          	.4byte	0x320bf8f
    2392:	7f1f 966f 7e85      	.byte	0x1f, 0x7f, 0x6f, 0x96, 0x85, 0x7e
    2398:	f9b4                	.2byte	0xf9b4
    239a:	bfec                	.2byte	0xbfec
    239c:	51f9                	.2byte	0x51f9
    239e:	9da37ef7          	.4byte	0x9da37ef7
    23a2:	7ef8                	.2byte	0x7ef8
    23a4:	b158                	.2byte	0xb158
    23a6:	bf9d                	.2byte	0xbf9d
    23a8:	24e8                	.2byte	0x24e8
    23aa:	7f19                	.2byte	0x7f19
    23ac:	c4c0                	.2byte	0xc4c0
    23ae:	7eb1                	.2byte	0x7eb1
    23b0:	ceaa                	.2byte	0xceaa
    23b2:	bfe1                	.2byte	0xbfe1
    23b4:	7f1ccd6f          	jal	s10,cf3a4 <_end+0xcc674>
    23b8:	7e40881b          	.4byte	0x7e40881b
    23bc:	773c                	.2byte	0x773c
    23be:	f497c02b          	.4byte	0xf497c02b
    23c2:	7f00                	.2byte	0x7f00
    23c4:	4d98                	.2byte	0x4d98
    23c6:	7c0e                	.2byte	0x7c0e
    23c8:	eebe                	.2byte	0xeebe
    23ca:	c23c                	.2byte	0xc23c
    23cc:	7ed20b63          	beq	tp,a3,2bc2 <data_begin+0x3d2>
    23d0:	7b55                	.2byte	0x7b55
    23d2:	7ef9                	.2byte	0x7ef9
    23d4:	cca5                	.2byte	0xcca5
    23d6:	bf64                	.2byte	0xbf64
    23d8:	7edef947          	.4byte	0x7edef947
    23dc:	ada9                	.2byte	0xada9
    23de:	7e61                	.2byte	0x7e61
    23e0:	efe6                	.2byte	0xefe6
    23e2:	c04d                	.2byte	0xc04d
    23e4:	8b8d                	.2byte	0x8b8d
    23e6:	7f35                	.2byte	0x7f35
    23e8:	caa0                	.2byte	0xcaa0
    23ea:	c5817f13          	and	t5,sp,-936
    23ee:	bf65                	.2byte	0xbf65
    23f0:	7f04a647          	.4byte	0x7f04a647
    23f4:	b1c2                	.2byte	0xb1c2
    23f6:	5a9b7e57          	.4byte	0x5a9b7e57
    23fa:	bfdd                	.2byte	0xbfdd
    23fc:	80cc                	.2byte	0x80cc
    23fe:	7eba                	.2byte	0x7eba
    2400:	7e8b8ecb          	.4byte	0x7e8b8ecb
    2404:	1ce6                	.2byte	0x1ce6
    2406:	bff8                	.2byte	0xbff8
    2408:	4216                	.2byte	0x4216
    240a:	fbaa7f07          	.4byte	0xfbaa7f07
    240e:	7efe                	.2byte	0x7efe
    2410:	6eac                	.2byte	0x6eac
    2412:	bf92                	.2byte	0xbf92
    2414:	d9c2                	.2byte	0xd9c2
    2416:	7f11                	.2byte	0x7f11
    2418:	c7ca                	.2byte	0xc7ca
    241a:	7f14                	.2byte	0x7f14
    241c:	789e                	.2byte	0x789e
    241e:	bf65                	.2byte	0xbf65
    2420:	5cd1                	.2byte	0x5cd1
    2422:	7f05                	.2byte	0x7f05
    2424:	bfd0                	.2byte	0xbfd0
    2426:	7e8a                	.2byte	0x7e8a
    2428:	3975                	.2byte	0x3975
    242a:	ea94c00b          	.4byte	0xea94c00b
    242e:	7f16                	.2byte	0x7f16
    2430:	7f1625cb          	.4byte	0x7f1625cb
    2434:	f910                	.2byte	0xf910
    2436:	bf8d                	.2byte	0xbf8d
    2438:	7f2689cb          	.4byte	0x7f2689cb
    243c:	ea41                	.2byte	0xea41
    243e:	7d88                	.2byte	0x7d88
    2440:	8442                	.2byte	0x8442
    2442:	2259c043          	.4byte	0x2259c043
    2446:	7e51                	.2byte	0x7e51
    2448:	bd64                	.2byte	0xbd64
    244a:	89497ebf f9d0bf2d 	.8byte	0xf9d0bf2d89497ebf
    2452:	7e81                	.2byte	0x7e81
    2454:	48de                	.2byte	0x48de
    2456:	7f38                	.2byte	0x7f38
    2458:	3904                	.2byte	0x3904
    245a:	c129bf27          	.4byte	0xc129bf27
    245e:	7ef0                	.2byte	0x7ef0
    2460:	c4ae                	.2byte	0xc4ae
    2462:	7e90                	.2byte	0x7e90
    2464:	ca24                	.2byte	0xca24
    2466:	c53ac027          	.4byte	0xc53ac027
    246a:	7f3d                	.2byte	0x7f3d
    246c:	0e1c                	.2byte	0xe1c
    246e:	c4ac7e9b          	.4byte	0xc4ac7e9b
    2472:	beb9                	.2byte	0xbeb9
    2474:	08a4                	.2byte	0x8a4
    2476:	7de1                	.2byte	0x7de1
    2478:	f3c9                	.2byte	0xf3c9
    247a:	85b67eb7          	lui	t4,0x85b67
    247e:	815fbf1b          	.4byte	0x815fbf1b
    2482:	7e5f 73fa 7ebb      	.byte	0x5f, 0x7e, 0xfa, 0x73, 0xbb, 0x7e
    2488:	bfbf4883          	lbu	a7,-1029(t5) # 5e06bfb <_end+0x5e03ecb>
    248c:	10a1                	.2byte	0x10a1
    248e:	7f0c                	.2byte	0x7f0c
    2490:	64b8                	.2byte	0x64b8
    2492:	ebb77f3b          	.4byte	0xebb77f3b
    2496:	beed                	.2byte	0xbeed
    2498:	7eae28cb          	.4byte	0x7eae28cb
    249c:	dd96                	.2byte	0xdd96
    249e:	545b7f3f a1ebbf5a 	.8byte	0xa1ebbf5a545b7f3f
    24a6:	6a937f23          	.4byte	0x6a937f23
    24aa:	7e62                	.2byte	0x7e62
    24ac:	bfc4bf77          	.4byte	0xbfc4bf77
    24b0:	02f0                	.2byte	0x2f0
    24b2:	7eae                	.2byte	0x7eae
    24b4:	7de53da7          	.4byte	0x7de53da7
    24b8:	1f02                	.2byte	0x1f02
    24ba:	c0b5                	.2byte	0xc0b5
    24bc:	7f22305b          	.4byte	0x7f22305b
    24c0:	c8dc                	.2byte	0xc8dc
    24c2:	691f7da3          	.4byte	0x691f7da3
    24c6:	c082                	.2byte	0xc082
    24c8:	7ea6de83          	lhu	t4,2026(a3) # beca77ea <_end+0xbeca4aba>
    24cc:	12c5                	.2byte	0x12c5
    24ce:	7ef2                	.2byte	0x7ef2
    24d0:	008a                	.2byte	0x8a
    24d2:	bfa0                	.2byte	0xbfa0
    24d4:	4c3e                	.2byte	0x4c3e
    24d6:	7ac47f17          	auipc	t5,0x7ac47
    24da:	7f0c                	.2byte	0x7f0c
    24dc:	2942                	.2byte	0x2942
    24de:	bfa6                	.2byte	0xbfa6
    24e0:	7f365c7f 7f20fa79 	.byte	0x7f, 0x5c, 0x36, 0x7f, 0x79, 0xfa, 0x20, 0x7f, 0xb2, 0x78, 0x1f, 0xbe, 0xed, 0x8e, 0xc8, 0x7d, 0x06, 0x0a, 0xc9, 0x7c
    24e8:	be1f78b2 7dc88eed 
    24f0:	7cc90a06 
    24f4:	57ba                	.2byte	0x57ba
    24f6:	c171                	.2byte	0xc171
    24f8:	8755                	.2byte	0x8755
    24fa:	7ebd                	.2byte	0x7ebd
    24fc:	21f2                	.2byte	0x21f2
    24fe:	8e087d2b          	.4byte	0x8e087d2b
    2502:	e2a3c183          	lbu	gp,-470(t2)
    2506:	f9b37f2f          	.4byte	0xf9b37f2f
    250a:	7eae                	.2byte	0x7eae
    250c:	f335                	.2byte	0xf335
    250e:	bf6c                	.2byte	0xbf6c
    2510:	f46d                	.2byte	0xf46d
    2512:	7ea1                	.2byte	0x7ea1
    2514:	14a9                	.2byte	0x14a9
    2516:	7ee4                	.2byte	0x7ee4
    2518:	11a1                	.2byte	0x11a1
    251a:	bfb2                	.2byte	0xbfb2
    251c:	7f1ea613          	slti	a2,t4,2033
    2520:	dc6a                	.2byte	0xdc6a
    2522:	b1237e9b          	.4byte	0xb1237e9b
    2526:	bf15                	.2byte	0xbf15
    2528:	4645                	.2byte	0x4645
    252a:	7e36                	.2byte	0x7e36
    252c:	7f3d723b          	.4byte	0x7f3d723b
    2530:	bf0a6ccf          	.4byte	0xbf0a6ccf
    2534:	e034                	.2byte	0xe034
    2536:	7ecc                	.2byte	0x7ecc
    2538:	7df81bf7          	.4byte	0x7df81bf7
    253c:	be99e553          	.4byte	0xbe99e553
    2540:	26f9                	.2byte	0x26f9
    2542:	7d15                	.2byte	0x7d15
    2544:	524e                	.2byte	0x524e
    2546:	7f04                	.2byte	0x7f04
    2548:	1f1a                	.2byte	0x1f1a
    254a:	bfb9                	.2byte	0xbfb9
    254c:	5f1d                	.2byte	0x5f1d
    254e:	38047f3f aee77d70 	.8byte	0xaee77d7038047f3f
    2556:	a94bbff3          	csrrc	t6,0xa94,s7
    255a:	7de4                	.2byte	0x7de4
    255c:	4d68                	.2byte	0x4d68
    255e:	6a987e73          	csrrc	t3,0x6a9,16
    2562:	4d8cbf0f          	.4byte	0x4d8cbf0f
    2566:	7e08                	.2byte	0x7e08
    2568:	55d6                	.2byte	0x55d6
    256a:	7ed1                	.2byte	0x7ed1
    256c:	ba16                	.2byte	0xba16
    256e:	bf12                	.2byte	0xbf12
    2570:	f63d                	.2byte	0xf63d
    2572:	8b617e6f          	jal	t3,fff19628 <_end+0xfff168f8>
    2576:	7e82                	.2byte	0x7e82
    2578:	fcc1                	.2byte	0xfcc1
    257a:	c02d                	.2byte	0xc02d
    257c:	7228                	.2byte	0x7228
    257e:	7f31                	.2byte	0x7f31
    2580:	8ec9                	.2byte	0x8ec9
    2582:	7eea                	.2byte	0x7eea
    2584:	6305                	.2byte	0x6305
    2586:	bfc0                	.2byte	0xbfc0
    2588:	45d1                	.2byte	0x45d1
    258a:	7f30                	.2byte	0x7f30
    258c:	0d61                	.2byte	0xd61
    258e:	7d8c                	.2byte	0x7d8c
    2590:	2b41                	.2byte	0x2b41
    2592:	d828c06f          	j	fff8eb14 <_end+0xfff8bde4>
    2596:	7e82                	.2byte	0x7e82
    2598:	107d                	.2byte	0x107d
    259a:	7ce1                	.2byte	0x7ce1
    259c:	8dd6                	.2byte	0x8dd6
    259e:	c1ce                	.2byte	0xc1ce
    25a0:	97f8                	.2byte	0x97f8
    25a2:	7f35                	.2byte	0x7f35
    25a4:	1148                	.2byte	0x1148
    25a6:	7f19                	.2byte	0x7f19
    25a8:	bf8a0793          	add	a5,s4,-1032
    25ac:	0fb1                	.2byte	0xfb1
    25ae:	7f25                	.2byte	0x7f25
    25b0:	f81d                	.2byte	0xf81d
    25b2:	7da5                	.2byte	0x7da5
    25b4:	a39a                	.2byte	0xa39a
    25b6:	c0dd                	.2byte	0xc0dd
    25b8:	b142                	.2byte	0xb142
    25ba:	7c497f0f          	.4byte	0x7c497f0f
    25be:	7ec9                	.2byte	0x7ec9
    25c0:	34f5                	.2byte	0x34f5
    25c2:	bfbd                	.2byte	0xbfbd
    25c4:	ea70                	.2byte	0xea70
    25c6:	7f14                	.2byte	0x7f14
    25c8:	7e843e1b          	.4byte	0x7e843e1b
    25cc:	dea5                	.2byte	0xdea5
    25ce:	3d97bf83          	.4byte	0x3d97bf83
    25d2:	7e88                	.2byte	0x7e88
    25d4:	7e6a                	.2byte	0x7e6a
    25d6:	7f32                	.2byte	0x7f32
    25d8:	b4a9                	.2byte	0xb4a9
    25da:	bf81                	.2byte	0xbf81
    25dc:	df56                	.2byte	0xdf56
    25de:	7f34                	.2byte	0x7f34
    25e0:	7e16edbb          	.4byte	0x7e16edbb
    25e4:	c0761db3          	.4byte	0xc0761db3
    25e8:	19f4                	.2byte	0x19f4
    25ea:	7f11                	.2byte	0x7f11
    25ec:	7e0af237          	lui	tp,0x7e0af
    25f0:	f25d                	.2byte	0xf25d
    25f2:	c0a8                	.2byte	0xc0a8
    25f4:	6500                	.2byte	0x6500
    25f6:	1c447f37          	lui	t5,0x1c447
    25fa:	7bdf b4d2 c0a4      	.byte	0xdf, 0x7b, 0xd2, 0xb4, 0xa4, 0xc0
    2600:	7d0f8bb3          	.4byte	0x7d0f8bb3
    2604:	9d65                	.2byte	0x9d65
    2606:	7e8c                	.2byte	0x7e8c
    2608:	38ba                	.2byte	0x38ba
    260a:	bfca                	.2byte	0xbfca
    260c:	26b6                	.2byte	0x26b6
    260e:	7ede                	.2byte	0x7ede
    2610:	038c                	.2byte	0x38c
    2612:	7c5e                	.2byte	0x7c5e
    2614:	c22e660b          	.4byte	0xc22e660b
    2618:	3ee9                	.2byte	0x3ee9
    261a:	f5ec7f17          	auipc	t5,0xf5ec7
    261e:	3b807f0f          	.4byte	0x3b807f0f
    2622:	bf90                	.2byte	0xbf90
    2624:	3795                	.2byte	0x3795
    2626:	7f22                	.2byte	0x7f22
    2628:	7f3b3817          	auipc	a6,0x7f3b3
    262c:	bcc01917          	auipc	s2,0xbcc01
    2630:	7c8c7c6b          	.4byte	0x7c8c7c6b
    2634:	4be5                	.2byte	0x4be5
    2636:	a9d67f07          	.4byte	0xa9d67f07
    263a:	bda5                	.2byte	0xbda5
    263c:	1b5a                	.2byte	0x1b5a
    263e:	87727d2f          	.4byte	0x87727d2f
    2642:	7e72                	.2byte	0x7e72
    2644:	0d36                	.2byte	0xd36
    2646:	c9b0bfc3          	fmadd.s	ft11,ft1,fs11,fs9,rup
    264a:	7eb8                	.2byte	0x7eb8
    264c:	27cc                	.2byte	0x27cc
    264e:	7f1d                	.2byte	0x7f1d
    2650:	5ba8                	.2byte	0x5ba8
    2652:	bf16                	.2byte	0xbf16
    2654:	9b2c                	.2byte	0x9b2c
    2656:	7eb8                	.2byte	0x7eb8
    2658:	c09c                	.2byte	0xc09c
    265a:	7e81                	.2byte	0x7e81
    265c:	bf6ad52b          	.4byte	0xbf6ad52b
    2660:	0c34                	.2byte	0xc34
    2662:	7e6e                	.2byte	0x7e6e
    2664:	497d                	.2byte	0x497d
    2666:	7b26                	.2byte	0x7b26
    2668:	c3486327          	.4byte	0xc3486327
    266c:	29d2                	.2byte	0x29d2
    266e:	7f02                	.2byte	0x7f02
    2670:	7e67719b          	.4byte	0x7e67719b
    2674:	154c                	.2byte	0x154c
    2676:	c000                	.2byte	0xc000
    2678:	981f 7ee7 cc51      	.byte	0x1f, 0x98, 0xe7, 0x7e, 0x51, 0xcc
    267e:	7ddf e70b bee4      	.byte	0xdf, 0x7d, 0x0b, 0xe7, 0xe4, 0xbe
    2684:	7d481bf3          	csrrw	s7,0x7d4,a6
    2688:	b269                	.2byte	0xb269
    268a:	7e8a                	.2byte	0x7e8a
    268c:	3fb1                	.2byte	0x3fb1
    268e:	e893beeb          	.4byte	0xe893beeb
    2692:	7dfe                	.2byte	0x7dfe
    2694:	9930                	.2byte	0x9930
    2696:	2afd7f2b          	.4byte	0x2afd7f2b
    269a:	7849beab          	.4byte	0x7849beab
    269e:	7e65                	.2byte	0x7e65
    26a0:	9a6e                	.2byte	0x9a6e
    26a2:	7f04                	.2byte	0x7f04
    26a4:	2355                	.2byte	0x2355
    26a6:	9491bfb3          	.4byte	0x9491bfb3
    26aa:	7f39                	.2byte	0x7f39
    26ac:	454a                	.2byte	0x454a
    26ae:	7e1d                	.2byte	0x7e1d
    26b0:	0ace                	.2byte	0xace
    26b2:	aad9c093          	xor	ra,s3,-1363
    26b6:	7f34                	.2byte	0x7f34
    26b8:	0fd2                	.2byte	0xfd2
    26ba:	e6fd7ecf          	.4byte	0xe6fd7ecf
    26be:	bfa0                	.2byte	0xbfa0
    26c0:	24b8                	.2byte	0x24b8
    26c2:	7f02                	.2byte	0x7f02
    26c4:	2fb5                	.2byte	0x2fb5
    26c6:	7e5e                	.2byte	0x7e5e
    26c8:	c054b2a7          	.4byte	0xc054b2a7
    26cc:	9a90                	.2byte	0x9a90
    26ce:	7f38                	.2byte	0x7f38
    26d0:	9ff5                	.2byte	0x9ff5
    26d2:	7f3c                	.2byte	0x7f3c
    26d4:	5528                	.2byte	0x5528
    26d6:	8095bf63          	.4byte	0x8095bf63
    26da:	dccc7f27          	.4byte	0xdccc7f27
    26de:	7e20                	.2byte	0x7e20
    26e0:	ae89                	.2byte	0xae89
    26e2:	7d51bf83          	.4byte	0x7d51bf83
    26e6:	7e25                	.2byte	0x7e25
    26e8:	79de                	.2byte	0x79de
    26ea:	7aae                	.2byte	0x7aae
    26ec:	7c34                	.2byte	0x7c34
    26ee:	c3f5                	.2byte	0xc3f5
    26f0:	4f48                	.2byte	0x4f48
    26f2:	1a0c7f27          	.4byte	0x1a0c7f27
    26f6:	7eed                	.2byte	0x7eed
    26f8:	1f16                	.2byte	0x1f16
    26fa:	be52                	.2byte	0xbe52
    26fc:	9c29                	.2byte	0x9c29
    26fe:	7dc2                	.2byte	0x7dc2
    2700:	0d5e                	.2byte	0xd5e
    2702:	7f19                	.2byte	0x7f19
    2704:	420c                	.2byte	0x420c
    2706:	be32                	.2byte	0xbe32
    2708:	2591                	.2byte	0x2591
    270a:	7dd5                	.2byte	0x7dd5
    270c:	7f1304ef          	jal	s1,336fc <_end+0x309cc>
    2710:	7010                	.2byte	0x7010
    2712:	be55                	.2byte	0xbe55
    2714:	26ed                	.2byte	0x26ed
    2716:	7df5                	.2byte	0x7df5
    2718:	7e56a477          	.4byte	0x7e56a477
    271c:	d69a                	.2byte	0xd69a
    271e:	c051                	.2byte	0xc051
    2720:	f034                	.2byte	0xf034
    2722:	25ab7f2f          	.4byte	0x25ab7f2f
    2726:	7c21                	.2byte	0x7c21
    2728:	c18435fb          	.4byte	0xc18435fb
    272c:	7e2672cf          	.4byte	0x7e2672cf
    2730:	cddd                	.2byte	0xcddd
    2732:	7ed0                	.2byte	0x7ed0
    2734:	1ab8                	.2byte	0x1ab8
    2736:	64b6bf87          	.4byte	0x64b6bf87
    273a:	7edc                	.2byte	0x7edc
    273c:	1f5c                	.2byte	0x1f5c
    273e:	7eb4                	.2byte	0x7eb4
    2740:	91ee                	.2byte	0x91ee
    2742:	bf06                	.2byte	0xbf06
    2744:	5e30                	.2byte	0x5e30
    2746:	7e3d                	.2byte	0x7e3d
    2748:	7f2cf90f          	.4byte	0x7f2cf90f
    274c:	be00acab          	.4byte	0xbe00acab
    2750:	e265                	.2byte	0xe265
    2752:	7dad                	.2byte	0x7dad
    2754:	1fde                	.2byte	0x1fde
    2756:	7f35                	.2byte	0x7f35
    2758:	1cf4                	.2byte	0x1cf4
    275a:	bf30                	.2byte	0xbf30
    275c:	34ca                	.2byte	0x34ca
    275e:	7ef9                	.2byte	0x7ef9
    2760:	7cb23547          	.4byte	0x7cb23547
    2764:	6caa                	.2byte	0x6caa
    2766:	c180                	.2byte	0xc180
    2768:	cc91                	.2byte	0xcc91
    276a:	7eb2                	.2byte	0x7eb2
    276c:	0f7e                	.2byte	0xf7e
    276e:	7f0e                	.2byte	0x7f0e
    2770:	8f25                	.2byte	0x8f25
    2772:	bf9f 161d 7f31      	.byte	0x9f, 0xbf, 0x1d, 0x16, 0x31, 0x7f
    2778:	ad5a                	.2byte	0xad5a
    277a:	7f18                	.2byte	0x7f18
    277c:	bf97b417          	auipc	s0,0xbf97b
    2780:	f350                	.2byte	0xf350
    2782:	7f34                	.2byte	0x7f34
    2784:	31b9                	.2byte	0x31b9
    2786:	6e027eef          	jal	t4,29e66 <_end+0x27136>
    278a:	bf98                	.2byte	0xbf98
    278c:	6c50                	.2byte	0x6c50
    278e:	7f0e                	.2byte	0x7f0e
    2790:	7eb90aa3          	sb	a1,2037(s2) # bcc03e21 <_end+0xbcc010f1>
    2794:	2d10                	.2byte	0x2d10
    2796:	bff2                	.2byte	0xbff2
    2798:	0ca1                	.2byte	0xca1
    279a:	f8857f2f          	.4byte	0xf8857f2f
    279e:	8bdf7f07          	.4byte	0x8bdf7f07
    27a2:	bf64                	.2byte	0xbf64
    27a4:	c742                	.2byte	0xc742
    27a6:	7ef2                	.2byte	0x7ef2
    27a8:	3fb8                	.2byte	0x3fb8
    27aa:	7ea4                	.2byte	0x7ea4
    27ac:	433a                	.2byte	0x433a
    27ae:	bfac                	.2byte	0xbfac
    27b0:	7edd0be3          	beq	s10,a3,37a6 <_end+0xa76>
    27b4:	eb6c                	.2byte	0xeb6c
    27b6:	7c32                	.2byte	0x7c32
    27b8:	d574                	.2byte	0xd574
    27ba:	c255                	.2byte	0xc255
    27bc:	7310                	.2byte	0x7310
    27be:	7f15                	.2byte	0x7f15
    27c0:	f4a6                	.2byte	0xf4a6
    27c2:	7eae                	.2byte	0x7eae
    27c4:	c03c                	.2byte	0xc03c
    27c6:	c000                	.2byte	0xc000
    27c8:	7f2ffb67          	.4byte	0x7f2ffb67
    27cc:	d1b9                	.2byte	0xd1b9
    27ce:	7cdf bbf1 c0dd      	.byte	0xdf, 0x7c, 0xf1, 0xbb, 0xdd, 0xc0
    27d4:	dc5e                	.2byte	0xdc5e
    27d6:	7e41                	.2byte	0x7e41
    27d8:	4e28                	.2byte	0x4e28
    27da:	7eb2                	.2byte	0x7eb2
    27dc:	0cb8                	.2byte	0xcb8
    27de:	a39dbf47          	.4byte	0xa39dbf47
    27e2:	7e8a                	.2byte	0x7e8a

000027e4 <rvtest_data_end>:
	...

000027f0 <data_begin>:
    27f0:	deadbeef          	jal	t4,fffdddda <_end+0xfffdb0aa>
    27f4:	deadbeef          	jal	t4,fffdddde <_end+0xfffdb0ae>
    27f8:	deadbeef          	jal	t4,fffddde2 <_end+0xfffdb0b2>
    27fc:	deadbeef          	jal	t4,fffddde6 <_end+0xfffdb0b6>
    2800:	deadbeef          	jal	t4,fffdddea <_end+0xfffdb0ba>
    2804:	deadbeef          	jal	t4,fffdddee <_end+0xfffdb0be>
    2808:	deadbeef          	jal	t4,fffdddf2 <_end+0xfffdb0c2>
    280c:	deadbeef          	jal	t4,fffdddf6 <_end+0xfffdb0c6>
    2810:	deadbeef          	jal	t4,fffdddfa <_end+0xfffdb0ca>
    2814:	deadbeef          	jal	t4,fffdddfe <_end+0xfffdb0ce>
    2818:	deadbeef          	jal	t4,fffdde02 <_end+0xfffdb0d2>
    281c:	deadbeef          	jal	t4,fffdde06 <_end+0xfffdb0d6>
    2820:	deadbeef          	jal	t4,fffdde0a <_end+0xfffdb0da>
    2824:	deadbeef          	jal	t4,fffdde0e <_end+0xfffdb0de>
    2828:	deadbeef          	jal	t4,fffdde12 <_end+0xfffdb0e2>
    282c:	deadbeef          	jal	t4,fffdde16 <_end+0xfffdb0e6>
    2830:	deadbeef          	jal	t4,fffdde1a <_end+0xfffdb0ea>
    2834:	deadbeef          	jal	t4,fffdde1e <_end+0xfffdb0ee>
    2838:	deadbeef          	jal	t4,fffdde22 <_end+0xfffdb0f2>
    283c:	deadbeef          	jal	t4,fffdde26 <_end+0xfffdb0f6>
    2840:	deadbeef          	jal	t4,fffdde2a <_end+0xfffdb0fa>
    2844:	deadbeef          	jal	t4,fffdde2e <_end+0xfffdb0fe>
    2848:	deadbeef          	jal	t4,fffdde32 <_end+0xfffdb102>
    284c:	deadbeef          	jal	t4,fffdde36 <_end+0xfffdb106>
    2850:	deadbeef          	jal	t4,fffdde3a <_end+0xfffdb10a>
    2854:	deadbeef          	jal	t4,fffdde3e <_end+0xfffdb10e>
    2858:	deadbeef          	jal	t4,fffdde42 <_end+0xfffdb112>
    285c:	deadbeef          	jal	t4,fffdde46 <_end+0xfffdb116>
    2860:	deadbeef          	jal	t4,fffdde4a <_end+0xfffdb11a>
    2864:	deadbeef          	jal	t4,fffdde4e <_end+0xfffdb11e>
    2868:	deadbeef          	jal	t4,fffdde52 <_end+0xfffdb122>
    286c:	deadbeef          	jal	t4,fffdde56 <_end+0xfffdb126>
    2870:	deadbeef          	jal	t4,fffdde5a <_end+0xfffdb12a>
    2874:	deadbeef          	jal	t4,fffdde5e <_end+0xfffdb12e>
    2878:	deadbeef          	jal	t4,fffdde62 <_end+0xfffdb132>
    287c:	deadbeef          	jal	t4,fffdde66 <_end+0xfffdb136>
    2880:	deadbeef          	jal	t4,fffdde6a <_end+0xfffdb13a>
    2884:	deadbeef          	jal	t4,fffdde6e <_end+0xfffdb13e>
    2888:	deadbeef          	jal	t4,fffdde72 <_end+0xfffdb142>
    288c:	deadbeef          	jal	t4,fffdde76 <_end+0xfffdb146>
    2890:	deadbeef          	jal	t4,fffdde7a <_end+0xfffdb14a>
    2894:	deadbeef          	jal	t4,fffdde7e <_end+0xfffdb14e>
    2898:	deadbeef          	jal	t4,fffdde82 <_end+0xfffdb152>
    289c:	deadbeef          	jal	t4,fffdde86 <_end+0xfffdb156>
    28a0:	deadbeef          	jal	t4,fffdde8a <_end+0xfffdb15a>
    28a4:	deadbeef          	jal	t4,fffdde8e <_end+0xfffdb15e>
    28a8:	deadbeef          	jal	t4,fffdde92 <_end+0xfffdb162>
    28ac:	deadbeef          	jal	t4,fffdde96 <_end+0xfffdb166>
    28b0:	deadbeef          	jal	t4,fffdde9a <_end+0xfffdb16a>
    28b4:	deadbeef          	jal	t4,fffdde9e <_end+0xfffdb16e>
    28b8:	deadbeef          	jal	t4,fffddea2 <_end+0xfffdb172>
    28bc:	deadbeef          	jal	t4,fffddea6 <_end+0xfffdb176>
    28c0:	deadbeef          	jal	t4,fffddeaa <_end+0xfffdb17a>
    28c4:	deadbeef          	jal	t4,fffddeae <_end+0xfffdb17e>
    28c8:	deadbeef          	jal	t4,fffddeb2 <_end+0xfffdb182>
    28cc:	deadbeef          	jal	t4,fffddeb6 <_end+0xfffdb186>
    28d0:	deadbeef          	jal	t4,fffddeba <_end+0xfffdb18a>
    28d4:	deadbeef          	jal	t4,fffddebe <_end+0xfffdb18e>
    28d8:	deadbeef          	jal	t4,fffddec2 <_end+0xfffdb192>
    28dc:	deadbeef          	jal	t4,fffddec6 <_end+0xfffdb196>
    28e0:	deadbeef          	jal	t4,fffddeca <_end+0xfffdb19a>
    28e4:	deadbeef          	jal	t4,fffddece <_end+0xfffdb19e>
    28e8:	deadbeef          	jal	t4,fffdded2 <_end+0xfffdb1a2>
    28ec:	deadbeef          	jal	t4,fffdded6 <_end+0xfffdb1a6>
    28f0:	deadbeef          	jal	t4,fffddeda <_end+0xfffdb1aa>
    28f4:	deadbeef          	jal	t4,fffddede <_end+0xfffdb1ae>
    28f8:	deadbeef          	jal	t4,fffddee2 <_end+0xfffdb1b2>
    28fc:	deadbeef          	jal	t4,fffddee6 <_end+0xfffdb1b6>
    2900:	deadbeef          	jal	t4,fffddeea <_end+0xfffdb1ba>
    2904:	deadbeef          	jal	t4,fffddeee <_end+0xfffdb1be>
    2908:	deadbeef          	jal	t4,fffddef2 <_end+0xfffdb1c2>
    290c:	deadbeef          	jal	t4,fffddef6 <_end+0xfffdb1c6>
    2910:	deadbeef          	jal	t4,fffddefa <_end+0xfffdb1ca>
    2914:	deadbeef          	jal	t4,fffddefe <_end+0xfffdb1ce>
    2918:	deadbeef          	jal	t4,fffddf02 <_end+0xfffdb1d2>
    291c:	deadbeef          	jal	t4,fffddf06 <_end+0xfffdb1d6>
    2920:	deadbeef          	jal	t4,fffddf0a <_end+0xfffdb1da>
    2924:	deadbeef          	jal	t4,fffddf0e <_end+0xfffdb1de>
    2928:	deadbeef          	jal	t4,fffddf12 <_end+0xfffdb1e2>
    292c:	deadbeef          	jal	t4,fffddf16 <_end+0xfffdb1e6>
    2930:	deadbeef          	jal	t4,fffddf1a <_end+0xfffdb1ea>
    2934:	deadbeef          	jal	t4,fffddf1e <_end+0xfffdb1ee>
    2938:	deadbeef          	jal	t4,fffddf22 <_end+0xfffdb1f2>
    293c:	deadbeef          	jal	t4,fffddf26 <_end+0xfffdb1f6>
    2940:	deadbeef          	jal	t4,fffddf2a <_end+0xfffdb1fa>
    2944:	deadbeef          	jal	t4,fffddf2e <_end+0xfffdb1fe>
    2948:	deadbeef          	jal	t4,fffddf32 <_end+0xfffdb202>
    294c:	deadbeef          	jal	t4,fffddf36 <_end+0xfffdb206>
    2950:	deadbeef          	jal	t4,fffddf3a <_end+0xfffdb20a>
    2954:	deadbeef          	jal	t4,fffddf3e <_end+0xfffdb20e>
    2958:	deadbeef          	jal	t4,fffddf42 <_end+0xfffdb212>
    295c:	deadbeef          	jal	t4,fffddf46 <_end+0xfffdb216>
    2960:	deadbeef          	jal	t4,fffddf4a <_end+0xfffdb21a>
    2964:	deadbeef          	jal	t4,fffddf4e <_end+0xfffdb21e>
    2968:	deadbeef          	jal	t4,fffddf52 <_end+0xfffdb222>
    296c:	deadbeef          	jal	t4,fffddf56 <_end+0xfffdb226>
    2970:	deadbeef          	jal	t4,fffddf5a <_end+0xfffdb22a>
    2974:	deadbeef          	jal	t4,fffddf5e <_end+0xfffdb22e>
    2978:	deadbeef          	jal	t4,fffddf62 <_end+0xfffdb232>
    297c:	deadbeef          	jal	t4,fffddf66 <_end+0xfffdb236>
    2980:	deadbeef          	jal	t4,fffddf6a <_end+0xfffdb23a>
    2984:	deadbeef          	jal	t4,fffddf6e <_end+0xfffdb23e>
    2988:	deadbeef          	jal	t4,fffddf72 <_end+0xfffdb242>
    298c:	deadbeef          	jal	t4,fffddf76 <_end+0xfffdb246>
    2990:	deadbeef          	jal	t4,fffddf7a <_end+0xfffdb24a>
    2994:	deadbeef          	jal	t4,fffddf7e <_end+0xfffdb24e>
    2998:	deadbeef          	jal	t4,fffddf82 <_end+0xfffdb252>
    299c:	deadbeef          	jal	t4,fffddf86 <_end+0xfffdb256>
    29a0:	deadbeef          	jal	t4,fffddf8a <_end+0xfffdb25a>
    29a4:	deadbeef          	jal	t4,fffddf8e <_end+0xfffdb25e>
    29a8:	deadbeef          	jal	t4,fffddf92 <_end+0xfffdb262>
    29ac:	deadbeef          	jal	t4,fffddf96 <_end+0xfffdb266>
    29b0:	deadbeef          	jal	t4,fffddf9a <_end+0xfffdb26a>
    29b4:	deadbeef          	jal	t4,fffddf9e <_end+0xfffdb26e>
    29b8:	deadbeef          	jal	t4,fffddfa2 <_end+0xfffdb272>
    29bc:	deadbeef          	jal	t4,fffddfa6 <_end+0xfffdb276>
    29c0:	deadbeef          	jal	t4,fffddfaa <_end+0xfffdb27a>
    29c4:	deadbeef          	jal	t4,fffddfae <_end+0xfffdb27e>
    29c8:	deadbeef          	jal	t4,fffddfb2 <_end+0xfffdb282>
    29cc:	deadbeef          	jal	t4,fffddfb6 <_end+0xfffdb286>
    29d0:	deadbeef          	jal	t4,fffddfba <_end+0xfffdb28a>
    29d4:	deadbeef          	jal	t4,fffddfbe <_end+0xfffdb28e>
    29d8:	deadbeef          	jal	t4,fffddfc2 <_end+0xfffdb292>
    29dc:	deadbeef          	jal	t4,fffddfc6 <_end+0xfffdb296>
    29e0:	deadbeef          	jal	t4,fffddfca <_end+0xfffdb29a>
    29e4:	deadbeef          	jal	t4,fffddfce <_end+0xfffdb29e>
    29e8:	deadbeef          	jal	t4,fffddfd2 <_end+0xfffdb2a2>
    29ec:	deadbeef          	jal	t4,fffddfd6 <_end+0xfffdb2a6>
    29f0:	deadbeef          	jal	t4,fffddfda <_end+0xfffdb2aa>
    29f4:	deadbeef          	jal	t4,fffddfde <_end+0xfffdb2ae>
    29f8:	deadbeef          	jal	t4,fffddfe2 <_end+0xfffdb2b2>
    29fc:	deadbeef          	jal	t4,fffddfe6 <_end+0xfffdb2b6>
    2a00:	deadbeef          	jal	t4,fffddfea <_end+0xfffdb2ba>
    2a04:	deadbeef          	jal	t4,fffddfee <_end+0xfffdb2be>
    2a08:	deadbeef          	jal	t4,fffddff2 <_end+0xfffdb2c2>
    2a0c:	deadbeef          	jal	t4,fffddff6 <_end+0xfffdb2c6>
    2a10:	deadbeef          	jal	t4,fffddffa <_end+0xfffdb2ca>
    2a14:	deadbeef          	jal	t4,fffddffe <_end+0xfffdb2ce>
    2a18:	deadbeef          	jal	t4,fffde002 <_end+0xfffdb2d2>
    2a1c:	deadbeef          	jal	t4,fffde006 <_end+0xfffdb2d6>
    2a20:	deadbeef          	jal	t4,fffde00a <_end+0xfffdb2da>
    2a24:	deadbeef          	jal	t4,fffde00e <_end+0xfffdb2de>
    2a28:	deadbeef          	jal	t4,fffde012 <_end+0xfffdb2e2>
    2a2c:	deadbeef          	jal	t4,fffde016 <_end+0xfffdb2e6>
    2a30:	deadbeef          	jal	t4,fffde01a <_end+0xfffdb2ea>
    2a34:	deadbeef          	jal	t4,fffde01e <_end+0xfffdb2ee>
    2a38:	deadbeef          	jal	t4,fffde022 <_end+0xfffdb2f2>
    2a3c:	deadbeef          	jal	t4,fffde026 <_end+0xfffdb2f6>
    2a40:	deadbeef          	jal	t4,fffde02a <_end+0xfffdb2fa>
    2a44:	deadbeef          	jal	t4,fffde02e <_end+0xfffdb2fe>
    2a48:	deadbeef          	jal	t4,fffde032 <_end+0xfffdb302>
    2a4c:	deadbeef          	jal	t4,fffde036 <_end+0xfffdb306>
    2a50:	deadbeef          	jal	t4,fffde03a <_end+0xfffdb30a>
    2a54:	deadbeef          	jal	t4,fffde03e <_end+0xfffdb30e>
    2a58:	deadbeef          	jal	t4,fffde042 <_end+0xfffdb312>
    2a5c:	deadbeef          	jal	t4,fffde046 <_end+0xfffdb316>
    2a60:	deadbeef          	jal	t4,fffde04a <_end+0xfffdb31a>
    2a64:	deadbeef          	jal	t4,fffde04e <_end+0xfffdb31e>
    2a68:	deadbeef          	jal	t4,fffde052 <_end+0xfffdb322>
    2a6c:	deadbeef          	jal	t4,fffde056 <_end+0xfffdb326>
    2a70:	deadbeef          	jal	t4,fffde05a <_end+0xfffdb32a>
    2a74:	deadbeef          	jal	t4,fffde05e <_end+0xfffdb32e>
    2a78:	deadbeef          	jal	t4,fffde062 <_end+0xfffdb332>
    2a7c:	deadbeef          	jal	t4,fffde066 <_end+0xfffdb336>
    2a80:	deadbeef          	jal	t4,fffde06a <_end+0xfffdb33a>
    2a84:	deadbeef          	jal	t4,fffde06e <_end+0xfffdb33e>
    2a88:	deadbeef          	jal	t4,fffde072 <_end+0xfffdb342>
    2a8c:	deadbeef          	jal	t4,fffde076 <_end+0xfffdb346>
    2a90:	deadbeef          	jal	t4,fffde07a <_end+0xfffdb34a>
    2a94:	deadbeef          	jal	t4,fffde07e <_end+0xfffdb34e>
    2a98:	deadbeef          	jal	t4,fffde082 <_end+0xfffdb352>
    2a9c:	deadbeef          	jal	t4,fffde086 <_end+0xfffdb356>
    2aa0:	deadbeef          	jal	t4,fffde08a <_end+0xfffdb35a>
    2aa4:	deadbeef          	jal	t4,fffde08e <_end+0xfffdb35e>
    2aa8:	deadbeef          	jal	t4,fffde092 <_end+0xfffdb362>
    2aac:	deadbeef          	jal	t4,fffde096 <_end+0xfffdb366>
    2ab0:	deadbeef          	jal	t4,fffde09a <_end+0xfffdb36a>
    2ab4:	deadbeef          	jal	t4,fffde09e <_end+0xfffdb36e>
    2ab8:	deadbeef          	jal	t4,fffde0a2 <_end+0xfffdb372>
    2abc:	deadbeef          	jal	t4,fffde0a6 <_end+0xfffdb376>
    2ac0:	deadbeef          	jal	t4,fffde0aa <_end+0xfffdb37a>
    2ac4:	deadbeef          	jal	t4,fffde0ae <_end+0xfffdb37e>
    2ac8:	deadbeef          	jal	t4,fffde0b2 <_end+0xfffdb382>
    2acc:	deadbeef          	jal	t4,fffde0b6 <_end+0xfffdb386>
    2ad0:	deadbeef          	jal	t4,fffde0ba <_end+0xfffdb38a>
    2ad4:	deadbeef          	jal	t4,fffde0be <_end+0xfffdb38e>
    2ad8:	deadbeef          	jal	t4,fffde0c2 <_end+0xfffdb392>
    2adc:	deadbeef          	jal	t4,fffde0c6 <_end+0xfffdb396>
    2ae0:	deadbeef          	jal	t4,fffde0ca <_end+0xfffdb39a>
    2ae4:	deadbeef          	jal	t4,fffde0ce <_end+0xfffdb39e>
    2ae8:	deadbeef          	jal	t4,fffde0d2 <_end+0xfffdb3a2>
    2aec:	deadbeef          	jal	t4,fffde0d6 <_end+0xfffdb3a6>
    2af0:	deadbeef          	jal	t4,fffde0da <_end+0xfffdb3aa>
    2af4:	deadbeef          	jal	t4,fffde0de <_end+0xfffdb3ae>
    2af8:	deadbeef          	jal	t4,fffde0e2 <_end+0xfffdb3b2>
    2afc:	deadbeef          	jal	t4,fffde0e6 <_end+0xfffdb3b6>
    2b00:	deadbeef          	jal	t4,fffde0ea <_end+0xfffdb3ba>
    2b04:	deadbeef          	jal	t4,fffde0ee <_end+0xfffdb3be>
    2b08:	deadbeef          	jal	t4,fffde0f2 <_end+0xfffdb3c2>
    2b0c:	deadbeef          	jal	t4,fffde0f6 <_end+0xfffdb3c6>
    2b10:	deadbeef          	jal	t4,fffde0fa <_end+0xfffdb3ca>
    2b14:	deadbeef          	jal	t4,fffde0fe <_end+0xfffdb3ce>
    2b18:	deadbeef          	jal	t4,fffde102 <_end+0xfffdb3d2>
    2b1c:	deadbeef          	jal	t4,fffde106 <_end+0xfffdb3d6>
    2b20:	deadbeef          	jal	t4,fffde10a <_end+0xfffdb3da>
    2b24:	deadbeef          	jal	t4,fffde10e <_end+0xfffdb3de>
    2b28:	deadbeef          	jal	t4,fffde112 <_end+0xfffdb3e2>
    2b2c:	deadbeef          	jal	t4,fffde116 <_end+0xfffdb3e6>
    2b30:	deadbeef          	jal	t4,fffde11a <_end+0xfffdb3ea>
    2b34:	deadbeef          	jal	t4,fffde11e <_end+0xfffdb3ee>
    2b38:	deadbeef          	jal	t4,fffde122 <_end+0xfffdb3f2>
    2b3c:	deadbeef          	jal	t4,fffde126 <_end+0xfffdb3f6>
    2b40:	deadbeef          	jal	t4,fffde12a <_end+0xfffdb3fa>
    2b44:	deadbeef          	jal	t4,fffde12e <_end+0xfffdb3fe>
    2b48:	deadbeef          	jal	t4,fffde132 <_end+0xfffdb402>
    2b4c:	deadbeef          	jal	t4,fffde136 <_end+0xfffdb406>
    2b50:	deadbeef          	jal	t4,fffde13a <_end+0xfffdb40a>
    2b54:	deadbeef          	jal	t4,fffde13e <_end+0xfffdb40e>
    2b58:	deadbeef          	jal	t4,fffde142 <_end+0xfffdb412>
    2b5c:	deadbeef          	jal	t4,fffde146 <_end+0xfffdb416>
    2b60:	deadbeef          	jal	t4,fffde14a <_end+0xfffdb41a>
    2b64:	deadbeef          	jal	t4,fffde14e <_end+0xfffdb41e>
    2b68:	deadbeef          	jal	t4,fffde152 <_end+0xfffdb422>
    2b6c:	deadbeef          	jal	t4,fffde156 <_end+0xfffdb426>
    2b70:	deadbeef          	jal	t4,fffde15a <_end+0xfffdb42a>
    2b74:	deadbeef          	jal	t4,fffde15e <_end+0xfffdb42e>
    2b78:	deadbeef          	jal	t4,fffde162 <_end+0xfffdb432>
    2b7c:	deadbeef          	jal	t4,fffde166 <_end+0xfffdb436>
    2b80:	deadbeef          	jal	t4,fffde16a <_end+0xfffdb43a>
    2b84:	deadbeef          	jal	t4,fffde16e <_end+0xfffdb43e>
    2b88:	deadbeef          	jal	t4,fffde172 <_end+0xfffdb442>
    2b8c:	deadbeef          	jal	t4,fffde176 <_end+0xfffdb446>
    2b90:	deadbeef          	jal	t4,fffde17a <_end+0xfffdb44a>
    2b94:	deadbeef          	jal	t4,fffde17e <_end+0xfffdb44e>
    2b98:	deadbeef          	jal	t4,fffde182 <_end+0xfffdb452>
    2b9c:	deadbeef          	jal	t4,fffde186 <_end+0xfffdb456>
    2ba0:	deadbeef          	jal	t4,fffde18a <_end+0xfffdb45a>
    2ba4:	deadbeef          	jal	t4,fffde18e <_end+0xfffdb45e>
    2ba8:	deadbeef          	jal	t4,fffde192 <_end+0xfffdb462>
    2bac:	deadbeef          	jal	t4,fffde196 <_end+0xfffdb466>
    2bb0:	deadbeef          	jal	t4,fffde19a <_end+0xfffdb46a>
    2bb4:	deadbeef          	jal	t4,fffde19e <_end+0xfffdb46e>
    2bb8:	deadbeef          	jal	t4,fffde1a2 <_end+0xfffdb472>
    2bbc:	deadbeef          	jal	t4,fffde1a6 <_end+0xfffdb476>
    2bc0:	deadbeef          	jal	t4,fffde1aa <_end+0xfffdb47a>
    2bc4:	deadbeef          	jal	t4,fffde1ae <_end+0xfffdb47e>
    2bc8:	deadbeef          	jal	t4,fffde1b2 <_end+0xfffdb482>
    2bcc:	deadbeef          	jal	t4,fffde1b6 <_end+0xfffdb486>
    2bd0:	deadbeef          	jal	t4,fffde1ba <_end+0xfffdb48a>
    2bd4:	deadbeef          	jal	t4,fffde1be <_end+0xfffdb48e>
    2bd8:	deadbeef          	jal	t4,fffde1c2 <_end+0xfffdb492>
    2bdc:	deadbeef          	jal	t4,fffde1c6 <_end+0xfffdb496>
    2be0:	deadbeef          	jal	t4,fffde1ca <_end+0xfffdb49a>
    2be4:	deadbeef          	jal	t4,fffde1ce <_end+0xfffdb49e>
    2be8:	deadbeef          	jal	t4,fffde1d2 <_end+0xfffdb4a2>
    2bec:	deadbeef          	jal	t4,fffde1d6 <_end+0xfffdb4a6>
    2bf0:	deadbeef          	jal	t4,fffde1da <_end+0xfffdb4aa>
    2bf4:	deadbeef          	jal	t4,fffde1de <_end+0xfffdb4ae>
    2bf8:	deadbeef          	jal	t4,fffde1e2 <_end+0xfffdb4b2>
    2bfc:	deadbeef          	jal	t4,fffde1e6 <_end+0xfffdb4b6>
    2c00:	deadbeef          	jal	t4,fffde1ea <_end+0xfffdb4ba>
    2c04:	deadbeef          	jal	t4,fffde1ee <_end+0xfffdb4be>
    2c08:	deadbeef          	jal	t4,fffde1f2 <_end+0xfffdb4c2>
    2c0c:	deadbeef          	jal	t4,fffde1f6 <_end+0xfffdb4c6>
    2c10:	deadbeef          	jal	t4,fffde1fa <_end+0xfffdb4ca>
    2c14:	deadbeef          	jal	t4,fffde1fe <_end+0xfffdb4ce>
    2c18:	deadbeef          	jal	t4,fffde202 <_end+0xfffdb4d2>
    2c1c:	deadbeef          	jal	t4,fffde206 <_end+0xfffdb4d6>
    2c20:	deadbeef          	jal	t4,fffde20a <_end+0xfffdb4da>
    2c24:	deadbeef          	jal	t4,fffde20e <_end+0xfffdb4de>
    2c28:	deadbeef          	jal	t4,fffde212 <_end+0xfffdb4e2>
    2c2c:	deadbeef          	jal	t4,fffde216 <_end+0xfffdb4e6>
    2c30:	deadbeef          	jal	t4,fffde21a <_end+0xfffdb4ea>
    2c34:	deadbeef          	jal	t4,fffde21e <_end+0xfffdb4ee>
    2c38:	deadbeef          	jal	t4,fffde222 <_end+0xfffdb4f2>
    2c3c:	deadbeef          	jal	t4,fffde226 <_end+0xfffdb4f6>
    2c40:	deadbeef          	jal	t4,fffde22a <_end+0xfffdb4fa>
    2c44:	deadbeef          	jal	t4,fffde22e <_end+0xfffdb4fe>
    2c48:	deadbeef          	jal	t4,fffde232 <_end+0xfffdb502>
    2c4c:	deadbeef          	jal	t4,fffde236 <_end+0xfffdb506>
    2c50:	deadbeef          	jal	t4,fffde23a <_end+0xfffdb50a>
    2c54:	deadbeef          	jal	t4,fffde23e <_end+0xfffdb50e>
    2c58:	deadbeef          	jal	t4,fffde242 <_end+0xfffdb512>
    2c5c:	deadbeef          	jal	t4,fffde246 <_end+0xfffdb516>
    2c60:	deadbeef          	jal	t4,fffde24a <_end+0xfffdb51a>
    2c64:	deadbeef          	jal	t4,fffde24e <_end+0xfffdb51e>
    2c68:	deadbeef          	jal	t4,fffde252 <_end+0xfffdb522>
    2c6c:	deadbeef          	jal	t4,fffde256 <_end+0xfffdb526>
    2c70:	deadbeef          	jal	t4,fffde25a <_end+0xfffdb52a>
    2c74:	deadbeef          	jal	t4,fffde25e <_end+0xfffdb52e>
    2c78:	deadbeef          	jal	t4,fffde262 <_end+0xfffdb532>
    2c7c:	deadbeef          	jal	t4,fffde266 <_end+0xfffdb536>
    2c80:	deadbeef          	jal	t4,fffde26a <_end+0xfffdb53a>
    2c84:	deadbeef          	jal	t4,fffde26e <_end+0xfffdb53e>
    2c88:	deadbeef          	jal	t4,fffde272 <_end+0xfffdb542>
    2c8c:	deadbeef          	jal	t4,fffde276 <_end+0xfffdb546>
    2c90:	deadbeef          	jal	t4,fffde27a <_end+0xfffdb54a>
    2c94:	deadbeef          	jal	t4,fffde27e <_end+0xfffdb54e>
    2c98:	deadbeef          	jal	t4,fffde282 <_end+0xfffdb552>
    2c9c:	deadbeef          	jal	t4,fffde286 <_end+0xfffdb556>
    2ca0:	deadbeef          	jal	t4,fffde28a <_end+0xfffdb55a>
    2ca4:	deadbeef          	jal	t4,fffde28e <_end+0xfffdb55e>
    2ca8:	deadbeef          	jal	t4,fffde292 <_end+0xfffdb562>
    2cac:	deadbeef          	jal	t4,fffde296 <_end+0xfffdb566>
    2cb0:	deadbeef          	jal	t4,fffde29a <_end+0xfffdb56a>
    2cb4:	deadbeef          	jal	t4,fffde29e <_end+0xfffdb56e>
    2cb8:	deadbeef          	jal	t4,fffde2a2 <_end+0xfffdb572>
    2cbc:	deadbeef          	jal	t4,fffde2a6 <_end+0xfffdb576>
    2cc0:	deadbeef          	jal	t4,fffde2aa <_end+0xfffdb57a>
    2cc4:	deadbeef          	jal	t4,fffde2ae <_end+0xfffdb57e>
    2cc8:	deadbeef          	jal	t4,fffde2b2 <_end+0xfffdb582>
    2ccc:	deadbeef          	jal	t4,fffde2b6 <_end+0xfffdb586>
    2cd0:	deadbeef          	jal	t4,fffde2ba <_end+0xfffdb58a>
    2cd4:	deadbeef          	jal	t4,fffde2be <_end+0xfffdb58e>
    2cd8:	deadbeef          	jal	t4,fffde2c2 <_end+0xfffdb592>
    2cdc:	deadbeef          	jal	t4,fffde2c6 <_end+0xfffdb596>
    2ce0:	deadbeef          	jal	t4,fffde2ca <_end+0xfffdb59a>
    2ce4:	deadbeef          	jal	t4,fffde2ce <_end+0xfffdb59e>
    2ce8:	deadbeef          	jal	t4,fffde2d2 <_end+0xfffdb5a2>
    2cec:	deadbeef          	jal	t4,fffde2d6 <_end+0xfffdb5a6>
    2cf0:	deadbeef          	jal	t4,fffde2da <_end+0xfffdb5aa>
    2cf4:	deadbeef          	jal	t4,fffde2de <_end+0xfffdb5ae>
    2cf8:	deadbeef          	jal	t4,fffde2e2 <_end+0xfffdb5b2>
    2cfc:	deadbeef          	jal	t4,fffde2e6 <_end+0xfffdb5b6>
    2d00:	deadbeef          	jal	t4,fffde2ea <_end+0xfffdb5ba>
    2d04:	deadbeef          	jal	t4,fffde2ee <_end+0xfffdb5be>
    2d08:	deadbeef          	jal	t4,fffde2f2 <_end+0xfffdb5c2>
    2d0c:	deadbeef          	jal	t4,fffde2f6 <_end+0xfffdb5c6>
    2d10:	deadbeef          	jal	t4,fffde2fa <_end+0xfffdb5ca>
    2d14:	deadbeef          	jal	t4,fffde2fe <_end+0xfffdb5ce>
    2d18:	deadbeef          	jal	t4,fffde302 <_end+0xfffdb5d2>
    2d1c:	deadbeef          	jal	t4,fffde306 <_end+0xfffdb5d6>
    2d20:	deadbeef          	jal	t4,fffde30a <_end+0xfffdb5da>
    2d24:	deadbeef          	jal	t4,fffde30e <_end+0xfffdb5de>
    2d28:	deadbeef          	jal	t4,fffde312 <_end+0xfffdb5e2>
    2d2c:	deadbeef          	jal	t4,fffde316 <_end+0xfffdb5e6>

Desensamblado de la sección .riscv.attributes:

00000000 <.riscv.attributes>:
   0:	2241                	.2byte	0x2241
   2:	0000                	.2byte	0x0
   4:	7200                	.2byte	0x7200
   6:	7369                	.2byte	0x7369
   8:	01007663          	bgeu	zero,a6,14 <rvtest_entry_point+0x14>
   c:	0018                	.2byte	0x18
   e:	0000                	.2byte	0x0
  10:	7205                	.2byte	0x7205
  12:	3376                	.2byte	0x3376
  14:	6932                	.2byte	0x6932
  16:	7032                	.2byte	0x7032
  18:	5f30                	.2byte	0x5f30
  1a:	3266                	.2byte	0x3266
  1c:	3070                	.2byte	0x3070
  1e:	0800                	.2byte	0x800
  20:	0a01                	.2byte	0xa01
  22:	0b              	Address 0x22 is out of bounds.

