
/home/alejandro/Escritorio/test_riscv2.5/riscv-compliance/work/rv32i_m/F/fmsub_b16-01.elf:     formato del fichero elf32-littleriscv


Desensamblado de la sección .text.init:

00000000 <rvtest_entry_point>:
       0:	feedc0b7          	lui	ra,0xfeedc
       4:	ead08093          	add	ra,ra,-339 # feedbead <_end+0xfeed8e5d>
       8:	ff76e137          	lui	sp,0xff76e
       c:	f5610113          	add	sp,sp,-170 # ff76df56 <_end+0xff76af06>
      10:	7fbb71b7          	lui	gp,0x7fbb7
      14:	fab18193          	add	gp,gp,-85 # 7fbb6fab <_end+0x7fbb3f5b>
      18:	bfddb237          	lui	tp,0xbfddb
      1c:	7d520213          	add	tp,tp,2005 # bfddb7d5 <_end+0xbfdd8785>
      20:	00000297          	auipc	t0,0x0
      24:	0d828293          	add	t0,t0,216 # f8 <rvtest_code_begin>
      28:	00002317          	auipc	t1,0x2
      2c:	fd830313          	add	t1,t1,-40 # 2000 <rvtest_data_begin>
      30:	b7fbb3b7          	lui	t2,0xb7fbb
      34:	6fa38393          	add	t2,t2,1786 # b7fbb6fa <_end+0xb7fb86aa>
      38:	5bfde437          	lui	s0,0x5bfde
      3c:	b7d40413          	add	s0,s0,-1155 # 5bfddb7d <_end+0x5bfdab2d>
      40:	adfef4b7          	lui	s1,0xadfef
      44:	dbe48493          	add	s1,s1,-578 # adfeedbe <_end+0xadfebd6e>
      48:	56ff7537          	lui	a0,0x56ff7
      4c:	6df50513          	add	a0,a0,1759 # 56ff76df <_end+0x56ff468f>
      50:	ab7fc5b7          	lui	a1,0xab7fc
      54:	b6f58593          	add	a1,a1,-1169 # ab7fbb6f <_end+0xab7f8b1f>
      58:	d5bfe637          	lui	a2,0xd5bfe
      5c:	db760613          	add	a2,a2,-585 # d5bfddb7 <_end+0xd5bfad67>
      60:	eadff6b7          	lui	a3,0xeadff
      64:	edb68693          	add	a3,a3,-293 # eadfeedb <_end+0xeadfbe8b>
      68:	f56ff737          	lui	a4,0xf56ff
      6c:	76d70713          	add	a4,a4,1901 # f56ff76d <_end+0xf56fc71d>
      70:	fab807b7          	lui	a5,0xfab80
      74:	bb678793          	add	a5,a5,-1098 # fab7fbb6 <_end+0xfab7cb66>
      78:	7d5c0837          	lui	a6,0x7d5c0
      7c:	ddb80813          	add	a6,a6,-549 # 7d5bfddb <_end+0x7d5bcd8b>
      80:	beae08b7          	lui	a7,0xbeae0
      84:	eed88893          	add	a7,a7,-275 # beadfeed <_end+0xbeadce9d>
      88:	df570937          	lui	s2,0xdf570
      8c:	f7690913          	add	s2,s2,-138 # df56ff76 <_end+0xdf56cf26>
      90:	6fab89b7          	lui	s3,0x6fab8
      94:	fbb98993          	add	s3,s3,-69 # 6fab7fbb <_end+0x6fab4f6b>
      98:	b7d5ca37          	lui	s4,0xb7d5c
      9c:	fdda0a13          	add	s4,s4,-35 # b7d5bfdd <_end+0xb7d58f8d>
      a0:	dbeaeab7          	lui	s5,0xdbeae
      a4:	feea8a93          	add	s5,s5,-18 # dbeadfee <_end+0xdbeaaf9e>
      a8:	6df57b37          	lui	s6,0x6df57
      ac:	ff7b0b13          	add	s6,s6,-9 # 6df56ff7 <_end+0x6df53fa7>
      b0:	b6fabbb7          	lui	s7,0xb6fab
      b4:	7fbb8b93          	add	s7,s7,2043 # b6fab7fb <_end+0xb6fa87ab>
      b8:	db7d6c37          	lui	s8,0xdb7d6
      bc:	bfdc0c13          	add	s8,s8,-1027 # db7d5bfd <_end+0xdb7d2bad>
      c0:	edbebcb7          	lui	s9,0xedbeb
      c4:	dfec8c93          	add	s9,s9,-514 # edbeadfe <_end+0xedbe7dae>
      c8:	76df5d37          	lui	s10,0x76df5
      cc:	6ffd0d13          	add	s10,s10,1791 # 76df56ff <_end+0x76df26af>
      d0:	bb6fbdb7          	lui	s11,0xbb6fb
      d4:	b7fd8d93          	add	s11,s11,-1153 # bb6fab7f <_end+0xbb6f7b2f>
      d8:	ddb7de37          	lui	t3,0xddb7d
      dc:	5bfe0e13          	add	t3,t3,1471 # ddb7d5bf <_end+0xddb7a56f>
      e0:	eedbfeb7          	lui	t4,0xeedbf
      e4:	adfe8e93          	add	t4,t4,-1313 # eedbeadf <_end+0xeedbba8f>
      e8:	f76dff37          	lui	t5,0xf76df
      ec:	56ff0f13          	add	t5,t5,1391 # f76df56f <_end+0xf76dc51f>
      f0:	fbb70fb7          	lui	t6,0xfbb70
      f4:	ab7f8f93          	add	t6,t6,-1353 # fbb6fab7 <_end+0xfbb6ca67>

000000f8 <rvtest_code_begin>:
      f8:	00002537          	lui	a0,0x2
      fc:	30052073          	csrs	mstatus,a0
     100:	00002817          	auipc	a6,0x2
     104:	f0480813          	add	a6,a6,-252 # 2004 <test_fp>
     108:	00003797          	auipc	a5,0x3
     10c:	8c878793          	add	a5,a5,-1848 # 29d0 <data_begin>

00000110 <inst_0>:
     110:	00082e87          	flw	ft9,0(a6)
     114:	00482e87          	flw	ft9,4(a6)
     118:	00882e87          	flw	ft9,8(a6)
     11c:	00205073          	fsrmi	zero,0
     120:	e9def447          	fmsub.s	fs0,ft9,ft9,ft9
     124:	001028f3          	frflags	a7
     128:	0087a027          	fsw	fs0,0(a5)
     12c:	0117a223          	sw	a7,4(a5)

00000130 <inst_1>:
     130:	00c82107          	flw	ft2,12(a6)
     134:	01082a87          	flw	fs5,16(a6)
     138:	01482107          	flw	ft2,20(a6)
     13c:	00205073          	fsrmi	zero,0
     140:	11517147          	fmsub.s	ft2,ft2,fs5,ft2
     144:	001028f3          	frflags	a7
     148:	0027a427          	fsw	ft2,8(a5)
     14c:	0117a623          	sw	a7,12(a5)

00000150 <inst_2>:
     150:	01882f07          	flw	ft10,24(a6)
     154:	01c82487          	flw	fs1,28(a6)
     158:	02082f07          	flw	ft10,32(a6)
     15c:	00205073          	fsrmi	zero,0
     160:	f09f7a47          	fmsub.s	fs4,ft10,fs1,ft10
     164:	001028f3          	frflags	a7
     168:	0147a827          	fsw	fs4,16(a5)
     16c:	0117aa23          	sw	a7,20(a5)

00000170 <inst_3>:
     170:	02482387          	flw	ft7,36(a6)
     174:	02882687          	flw	fa3,40(a6)
     178:	02c82d07          	flw	fs10,44(a6)
     17c:	00205073          	fsrmi	zero,0
     180:	d0d3f6c7          	fmsub.s	fa3,ft7,fa3,fs10
     184:	001028f3          	frflags	a7
     188:	00d7ac27          	fsw	fa3,24(a5)
     18c:	0117ae23          	sw	a7,28(a5)

00000190 <inst_4>:
     190:	03082807          	flw	fa6,48(a6)
     194:	03482b87          	flw	fs7,52(a6)
     198:	03882b87          	flw	fs7,56(a6)
     19c:	00205073          	fsrmi	zero,0
     1a0:	b97870c7          	fmsub.s	ft1,fa6,fs7,fs7
     1a4:	001028f3          	frflags	a7
     1a8:	0217a027          	fsw	ft1,32(a5)
     1ac:	0317a223          	sw	a7,36(a5)

000001b0 <inst_5>:
     1b0:	03c82b07          	flw	fs6,60(a6)
     1b4:	04082307          	flw	ft6,64(a6)
     1b8:	04482307          	flw	ft6,68(a6)
     1bc:	00205073          	fsrmi	zero,0
     1c0:	306b7347          	fmsub.s	ft6,fs6,ft6,ft6
     1c4:	001028f3          	frflags	a7
     1c8:	0267a427          	fsw	ft6,40(a5)
     1cc:	0317a623          	sw	a7,44(a5)

000001d0 <inst_6>:
     1d0:	04882d87          	flw	fs11,72(a6)
     1d4:	04c82d87          	flw	fs11,76(a6)
     1d8:	05082887          	flw	fa7,80(a6)
     1dc:	00205073          	fsrmi	zero,0
     1e0:	89bdf2c7          	fmsub.s	ft5,fs11,fs11,fa7
     1e4:	001028f3          	frflags	a7
     1e8:	0257a827          	fsw	ft5,48(a5)
     1ec:	0317aa23          	sw	a7,52(a5)

000001f0 <inst_7>:
     1f0:	05482007          	flw	ft0,84(a6)
     1f4:	05882007          	flw	ft0,88(a6)
     1f8:	05c82b07          	flw	fs6,92(a6)
     1fc:	00205073          	fsrmi	zero,0
     200:	b0007047          	fmsub.s	ft0,ft0,ft0,fs6
     204:	001028f3          	frflags	a7
     208:	0207ac27          	fsw	ft0,56(a5)
     20c:	0317ae23          	sw	a7,60(a5)

00000210 <inst_8>:
     210:	06082707          	flw	fa4,96(a6)
     214:	06482707          	flw	fa4,100(a6)
     218:	06882707          	flw	fa4,104(a6)
     21c:	00205073          	fsrmi	zero,0
     220:	70e77747          	fmsub.s	fa4,fa4,fa4,fa4
     224:	001028f3          	frflags	a7
     228:	04e7a027          	fsw	fa4,64(a5)
     22c:	0517a223          	sw	a7,68(a5)

00000230 <inst_9>:
     230:	06c82507          	flw	fa0,108(a6)
     234:	07082c07          	flw	fs8,112(a6)
     238:	07482487          	flw	fs1,116(a6)
     23c:	00205073          	fsrmi	zero,0
     240:	498574c7          	fmsub.s	fs1,fa0,fs8,fs1
     244:	001028f3          	frflags	a7
     248:	0497a427          	fsw	fs1,72(a5)
     24c:	0517a623          	sw	a7,76(a5)

00000250 <inst_10>:
     250:	07882987          	flw	fs3,120(a6)
     254:	07c82587          	flw	fa1,124(a6)
     258:	08082087          	flw	ft1,128(a6)
     25c:	00205073          	fsrmi	zero,0
     260:	08b9fbc7          	fmsub.s	fs7,fs3,fa1,ft1
     264:	001028f3          	frflags	a7
     268:	0577a827          	fsw	fs7,80(a5)
     26c:	0517aa23          	sw	a7,84(a5)

00000270 <inst_11>:
     270:	08482207          	flw	ft4,132(a6)
     274:	08882087          	flw	ft1,136(a6)
     278:	08c82687          	flw	fa3,140(a6)
     27c:	00205073          	fsrmi	zero,0
     280:	68127247          	fmsub.s	ft4,ft4,ft1,fa3
     284:	001028f3          	frflags	a7
     288:	0447ac27          	fsw	ft4,88(a5)
     28c:	0517ae23          	sw	a7,92(a5)

00000290 <inst_12>:
     290:	09082787          	flw	fa5,144(a6)
     294:	09482f07          	flw	ft10,148(a6)
     298:	09882807          	flw	fa6,152(a6)
     29c:	00205073          	fsrmi	zero,0
     2a0:	81e7f547          	fmsub.s	fa0,fa5,ft10,fa6
     2a4:	001028f3          	frflags	a7
     2a8:	06a7a027          	fsw	fa0,96(a5)
     2ac:	0717a223          	sw	a7,100(a5)

000002b0 <inst_13>:
     2b0:	09c82407          	flw	fs0,156(a6)
     2b4:	0a082187          	flw	ft3,160(a6)
     2b8:	0a482787          	flw	fa5,164(a6)
     2bc:	00205073          	fsrmi	zero,0
     2c0:	78347647          	fmsub.s	fa2,fs0,ft3,fa5
     2c4:	001028f3          	frflags	a7
     2c8:	06c7a427          	fsw	fa2,104(a5)
     2cc:	0717a623          	sw	a7,108(a5)

000002d0 <inst_14>:
     2d0:	0a882687          	flw	fa3,168(a6)
     2d4:	0ac82807          	flw	fa6,172(a6)
     2d8:	0b082387          	flw	ft7,176(a6)
     2dc:	00205073          	fsrmi	zero,0
     2e0:	3906fcc7          	fmsub.s	fs9,fa3,fa6,ft7
     2e4:	001028f3          	frflags	a7
     2e8:	0797a827          	fsw	fs9,112(a5)
     2ec:	0717aa23          	sw	a7,116(a5)

000002f0 <inst_15>:
     2f0:	0b482d07          	flw	fs10,180(a6)
     2f4:	0b882907          	flw	fs2,184(a6)
     2f8:	0bc82a07          	flw	fs4,188(a6)
     2fc:	00205073          	fsrmi	zero,0
     300:	a12d7ac7          	fmsub.s	fs5,fs10,fs2,fs4
     304:	001028f3          	frflags	a7
     308:	0757ac27          	fsw	fs5,120(a5)
     30c:	0717ae23          	sw	a7,124(a5)

00000310 <inst_16>:
     310:	0c082907          	flw	fs2,192(a6)
     314:	0c482d07          	flw	fs10,196(a6)
     318:	0c882187          	flw	ft3,200(a6)
     31c:	00205073          	fsrmi	zero,0
     320:	19a973c7          	fmsub.s	ft7,fs2,fs10,ft3
     324:	001028f3          	frflags	a7
     328:	0877a027          	fsw	ft7,128(a5)
     32c:	0917a223          	sw	a7,132(a5)

00000330 <inst_17>:
     330:	0cc82307          	flw	ft6,204(a6)
     334:	0d082387          	flw	ft7,208(a6)
     338:	0d482d87          	flw	fs11,212(a6)
     33c:	00205073          	fsrmi	zero,0
     340:	d87379c7          	fmsub.s	fs3,ft6,ft7,fs11
     344:	001028f3          	frflags	a7
     348:	0937a427          	fsw	fs3,136(a5)
     34c:	0917a623          	sw	a7,140(a5)

00000350 <inst_18>:
     350:	0d882887          	flw	fa7,216(a6)
     354:	0dc82787          	flw	fa5,220(a6)
     358:	0e082e07          	flw	ft8,224(a6)
     35c:	00205073          	fsrmi	zero,0
     360:	e0f8f947          	fmsub.s	fs2,fa7,fa5,ft8
     364:	001028f3          	frflags	a7
     368:	0927a827          	fsw	fs2,144(a5)
     36c:	0917aa23          	sw	a7,148(a5)

00000370 <inst_19>:
     370:	0e482c07          	flw	fs8,228(a6)
     374:	0e882407          	flw	fs0,232(a6)
     378:	0ec82507          	flw	fa0,236(a6)
     37c:	00205073          	fsrmi	zero,0
     380:	508c7fc7          	fmsub.s	ft11,fs8,fs0,fa0
     384:	001028f3          	frflags	a7
     388:	09f7ac27          	fsw	ft11,152(a5)
     38c:	0917ae23          	sw	a7,156(a5)

00000390 <inst_20>:
     390:	0f082e07          	flw	ft8,240(a6)
     394:	0f482207          	flw	ft4,244(a6)
     398:	0f882587          	flw	fa1,248(a6)
     39c:	00205073          	fsrmi	zero,0
     3a0:	584e7847          	fmsub.s	fa6,ft8,ft4,fa1
     3a4:	001028f3          	frflags	a7
     3a8:	0b07a027          	fsw	fa6,160(a5)
     3ac:	0b17a223          	sw	a7,164(a5)

000003b0 <inst_21>:
     3b0:	0fc82b87          	flw	fs7,252(a6)
     3b4:	10082607          	flw	fa2,256(a6)
     3b8:	10482f87          	flw	ft11,260(a6)
     3bc:	00205073          	fsrmi	zero,0
     3c0:	f8cbfdc7          	fmsub.s	fs11,fs7,fa2,ft11
     3c4:	001028f3          	frflags	a7
     3c8:	0bb7a427          	fsw	fs11,168(a5)
     3cc:	0b17a623          	sw	a7,172(a5)

000003d0 <inst_22>:
     3d0:	10882607          	flw	fa2,264(a6)
     3d4:	10c82f87          	flw	ft11,268(a6)
     3d8:	11082c87          	flw	fs9,272(a6)
     3dc:	00205073          	fsrmi	zero,0
     3e0:	c9f675c7          	fmsub.s	fa1,fa2,ft11,fs9
     3e4:	001028f3          	frflags	a7
     3e8:	0ab7a827          	fsw	fa1,176(a5)
     3ec:	0b17aa23          	sw	a7,180(a5)

000003f0 <inst_23>:
     3f0:	11482087          	flw	ft1,276(a6)
     3f4:	11882b07          	flw	fs6,280(a6)
     3f8:	11c82607          	flw	fa2,284(a6)
     3fc:	00205073          	fsrmi	zero,0
     400:	6160fd47          	fmsub.s	fs10,ft1,fs6,fa2
     404:	001028f3          	frflags	a7
     408:	0ba7ac27          	fsw	fs10,184(a5)
     40c:	0b17ae23          	sw	a7,188(a5)

00000410 <inst_24>:
     410:	12082287          	flw	ft5,288(a6)
     414:	12482507          	flw	fa0,292(a6)
     418:	12882a87          	flw	fs5,296(a6)
     41c:	00205073          	fsrmi	zero,0
     420:	a8a2ff47          	fmsub.s	ft10,ft5,fa0,fs5
     424:	001028f3          	frflags	a7
     428:	0de7a027          	fsw	ft10,192(a5)
     42c:	0d17a223          	sw	a7,196(a5)

00000430 <inst_25>:
     430:	12c82587          	flw	fa1,300(a6)
     434:	13082987          	flw	fs3,304(a6)
     438:	13482007          	flw	ft0,308(a6)
     43c:	00205073          	fsrmi	zero,0
     440:	0135f1c7          	fmsub.s	ft3,fa1,fs3,ft0
     444:	001028f3          	frflags	a7
     448:	0c37a427          	fsw	ft3,200(a5)
     44c:	0d17a623          	sw	a7,204(a5)

00000450 <inst_26>:
     450:	13882a87          	flw	fs5,312(a6)
     454:	13c82a07          	flw	fs4,316(a6)
     458:	14082287          	flw	ft5,320(a6)
     45c:	00205073          	fsrmi	zero,0
     460:	294af7c7          	fmsub.s	fa5,fs5,fs4,ft5
     464:	001028f3          	frflags	a7
     468:	0cf7a827          	fsw	fa5,208(a5)
     46c:	0d17aa23          	sw	a7,212(a5)

00000470 <inst_27>:
     470:	14482487          	flw	fs1,324(a6)
     474:	14882887          	flw	fa7,328(a6)
     478:	14c82407          	flw	fs0,332(a6)
     47c:	00205073          	fsrmi	zero,0
     480:	4114fc47          	fmsub.s	fs8,fs1,fa7,fs0
     484:	001028f3          	frflags	a7
     488:	0d87ac27          	fsw	fs8,216(a5)
     48c:	0d17ae23          	sw	a7,220(a5)

00000490 <inst_28>:
     490:	15082c87          	flw	fs9,336(a6)
     494:	15482107          	flw	ft2,340(a6)
     498:	15882207          	flw	ft4,344(a6)
     49c:	00205073          	fsrmi	zero,0
     4a0:	202cfe47          	fmsub.s	ft8,fs9,ft2,ft4
     4a4:	001028f3          	frflags	a7
     4a8:	0fc7a027          	fsw	ft8,224(a5)
     4ac:	0f17a223          	sw	a7,228(a5)

000004b0 <inst_29>:
     4b0:	15c82187          	flw	ft3,348(a6)
     4b4:	16082287          	flw	ft5,352(a6)
     4b8:	16482907          	flw	fs2,356(a6)
     4bc:	00205073          	fsrmi	zero,0
     4c0:	9051fb47          	fmsub.s	fs6,ft3,ft5,fs2
     4c4:	001028f3          	frflags	a7
     4c8:	0f67a427          	fsw	fs6,232(a5)
     4cc:	0f17a623          	sw	a7,236(a5)

000004d0 <inst_30>:
     4d0:	16882f87          	flw	ft11,360(a6)
     4d4:	16c82c87          	flw	fs9,364(a6)
     4d8:	17082987          	flw	fs3,368(a6)
     4dc:	00205073          	fsrmi	zero,0
     4e0:	999ff8c7          	fmsub.s	fa7,ft11,fs9,fs3
     4e4:	001028f3          	frflags	a7
     4e8:	0f17a827          	fsw	fa7,240(a5)
     4ec:	0f17aa23          	sw	a7,244(a5)

000004f0 <inst_31>:
     4f0:	17482a07          	flw	fs4,372(a6)
     4f4:	17882e07          	flw	ft8,376(a6)
     4f8:	17c82c07          	flw	fs8,380(a6)
     4fc:	00205073          	fsrmi	zero,0
     500:	c1ca7ec7          	fmsub.s	ft9,fs4,ft8,fs8
     504:	001028f3          	frflags	a7
     508:	0fd7ac27          	fsw	ft9,248(a5)
     50c:	0f17ae23          	sw	a7,252(a5)

00000510 <inst_32>:
     510:	18082507          	flw	fa0,384(a6)
     514:	18482587          	flw	fa1,388(a6)
     518:	18882607          	flw	fa2,392(a6)
     51c:	00205073          	fsrmi	zero,0
     520:	60b576c7          	fmsub.s	fa3,fa0,fa1,fa2
     524:	001028f3          	frflags	a7
     528:	10d7a027          	fsw	fa3,256(a5)
     52c:	1117a223          	sw	a7,260(a5)

00000530 <inst_33>:
     530:	18c82507          	flw	fa0,396(a6)
     534:	19082587          	flw	fa1,400(a6)
     538:	19482607          	flw	fa2,404(a6)
     53c:	00205073          	fsrmi	zero,0
     540:	60b576c7          	fmsub.s	fa3,fa0,fa1,fa2
     544:	001028f3          	frflags	a7
     548:	10d7a427          	fsw	fa3,264(a5)
     54c:	1117a623          	sw	a7,268(a5)

00000550 <inst_34>:
     550:	19882507          	flw	fa0,408(a6)
     554:	19c82587          	flw	fa1,412(a6)
     558:	1a082607          	flw	fa2,416(a6)
     55c:	00205073          	fsrmi	zero,0
     560:	60b576c7          	fmsub.s	fa3,fa0,fa1,fa2
     564:	001028f3          	frflags	a7
     568:	10d7a827          	fsw	fa3,272(a5)
     56c:	1117aa23          	sw	a7,276(a5)

00000570 <inst_35>:
     570:	1a482507          	flw	fa0,420(a6)
     574:	1a882587          	flw	fa1,424(a6)
     578:	1ac82607          	flw	fa2,428(a6)
     57c:	00205073          	fsrmi	zero,0
     580:	60b576c7          	fmsub.s	fa3,fa0,fa1,fa2
     584:	001028f3          	frflags	a7
     588:	10d7ac27          	fsw	fa3,280(a5)
     58c:	1117ae23          	sw	a7,284(a5)

00000590 <inst_36>:
     590:	1b082507          	flw	fa0,432(a6)
     594:	1b482587          	flw	fa1,436(a6)
     598:	1b882607          	flw	fa2,440(a6)
     59c:	00205073          	fsrmi	zero,0
     5a0:	60b576c7          	fmsub.s	fa3,fa0,fa1,fa2
     5a4:	001028f3          	frflags	a7
     5a8:	12d7a027          	fsw	fa3,288(a5)
     5ac:	1317a223          	sw	a7,292(a5)

000005b0 <inst_37>:
     5b0:	1bc82507          	flw	fa0,444(a6)
     5b4:	1c082587          	flw	fa1,448(a6)
     5b8:	1c482607          	flw	fa2,452(a6)
     5bc:	00205073          	fsrmi	zero,0
     5c0:	60b576c7          	fmsub.s	fa3,fa0,fa1,fa2
     5c4:	001028f3          	frflags	a7
     5c8:	12d7a427          	fsw	fa3,296(a5)
     5cc:	1317a623          	sw	a7,300(a5)

000005d0 <inst_38>:
     5d0:	1c882507          	flw	fa0,456(a6)
     5d4:	1cc82587          	flw	fa1,460(a6)
     5d8:	1d082607          	flw	fa2,464(a6)
     5dc:	00205073          	fsrmi	zero,0
     5e0:	60b576c7          	fmsub.s	fa3,fa0,fa1,fa2
     5e4:	001028f3          	frflags	a7
     5e8:	12d7a827          	fsw	fa3,304(a5)
     5ec:	1317aa23          	sw	a7,308(a5)

000005f0 <inst_39>:
     5f0:	1d482507          	flw	fa0,468(a6)
     5f4:	1d882587          	flw	fa1,472(a6)
     5f8:	1dc82607          	flw	fa2,476(a6)
     5fc:	00205073          	fsrmi	zero,0
     600:	60b576c7          	fmsub.s	fa3,fa0,fa1,fa2
     604:	001028f3          	frflags	a7
     608:	12d7ac27          	fsw	fa3,312(a5)
     60c:	1317ae23          	sw	a7,316(a5)

00000610 <inst_40>:
     610:	1e082507          	flw	fa0,480(a6)
     614:	1e482587          	flw	fa1,484(a6)
     618:	1e882607          	flw	fa2,488(a6)
     61c:	00205073          	fsrmi	zero,0
     620:	60b576c7          	fmsub.s	fa3,fa0,fa1,fa2
     624:	001028f3          	frflags	a7
     628:	14d7a027          	fsw	fa3,320(a5)
     62c:	1517a223          	sw	a7,324(a5)

00000630 <inst_41>:
     630:	1ec82507          	flw	fa0,492(a6)
     634:	1f082587          	flw	fa1,496(a6)
     638:	1f482607          	flw	fa2,500(a6)
     63c:	00205073          	fsrmi	zero,0
     640:	60b576c7          	fmsub.s	fa3,fa0,fa1,fa2
     644:	001028f3          	frflags	a7
     648:	14d7a427          	fsw	fa3,328(a5)
     64c:	1517a623          	sw	a7,332(a5)

00000650 <inst_42>:
     650:	1f882507          	flw	fa0,504(a6)
     654:	1fc82587          	flw	fa1,508(a6)
     658:	20082607          	flw	fa2,512(a6)
     65c:	00205073          	fsrmi	zero,0
     660:	60b576c7          	fmsub.s	fa3,fa0,fa1,fa2
     664:	001028f3          	frflags	a7
     668:	14d7a827          	fsw	fa3,336(a5)
     66c:	1517aa23          	sw	a7,340(a5)

00000670 <inst_43>:
     670:	20482507          	flw	fa0,516(a6)
     674:	20882587          	flw	fa1,520(a6)
     678:	20c82607          	flw	fa2,524(a6)
     67c:	00205073          	fsrmi	zero,0
     680:	60b576c7          	fmsub.s	fa3,fa0,fa1,fa2
     684:	001028f3          	frflags	a7
     688:	14d7ac27          	fsw	fa3,344(a5)
     68c:	1517ae23          	sw	a7,348(a5)

00000690 <inst_44>:
     690:	21082507          	flw	fa0,528(a6)
     694:	21482587          	flw	fa1,532(a6)
     698:	21882607          	flw	fa2,536(a6)
     69c:	00205073          	fsrmi	zero,0
     6a0:	60b576c7          	fmsub.s	fa3,fa0,fa1,fa2
     6a4:	001028f3          	frflags	a7
     6a8:	16d7a027          	fsw	fa3,352(a5)
     6ac:	1717a223          	sw	a7,356(a5)

000006b0 <inst_45>:
     6b0:	21c82507          	flw	fa0,540(a6)
     6b4:	22082587          	flw	fa1,544(a6)
     6b8:	22482607          	flw	fa2,548(a6)
     6bc:	00205073          	fsrmi	zero,0
     6c0:	60b576c7          	fmsub.s	fa3,fa0,fa1,fa2
     6c4:	001028f3          	frflags	a7
     6c8:	16d7a427          	fsw	fa3,360(a5)
     6cc:	1717a623          	sw	a7,364(a5)

000006d0 <inst_46>:
     6d0:	22882507          	flw	fa0,552(a6)
     6d4:	22c82587          	flw	fa1,556(a6)
     6d8:	23082607          	flw	fa2,560(a6)
     6dc:	00205073          	fsrmi	zero,0
     6e0:	60b576c7          	fmsub.s	fa3,fa0,fa1,fa2
     6e4:	001028f3          	frflags	a7
     6e8:	16d7a827          	fsw	fa3,368(a5)
     6ec:	1717aa23          	sw	a7,372(a5)

000006f0 <inst_47>:
     6f0:	23482507          	flw	fa0,564(a6)
     6f4:	23882587          	flw	fa1,568(a6)
     6f8:	23c82607          	flw	fa2,572(a6)
     6fc:	00205073          	fsrmi	zero,0
     700:	60b576c7          	fmsub.s	fa3,fa0,fa1,fa2
     704:	001028f3          	frflags	a7
     708:	16d7ac27          	fsw	fa3,376(a5)
     70c:	1717ae23          	sw	a7,380(a5)

00000710 <inst_48>:
     710:	24082507          	flw	fa0,576(a6)
     714:	24482587          	flw	fa1,580(a6)
     718:	24882607          	flw	fa2,584(a6)
     71c:	00205073          	fsrmi	zero,0
     720:	60b576c7          	fmsub.s	fa3,fa0,fa1,fa2
     724:	001028f3          	frflags	a7
     728:	18d7a027          	fsw	fa3,384(a5)
     72c:	1917a223          	sw	a7,388(a5)

00000730 <inst_49>:
     730:	24c82507          	flw	fa0,588(a6)
     734:	25082587          	flw	fa1,592(a6)
     738:	25482607          	flw	fa2,596(a6)
     73c:	00205073          	fsrmi	zero,0
     740:	60b576c7          	fmsub.s	fa3,fa0,fa1,fa2
     744:	001028f3          	frflags	a7
     748:	18d7a427          	fsw	fa3,392(a5)
     74c:	1917a623          	sw	a7,396(a5)

00000750 <inst_50>:
     750:	25882507          	flw	fa0,600(a6)
     754:	25c82587          	flw	fa1,604(a6)
     758:	26082607          	flw	fa2,608(a6)
     75c:	00205073          	fsrmi	zero,0
     760:	60b576c7          	fmsub.s	fa3,fa0,fa1,fa2
     764:	001028f3          	frflags	a7
     768:	18d7a827          	fsw	fa3,400(a5)
     76c:	1917aa23          	sw	a7,404(a5)

00000770 <inst_51>:
     770:	26482507          	flw	fa0,612(a6)
     774:	26882587          	flw	fa1,616(a6)
     778:	26c82607          	flw	fa2,620(a6)
     77c:	00205073          	fsrmi	zero,0
     780:	60b576c7          	fmsub.s	fa3,fa0,fa1,fa2
     784:	001028f3          	frflags	a7
     788:	18d7ac27          	fsw	fa3,408(a5)
     78c:	1917ae23          	sw	a7,412(a5)

00000790 <inst_52>:
     790:	27082507          	flw	fa0,624(a6)
     794:	27482587          	flw	fa1,628(a6)
     798:	27882607          	flw	fa2,632(a6)
     79c:	00205073          	fsrmi	zero,0
     7a0:	60b576c7          	fmsub.s	fa3,fa0,fa1,fa2
     7a4:	001028f3          	frflags	a7
     7a8:	1ad7a027          	fsw	fa3,416(a5)
     7ac:	1b17a223          	sw	a7,420(a5)

000007b0 <inst_53>:
     7b0:	27c82507          	flw	fa0,636(a6)
     7b4:	28082587          	flw	fa1,640(a6)
     7b8:	28482607          	flw	fa2,644(a6)
     7bc:	00205073          	fsrmi	zero,0
     7c0:	60b576c7          	fmsub.s	fa3,fa0,fa1,fa2
     7c4:	001028f3          	frflags	a7
     7c8:	1ad7a427          	fsw	fa3,424(a5)
     7cc:	1b17a623          	sw	a7,428(a5)

000007d0 <inst_54>:
     7d0:	28882507          	flw	fa0,648(a6)
     7d4:	28c82587          	flw	fa1,652(a6)
     7d8:	29082607          	flw	fa2,656(a6)
     7dc:	00205073          	fsrmi	zero,0
     7e0:	60b576c7          	fmsub.s	fa3,fa0,fa1,fa2
     7e4:	001028f3          	frflags	a7
     7e8:	1ad7a827          	fsw	fa3,432(a5)
     7ec:	1b17aa23          	sw	a7,436(a5)

000007f0 <inst_55>:
     7f0:	29482507          	flw	fa0,660(a6)
     7f4:	29882587          	flw	fa1,664(a6)
     7f8:	29c82607          	flw	fa2,668(a6)
     7fc:	00205073          	fsrmi	zero,0
     800:	60b576c7          	fmsub.s	fa3,fa0,fa1,fa2
     804:	001028f3          	frflags	a7
     808:	1ad7ac27          	fsw	fa3,440(a5)
     80c:	1b17ae23          	sw	a7,444(a5)

00000810 <inst_56>:
     810:	2a082507          	flw	fa0,672(a6)
     814:	2a482587          	flw	fa1,676(a6)
     818:	2a882607          	flw	fa2,680(a6)
     81c:	00205073          	fsrmi	zero,0
     820:	60b576c7          	fmsub.s	fa3,fa0,fa1,fa2
     824:	001028f3          	frflags	a7
     828:	1cd7a027          	fsw	fa3,448(a5)
     82c:	1d17a223          	sw	a7,452(a5)

00000830 <inst_57>:
     830:	2ac82507          	flw	fa0,684(a6)
     834:	2b082587          	flw	fa1,688(a6)
     838:	2b482607          	flw	fa2,692(a6)
     83c:	00205073          	fsrmi	zero,0
     840:	60b576c7          	fmsub.s	fa3,fa0,fa1,fa2
     844:	001028f3          	frflags	a7
     848:	1cd7a427          	fsw	fa3,456(a5)
     84c:	1d17a623          	sw	a7,460(a5)

00000850 <inst_58>:
     850:	2b882507          	flw	fa0,696(a6)
     854:	2bc82587          	flw	fa1,700(a6)
     858:	2c082607          	flw	fa2,704(a6)
     85c:	00205073          	fsrmi	zero,0
     860:	60b576c7          	fmsub.s	fa3,fa0,fa1,fa2
     864:	001028f3          	frflags	a7
     868:	1cd7a827          	fsw	fa3,464(a5)
     86c:	1d17aa23          	sw	a7,468(a5)

00000870 <inst_59>:
     870:	2c482507          	flw	fa0,708(a6)
     874:	2c882587          	flw	fa1,712(a6)
     878:	2cc82607          	flw	fa2,716(a6)
     87c:	00205073          	fsrmi	zero,0
     880:	60b576c7          	fmsub.s	fa3,fa0,fa1,fa2
     884:	001028f3          	frflags	a7
     888:	1cd7ac27          	fsw	fa3,472(a5)
     88c:	1d17ae23          	sw	a7,476(a5)

00000890 <inst_60>:
     890:	2d082507          	flw	fa0,720(a6)
     894:	2d482587          	flw	fa1,724(a6)
     898:	2d882607          	flw	fa2,728(a6)
     89c:	00205073          	fsrmi	zero,0
     8a0:	60b576c7          	fmsub.s	fa3,fa0,fa1,fa2
     8a4:	001028f3          	frflags	a7
     8a8:	1ed7a027          	fsw	fa3,480(a5)
     8ac:	1f17a223          	sw	a7,484(a5)

000008b0 <inst_61>:
     8b0:	2dc82507          	flw	fa0,732(a6)
     8b4:	2e082587          	flw	fa1,736(a6)
     8b8:	2e482607          	flw	fa2,740(a6)
     8bc:	00205073          	fsrmi	zero,0
     8c0:	60b576c7          	fmsub.s	fa3,fa0,fa1,fa2
     8c4:	001028f3          	frflags	a7
     8c8:	1ed7a427          	fsw	fa3,488(a5)
     8cc:	1f17a623          	sw	a7,492(a5)

000008d0 <inst_62>:
     8d0:	2e882507          	flw	fa0,744(a6)
     8d4:	2ec82587          	flw	fa1,748(a6)
     8d8:	2f082607          	flw	fa2,752(a6)
     8dc:	00205073          	fsrmi	zero,0
     8e0:	60b576c7          	fmsub.s	fa3,fa0,fa1,fa2
     8e4:	001028f3          	frflags	a7
     8e8:	1ed7a827          	fsw	fa3,496(a5)
     8ec:	1f17aa23          	sw	a7,500(a5)

000008f0 <inst_63>:
     8f0:	2f482507          	flw	fa0,756(a6)
     8f4:	2f882587          	flw	fa1,760(a6)
     8f8:	2fc82607          	flw	fa2,764(a6)
     8fc:	00205073          	fsrmi	zero,0
     900:	60b576c7          	fmsub.s	fa3,fa0,fa1,fa2
     904:	001028f3          	frflags	a7
     908:	1ed7ac27          	fsw	fa3,504(a5)
     90c:	1f17ae23          	sw	a7,508(a5)

00000910 <inst_64>:
     910:	30082507          	flw	fa0,768(a6)
     914:	30482587          	flw	fa1,772(a6)
     918:	30882607          	flw	fa2,776(a6)
     91c:	00205073          	fsrmi	zero,0
     920:	60b576c7          	fmsub.s	fa3,fa0,fa1,fa2
     924:	001028f3          	frflags	a7
     928:	20d7a027          	fsw	fa3,512(a5)
     92c:	2117a223          	sw	a7,516(a5)

00000930 <inst_65>:
     930:	30c82507          	flw	fa0,780(a6)
     934:	31082587          	flw	fa1,784(a6)
     938:	31482607          	flw	fa2,788(a6)
     93c:	00205073          	fsrmi	zero,0
     940:	60b576c7          	fmsub.s	fa3,fa0,fa1,fa2
     944:	001028f3          	frflags	a7
     948:	20d7a427          	fsw	fa3,520(a5)
     94c:	2117a623          	sw	a7,524(a5)

00000950 <inst_66>:
     950:	31882507          	flw	fa0,792(a6)
     954:	31c82587          	flw	fa1,796(a6)
     958:	32082607          	flw	fa2,800(a6)
     95c:	00205073          	fsrmi	zero,0
     960:	60b576c7          	fmsub.s	fa3,fa0,fa1,fa2
     964:	001028f3          	frflags	a7
     968:	20d7a827          	fsw	fa3,528(a5)
     96c:	2117aa23          	sw	a7,532(a5)

00000970 <inst_67>:
     970:	32482507          	flw	fa0,804(a6)
     974:	32882587          	flw	fa1,808(a6)
     978:	32c82607          	flw	fa2,812(a6)
     97c:	00205073          	fsrmi	zero,0
     980:	60b576c7          	fmsub.s	fa3,fa0,fa1,fa2
     984:	001028f3          	frflags	a7
     988:	20d7ac27          	fsw	fa3,536(a5)
     98c:	2117ae23          	sw	a7,540(a5)

00000990 <inst_68>:
     990:	33082507          	flw	fa0,816(a6)
     994:	33482587          	flw	fa1,820(a6)
     998:	33882607          	flw	fa2,824(a6)
     99c:	00205073          	fsrmi	zero,0
     9a0:	60b576c7          	fmsub.s	fa3,fa0,fa1,fa2
     9a4:	001028f3          	frflags	a7
     9a8:	22d7a027          	fsw	fa3,544(a5)
     9ac:	2317a223          	sw	a7,548(a5)

000009b0 <inst_69>:
     9b0:	33c82507          	flw	fa0,828(a6)
     9b4:	34082587          	flw	fa1,832(a6)
     9b8:	34482607          	flw	fa2,836(a6)
     9bc:	00205073          	fsrmi	zero,0
     9c0:	60b576c7          	fmsub.s	fa3,fa0,fa1,fa2
     9c4:	001028f3          	frflags	a7
     9c8:	22d7a427          	fsw	fa3,552(a5)
     9cc:	2317a623          	sw	a7,556(a5)

000009d0 <inst_70>:
     9d0:	34882507          	flw	fa0,840(a6)
     9d4:	34c82587          	flw	fa1,844(a6)
     9d8:	35082607          	flw	fa2,848(a6)
     9dc:	00205073          	fsrmi	zero,0
     9e0:	60b576c7          	fmsub.s	fa3,fa0,fa1,fa2
     9e4:	001028f3          	frflags	a7
     9e8:	22d7a827          	fsw	fa3,560(a5)
     9ec:	2317aa23          	sw	a7,564(a5)

000009f0 <inst_71>:
     9f0:	35482507          	flw	fa0,852(a6)
     9f4:	35882587          	flw	fa1,856(a6)
     9f8:	35c82607          	flw	fa2,860(a6)
     9fc:	00205073          	fsrmi	zero,0
     a00:	60b576c7          	fmsub.s	fa3,fa0,fa1,fa2
     a04:	001028f3          	frflags	a7
     a08:	22d7ac27          	fsw	fa3,568(a5)
     a0c:	2317ae23          	sw	a7,572(a5)

00000a10 <inst_72>:
     a10:	36082507          	flw	fa0,864(a6)
     a14:	36482587          	flw	fa1,868(a6)
     a18:	36882607          	flw	fa2,872(a6)
     a1c:	00205073          	fsrmi	zero,0
     a20:	60b576c7          	fmsub.s	fa3,fa0,fa1,fa2
     a24:	001028f3          	frflags	a7
     a28:	24d7a027          	fsw	fa3,576(a5)
     a2c:	2517a223          	sw	a7,580(a5)

00000a30 <inst_73>:
     a30:	36c82507          	flw	fa0,876(a6)
     a34:	37082587          	flw	fa1,880(a6)
     a38:	37482607          	flw	fa2,884(a6)
     a3c:	00205073          	fsrmi	zero,0
     a40:	60b576c7          	fmsub.s	fa3,fa0,fa1,fa2
     a44:	001028f3          	frflags	a7
     a48:	24d7a427          	fsw	fa3,584(a5)
     a4c:	2517a623          	sw	a7,588(a5)

00000a50 <inst_74>:
     a50:	37882507          	flw	fa0,888(a6)
     a54:	37c82587          	flw	fa1,892(a6)
     a58:	38082607          	flw	fa2,896(a6)
     a5c:	00205073          	fsrmi	zero,0
     a60:	60b576c7          	fmsub.s	fa3,fa0,fa1,fa2
     a64:	001028f3          	frflags	a7
     a68:	24d7a827          	fsw	fa3,592(a5)
     a6c:	2517aa23          	sw	a7,596(a5)

00000a70 <inst_75>:
     a70:	38482507          	flw	fa0,900(a6)
     a74:	38882587          	flw	fa1,904(a6)
     a78:	38c82607          	flw	fa2,908(a6)
     a7c:	00205073          	fsrmi	zero,0
     a80:	60b576c7          	fmsub.s	fa3,fa0,fa1,fa2
     a84:	001028f3          	frflags	a7
     a88:	24d7ac27          	fsw	fa3,600(a5)
     a8c:	2517ae23          	sw	a7,604(a5)

00000a90 <inst_76>:
     a90:	39082507          	flw	fa0,912(a6)
     a94:	39482587          	flw	fa1,916(a6)
     a98:	39882607          	flw	fa2,920(a6)
     a9c:	00205073          	fsrmi	zero,0
     aa0:	60b576c7          	fmsub.s	fa3,fa0,fa1,fa2
     aa4:	001028f3          	frflags	a7
     aa8:	26d7a027          	fsw	fa3,608(a5)
     aac:	2717a223          	sw	a7,612(a5)

00000ab0 <inst_77>:
     ab0:	39c82507          	flw	fa0,924(a6)
     ab4:	3a082587          	flw	fa1,928(a6)
     ab8:	3a482607          	flw	fa2,932(a6)
     abc:	00205073          	fsrmi	zero,0
     ac0:	60b576c7          	fmsub.s	fa3,fa0,fa1,fa2
     ac4:	001028f3          	frflags	a7
     ac8:	26d7a427          	fsw	fa3,616(a5)
     acc:	2717a623          	sw	a7,620(a5)

00000ad0 <inst_78>:
     ad0:	3a882507          	flw	fa0,936(a6)
     ad4:	3ac82587          	flw	fa1,940(a6)
     ad8:	3b082607          	flw	fa2,944(a6)
     adc:	00205073          	fsrmi	zero,0
     ae0:	60b576c7          	fmsub.s	fa3,fa0,fa1,fa2
     ae4:	001028f3          	frflags	a7
     ae8:	26d7a827          	fsw	fa3,624(a5)
     aec:	2717aa23          	sw	a7,628(a5)

00000af0 <inst_79>:
     af0:	3b482507          	flw	fa0,948(a6)
     af4:	3b882587          	flw	fa1,952(a6)
     af8:	3bc82607          	flw	fa2,956(a6)
     afc:	00205073          	fsrmi	zero,0
     b00:	60b576c7          	fmsub.s	fa3,fa0,fa1,fa2
     b04:	001028f3          	frflags	a7
     b08:	26d7ac27          	fsw	fa3,632(a5)
     b0c:	2717ae23          	sw	a7,636(a5)

00000b10 <inst_80>:
     b10:	3c082507          	flw	fa0,960(a6)
     b14:	3c482587          	flw	fa1,964(a6)
     b18:	3c882607          	flw	fa2,968(a6)
     b1c:	00205073          	fsrmi	zero,0
     b20:	60b576c7          	fmsub.s	fa3,fa0,fa1,fa2
     b24:	001028f3          	frflags	a7
     b28:	28d7a027          	fsw	fa3,640(a5)
     b2c:	2917a223          	sw	a7,644(a5)

00000b30 <inst_81>:
     b30:	3cc82507          	flw	fa0,972(a6)
     b34:	3d082587          	flw	fa1,976(a6)
     b38:	3d482607          	flw	fa2,980(a6)
     b3c:	00205073          	fsrmi	zero,0
     b40:	60b576c7          	fmsub.s	fa3,fa0,fa1,fa2
     b44:	001028f3          	frflags	a7
     b48:	28d7a427          	fsw	fa3,648(a5)
     b4c:	2917a623          	sw	a7,652(a5)

00000b50 <inst_82>:
     b50:	3d882507          	flw	fa0,984(a6)
     b54:	3dc82587          	flw	fa1,988(a6)
     b58:	3e082607          	flw	fa2,992(a6)
     b5c:	00205073          	fsrmi	zero,0
     b60:	60b576c7          	fmsub.s	fa3,fa0,fa1,fa2
     b64:	001028f3          	frflags	a7
     b68:	28d7a827          	fsw	fa3,656(a5)
     b6c:	2917aa23          	sw	a7,660(a5)

00000b70 <inst_83>:
     b70:	3e482507          	flw	fa0,996(a6)
     b74:	3e882587          	flw	fa1,1000(a6)
     b78:	3ec82607          	flw	fa2,1004(a6)
     b7c:	00205073          	fsrmi	zero,0
     b80:	60b576c7          	fmsub.s	fa3,fa0,fa1,fa2
     b84:	001028f3          	frflags	a7
     b88:	28d7ac27          	fsw	fa3,664(a5)
     b8c:	2917ae23          	sw	a7,668(a5)

00000b90 <inst_84>:
     b90:	3f082507          	flw	fa0,1008(a6)
     b94:	3f482587          	flw	fa1,1012(a6)
     b98:	3f882607          	flw	fa2,1016(a6)
     b9c:	00205073          	fsrmi	zero,0
     ba0:	60b576c7          	fmsub.s	fa3,fa0,fa1,fa2
     ba4:	001028f3          	frflags	a7
     ba8:	2ad7a027          	fsw	fa3,672(a5)
     bac:	2b17a223          	sw	a7,676(a5)

00000bb0 <inst_85>:
     bb0:	3fc82507          	flw	fa0,1020(a6)
     bb4:	40082587          	flw	fa1,1024(a6)
     bb8:	40482607          	flw	fa2,1028(a6)
     bbc:	00205073          	fsrmi	zero,0
     bc0:	60b576c7          	fmsub.s	fa3,fa0,fa1,fa2
     bc4:	001028f3          	frflags	a7
     bc8:	2ad7a427          	fsw	fa3,680(a5)
     bcc:	2b17a623          	sw	a7,684(a5)

00000bd0 <inst_86>:
     bd0:	40882507          	flw	fa0,1032(a6)
     bd4:	40c82587          	flw	fa1,1036(a6)
     bd8:	41082607          	flw	fa2,1040(a6)
     bdc:	00205073          	fsrmi	zero,0
     be0:	60b576c7          	fmsub.s	fa3,fa0,fa1,fa2
     be4:	001028f3          	frflags	a7
     be8:	2ad7a827          	fsw	fa3,688(a5)
     bec:	2b17aa23          	sw	a7,692(a5)

00000bf0 <inst_87>:
     bf0:	41482507          	flw	fa0,1044(a6)
     bf4:	41882587          	flw	fa1,1048(a6)
     bf8:	41c82607          	flw	fa2,1052(a6)
     bfc:	00205073          	fsrmi	zero,0
     c00:	60b576c7          	fmsub.s	fa3,fa0,fa1,fa2
     c04:	001028f3          	frflags	a7
     c08:	2ad7ac27          	fsw	fa3,696(a5)
     c0c:	2b17ae23          	sw	a7,700(a5)

00000c10 <inst_88>:
     c10:	42082507          	flw	fa0,1056(a6)
     c14:	42482587          	flw	fa1,1060(a6)
     c18:	42882607          	flw	fa2,1064(a6)
     c1c:	00205073          	fsrmi	zero,0
     c20:	60b576c7          	fmsub.s	fa3,fa0,fa1,fa2
     c24:	001028f3          	frflags	a7
     c28:	2cd7a027          	fsw	fa3,704(a5)
     c2c:	2d17a223          	sw	a7,708(a5)

00000c30 <inst_89>:
     c30:	42c82507          	flw	fa0,1068(a6)
     c34:	43082587          	flw	fa1,1072(a6)
     c38:	43482607          	flw	fa2,1076(a6)
     c3c:	00205073          	fsrmi	zero,0
     c40:	60b576c7          	fmsub.s	fa3,fa0,fa1,fa2
     c44:	001028f3          	frflags	a7
     c48:	2cd7a427          	fsw	fa3,712(a5)
     c4c:	2d17a623          	sw	a7,716(a5)

00000c50 <inst_90>:
     c50:	43882507          	flw	fa0,1080(a6)
     c54:	43c82587          	flw	fa1,1084(a6)
     c58:	44082607          	flw	fa2,1088(a6)
     c5c:	00205073          	fsrmi	zero,0
     c60:	60b576c7          	fmsub.s	fa3,fa0,fa1,fa2
     c64:	001028f3          	frflags	a7
     c68:	2cd7a827          	fsw	fa3,720(a5)
     c6c:	2d17aa23          	sw	a7,724(a5)

00000c70 <inst_91>:
     c70:	44482507          	flw	fa0,1092(a6)
     c74:	44882587          	flw	fa1,1096(a6)
     c78:	44c82607          	flw	fa2,1100(a6)
     c7c:	00205073          	fsrmi	zero,0
     c80:	60b576c7          	fmsub.s	fa3,fa0,fa1,fa2
     c84:	001028f3          	frflags	a7
     c88:	2cd7ac27          	fsw	fa3,728(a5)
     c8c:	2d17ae23          	sw	a7,732(a5)

00000c90 <inst_92>:
     c90:	45082507          	flw	fa0,1104(a6)
     c94:	45482587          	flw	fa1,1108(a6)
     c98:	45882607          	flw	fa2,1112(a6)
     c9c:	00205073          	fsrmi	zero,0
     ca0:	60b576c7          	fmsub.s	fa3,fa0,fa1,fa2
     ca4:	001028f3          	frflags	a7
     ca8:	2ed7a027          	fsw	fa3,736(a5)
     cac:	2f17a223          	sw	a7,740(a5)

00000cb0 <inst_93>:
     cb0:	45c82507          	flw	fa0,1116(a6)
     cb4:	46082587          	flw	fa1,1120(a6)
     cb8:	46482607          	flw	fa2,1124(a6)
     cbc:	00205073          	fsrmi	zero,0
     cc0:	60b576c7          	fmsub.s	fa3,fa0,fa1,fa2
     cc4:	001028f3          	frflags	a7
     cc8:	2ed7a427          	fsw	fa3,744(a5)
     ccc:	2f17a623          	sw	a7,748(a5)

00000cd0 <inst_94>:
     cd0:	46882507          	flw	fa0,1128(a6)
     cd4:	46c82587          	flw	fa1,1132(a6)
     cd8:	47082607          	flw	fa2,1136(a6)
     cdc:	00205073          	fsrmi	zero,0
     ce0:	60b576c7          	fmsub.s	fa3,fa0,fa1,fa2
     ce4:	001028f3          	frflags	a7
     ce8:	2ed7a827          	fsw	fa3,752(a5)
     cec:	2f17aa23          	sw	a7,756(a5)

00000cf0 <inst_95>:
     cf0:	47482507          	flw	fa0,1140(a6)
     cf4:	47882587          	flw	fa1,1144(a6)
     cf8:	47c82607          	flw	fa2,1148(a6)
     cfc:	00205073          	fsrmi	zero,0
     d00:	60b576c7          	fmsub.s	fa3,fa0,fa1,fa2
     d04:	001028f3          	frflags	a7
     d08:	2ed7ac27          	fsw	fa3,760(a5)
     d0c:	2f17ae23          	sw	a7,764(a5)

00000d10 <inst_96>:
     d10:	48082507          	flw	fa0,1152(a6)
     d14:	48482587          	flw	fa1,1156(a6)
     d18:	48882607          	flw	fa2,1160(a6)
     d1c:	00205073          	fsrmi	zero,0
     d20:	60b576c7          	fmsub.s	fa3,fa0,fa1,fa2
     d24:	001028f3          	frflags	a7
     d28:	30d7a027          	fsw	fa3,768(a5)
     d2c:	3117a223          	sw	a7,772(a5)

00000d30 <inst_97>:
     d30:	48c82507          	flw	fa0,1164(a6)
     d34:	49082587          	flw	fa1,1168(a6)
     d38:	49482607          	flw	fa2,1172(a6)
     d3c:	00205073          	fsrmi	zero,0
     d40:	60b576c7          	fmsub.s	fa3,fa0,fa1,fa2
     d44:	001028f3          	frflags	a7
     d48:	30d7a427          	fsw	fa3,776(a5)
     d4c:	3117a623          	sw	a7,780(a5)

00000d50 <inst_98>:
     d50:	49882507          	flw	fa0,1176(a6)
     d54:	49c82587          	flw	fa1,1180(a6)
     d58:	4a082607          	flw	fa2,1184(a6)
     d5c:	00205073          	fsrmi	zero,0
     d60:	60b576c7          	fmsub.s	fa3,fa0,fa1,fa2
     d64:	001028f3          	frflags	a7
     d68:	30d7a827          	fsw	fa3,784(a5)
     d6c:	3117aa23          	sw	a7,788(a5)

00000d70 <inst_99>:
     d70:	4a482507          	flw	fa0,1188(a6)
     d74:	4a882587          	flw	fa1,1192(a6)
     d78:	4ac82607          	flw	fa2,1196(a6)
     d7c:	00205073          	fsrmi	zero,0
     d80:	60b576c7          	fmsub.s	fa3,fa0,fa1,fa2
     d84:	001028f3          	frflags	a7
     d88:	30d7ac27          	fsw	fa3,792(a5)
     d8c:	3117ae23          	sw	a7,796(a5)

00000d90 <inst_100>:
     d90:	4b082507          	flw	fa0,1200(a6)
     d94:	4b482587          	flw	fa1,1204(a6)
     d98:	4b882607          	flw	fa2,1208(a6)
     d9c:	00205073          	fsrmi	zero,0
     da0:	60b576c7          	fmsub.s	fa3,fa0,fa1,fa2
     da4:	001028f3          	frflags	a7
     da8:	32d7a027          	fsw	fa3,800(a5)
     dac:	3317a223          	sw	a7,804(a5)

00000db0 <inst_101>:
     db0:	4bc82507          	flw	fa0,1212(a6)
     db4:	4c082587          	flw	fa1,1216(a6)
     db8:	4c482607          	flw	fa2,1220(a6)
     dbc:	00205073          	fsrmi	zero,0
     dc0:	60b576c7          	fmsub.s	fa3,fa0,fa1,fa2
     dc4:	001028f3          	frflags	a7
     dc8:	32d7a427          	fsw	fa3,808(a5)
     dcc:	3317a623          	sw	a7,812(a5)

00000dd0 <inst_102>:
     dd0:	4c882507          	flw	fa0,1224(a6)
     dd4:	4cc82587          	flw	fa1,1228(a6)
     dd8:	4d082607          	flw	fa2,1232(a6)
     ddc:	00205073          	fsrmi	zero,0
     de0:	60b576c7          	fmsub.s	fa3,fa0,fa1,fa2
     de4:	001028f3          	frflags	a7
     de8:	32d7a827          	fsw	fa3,816(a5)
     dec:	3317aa23          	sw	a7,820(a5)

00000df0 <inst_103>:
     df0:	4d482507          	flw	fa0,1236(a6)
     df4:	4d882587          	flw	fa1,1240(a6)
     df8:	4dc82607          	flw	fa2,1244(a6)
     dfc:	00205073          	fsrmi	zero,0
     e00:	60b576c7          	fmsub.s	fa3,fa0,fa1,fa2
     e04:	001028f3          	frflags	a7
     e08:	32d7ac27          	fsw	fa3,824(a5)
     e0c:	3317ae23          	sw	a7,828(a5)

00000e10 <inst_104>:
     e10:	4e082507          	flw	fa0,1248(a6)
     e14:	4e482587          	flw	fa1,1252(a6)
     e18:	4e882607          	flw	fa2,1256(a6)
     e1c:	00205073          	fsrmi	zero,0
     e20:	60b576c7          	fmsub.s	fa3,fa0,fa1,fa2
     e24:	001028f3          	frflags	a7
     e28:	34d7a027          	fsw	fa3,832(a5)
     e2c:	3517a223          	sw	a7,836(a5)

00000e30 <inst_105>:
     e30:	4ec82507          	flw	fa0,1260(a6)
     e34:	4f082587          	flw	fa1,1264(a6)
     e38:	4f482607          	flw	fa2,1268(a6)
     e3c:	00205073          	fsrmi	zero,0
     e40:	60b576c7          	fmsub.s	fa3,fa0,fa1,fa2
     e44:	001028f3          	frflags	a7
     e48:	34d7a427          	fsw	fa3,840(a5)
     e4c:	3517a623          	sw	a7,844(a5)

00000e50 <inst_106>:
     e50:	4f882507          	flw	fa0,1272(a6)
     e54:	4fc82587          	flw	fa1,1276(a6)
     e58:	50082607          	flw	fa2,1280(a6)
     e5c:	00205073          	fsrmi	zero,0
     e60:	60b576c7          	fmsub.s	fa3,fa0,fa1,fa2
     e64:	001028f3          	frflags	a7
     e68:	34d7a827          	fsw	fa3,848(a5)
     e6c:	3517aa23          	sw	a7,852(a5)

00000e70 <inst_107>:
     e70:	50482507          	flw	fa0,1284(a6)
     e74:	50882587          	flw	fa1,1288(a6)
     e78:	50c82607          	flw	fa2,1292(a6)
     e7c:	00205073          	fsrmi	zero,0
     e80:	60b576c7          	fmsub.s	fa3,fa0,fa1,fa2
     e84:	001028f3          	frflags	a7
     e88:	34d7ac27          	fsw	fa3,856(a5)
     e8c:	3517ae23          	sw	a7,860(a5)

00000e90 <inst_108>:
     e90:	51082507          	flw	fa0,1296(a6)
     e94:	51482587          	flw	fa1,1300(a6)
     e98:	51882607          	flw	fa2,1304(a6)
     e9c:	00205073          	fsrmi	zero,0
     ea0:	60b576c7          	fmsub.s	fa3,fa0,fa1,fa2
     ea4:	001028f3          	frflags	a7
     ea8:	36d7a027          	fsw	fa3,864(a5)
     eac:	3717a223          	sw	a7,868(a5)

00000eb0 <inst_109>:
     eb0:	51c82507          	flw	fa0,1308(a6)
     eb4:	52082587          	flw	fa1,1312(a6)
     eb8:	52482607          	flw	fa2,1316(a6)
     ebc:	00205073          	fsrmi	zero,0
     ec0:	60b576c7          	fmsub.s	fa3,fa0,fa1,fa2
     ec4:	001028f3          	frflags	a7
     ec8:	36d7a427          	fsw	fa3,872(a5)
     ecc:	3717a623          	sw	a7,876(a5)

00000ed0 <inst_110>:
     ed0:	52882507          	flw	fa0,1320(a6)
     ed4:	52c82587          	flw	fa1,1324(a6)
     ed8:	53082607          	flw	fa2,1328(a6)
     edc:	00205073          	fsrmi	zero,0
     ee0:	60b576c7          	fmsub.s	fa3,fa0,fa1,fa2
     ee4:	001028f3          	frflags	a7
     ee8:	36d7a827          	fsw	fa3,880(a5)
     eec:	3717aa23          	sw	a7,884(a5)

00000ef0 <inst_111>:
     ef0:	53482507          	flw	fa0,1332(a6)
     ef4:	53882587          	flw	fa1,1336(a6)
     ef8:	53c82607          	flw	fa2,1340(a6)
     efc:	00205073          	fsrmi	zero,0
     f00:	60b576c7          	fmsub.s	fa3,fa0,fa1,fa2
     f04:	001028f3          	frflags	a7
     f08:	36d7ac27          	fsw	fa3,888(a5)
     f0c:	3717ae23          	sw	a7,892(a5)

00000f10 <inst_112>:
     f10:	54082507          	flw	fa0,1344(a6)
     f14:	54482587          	flw	fa1,1348(a6)
     f18:	54882607          	flw	fa2,1352(a6)
     f1c:	00205073          	fsrmi	zero,0
     f20:	60b576c7          	fmsub.s	fa3,fa0,fa1,fa2
     f24:	001028f3          	frflags	a7
     f28:	38d7a027          	fsw	fa3,896(a5)
     f2c:	3917a223          	sw	a7,900(a5)

00000f30 <inst_113>:
     f30:	54c82507          	flw	fa0,1356(a6)
     f34:	55082587          	flw	fa1,1360(a6)
     f38:	55482607          	flw	fa2,1364(a6)
     f3c:	00205073          	fsrmi	zero,0
     f40:	60b576c7          	fmsub.s	fa3,fa0,fa1,fa2
     f44:	001028f3          	frflags	a7
     f48:	38d7a427          	fsw	fa3,904(a5)
     f4c:	3917a623          	sw	a7,908(a5)

00000f50 <inst_114>:
     f50:	55882507          	flw	fa0,1368(a6)
     f54:	55c82587          	flw	fa1,1372(a6)
     f58:	56082607          	flw	fa2,1376(a6)
     f5c:	00205073          	fsrmi	zero,0
     f60:	60b576c7          	fmsub.s	fa3,fa0,fa1,fa2
     f64:	001028f3          	frflags	a7
     f68:	38d7a827          	fsw	fa3,912(a5)
     f6c:	3917aa23          	sw	a7,916(a5)

00000f70 <inst_115>:
     f70:	56482507          	flw	fa0,1380(a6)
     f74:	56882587          	flw	fa1,1384(a6)
     f78:	56c82607          	flw	fa2,1388(a6)
     f7c:	00205073          	fsrmi	zero,0
     f80:	60b576c7          	fmsub.s	fa3,fa0,fa1,fa2
     f84:	001028f3          	frflags	a7
     f88:	38d7ac27          	fsw	fa3,920(a5)
     f8c:	3917ae23          	sw	a7,924(a5)

00000f90 <inst_116>:
     f90:	57082507          	flw	fa0,1392(a6)
     f94:	57482587          	flw	fa1,1396(a6)
     f98:	57882607          	flw	fa2,1400(a6)
     f9c:	00205073          	fsrmi	zero,0
     fa0:	60b576c7          	fmsub.s	fa3,fa0,fa1,fa2
     fa4:	001028f3          	frflags	a7
     fa8:	3ad7a027          	fsw	fa3,928(a5)
     fac:	3b17a223          	sw	a7,932(a5)

00000fb0 <inst_117>:
     fb0:	57c82507          	flw	fa0,1404(a6)
     fb4:	58082587          	flw	fa1,1408(a6)
     fb8:	58482607          	flw	fa2,1412(a6)
     fbc:	00205073          	fsrmi	zero,0
     fc0:	60b576c7          	fmsub.s	fa3,fa0,fa1,fa2
     fc4:	001028f3          	frflags	a7
     fc8:	3ad7a427          	fsw	fa3,936(a5)
     fcc:	3b17a623          	sw	a7,940(a5)

00000fd0 <inst_118>:
     fd0:	58882507          	flw	fa0,1416(a6)
     fd4:	58c82587          	flw	fa1,1420(a6)
     fd8:	59082607          	flw	fa2,1424(a6)
     fdc:	00205073          	fsrmi	zero,0
     fe0:	60b576c7          	fmsub.s	fa3,fa0,fa1,fa2
     fe4:	001028f3          	frflags	a7
     fe8:	3ad7a827          	fsw	fa3,944(a5)
     fec:	3b17aa23          	sw	a7,948(a5)

00000ff0 <inst_119>:
     ff0:	59482507          	flw	fa0,1428(a6)
     ff4:	59882587          	flw	fa1,1432(a6)
     ff8:	59c82607          	flw	fa2,1436(a6)
     ffc:	00205073          	fsrmi	zero,0
    1000:	60b576c7          	fmsub.s	fa3,fa0,fa1,fa2
    1004:	001028f3          	frflags	a7
    1008:	3ad7ac27          	fsw	fa3,952(a5)
    100c:	3b17ae23          	sw	a7,956(a5)

00001010 <inst_120>:
    1010:	5a082507          	flw	fa0,1440(a6)
    1014:	5a482587          	flw	fa1,1444(a6)
    1018:	5a882607          	flw	fa2,1448(a6)
    101c:	00205073          	fsrmi	zero,0
    1020:	60b576c7          	fmsub.s	fa3,fa0,fa1,fa2
    1024:	001028f3          	frflags	a7
    1028:	3cd7a027          	fsw	fa3,960(a5)
    102c:	3d17a223          	sw	a7,964(a5)

00001030 <inst_121>:
    1030:	5ac82507          	flw	fa0,1452(a6)
    1034:	5b082587          	flw	fa1,1456(a6)
    1038:	5b482607          	flw	fa2,1460(a6)
    103c:	00205073          	fsrmi	zero,0
    1040:	60b576c7          	fmsub.s	fa3,fa0,fa1,fa2
    1044:	001028f3          	frflags	a7
    1048:	3cd7a427          	fsw	fa3,968(a5)
    104c:	3d17a623          	sw	a7,972(a5)

00001050 <inst_122>:
    1050:	5b882507          	flw	fa0,1464(a6)
    1054:	5bc82587          	flw	fa1,1468(a6)
    1058:	5c082607          	flw	fa2,1472(a6)
    105c:	00205073          	fsrmi	zero,0
    1060:	60b576c7          	fmsub.s	fa3,fa0,fa1,fa2
    1064:	001028f3          	frflags	a7
    1068:	3cd7a827          	fsw	fa3,976(a5)
    106c:	3d17aa23          	sw	a7,980(a5)

00001070 <inst_123>:
    1070:	5c482507          	flw	fa0,1476(a6)
    1074:	5c882587          	flw	fa1,1480(a6)
    1078:	5cc82607          	flw	fa2,1484(a6)
    107c:	00205073          	fsrmi	zero,0
    1080:	60b576c7          	fmsub.s	fa3,fa0,fa1,fa2
    1084:	001028f3          	frflags	a7
    1088:	3cd7ac27          	fsw	fa3,984(a5)
    108c:	3d17ae23          	sw	a7,988(a5)

00001090 <inst_124>:
    1090:	5d082507          	flw	fa0,1488(a6)
    1094:	5d482587          	flw	fa1,1492(a6)
    1098:	5d882607          	flw	fa2,1496(a6)
    109c:	00205073          	fsrmi	zero,0
    10a0:	60b576c7          	fmsub.s	fa3,fa0,fa1,fa2
    10a4:	001028f3          	frflags	a7
    10a8:	3ed7a027          	fsw	fa3,992(a5)
    10ac:	3f17a223          	sw	a7,996(a5)

000010b0 <inst_125>:
    10b0:	5dc82507          	flw	fa0,1500(a6)
    10b4:	5e082587          	flw	fa1,1504(a6)
    10b8:	5e482607          	flw	fa2,1508(a6)
    10bc:	00205073          	fsrmi	zero,0
    10c0:	60b576c7          	fmsub.s	fa3,fa0,fa1,fa2
    10c4:	001028f3          	frflags	a7
    10c8:	3ed7a427          	fsw	fa3,1000(a5)
    10cc:	3f17a623          	sw	a7,1004(a5)

000010d0 <inst_126>:
    10d0:	5e882507          	flw	fa0,1512(a6)
    10d4:	5ec82587          	flw	fa1,1516(a6)
    10d8:	5f082607          	flw	fa2,1520(a6)
    10dc:	00205073          	fsrmi	zero,0
    10e0:	60b576c7          	fmsub.s	fa3,fa0,fa1,fa2
    10e4:	001028f3          	frflags	a7
    10e8:	3ed7a827          	fsw	fa3,1008(a5)
    10ec:	3f17aa23          	sw	a7,1012(a5)

000010f0 <inst_127>:
    10f0:	5f482507          	flw	fa0,1524(a6)
    10f4:	5f882587          	flw	fa1,1528(a6)
    10f8:	5fc82607          	flw	fa2,1532(a6)
    10fc:	00205073          	fsrmi	zero,0
    1100:	60b576c7          	fmsub.s	fa3,fa0,fa1,fa2
    1104:	001028f3          	frflags	a7
    1108:	3ed7ac27          	fsw	fa3,1016(a5)
    110c:	3f17ae23          	sw	a7,1020(a5)

00001110 <inst_128>:
    1110:	60082507          	flw	fa0,1536(a6)
    1114:	60482587          	flw	fa1,1540(a6)
    1118:	60882607          	flw	fa2,1544(a6)
    111c:	00205073          	fsrmi	zero,0
    1120:	60b576c7          	fmsub.s	fa3,fa0,fa1,fa2
    1124:	001028f3          	frflags	a7
    1128:	40d7a027          	fsw	fa3,1024(a5)
    112c:	4117a223          	sw	a7,1028(a5)

00001130 <inst_129>:
    1130:	60c82507          	flw	fa0,1548(a6)
    1134:	61082587          	flw	fa1,1552(a6)
    1138:	61482607          	flw	fa2,1556(a6)
    113c:	00205073          	fsrmi	zero,0
    1140:	60b576c7          	fmsub.s	fa3,fa0,fa1,fa2
    1144:	001028f3          	frflags	a7
    1148:	40d7a427          	fsw	fa3,1032(a5)
    114c:	4117a623          	sw	a7,1036(a5)

00001150 <inst_130>:
    1150:	61882507          	flw	fa0,1560(a6)
    1154:	61c82587          	flw	fa1,1564(a6)
    1158:	62082607          	flw	fa2,1568(a6)
    115c:	00205073          	fsrmi	zero,0
    1160:	60b576c7          	fmsub.s	fa3,fa0,fa1,fa2
    1164:	001028f3          	frflags	a7
    1168:	40d7a827          	fsw	fa3,1040(a5)
    116c:	4117aa23          	sw	a7,1044(a5)

00001170 <inst_131>:
    1170:	62482507          	flw	fa0,1572(a6)
    1174:	62882587          	flw	fa1,1576(a6)
    1178:	62c82607          	flw	fa2,1580(a6)
    117c:	00205073          	fsrmi	zero,0
    1180:	60b576c7          	fmsub.s	fa3,fa0,fa1,fa2
    1184:	001028f3          	frflags	a7
    1188:	40d7ac27          	fsw	fa3,1048(a5)
    118c:	4117ae23          	sw	a7,1052(a5)

00001190 <inst_132>:
    1190:	63082507          	flw	fa0,1584(a6)
    1194:	63482587          	flw	fa1,1588(a6)
    1198:	63882607          	flw	fa2,1592(a6)
    119c:	00205073          	fsrmi	zero,0
    11a0:	60b576c7          	fmsub.s	fa3,fa0,fa1,fa2
    11a4:	001028f3          	frflags	a7
    11a8:	42d7a027          	fsw	fa3,1056(a5)
    11ac:	4317a223          	sw	a7,1060(a5)

000011b0 <inst_133>:
    11b0:	63c82507          	flw	fa0,1596(a6)
    11b4:	64082587          	flw	fa1,1600(a6)
    11b8:	64482607          	flw	fa2,1604(a6)
    11bc:	00205073          	fsrmi	zero,0
    11c0:	60b576c7          	fmsub.s	fa3,fa0,fa1,fa2
    11c4:	001028f3          	frflags	a7
    11c8:	42d7a427          	fsw	fa3,1064(a5)
    11cc:	4317a623          	sw	a7,1068(a5)

000011d0 <inst_134>:
    11d0:	64882507          	flw	fa0,1608(a6)
    11d4:	64c82587          	flw	fa1,1612(a6)
    11d8:	65082607          	flw	fa2,1616(a6)
    11dc:	00205073          	fsrmi	zero,0
    11e0:	60b576c7          	fmsub.s	fa3,fa0,fa1,fa2
    11e4:	001028f3          	frflags	a7
    11e8:	42d7a827          	fsw	fa3,1072(a5)
    11ec:	4317aa23          	sw	a7,1076(a5)

000011f0 <inst_135>:
    11f0:	65482507          	flw	fa0,1620(a6)
    11f4:	65882587          	flw	fa1,1624(a6)
    11f8:	65c82607          	flw	fa2,1628(a6)
    11fc:	00205073          	fsrmi	zero,0
    1200:	60b576c7          	fmsub.s	fa3,fa0,fa1,fa2
    1204:	001028f3          	frflags	a7
    1208:	42d7ac27          	fsw	fa3,1080(a5)
    120c:	4317ae23          	sw	a7,1084(a5)

00001210 <inst_136>:
    1210:	66082507          	flw	fa0,1632(a6)
    1214:	66482587          	flw	fa1,1636(a6)
    1218:	66882607          	flw	fa2,1640(a6)
    121c:	00205073          	fsrmi	zero,0
    1220:	60b576c7          	fmsub.s	fa3,fa0,fa1,fa2
    1224:	001028f3          	frflags	a7
    1228:	44d7a027          	fsw	fa3,1088(a5)
    122c:	4517a223          	sw	a7,1092(a5)

00001230 <inst_137>:
    1230:	66c82507          	flw	fa0,1644(a6)
    1234:	67082587          	flw	fa1,1648(a6)
    1238:	67482607          	flw	fa2,1652(a6)
    123c:	00205073          	fsrmi	zero,0
    1240:	60b576c7          	fmsub.s	fa3,fa0,fa1,fa2
    1244:	001028f3          	frflags	a7
    1248:	44d7a427          	fsw	fa3,1096(a5)
    124c:	4517a623          	sw	a7,1100(a5)

00001250 <inst_138>:
    1250:	67882507          	flw	fa0,1656(a6)
    1254:	67c82587          	flw	fa1,1660(a6)
    1258:	68082607          	flw	fa2,1664(a6)
    125c:	00205073          	fsrmi	zero,0
    1260:	60b576c7          	fmsub.s	fa3,fa0,fa1,fa2
    1264:	001028f3          	frflags	a7
    1268:	44d7a827          	fsw	fa3,1104(a5)
    126c:	4517aa23          	sw	a7,1108(a5)

00001270 <inst_139>:
    1270:	68482507          	flw	fa0,1668(a6)
    1274:	68882587          	flw	fa1,1672(a6)
    1278:	68c82607          	flw	fa2,1676(a6)
    127c:	00205073          	fsrmi	zero,0
    1280:	60b576c7          	fmsub.s	fa3,fa0,fa1,fa2
    1284:	001028f3          	frflags	a7
    1288:	44d7ac27          	fsw	fa3,1112(a5)
    128c:	4517ae23          	sw	a7,1116(a5)

00001290 <inst_140>:
    1290:	69082507          	flw	fa0,1680(a6)
    1294:	69482587          	flw	fa1,1684(a6)
    1298:	69882607          	flw	fa2,1688(a6)
    129c:	00205073          	fsrmi	zero,0
    12a0:	60b576c7          	fmsub.s	fa3,fa0,fa1,fa2
    12a4:	001028f3          	frflags	a7
    12a8:	46d7a027          	fsw	fa3,1120(a5)
    12ac:	4717a223          	sw	a7,1124(a5)

000012b0 <inst_141>:
    12b0:	69c82507          	flw	fa0,1692(a6)
    12b4:	6a082587          	flw	fa1,1696(a6)
    12b8:	6a482607          	flw	fa2,1700(a6)
    12bc:	00205073          	fsrmi	zero,0
    12c0:	60b576c7          	fmsub.s	fa3,fa0,fa1,fa2
    12c4:	001028f3          	frflags	a7
    12c8:	46d7a427          	fsw	fa3,1128(a5)
    12cc:	4717a623          	sw	a7,1132(a5)

000012d0 <inst_142>:
    12d0:	6a882507          	flw	fa0,1704(a6)
    12d4:	6ac82587          	flw	fa1,1708(a6)
    12d8:	6b082607          	flw	fa2,1712(a6)
    12dc:	00205073          	fsrmi	zero,0
    12e0:	60b576c7          	fmsub.s	fa3,fa0,fa1,fa2
    12e4:	001028f3          	frflags	a7
    12e8:	46d7a827          	fsw	fa3,1136(a5)
    12ec:	4717aa23          	sw	a7,1140(a5)

000012f0 <inst_143>:
    12f0:	6b482507          	flw	fa0,1716(a6)
    12f4:	6b882587          	flw	fa1,1720(a6)
    12f8:	6bc82607          	flw	fa2,1724(a6)
    12fc:	00205073          	fsrmi	zero,0
    1300:	60b576c7          	fmsub.s	fa3,fa0,fa1,fa2
    1304:	001028f3          	frflags	a7
    1308:	46d7ac27          	fsw	fa3,1144(a5)
    130c:	4717ae23          	sw	a7,1148(a5)

00001310 <inst_144>:
    1310:	6c082507          	flw	fa0,1728(a6)
    1314:	6c482587          	flw	fa1,1732(a6)
    1318:	6c882607          	flw	fa2,1736(a6)
    131c:	00205073          	fsrmi	zero,0
    1320:	60b576c7          	fmsub.s	fa3,fa0,fa1,fa2
    1324:	001028f3          	frflags	a7
    1328:	48d7a027          	fsw	fa3,1152(a5)
    132c:	4917a223          	sw	a7,1156(a5)

00001330 <inst_145>:
    1330:	6cc82507          	flw	fa0,1740(a6)
    1334:	6d082587          	flw	fa1,1744(a6)
    1338:	6d482607          	flw	fa2,1748(a6)
    133c:	00205073          	fsrmi	zero,0
    1340:	60b576c7          	fmsub.s	fa3,fa0,fa1,fa2
    1344:	001028f3          	frflags	a7
    1348:	48d7a427          	fsw	fa3,1160(a5)
    134c:	4917a623          	sw	a7,1164(a5)

00001350 <inst_146>:
    1350:	6d882507          	flw	fa0,1752(a6)
    1354:	6dc82587          	flw	fa1,1756(a6)
    1358:	6e082607          	flw	fa2,1760(a6)
    135c:	00205073          	fsrmi	zero,0
    1360:	60b576c7          	fmsub.s	fa3,fa0,fa1,fa2
    1364:	001028f3          	frflags	a7
    1368:	48d7a827          	fsw	fa3,1168(a5)
    136c:	4917aa23          	sw	a7,1172(a5)

00001370 <inst_147>:
    1370:	6e482507          	flw	fa0,1764(a6)
    1374:	6e882587          	flw	fa1,1768(a6)
    1378:	6ec82607          	flw	fa2,1772(a6)
    137c:	00205073          	fsrmi	zero,0
    1380:	60b576c7          	fmsub.s	fa3,fa0,fa1,fa2
    1384:	001028f3          	frflags	a7
    1388:	48d7ac27          	fsw	fa3,1176(a5)
    138c:	4917ae23          	sw	a7,1180(a5)

00001390 <inst_148>:
    1390:	6f082507          	flw	fa0,1776(a6)
    1394:	6f482587          	flw	fa1,1780(a6)
    1398:	6f882607          	flw	fa2,1784(a6)
    139c:	00205073          	fsrmi	zero,0
    13a0:	60b576c7          	fmsub.s	fa3,fa0,fa1,fa2
    13a4:	001028f3          	frflags	a7
    13a8:	4ad7a027          	fsw	fa3,1184(a5)
    13ac:	4b17a223          	sw	a7,1188(a5)

000013b0 <inst_149>:
    13b0:	6fc82507          	flw	fa0,1788(a6)
    13b4:	70082587          	flw	fa1,1792(a6)
    13b8:	70482607          	flw	fa2,1796(a6)
    13bc:	00205073          	fsrmi	zero,0
    13c0:	60b576c7          	fmsub.s	fa3,fa0,fa1,fa2
    13c4:	001028f3          	frflags	a7
    13c8:	4ad7a427          	fsw	fa3,1192(a5)
    13cc:	4b17a623          	sw	a7,1196(a5)

000013d0 <inst_150>:
    13d0:	70882507          	flw	fa0,1800(a6)
    13d4:	70c82587          	flw	fa1,1804(a6)
    13d8:	71082607          	flw	fa2,1808(a6)
    13dc:	00205073          	fsrmi	zero,0
    13e0:	60b576c7          	fmsub.s	fa3,fa0,fa1,fa2
    13e4:	001028f3          	frflags	a7
    13e8:	4ad7a827          	fsw	fa3,1200(a5)
    13ec:	4b17aa23          	sw	a7,1204(a5)

000013f0 <inst_151>:
    13f0:	71482507          	flw	fa0,1812(a6)
    13f4:	71882587          	flw	fa1,1816(a6)
    13f8:	71c82607          	flw	fa2,1820(a6)
    13fc:	00205073          	fsrmi	zero,0
    1400:	60b576c7          	fmsub.s	fa3,fa0,fa1,fa2
    1404:	001028f3          	frflags	a7
    1408:	4ad7ac27          	fsw	fa3,1208(a5)
    140c:	4b17ae23          	sw	a7,1212(a5)

00001410 <inst_152>:
    1410:	72082507          	flw	fa0,1824(a6)
    1414:	72482587          	flw	fa1,1828(a6)
    1418:	72882607          	flw	fa2,1832(a6)
    141c:	00205073          	fsrmi	zero,0
    1420:	60b576c7          	fmsub.s	fa3,fa0,fa1,fa2
    1424:	001028f3          	frflags	a7
    1428:	4cd7a027          	fsw	fa3,1216(a5)
    142c:	4d17a223          	sw	a7,1220(a5)

00001430 <inst_153>:
    1430:	72c82507          	flw	fa0,1836(a6)
    1434:	73082587          	flw	fa1,1840(a6)
    1438:	73482607          	flw	fa2,1844(a6)
    143c:	00205073          	fsrmi	zero,0
    1440:	60b576c7          	fmsub.s	fa3,fa0,fa1,fa2
    1444:	001028f3          	frflags	a7
    1448:	4cd7a427          	fsw	fa3,1224(a5)
    144c:	4d17a623          	sw	a7,1228(a5)

00001450 <inst_154>:
    1450:	73882507          	flw	fa0,1848(a6)
    1454:	73c82587          	flw	fa1,1852(a6)
    1458:	74082607          	flw	fa2,1856(a6)
    145c:	00205073          	fsrmi	zero,0
    1460:	60b576c7          	fmsub.s	fa3,fa0,fa1,fa2
    1464:	001028f3          	frflags	a7
    1468:	4cd7a827          	fsw	fa3,1232(a5)
    146c:	4d17aa23          	sw	a7,1236(a5)

00001470 <inst_155>:
    1470:	74482507          	flw	fa0,1860(a6)
    1474:	74882587          	flw	fa1,1864(a6)
    1478:	74c82607          	flw	fa2,1868(a6)
    147c:	00205073          	fsrmi	zero,0
    1480:	60b576c7          	fmsub.s	fa3,fa0,fa1,fa2
    1484:	001028f3          	frflags	a7
    1488:	4cd7ac27          	fsw	fa3,1240(a5)
    148c:	4d17ae23          	sw	a7,1244(a5)

00001490 <inst_156>:
    1490:	75082507          	flw	fa0,1872(a6)
    1494:	75482587          	flw	fa1,1876(a6)
    1498:	75882607          	flw	fa2,1880(a6)
    149c:	00205073          	fsrmi	zero,0
    14a0:	60b576c7          	fmsub.s	fa3,fa0,fa1,fa2
    14a4:	001028f3          	frflags	a7
    14a8:	4ed7a027          	fsw	fa3,1248(a5)
    14ac:	4f17a223          	sw	a7,1252(a5)

000014b0 <inst_157>:
    14b0:	75c82507          	flw	fa0,1884(a6)
    14b4:	76082587          	flw	fa1,1888(a6)
    14b8:	76482607          	flw	fa2,1892(a6)
    14bc:	00205073          	fsrmi	zero,0
    14c0:	60b576c7          	fmsub.s	fa3,fa0,fa1,fa2
    14c4:	001028f3          	frflags	a7
    14c8:	4ed7a427          	fsw	fa3,1256(a5)
    14cc:	4f17a623          	sw	a7,1260(a5)

000014d0 <inst_158>:
    14d0:	76882507          	flw	fa0,1896(a6)
    14d4:	76c82587          	flw	fa1,1900(a6)
    14d8:	77082607          	flw	fa2,1904(a6)
    14dc:	00205073          	fsrmi	zero,0
    14e0:	60b576c7          	fmsub.s	fa3,fa0,fa1,fa2
    14e4:	001028f3          	frflags	a7
    14e8:	4ed7a827          	fsw	fa3,1264(a5)
    14ec:	4f17aa23          	sw	a7,1268(a5)

000014f0 <inst_159>:
    14f0:	77482507          	flw	fa0,1908(a6)
    14f4:	77882587          	flw	fa1,1912(a6)
    14f8:	77c82607          	flw	fa2,1916(a6)
    14fc:	00205073          	fsrmi	zero,0
    1500:	60b576c7          	fmsub.s	fa3,fa0,fa1,fa2
    1504:	001028f3          	frflags	a7
    1508:	4ed7ac27          	fsw	fa3,1272(a5)
    150c:	4f17ae23          	sw	a7,1276(a5)

00001510 <inst_160>:
    1510:	78082507          	flw	fa0,1920(a6)
    1514:	78482587          	flw	fa1,1924(a6)
    1518:	78882607          	flw	fa2,1928(a6)
    151c:	00205073          	fsrmi	zero,0
    1520:	60b576c7          	fmsub.s	fa3,fa0,fa1,fa2
    1524:	001028f3          	frflags	a7
    1528:	50d7a027          	fsw	fa3,1280(a5)
    152c:	5117a223          	sw	a7,1284(a5)

00001530 <inst_161>:
    1530:	78c82507          	flw	fa0,1932(a6)
    1534:	79082587          	flw	fa1,1936(a6)
    1538:	79482607          	flw	fa2,1940(a6)
    153c:	00205073          	fsrmi	zero,0
    1540:	60b576c7          	fmsub.s	fa3,fa0,fa1,fa2
    1544:	001028f3          	frflags	a7
    1548:	50d7a427          	fsw	fa3,1288(a5)
    154c:	5117a623          	sw	a7,1292(a5)

00001550 <inst_162>:
    1550:	79882507          	flw	fa0,1944(a6)
    1554:	79c82587          	flw	fa1,1948(a6)
    1558:	7a082607          	flw	fa2,1952(a6)
    155c:	00205073          	fsrmi	zero,0
    1560:	60b576c7          	fmsub.s	fa3,fa0,fa1,fa2
    1564:	001028f3          	frflags	a7
    1568:	50d7a827          	fsw	fa3,1296(a5)
    156c:	5117aa23          	sw	a7,1300(a5)

00001570 <inst_163>:
    1570:	7a482507          	flw	fa0,1956(a6)
    1574:	7a882587          	flw	fa1,1960(a6)
    1578:	7ac82607          	flw	fa2,1964(a6)
    157c:	00205073          	fsrmi	zero,0
    1580:	60b576c7          	fmsub.s	fa3,fa0,fa1,fa2
    1584:	001028f3          	frflags	a7
    1588:	50d7ac27          	fsw	fa3,1304(a5)
    158c:	5117ae23          	sw	a7,1308(a5)

00001590 <inst_164>:
    1590:	7b082507          	flw	fa0,1968(a6)
    1594:	7b482587          	flw	fa1,1972(a6)
    1598:	7b882607          	flw	fa2,1976(a6)
    159c:	00205073          	fsrmi	zero,0
    15a0:	60b576c7          	fmsub.s	fa3,fa0,fa1,fa2
    15a4:	001028f3          	frflags	a7
    15a8:	52d7a027          	fsw	fa3,1312(a5)
    15ac:	5317a223          	sw	a7,1316(a5)

000015b0 <inst_165>:
    15b0:	7bc82507          	flw	fa0,1980(a6)
    15b4:	7c082587          	flw	fa1,1984(a6)
    15b8:	7c482607          	flw	fa2,1988(a6)
    15bc:	00205073          	fsrmi	zero,0
    15c0:	60b576c7          	fmsub.s	fa3,fa0,fa1,fa2
    15c4:	001028f3          	frflags	a7
    15c8:	52d7a427          	fsw	fa3,1320(a5)
    15cc:	5317a623          	sw	a7,1324(a5)

000015d0 <inst_166>:
    15d0:	7c882507          	flw	fa0,1992(a6)
    15d4:	7cc82587          	flw	fa1,1996(a6)
    15d8:	7d082607          	flw	fa2,2000(a6)
    15dc:	00205073          	fsrmi	zero,0
    15e0:	60b576c7          	fmsub.s	fa3,fa0,fa1,fa2
    15e4:	001028f3          	frflags	a7
    15e8:	52d7a827          	fsw	fa3,1328(a5)
    15ec:	5317aa23          	sw	a7,1332(a5)

000015f0 <inst_167>:
    15f0:	7d482507          	flw	fa0,2004(a6)
    15f4:	7d882587          	flw	fa1,2008(a6)
    15f8:	7dc82607          	flw	fa2,2012(a6)
    15fc:	00205073          	fsrmi	zero,0
    1600:	60b576c7          	fmsub.s	fa3,fa0,fa1,fa2
    1604:	001028f3          	frflags	a7
    1608:	52d7ac27          	fsw	fa3,1336(a5)
    160c:	5317ae23          	sw	a7,1340(a5)

00001610 <inst_168>:
    1610:	7e082507          	flw	fa0,2016(a6)
    1614:	7e482587          	flw	fa1,2020(a6)
    1618:	7e882607          	flw	fa2,2024(a6)
    161c:	00205073          	fsrmi	zero,0
    1620:	60b576c7          	fmsub.s	fa3,fa0,fa1,fa2
    1624:	001028f3          	frflags	a7
    1628:	54d7a027          	fsw	fa3,1344(a5)
    162c:	5517a223          	sw	a7,1348(a5)

00001630 <inst_169>:
    1630:	7ec82507          	flw	fa0,2028(a6)
    1634:	7f082587          	flw	fa1,2032(a6)
    1638:	7f482607          	flw	fa2,2036(a6)
    163c:	00205073          	fsrmi	zero,0
    1640:	60b576c7          	fmsub.s	fa3,fa0,fa1,fa2
    1644:	001028f3          	frflags	a7
    1648:	54d7a427          	fsw	fa3,1352(a5)
    164c:	5517a623          	sw	a7,1356(a5)
    1650:	7f880813          	add	a6,a6,2040

00001654 <inst_170>:
    1654:	00082507          	flw	fa0,0(a6)
    1658:	00482587          	flw	fa1,4(a6)
    165c:	00882607          	flw	fa2,8(a6)
    1660:	00205073          	fsrmi	zero,0
    1664:	60b576c7          	fmsub.s	fa3,fa0,fa1,fa2
    1668:	001028f3          	frflags	a7
    166c:	54d7a827          	fsw	fa3,1360(a5)
    1670:	5517aa23          	sw	a7,1364(a5)

00001674 <inst_171>:
    1674:	00c82507          	flw	fa0,12(a6)
    1678:	01082587          	flw	fa1,16(a6)
    167c:	01482607          	flw	fa2,20(a6)
    1680:	00205073          	fsrmi	zero,0
    1684:	60b576c7          	fmsub.s	fa3,fa0,fa1,fa2
    1688:	001028f3          	frflags	a7
    168c:	54d7ac27          	fsw	fa3,1368(a5)
    1690:	5517ae23          	sw	a7,1372(a5)

00001694 <inst_172>:
    1694:	01882507          	flw	fa0,24(a6)
    1698:	01c82587          	flw	fa1,28(a6)
    169c:	02082607          	flw	fa2,32(a6)
    16a0:	00205073          	fsrmi	zero,0
    16a4:	60b576c7          	fmsub.s	fa3,fa0,fa1,fa2
    16a8:	001028f3          	frflags	a7
    16ac:	56d7a027          	fsw	fa3,1376(a5)
    16b0:	5717a223          	sw	a7,1380(a5)

000016b4 <inst_173>:
    16b4:	02482507          	flw	fa0,36(a6)
    16b8:	02882587          	flw	fa1,40(a6)
    16bc:	02c82607          	flw	fa2,44(a6)
    16c0:	00205073          	fsrmi	zero,0
    16c4:	60b576c7          	fmsub.s	fa3,fa0,fa1,fa2
    16c8:	001028f3          	frflags	a7
    16cc:	56d7a427          	fsw	fa3,1384(a5)
    16d0:	5717a623          	sw	a7,1388(a5)

000016d4 <inst_174>:
    16d4:	03082507          	flw	fa0,48(a6)
    16d8:	03482587          	flw	fa1,52(a6)
    16dc:	03882607          	flw	fa2,56(a6)
    16e0:	00205073          	fsrmi	zero,0
    16e4:	60b576c7          	fmsub.s	fa3,fa0,fa1,fa2
    16e8:	001028f3          	frflags	a7
    16ec:	56d7a827          	fsw	fa3,1392(a5)
    16f0:	5717aa23          	sw	a7,1396(a5)

000016f4 <inst_175>:
    16f4:	03c82507          	flw	fa0,60(a6)
    16f8:	04082587          	flw	fa1,64(a6)
    16fc:	04482607          	flw	fa2,68(a6)
    1700:	00205073          	fsrmi	zero,0
    1704:	60b576c7          	fmsub.s	fa3,fa0,fa1,fa2
    1708:	001028f3          	frflags	a7
    170c:	56d7ac27          	fsw	fa3,1400(a5)
    1710:	5717ae23          	sw	a7,1404(a5)

00001714 <inst_176>:
    1714:	04882507          	flw	fa0,72(a6)
    1718:	04c82587          	flw	fa1,76(a6)
    171c:	05082607          	flw	fa2,80(a6)
    1720:	00205073          	fsrmi	zero,0
    1724:	60b576c7          	fmsub.s	fa3,fa0,fa1,fa2
    1728:	001028f3          	frflags	a7
    172c:	58d7a027          	fsw	fa3,1408(a5)
    1730:	5917a223          	sw	a7,1412(a5)

00001734 <inst_177>:
    1734:	05482507          	flw	fa0,84(a6)
    1738:	05882587          	flw	fa1,88(a6)
    173c:	05c82607          	flw	fa2,92(a6)
    1740:	00205073          	fsrmi	zero,0
    1744:	60b576c7          	fmsub.s	fa3,fa0,fa1,fa2
    1748:	001028f3          	frflags	a7
    174c:	58d7a427          	fsw	fa3,1416(a5)
    1750:	5917a623          	sw	a7,1420(a5)

00001754 <inst_178>:
    1754:	06082507          	flw	fa0,96(a6)
    1758:	06482587          	flw	fa1,100(a6)
    175c:	06882607          	flw	fa2,104(a6)
    1760:	00205073          	fsrmi	zero,0
    1764:	60b576c7          	fmsub.s	fa3,fa0,fa1,fa2
    1768:	001028f3          	frflags	a7
    176c:	58d7a827          	fsw	fa3,1424(a5)
    1770:	5917aa23          	sw	a7,1428(a5)

00001774 <inst_179>:
    1774:	06c82507          	flw	fa0,108(a6)
    1778:	07082587          	flw	fa1,112(a6)
    177c:	07482607          	flw	fa2,116(a6)
    1780:	00205073          	fsrmi	zero,0
    1784:	60b576c7          	fmsub.s	fa3,fa0,fa1,fa2
    1788:	001028f3          	frflags	a7
    178c:	58d7ac27          	fsw	fa3,1432(a5)
    1790:	5917ae23          	sw	a7,1436(a5)

00001794 <inst_180>:
    1794:	07882507          	flw	fa0,120(a6)
    1798:	07c82587          	flw	fa1,124(a6)
    179c:	08082607          	flw	fa2,128(a6)
    17a0:	00205073          	fsrmi	zero,0
    17a4:	60b576c7          	fmsub.s	fa3,fa0,fa1,fa2
    17a8:	001028f3          	frflags	a7
    17ac:	5ad7a027          	fsw	fa3,1440(a5)
    17b0:	5b17a223          	sw	a7,1444(a5)

000017b4 <inst_181>:
    17b4:	08482507          	flw	fa0,132(a6)
    17b8:	08882587          	flw	fa1,136(a6)
    17bc:	08c82607          	flw	fa2,140(a6)
    17c0:	00205073          	fsrmi	zero,0
    17c4:	60b576c7          	fmsub.s	fa3,fa0,fa1,fa2
    17c8:	001028f3          	frflags	a7
    17cc:	5ad7a427          	fsw	fa3,1448(a5)
    17d0:	5b17a623          	sw	a7,1452(a5)

000017d4 <inst_182>:
    17d4:	09082507          	flw	fa0,144(a6)
    17d8:	09482587          	flw	fa1,148(a6)
    17dc:	09882607          	flw	fa2,152(a6)
    17e0:	00205073          	fsrmi	zero,0
    17e4:	60b576c7          	fmsub.s	fa3,fa0,fa1,fa2
    17e8:	001028f3          	frflags	a7
    17ec:	5ad7a827          	fsw	fa3,1456(a5)
    17f0:	5b17aa23          	sw	a7,1460(a5)

000017f4 <inst_183>:
    17f4:	09c82507          	flw	fa0,156(a6)
    17f8:	0a082587          	flw	fa1,160(a6)
    17fc:	0a482607          	flw	fa2,164(a6)
    1800:	00205073          	fsrmi	zero,0
    1804:	60b576c7          	fmsub.s	fa3,fa0,fa1,fa2
    1808:	001028f3          	frflags	a7
    180c:	5ad7ac27          	fsw	fa3,1464(a5)
    1810:	5b17ae23          	sw	a7,1468(a5)

00001814 <inst_184>:
    1814:	0a882507          	flw	fa0,168(a6)
    1818:	0ac82587          	flw	fa1,172(a6)
    181c:	0b082607          	flw	fa2,176(a6)
    1820:	00205073          	fsrmi	zero,0
    1824:	60b576c7          	fmsub.s	fa3,fa0,fa1,fa2
    1828:	001028f3          	frflags	a7
    182c:	5cd7a027          	fsw	fa3,1472(a5)
    1830:	5d17a223          	sw	a7,1476(a5)

00001834 <inst_185>:
    1834:	0b482507          	flw	fa0,180(a6)
    1838:	0b882587          	flw	fa1,184(a6)
    183c:	0bc82607          	flw	fa2,188(a6)
    1840:	00205073          	fsrmi	zero,0
    1844:	60b576c7          	fmsub.s	fa3,fa0,fa1,fa2
    1848:	001028f3          	frflags	a7
    184c:	5cd7a427          	fsw	fa3,1480(a5)
    1850:	5d17a623          	sw	a7,1484(a5)

00001854 <inst_186>:
    1854:	0c082507          	flw	fa0,192(a6)
    1858:	0c482587          	flw	fa1,196(a6)
    185c:	0c882607          	flw	fa2,200(a6)
    1860:	00205073          	fsrmi	zero,0
    1864:	60b576c7          	fmsub.s	fa3,fa0,fa1,fa2
    1868:	001028f3          	frflags	a7
    186c:	5cd7a827          	fsw	fa3,1488(a5)
    1870:	5d17aa23          	sw	a7,1492(a5)

00001874 <inst_187>:
    1874:	0cc82507          	flw	fa0,204(a6)
    1878:	0d082587          	flw	fa1,208(a6)
    187c:	0d482607          	flw	fa2,212(a6)
    1880:	00205073          	fsrmi	zero,0
    1884:	60b576c7          	fmsub.s	fa3,fa0,fa1,fa2
    1888:	001028f3          	frflags	a7
    188c:	5cd7ac27          	fsw	fa3,1496(a5)
    1890:	5d17ae23          	sw	a7,1500(a5)

00001894 <inst_188>:
    1894:	0d882507          	flw	fa0,216(a6)
    1898:	0dc82587          	flw	fa1,220(a6)
    189c:	0e082607          	flw	fa2,224(a6)
    18a0:	00205073          	fsrmi	zero,0
    18a4:	60b576c7          	fmsub.s	fa3,fa0,fa1,fa2
    18a8:	001028f3          	frflags	a7
    18ac:	5ed7a027          	fsw	fa3,1504(a5)
    18b0:	5f17a223          	sw	a7,1508(a5)

000018b4 <inst_189>:
    18b4:	0e482507          	flw	fa0,228(a6)
    18b8:	0e882587          	flw	fa1,232(a6)
    18bc:	0ec82607          	flw	fa2,236(a6)
    18c0:	00205073          	fsrmi	zero,0
    18c4:	60b576c7          	fmsub.s	fa3,fa0,fa1,fa2
    18c8:	001028f3          	frflags	a7
    18cc:	5ed7a427          	fsw	fa3,1512(a5)
    18d0:	5f17a623          	sw	a7,1516(a5)

000018d4 <inst_190>:
    18d4:	0f082507          	flw	fa0,240(a6)
    18d8:	0f482587          	flw	fa1,244(a6)
    18dc:	0f882607          	flw	fa2,248(a6)
    18e0:	00205073          	fsrmi	zero,0
    18e4:	60b576c7          	fmsub.s	fa3,fa0,fa1,fa2
    18e8:	001028f3          	frflags	a7
    18ec:	5ed7a827          	fsw	fa3,1520(a5)
    18f0:	5f17aa23          	sw	a7,1524(a5)

000018f4 <inst_191>:
    18f4:	0fc82507          	flw	fa0,252(a6)
    18f8:	10082587          	flw	fa1,256(a6)
    18fc:	10482607          	flw	fa2,260(a6)
    1900:	00205073          	fsrmi	zero,0
    1904:	60b576c7          	fmsub.s	fa3,fa0,fa1,fa2
    1908:	001028f3          	frflags	a7
    190c:	5ed7ac27          	fsw	fa3,1528(a5)
    1910:	5f17ae23          	sw	a7,1532(a5)

00001914 <inst_192>:
    1914:	10882507          	flw	fa0,264(a6)
    1918:	10c82587          	flw	fa1,268(a6)
    191c:	11082607          	flw	fa2,272(a6)
    1920:	00205073          	fsrmi	zero,0
    1924:	60b576c7          	fmsub.s	fa3,fa0,fa1,fa2
    1928:	001028f3          	frflags	a7
    192c:	60d7a027          	fsw	fa3,1536(a5)
    1930:	6117a223          	sw	a7,1540(a5)

00001934 <inst_193>:
    1934:	11482507          	flw	fa0,276(a6)
    1938:	11882587          	flw	fa1,280(a6)
    193c:	11c82607          	flw	fa2,284(a6)
    1940:	00205073          	fsrmi	zero,0
    1944:	60b576c7          	fmsub.s	fa3,fa0,fa1,fa2
    1948:	001028f3          	frflags	a7
    194c:	60d7a427          	fsw	fa3,1544(a5)
    1950:	6117a623          	sw	a7,1548(a5)

00001954 <inst_194>:
    1954:	12082507          	flw	fa0,288(a6)
    1958:	12482587          	flw	fa1,292(a6)
    195c:	12882607          	flw	fa2,296(a6)
    1960:	00205073          	fsrmi	zero,0
    1964:	60b576c7          	fmsub.s	fa3,fa0,fa1,fa2
    1968:	001028f3          	frflags	a7
    196c:	60d7a827          	fsw	fa3,1552(a5)
    1970:	6117aa23          	sw	a7,1556(a5)

00001974 <inst_195>:
    1974:	12c82507          	flw	fa0,300(a6)
    1978:	13082587          	flw	fa1,304(a6)
    197c:	13482607          	flw	fa2,308(a6)
    1980:	00205073          	fsrmi	zero,0
    1984:	60b576c7          	fmsub.s	fa3,fa0,fa1,fa2
    1988:	001028f3          	frflags	a7
    198c:	60d7ac27          	fsw	fa3,1560(a5)
    1990:	6117ae23          	sw	a7,1564(a5)

00001994 <inst_196>:
    1994:	13882507          	flw	fa0,312(a6)
    1998:	13c82587          	flw	fa1,316(a6)
    199c:	14082607          	flw	fa2,320(a6)
    19a0:	00205073          	fsrmi	zero,0
    19a4:	60b576c7          	fmsub.s	fa3,fa0,fa1,fa2
    19a8:	001028f3          	frflags	a7
    19ac:	62d7a027          	fsw	fa3,1568(a5)
    19b0:	6317a223          	sw	a7,1572(a5)

000019b4 <inst_197>:
    19b4:	14482507          	flw	fa0,324(a6)
    19b8:	14882587          	flw	fa1,328(a6)
    19bc:	14c82607          	flw	fa2,332(a6)
    19c0:	00205073          	fsrmi	zero,0
    19c4:	60b576c7          	fmsub.s	fa3,fa0,fa1,fa2
    19c8:	001028f3          	frflags	a7
    19cc:	62d7a427          	fsw	fa3,1576(a5)
    19d0:	6317a623          	sw	a7,1580(a5)

000019d4 <inst_198>:
    19d4:	15082507          	flw	fa0,336(a6)
    19d8:	15482587          	flw	fa1,340(a6)
    19dc:	15882607          	flw	fa2,344(a6)
    19e0:	00205073          	fsrmi	zero,0
    19e4:	60b576c7          	fmsub.s	fa3,fa0,fa1,fa2
    19e8:	001028f3          	frflags	a7
    19ec:	62d7a827          	fsw	fa3,1584(a5)
    19f0:	6317aa23          	sw	a7,1588(a5)

000019f4 <inst_199>:
    19f4:	15c82507          	flw	fa0,348(a6)
    19f8:	16082587          	flw	fa1,352(a6)
    19fc:	16482607          	flw	fa2,356(a6)
    1a00:	00205073          	fsrmi	zero,0
    1a04:	60b576c7          	fmsub.s	fa3,fa0,fa1,fa2
    1a08:	001028f3          	frflags	a7
    1a0c:	62d7ac27          	fsw	fa3,1592(a5)
    1a10:	6317ae23          	sw	a7,1596(a5)

00001a14 <inst_200>:
    1a14:	16882507          	flw	fa0,360(a6)
    1a18:	16c82587          	flw	fa1,364(a6)
    1a1c:	17082607          	flw	fa2,368(a6)
    1a20:	00205073          	fsrmi	zero,0
    1a24:	60b576c7          	fmsub.s	fa3,fa0,fa1,fa2
    1a28:	001028f3          	frflags	a7
    1a2c:	64d7a027          	fsw	fa3,1600(a5)
    1a30:	6517a223          	sw	a7,1604(a5)

00001a34 <inst_201>:
    1a34:	17482507          	flw	fa0,372(a6)
    1a38:	17882587          	flw	fa1,376(a6)
    1a3c:	17c82607          	flw	fa2,380(a6)
    1a40:	00205073          	fsrmi	zero,0
    1a44:	60b576c7          	fmsub.s	fa3,fa0,fa1,fa2
    1a48:	001028f3          	frflags	a7
    1a4c:	64d7a427          	fsw	fa3,1608(a5)
    1a50:	6517a623          	sw	a7,1612(a5)

00001a54 <inst_202>:
    1a54:	18082507          	flw	fa0,384(a6)
    1a58:	18482587          	flw	fa1,388(a6)
    1a5c:	18882607          	flw	fa2,392(a6)
    1a60:	00205073          	fsrmi	zero,0
    1a64:	60b576c7          	fmsub.s	fa3,fa0,fa1,fa2
    1a68:	001028f3          	frflags	a7
    1a6c:	64d7a827          	fsw	fa3,1616(a5)
    1a70:	6517aa23          	sw	a7,1620(a5)

00001a74 <inst_203>:
    1a74:	18c82507          	flw	fa0,396(a6)
    1a78:	19082587          	flw	fa1,400(a6)
    1a7c:	19482607          	flw	fa2,404(a6)
    1a80:	00205073          	fsrmi	zero,0
    1a84:	60b576c7          	fmsub.s	fa3,fa0,fa1,fa2
    1a88:	001028f3          	frflags	a7
    1a8c:	64d7ac27          	fsw	fa3,1624(a5)
    1a90:	6517ae23          	sw	a7,1628(a5)

00001a94 <inst_204>:
    1a94:	19882507          	flw	fa0,408(a6)
    1a98:	19c82587          	flw	fa1,412(a6)
    1a9c:	1a082607          	flw	fa2,416(a6)
    1aa0:	00205073          	fsrmi	zero,0
    1aa4:	60b576c7          	fmsub.s	fa3,fa0,fa1,fa2
    1aa8:	001028f3          	frflags	a7
    1aac:	66d7a027          	fsw	fa3,1632(a5)
    1ab0:	6717a223          	sw	a7,1636(a5)

00001ab4 <inst_205>:
    1ab4:	1a482507          	flw	fa0,420(a6)
    1ab8:	1a882587          	flw	fa1,424(a6)
    1abc:	1ac82607          	flw	fa2,428(a6)
    1ac0:	00205073          	fsrmi	zero,0
    1ac4:	60b576c7          	fmsub.s	fa3,fa0,fa1,fa2
    1ac8:	001028f3          	frflags	a7
    1acc:	66d7a427          	fsw	fa3,1640(a5)
    1ad0:	6717a623          	sw	a7,1644(a5)

00001ad4 <inst_206>:
    1ad4:	1b082507          	flw	fa0,432(a6)
    1ad8:	1b482587          	flw	fa1,436(a6)
    1adc:	1b882607          	flw	fa2,440(a6)
    1ae0:	00205073          	fsrmi	zero,0
    1ae4:	60b576c7          	fmsub.s	fa3,fa0,fa1,fa2
    1ae8:	001028f3          	frflags	a7
    1aec:	66d7a827          	fsw	fa3,1648(a5)
    1af0:	6717aa23          	sw	a7,1652(a5)

00001af4 <inst_207>:
    1af4:	1bc82507          	flw	fa0,444(a6)
    1af8:	1c082587          	flw	fa1,448(a6)
    1afc:	1c482607          	flw	fa2,452(a6)
    1b00:	00205073          	fsrmi	zero,0
    1b04:	60b576c7          	fmsub.s	fa3,fa0,fa1,fa2
    1b08:	001028f3          	frflags	a7
    1b0c:	66d7ac27          	fsw	fa3,1656(a5)
    1b10:	6717ae23          	sw	a7,1660(a5)
    1b14:	00000013          	nop
    1b18:	00000013          	nop
    1b1c:	00000013          	nop

00001b20 <rvtest_code_end>:
    1b20:	00001517          	auipc	a0,0x1
    1b24:	eb050513          	add	a0,a0,-336 # 29d0 <data_begin>
    1b28:	00001597          	auipc	a1,0x1
    1b2c:	52858593          	add	a1,a1,1320 # 3050 <_end>
    1b30:	80001637          	lui	a2,0x80001
    1b34:	00860613          	add	a2,a2,8 # 80001008 <_end+0x7fffdfb8>

00001b38 <compliance_halt_loop>:
    1b38:	06b50063          	beq	a0,a1,1b98 <compliance_halt_break>
    1b3c:	00450693          	add	a3,a0,4

00001b40 <compliance_halt_loop2>:
    1b40:	fff68693          	add	a3,a3,-1
    1b44:	00068703          	lb	a4,0(a3)
    1b48:	40475793          	sra	a5,a4,0x4
    1b4c:	00f7f793          	and	a5,a5,15
    1b50:	00a00813          	li	a6,10
    1b54:	0107c463          	blt	a5,a6,1b5c <notLetter>
    1b58:	02778793          	add	a5,a5,39

00001b5c <notLetter>:
    1b5c:	03078793          	add	a5,a5,48
    1b60:	00f60023          	sb	a5,0(a2)
    1b64:	40075793          	sra	a5,a4,0x0
    1b68:	00f7f793          	and	a5,a5,15
    1b6c:	00a00813          	li	a6,10
    1b70:	0107c463          	blt	a5,a6,1b78 <notLetter2>
    1b74:	02778793          	add	a5,a5,39

00001b78 <notLetter2>:
    1b78:	03078793          	add	a5,a5,48
    1b7c:	00f60023          	sb	a5,0(a2)
    1b80:	fcd510e3          	bne	a0,a3,1b40 <compliance_halt_loop2>
    1b84:	00450513          	add	a0,a0,4
    1b88:	00a00713          	li	a4,10
    1b8c:	00e60023          	sb	a4,0(a2)
    1b90:	fa9ff06f          	j	1b38 <compliance_halt_loop>
    1b94:	0040006f          	j	1b98 <compliance_halt_break>

00001b98 <compliance_halt_break>:
    1b98:	80001537          	lui	a0,0x80001
    1b9c:	00950513          	add	a0,a0,9 # 80001009 <_end+0x7fffdfb9>
    1ba0:	00d50023          	sb	a3,0(a0)

Desensamblado de la sección .data:

00002000 <rvtest_data_begin>:
    2000:	cafe                	.2byte	0xcafe
    2002:	babe                	.2byte	0xbabe

00002004 <test_fp>:
    2004:	7dce622b          	.4byte	0x7dce622b
    2008:	7dce622b          	.4byte	0x7dce622b
    200c:	7dce622b          	.4byte	0x7dce622b
    2010:	2a8e                	.2byte	0x2a8e
    2012:	7e7d                	.2byte	0x7e7d
    2014:	7e2abd9b          	.4byte	0x7e2abd9b
    2018:	2a8e                	.2byte	0x2a8e
    201a:	7e7d                	.2byte	0x7e7d
    201c:	5ff0                	.2byte	0x5ff0
    201e:	7e04                	.2byte	0x7e04
    2020:	a2a8                	.2byte	0xa2a8
    2022:	5ff07f17          	auipc	t5,0x5ff07
    2026:	7e04                	.2byte	0x7e04
    2028:	1ca2                	.2byte	0x1ca2
    202a:	7eea                	.2byte	0x7eea
    202c:	4371                	.2byte	0x4371
    202e:	7e32                	.2byte	0x7e32
    2030:	ffff                	.2byte	0xffff
    2032:	7f7f                	.2byte	0x7f7f
    2034:	fada                	.2byte	0xfada
    2036:	7f08                	.2byte	0x7f08
    2038:	7b0c                	.2byte	0x7b0c
    203a:	7f1c                	.2byte	0x7f1c
    203c:	7b0c                	.2byte	0x7b0c
    203e:	7f1c                	.2byte	0x7f1c
    2040:	738a                	.2byte	0x738a
    2042:	7f0d                	.2byte	0x7f0d
    2044:	72fc                	.2byte	0x72fc
    2046:	7e01                	.2byte	0x7e01
    2048:	72fc                	.2byte	0x72fc
    204a:	7e01                	.2byte	0x7e01
    204c:	e86e                	.2byte	0xe86e
    204e:	7ec8                	.2byte	0x7ec8
    2050:	e86e                	.2byte	0xe86e
    2052:	7ec8                	.2byte	0x7ec8
    2054:	ffff                	.2byte	0xffff
    2056:	7f7f                	.2byte	0x7f7f
    2058:	a528                	.2byte	0xa528
    205a:	7e4e                	.2byte	0x7e4e
    205c:	a528                	.2byte	0xa528
    205e:	7e4e                	.2byte	0x7e4e
    2060:	ffff                	.2byte	0xffff
    2062:	7f7f                	.2byte	0x7f7f
    2064:	6d52                	.2byte	0x6d52
    2066:	7e20                	.2byte	0x7e20
    2068:	6d52                	.2byte	0x6d52
    206a:	7e20                	.2byte	0x7e20
    206c:	6d52                	.2byte	0x6d52
    206e:	7e20                	.2byte	0x7e20
    2070:	56b5                	.2byte	0x56b5
    2072:	7e9a                	.2byte	0x7e9a
    2074:	7f044537          	lui	a0,0x7f044
    2078:	ffff                	.2byte	0xffff
    207a:	7f7f                	.2byte	0x7f7f
    207c:	c035                	.2byte	0xc035
    207e:	7ec2                	.2byte	0x7ec2
    2080:	a809                	.2byte	0xa809
    2082:	7f35                	.2byte	0x7f35
    2084:	ffff                	.2byte	0xffff
    2086:	7f7f                	.2byte	0x7f7f
    2088:	6359                	.2byte	0x6359
    208a:	7e88                	.2byte	0x7e88
    208c:	3a58                	.2byte	0x3a58
    208e:	7efc                	.2byte	0x7efc
    2090:	ffff                	.2byte	0xffff
    2092:	7f7f                	.2byte	0x7f7f
    2094:	7ec3f2a7          	.4byte	0x7ec3f2a7
    2098:	fdd5                	.2byte	0xfdd5
    209a:	7f0e                	.2byte	0x7f0e
    209c:	ffff                	.2byte	0xffff
    209e:	7f7f                	.2byte	0x7f7f
    20a0:	1085                	.2byte	0x1085
    20a2:	7eba                	.2byte	0x7eba
    20a4:	5e0e                	.2byte	0x5e0e
    20a6:	ffff7eb3          	.4byte	0xffff7eb3
    20aa:	7f7f                	.2byte	0x7f7f
    20ac:	fda1                	.2byte	0xfda1
    20ae:	7ed0                	.2byte	0x7ed0
    20b0:	7de99457          	.4byte	0x7de99457
    20b4:	ffff                	.2byte	0xffff
    20b6:	7f7f                	.2byte	0x7f7f
    20b8:	332e                	.2byte	0x332e
    20ba:	f0997e4b          	fnmsub.s	ft8,fs2,fs1,ft10
    20be:	ffff7f07          	.4byte	0xffff7f07
    20c2:	7f7f                	.2byte	0x7f7f
    20c4:	8ae5                	.2byte	0x8ae5
    20c6:	7f1c                	.2byte	0x7f1c
    20c8:	7f5f 7ee8 ffff      	.byte	0x5f, 0x7f, 0xe8, 0x7e, 0xff, 0xff
    20ce:	7f7f                	.2byte	0x7f7f
    20d0:	3c25                	.2byte	0x3c25
    20d2:	7f16                	.2byte	0x7f16
    20d4:	7bc4                	.2byte	0x7bc4
    20d6:	7f22                	.2byte	0x7f22
    20d8:	ffff                	.2byte	0xffff
    20da:	7f7f                	.2byte	0x7f7f
    20dc:	a2f8                	.2byte	0xa2f8
    20de:	7ef1                	.2byte	0x7ef1
    20e0:	5a70                	.2byte	0x5a70
    20e2:	ffff7ef3          	csrrc	t4,0xfff,30
    20e6:	7f7f                	.2byte	0x7f7f
    20e8:	1e44                	.2byte	0x1e44
    20ea:	7ef9                	.2byte	0x7ef9
    20ec:	cb9a                	.2byte	0xcb9a
    20ee:	7ef1                	.2byte	0x7ef1
    20f0:	ffff                	.2byte	0xffff
    20f2:	7f7f                	.2byte	0x7f7f
    20f4:	3294                	.2byte	0x3294
    20f6:	7ebd                	.2byte	0x7ebd
    20f8:	3001                	.2byte	0x3001
    20fa:	ffff7f0f          	.4byte	0xffff7f0f
    20fe:	7f7f                	.2byte	0x7f7f
    2100:	7f0ce53f 7f2c6607 	.8byte	0x7f2c66077f0ce53f
    2108:	ffff                	.2byte	0xffff
    210a:	7f7f                	.2byte	0x7f7f
    210c:	9de5                	.2byte	0x9de5
    210e:	5bed7e9b          	.4byte	0x5bed7e9b
    2112:	7f25                	.2byte	0x7f25
    2114:	ffff                	.2byte	0xffff
    2116:	7f7f                	.2byte	0x7f7f
    2118:	7b2cfa4f          	.4byte	0x7b2cfa4f
    211c:	703e                	.2byte	0x703e
    211e:	7e95                	.2byte	0x7e95
    2120:	ffff                	.2byte	0xffff
    2122:	7f7f                	.2byte	0x7f7f
    2124:	17ca                	.2byte	0x17ca
    2126:	7eee                	.2byte	0x7eee
    2128:	e31d                	.2byte	0xe31d
    212a:	ffff7ecb          	.4byte	0xffff7ecb
    212e:	7f7f                	.2byte	0x7f7f
    2130:	9e1a                	.2byte	0x9e1a
    2132:	7f3d                	.2byte	0x7f3d
    2134:	7f9d                	.2byte	0x7f9d
    2136:	7e6a                	.2byte	0x7e6a
    2138:	ffff                	.2byte	0xffff
    213a:	7f7f                	.2byte	0x7f7f
    213c:	7f203def          	jal	s11,592e <_end+0x28de>
    2140:	0aed                	.2byte	0xaed
    2142:	7e9d                	.2byte	0x7e9d
    2144:	ffff                	.2byte	0xffff
    2146:	7f7f                	.2byte	0x7f7f
    2148:	356e                	.2byte	0x356e
    214a:	7ec4                	.2byte	0x7ec4
    214c:	81e9                	.2byte	0x81e9
    214e:	7f3d                	.2byte	0x7f3d
    2150:	ffff                	.2byte	0xffff
    2152:	7f7f                	.2byte	0x7f7f
    2154:	b1ee                	.2byte	0xb1ee
    2156:	7ee5                	.2byte	0x7ee5
    2158:	477e                	.2byte	0x477e
    215a:	7f29                	.2byte	0x7f29
    215c:	ffff                	.2byte	0xffff
    215e:	7f7f                	.2byte	0x7f7f
    2160:	9b21                	.2byte	0x9b21
    2162:	7e1c                	.2byte	0x7e1c
    2164:	7b3e7f0f          	.4byte	0x7b3e7f0f
    2168:	ffff                	.2byte	0xffff
    216a:	7f7f                	.2byte	0x7f7f
    216c:	0af8                	.2byte	0xaf8
    216e:	7ebd                	.2byte	0x7ebd
    2170:	b460                	.2byte	0xb460
    2172:	7ef8                	.2byte	0x7ef8
    2174:	ffff                	.2byte	0xffff
    2176:	7f7f                	.2byte	0x7f7f
    2178:	5ee2                	.2byte	0x5ee2
    217a:	7e99                	.2byte	0x7e99
    217c:	5a4e                	.2byte	0x5a4e
    217e:	7f16                	.2byte	0x7f16
    2180:	ffff                	.2byte	0xffff
    2182:	7f7f                	.2byte	0x7f7f
    2184:	d944                	.2byte	0xd944
    2186:	7ea9                	.2byte	0x7ea9
    2188:	a0c5                	.2byte	0xa0c5
    218a:	7eac                	.2byte	0x7eac
    218c:	ffff                	.2byte	0xffff
    218e:	7f7f                	.2byte	0x7f7f
    2190:	04b5                	.2byte	0x4b5
    2192:	7e89                	.2byte	0x7e89
    2194:	e73d                	.2byte	0xe73d
    2196:	7eca                	.2byte	0x7eca
    2198:	ffff                	.2byte	0xffff
    219a:	7f7f                	.2byte	0x7f7f
    219c:	7edbdebb          	.4byte	0x7edbdebb
    21a0:	0a86                	.2byte	0xa86
    21a2:	ffff7e6f          	jal	t3,ffffa1a0 <_end+0xffff7150>
    21a6:	7f7f                	.2byte	0x7f7f
    21a8:	ea71                	.2byte	0xea71
    21aa:	7f3a                	.2byte	0x7f3a
    21ac:	7dd1cef3          	.4byte	0x7dd1cef3
    21b0:	ffff                	.2byte	0xffff
    21b2:	7f7f                	.2byte	0x7f7f
    21b4:	63e6                	.2byte	0x63e6
    21b6:	7ed1                	.2byte	0x7ed1
    21b8:	44fd                	.2byte	0x44fd
    21ba:	7f39                	.2byte	0x7f39
    21bc:	ffff                	.2byte	0xffff
    21be:	7f7f                	.2byte	0x7f7f
    21c0:	0ca6                	.2byte	0xca6
    21c2:	5b9c7f1b          	.4byte	0x5b9c7f1b
    21c6:	7db5                	.2byte	0x7db5
    21c8:	ffff                	.2byte	0xffff
    21ca:	7f7f                	.2byte	0x7f7f
    21cc:	2ba2                	.2byte	0x2ba2
    21ce:	25ff7e93          	and	t4,t5,607
    21d2:	7e5a                	.2byte	0x7e5a
    21d4:	ffff                	.2byte	0xffff
    21d6:	7f7f                	.2byte	0x7f7f
    21d8:	4b40                	.2byte	0x4b40
    21da:	7f24                	.2byte	0x7f24
    21dc:	a932                	.2byte	0xa932
    21de:	ffff7f13          	and	t5,t5,-1
    21e2:	7f7f                	.2byte	0x7f7f
    21e4:	ef2d                	.2byte	0xef2d
    21e6:	7f3a                	.2byte	0x7f3a
    21e8:	6cbd                	.2byte	0x6cbd
    21ea:	7ed1                	.2byte	0x7ed1
    21ec:	ffff                	.2byte	0xffff
    21ee:	7f7f                	.2byte	0x7f7f
    21f0:	3cb9                	.2byte	0x3cb9
    21f2:	e3b07f03          	.4byte	0xe3b07f03
    21f6:	ffff7f17          	auipc	t5,0xffff7
    21fa:	7f7f                	.2byte	0x7f7f
    21fc:	7e51d65b          	.4byte	0x7e51d65b
    2200:	ec64                	.2byte	0xec64
    2202:	7ee0                	.2byte	0x7ee0
    2204:	ffff                	.2byte	0xffff
    2206:	7f7f                	.2byte	0x7f7f
    2208:	ac5a                	.2byte	0xac5a
    220a:	7e1e                	.2byte	0x7e1e
    220c:	7e5ab657          	.4byte	0x7e5ab657
    2210:	ffff                	.2byte	0xffff
    2212:	7f7f                	.2byte	0x7f7f
    2214:	f85f 7ef0 8f9b      	.byte	0x5f, 0xf8, 0xf0, 0x7e, 0x9b, 0x8f
    221a:	7ee8                	.2byte	0x7ee8
    221c:	ffff                	.2byte	0xffff
    221e:	7f7f                	.2byte	0x7f7f
    2220:	cbce                	.2byte	0xcbce
    2222:	7e11                	.2byte	0x7e11
    2224:	7d25                	.2byte	0x7d25
    2226:	7ea8                	.2byte	0x7ea8
    2228:	ffff                	.2byte	0xffff
    222a:	7f7f                	.2byte	0x7f7f
    222c:	a152                	.2byte	0xa152
    222e:	7e3e                	.2byte	0x7e3e
    2230:	eb32                	.2byte	0xeb32
    2232:	ffff7f0f          	.4byte	0xffff7f0f
    2236:	7f7f                	.2byte	0x7f7f
    2238:	7e9cc20f          	.4byte	0x7e9cc20f
    223c:	7db562e3          	bltu	a0,s11,3200 <_end+0x1b0>
    2240:	ffff                	.2byte	0xffff
    2242:	7f7f                	.2byte	0x7f7f
    2244:	359c                	.2byte	0x359c
    2246:	7f38                	.2byte	0x7f38
    2248:	1220                	.2byte	0x1220
    224a:	ffff7db7          	lui	s11,0xffff7
    224e:	7f7f                	.2byte	0x7f7f
    2250:	7e79f577          	.4byte	0x7e79f577
    2254:	0b01                	.2byte	0xb01
    2256:	7dc2                	.2byte	0x7dc2
    2258:	ffff                	.2byte	0xffff
    225a:	7f7f                	.2byte	0x7f7f
    225c:	1ee0                	.2byte	0x1ee0
    225e:	7f1a                	.2byte	0x7f1a
    2260:	3dec                	.2byte	0x3dec
    2262:	7ea6                	.2byte	0x7ea6
    2264:	ffff                	.2byte	0xffff
    2266:	7f7f                	.2byte	0x7f7f
    2268:	7f317793          	and	a5,sp,2035
    226c:	78ca                	.2byte	0x78ca
    226e:	7f3a                	.2byte	0x7f3a
    2270:	ffff                	.2byte	0xffff
    2272:	7f7f                	.2byte	0x7f7f
    2274:	54da                	.2byte	0x54da
    2276:	7efd                	.2byte	0x7efd
    2278:	7a70                	.2byte	0x7a70
    227a:	7f06                	.2byte	0x7f06
    227c:	ffff                	.2byte	0xffff
    227e:	7f7f                	.2byte	0x7f7f
    2280:	b2a1                	.2byte	0xb2a1
    2282:	7dd5                	.2byte	0x7dd5
    2284:	f204                	.2byte	0xf204
    2286:	7f14                	.2byte	0x7f14
    2288:	ffff                	.2byte	0xffff
    228a:	7f7f                	.2byte	0x7f7f
    228c:	75cc                	.2byte	0x75cc
    228e:	7e4d                	.2byte	0x7e4d
    2290:	4508                	.2byte	0x4508
    2292:	ffff7f2f          	.4byte	0xffff7f2f
    2296:	7f7f                	.2byte	0x7f7f
    2298:	64f9                	.2byte	0x64f9
    229a:	7f3c                	.2byte	0x7f3c
    229c:	200c                	.2byte	0x200c
    229e:	ffff7f1b          	.4byte	0xffff7f1b
    22a2:	7f7f                	.2byte	0x7f7f
    22a4:	2144                	.2byte	0x2144
    22a6:	7dfd                	.2byte	0x7dfd
    22a8:	23da                	.2byte	0x23da
    22aa:	7f0c                	.2byte	0x7f0c
    22ac:	ffff                	.2byte	0xffff
    22ae:	7f7f                	.2byte	0x7f7f
    22b0:	b184                	.2byte	0xb184
    22b2:	7f09                	.2byte	0x7f09
    22b4:	9ff9                	.2byte	0x9ff9
    22b6:	7e85                	.2byte	0x7e85
    22b8:	ffff                	.2byte	0xffff
    22ba:	7f7f                	.2byte	0x7f7f
    22bc:	7cee                	.2byte	0x7cee
    22be:	7f11                	.2byte	0x7f11
    22c0:	7d20273b          	.4byte	0x7d20273b
    22c4:	ffff                	.2byte	0xffff
    22c6:	7f7f                	.2byte	0x7f7f
    22c8:	7e40750f          	.4byte	0x7e40750f
    22cc:	2192                	.2byte	0x2192
    22ce:	ffff7e27          	.4byte	0xffff7e27
    22d2:	7f7f                	.2byte	0x7f7f
    22d4:	55ca                	.2byte	0x55ca
    22d6:	7f38                	.2byte	0x7f38
    22d8:	5a74                	.2byte	0x5a74
    22da:	ffff7edb          	.4byte	0xffff7edb
    22de:	7f7f                	.2byte	0x7f7f
    22e0:	515f 7ee4 67bb      	.byte	0x5f, 0x51, 0xe4, 0x7e, 0xbb, 0x67
    22e6:	7f24                	.2byte	0x7f24
    22e8:	ffff                	.2byte	0xffff
    22ea:	7f7f                	.2byte	0x7f7f
    22ec:	b32c                	.2byte	0xb32c
    22ee:	7e8e                	.2byte	0x7e8e
    22f0:	a571                	.2byte	0xa571
    22f2:	7f06                	.2byte	0x7f06
    22f4:	ffff                	.2byte	0xffff
    22f6:	7f7f                	.2byte	0x7f7f
    22f8:	76c5                	.2byte	0x76c5
    22fa:	f88e7e6f          	jal	t3,fffe9a82 <_end+0xfffe6a32>
    22fe:	7f04                	.2byte	0x7f04
    2300:	ffff                	.2byte	0xffff
    2302:	7f7f                	.2byte	0x7f7f
    2304:	f142                	.2byte	0xf142
    2306:	7df4                	.2byte	0x7df4
    2308:	13cc                	.2byte	0x13cc
    230a:	ffff7f13          	and	t5,t5,-1
    230e:	7f7f                	.2byte	0x7f7f
    2310:	ce4c                	.2byte	0xce4c
    2312:	7d567d5b          	.4byte	0x7d567d5b
    2316:	7ec4                	.2byte	0x7ec4
    2318:	ffff                	.2byte	0xffff
    231a:	7f7f                	.2byte	0x7f7f
    231c:	5f81                	.2byte	0x5f81
    231e:	39317e53          	.4byte	0x39317e53
    2322:	7ef8                	.2byte	0x7ef8
    2324:	ffff                	.2byte	0xffff
    2326:	7f7f                	.2byte	0x7f7f
    2328:	324a                	.2byte	0x324a
    232a:	21e37ed7          	.4byte	0x21e37ed7
    232e:	7f2e                	.2byte	0x7f2e
    2330:	ffff                	.2byte	0xffff
    2332:	7f7f                	.2byte	0x7f7f
    2334:	de98                	.2byte	0xde98
    2336:	d9017eb7          	lui	t4,0xd9017
    233a:	7e2c                	.2byte	0x7e2c
    233c:	ffff                	.2byte	0xffff
    233e:	7f7f                	.2byte	0x7f7f
    2340:	6ed9                	.2byte	0x6ed9
    2342:	7f0c                	.2byte	0x7f0c
    2344:	125d                	.2byte	0x125d
    2346:	ffff7e37          	lui	t3,0xffff7
    234a:	7f7f                	.2byte	0x7f7f
    234c:	2786                	.2byte	0x2786
    234e:	7ef9                	.2byte	0x7ef9
    2350:	504e                	.2byte	0x504e
    2352:	7ea8                	.2byte	0x7ea8
    2354:	ffff                	.2byte	0xffff
    2356:	7f7f                	.2byte	0x7f7f
    2358:	c24d                	.2byte	0xc24d
    235a:	057e7bb7          	lui	s7,0x57e7
    235e:	ffff7ecb          	.4byte	0xffff7ecb
    2362:	7f7f                	.2byte	0x7f7f
    2364:	03fa                	.2byte	0x3fa
    2366:	7e9a                	.2byte	0x7e9a
    2368:	2dc8                	.2byte	0x2dc8
    236a:	ffff7eeb          	.4byte	0xffff7eeb
    236e:	7f7f                	.2byte	0x7f7f
    2370:	ffae                	.2byte	0xffae
    2372:	7e46                	.2byte	0x7e46
    2374:	7f1f27c7          	.4byte	0x7f1f27c7
    2378:	ffff                	.2byte	0xffff
    237a:	7f7f                	.2byte	0x7f7f
    237c:	7e884c5b          	.4byte	0x7e884c5b
    2380:	6786                	.2byte	0x6786
    2382:	7dd4                	.2byte	0x7dd4
    2384:	ffff                	.2byte	0xffff
    2386:	7f7f                	.2byte	0x7f7f
    2388:	01b0                	.2byte	0x1b0
    238a:	7ea0                	.2byte	0x7ea0
    238c:	1c9d                	.2byte	0x1c9d
    238e:	ffff7edb          	.4byte	0xffff7edb
    2392:	7f7f                	.2byte	0x7f7f
    2394:	1ec9                	.2byte	0x1ec9
    2396:	7e46                	.2byte	0x7e46
    2398:	f740                	.2byte	0xf740
    239a:	7c95                	.2byte	0x7c95
    239c:	ffff                	.2byte	0xffff
    239e:	7f7f                	.2byte	0x7f7f
    23a0:	7eae1227          	.4byte	0x7eae1227
    23a4:	7e97f3eb          	.4byte	0x7e97f3eb
    23a8:	ffff                	.2byte	0xffff
    23aa:	7f7f                	.2byte	0x7f7f
    23ac:	eb6d                	.2byte	0xeb6d
    23ae:	7ed2                	.2byte	0x7ed2
    23b0:	e396                	.2byte	0xe396
    23b2:	ffff7ecf          	.4byte	0xffff7ecf
    23b6:	7f7f                	.2byte	0x7f7f
    23b8:	e161                	.2byte	0xe161
    23ba:	7d45                	.2byte	0x7d45
    23bc:	7f38f857          	.4byte	0x7f38f857
    23c0:	ffff                	.2byte	0xffff
    23c2:	7f7f                	.2byte	0x7f7f
    23c4:	3f0c                	.2byte	0x3f0c
    23c6:	7f09                	.2byte	0x7f09
    23c8:	36a8                	.2byte	0x36a8
    23ca:	7f00                	.2byte	0x7f00
    23cc:	ffff                	.2byte	0xffff
    23ce:	7f7f                	.2byte	0x7f7f
    23d0:	7e08d2ab          	.4byte	0x7e08d2ab
    23d4:	7ea6220b          	.4byte	0x7ea6220b
    23d8:	ffff                	.2byte	0xffff
    23da:	7f7f                	.2byte	0x7f7f
    23dc:	6afe                	.2byte	0x6afe
    23de:	7f21                	.2byte	0x7f21
    23e0:	447a                	.2byte	0x447a
    23e2:	ffff7f0f          	.4byte	0xffff7f0f
    23e6:	7f7f                	.2byte	0x7f7f
    23e8:	7f2d6497          	auipc	s1,0x7f2d6
    23ec:	5724                	.2byte	0x5724
    23ee:	7f1a                	.2byte	0x7f1a
    23f0:	ffff                	.2byte	0xffff
    23f2:	7f7f                	.2byte	0x7f7f
    23f4:	cffe                	.2byte	0xcffe
    23f6:	7f2e                	.2byte	0x7f2e
    23f8:	2212                	.2byte	0x2212
    23fa:	ffff7cc3          	.4byte	0xffff7cc3
    23fe:	7f7f                	.2byte	0x7f7f
    2400:	6661                	.2byte	0x6661
    2402:	7e61                	.2byte	0x7e61
    2404:	7f2b9a07          	.4byte	0x7f2b9a07
    2408:	ffff                	.2byte	0xffff
    240a:	7f7f                	.2byte	0x7f7f
    240c:	2a08                	.2byte	0x2a08
    240e:	7da4                	.2byte	0x7da4
    2410:	8378                	.2byte	0x8378
    2412:	7ec5                	.2byte	0x7ec5
    2414:	ffff                	.2byte	0xffff
    2416:	7f7f                	.2byte	0x7f7f
    2418:	1999                	.2byte	0x1999
    241a:	7f3d                	.2byte	0x7f3d
    241c:	bcd4                	.2byte	0xbcd4
    241e:	7f1d                	.2byte	0x7f1d
    2420:	ffff                	.2byte	0xffff
    2422:	7f7f                	.2byte	0x7f7f
    2424:	7f364073          	.4byte	0x7f364073
    2428:	0cc8                	.2byte	0xcc8
    242a:	7e05                	.2byte	0x7e05
    242c:	ffff                	.2byte	0xffff
    242e:	7f7f                	.2byte	0x7f7f
    2430:	8c88                	.2byte	0x8c88
    2432:	7ec0                	.2byte	0x7ec0
    2434:	a306                	.2byte	0xa306
    2436:	7f18                	.2byte	0x7f18
    2438:	ffff                	.2byte	0xffff
    243a:	7f7f                	.2byte	0x7f7f
    243c:	6988                	.2byte	0x6988
    243e:	7ebd                	.2byte	0x7ebd
    2440:	7f25a0eb          	.4byte	0x7f25a0eb
    2444:	ffff                	.2byte	0xffff
    2446:	7f7f                	.2byte	0x7f7f
    2448:	fc99                	.2byte	0xfc99
    244a:	59d77ef3          	csrrc	t4,0x59d,14
    244e:	7e5f ffff 7f7f      	.byte	0x5f, 0x7e, 0xff, 0xff, 0x7f, 0x7f
    2454:	a9a1                	.2byte	0xa9a1
    2456:	dae67ed3          	.4byte	0xdae67ed3
    245a:	7d59                	.2byte	0x7d59
    245c:	ffff                	.2byte	0xffff
    245e:	7f7f                	.2byte	0x7f7f
    2460:	5b26                	.2byte	0x5b26
    2462:	7c7a                	.2byte	0x7c7a
    2464:	3506                	.2byte	0x3506
    2466:	ffff7e3b          	.4byte	0xffff7e3b
    246a:	7f7f                	.2byte	0x7f7f
    246c:	5495                	.2byte	0x5495
    246e:	7ede                	.2byte	0x7ede
    2470:	7ee4d97f 7f7fffff 	.byte	0x7f, 0xd9, 0xe4, 0x7e, 0xff, 0xff, 0x7f, 0x7f, 0xbb, 0x8e, 0x68, 0x7e, 0x4f, 0x62, 0x80, 0x7e, 0xff, 0xff, 0x7f, 0x7f
    2478:	7e688ebb 7e80624f 
    2480:	7f7fffff 
    2484:	40a9                	.2byte	0x40a9
    2486:	a65d7e73          	csrrc	t3,0xa65,26
    248a:	7f22                	.2byte	0x7f22
    248c:	ffff                	.2byte	0xffff
    248e:	7f7f                	.2byte	0x7f7f
    2490:	f19a                	.2byte	0xf19a
    2492:	7e95                	.2byte	0x7e95
    2494:	9c3e                	.2byte	0x9c3e
    2496:	ffff7e6b          	.4byte	0xffff7e6b
    249a:	7f7f                	.2byte	0x7f7f
    249c:	5f3d                	.2byte	0x5f3d
    249e:	7efa                	.2byte	0x7efa
    24a0:	1749                	.2byte	0x1749
    24a2:	ffff7ef7          	.4byte	0xffff7ef7
    24a6:	7f7f                	.2byte	0x7f7f
    24a8:	a4e9                	.2byte	0xa4e9
    24aa:	ceee7e57          	.4byte	0xceee7e57
    24ae:	7f3c                	.2byte	0x7f3c
    24b0:	ffff                	.2byte	0xffff
    24b2:	7f7f                	.2byte	0x7f7f
    24b4:	05c9                	.2byte	0x5c9
    24b6:	7e6c                	.2byte	0x7e6c
    24b8:	7e3d3883          	.4byte	0x7e3d3883
    24bc:	ffff                	.2byte	0xffff
    24be:	7f7f                	.2byte	0x7f7f
    24c0:	24f8                	.2byte	0x24f8
    24c2:	7efe                	.2byte	0x7efe
    24c4:	fa60                	.2byte	0xfa60
    24c6:	7e46                	.2byte	0x7e46
    24c8:	ffff                	.2byte	0xffff
    24ca:	7f7f                	.2byte	0x7f7f
    24cc:	26a4                	.2byte	0x26a4
    24ce:	7f3c                	.2byte	0x7f3c
    24d0:	7a89                	.2byte	0x7a89
    24d2:	7ed0                	.2byte	0x7ed0
    24d4:	ffff                	.2byte	0xffff
    24d6:	7f7f                	.2byte	0x7f7f
    24d8:	0d70                	.2byte	0xd70
    24da:	44b77dab          	.4byte	0x44b77dab
    24de:	7e25                	.2byte	0x7e25
    24e0:	ffff                	.2byte	0xffff
    24e2:	7f7f                	.2byte	0x7f7f
    24e4:	5f0a                	.2byte	0x5f0a
    24e6:	34427f2f          	.4byte	0x34427f2f
    24ea:	7f3a                	.2byte	0x7f3a
    24ec:	ffff                	.2byte	0xffff
    24ee:	7f7f                	.2byte	0x7f7f
    24f0:	7eacbd83          	.4byte	0x7eacbd83
    24f4:	9985                	.2byte	0x9985
    24f6:	7e70                	.2byte	0x7e70
    24f8:	ffff                	.2byte	0xffff
    24fa:	7f7f                	.2byte	0x7f7f
    24fc:	a7f2                	.2byte	0xa7f2
    24fe:	7f3c                	.2byte	0x7f3c
    2500:	fb76                	.2byte	0xfb76
    2502:	7e62                	.2byte	0x7e62
    2504:	ffff                	.2byte	0xffff
    2506:	7f7f                	.2byte	0x7f7f
    2508:	7efa6323          	.4byte	0x7efa6323
    250c:	6d34                	.2byte	0x6d34
    250e:	ffff7cf3          	csrrc	s9,0xfff,30
    2512:	7f7f                	.2byte	0x7f7f
    2514:	9e75                	.2byte	0x9e75
    2516:	7e42                	.2byte	0x7e42
    2518:	2bff 7eb7 ffff 7f7f 	.byte	0xff, 0x2b, 0xb7, 0x7e, 0xff, 0xff, 0x7f, 0x7f, 0x6a, 0x4a, 0x3a, 0x7f, 0x1d, 0x92
    2520:	4a6a 7f3a 921d 
    2526:	7f2e                	.2byte	0x7f2e
    2528:	ffff                	.2byte	0xffff
    252a:	7f7f                	.2byte	0x7f7f
    252c:	7d9df407          	.4byte	0x7d9df407
    2530:	dde4                	.2byte	0xdde4
    2532:	7f2e                	.2byte	0x7f2e
    2534:	ffff                	.2byte	0xffff
    2536:	7f7f                	.2byte	0x7f7f
    2538:	7e008ceb          	.4byte	0x7e008ceb
    253c:	6928                	.2byte	0x6928
    253e:	7e39                	.2byte	0x7e39
    2540:	ffff                	.2byte	0xffff
    2542:	7f7f                	.2byte	0x7f7f
    2544:	b9f6                	.2byte	0xb9f6
    2546:	7f3d                	.2byte	0x7f3d
    2548:	ab51                	.2byte	0xab51
    254a:	7ea1                	.2byte	0x7ea1
    254c:	ffff                	.2byte	0xffff
    254e:	7f7f                	.2byte	0x7f7f
    2550:	ee78                	.2byte	0xee78
    2552:	7f29                	.2byte	0x7f29
    2554:	7cf5e793          	or	a5,a1,1999
    2558:	ffff                	.2byte	0xffff
    255a:	7f7f                	.2byte	0x7f7f
    255c:	b812                	.2byte	0xb812
    255e:	7f00                	.2byte	0x7f00
    2560:	d344                	.2byte	0xd344
    2562:	7d8c                	.2byte	0x7d8c
    2564:	ffff                	.2byte	0xffff
    2566:	7f7f                	.2byte	0x7f7f
    2568:	7f171b57          	.4byte	0x7f171b57
    256c:	ee75                	.2byte	0xee75
    256e:	7f1e                	.2byte	0x7f1e
    2570:	ffff                	.2byte	0xffff
    2572:	7f7f                	.2byte	0x7f7f
    2574:	9ce6                	.2byte	0x9ce6
    2576:	7f31                	.2byte	0x7f31
    2578:	c88c                	.2byte	0xc88c
    257a:	ffff7eaf          	.4byte	0xffff7eaf
    257e:	7f7f                	.2byte	0x7f7f
    2580:	7e4cd7ff 7f2b0708 	.byte	0xff, 0xd7, 0x4c, 0x7e, 0x08, 0x07, 0x2b, 0x7f, 0xff, 0xff, 0x7f, 0x7f, 0x1a, 0x2e, 0xdb, 0x7e, 0xf9, 0xcf, 0x2b, 0x7e
    2588:	7f7fffff 7edb2e1a 
    2590:	7e2bcff9 
    2594:	ffff                	.2byte	0xffff
    2596:	7f7f                	.2byte	0x7f7f
    2598:	3b3e                	.2byte	0x3b3e
    259a:	7eec                	.2byte	0x7eec
    259c:	201f 7f16 ffff      	.byte	0x1f, 0x20, 0x16, 0x7f, 0xff, 0xff
    25a2:	7f7f                	.2byte	0x7f7f
    25a4:	7f17517f 7f1f12b9 	.byte	0x7f, 0x51, 0x17, 0x7f, 0xb9, 0x12, 0x1f, 0x7f, 0xff, 0xff, 0x7f, 0x7f, 0x6e, 0x76, 0xf0, 0x7c, 0xa4, 0xd9, 0x60, 0x7d
    25ac:	7f7fffff 7cf0766e 
    25b4:	7d60d9a4 
    25b8:	ffff                	.2byte	0xffff
    25ba:	7f7f                	.2byte	0x7f7f
    25bc:	7dcfe433          	.4byte	0x7dcfe433
    25c0:	a642                	.2byte	0xa642
    25c2:	ffff7ed3          	.4byte	0xffff7ed3
    25c6:	7f7f                	.2byte	0x7f7f
    25c8:	ede5                	.2byte	0xede5
    25ca:	3a1e7ee7          	.4byte	0x3a1e7ee7
    25ce:	ffff7f37          	lui	t5,0xffff7
    25d2:	7f7f                	.2byte	0x7f7f
    25d4:	ab65                	.2byte	0xab65
    25d6:	7e82                	.2byte	0x7e82
    25d8:	a740                	.2byte	0xa740
    25da:	7e5f ffff 7f7f      	.byte	0x5f, 0x7e, 0xff, 0xff, 0x7f, 0x7f
    25e0:	7aed                	.2byte	0x7aed
    25e2:	7ee6                	.2byte	0x7ee6
    25e4:	7f217f53          	.4byte	0x7f217f53
    25e8:	ffff                	.2byte	0xffff
    25ea:	7f7f                	.2byte	0x7f7f
    25ec:	e8de                	.2byte	0xe8de
    25ee:	7f2e                	.2byte	0x7f2e
    25f0:	7e238f3f 7f7fffff 	.8byte	0x7f7fffff7e238f3f
    25f8:	4a10                	.2byte	0x4a10
    25fa:	119e7f0b          	.4byte	0x119e7f0b
    25fe:	7d82                	.2byte	0x7d82
    2600:	ffff                	.2byte	0xffff
    2602:	7f7f                	.2byte	0x7f7f
    2604:	0c29                	.2byte	0xc29
    2606:	7eba                	.2byte	0x7eba
    2608:	37b2                	.2byte	0x37b2
    260a:	7f3d                	.2byte	0x7f3d
    260c:	ffff                	.2byte	0xffff
    260e:	7f7f                	.2byte	0x7f7f
    2610:	7e8409cf          	.4byte	0x7e8409cf
    2614:	7f296b63          	bltu	s2,s2,2e0a <data_begin+0x43a>
    2618:	ffff                	.2byte	0xffff
    261a:	7f7f                	.2byte	0x7f7f
    261c:	7ed0                	.2byte	0x7ed0
    261e:	7f01                	.2byte	0x7f01
    2620:	d6ae                	.2byte	0xd6ae
    2622:	7f20                	.2byte	0x7f20
    2624:	ffff                	.2byte	0xffff
    2626:	7f7f                	.2byte	0x7f7f
    2628:	4749                	.2byte	0x4749
    262a:	7f16                	.2byte	0x7f16
    262c:	3675                	.2byte	0x3675
    262e:	7e82                	.2byte	0x7e82
    2630:	ffff                	.2byte	0xffff
    2632:	7f7f                	.2byte	0x7f7f
    2634:	414e                	.2byte	0x414e
    2636:	7e1a                	.2byte	0x7e1a
    2638:	b471                	.2byte	0xb471
    263a:	ffff7e7b          	.4byte	0xffff7e7b
    263e:	7f7f                	.2byte	0x7f7f
    2640:	59f0                	.2byte	0x59f0
    2642:	bcfc7f27          	.4byte	0xbcfc7f27
    2646:	7f2c                	.2byte	0x7f2c
    2648:	ffff                	.2byte	0xffff
    264a:	7f7f                	.2byte	0x7f7f
    264c:	6240                	.2byte	0x6240
    264e:	ec547e63          	bgeu	s0,t0,1d2a <compliance_halt_break+0x192>
    2652:	ffff7ebf 15467f7f 	.8byte	0x15467f7fffff7ebf
    265a:	7e15                	.2byte	0x7e15
    265c:	6546                	.2byte	0x6546
    265e:	7da0                	.2byte	0x7da0
    2660:	ffff                	.2byte	0xffff
    2662:	7f7f                	.2byte	0x7f7f
    2664:	7e1e0667          	jalr	a2,2017(t3) # ffff77e1 <_end+0xffff4791>
    2668:	7f016ff7          	.4byte	0x7f016ff7
    266c:	ffff                	.2byte	0xffff
    266e:	7f7f                	.2byte	0x7f7f
    2670:	6852                	.2byte	0x6852
    2672:	23d87ec3          	.4byte	0x23d87ec3
    2676:	7e91                	.2byte	0x7e91
    2678:	ffff                	.2byte	0xffff
    267a:	7f7f                	.2byte	0x7f7f
    267c:	9d2c                	.2byte	0x9d2c
    267e:	7f26                	.2byte	0x7f26
    2680:	f6ff                	.2byte	0xf6ff
    2682:	7f3a                	.2byte	0x7f3a
    2684:	ffff                	.2byte	0xffff
    2686:	7f7f                	.2byte	0x7f7f
    2688:	7f38be1b          	.4byte	0x7f38be1b
    268c:	7edafcdb          	.4byte	0x7edafcdb
    2690:	ffff                	.2byte	0xffff
    2692:	7f7f                	.2byte	0x7f7f
    2694:	b6bd                	.2byte	0xb6bd
    2696:	7f28                	.2byte	0x7f28
    2698:	7ce8f58b          	.4byte	0x7ce8f58b
    269c:	ffff                	.2byte	0xffff
    269e:	7f7f                	.2byte	0x7f7f
    26a0:	cf65                	.2byte	0xcf65
    26a2:	7e9f cf9e 7e41      	.byte	0x9f, 0x7e, 0x9e, 0xcf, 0x41, 0x7e
    26a8:	ffff                	.2byte	0xffff
    26aa:	7f7f                	.2byte	0x7f7f
    26ac:	5bf8                	.2byte	0x5bf8
    26ae:	7e6e                	.2byte	0x7e6e
    26b0:	7f3457e7          	.4byte	0x7f3457e7
    26b4:	ffff                	.2byte	0xffff
    26b6:	7f7f                	.2byte	0x7f7f
    26b8:	1a41                	.2byte	0x1a41
    26ba:	7f28                	.2byte	0x7f28
    26bc:	4e0e                	.2byte	0x4e0e
    26be:	ffff7e6b          	.4byte	0xffff7e6b
    26c2:	7f7f                	.2byte	0x7f7f
    26c4:	967e                	.2byte	0x967e
    26c6:	7d34                	.2byte	0x7d34
    26c8:	5450                	.2byte	0x5450
    26ca:	7e65                	.2byte	0x7e65
    26cc:	ffff                	.2byte	0xffff
    26ce:	7f7f                	.2byte	0x7f7f
    26d0:	1ff5                	.2byte	0x1ff5
    26d2:	7edd                	.2byte	0x7edd
    26d4:	b77e                	.2byte	0xb77e
    26d6:	7e76                	.2byte	0x7e76
    26d8:	ffff                	.2byte	0xffff
    26da:	7f7f                	.2byte	0x7f7f
    26dc:	7e2b6a13          	or	s4,s6,2018
    26e0:	06c5                	.2byte	0x6c5
    26e2:	7ef9                	.2byte	0x7ef9
    26e4:	ffff                	.2byte	0xffff
    26e6:	7f7f                	.2byte	0x7f7f
    26e8:	7f3b506b          	.4byte	0x7f3b506b
    26ec:	2dff 7f19 ffff 7f7f 	.byte	0xff, 0x2d, 0x19, 0x7f, 0xff, 0xff, 0x7f, 0x7f, 0xb2, 0x35, 0x02, 0x7f, 0x66, 0x2a
    26f4:	35b2 7f02 2a66 
    26fa:	7ed1                	.2byte	0x7ed1
    26fc:	ffff                	.2byte	0xffff
    26fe:	7f7f                	.2byte	0x7f7f
    2700:	7f0a0433          	.4byte	0x7f0a0433
    2704:	1c0c                	.2byte	0x1c0c
    2706:	7df6                	.2byte	0x7df6
    2708:	ffff                	.2byte	0xffff
    270a:	7f7f                	.2byte	0x7f7f
    270c:	d01a                	.2byte	0xd01a
    270e:	7c7f                	.2byte	0x7c7f
    2710:	7c5b84eb          	.4byte	0x7c5b84eb
    2714:	ffff                	.2byte	0xffff
    2716:	7f7f                	.2byte	0x7f7f
    2718:	94f5                	.2byte	0x94f5
    271a:	7e20                	.2byte	0x7e20
    271c:	91ae                	.2byte	0x91ae
    271e:	7ee8                	.2byte	0x7ee8
    2720:	ffff                	.2byte	0xffff
    2722:	7f7f                	.2byte	0x7f7f
    2724:	0ed6                	.2byte	0xed6
    2726:	c3e07da7          	.4byte	0xc3e07da7
    272a:	7f2c                	.2byte	0x7f2c
    272c:	ffff                	.2byte	0xffff
    272e:	7f7f                	.2byte	0x7f7f
    2730:	7e94701b          	.4byte	0x7e94701b
    2734:	a1fc                	.2byte	0xa1fc
    2736:	7ea1                	.2byte	0x7ea1
    2738:	ffff                	.2byte	0xffff
    273a:	7f7f                	.2byte	0x7f7f
    273c:	4c1e                	.2byte	0x4c1e
    273e:	ed957e77          	.4byte	0xed957e77
    2742:	7eb5                	.2byte	0x7eb5
    2744:	ffff                	.2byte	0xffff
    2746:	7f7f                	.2byte	0x7f7f
    2748:	9928                	.2byte	0x9928
    274a:	7e51                	.2byte	0x7e51
    274c:	a011                	.2byte	0xa011
    274e:	7f08                	.2byte	0x7f08
    2750:	ffff                	.2byte	0xffff
    2752:	7f7f                	.2byte	0x7f7f
    2754:	2f4e                	.2byte	0x2f4e
    2756:	7df5                	.2byte	0x7df5
    2758:	8399                	.2byte	0x8399
    275a:	7eca                	.2byte	0x7eca
    275c:	ffff                	.2byte	0xffff
    275e:	7f7f                	.2byte	0x7f7f
    2760:	ec8a                	.2byte	0xec8a
    2762:	42247eef          	jal	t4,49b84 <_end+0x46b34>
    2766:	7e84                	.2byte	0x7e84
    2768:	ffff                	.2byte	0xffff
    276a:	7f7f                	.2byte	0x7f7f
    276c:	1299                	.2byte	0x1299
    276e:	7f11                	.2byte	0x7f11
    2770:	a956                	.2byte	0xa956
    2772:	ffff7e3f b1fc7f7f 	.8byte	0xb1fc7f7fffff7e3f
    277a:	7d7f                	.2byte	0x7d7f
    277c:	182e                	.2byte	0x182e
    277e:	7c4d                	.2byte	0x7c4d
    2780:	ffff                	.2byte	0xffff
    2782:	7f7f                	.2byte	0x7f7f
    2784:	10d9                	.2byte	0x10d9
    2786:	7e44                	.2byte	0x7e44
    2788:	9d70                	.2byte	0x9d70
    278a:	7f21                	.2byte	0x7f21
    278c:	ffff                	.2byte	0xffff
    278e:	7f7f                	.2byte	0x7f7f
    2790:	4cde                	.2byte	0x4cde
    2792:	7f19                	.2byte	0x7f19
    2794:	0af0                	.2byte	0xaf0
    2796:	7f19                	.2byte	0x7f19
    2798:	ffff                	.2byte	0xffff
    279a:	7f7f                	.2byte	0x7f7f
    279c:	1926                	.2byte	0x1926
    279e:	7e08                	.2byte	0x7e08
    27a0:	6ed6                	.2byte	0x6ed6
    27a2:	7ee0                	.2byte	0x7ee0
    27a4:	ffff                	.2byte	0xffff
    27a6:	7f7f                	.2byte	0x7f7f
    27a8:	eda9                	.2byte	0xeda9
    27aa:	e0d77eaf          	.4byte	0xe0d77eaf
    27ae:	ffff7cab          	.4byte	0xffff7cab
    27b2:	7f7f                	.2byte	0x7f7f
    27b4:	c69e                	.2byte	0xc69e
    27b6:	7ece                	.2byte	0x7ece
    27b8:	6b81                	.2byte	0x6b81
    27ba:	ffff7eef          	jal	t4,ffffa7b8 <_end+0xffff7768>
    27be:	7f7f                	.2byte	0x7f7f
    27c0:	7eba3613          	sltiu	a2,s4,2027
    27c4:	01e1                	.2byte	0x1e1
    27c6:	7e89                	.2byte	0x7e89
    27c8:	ffff                	.2byte	0xffff
    27ca:	7f7f                	.2byte	0x7f7f
    27cc:	e136                	.2byte	0xe136
    27ce:	7eda                	.2byte	0x7eda
    27d0:	7a06                	.2byte	0x7a06
    27d2:	7e19                	.2byte	0x7e19
    27d4:	ffff                	.2byte	0xffff
    27d6:	7f7f                	.2byte	0x7f7f
    27d8:	9e6a                	.2byte	0x9e6a
    27da:	69277ea3          	.4byte	0x69277ea3
    27de:	7d2c                	.2byte	0x7d2c
    27e0:	ffff                	.2byte	0xffff
    27e2:	7f7f                	.2byte	0x7f7f
    27e4:	7f1b5ad7          	.4byte	0x7f1b5ad7
    27e8:	2c25                	.2byte	0x2c25
    27ea:	ffff7ec7          	.4byte	0xffff7ec7
    27ee:	7f7f                	.2byte	0x7f7f
    27f0:	8885                	.2byte	0x8885
    27f2:	7f1d                	.2byte	0x7f1d
    27f4:	257f 7f2a ffff 7f7f 	.byte	0x7f, 0x25, 0x2a, 0x7f, 0xff, 0xff, 0x7f, 0x7f, 0x2d, 0xc4, 0x37, 0x7f, 0xbc, 0x4e
    27fc:	c42d 7f37 4ebc 
    2802:	7b8c                	.2byte	0x7b8c
    2804:	ffff                	.2byte	0xffff
    2806:	7f7f                	.2byte	0x7f7f
    2808:	7eb04e7b          	.4byte	0x7eb04e7b
    280c:	ce7f 7e4e ffff 7f7f 	.byte	0x7f, 0xce, 0x4e, 0x7e, 0xff, 0xff, 0x7f, 0x7f, 0xce, 0x49, 0xc5, 0x7e, 0xac, 0xdf, 0x36, 0x7f, 0xff, 0xff
    2814:	49ce 7ec5 dfac 7f36 
    281c:	ffff 
    281e:	7f7f                	.2byte	0x7f7f
    2820:	368d                	.2byte	0x368d
    2822:	2cf67ecf          	.4byte	0x2cf67ecf
    2826:	7f25                	.2byte	0x7f25
    2828:	ffff                	.2byte	0xffff
    282a:	7f7f                	.2byte	0x7f7f
    282c:	dc0e                	.2byte	0xdc0e
    282e:	7ec0                	.2byte	0x7ec0
    2830:	7f3c8f07          	.4byte	0x7f3c8f07
    2834:	ffff                	.2byte	0xffff
    2836:	7f7f                	.2byte	0x7f7f
    2838:	c854                	.2byte	0xc854
    283a:	246c7ee3          	bgeu	s8,t1,3296 <_end+0x246>
    283e:	ffff7e97          	auipc	t4,0xffff7
    2842:	7f7f                	.2byte	0x7f7f
    2844:	7d0597cb          	.4byte	0x7d0597cb
    2848:	0ca2                	.2byte	0xca2
    284a:	ffff7f07          	.4byte	0xffff7f07
    284e:	7f7f                	.2byte	0x7f7f
    2850:	028c                	.2byte	0x28c
    2852:	0ad47e97          	auipc	t4,0xad47
    2856:	7ebc                	.2byte	0x7ebc
    2858:	ffff                	.2byte	0xffff
    285a:	7f7f                	.2byte	0x7f7f
    285c:	7ec33c5b          	.4byte	0x7ec33c5b
    2860:	7602                	.2byte	0x7602
    2862:	7f15                	.2byte	0x7f15
    2864:	ffff                	.2byte	0xffff
    2866:	7f7f                	.2byte	0x7f7f
    2868:	7f018053          	.4byte	0x7f018053
    286c:	e2cd                	.2byte	0xe2cd
    286e:	ffff7e8f          	.4byte	0xffff7e8f
    2872:	7f7f                	.2byte	0x7f7f
    2874:	7e04dea3          	.4byte	0x7e04dea3
    2878:	bd1c                	.2byte	0xbd1c
    287a:	7ed2                	.2byte	0x7ed2
    287c:	ffff                	.2byte	0xffff
    287e:	7f7f                	.2byte	0x7f7f
    2880:	6c9e                	.2byte	0x6c9e
    2882:	7e3a                	.2byte	0x7e3a
    2884:	7f191a03          	lh	s4,2033(s2)
    2888:	ffff                	.2byte	0xffff
    288a:	7f7f                	.2byte	0x7f7f
    288c:	7ec2076b          	.4byte	0x7ec2076b
    2890:	2d46                	.2byte	0x2d46
    2892:	7ee2                	.2byte	0x7ee2
    2894:	ffff                	.2byte	0xffff
    2896:	7f7f                	.2byte	0x7f7f
    2898:	a185                	.2byte	0xa185
    289a:	7ee1                	.2byte	0x7ee1
    289c:	7f296f9b          	.4byte	0x7f296f9b
    28a0:	ffff                	.2byte	0xffff
    28a2:	7f7f                	.2byte	0x7f7f
    28a4:	5de9                	.2byte	0x5de9
    28a6:	7f1f b2db 7f00      	.byte	0x1f, 0x7f, 0xdb, 0xb2, 0x00, 0x7f
    28ac:	ffff                	.2byte	0xffff
    28ae:	7f7f                	.2byte	0x7f7f
    28b0:	8c7f 7f08 cbed 7f33 	.byte	0x7f, 0x8c, 0x08, 0x7f, 0xed, 0xcb, 0x33, 0x7f, 0xff, 0xff
    28b8:	ffff 
    28ba:	7f7f                	.2byte	0x7f7f
    28bc:	afdd                	.2byte	0xafdd
    28be:	7db9                	.2byte	0x7db9
    28c0:	8288                	.2byte	0x8288
    28c2:	7e7f                	.2byte	0x7e7f
    28c4:	ffff                	.2byte	0xffff
    28c6:	7f7f                	.2byte	0x7f7f
    28c8:	c6a8                	.2byte	0xc6a8
    28ca:	7e0e                	.2byte	0x7e0e
    28cc:	917d                	.2byte	0x917d
    28ce:	7f3e                	.2byte	0x7f3e
    28d0:	ffff                	.2byte	0xffff
    28d2:	7f7f                	.2byte	0x7f7f
    28d4:	d0a1                	.2byte	0xd0a1
    28d6:	7f20                	.2byte	0x7f20
    28d8:	adae                	.2byte	0xadae
    28da:	7ed5                	.2byte	0x7ed5
    28dc:	ffff                	.2byte	0xffff
    28de:	7f7f                	.2byte	0x7f7f
    28e0:	7eb07cdb          	.4byte	0x7eb07cdb
    28e4:	8d61                	.2byte	0x8d61
    28e6:	7e5e                	.2byte	0x7e5e
    28e8:	ffff                	.2byte	0xffff
    28ea:	7f7f                	.2byte	0x7f7f
    28ec:	0244                	.2byte	0x244
    28ee:	4e357e33          	.4byte	0x4e357e33
    28f2:	7e31                	.2byte	0x7e31
    28f4:	ffff                	.2byte	0xffff
    28f6:	7f7f                	.2byte	0x7f7f
    28f8:	425a                	.2byte	0x425a
    28fa:	7e2a                	.2byte	0x7e2a
    28fc:	2619                	.2byte	0x2619
    28fe:	7ea8                	.2byte	0x7ea8
    2900:	ffff                	.2byte	0xffff
    2902:	7f7f                	.2byte	0x7f7f
    2904:	592c                	.2byte	0x592c
    2906:	7e26                	.2byte	0x7e26
    2908:	7ea217bf 7f7fffff 	.8byte	0x7f7fffff7ea217bf
    2910:	e702                	.2byte	0xe702
    2912:	510e7ecf          	fnmadd.s	ft9,ft8,fa6,fa0
    2916:	7f34                	.2byte	0x7f34
    2918:	ffff                	.2byte	0xffff
    291a:	7f7f                	.2byte	0x7f7f
    291c:	12f5                	.2byte	0x12f5
    291e:	7f2d                	.2byte	0x7f2d
    2920:	f1e1                	.2byte	0xf1e1
    2922:	ffff7cbb          	.4byte	0xffff7cbb
    2926:	7f7f                	.2byte	0x7f7f
    2928:	8922                	.2byte	0x8922
    292a:	7f0a                	.2byte	0x7f0a
    292c:	7e2fb07b          	.4byte	0x7e2fb07b
    2930:	ffff                	.2byte	0xffff
    2932:	7f7f                	.2byte	0x7f7f
    2934:	5b96                	.2byte	0x5b96
    2936:	7f12                	.2byte	0x7f12
    2938:	0890                	.2byte	0x890
    293a:	ffff7acf          	.4byte	0xffff7acf
    293e:	7f7f                	.2byte	0x7f7f
    2940:	2ab9                	.2byte	0x2ab9
    2942:	7cae                	.2byte	0x7cae
    2944:	7786                	.2byte	0x7786
    2946:	7f20                	.2byte	0x7f20
    2948:	ffff                	.2byte	0xffff
    294a:	7f7f                	.2byte	0x7f7f
    294c:	3631                	.2byte	0x3631
    294e:	7efa                	.2byte	0x7efa
    2950:	6f54                	.2byte	0x6f54
    2952:	ffff7f17          	auipc	t5,0xffff7
    2956:	7f7f                	.2byte	0x7f7f
    2958:	7e43e49b          	.4byte	0x7e43e49b
    295c:	7ebe3f3f 7f7fffff 	.8byte	0x7f7fffff7ebe3f3f
    2964:	7dce622b          	.4byte	0x7dce622b
    2968:	7f22b50f          	.4byte	0x7f22b50f
    296c:	ffff                	.2byte	0xffff
    296e:	7f7f                	.2byte	0x7f7f
    2970:	2a8e                	.2byte	0x2a8e
    2972:	7e7d                	.2byte	0x7e7d
    2974:	7e2abd9b          	.4byte	0x7e2abd9b
    2978:	ffff                	.2byte	0xffff
    297a:	7f7f                	.2byte	0x7f7f
    297c:	5ff0                	.2byte	0x5ff0
    297e:	7e04                	.2byte	0x7e04
    2980:	a2a8                	.2byte	0xa2a8
    2982:	ffff7f17          	auipc	t5,0xffff7
    2986:	7f7f                	.2byte	0x7f7f
    2988:	fada                	.2byte	0xfada
    298a:	7f08                	.2byte	0x7f08
    298c:	7b0c                	.2byte	0x7b0c
    298e:	7f1c                	.2byte	0x7f1c
    2990:	ffff                	.2byte	0xffff
    2992:	7f7f                	.2byte	0x7f7f
    2994:	738a                	.2byte	0x738a
    2996:	7f0d                	.2byte	0x7f0d
    2998:	72fc                	.2byte	0x72fc
    299a:	7e01                	.2byte	0x7e01
    299c:	ffff                	.2byte	0xffff
    299e:	7f7f                	.2byte	0x7f7f
    29a0:	e86e                	.2byte	0xe86e
    29a2:	7ec8                	.2byte	0x7ec8
    29a4:	6455                	.2byte	0x6455
    29a6:	7e8d                	.2byte	0x7e8d
    29a8:	ffff                	.2byte	0xffff
    29aa:	7f7f                	.2byte	0x7f7f
    29ac:	a528                	.2byte	0xa528
    29ae:	7e4e                	.2byte	0x7e4e
    29b0:	0bc8                	.2byte	0xbc8
    29b2:	7d66                	.2byte	0x7d66
    29b4:	ffff                	.2byte	0xffff
    29b6:	7f7f                	.2byte	0x7f7f
    29b8:	6d52                	.2byte	0x6d52
    29ba:	7e20                	.2byte	0x7e20
    29bc:	851e                	.2byte	0x851e
    29be:	7e1f ffff 7f7f      	.byte	0x1f, 0x7e, 0xff, 0xff, 0x7f, 0x7f

000029c4 <rvtest_data_end>:
	...

000029d0 <data_begin>:
    29d0:	deadbeef          	jal	t4,fffddfba <_end+0xfffdaf6a>
    29d4:	deadbeef          	jal	t4,fffddfbe <_end+0xfffdaf6e>
    29d8:	deadbeef          	jal	t4,fffddfc2 <_end+0xfffdaf72>
    29dc:	deadbeef          	jal	t4,fffddfc6 <_end+0xfffdaf76>
    29e0:	deadbeef          	jal	t4,fffddfca <_end+0xfffdaf7a>
    29e4:	deadbeef          	jal	t4,fffddfce <_end+0xfffdaf7e>
    29e8:	deadbeef          	jal	t4,fffddfd2 <_end+0xfffdaf82>
    29ec:	deadbeef          	jal	t4,fffddfd6 <_end+0xfffdaf86>
    29f0:	deadbeef          	jal	t4,fffddfda <_end+0xfffdaf8a>
    29f4:	deadbeef          	jal	t4,fffddfde <_end+0xfffdaf8e>
    29f8:	deadbeef          	jal	t4,fffddfe2 <_end+0xfffdaf92>
    29fc:	deadbeef          	jal	t4,fffddfe6 <_end+0xfffdaf96>
    2a00:	deadbeef          	jal	t4,fffddfea <_end+0xfffdaf9a>
    2a04:	deadbeef          	jal	t4,fffddfee <_end+0xfffdaf9e>
    2a08:	deadbeef          	jal	t4,fffddff2 <_end+0xfffdafa2>
    2a0c:	deadbeef          	jal	t4,fffddff6 <_end+0xfffdafa6>
    2a10:	deadbeef          	jal	t4,fffddffa <_end+0xfffdafaa>
    2a14:	deadbeef          	jal	t4,fffddffe <_end+0xfffdafae>
    2a18:	deadbeef          	jal	t4,fffde002 <_end+0xfffdafb2>
    2a1c:	deadbeef          	jal	t4,fffde006 <_end+0xfffdafb6>
    2a20:	deadbeef          	jal	t4,fffde00a <_end+0xfffdafba>
    2a24:	deadbeef          	jal	t4,fffde00e <_end+0xfffdafbe>
    2a28:	deadbeef          	jal	t4,fffde012 <_end+0xfffdafc2>
    2a2c:	deadbeef          	jal	t4,fffde016 <_end+0xfffdafc6>
    2a30:	deadbeef          	jal	t4,fffde01a <_end+0xfffdafca>
    2a34:	deadbeef          	jal	t4,fffde01e <_end+0xfffdafce>
    2a38:	deadbeef          	jal	t4,fffde022 <_end+0xfffdafd2>
    2a3c:	deadbeef          	jal	t4,fffde026 <_end+0xfffdafd6>
    2a40:	deadbeef          	jal	t4,fffde02a <_end+0xfffdafda>
    2a44:	deadbeef          	jal	t4,fffde02e <_end+0xfffdafde>
    2a48:	deadbeef          	jal	t4,fffde032 <_end+0xfffdafe2>
    2a4c:	deadbeef          	jal	t4,fffde036 <_end+0xfffdafe6>
    2a50:	deadbeef          	jal	t4,fffde03a <_end+0xfffdafea>
    2a54:	deadbeef          	jal	t4,fffde03e <_end+0xfffdafee>
    2a58:	deadbeef          	jal	t4,fffde042 <_end+0xfffdaff2>
    2a5c:	deadbeef          	jal	t4,fffde046 <_end+0xfffdaff6>
    2a60:	deadbeef          	jal	t4,fffde04a <_end+0xfffdaffa>
    2a64:	deadbeef          	jal	t4,fffde04e <_end+0xfffdaffe>
    2a68:	deadbeef          	jal	t4,fffde052 <_end+0xfffdb002>
    2a6c:	deadbeef          	jal	t4,fffde056 <_end+0xfffdb006>
    2a70:	deadbeef          	jal	t4,fffde05a <_end+0xfffdb00a>
    2a74:	deadbeef          	jal	t4,fffde05e <_end+0xfffdb00e>
    2a78:	deadbeef          	jal	t4,fffde062 <_end+0xfffdb012>
    2a7c:	deadbeef          	jal	t4,fffde066 <_end+0xfffdb016>
    2a80:	deadbeef          	jal	t4,fffde06a <_end+0xfffdb01a>
    2a84:	deadbeef          	jal	t4,fffde06e <_end+0xfffdb01e>
    2a88:	deadbeef          	jal	t4,fffde072 <_end+0xfffdb022>
    2a8c:	deadbeef          	jal	t4,fffde076 <_end+0xfffdb026>
    2a90:	deadbeef          	jal	t4,fffde07a <_end+0xfffdb02a>
    2a94:	deadbeef          	jal	t4,fffde07e <_end+0xfffdb02e>
    2a98:	deadbeef          	jal	t4,fffde082 <_end+0xfffdb032>
    2a9c:	deadbeef          	jal	t4,fffde086 <_end+0xfffdb036>
    2aa0:	deadbeef          	jal	t4,fffde08a <_end+0xfffdb03a>
    2aa4:	deadbeef          	jal	t4,fffde08e <_end+0xfffdb03e>
    2aa8:	deadbeef          	jal	t4,fffde092 <_end+0xfffdb042>
    2aac:	deadbeef          	jal	t4,fffde096 <_end+0xfffdb046>
    2ab0:	deadbeef          	jal	t4,fffde09a <_end+0xfffdb04a>
    2ab4:	deadbeef          	jal	t4,fffde09e <_end+0xfffdb04e>
    2ab8:	deadbeef          	jal	t4,fffde0a2 <_end+0xfffdb052>
    2abc:	deadbeef          	jal	t4,fffde0a6 <_end+0xfffdb056>
    2ac0:	deadbeef          	jal	t4,fffde0aa <_end+0xfffdb05a>
    2ac4:	deadbeef          	jal	t4,fffde0ae <_end+0xfffdb05e>
    2ac8:	deadbeef          	jal	t4,fffde0b2 <_end+0xfffdb062>
    2acc:	deadbeef          	jal	t4,fffde0b6 <_end+0xfffdb066>
    2ad0:	deadbeef          	jal	t4,fffde0ba <_end+0xfffdb06a>
    2ad4:	deadbeef          	jal	t4,fffde0be <_end+0xfffdb06e>
    2ad8:	deadbeef          	jal	t4,fffde0c2 <_end+0xfffdb072>
    2adc:	deadbeef          	jal	t4,fffde0c6 <_end+0xfffdb076>
    2ae0:	deadbeef          	jal	t4,fffde0ca <_end+0xfffdb07a>
    2ae4:	deadbeef          	jal	t4,fffde0ce <_end+0xfffdb07e>
    2ae8:	deadbeef          	jal	t4,fffde0d2 <_end+0xfffdb082>
    2aec:	deadbeef          	jal	t4,fffde0d6 <_end+0xfffdb086>
    2af0:	deadbeef          	jal	t4,fffde0da <_end+0xfffdb08a>
    2af4:	deadbeef          	jal	t4,fffde0de <_end+0xfffdb08e>
    2af8:	deadbeef          	jal	t4,fffde0e2 <_end+0xfffdb092>
    2afc:	deadbeef          	jal	t4,fffde0e6 <_end+0xfffdb096>
    2b00:	deadbeef          	jal	t4,fffde0ea <_end+0xfffdb09a>
    2b04:	deadbeef          	jal	t4,fffde0ee <_end+0xfffdb09e>
    2b08:	deadbeef          	jal	t4,fffde0f2 <_end+0xfffdb0a2>
    2b0c:	deadbeef          	jal	t4,fffde0f6 <_end+0xfffdb0a6>
    2b10:	deadbeef          	jal	t4,fffde0fa <_end+0xfffdb0aa>
    2b14:	deadbeef          	jal	t4,fffde0fe <_end+0xfffdb0ae>
    2b18:	deadbeef          	jal	t4,fffde102 <_end+0xfffdb0b2>
    2b1c:	deadbeef          	jal	t4,fffde106 <_end+0xfffdb0b6>
    2b20:	deadbeef          	jal	t4,fffde10a <_end+0xfffdb0ba>
    2b24:	deadbeef          	jal	t4,fffde10e <_end+0xfffdb0be>
    2b28:	deadbeef          	jal	t4,fffde112 <_end+0xfffdb0c2>
    2b2c:	deadbeef          	jal	t4,fffde116 <_end+0xfffdb0c6>
    2b30:	deadbeef          	jal	t4,fffde11a <_end+0xfffdb0ca>
    2b34:	deadbeef          	jal	t4,fffde11e <_end+0xfffdb0ce>
    2b38:	deadbeef          	jal	t4,fffde122 <_end+0xfffdb0d2>
    2b3c:	deadbeef          	jal	t4,fffde126 <_end+0xfffdb0d6>
    2b40:	deadbeef          	jal	t4,fffde12a <_end+0xfffdb0da>
    2b44:	deadbeef          	jal	t4,fffde12e <_end+0xfffdb0de>
    2b48:	deadbeef          	jal	t4,fffde132 <_end+0xfffdb0e2>
    2b4c:	deadbeef          	jal	t4,fffde136 <_end+0xfffdb0e6>
    2b50:	deadbeef          	jal	t4,fffde13a <_end+0xfffdb0ea>
    2b54:	deadbeef          	jal	t4,fffde13e <_end+0xfffdb0ee>
    2b58:	deadbeef          	jal	t4,fffde142 <_end+0xfffdb0f2>
    2b5c:	deadbeef          	jal	t4,fffde146 <_end+0xfffdb0f6>
    2b60:	deadbeef          	jal	t4,fffde14a <_end+0xfffdb0fa>
    2b64:	deadbeef          	jal	t4,fffde14e <_end+0xfffdb0fe>
    2b68:	deadbeef          	jal	t4,fffde152 <_end+0xfffdb102>
    2b6c:	deadbeef          	jal	t4,fffde156 <_end+0xfffdb106>
    2b70:	deadbeef          	jal	t4,fffde15a <_end+0xfffdb10a>
    2b74:	deadbeef          	jal	t4,fffde15e <_end+0xfffdb10e>
    2b78:	deadbeef          	jal	t4,fffde162 <_end+0xfffdb112>
    2b7c:	deadbeef          	jal	t4,fffde166 <_end+0xfffdb116>
    2b80:	deadbeef          	jal	t4,fffde16a <_end+0xfffdb11a>
    2b84:	deadbeef          	jal	t4,fffde16e <_end+0xfffdb11e>
    2b88:	deadbeef          	jal	t4,fffde172 <_end+0xfffdb122>
    2b8c:	deadbeef          	jal	t4,fffde176 <_end+0xfffdb126>
    2b90:	deadbeef          	jal	t4,fffde17a <_end+0xfffdb12a>
    2b94:	deadbeef          	jal	t4,fffde17e <_end+0xfffdb12e>
    2b98:	deadbeef          	jal	t4,fffde182 <_end+0xfffdb132>
    2b9c:	deadbeef          	jal	t4,fffde186 <_end+0xfffdb136>
    2ba0:	deadbeef          	jal	t4,fffde18a <_end+0xfffdb13a>
    2ba4:	deadbeef          	jal	t4,fffde18e <_end+0xfffdb13e>
    2ba8:	deadbeef          	jal	t4,fffde192 <_end+0xfffdb142>
    2bac:	deadbeef          	jal	t4,fffde196 <_end+0xfffdb146>
    2bb0:	deadbeef          	jal	t4,fffde19a <_end+0xfffdb14a>
    2bb4:	deadbeef          	jal	t4,fffde19e <_end+0xfffdb14e>
    2bb8:	deadbeef          	jal	t4,fffde1a2 <_end+0xfffdb152>
    2bbc:	deadbeef          	jal	t4,fffde1a6 <_end+0xfffdb156>
    2bc0:	deadbeef          	jal	t4,fffde1aa <_end+0xfffdb15a>
    2bc4:	deadbeef          	jal	t4,fffde1ae <_end+0xfffdb15e>
    2bc8:	deadbeef          	jal	t4,fffde1b2 <_end+0xfffdb162>
    2bcc:	deadbeef          	jal	t4,fffde1b6 <_end+0xfffdb166>
    2bd0:	deadbeef          	jal	t4,fffde1ba <_end+0xfffdb16a>
    2bd4:	deadbeef          	jal	t4,fffde1be <_end+0xfffdb16e>
    2bd8:	deadbeef          	jal	t4,fffde1c2 <_end+0xfffdb172>
    2bdc:	deadbeef          	jal	t4,fffde1c6 <_end+0xfffdb176>
    2be0:	deadbeef          	jal	t4,fffde1ca <_end+0xfffdb17a>
    2be4:	deadbeef          	jal	t4,fffde1ce <_end+0xfffdb17e>
    2be8:	deadbeef          	jal	t4,fffde1d2 <_end+0xfffdb182>
    2bec:	deadbeef          	jal	t4,fffde1d6 <_end+0xfffdb186>
    2bf0:	deadbeef          	jal	t4,fffde1da <_end+0xfffdb18a>
    2bf4:	deadbeef          	jal	t4,fffde1de <_end+0xfffdb18e>
    2bf8:	deadbeef          	jal	t4,fffde1e2 <_end+0xfffdb192>
    2bfc:	deadbeef          	jal	t4,fffde1e6 <_end+0xfffdb196>
    2c00:	deadbeef          	jal	t4,fffde1ea <_end+0xfffdb19a>
    2c04:	deadbeef          	jal	t4,fffde1ee <_end+0xfffdb19e>
    2c08:	deadbeef          	jal	t4,fffde1f2 <_end+0xfffdb1a2>
    2c0c:	deadbeef          	jal	t4,fffde1f6 <_end+0xfffdb1a6>
    2c10:	deadbeef          	jal	t4,fffde1fa <_end+0xfffdb1aa>
    2c14:	deadbeef          	jal	t4,fffde1fe <_end+0xfffdb1ae>
    2c18:	deadbeef          	jal	t4,fffde202 <_end+0xfffdb1b2>
    2c1c:	deadbeef          	jal	t4,fffde206 <_end+0xfffdb1b6>
    2c20:	deadbeef          	jal	t4,fffde20a <_end+0xfffdb1ba>
    2c24:	deadbeef          	jal	t4,fffde20e <_end+0xfffdb1be>
    2c28:	deadbeef          	jal	t4,fffde212 <_end+0xfffdb1c2>
    2c2c:	deadbeef          	jal	t4,fffde216 <_end+0xfffdb1c6>
    2c30:	deadbeef          	jal	t4,fffde21a <_end+0xfffdb1ca>
    2c34:	deadbeef          	jal	t4,fffde21e <_end+0xfffdb1ce>
    2c38:	deadbeef          	jal	t4,fffde222 <_end+0xfffdb1d2>
    2c3c:	deadbeef          	jal	t4,fffde226 <_end+0xfffdb1d6>
    2c40:	deadbeef          	jal	t4,fffde22a <_end+0xfffdb1da>
    2c44:	deadbeef          	jal	t4,fffde22e <_end+0xfffdb1de>
    2c48:	deadbeef          	jal	t4,fffde232 <_end+0xfffdb1e2>
    2c4c:	deadbeef          	jal	t4,fffde236 <_end+0xfffdb1e6>
    2c50:	deadbeef          	jal	t4,fffde23a <_end+0xfffdb1ea>
    2c54:	deadbeef          	jal	t4,fffde23e <_end+0xfffdb1ee>
    2c58:	deadbeef          	jal	t4,fffde242 <_end+0xfffdb1f2>
    2c5c:	deadbeef          	jal	t4,fffde246 <_end+0xfffdb1f6>
    2c60:	deadbeef          	jal	t4,fffde24a <_end+0xfffdb1fa>
    2c64:	deadbeef          	jal	t4,fffde24e <_end+0xfffdb1fe>
    2c68:	deadbeef          	jal	t4,fffde252 <_end+0xfffdb202>
    2c6c:	deadbeef          	jal	t4,fffde256 <_end+0xfffdb206>
    2c70:	deadbeef          	jal	t4,fffde25a <_end+0xfffdb20a>
    2c74:	deadbeef          	jal	t4,fffde25e <_end+0xfffdb20e>
    2c78:	deadbeef          	jal	t4,fffde262 <_end+0xfffdb212>
    2c7c:	deadbeef          	jal	t4,fffde266 <_end+0xfffdb216>
    2c80:	deadbeef          	jal	t4,fffde26a <_end+0xfffdb21a>
    2c84:	deadbeef          	jal	t4,fffde26e <_end+0xfffdb21e>
    2c88:	deadbeef          	jal	t4,fffde272 <_end+0xfffdb222>
    2c8c:	deadbeef          	jal	t4,fffde276 <_end+0xfffdb226>
    2c90:	deadbeef          	jal	t4,fffde27a <_end+0xfffdb22a>
    2c94:	deadbeef          	jal	t4,fffde27e <_end+0xfffdb22e>
    2c98:	deadbeef          	jal	t4,fffde282 <_end+0xfffdb232>
    2c9c:	deadbeef          	jal	t4,fffde286 <_end+0xfffdb236>
    2ca0:	deadbeef          	jal	t4,fffde28a <_end+0xfffdb23a>
    2ca4:	deadbeef          	jal	t4,fffde28e <_end+0xfffdb23e>
    2ca8:	deadbeef          	jal	t4,fffde292 <_end+0xfffdb242>
    2cac:	deadbeef          	jal	t4,fffde296 <_end+0xfffdb246>
    2cb0:	deadbeef          	jal	t4,fffde29a <_end+0xfffdb24a>
    2cb4:	deadbeef          	jal	t4,fffde29e <_end+0xfffdb24e>
    2cb8:	deadbeef          	jal	t4,fffde2a2 <_end+0xfffdb252>
    2cbc:	deadbeef          	jal	t4,fffde2a6 <_end+0xfffdb256>
    2cc0:	deadbeef          	jal	t4,fffde2aa <_end+0xfffdb25a>
    2cc4:	deadbeef          	jal	t4,fffde2ae <_end+0xfffdb25e>
    2cc8:	deadbeef          	jal	t4,fffde2b2 <_end+0xfffdb262>
    2ccc:	deadbeef          	jal	t4,fffde2b6 <_end+0xfffdb266>
    2cd0:	deadbeef          	jal	t4,fffde2ba <_end+0xfffdb26a>
    2cd4:	deadbeef          	jal	t4,fffde2be <_end+0xfffdb26e>
    2cd8:	deadbeef          	jal	t4,fffde2c2 <_end+0xfffdb272>
    2cdc:	deadbeef          	jal	t4,fffde2c6 <_end+0xfffdb276>
    2ce0:	deadbeef          	jal	t4,fffde2ca <_end+0xfffdb27a>
    2ce4:	deadbeef          	jal	t4,fffde2ce <_end+0xfffdb27e>
    2ce8:	deadbeef          	jal	t4,fffde2d2 <_end+0xfffdb282>
    2cec:	deadbeef          	jal	t4,fffde2d6 <_end+0xfffdb286>
    2cf0:	deadbeef          	jal	t4,fffde2da <_end+0xfffdb28a>
    2cf4:	deadbeef          	jal	t4,fffde2de <_end+0xfffdb28e>
    2cf8:	deadbeef          	jal	t4,fffde2e2 <_end+0xfffdb292>
    2cfc:	deadbeef          	jal	t4,fffde2e6 <_end+0xfffdb296>
    2d00:	deadbeef          	jal	t4,fffde2ea <_end+0xfffdb29a>
    2d04:	deadbeef          	jal	t4,fffde2ee <_end+0xfffdb29e>
    2d08:	deadbeef          	jal	t4,fffde2f2 <_end+0xfffdb2a2>
    2d0c:	deadbeef          	jal	t4,fffde2f6 <_end+0xfffdb2a6>
    2d10:	deadbeef          	jal	t4,fffde2fa <_end+0xfffdb2aa>
    2d14:	deadbeef          	jal	t4,fffde2fe <_end+0xfffdb2ae>
    2d18:	deadbeef          	jal	t4,fffde302 <_end+0xfffdb2b2>
    2d1c:	deadbeef          	jal	t4,fffde306 <_end+0xfffdb2b6>
    2d20:	deadbeef          	jal	t4,fffde30a <_end+0xfffdb2ba>
    2d24:	deadbeef          	jal	t4,fffde30e <_end+0xfffdb2be>
    2d28:	deadbeef          	jal	t4,fffde312 <_end+0xfffdb2c2>
    2d2c:	deadbeef          	jal	t4,fffde316 <_end+0xfffdb2c6>
    2d30:	deadbeef          	jal	t4,fffde31a <_end+0xfffdb2ca>
    2d34:	deadbeef          	jal	t4,fffde31e <_end+0xfffdb2ce>
    2d38:	deadbeef          	jal	t4,fffde322 <_end+0xfffdb2d2>
    2d3c:	deadbeef          	jal	t4,fffde326 <_end+0xfffdb2d6>
    2d40:	deadbeef          	jal	t4,fffde32a <_end+0xfffdb2da>
    2d44:	deadbeef          	jal	t4,fffde32e <_end+0xfffdb2de>
    2d48:	deadbeef          	jal	t4,fffde332 <_end+0xfffdb2e2>
    2d4c:	deadbeef          	jal	t4,fffde336 <_end+0xfffdb2e6>
    2d50:	deadbeef          	jal	t4,fffde33a <_end+0xfffdb2ea>
    2d54:	deadbeef          	jal	t4,fffde33e <_end+0xfffdb2ee>
    2d58:	deadbeef          	jal	t4,fffde342 <_end+0xfffdb2f2>
    2d5c:	deadbeef          	jal	t4,fffde346 <_end+0xfffdb2f6>
    2d60:	deadbeef          	jal	t4,fffde34a <_end+0xfffdb2fa>
    2d64:	deadbeef          	jal	t4,fffde34e <_end+0xfffdb2fe>
    2d68:	deadbeef          	jal	t4,fffde352 <_end+0xfffdb302>
    2d6c:	deadbeef          	jal	t4,fffde356 <_end+0xfffdb306>
    2d70:	deadbeef          	jal	t4,fffde35a <_end+0xfffdb30a>
    2d74:	deadbeef          	jal	t4,fffde35e <_end+0xfffdb30e>
    2d78:	deadbeef          	jal	t4,fffde362 <_end+0xfffdb312>
    2d7c:	deadbeef          	jal	t4,fffde366 <_end+0xfffdb316>
    2d80:	deadbeef          	jal	t4,fffde36a <_end+0xfffdb31a>
    2d84:	deadbeef          	jal	t4,fffde36e <_end+0xfffdb31e>
    2d88:	deadbeef          	jal	t4,fffde372 <_end+0xfffdb322>
    2d8c:	deadbeef          	jal	t4,fffde376 <_end+0xfffdb326>
    2d90:	deadbeef          	jal	t4,fffde37a <_end+0xfffdb32a>
    2d94:	deadbeef          	jal	t4,fffde37e <_end+0xfffdb32e>
    2d98:	deadbeef          	jal	t4,fffde382 <_end+0xfffdb332>
    2d9c:	deadbeef          	jal	t4,fffde386 <_end+0xfffdb336>
    2da0:	deadbeef          	jal	t4,fffde38a <_end+0xfffdb33a>
    2da4:	deadbeef          	jal	t4,fffde38e <_end+0xfffdb33e>
    2da8:	deadbeef          	jal	t4,fffde392 <_end+0xfffdb342>
    2dac:	deadbeef          	jal	t4,fffde396 <_end+0xfffdb346>
    2db0:	deadbeef          	jal	t4,fffde39a <_end+0xfffdb34a>
    2db4:	deadbeef          	jal	t4,fffde39e <_end+0xfffdb34e>
    2db8:	deadbeef          	jal	t4,fffde3a2 <_end+0xfffdb352>
    2dbc:	deadbeef          	jal	t4,fffde3a6 <_end+0xfffdb356>
    2dc0:	deadbeef          	jal	t4,fffde3aa <_end+0xfffdb35a>
    2dc4:	deadbeef          	jal	t4,fffde3ae <_end+0xfffdb35e>
    2dc8:	deadbeef          	jal	t4,fffde3b2 <_end+0xfffdb362>
    2dcc:	deadbeef          	jal	t4,fffde3b6 <_end+0xfffdb366>
    2dd0:	deadbeef          	jal	t4,fffde3ba <_end+0xfffdb36a>
    2dd4:	deadbeef          	jal	t4,fffde3be <_end+0xfffdb36e>
    2dd8:	deadbeef          	jal	t4,fffde3c2 <_end+0xfffdb372>
    2ddc:	deadbeef          	jal	t4,fffde3c6 <_end+0xfffdb376>
    2de0:	deadbeef          	jal	t4,fffde3ca <_end+0xfffdb37a>
    2de4:	deadbeef          	jal	t4,fffde3ce <_end+0xfffdb37e>
    2de8:	deadbeef          	jal	t4,fffde3d2 <_end+0xfffdb382>
    2dec:	deadbeef          	jal	t4,fffde3d6 <_end+0xfffdb386>
    2df0:	deadbeef          	jal	t4,fffde3da <_end+0xfffdb38a>
    2df4:	deadbeef          	jal	t4,fffde3de <_end+0xfffdb38e>
    2df8:	deadbeef          	jal	t4,fffde3e2 <_end+0xfffdb392>
    2dfc:	deadbeef          	jal	t4,fffde3e6 <_end+0xfffdb396>
    2e00:	deadbeef          	jal	t4,fffde3ea <_end+0xfffdb39a>
    2e04:	deadbeef          	jal	t4,fffde3ee <_end+0xfffdb39e>
    2e08:	deadbeef          	jal	t4,fffde3f2 <_end+0xfffdb3a2>
    2e0c:	deadbeef          	jal	t4,fffde3f6 <_end+0xfffdb3a6>
    2e10:	deadbeef          	jal	t4,fffde3fa <_end+0xfffdb3aa>
    2e14:	deadbeef          	jal	t4,fffde3fe <_end+0xfffdb3ae>
    2e18:	deadbeef          	jal	t4,fffde402 <_end+0xfffdb3b2>
    2e1c:	deadbeef          	jal	t4,fffde406 <_end+0xfffdb3b6>
    2e20:	deadbeef          	jal	t4,fffde40a <_end+0xfffdb3ba>
    2e24:	deadbeef          	jal	t4,fffde40e <_end+0xfffdb3be>
    2e28:	deadbeef          	jal	t4,fffde412 <_end+0xfffdb3c2>
    2e2c:	deadbeef          	jal	t4,fffde416 <_end+0xfffdb3c6>
    2e30:	deadbeef          	jal	t4,fffde41a <_end+0xfffdb3ca>
    2e34:	deadbeef          	jal	t4,fffde41e <_end+0xfffdb3ce>
    2e38:	deadbeef          	jal	t4,fffde422 <_end+0xfffdb3d2>
    2e3c:	deadbeef          	jal	t4,fffde426 <_end+0xfffdb3d6>
    2e40:	deadbeef          	jal	t4,fffde42a <_end+0xfffdb3da>
    2e44:	deadbeef          	jal	t4,fffde42e <_end+0xfffdb3de>
    2e48:	deadbeef          	jal	t4,fffde432 <_end+0xfffdb3e2>
    2e4c:	deadbeef          	jal	t4,fffde436 <_end+0xfffdb3e6>
    2e50:	deadbeef          	jal	t4,fffde43a <_end+0xfffdb3ea>
    2e54:	deadbeef          	jal	t4,fffde43e <_end+0xfffdb3ee>
    2e58:	deadbeef          	jal	t4,fffde442 <_end+0xfffdb3f2>
    2e5c:	deadbeef          	jal	t4,fffde446 <_end+0xfffdb3f6>
    2e60:	deadbeef          	jal	t4,fffde44a <_end+0xfffdb3fa>
    2e64:	deadbeef          	jal	t4,fffde44e <_end+0xfffdb3fe>
    2e68:	deadbeef          	jal	t4,fffde452 <_end+0xfffdb402>
    2e6c:	deadbeef          	jal	t4,fffde456 <_end+0xfffdb406>
    2e70:	deadbeef          	jal	t4,fffde45a <_end+0xfffdb40a>
    2e74:	deadbeef          	jal	t4,fffde45e <_end+0xfffdb40e>
    2e78:	deadbeef          	jal	t4,fffde462 <_end+0xfffdb412>
    2e7c:	deadbeef          	jal	t4,fffde466 <_end+0xfffdb416>
    2e80:	deadbeef          	jal	t4,fffde46a <_end+0xfffdb41a>
    2e84:	deadbeef          	jal	t4,fffde46e <_end+0xfffdb41e>
    2e88:	deadbeef          	jal	t4,fffde472 <_end+0xfffdb422>
    2e8c:	deadbeef          	jal	t4,fffde476 <_end+0xfffdb426>
    2e90:	deadbeef          	jal	t4,fffde47a <_end+0xfffdb42a>
    2e94:	deadbeef          	jal	t4,fffde47e <_end+0xfffdb42e>
    2e98:	deadbeef          	jal	t4,fffde482 <_end+0xfffdb432>
    2e9c:	deadbeef          	jal	t4,fffde486 <_end+0xfffdb436>
    2ea0:	deadbeef          	jal	t4,fffde48a <_end+0xfffdb43a>
    2ea4:	deadbeef          	jal	t4,fffde48e <_end+0xfffdb43e>
    2ea8:	deadbeef          	jal	t4,fffde492 <_end+0xfffdb442>
    2eac:	deadbeef          	jal	t4,fffde496 <_end+0xfffdb446>
    2eb0:	deadbeef          	jal	t4,fffde49a <_end+0xfffdb44a>
    2eb4:	deadbeef          	jal	t4,fffde49e <_end+0xfffdb44e>
    2eb8:	deadbeef          	jal	t4,fffde4a2 <_end+0xfffdb452>
    2ebc:	deadbeef          	jal	t4,fffde4a6 <_end+0xfffdb456>
    2ec0:	deadbeef          	jal	t4,fffde4aa <_end+0xfffdb45a>
    2ec4:	deadbeef          	jal	t4,fffde4ae <_end+0xfffdb45e>
    2ec8:	deadbeef          	jal	t4,fffde4b2 <_end+0xfffdb462>
    2ecc:	deadbeef          	jal	t4,fffde4b6 <_end+0xfffdb466>
    2ed0:	deadbeef          	jal	t4,fffde4ba <_end+0xfffdb46a>
    2ed4:	deadbeef          	jal	t4,fffde4be <_end+0xfffdb46e>
    2ed8:	deadbeef          	jal	t4,fffde4c2 <_end+0xfffdb472>
    2edc:	deadbeef          	jal	t4,fffde4c6 <_end+0xfffdb476>
    2ee0:	deadbeef          	jal	t4,fffde4ca <_end+0xfffdb47a>
    2ee4:	deadbeef          	jal	t4,fffde4ce <_end+0xfffdb47e>
    2ee8:	deadbeef          	jal	t4,fffde4d2 <_end+0xfffdb482>
    2eec:	deadbeef          	jal	t4,fffde4d6 <_end+0xfffdb486>
    2ef0:	deadbeef          	jal	t4,fffde4da <_end+0xfffdb48a>
    2ef4:	deadbeef          	jal	t4,fffde4de <_end+0xfffdb48e>
    2ef8:	deadbeef          	jal	t4,fffde4e2 <_end+0xfffdb492>
    2efc:	deadbeef          	jal	t4,fffde4e6 <_end+0xfffdb496>
    2f00:	deadbeef          	jal	t4,fffde4ea <_end+0xfffdb49a>
    2f04:	deadbeef          	jal	t4,fffde4ee <_end+0xfffdb49e>
    2f08:	deadbeef          	jal	t4,fffde4f2 <_end+0xfffdb4a2>
    2f0c:	deadbeef          	jal	t4,fffde4f6 <_end+0xfffdb4a6>
    2f10:	deadbeef          	jal	t4,fffde4fa <_end+0xfffdb4aa>
    2f14:	deadbeef          	jal	t4,fffde4fe <_end+0xfffdb4ae>
    2f18:	deadbeef          	jal	t4,fffde502 <_end+0xfffdb4b2>
    2f1c:	deadbeef          	jal	t4,fffde506 <_end+0xfffdb4b6>
    2f20:	deadbeef          	jal	t4,fffde50a <_end+0xfffdb4ba>
    2f24:	deadbeef          	jal	t4,fffde50e <_end+0xfffdb4be>
    2f28:	deadbeef          	jal	t4,fffde512 <_end+0xfffdb4c2>
    2f2c:	deadbeef          	jal	t4,fffde516 <_end+0xfffdb4c6>
    2f30:	deadbeef          	jal	t4,fffde51a <_end+0xfffdb4ca>
    2f34:	deadbeef          	jal	t4,fffde51e <_end+0xfffdb4ce>
    2f38:	deadbeef          	jal	t4,fffde522 <_end+0xfffdb4d2>
    2f3c:	deadbeef          	jal	t4,fffde526 <_end+0xfffdb4d6>
    2f40:	deadbeef          	jal	t4,fffde52a <_end+0xfffdb4da>
    2f44:	deadbeef          	jal	t4,fffde52e <_end+0xfffdb4de>
    2f48:	deadbeef          	jal	t4,fffde532 <_end+0xfffdb4e2>
    2f4c:	deadbeef          	jal	t4,fffde536 <_end+0xfffdb4e6>
    2f50:	deadbeef          	jal	t4,fffde53a <_end+0xfffdb4ea>
    2f54:	deadbeef          	jal	t4,fffde53e <_end+0xfffdb4ee>
    2f58:	deadbeef          	jal	t4,fffde542 <_end+0xfffdb4f2>
    2f5c:	deadbeef          	jal	t4,fffde546 <_end+0xfffdb4f6>
    2f60:	deadbeef          	jal	t4,fffde54a <_end+0xfffdb4fa>
    2f64:	deadbeef          	jal	t4,fffde54e <_end+0xfffdb4fe>
    2f68:	deadbeef          	jal	t4,fffde552 <_end+0xfffdb502>
    2f6c:	deadbeef          	jal	t4,fffde556 <_end+0xfffdb506>
    2f70:	deadbeef          	jal	t4,fffde55a <_end+0xfffdb50a>
    2f74:	deadbeef          	jal	t4,fffde55e <_end+0xfffdb50e>
    2f78:	deadbeef          	jal	t4,fffde562 <_end+0xfffdb512>
    2f7c:	deadbeef          	jal	t4,fffde566 <_end+0xfffdb516>
    2f80:	deadbeef          	jal	t4,fffde56a <_end+0xfffdb51a>
    2f84:	deadbeef          	jal	t4,fffde56e <_end+0xfffdb51e>
    2f88:	deadbeef          	jal	t4,fffde572 <_end+0xfffdb522>
    2f8c:	deadbeef          	jal	t4,fffde576 <_end+0xfffdb526>
    2f90:	deadbeef          	jal	t4,fffde57a <_end+0xfffdb52a>
    2f94:	deadbeef          	jal	t4,fffde57e <_end+0xfffdb52e>
    2f98:	deadbeef          	jal	t4,fffde582 <_end+0xfffdb532>
    2f9c:	deadbeef          	jal	t4,fffde586 <_end+0xfffdb536>
    2fa0:	deadbeef          	jal	t4,fffde58a <_end+0xfffdb53a>
    2fa4:	deadbeef          	jal	t4,fffde58e <_end+0xfffdb53e>
    2fa8:	deadbeef          	jal	t4,fffde592 <_end+0xfffdb542>
    2fac:	deadbeef          	jal	t4,fffde596 <_end+0xfffdb546>
    2fb0:	deadbeef          	jal	t4,fffde59a <_end+0xfffdb54a>
    2fb4:	deadbeef          	jal	t4,fffde59e <_end+0xfffdb54e>
    2fb8:	deadbeef          	jal	t4,fffde5a2 <_end+0xfffdb552>
    2fbc:	deadbeef          	jal	t4,fffde5a6 <_end+0xfffdb556>
    2fc0:	deadbeef          	jal	t4,fffde5aa <_end+0xfffdb55a>
    2fc4:	deadbeef          	jal	t4,fffde5ae <_end+0xfffdb55e>
    2fc8:	deadbeef          	jal	t4,fffde5b2 <_end+0xfffdb562>
    2fcc:	deadbeef          	jal	t4,fffde5b6 <_end+0xfffdb566>
    2fd0:	deadbeef          	jal	t4,fffde5ba <_end+0xfffdb56a>
    2fd4:	deadbeef          	jal	t4,fffde5be <_end+0xfffdb56e>
    2fd8:	deadbeef          	jal	t4,fffde5c2 <_end+0xfffdb572>
    2fdc:	deadbeef          	jal	t4,fffde5c6 <_end+0xfffdb576>
    2fe0:	deadbeef          	jal	t4,fffde5ca <_end+0xfffdb57a>
    2fe4:	deadbeef          	jal	t4,fffde5ce <_end+0xfffdb57e>
    2fe8:	deadbeef          	jal	t4,fffde5d2 <_end+0xfffdb582>
    2fec:	deadbeef          	jal	t4,fffde5d6 <_end+0xfffdb586>
    2ff0:	deadbeef          	jal	t4,fffde5da <_end+0xfffdb58a>
    2ff4:	deadbeef          	jal	t4,fffde5de <_end+0xfffdb58e>
    2ff8:	deadbeef          	jal	t4,fffde5e2 <_end+0xfffdb592>
    2ffc:	deadbeef          	jal	t4,fffde5e6 <_end+0xfffdb596>
    3000:	deadbeef          	jal	t4,fffde5ea <_end+0xfffdb59a>
    3004:	deadbeef          	jal	t4,fffde5ee <_end+0xfffdb59e>
    3008:	deadbeef          	jal	t4,fffde5f2 <_end+0xfffdb5a2>
    300c:	deadbeef          	jal	t4,fffde5f6 <_end+0xfffdb5a6>
    3010:	deadbeef          	jal	t4,fffde5fa <_end+0xfffdb5aa>
    3014:	deadbeef          	jal	t4,fffde5fe <_end+0xfffdb5ae>
    3018:	deadbeef          	jal	t4,fffde602 <_end+0xfffdb5b2>
    301c:	deadbeef          	jal	t4,fffde606 <_end+0xfffdb5b6>
    3020:	deadbeef          	jal	t4,fffde60a <_end+0xfffdb5ba>
    3024:	deadbeef          	jal	t4,fffde60e <_end+0xfffdb5be>
    3028:	deadbeef          	jal	t4,fffde612 <_end+0xfffdb5c2>
    302c:	deadbeef          	jal	t4,fffde616 <_end+0xfffdb5c6>
    3030:	deadbeef          	jal	t4,fffde61a <_end+0xfffdb5ca>
    3034:	deadbeef          	jal	t4,fffde61e <_end+0xfffdb5ce>
    3038:	deadbeef          	jal	t4,fffde622 <_end+0xfffdb5d2>
    303c:	deadbeef          	jal	t4,fffde626 <_end+0xfffdb5d6>
    3040:	deadbeef          	jal	t4,fffde62a <_end+0xfffdb5da>
    3044:	deadbeef          	jal	t4,fffde62e <_end+0xfffdb5de>
    3048:	deadbeef          	jal	t4,fffde632 <_end+0xfffdb5e2>
    304c:	deadbeef          	jal	t4,fffde636 <_end+0xfffdb5e6>

Desensamblado de la sección .riscv.attributes:

00000000 <.riscv.attributes>:
   0:	2241                	.2byte	0x2241
   2:	0000                	.2byte	0x0
   4:	7200                	.2byte	0x7200
   6:	7369                	.2byte	0x7369
   8:	01007663          	bgeu	zero,a6,14 <rvtest_entry_point+0x14>
   c:	0018                	.2byte	0x18
   e:	0000                	.2byte	0x0
  10:	7205                	.2byte	0x7205
  12:	3376                	.2byte	0x3376
  14:	6932                	.2byte	0x6932
  16:	7032                	.2byte	0x7032
  18:	5f30                	.2byte	0x5f30
  1a:	3266                	.2byte	0x3266
  1c:	3070                	.2byte	0x3070
  1e:	0800                	.2byte	0x800
  20:	0a01                	.2byte	0xa01
  22:	0b              	Address 0x22 is out of bounds.

