
/home/alejandro/Escritorio/test_riscv2.5/riscv-compliance/work/rv32i_m/F/fmul_b7-01.elf:     formato del fichero elf32-littleriscv


Desensamblado de la sección .text.init:

00000000 <rvtest_entry_point>:
       0:	feedc0b7          	lui	ra,0xfeedc
       4:	ead08093          	add	ra,ra,-339 # feedbead <_end+0xfeed947d>
       8:	ff76e137          	lui	sp,0xff76e
       c:	f5610113          	add	sp,sp,-170 # ff76df56 <_end+0xff76b526>
      10:	7fbb71b7          	lui	gp,0x7fbb7
      14:	fab18193          	add	gp,gp,-85 # 7fbb6fab <_end+0x7fbb457b>
      18:	bfddb237          	lui	tp,0xbfddb
      1c:	7d520213          	add	tp,tp,2005 # bfddb7d5 <_end+0xbfdd8da5>
      20:	00000297          	auipc	t0,0x0
      24:	0d828293          	add	t0,t0,216 # f8 <rvtest_code_begin>
      28:	00002317          	auipc	t1,0x2
      2c:	fd830313          	add	t1,t1,-40 # 2000 <rvtest_data_begin>
      30:	b7fbb3b7          	lui	t2,0xb7fbb
      34:	6fa38393          	add	t2,t2,1786 # b7fbb6fa <_end+0xb7fb8cca>
      38:	5bfde437          	lui	s0,0x5bfde
      3c:	b7d40413          	add	s0,s0,-1155 # 5bfddb7d <_end+0x5bfdb14d>
      40:	adfef4b7          	lui	s1,0xadfef
      44:	dbe48493          	add	s1,s1,-578 # adfeedbe <_end+0xadfec38e>
      48:	56ff7537          	lui	a0,0x56ff7
      4c:	6df50513          	add	a0,a0,1759 # 56ff76df <_end+0x56ff4caf>
      50:	ab7fc5b7          	lui	a1,0xab7fc
      54:	b6f58593          	add	a1,a1,-1169 # ab7fbb6f <_end+0xab7f913f>
      58:	d5bfe637          	lui	a2,0xd5bfe
      5c:	db760613          	add	a2,a2,-585 # d5bfddb7 <_end+0xd5bfb387>
      60:	eadff6b7          	lui	a3,0xeadff
      64:	edb68693          	add	a3,a3,-293 # eadfeedb <_end+0xeadfc4ab>
      68:	f56ff737          	lui	a4,0xf56ff
      6c:	76d70713          	add	a4,a4,1901 # f56ff76d <_end+0xf56fcd3d>
      70:	fab807b7          	lui	a5,0xfab80
      74:	bb678793          	add	a5,a5,-1098 # fab7fbb6 <_end+0xfab7d186>
      78:	7d5c0837          	lui	a6,0x7d5c0
      7c:	ddb80813          	add	a6,a6,-549 # 7d5bfddb <_end+0x7d5bd3ab>
      80:	beae08b7          	lui	a7,0xbeae0
      84:	eed88893          	add	a7,a7,-275 # beadfeed <_end+0xbeadd4bd>
      88:	df570937          	lui	s2,0xdf570
      8c:	f7690913          	add	s2,s2,-138 # df56ff76 <_end+0xdf56d546>
      90:	6fab89b7          	lui	s3,0x6fab8
      94:	fbb98993          	add	s3,s3,-69 # 6fab7fbb <_end+0x6fab558b>
      98:	b7d5ca37          	lui	s4,0xb7d5c
      9c:	fdda0a13          	add	s4,s4,-35 # b7d5bfdd <_end+0xb7d595ad>
      a0:	dbeaeab7          	lui	s5,0xdbeae
      a4:	feea8a93          	add	s5,s5,-18 # dbeadfee <_end+0xdbeab5be>
      a8:	6df57b37          	lui	s6,0x6df57
      ac:	ff7b0b13          	add	s6,s6,-9 # 6df56ff7 <_end+0x6df545c7>
      b0:	b6fabbb7          	lui	s7,0xb6fab
      b4:	7fbb8b93          	add	s7,s7,2043 # b6fab7fb <_end+0xb6fa8dcb>
      b8:	db7d6c37          	lui	s8,0xdb7d6
      bc:	bfdc0c13          	add	s8,s8,-1027 # db7d5bfd <_end+0xdb7d31cd>
      c0:	edbebcb7          	lui	s9,0xedbeb
      c4:	dfec8c93          	add	s9,s9,-514 # edbeadfe <_end+0xedbe83ce>
      c8:	76df5d37          	lui	s10,0x76df5
      cc:	6ffd0d13          	add	s10,s10,1791 # 76df56ff <_end+0x76df2ccf>
      d0:	bb6fbdb7          	lui	s11,0xbb6fb
      d4:	b7fd8d93          	add	s11,s11,-1153 # bb6fab7f <_end+0xbb6f814f>
      d8:	ddb7de37          	lui	t3,0xddb7d
      dc:	5bfe0e13          	add	t3,t3,1471 # ddb7d5bf <_end+0xddb7ab8f>
      e0:	eedbfeb7          	lui	t4,0xeedbf
      e4:	adfe8e93          	add	t4,t4,-1313 # eedbeadf <_end+0xeedbc0af>
      e8:	f76dff37          	lui	t5,0xf76df
      ec:	56ff0f13          	add	t5,t5,1391 # f76df56f <_end+0xf76dcb3f>
      f0:	fbb70fb7          	lui	t6,0xfbb70
      f4:	ab7f8f93          	add	t6,t6,-1353 # fbb6fab7 <_end+0xfbb6d087>

000000f8 <rvtest_code_begin>:
      f8:	00002537          	lui	a0,0x2
      fc:	30052073          	csrs	mstatus,a0
     100:	00002817          	auipc	a6,0x2
     104:	f0480813          	add	a6,a6,-252 # 2004 <test_fp>
     108:	00002797          	auipc	a5,0x2
     10c:	41878793          	add	a5,a5,1048 # 2520 <data_begin>

00000110 <inst_0>:
     110:	00082907          	flw	fs2,0(a6)
     114:	00482907          	flw	fs2,4(a6)
     118:	0021d073          	fsrmi	zero,3
     11c:	11297953          	fmul.s	fs2,fs2,fs2
     120:	001028f3          	frflags	a7
     124:	0127a027          	fsw	fs2,0(a5)
     128:	0117a223          	sw	a7,4(a5)

0000012c <inst_1>:
     12c:	00882b87          	flw	fs7,8(a6)
     130:	00c82a07          	flw	fs4,12(a6)
     134:	0021d073          	fsrmi	zero,3
     138:	114bfb53          	fmul.s	fs6,fs7,fs4
     13c:	001028f3          	frflags	a7
     140:	0167a427          	fsw	fs6,8(a5)
     144:	0117a623          	sw	a7,12(a5)

00000148 <inst_2>:
     148:	01082787          	flw	fa5,16(a6)
     14c:	01482787          	flw	fa5,20(a6)
     150:	0021d073          	fsrmi	zero,3
     154:	10f7f553          	fmul.s	fa0,fa5,fa5
     158:	001028f3          	frflags	a7
     15c:	00a7a827          	fsw	fa0,16(a5)
     160:	0117aa23          	sw	a7,20(a5)

00000164 <inst_3>:
     164:	01882207          	flw	ft4,24(a6)
     168:	01c82687          	flw	fa3,28(a6)
     16c:	0021d073          	fsrmi	zero,3
     170:	10d27253          	fmul.s	ft4,ft4,fa3
     174:	001028f3          	frflags	a7
     178:	0047ac27          	fsw	ft4,24(a5)
     17c:	0117ae23          	sw	a7,28(a5)

00000180 <inst_4>:
     180:	02082e07          	flw	ft8,32(a6)
     184:	02482887          	flw	fa7,36(a6)
     188:	0021d073          	fsrmi	zero,3
     18c:	111e78d3          	fmul.s	fa7,ft8,fa7
     190:	001028f3          	frflags	a7
     194:	0317a027          	fsw	fa7,32(a5)
     198:	0317a223          	sw	a7,36(a5)

0000019c <inst_5>:
     19c:	02882387          	flw	ft7,40(a6)
     1a0:	02c82a87          	flw	fs5,44(a6)
     1a4:	0021d073          	fsrmi	zero,3
     1a8:	1153f0d3          	fmul.s	ft1,ft7,fs5
     1ac:	001028f3          	frflags	a7
     1b0:	0217a427          	fsw	ft1,40(a5)
     1b4:	0317a623          	sw	a7,44(a5)

000001b8 <inst_6>:
     1b8:	03082f87          	flw	ft11,48(a6)
     1bc:	03482e07          	flw	ft8,52(a6)
     1c0:	0021d073          	fsrmi	zero,3
     1c4:	11cff1d3          	fmul.s	ft3,ft11,ft8
     1c8:	001028f3          	frflags	a7
     1cc:	0237a827          	fsw	ft3,48(a5)
     1d0:	0317aa23          	sw	a7,52(a5)

000001d4 <inst_7>:
     1d4:	03882707          	flw	fa4,56(a6)
     1d8:	03c82087          	flw	ft1,60(a6)
     1dc:	0021d073          	fsrmi	zero,3
     1e0:	101776d3          	fmul.s	fa3,fa4,ft1
     1e4:	001028f3          	frflags	a7
     1e8:	02d7ac27          	fsw	fa3,56(a5)
     1ec:	0317ae23          	sw	a7,60(a5)

000001f0 <inst_8>:
     1f0:	04082b07          	flw	fs6,64(a6)
     1f4:	04482987          	flw	fs3,68(a6)
     1f8:	0021d073          	fsrmi	zero,3
     1fc:	113b73d3          	fmul.s	ft7,fs6,fs3
     200:	001028f3          	frflags	a7
     204:	0477a027          	fsw	ft7,64(a5)
     208:	0517a223          	sw	a7,68(a5)

0000020c <inst_9>:
     20c:	04882287          	flw	ft5,72(a6)
     210:	04c82587          	flw	fa1,76(a6)
     214:	0021d073          	fsrmi	zero,3
     218:	10b2f9d3          	fmul.s	fs3,ft5,fa1
     21c:	001028f3          	frflags	a7
     220:	0537a427          	fsw	fs3,72(a5)
     224:	0517a623          	sw	a7,76(a5)

00000228 <inst_10>:
     228:	05082407          	flw	fs0,80(a6)
     22c:	05482f07          	flw	ft10,84(a6)
     230:	0021d073          	fsrmi	zero,3
     234:	11e472d3          	fmul.s	ft5,fs0,ft10
     238:	001028f3          	frflags	a7
     23c:	0457a827          	fsw	ft5,80(a5)
     240:	0517aa23          	sw	a7,84(a5)

00000244 <inst_11>:
     244:	05882987          	flw	fs3,88(a6)
     248:	05c82307          	flw	ft6,92(a6)
     24c:	0021d073          	fsrmi	zero,3
     250:	1069ff53          	fmul.s	ft10,fs3,ft6
     254:	001028f3          	frflags	a7
     258:	05e7ac27          	fsw	ft10,88(a5)
     25c:	0517ae23          	sw	a7,92(a5)

00000260 <inst_12>:
     260:	06082307          	flw	ft6,96(a6)
     264:	06482b87          	flw	fs7,100(a6)
     268:	0021d073          	fsrmi	zero,3
     26c:	11737ed3          	fmul.s	ft9,ft6,fs7
     270:	001028f3          	frflags	a7
     274:	07d7a027          	fsw	ft9,96(a5)
     278:	0717a223          	sw	a7,100(a5)

0000027c <inst_13>:
     27c:	06882887          	flw	fa7,104(a6)
     280:	06c82c07          	flw	fs8,108(a6)
     284:	0021d073          	fsrmi	zero,3
     288:	1188fbd3          	fmul.s	fs7,fa7,fs8
     28c:	001028f3          	frflags	a7
     290:	0777a427          	fsw	fs7,104(a5)
     294:	0717a623          	sw	a7,108(a5)

00000298 <inst_14>:
     298:	07082087          	flw	ft1,112(a6)
     29c:	07482707          	flw	fa4,116(a6)
     2a0:	0021d073          	fsrmi	zero,3
     2a4:	10e0fdd3          	fmul.s	fs11,ft1,fa4
     2a8:	001028f3          	frflags	a7
     2ac:	07b7a827          	fsw	fs11,112(a5)
     2b0:	0717aa23          	sw	a7,116(a5)

000002b4 <inst_15>:
     2b4:	07882a87          	flw	fs5,120(a6)
     2b8:	07c82f87          	flw	ft11,124(a6)
     2bc:	0021d073          	fsrmi	zero,3
     2c0:	11faf853          	fmul.s	fa6,fs5,ft11
     2c4:	001028f3          	frflags	a7
     2c8:	0707ac27          	fsw	fa6,120(a5)
     2cc:	0717ae23          	sw	a7,124(a5)

000002d0 <inst_16>:
     2d0:	08082507          	flw	fa0,128(a6)
     2d4:	08482c87          	flw	fs9,132(a6)
     2d8:	0021d073          	fsrmi	zero,3
     2dc:	11957d53          	fmul.s	fs10,fa0,fs9
     2e0:	001028f3          	frflags	a7
     2e4:	09a7a027          	fsw	fs10,128(a5)
     2e8:	0917a223          	sw	a7,132(a5)

000002ec <inst_17>:
     2ec:	08882807          	flw	fa6,136(a6)
     2f0:	08c82007          	flw	ft0,140(a6)
     2f4:	0021d073          	fsrmi	zero,3
     2f8:	10087e53          	fmul.s	ft8,fa6,ft0
     2fc:	001028f3          	frflags	a7
     300:	09c7a427          	fsw	ft8,136(a5)
     304:	0917a623          	sw	a7,140(a5)

00000308 <inst_18>:
     308:	09082187          	flw	ft3,144(a6)
     30c:	09482507          	flw	fa0,148(a6)
     310:	0021d073          	fsrmi	zero,3
     314:	10a1f353          	fmul.s	ft6,ft3,fa0
     318:	001028f3          	frflags	a7
     31c:	0867a827          	fsw	ft6,144(a5)
     320:	0917aa23          	sw	a7,148(a5)

00000324 <inst_19>:
     324:	09882607          	flw	fa2,152(a6)
     328:	09c82187          	flw	ft3,156(a6)
     32c:	0021d073          	fsrmi	zero,3
     330:	10367453          	fmul.s	fs0,fa2,ft3
     334:	001028f3          	frflags	a7
     338:	0887ac27          	fsw	fs0,152(a5)
     33c:	0917ae23          	sw	a7,156(a5)

00000340 <inst_20>:
     340:	0a082d87          	flw	fs11,160(a6)
     344:	0a482487          	flw	fs1,164(a6)
     348:	0021d073          	fsrmi	zero,3
     34c:	109df5d3          	fmul.s	fa1,fs11,fs1
     350:	001028f3          	frflags	a7
     354:	0ab7a027          	fsw	fa1,160(a5)
     358:	0b17a223          	sw	a7,164(a5)

0000035c <inst_21>:
     35c:	0a882687          	flw	fa3,168(a6)
     360:	0ac82287          	flw	ft5,172(a6)
     364:	0021d073          	fsrmi	zero,3
     368:	1056f053          	fmul.s	ft0,fa3,ft5
     36c:	001028f3          	frflags	a7
     370:	0a07a427          	fsw	ft0,168(a5)
     374:	0b17a623          	sw	a7,172(a5)

00000378 <inst_22>:
     378:	0b082e87          	flw	ft9,176(a6)
     37c:	0b482807          	flw	fa6,180(a6)
     380:	0021d073          	fsrmi	zero,3
     384:	110ef153          	fmul.s	ft2,ft9,fa6
     388:	001028f3          	frflags	a7
     38c:	0a27a827          	fsw	ft2,176(a5)
     390:	0b17aa23          	sw	a7,180(a5)

00000394 <inst_23>:
     394:	0b882a07          	flw	fs4,184(a6)
     398:	0bc82d87          	flw	fs11,188(a6)
     39c:	0021d073          	fsrmi	zero,3
     3a0:	11ba74d3          	fmul.s	fs1,fs4,fs11
     3a4:	001028f3          	frflags	a7
     3a8:	0a97ac27          	fsw	fs1,184(a5)
     3ac:	0b17ae23          	sw	a7,188(a5)

000003b0 <inst_24>:
     3b0:	0c082107          	flw	ft2,192(a6)
     3b4:	0c482407          	flw	fs0,196(a6)
     3b8:	0021d073          	fsrmi	zero,3
     3bc:	10817cd3          	fmul.s	fs9,ft2,fs0
     3c0:	001028f3          	frflags	a7
     3c4:	0d97a027          	fsw	fs9,192(a5)
     3c8:	0d17a223          	sw	a7,196(a5)

000003cc <inst_25>:
     3cc:	0c882007          	flw	ft0,200(a6)
     3d0:	0cc82d07          	flw	fs10,204(a6)
     3d4:	0021d073          	fsrmi	zero,3
     3d8:	11a07653          	fmul.s	fa2,ft0,fs10
     3dc:	001028f3          	frflags	a7
     3e0:	0cc7a427          	fsw	fa2,200(a5)
     3e4:	0d17a623          	sw	a7,204(a5)

000003e8 <inst_26>:
     3e8:	0d082c07          	flw	fs8,208(a6)
     3ec:	0d482b07          	flw	fs6,212(a6)
     3f0:	0021d073          	fsrmi	zero,3
     3f4:	116c77d3          	fmul.s	fa5,fs8,fs6
     3f8:	001028f3          	frflags	a7
     3fc:	0cf7a827          	fsw	fa5,208(a5)
     400:	0d17aa23          	sw	a7,212(a5)

00000404 <inst_27>:
     404:	0d882c87          	flw	fs9,216(a6)
     408:	0dc82e87          	flw	ft9,220(a6)
     40c:	0021d073          	fsrmi	zero,3
     410:	11dcfad3          	fmul.s	fs5,fs9,ft9
     414:	001028f3          	frflags	a7
     418:	0d57ac27          	fsw	fs5,216(a5)
     41c:	0d17ae23          	sw	a7,220(a5)

00000420 <inst_28>:
     420:	0e082587          	flw	fa1,224(a6)
     424:	0e482387          	flw	ft7,228(a6)
     428:	0021d073          	fsrmi	zero,3
     42c:	1075f753          	fmul.s	fa4,fa1,ft7
     430:	001028f3          	frflags	a7
     434:	0ee7a027          	fsw	fa4,224(a5)
     438:	0f17a223          	sw	a7,228(a5)

0000043c <inst_29>:
     43c:	0e882d07          	flw	fs10,232(a6)
     440:	0ec82107          	flw	ft2,236(a6)
     444:	0021d073          	fsrmi	zero,3
     448:	102d7fd3          	fmul.s	ft11,fs10,ft2
     44c:	001028f3          	frflags	a7
     450:	0ff7a427          	fsw	ft11,232(a5)
     454:	0f17a623          	sw	a7,236(a5)

00000458 <inst_30>:
     458:	0f082f07          	flw	ft10,240(a6)
     45c:	0f482607          	flw	fa2,244(a6)
     460:	0021d073          	fsrmi	zero,3
     464:	10cf7a53          	fmul.s	fs4,ft10,fa2
     468:	001028f3          	frflags	a7
     46c:	0f47a827          	fsw	fs4,240(a5)
     470:	0f17aa23          	sw	a7,244(a5)

00000474 <inst_31>:
     474:	0f882487          	flw	fs1,248(a6)
     478:	0fc82207          	flw	ft4,252(a6)
     47c:	0021d073          	fsrmi	zero,3
     480:	1044fc53          	fmul.s	fs8,fs1,ft4
     484:	001028f3          	frflags	a7
     488:	0f87ac27          	fsw	fs8,248(a5)
     48c:	0f17ae23          	sw	a7,252(a5)

00000490 <inst_32>:
     490:	10082507          	flw	fa0,256(a6)
     494:	10482587          	flw	fa1,260(a6)
     498:	0021d073          	fsrmi	zero,3
     49c:	10b57653          	fmul.s	fa2,fa0,fa1
     4a0:	001028f3          	frflags	a7
     4a4:	10c7a027          	fsw	fa2,256(a5)
     4a8:	1117a223          	sw	a7,260(a5)

000004ac <inst_33>:
     4ac:	10882507          	flw	fa0,264(a6)
     4b0:	10c82587          	flw	fa1,268(a6)
     4b4:	0021d073          	fsrmi	zero,3
     4b8:	10b57653          	fmul.s	fa2,fa0,fa1
     4bc:	001028f3          	frflags	a7
     4c0:	10c7a427          	fsw	fa2,264(a5)
     4c4:	1117a623          	sw	a7,268(a5)

000004c8 <inst_34>:
     4c8:	11082507          	flw	fa0,272(a6)
     4cc:	11482587          	flw	fa1,276(a6)
     4d0:	0021d073          	fsrmi	zero,3
     4d4:	10b57653          	fmul.s	fa2,fa0,fa1
     4d8:	001028f3          	frflags	a7
     4dc:	10c7a827          	fsw	fa2,272(a5)
     4e0:	1117aa23          	sw	a7,276(a5)

000004e4 <inst_35>:
     4e4:	11882507          	flw	fa0,280(a6)
     4e8:	11c82587          	flw	fa1,284(a6)
     4ec:	0021d073          	fsrmi	zero,3
     4f0:	10b57653          	fmul.s	fa2,fa0,fa1
     4f4:	001028f3          	frflags	a7
     4f8:	10c7ac27          	fsw	fa2,280(a5)
     4fc:	1117ae23          	sw	a7,284(a5)

00000500 <inst_36>:
     500:	12082507          	flw	fa0,288(a6)
     504:	12482587          	flw	fa1,292(a6)
     508:	0021d073          	fsrmi	zero,3
     50c:	10b57653          	fmul.s	fa2,fa0,fa1
     510:	001028f3          	frflags	a7
     514:	12c7a027          	fsw	fa2,288(a5)
     518:	1317a223          	sw	a7,292(a5)

0000051c <inst_37>:
     51c:	12882507          	flw	fa0,296(a6)
     520:	12c82587          	flw	fa1,300(a6)
     524:	0021d073          	fsrmi	zero,3
     528:	10b57653          	fmul.s	fa2,fa0,fa1
     52c:	001028f3          	frflags	a7
     530:	12c7a427          	fsw	fa2,296(a5)
     534:	1317a623          	sw	a7,300(a5)

00000538 <inst_38>:
     538:	13082507          	flw	fa0,304(a6)
     53c:	13482587          	flw	fa1,308(a6)
     540:	0021d073          	fsrmi	zero,3
     544:	10b57653          	fmul.s	fa2,fa0,fa1
     548:	001028f3          	frflags	a7
     54c:	12c7a827          	fsw	fa2,304(a5)
     550:	1317aa23          	sw	a7,308(a5)

00000554 <inst_39>:
     554:	13882507          	flw	fa0,312(a6)
     558:	13c82587          	flw	fa1,316(a6)
     55c:	0021d073          	fsrmi	zero,3
     560:	10b57653          	fmul.s	fa2,fa0,fa1
     564:	001028f3          	frflags	a7
     568:	12c7ac27          	fsw	fa2,312(a5)
     56c:	1317ae23          	sw	a7,316(a5)

00000570 <inst_40>:
     570:	14082507          	flw	fa0,320(a6)
     574:	14482587          	flw	fa1,324(a6)
     578:	0021d073          	fsrmi	zero,3
     57c:	10b57653          	fmul.s	fa2,fa0,fa1
     580:	001028f3          	frflags	a7
     584:	14c7a027          	fsw	fa2,320(a5)
     588:	1517a223          	sw	a7,324(a5)

0000058c <inst_41>:
     58c:	14882507          	flw	fa0,328(a6)
     590:	14c82587          	flw	fa1,332(a6)
     594:	0021d073          	fsrmi	zero,3
     598:	10b57653          	fmul.s	fa2,fa0,fa1
     59c:	001028f3          	frflags	a7
     5a0:	14c7a427          	fsw	fa2,328(a5)
     5a4:	1517a623          	sw	a7,332(a5)

000005a8 <inst_42>:
     5a8:	15082507          	flw	fa0,336(a6)
     5ac:	15482587          	flw	fa1,340(a6)
     5b0:	0021d073          	fsrmi	zero,3
     5b4:	10b57653          	fmul.s	fa2,fa0,fa1
     5b8:	001028f3          	frflags	a7
     5bc:	14c7a827          	fsw	fa2,336(a5)
     5c0:	1517aa23          	sw	a7,340(a5)

000005c4 <inst_43>:
     5c4:	15882507          	flw	fa0,344(a6)
     5c8:	15c82587          	flw	fa1,348(a6)
     5cc:	0021d073          	fsrmi	zero,3
     5d0:	10b57653          	fmul.s	fa2,fa0,fa1
     5d4:	001028f3          	frflags	a7
     5d8:	14c7ac27          	fsw	fa2,344(a5)
     5dc:	1517ae23          	sw	a7,348(a5)

000005e0 <inst_44>:
     5e0:	16082507          	flw	fa0,352(a6)
     5e4:	16482587          	flw	fa1,356(a6)
     5e8:	0021d073          	fsrmi	zero,3
     5ec:	10b57653          	fmul.s	fa2,fa0,fa1
     5f0:	001028f3          	frflags	a7
     5f4:	16c7a027          	fsw	fa2,352(a5)
     5f8:	1717a223          	sw	a7,356(a5)

000005fc <inst_45>:
     5fc:	16882507          	flw	fa0,360(a6)
     600:	16c82587          	flw	fa1,364(a6)
     604:	0021d073          	fsrmi	zero,3
     608:	10b57653          	fmul.s	fa2,fa0,fa1
     60c:	001028f3          	frflags	a7
     610:	16c7a427          	fsw	fa2,360(a5)
     614:	1717a623          	sw	a7,364(a5)

00000618 <inst_46>:
     618:	17082507          	flw	fa0,368(a6)
     61c:	17482587          	flw	fa1,372(a6)
     620:	0021d073          	fsrmi	zero,3
     624:	10b57653          	fmul.s	fa2,fa0,fa1
     628:	001028f3          	frflags	a7
     62c:	16c7a827          	fsw	fa2,368(a5)
     630:	1717aa23          	sw	a7,372(a5)

00000634 <inst_47>:
     634:	17882507          	flw	fa0,376(a6)
     638:	17c82587          	flw	fa1,380(a6)
     63c:	0021d073          	fsrmi	zero,3
     640:	10b57653          	fmul.s	fa2,fa0,fa1
     644:	001028f3          	frflags	a7
     648:	16c7ac27          	fsw	fa2,376(a5)
     64c:	1717ae23          	sw	a7,380(a5)

00000650 <inst_48>:
     650:	18082507          	flw	fa0,384(a6)
     654:	18482587          	flw	fa1,388(a6)
     658:	0021d073          	fsrmi	zero,3
     65c:	10b57653          	fmul.s	fa2,fa0,fa1
     660:	001028f3          	frflags	a7
     664:	18c7a027          	fsw	fa2,384(a5)
     668:	1917a223          	sw	a7,388(a5)

0000066c <inst_49>:
     66c:	18882507          	flw	fa0,392(a6)
     670:	18c82587          	flw	fa1,396(a6)
     674:	0021d073          	fsrmi	zero,3
     678:	10b57653          	fmul.s	fa2,fa0,fa1
     67c:	001028f3          	frflags	a7
     680:	18c7a427          	fsw	fa2,392(a5)
     684:	1917a623          	sw	a7,396(a5)

00000688 <inst_50>:
     688:	19082507          	flw	fa0,400(a6)
     68c:	19482587          	flw	fa1,404(a6)
     690:	0021d073          	fsrmi	zero,3
     694:	10b57653          	fmul.s	fa2,fa0,fa1
     698:	001028f3          	frflags	a7
     69c:	18c7a827          	fsw	fa2,400(a5)
     6a0:	1917aa23          	sw	a7,404(a5)

000006a4 <inst_51>:
     6a4:	19882507          	flw	fa0,408(a6)
     6a8:	19c82587          	flw	fa1,412(a6)
     6ac:	0021d073          	fsrmi	zero,3
     6b0:	10b57653          	fmul.s	fa2,fa0,fa1
     6b4:	001028f3          	frflags	a7
     6b8:	18c7ac27          	fsw	fa2,408(a5)
     6bc:	1917ae23          	sw	a7,412(a5)

000006c0 <inst_52>:
     6c0:	1a082507          	flw	fa0,416(a6)
     6c4:	1a482587          	flw	fa1,420(a6)
     6c8:	0021d073          	fsrmi	zero,3
     6cc:	10b57653          	fmul.s	fa2,fa0,fa1
     6d0:	001028f3          	frflags	a7
     6d4:	1ac7a027          	fsw	fa2,416(a5)
     6d8:	1b17a223          	sw	a7,420(a5)

000006dc <inst_53>:
     6dc:	1a882507          	flw	fa0,424(a6)
     6e0:	1ac82587          	flw	fa1,428(a6)
     6e4:	0021d073          	fsrmi	zero,3
     6e8:	10b57653          	fmul.s	fa2,fa0,fa1
     6ec:	001028f3          	frflags	a7
     6f0:	1ac7a427          	fsw	fa2,424(a5)
     6f4:	1b17a623          	sw	a7,428(a5)

000006f8 <inst_54>:
     6f8:	1b082507          	flw	fa0,432(a6)
     6fc:	1b482587          	flw	fa1,436(a6)
     700:	0021d073          	fsrmi	zero,3
     704:	10b57653          	fmul.s	fa2,fa0,fa1
     708:	001028f3          	frflags	a7
     70c:	1ac7a827          	fsw	fa2,432(a5)
     710:	1b17aa23          	sw	a7,436(a5)

00000714 <inst_55>:
     714:	1b882507          	flw	fa0,440(a6)
     718:	1bc82587          	flw	fa1,444(a6)
     71c:	0021d073          	fsrmi	zero,3
     720:	10b57653          	fmul.s	fa2,fa0,fa1
     724:	001028f3          	frflags	a7
     728:	1ac7ac27          	fsw	fa2,440(a5)
     72c:	1b17ae23          	sw	a7,444(a5)

00000730 <inst_56>:
     730:	1c082507          	flw	fa0,448(a6)
     734:	1c482587          	flw	fa1,452(a6)
     738:	0021d073          	fsrmi	zero,3
     73c:	10b57653          	fmul.s	fa2,fa0,fa1
     740:	001028f3          	frflags	a7
     744:	1cc7a027          	fsw	fa2,448(a5)
     748:	1d17a223          	sw	a7,452(a5)

0000074c <inst_57>:
     74c:	1c882507          	flw	fa0,456(a6)
     750:	1cc82587          	flw	fa1,460(a6)
     754:	0021d073          	fsrmi	zero,3
     758:	10b57653          	fmul.s	fa2,fa0,fa1
     75c:	001028f3          	frflags	a7
     760:	1cc7a427          	fsw	fa2,456(a5)
     764:	1d17a623          	sw	a7,460(a5)

00000768 <inst_58>:
     768:	1d082507          	flw	fa0,464(a6)
     76c:	1d482587          	flw	fa1,468(a6)
     770:	0021d073          	fsrmi	zero,3
     774:	10b57653          	fmul.s	fa2,fa0,fa1
     778:	001028f3          	frflags	a7
     77c:	1cc7a827          	fsw	fa2,464(a5)
     780:	1d17aa23          	sw	a7,468(a5)

00000784 <inst_59>:
     784:	1d882507          	flw	fa0,472(a6)
     788:	1dc82587          	flw	fa1,476(a6)
     78c:	0021d073          	fsrmi	zero,3
     790:	10b57653          	fmul.s	fa2,fa0,fa1
     794:	001028f3          	frflags	a7
     798:	1cc7ac27          	fsw	fa2,472(a5)
     79c:	1d17ae23          	sw	a7,476(a5)

000007a0 <inst_60>:
     7a0:	1e082507          	flw	fa0,480(a6)
     7a4:	1e482587          	flw	fa1,484(a6)
     7a8:	0021d073          	fsrmi	zero,3
     7ac:	10b57653          	fmul.s	fa2,fa0,fa1
     7b0:	001028f3          	frflags	a7
     7b4:	1ec7a027          	fsw	fa2,480(a5)
     7b8:	1f17a223          	sw	a7,484(a5)

000007bc <inst_61>:
     7bc:	1e882507          	flw	fa0,488(a6)
     7c0:	1ec82587          	flw	fa1,492(a6)
     7c4:	0021d073          	fsrmi	zero,3
     7c8:	10b57653          	fmul.s	fa2,fa0,fa1
     7cc:	001028f3          	frflags	a7
     7d0:	1ec7a427          	fsw	fa2,488(a5)
     7d4:	1f17a623          	sw	a7,492(a5)

000007d8 <inst_62>:
     7d8:	1f082507          	flw	fa0,496(a6)
     7dc:	1f482587          	flw	fa1,500(a6)
     7e0:	0021d073          	fsrmi	zero,3
     7e4:	10b57653          	fmul.s	fa2,fa0,fa1
     7e8:	001028f3          	frflags	a7
     7ec:	1ec7a827          	fsw	fa2,496(a5)
     7f0:	1f17aa23          	sw	a7,500(a5)

000007f4 <inst_63>:
     7f4:	1f882507          	flw	fa0,504(a6)
     7f8:	1fc82587          	flw	fa1,508(a6)
     7fc:	0021d073          	fsrmi	zero,3
     800:	10b57653          	fmul.s	fa2,fa0,fa1
     804:	001028f3          	frflags	a7
     808:	1ec7ac27          	fsw	fa2,504(a5)
     80c:	1f17ae23          	sw	a7,508(a5)

00000810 <inst_64>:
     810:	20082507          	flw	fa0,512(a6)
     814:	20482587          	flw	fa1,516(a6)
     818:	0021d073          	fsrmi	zero,3
     81c:	10b57653          	fmul.s	fa2,fa0,fa1
     820:	001028f3          	frflags	a7
     824:	20c7a027          	fsw	fa2,512(a5)
     828:	2117a223          	sw	a7,516(a5)

0000082c <inst_65>:
     82c:	20882507          	flw	fa0,520(a6)
     830:	20c82587          	flw	fa1,524(a6)
     834:	0021d073          	fsrmi	zero,3
     838:	10b57653          	fmul.s	fa2,fa0,fa1
     83c:	001028f3          	frflags	a7
     840:	20c7a427          	fsw	fa2,520(a5)
     844:	2117a623          	sw	a7,524(a5)

00000848 <inst_66>:
     848:	21082507          	flw	fa0,528(a6)
     84c:	21482587          	flw	fa1,532(a6)
     850:	0021d073          	fsrmi	zero,3
     854:	10b57653          	fmul.s	fa2,fa0,fa1
     858:	001028f3          	frflags	a7
     85c:	20c7a827          	fsw	fa2,528(a5)
     860:	2117aa23          	sw	a7,532(a5)

00000864 <inst_67>:
     864:	21882507          	flw	fa0,536(a6)
     868:	21c82587          	flw	fa1,540(a6)
     86c:	0021d073          	fsrmi	zero,3
     870:	10b57653          	fmul.s	fa2,fa0,fa1
     874:	001028f3          	frflags	a7
     878:	20c7ac27          	fsw	fa2,536(a5)
     87c:	2117ae23          	sw	a7,540(a5)

00000880 <inst_68>:
     880:	22082507          	flw	fa0,544(a6)
     884:	22482587          	flw	fa1,548(a6)
     888:	0021d073          	fsrmi	zero,3
     88c:	10b57653          	fmul.s	fa2,fa0,fa1
     890:	001028f3          	frflags	a7
     894:	22c7a027          	fsw	fa2,544(a5)
     898:	2317a223          	sw	a7,548(a5)

0000089c <inst_69>:
     89c:	22882507          	flw	fa0,552(a6)
     8a0:	22c82587          	flw	fa1,556(a6)
     8a4:	0021d073          	fsrmi	zero,3
     8a8:	10b57653          	fmul.s	fa2,fa0,fa1
     8ac:	001028f3          	frflags	a7
     8b0:	22c7a427          	fsw	fa2,552(a5)
     8b4:	2317a623          	sw	a7,556(a5)

000008b8 <inst_70>:
     8b8:	23082507          	flw	fa0,560(a6)
     8bc:	23482587          	flw	fa1,564(a6)
     8c0:	0021d073          	fsrmi	zero,3
     8c4:	10b57653          	fmul.s	fa2,fa0,fa1
     8c8:	001028f3          	frflags	a7
     8cc:	22c7a827          	fsw	fa2,560(a5)
     8d0:	2317aa23          	sw	a7,564(a5)

000008d4 <inst_71>:
     8d4:	23882507          	flw	fa0,568(a6)
     8d8:	23c82587          	flw	fa1,572(a6)
     8dc:	0021d073          	fsrmi	zero,3
     8e0:	10b57653          	fmul.s	fa2,fa0,fa1
     8e4:	001028f3          	frflags	a7
     8e8:	22c7ac27          	fsw	fa2,568(a5)
     8ec:	2317ae23          	sw	a7,572(a5)

000008f0 <inst_72>:
     8f0:	24082507          	flw	fa0,576(a6)
     8f4:	24482587          	flw	fa1,580(a6)
     8f8:	0021d073          	fsrmi	zero,3
     8fc:	10b57653          	fmul.s	fa2,fa0,fa1
     900:	001028f3          	frflags	a7
     904:	24c7a027          	fsw	fa2,576(a5)
     908:	2517a223          	sw	a7,580(a5)

0000090c <inst_73>:
     90c:	24882507          	flw	fa0,584(a6)
     910:	24c82587          	flw	fa1,588(a6)
     914:	0021d073          	fsrmi	zero,3
     918:	10b57653          	fmul.s	fa2,fa0,fa1
     91c:	001028f3          	frflags	a7
     920:	24c7a427          	fsw	fa2,584(a5)
     924:	2517a623          	sw	a7,588(a5)

00000928 <inst_74>:
     928:	25082507          	flw	fa0,592(a6)
     92c:	25482587          	flw	fa1,596(a6)
     930:	0021d073          	fsrmi	zero,3
     934:	10b57653          	fmul.s	fa2,fa0,fa1
     938:	001028f3          	frflags	a7
     93c:	24c7a827          	fsw	fa2,592(a5)
     940:	2517aa23          	sw	a7,596(a5)

00000944 <inst_75>:
     944:	25882507          	flw	fa0,600(a6)
     948:	25c82587          	flw	fa1,604(a6)
     94c:	0021d073          	fsrmi	zero,3
     950:	10b57653          	fmul.s	fa2,fa0,fa1
     954:	001028f3          	frflags	a7
     958:	24c7ac27          	fsw	fa2,600(a5)
     95c:	2517ae23          	sw	a7,604(a5)

00000960 <inst_76>:
     960:	26082507          	flw	fa0,608(a6)
     964:	26482587          	flw	fa1,612(a6)
     968:	0021d073          	fsrmi	zero,3
     96c:	10b57653          	fmul.s	fa2,fa0,fa1
     970:	001028f3          	frflags	a7
     974:	26c7a027          	fsw	fa2,608(a5)
     978:	2717a223          	sw	a7,612(a5)

0000097c <inst_77>:
     97c:	26882507          	flw	fa0,616(a6)
     980:	26c82587          	flw	fa1,620(a6)
     984:	0021d073          	fsrmi	zero,3
     988:	10b57653          	fmul.s	fa2,fa0,fa1
     98c:	001028f3          	frflags	a7
     990:	26c7a427          	fsw	fa2,616(a5)
     994:	2717a623          	sw	a7,620(a5)

00000998 <inst_78>:
     998:	27082507          	flw	fa0,624(a6)
     99c:	27482587          	flw	fa1,628(a6)
     9a0:	0021d073          	fsrmi	zero,3
     9a4:	10b57653          	fmul.s	fa2,fa0,fa1
     9a8:	001028f3          	frflags	a7
     9ac:	26c7a827          	fsw	fa2,624(a5)
     9b0:	2717aa23          	sw	a7,628(a5)

000009b4 <inst_79>:
     9b4:	27882507          	flw	fa0,632(a6)
     9b8:	27c82587          	flw	fa1,636(a6)
     9bc:	0021d073          	fsrmi	zero,3
     9c0:	10b57653          	fmul.s	fa2,fa0,fa1
     9c4:	001028f3          	frflags	a7
     9c8:	26c7ac27          	fsw	fa2,632(a5)
     9cc:	2717ae23          	sw	a7,636(a5)

000009d0 <inst_80>:
     9d0:	28082507          	flw	fa0,640(a6)
     9d4:	28482587          	flw	fa1,644(a6)
     9d8:	0021d073          	fsrmi	zero,3
     9dc:	10b57653          	fmul.s	fa2,fa0,fa1
     9e0:	001028f3          	frflags	a7
     9e4:	28c7a027          	fsw	fa2,640(a5)
     9e8:	2917a223          	sw	a7,644(a5)

000009ec <inst_81>:
     9ec:	28882507          	flw	fa0,648(a6)
     9f0:	28c82587          	flw	fa1,652(a6)
     9f4:	0021d073          	fsrmi	zero,3
     9f8:	10b57653          	fmul.s	fa2,fa0,fa1
     9fc:	001028f3          	frflags	a7
     a00:	28c7a427          	fsw	fa2,648(a5)
     a04:	2917a623          	sw	a7,652(a5)

00000a08 <inst_82>:
     a08:	29082507          	flw	fa0,656(a6)
     a0c:	29482587          	flw	fa1,660(a6)
     a10:	0021d073          	fsrmi	zero,3
     a14:	10b57653          	fmul.s	fa2,fa0,fa1
     a18:	001028f3          	frflags	a7
     a1c:	28c7a827          	fsw	fa2,656(a5)
     a20:	2917aa23          	sw	a7,660(a5)

00000a24 <inst_83>:
     a24:	29882507          	flw	fa0,664(a6)
     a28:	29c82587          	flw	fa1,668(a6)
     a2c:	0021d073          	fsrmi	zero,3
     a30:	10b57653          	fmul.s	fa2,fa0,fa1
     a34:	001028f3          	frflags	a7
     a38:	28c7ac27          	fsw	fa2,664(a5)
     a3c:	2917ae23          	sw	a7,668(a5)

00000a40 <inst_84>:
     a40:	2a082507          	flw	fa0,672(a6)
     a44:	2a482587          	flw	fa1,676(a6)
     a48:	0021d073          	fsrmi	zero,3
     a4c:	10b57653          	fmul.s	fa2,fa0,fa1
     a50:	001028f3          	frflags	a7
     a54:	2ac7a027          	fsw	fa2,672(a5)
     a58:	2b17a223          	sw	a7,676(a5)

00000a5c <inst_85>:
     a5c:	2a882507          	flw	fa0,680(a6)
     a60:	2ac82587          	flw	fa1,684(a6)
     a64:	0021d073          	fsrmi	zero,3
     a68:	10b57653          	fmul.s	fa2,fa0,fa1
     a6c:	001028f3          	frflags	a7
     a70:	2ac7a427          	fsw	fa2,680(a5)
     a74:	2b17a623          	sw	a7,684(a5)

00000a78 <inst_86>:
     a78:	2b082507          	flw	fa0,688(a6)
     a7c:	2b482587          	flw	fa1,692(a6)
     a80:	0021d073          	fsrmi	zero,3
     a84:	10b57653          	fmul.s	fa2,fa0,fa1
     a88:	001028f3          	frflags	a7
     a8c:	2ac7a827          	fsw	fa2,688(a5)
     a90:	2b17aa23          	sw	a7,692(a5)

00000a94 <inst_87>:
     a94:	2b882507          	flw	fa0,696(a6)
     a98:	2bc82587          	flw	fa1,700(a6)
     a9c:	0021d073          	fsrmi	zero,3
     aa0:	10b57653          	fmul.s	fa2,fa0,fa1
     aa4:	001028f3          	frflags	a7
     aa8:	2ac7ac27          	fsw	fa2,696(a5)
     aac:	2b17ae23          	sw	a7,700(a5)

00000ab0 <inst_88>:
     ab0:	2c082507          	flw	fa0,704(a6)
     ab4:	2c482587          	flw	fa1,708(a6)
     ab8:	0021d073          	fsrmi	zero,3
     abc:	10b57653          	fmul.s	fa2,fa0,fa1
     ac0:	001028f3          	frflags	a7
     ac4:	2cc7a027          	fsw	fa2,704(a5)
     ac8:	2d17a223          	sw	a7,708(a5)

00000acc <inst_89>:
     acc:	2c882507          	flw	fa0,712(a6)
     ad0:	2cc82587          	flw	fa1,716(a6)
     ad4:	0021d073          	fsrmi	zero,3
     ad8:	10b57653          	fmul.s	fa2,fa0,fa1
     adc:	001028f3          	frflags	a7
     ae0:	2cc7a427          	fsw	fa2,712(a5)
     ae4:	2d17a623          	sw	a7,716(a5)

00000ae8 <inst_90>:
     ae8:	2d082507          	flw	fa0,720(a6)
     aec:	2d482587          	flw	fa1,724(a6)
     af0:	0021d073          	fsrmi	zero,3
     af4:	10b57653          	fmul.s	fa2,fa0,fa1
     af8:	001028f3          	frflags	a7
     afc:	2cc7a827          	fsw	fa2,720(a5)
     b00:	2d17aa23          	sw	a7,724(a5)

00000b04 <inst_91>:
     b04:	2d882507          	flw	fa0,728(a6)
     b08:	2dc82587          	flw	fa1,732(a6)
     b0c:	0021d073          	fsrmi	zero,3
     b10:	10b57653          	fmul.s	fa2,fa0,fa1
     b14:	001028f3          	frflags	a7
     b18:	2cc7ac27          	fsw	fa2,728(a5)
     b1c:	2d17ae23          	sw	a7,732(a5)

00000b20 <inst_92>:
     b20:	2e082507          	flw	fa0,736(a6)
     b24:	2e482587          	flw	fa1,740(a6)
     b28:	0021d073          	fsrmi	zero,3
     b2c:	10b57653          	fmul.s	fa2,fa0,fa1
     b30:	001028f3          	frflags	a7
     b34:	2ec7a027          	fsw	fa2,736(a5)
     b38:	2f17a223          	sw	a7,740(a5)

00000b3c <inst_93>:
     b3c:	2e882507          	flw	fa0,744(a6)
     b40:	2ec82587          	flw	fa1,748(a6)
     b44:	0021d073          	fsrmi	zero,3
     b48:	10b57653          	fmul.s	fa2,fa0,fa1
     b4c:	001028f3          	frflags	a7
     b50:	2ec7a427          	fsw	fa2,744(a5)
     b54:	2f17a623          	sw	a7,748(a5)

00000b58 <inst_94>:
     b58:	2f082507          	flw	fa0,752(a6)
     b5c:	2f482587          	flw	fa1,756(a6)
     b60:	0021d073          	fsrmi	zero,3
     b64:	10b57653          	fmul.s	fa2,fa0,fa1
     b68:	001028f3          	frflags	a7
     b6c:	2ec7a827          	fsw	fa2,752(a5)
     b70:	2f17aa23          	sw	a7,756(a5)

00000b74 <inst_95>:
     b74:	2f882507          	flw	fa0,760(a6)
     b78:	2fc82587          	flw	fa1,764(a6)
     b7c:	0021d073          	fsrmi	zero,3
     b80:	10b57653          	fmul.s	fa2,fa0,fa1
     b84:	001028f3          	frflags	a7
     b88:	2ec7ac27          	fsw	fa2,760(a5)
     b8c:	2f17ae23          	sw	a7,764(a5)

00000b90 <inst_96>:
     b90:	30082507          	flw	fa0,768(a6)
     b94:	30482587          	flw	fa1,772(a6)
     b98:	0021d073          	fsrmi	zero,3
     b9c:	10b57653          	fmul.s	fa2,fa0,fa1
     ba0:	001028f3          	frflags	a7
     ba4:	30c7a027          	fsw	fa2,768(a5)
     ba8:	3117a223          	sw	a7,772(a5)

00000bac <inst_97>:
     bac:	30882507          	flw	fa0,776(a6)
     bb0:	30c82587          	flw	fa1,780(a6)
     bb4:	0021d073          	fsrmi	zero,3
     bb8:	10b57653          	fmul.s	fa2,fa0,fa1
     bbc:	001028f3          	frflags	a7
     bc0:	30c7a427          	fsw	fa2,776(a5)
     bc4:	3117a623          	sw	a7,780(a5)

00000bc8 <inst_98>:
     bc8:	31082507          	flw	fa0,784(a6)
     bcc:	31482587          	flw	fa1,788(a6)
     bd0:	0021d073          	fsrmi	zero,3
     bd4:	10b57653          	fmul.s	fa2,fa0,fa1
     bd8:	001028f3          	frflags	a7
     bdc:	30c7a827          	fsw	fa2,784(a5)
     be0:	3117aa23          	sw	a7,788(a5)

00000be4 <inst_99>:
     be4:	31882507          	flw	fa0,792(a6)
     be8:	31c82587          	flw	fa1,796(a6)
     bec:	0021d073          	fsrmi	zero,3
     bf0:	10b57653          	fmul.s	fa2,fa0,fa1
     bf4:	001028f3          	frflags	a7
     bf8:	30c7ac27          	fsw	fa2,792(a5)
     bfc:	3117ae23          	sw	a7,796(a5)

00000c00 <inst_100>:
     c00:	32082507          	flw	fa0,800(a6)
     c04:	32482587          	flw	fa1,804(a6)
     c08:	0021d073          	fsrmi	zero,3
     c0c:	10b57653          	fmul.s	fa2,fa0,fa1
     c10:	001028f3          	frflags	a7
     c14:	32c7a027          	fsw	fa2,800(a5)
     c18:	3317a223          	sw	a7,804(a5)

00000c1c <inst_101>:
     c1c:	32882507          	flw	fa0,808(a6)
     c20:	32c82587          	flw	fa1,812(a6)
     c24:	0021d073          	fsrmi	zero,3
     c28:	10b57653          	fmul.s	fa2,fa0,fa1
     c2c:	001028f3          	frflags	a7
     c30:	32c7a427          	fsw	fa2,808(a5)
     c34:	3317a623          	sw	a7,812(a5)

00000c38 <inst_102>:
     c38:	33082507          	flw	fa0,816(a6)
     c3c:	33482587          	flw	fa1,820(a6)
     c40:	0021d073          	fsrmi	zero,3
     c44:	10b57653          	fmul.s	fa2,fa0,fa1
     c48:	001028f3          	frflags	a7
     c4c:	32c7a827          	fsw	fa2,816(a5)
     c50:	3317aa23          	sw	a7,820(a5)

00000c54 <inst_103>:
     c54:	33882507          	flw	fa0,824(a6)
     c58:	33c82587          	flw	fa1,828(a6)
     c5c:	0021d073          	fsrmi	zero,3
     c60:	10b57653          	fmul.s	fa2,fa0,fa1
     c64:	001028f3          	frflags	a7
     c68:	32c7ac27          	fsw	fa2,824(a5)
     c6c:	3317ae23          	sw	a7,828(a5)

00000c70 <inst_104>:
     c70:	34082507          	flw	fa0,832(a6)
     c74:	34482587          	flw	fa1,836(a6)
     c78:	0021d073          	fsrmi	zero,3
     c7c:	10b57653          	fmul.s	fa2,fa0,fa1
     c80:	001028f3          	frflags	a7
     c84:	34c7a027          	fsw	fa2,832(a5)
     c88:	3517a223          	sw	a7,836(a5)

00000c8c <inst_105>:
     c8c:	34882507          	flw	fa0,840(a6)
     c90:	34c82587          	flw	fa1,844(a6)
     c94:	0021d073          	fsrmi	zero,3
     c98:	10b57653          	fmul.s	fa2,fa0,fa1
     c9c:	001028f3          	frflags	a7
     ca0:	34c7a427          	fsw	fa2,840(a5)
     ca4:	3517a623          	sw	a7,844(a5)

00000ca8 <inst_106>:
     ca8:	35082507          	flw	fa0,848(a6)
     cac:	35482587          	flw	fa1,852(a6)
     cb0:	0021d073          	fsrmi	zero,3
     cb4:	10b57653          	fmul.s	fa2,fa0,fa1
     cb8:	001028f3          	frflags	a7
     cbc:	34c7a827          	fsw	fa2,848(a5)
     cc0:	3517aa23          	sw	a7,852(a5)

00000cc4 <inst_107>:
     cc4:	35882507          	flw	fa0,856(a6)
     cc8:	35c82587          	flw	fa1,860(a6)
     ccc:	0021d073          	fsrmi	zero,3
     cd0:	10b57653          	fmul.s	fa2,fa0,fa1
     cd4:	001028f3          	frflags	a7
     cd8:	34c7ac27          	fsw	fa2,856(a5)
     cdc:	3517ae23          	sw	a7,860(a5)

00000ce0 <inst_108>:
     ce0:	36082507          	flw	fa0,864(a6)
     ce4:	36482587          	flw	fa1,868(a6)
     ce8:	0021d073          	fsrmi	zero,3
     cec:	10b57653          	fmul.s	fa2,fa0,fa1
     cf0:	001028f3          	frflags	a7
     cf4:	36c7a027          	fsw	fa2,864(a5)
     cf8:	3717a223          	sw	a7,868(a5)

00000cfc <inst_109>:
     cfc:	36882507          	flw	fa0,872(a6)
     d00:	36c82587          	flw	fa1,876(a6)
     d04:	0021d073          	fsrmi	zero,3
     d08:	10b57653          	fmul.s	fa2,fa0,fa1
     d0c:	001028f3          	frflags	a7
     d10:	36c7a427          	fsw	fa2,872(a5)
     d14:	3717a623          	sw	a7,876(a5)

00000d18 <inst_110>:
     d18:	37082507          	flw	fa0,880(a6)
     d1c:	37482587          	flw	fa1,884(a6)
     d20:	0021d073          	fsrmi	zero,3
     d24:	10b57653          	fmul.s	fa2,fa0,fa1
     d28:	001028f3          	frflags	a7
     d2c:	36c7a827          	fsw	fa2,880(a5)
     d30:	3717aa23          	sw	a7,884(a5)

00000d34 <inst_111>:
     d34:	37882507          	flw	fa0,888(a6)
     d38:	37c82587          	flw	fa1,892(a6)
     d3c:	0021d073          	fsrmi	zero,3
     d40:	10b57653          	fmul.s	fa2,fa0,fa1
     d44:	001028f3          	frflags	a7
     d48:	36c7ac27          	fsw	fa2,888(a5)
     d4c:	3717ae23          	sw	a7,892(a5)

00000d50 <inst_112>:
     d50:	38082507          	flw	fa0,896(a6)
     d54:	38482587          	flw	fa1,900(a6)
     d58:	0021d073          	fsrmi	zero,3
     d5c:	10b57653          	fmul.s	fa2,fa0,fa1
     d60:	001028f3          	frflags	a7
     d64:	38c7a027          	fsw	fa2,896(a5)
     d68:	3917a223          	sw	a7,900(a5)

00000d6c <inst_113>:
     d6c:	38882507          	flw	fa0,904(a6)
     d70:	38c82587          	flw	fa1,908(a6)
     d74:	0021d073          	fsrmi	zero,3
     d78:	10b57653          	fmul.s	fa2,fa0,fa1
     d7c:	001028f3          	frflags	a7
     d80:	38c7a427          	fsw	fa2,904(a5)
     d84:	3917a623          	sw	a7,908(a5)

00000d88 <inst_114>:
     d88:	39082507          	flw	fa0,912(a6)
     d8c:	39482587          	flw	fa1,916(a6)
     d90:	0021d073          	fsrmi	zero,3
     d94:	10b57653          	fmul.s	fa2,fa0,fa1
     d98:	001028f3          	frflags	a7
     d9c:	38c7a827          	fsw	fa2,912(a5)
     da0:	3917aa23          	sw	a7,916(a5)

00000da4 <inst_115>:
     da4:	39882507          	flw	fa0,920(a6)
     da8:	39c82587          	flw	fa1,924(a6)
     dac:	0021d073          	fsrmi	zero,3
     db0:	10b57653          	fmul.s	fa2,fa0,fa1
     db4:	001028f3          	frflags	a7
     db8:	38c7ac27          	fsw	fa2,920(a5)
     dbc:	3917ae23          	sw	a7,924(a5)

00000dc0 <inst_116>:
     dc0:	3a082507          	flw	fa0,928(a6)
     dc4:	3a482587          	flw	fa1,932(a6)
     dc8:	0021d073          	fsrmi	zero,3
     dcc:	10b57653          	fmul.s	fa2,fa0,fa1
     dd0:	001028f3          	frflags	a7
     dd4:	3ac7a027          	fsw	fa2,928(a5)
     dd8:	3b17a223          	sw	a7,932(a5)

00000ddc <inst_117>:
     ddc:	3a882507          	flw	fa0,936(a6)
     de0:	3ac82587          	flw	fa1,940(a6)
     de4:	0021d073          	fsrmi	zero,3
     de8:	10b57653          	fmul.s	fa2,fa0,fa1
     dec:	001028f3          	frflags	a7
     df0:	3ac7a427          	fsw	fa2,936(a5)
     df4:	3b17a623          	sw	a7,940(a5)

00000df8 <inst_118>:
     df8:	3b082507          	flw	fa0,944(a6)
     dfc:	3b482587          	flw	fa1,948(a6)
     e00:	0021d073          	fsrmi	zero,3
     e04:	10b57653          	fmul.s	fa2,fa0,fa1
     e08:	001028f3          	frflags	a7
     e0c:	3ac7a827          	fsw	fa2,944(a5)
     e10:	3b17aa23          	sw	a7,948(a5)

00000e14 <inst_119>:
     e14:	3b882507          	flw	fa0,952(a6)
     e18:	3bc82587          	flw	fa1,956(a6)
     e1c:	0021d073          	fsrmi	zero,3
     e20:	10b57653          	fmul.s	fa2,fa0,fa1
     e24:	001028f3          	frflags	a7
     e28:	3ac7ac27          	fsw	fa2,952(a5)
     e2c:	3b17ae23          	sw	a7,956(a5)

00000e30 <inst_120>:
     e30:	3c082507          	flw	fa0,960(a6)
     e34:	3c482587          	flw	fa1,964(a6)
     e38:	0021d073          	fsrmi	zero,3
     e3c:	10b57653          	fmul.s	fa2,fa0,fa1
     e40:	001028f3          	frflags	a7
     e44:	3cc7a027          	fsw	fa2,960(a5)
     e48:	3d17a223          	sw	a7,964(a5)

00000e4c <inst_121>:
     e4c:	3c882507          	flw	fa0,968(a6)
     e50:	3cc82587          	flw	fa1,972(a6)
     e54:	0021d073          	fsrmi	zero,3
     e58:	10b57653          	fmul.s	fa2,fa0,fa1
     e5c:	001028f3          	frflags	a7
     e60:	3cc7a427          	fsw	fa2,968(a5)
     e64:	3d17a623          	sw	a7,972(a5)

00000e68 <inst_122>:
     e68:	3d082507          	flw	fa0,976(a6)
     e6c:	3d482587          	flw	fa1,980(a6)
     e70:	0021d073          	fsrmi	zero,3
     e74:	10b57653          	fmul.s	fa2,fa0,fa1
     e78:	001028f3          	frflags	a7
     e7c:	3cc7a827          	fsw	fa2,976(a5)
     e80:	3d17aa23          	sw	a7,980(a5)

00000e84 <inst_123>:
     e84:	3d882507          	flw	fa0,984(a6)
     e88:	3dc82587          	flw	fa1,988(a6)
     e8c:	0021d073          	fsrmi	zero,3
     e90:	10b57653          	fmul.s	fa2,fa0,fa1
     e94:	001028f3          	frflags	a7
     e98:	3cc7ac27          	fsw	fa2,984(a5)
     e9c:	3d17ae23          	sw	a7,988(a5)

00000ea0 <inst_124>:
     ea0:	3e082507          	flw	fa0,992(a6)
     ea4:	3e482587          	flw	fa1,996(a6)
     ea8:	0021d073          	fsrmi	zero,3
     eac:	10b57653          	fmul.s	fa2,fa0,fa1
     eb0:	001028f3          	frflags	a7
     eb4:	3ec7a027          	fsw	fa2,992(a5)
     eb8:	3f17a223          	sw	a7,996(a5)

00000ebc <inst_125>:
     ebc:	3e882507          	flw	fa0,1000(a6)
     ec0:	3ec82587          	flw	fa1,1004(a6)
     ec4:	0021d073          	fsrmi	zero,3
     ec8:	10b57653          	fmul.s	fa2,fa0,fa1
     ecc:	001028f3          	frflags	a7
     ed0:	3ec7a427          	fsw	fa2,1000(a5)
     ed4:	3f17a623          	sw	a7,1004(a5)

00000ed8 <inst_126>:
     ed8:	3f082507          	flw	fa0,1008(a6)
     edc:	3f482587          	flw	fa1,1012(a6)
     ee0:	0021d073          	fsrmi	zero,3
     ee4:	10b57653          	fmul.s	fa2,fa0,fa1
     ee8:	001028f3          	frflags	a7
     eec:	3ec7a827          	fsw	fa2,1008(a5)
     ef0:	3f17aa23          	sw	a7,1012(a5)

00000ef4 <inst_127>:
     ef4:	3f882507          	flw	fa0,1016(a6)
     ef8:	3fc82587          	flw	fa1,1020(a6)
     efc:	0021d073          	fsrmi	zero,3
     f00:	10b57653          	fmul.s	fa2,fa0,fa1
     f04:	001028f3          	frflags	a7
     f08:	3ec7ac27          	fsw	fa2,1016(a5)
     f0c:	3f17ae23          	sw	a7,1020(a5)

00000f10 <inst_128>:
     f10:	40082507          	flw	fa0,1024(a6)
     f14:	40482587          	flw	fa1,1028(a6)
     f18:	0021d073          	fsrmi	zero,3
     f1c:	10b57653          	fmul.s	fa2,fa0,fa1
     f20:	001028f3          	frflags	a7
     f24:	40c7a027          	fsw	fa2,1024(a5)
     f28:	4117a223          	sw	a7,1028(a5)

00000f2c <inst_129>:
     f2c:	40882507          	flw	fa0,1032(a6)
     f30:	40c82587          	flw	fa1,1036(a6)
     f34:	0021d073          	fsrmi	zero,3
     f38:	10b57653          	fmul.s	fa2,fa0,fa1
     f3c:	001028f3          	frflags	a7
     f40:	40c7a427          	fsw	fa2,1032(a5)
     f44:	4117a623          	sw	a7,1036(a5)

00000f48 <inst_130>:
     f48:	41082507          	flw	fa0,1040(a6)
     f4c:	41482587          	flw	fa1,1044(a6)
     f50:	0021d073          	fsrmi	zero,3
     f54:	10b57653          	fmul.s	fa2,fa0,fa1
     f58:	001028f3          	frflags	a7
     f5c:	40c7a827          	fsw	fa2,1040(a5)
     f60:	4117aa23          	sw	a7,1044(a5)

00000f64 <inst_131>:
     f64:	41882507          	flw	fa0,1048(a6)
     f68:	41c82587          	flw	fa1,1052(a6)
     f6c:	0021d073          	fsrmi	zero,3
     f70:	10b57653          	fmul.s	fa2,fa0,fa1
     f74:	001028f3          	frflags	a7
     f78:	40c7ac27          	fsw	fa2,1048(a5)
     f7c:	4117ae23          	sw	a7,1052(a5)

00000f80 <inst_132>:
     f80:	42082507          	flw	fa0,1056(a6)
     f84:	42482587          	flw	fa1,1060(a6)
     f88:	0021d073          	fsrmi	zero,3
     f8c:	10b57653          	fmul.s	fa2,fa0,fa1
     f90:	001028f3          	frflags	a7
     f94:	42c7a027          	fsw	fa2,1056(a5)
     f98:	4317a223          	sw	a7,1060(a5)

00000f9c <inst_133>:
     f9c:	42882507          	flw	fa0,1064(a6)
     fa0:	42c82587          	flw	fa1,1068(a6)
     fa4:	0021d073          	fsrmi	zero,3
     fa8:	10b57653          	fmul.s	fa2,fa0,fa1
     fac:	001028f3          	frflags	a7
     fb0:	42c7a427          	fsw	fa2,1064(a5)
     fb4:	4317a623          	sw	a7,1068(a5)

00000fb8 <inst_134>:
     fb8:	43082507          	flw	fa0,1072(a6)
     fbc:	43482587          	flw	fa1,1076(a6)
     fc0:	0021d073          	fsrmi	zero,3
     fc4:	10b57653          	fmul.s	fa2,fa0,fa1
     fc8:	001028f3          	frflags	a7
     fcc:	42c7a827          	fsw	fa2,1072(a5)
     fd0:	4317aa23          	sw	a7,1076(a5)

00000fd4 <inst_135>:
     fd4:	43882507          	flw	fa0,1080(a6)
     fd8:	43c82587          	flw	fa1,1084(a6)
     fdc:	0021d073          	fsrmi	zero,3
     fe0:	10b57653          	fmul.s	fa2,fa0,fa1
     fe4:	001028f3          	frflags	a7
     fe8:	42c7ac27          	fsw	fa2,1080(a5)
     fec:	4317ae23          	sw	a7,1084(a5)

00000ff0 <inst_136>:
     ff0:	44082507          	flw	fa0,1088(a6)
     ff4:	44482587          	flw	fa1,1092(a6)
     ff8:	0021d073          	fsrmi	zero,3
     ffc:	10b57653          	fmul.s	fa2,fa0,fa1
    1000:	001028f3          	frflags	a7
    1004:	44c7a027          	fsw	fa2,1088(a5)
    1008:	4517a223          	sw	a7,1092(a5)

0000100c <inst_137>:
    100c:	44882507          	flw	fa0,1096(a6)
    1010:	44c82587          	flw	fa1,1100(a6)
    1014:	0021d073          	fsrmi	zero,3
    1018:	10b57653          	fmul.s	fa2,fa0,fa1
    101c:	001028f3          	frflags	a7
    1020:	44c7a427          	fsw	fa2,1096(a5)
    1024:	4517a623          	sw	a7,1100(a5)

00001028 <inst_138>:
    1028:	45082507          	flw	fa0,1104(a6)
    102c:	45482587          	flw	fa1,1108(a6)
    1030:	0021d073          	fsrmi	zero,3
    1034:	10b57653          	fmul.s	fa2,fa0,fa1
    1038:	001028f3          	frflags	a7
    103c:	44c7a827          	fsw	fa2,1104(a5)
    1040:	4517aa23          	sw	a7,1108(a5)

00001044 <inst_139>:
    1044:	45882507          	flw	fa0,1112(a6)
    1048:	45c82587          	flw	fa1,1116(a6)
    104c:	0021d073          	fsrmi	zero,3
    1050:	10b57653          	fmul.s	fa2,fa0,fa1
    1054:	001028f3          	frflags	a7
    1058:	44c7ac27          	fsw	fa2,1112(a5)
    105c:	4517ae23          	sw	a7,1116(a5)

00001060 <inst_140>:
    1060:	46082507          	flw	fa0,1120(a6)
    1064:	46482587          	flw	fa1,1124(a6)
    1068:	0021d073          	fsrmi	zero,3
    106c:	10b57653          	fmul.s	fa2,fa0,fa1
    1070:	001028f3          	frflags	a7
    1074:	46c7a027          	fsw	fa2,1120(a5)
    1078:	4717a223          	sw	a7,1124(a5)

0000107c <inst_141>:
    107c:	46882507          	flw	fa0,1128(a6)
    1080:	46c82587          	flw	fa1,1132(a6)
    1084:	0021d073          	fsrmi	zero,3
    1088:	10b57653          	fmul.s	fa2,fa0,fa1
    108c:	001028f3          	frflags	a7
    1090:	46c7a427          	fsw	fa2,1128(a5)
    1094:	4717a623          	sw	a7,1132(a5)

00001098 <inst_142>:
    1098:	47082507          	flw	fa0,1136(a6)
    109c:	47482587          	flw	fa1,1140(a6)
    10a0:	0021d073          	fsrmi	zero,3
    10a4:	10b57653          	fmul.s	fa2,fa0,fa1
    10a8:	001028f3          	frflags	a7
    10ac:	46c7a827          	fsw	fa2,1136(a5)
    10b0:	4717aa23          	sw	a7,1140(a5)

000010b4 <inst_143>:
    10b4:	47882507          	flw	fa0,1144(a6)
    10b8:	47c82587          	flw	fa1,1148(a6)
    10bc:	0021d073          	fsrmi	zero,3
    10c0:	10b57653          	fmul.s	fa2,fa0,fa1
    10c4:	001028f3          	frflags	a7
    10c8:	46c7ac27          	fsw	fa2,1144(a5)
    10cc:	4717ae23          	sw	a7,1148(a5)

000010d0 <inst_144>:
    10d0:	48082507          	flw	fa0,1152(a6)
    10d4:	48482587          	flw	fa1,1156(a6)
    10d8:	0021d073          	fsrmi	zero,3
    10dc:	10b57653          	fmul.s	fa2,fa0,fa1
    10e0:	001028f3          	frflags	a7
    10e4:	48c7a027          	fsw	fa2,1152(a5)
    10e8:	4917a223          	sw	a7,1156(a5)

000010ec <inst_145>:
    10ec:	48882507          	flw	fa0,1160(a6)
    10f0:	48c82587          	flw	fa1,1164(a6)
    10f4:	0021d073          	fsrmi	zero,3
    10f8:	10b57653          	fmul.s	fa2,fa0,fa1
    10fc:	001028f3          	frflags	a7
    1100:	48c7a427          	fsw	fa2,1160(a5)
    1104:	4917a623          	sw	a7,1164(a5)

00001108 <inst_146>:
    1108:	49082507          	flw	fa0,1168(a6)
    110c:	49482587          	flw	fa1,1172(a6)
    1110:	0021d073          	fsrmi	zero,3
    1114:	10b57653          	fmul.s	fa2,fa0,fa1
    1118:	001028f3          	frflags	a7
    111c:	48c7a827          	fsw	fa2,1168(a5)
    1120:	4917aa23          	sw	a7,1172(a5)

00001124 <inst_147>:
    1124:	49882507          	flw	fa0,1176(a6)
    1128:	49c82587          	flw	fa1,1180(a6)
    112c:	0021d073          	fsrmi	zero,3
    1130:	10b57653          	fmul.s	fa2,fa0,fa1
    1134:	001028f3          	frflags	a7
    1138:	48c7ac27          	fsw	fa2,1176(a5)
    113c:	4917ae23          	sw	a7,1180(a5)

00001140 <inst_148>:
    1140:	4a082507          	flw	fa0,1184(a6)
    1144:	4a482587          	flw	fa1,1188(a6)
    1148:	0021d073          	fsrmi	zero,3
    114c:	10b57653          	fmul.s	fa2,fa0,fa1
    1150:	001028f3          	frflags	a7
    1154:	4ac7a027          	fsw	fa2,1184(a5)
    1158:	4b17a223          	sw	a7,1188(a5)

0000115c <inst_149>:
    115c:	4a882507          	flw	fa0,1192(a6)
    1160:	4ac82587          	flw	fa1,1196(a6)
    1164:	0021d073          	fsrmi	zero,3
    1168:	10b57653          	fmul.s	fa2,fa0,fa1
    116c:	001028f3          	frflags	a7
    1170:	4ac7a427          	fsw	fa2,1192(a5)
    1174:	4b17a623          	sw	a7,1196(a5)

00001178 <inst_150>:
    1178:	4b082507          	flw	fa0,1200(a6)
    117c:	4b482587          	flw	fa1,1204(a6)
    1180:	0021d073          	fsrmi	zero,3
    1184:	10b57653          	fmul.s	fa2,fa0,fa1
    1188:	001028f3          	frflags	a7
    118c:	4ac7a827          	fsw	fa2,1200(a5)
    1190:	4b17aa23          	sw	a7,1204(a5)

00001194 <inst_151>:
    1194:	4b882507          	flw	fa0,1208(a6)
    1198:	4bc82587          	flw	fa1,1212(a6)
    119c:	0021d073          	fsrmi	zero,3
    11a0:	10b57653          	fmul.s	fa2,fa0,fa1
    11a4:	001028f3          	frflags	a7
    11a8:	4ac7ac27          	fsw	fa2,1208(a5)
    11ac:	4b17ae23          	sw	a7,1212(a5)

000011b0 <inst_152>:
    11b0:	4c082507          	flw	fa0,1216(a6)
    11b4:	4c482587          	flw	fa1,1220(a6)
    11b8:	0021d073          	fsrmi	zero,3
    11bc:	10b57653          	fmul.s	fa2,fa0,fa1
    11c0:	001028f3          	frflags	a7
    11c4:	4cc7a027          	fsw	fa2,1216(a5)
    11c8:	4d17a223          	sw	a7,1220(a5)

000011cc <inst_153>:
    11cc:	4c882507          	flw	fa0,1224(a6)
    11d0:	4cc82587          	flw	fa1,1228(a6)
    11d4:	0021d073          	fsrmi	zero,3
    11d8:	10b57653          	fmul.s	fa2,fa0,fa1
    11dc:	001028f3          	frflags	a7
    11e0:	4cc7a427          	fsw	fa2,1224(a5)
    11e4:	4d17a623          	sw	a7,1228(a5)

000011e8 <inst_154>:
    11e8:	4d082507          	flw	fa0,1232(a6)
    11ec:	4d482587          	flw	fa1,1236(a6)
    11f0:	0021d073          	fsrmi	zero,3
    11f4:	10b57653          	fmul.s	fa2,fa0,fa1
    11f8:	001028f3          	frflags	a7
    11fc:	4cc7a827          	fsw	fa2,1232(a5)
    1200:	4d17aa23          	sw	a7,1236(a5)

00001204 <inst_155>:
    1204:	4d882507          	flw	fa0,1240(a6)
    1208:	4dc82587          	flw	fa1,1244(a6)
    120c:	0021d073          	fsrmi	zero,3
    1210:	10b57653          	fmul.s	fa2,fa0,fa1
    1214:	001028f3          	frflags	a7
    1218:	4cc7ac27          	fsw	fa2,1240(a5)
    121c:	4d17ae23          	sw	a7,1244(a5)

00001220 <inst_156>:
    1220:	4e082507          	flw	fa0,1248(a6)
    1224:	4e482587          	flw	fa1,1252(a6)
    1228:	0021d073          	fsrmi	zero,3
    122c:	10b57653          	fmul.s	fa2,fa0,fa1
    1230:	001028f3          	frflags	a7
    1234:	4ec7a027          	fsw	fa2,1248(a5)
    1238:	4f17a223          	sw	a7,1252(a5)

0000123c <inst_157>:
    123c:	4e882507          	flw	fa0,1256(a6)
    1240:	4ec82587          	flw	fa1,1260(a6)
    1244:	0021d073          	fsrmi	zero,3
    1248:	10b57653          	fmul.s	fa2,fa0,fa1
    124c:	001028f3          	frflags	a7
    1250:	4ec7a427          	fsw	fa2,1256(a5)
    1254:	4f17a623          	sw	a7,1260(a5)

00001258 <inst_158>:
    1258:	4f082507          	flw	fa0,1264(a6)
    125c:	4f482587          	flw	fa1,1268(a6)
    1260:	0021d073          	fsrmi	zero,3
    1264:	10b57653          	fmul.s	fa2,fa0,fa1
    1268:	001028f3          	frflags	a7
    126c:	4ec7a827          	fsw	fa2,1264(a5)
    1270:	4f17aa23          	sw	a7,1268(a5)

00001274 <inst_159>:
    1274:	4f882507          	flw	fa0,1272(a6)
    1278:	4fc82587          	flw	fa1,1276(a6)
    127c:	0021d073          	fsrmi	zero,3
    1280:	10b57653          	fmul.s	fa2,fa0,fa1
    1284:	001028f3          	frflags	a7
    1288:	4ec7ac27          	fsw	fa2,1272(a5)
    128c:	4f17ae23          	sw	a7,1276(a5)

00001290 <inst_160>:
    1290:	50082507          	flw	fa0,1280(a6)
    1294:	50482587          	flw	fa1,1284(a6)
    1298:	0021d073          	fsrmi	zero,3
    129c:	10b57653          	fmul.s	fa2,fa0,fa1
    12a0:	001028f3          	frflags	a7
    12a4:	50c7a027          	fsw	fa2,1280(a5)
    12a8:	5117a223          	sw	a7,1284(a5)

000012ac <inst_161>:
    12ac:	50882507          	flw	fa0,1288(a6)
    12b0:	50c82587          	flw	fa1,1292(a6)
    12b4:	0021d073          	fsrmi	zero,3
    12b8:	10b57653          	fmul.s	fa2,fa0,fa1
    12bc:	001028f3          	frflags	a7
    12c0:	50c7a427          	fsw	fa2,1288(a5)
    12c4:	5117a623          	sw	a7,1292(a5)
    12c8:	00000013          	nop
    12cc:	00000013          	nop

000012d0 <rvtest_code_end>:
    12d0:	00001517          	auipc	a0,0x1
    12d4:	25050513          	add	a0,a0,592 # 2520 <data_begin>
    12d8:	00001597          	auipc	a1,0x1
    12dc:	75858593          	add	a1,a1,1880 # 2a30 <_end>
    12e0:	80001637          	lui	a2,0x80001
    12e4:	00860613          	add	a2,a2,8 # 80001008 <_end+0x7fffe5d8>

000012e8 <compliance_halt_loop>:
    12e8:	06b50063          	beq	a0,a1,1348 <compliance_halt_break>
    12ec:	00450693          	add	a3,a0,4

000012f0 <compliance_halt_loop2>:
    12f0:	fff68693          	add	a3,a3,-1
    12f4:	00068703          	lb	a4,0(a3)
    12f8:	40475793          	sra	a5,a4,0x4
    12fc:	00f7f793          	and	a5,a5,15
    1300:	00a00813          	li	a6,10
    1304:	0107c463          	blt	a5,a6,130c <notLetter>
    1308:	02778793          	add	a5,a5,39

0000130c <notLetter>:
    130c:	03078793          	add	a5,a5,48
    1310:	00f60023          	sb	a5,0(a2)
    1314:	40075793          	sra	a5,a4,0x0
    1318:	00f7f793          	and	a5,a5,15
    131c:	00a00813          	li	a6,10
    1320:	0107c463          	blt	a5,a6,1328 <notLetter2>
    1324:	02778793          	add	a5,a5,39

00001328 <notLetter2>:
    1328:	03078793          	add	a5,a5,48
    132c:	00f60023          	sb	a5,0(a2)
    1330:	fcd510e3          	bne	a0,a3,12f0 <compliance_halt_loop2>
    1334:	00450513          	add	a0,a0,4
    1338:	00a00713          	li	a4,10
    133c:	00e60023          	sb	a4,0(a2)
    1340:	fa9ff06f          	j	12e8 <compliance_halt_loop>
    1344:	0040006f          	j	1348 <compliance_halt_break>

00001348 <compliance_halt_break>:
    1348:	80001537          	lui	a0,0x80001
    134c:	00950513          	add	a0,a0,9 # 80001009 <_end+0x7fffe5d9>
    1350:	00d50023          	sb	a3,0(a0)
	...

Desensamblado de la sección .data:

00002000 <rvtest_data_begin>:
    2000:	cafe                	.2byte	0xcafe
    2002:	babe                	.2byte	0xbabe

00002004 <test_fp>:
    2004:	8efe                	.2byte	0x8efe
    2006:	8efe7f37          	lui	t5,0x8efe7
    200a:	9f677f37          	lui	t5,0x9f677
    200e:	7f08                	.2byte	0x7f08
    2010:	0000                	.2byte	0x0
    2012:	0000                	.2byte	0x0
    2014:	7c0e9cab          	.4byte	0x7c0e9cab
    2018:	7c0e9cab          	.4byte	0x7c0e9cab
    201c:	a101                	.2byte	0xa101
    201e:	00007f3b          	.4byte	0x7f3b
    2022:	0000                	.2byte	0x0
    2024:	a55e                	.2byte	0xa55e
    2026:	7e9a                	.2byte	0x7e9a
    2028:	0000                	.2byte	0x0
    202a:	0000                	.2byte	0x0
    202c:	7e2ccc93          	xor	s9,s9,2018
    2030:	0000                	.2byte	0x0
    2032:	0000                	.2byte	0x0
    2034:	3a99                	.2byte	0x3a99
    2036:	7f12                	.2byte	0x7f12
    2038:	0000                	.2byte	0x0
    203a:	0000                	.2byte	0x0
    203c:	7f0f285b          	.4byte	0x7f0f285b
    2040:	0000                	.2byte	0x0
    2042:	0000                	.2byte	0x0
    2044:	b31c                	.2byte	0xb31c
    2046:	7f38                	.2byte	0x7f38
    2048:	0000                	.2byte	0x0
    204a:	0000                	.2byte	0x0
    204c:	7f076f73          	csrrs	t5,0x7f0,14
    2050:	0000                	.2byte	0x0
    2052:	0000                	.2byte	0x0
    2054:	6888                	.2byte	0x6888
    2056:	7f08                	.2byte	0x7f08
    2058:	0000                	.2byte	0x0
    205a:	0000                	.2byte	0x0
    205c:	4394                	.2byte	0x4394
    205e:	7eb9                	.2byte	0x7eb9
    2060:	0000                	.2byte	0x0
    2062:	0000                	.2byte	0x0
    2064:	90e5                	.2byte	0x90e5
    2066:	7e0a                	.2byte	0x7e0a
    2068:	0000                	.2byte	0x0
    206a:	0000                	.2byte	0x0
    206c:	8b04                	.2byte	0x8b04
    206e:	7ee4                	.2byte	0x7ee4
    2070:	0000                	.2byte	0x0
    2072:	0000                	.2byte	0x0
    2074:	7ea96a13          	or	s4,s2,2026
    2078:	0000                	.2byte	0x0
    207a:	0000                	.2byte	0x0
    207c:	7edc337b          	.4byte	0x7edc337b
    2080:	0000                	.2byte	0x0
    2082:	0000                	.2byte	0x0
    2084:	10c6                	.2byte	0x10c6
    2086:	00007f3f 05380000 	.8byte	0x538000000007f3f
    208e:	00007f07          	.4byte	0x7f07
    2092:	0000                	.2byte	0x0
    2094:	d1f5                	.2byte	0xd1f5
    2096:	00007f2b          	.4byte	0x7f2b
    209a:	0000                	.2byte	0x0
    209c:	599c                	.2byte	0x599c
    209e:	7f09                	.2byte	0x7f09
    20a0:	0000                	.2byte	0x0
    20a2:	0000                	.2byte	0x0
    20a4:	b178                	.2byte	0xb178
    20a6:	00007d93          	and	s11,zero,0
    20aa:	0000                	.2byte	0x0
    20ac:	6362                	.2byte	0x6362
    20ae:	7f36                	.2byte	0x7f36
    20b0:	a925                	.2byte	0xa925
    20b2:	23d11533          	.4byte	0x23d11533
    20b6:	7dac                	.2byte	0x7dac
    20b8:	5b55                	.2byte	0x5b55
    20ba:	16be                	.2byte	0x16be
    20bc:	844c                	.2byte	0x844c
    20be:	7ea8                	.2byte	0x7ea8
    20c0:	7310                	.2byte	0x7310
    20c2:	15c2                	.2byte	0x15c2
    20c4:	c7d5                	.2byte	0xc7d5
    20c6:	7f00                	.2byte	0x7f00
    20c8:	72c1                	.2byte	0x72c1
    20ca:	157e                	.2byte	0x157e
    20cc:	9f2c                	.2byte	0x9f2c
    20ce:	f5477e63          	bgeu	a4,s4,182a <compliance_halt_break+0x4e2>
    20d2:	dd0e160f          	.4byte	0xdd0e160f
    20d6:	7ef8                	.2byte	0x7ef8
    20d8:	abaa                	.2byte	0xabaa
    20da:	efa11583          	lh	a1,-262(sp)
    20de:	951d7f2b          	.4byte	0x951d7f2b
    20e2:	153e                	.2byte	0x153e
    20e4:	7d4d54a3          	.4byte	0x7d4d54a3
    20e8:	9626                	.2byte	0x9626
    20ea:	171f 068d 7de1      	.byte	0x1f, 0x17, 0x8d, 0x06, 0xe1, 0x7d
    20f0:	9e76                	.2byte	0x9e76
    20f2:	1691                	.2byte	0x1691
    20f4:	b9d9                	.2byte	0xb9d9
    20f6:	7e88                	.2byte	0x7e88
    20f8:	15efa96f          	jal	s2,fc256 <_end+0xf9826>
    20fc:	071f 7f1d ad28      	.byte	0x1f, 0x07, 0x1d, 0x7f, 0x28, 0xad
    2102:	1550                	.2byte	0x1550
    2104:	5e0d                	.2byte	0x5e0d
    2106:	7f30                	.2byte	0x7f30
    2108:	cb42                	.2byte	0xcb42
    210a:	1539                	.2byte	0x1539
    210c:	3814                	.2byte	0x3814
    210e:	7ea4                	.2byte	0x7ea4
    2110:	89d0                	.2byte	0x89d0
    2112:	b1f515c7          	fmsub.s	fa1,fa0,ft11,fs6,rtz
    2116:	94ba7ebb          	.4byte	0x94ba7ebb
    211a:	15ae                	.2byte	0x15ae
    211c:	7e63ea1b          	.4byte	0x7e63ea1b
    2120:	c5f1                	.2byte	0xc5f1
    2122:	f44f160f          	.4byte	0xf44f160f
    2126:	7f32                	.2byte	0x7f32
    2128:	1bb0                	.2byte	0x1bb0
    212a:	4d411537          	lui	a0,0x4d411
    212e:	c3eb7f37          	lui	t5,0xc3eb7
    2132:	1532                	.2byte	0x1532
    2134:	19c2                	.2byte	0x19c2
    2136:	7eca                	.2byte	0x7eca
    2138:	2315                	.2byte	0x2315
    213a:	15a2                	.2byte	0x15a2
    213c:	5ac9                	.2byte	0x5ac9
    213e:	7f19                	.2byte	0x7f19
    2140:	1555acb7          	lui	s9,0x1555a
    2144:	4fff 7e89 a35e 15ee 	.byte	0xff, 0x4f, 0x89, 0x7e, 0x5e, 0xa3, 0xee, 0x15, 0x5e, 0xea, 0x0a, 0x7f, 0x00, 0x00, 0x00, 0x00, 0x07, 0x1e
    214c:	ea5e 7f0a 0000 0000 
    2154:	1e07 
    2156:	7efd                	.2byte	0x7efd
    2158:	0000                	.2byte	0x0
    215a:	0000                	.2byte	0x0
    215c:	fd41                	.2byte	0xfd41
    215e:	7f04                	.2byte	0x7f04
    2160:	0000                	.2byte	0x0
    2162:	0000                	.2byte	0x0
    2164:	2408                	.2byte	0x2408
    2166:	7ef6                	.2byte	0x7ef6
    2168:	0000                	.2byte	0x0
    216a:	0000                	.2byte	0x0
    216c:	7d775433          	.4byte	0x7d775433
    2170:	0000                	.2byte	0x0
    2172:	0000                	.2byte	0x0
    2174:	f9fa                	.2byte	0xf9fa
    2176:	7dba                	.2byte	0x7dba
    2178:	0000                	.2byte	0x0
    217a:	0000                	.2byte	0x0
    217c:	affc                	.2byte	0xaffc
    217e:	7f10                	.2byte	0x7f10
    2180:	0000                	.2byte	0x0
    2182:	0000                	.2byte	0x0
    2184:	71a2                	.2byte	0x71a2
    2186:	7e96                	.2byte	0x7e96
    2188:	0000                	.2byte	0x0
    218a:	0000                	.2byte	0x0
    218c:	7e13bb57          	.4byte	0x7e13bb57
    2190:	0000                	.2byte	0x0
    2192:	0000                	.2byte	0x0
    2194:	7d6b27f7          	.4byte	0x7d6b27f7
    2198:	0000                	.2byte	0x0
    219a:	0000                	.2byte	0x0
    219c:	31c4                	.2byte	0x31c4
    219e:	00007e8f          	.4byte	0x7e8f
    21a2:	0000                	.2byte	0x0
    21a4:	ae46                	.2byte	0xae46
    21a6:	7d62                	.2byte	0x7d62
    21a8:	0000                	.2byte	0x0
    21aa:	0000                	.2byte	0x0
    21ac:	ef00                	.2byte	0xef00
    21ae:	7e1f 0000 0000      	.byte	0x1f, 0x7e, 0x00, 0x00, 0x00, 0x00
    21b4:	b2ee                	.2byte	0xb2ee
    21b6:	7e9d                	.2byte	0x7e9d
    21b8:	0000                	.2byte	0x0
    21ba:	0000                	.2byte	0x0
    21bc:	315c                	.2byte	0x315c
    21be:	7c41                	.2byte	0x7c41
    21c0:	0000                	.2byte	0x0
    21c2:	0000                	.2byte	0x0
    21c4:	65be                	.2byte	0x65be
    21c6:	7f21                	.2byte	0x7f21
    21c8:	0000                	.2byte	0x0
    21ca:	0000                	.2byte	0x0
    21cc:	7d9b6277          	.4byte	0x7d9b6277
    21d0:	0000                	.2byte	0x0
    21d2:	0000                	.2byte	0x0
    21d4:	262c                	.2byte	0x262c
    21d6:	7c6a                	.2byte	0x7c6a
    21d8:	0000                	.2byte	0x0
    21da:	0000                	.2byte	0x0
    21dc:	d606                	.2byte	0xd606
    21de:	7f3c                	.2byte	0x7f3c
    21e0:	0000                	.2byte	0x0
    21e2:	0000                	.2byte	0x0
    21e4:	7eea6f9b          	.4byte	0x7eea6f9b
    21e8:	0000                	.2byte	0x0
    21ea:	0000                	.2byte	0x0
    21ec:	7ec76063          	bltu	a4,a2,29cc <data_begin+0x4ac>
    21f0:	0000                	.2byte	0x0
    21f2:	0000                	.2byte	0x0
    21f4:	7f1a1c1b          	.4byte	0x7f1a1c1b
    21f8:	0000                	.2byte	0x0
    21fa:	0000                	.2byte	0x0
    21fc:	7e0b2e4b          	.4byte	0x7e0b2e4b
    2200:	0000                	.2byte	0x0
    2202:	0000                	.2byte	0x0
    2204:	84ae                	.2byte	0x84ae
    2206:	7ea0                	.2byte	0x7ea0
    2208:	0000                	.2byte	0x0
    220a:	0000                	.2byte	0x0
    220c:	221f 7edf 0000      	.byte	0x1f, 0x22, 0xdf, 0x7e, 0x00, 0x00
    2212:	0000                	.2byte	0x0
    2214:	8dc5                	.2byte	0x8dc5
    2216:	7ea6                	.2byte	0x7ea6
    2218:	0000                	.2byte	0x0
    221a:	0000                	.2byte	0x0
    221c:	7f38eb1b          	.4byte	0x7f38eb1b
    2220:	0000                	.2byte	0x0
    2222:	0000                	.2byte	0x0
    2224:	2951                	.2byte	0x2951
    2226:	00007e23          	.4byte	0x7e23
    222a:	0000                	.2byte	0x0
    222c:	de9e                	.2byte	0xde9e
    222e:	7e6d                	.2byte	0x7e6d
    2230:	0000                	.2byte	0x0
    2232:	0000                	.2byte	0x0
    2234:	7ec7f677          	.4byte	0x7ec7f677
    2238:	0000                	.2byte	0x0
    223a:	0000                	.2byte	0x0
    223c:	7e31cfbf 00000000 	.8byte	0x7e31cfbf
    2244:	405f 7d99 0000      	.byte	0x5f, 0x40, 0x99, 0x7d, 0x00, 0x00
    224a:	0000                	.2byte	0x0
    224c:	f6b9                	.2byte	0xf6b9
    224e:	7f0a                	.2byte	0x7f0a
    2250:	0000                	.2byte	0x0
    2252:	0000                	.2byte	0x0
    2254:	f370                	.2byte	0xf370
    2256:	7e9c                	.2byte	0x7e9c
    2258:	0000                	.2byte	0x0
    225a:	0000                	.2byte	0x0
    225c:	7b6d25cb          	.4byte	0x7b6d25cb
    2260:	0000                	.2byte	0x0
    2262:	0000                	.2byte	0x0
    2264:	7041                	.2byte	0x7041
    2266:	7ea2                	.2byte	0x7ea2
    2268:	0000                	.2byte	0x0
    226a:	0000                	.2byte	0x0
    226c:	3942                	.2byte	0x3942
    226e:	7f08                	.2byte	0x7f08
    2270:	0000                	.2byte	0x0
    2272:	0000                	.2byte	0x0
    2274:	add2                	.2byte	0xadd2
    2276:	00007eef          	jal	t4,9276 <_end+0x6846>
    227a:	0000                	.2byte	0x0
    227c:	9980                	.2byte	0x9980
    227e:	7e40                	.2byte	0x7e40
    2280:	0000                	.2byte	0x0
    2282:	0000                	.2byte	0x0
    2284:	7e328a37          	lui	s4,0x7e328
    2288:	0000                	.2byte	0x0
    228a:	0000                	.2byte	0x0
    228c:	5a5f 7f33 0000      	.byte	0x5f, 0x5a, 0x33, 0x7f, 0x00, 0x00
    2292:	0000                	.2byte	0x0
    2294:	2be8                	.2byte	0x2be8
    2296:	00007ec3          	fmadd.s	ft9,ft0,ft0,ft0
    229a:	0000                	.2byte	0x0
    229c:	4261                	.2byte	0x4261
    229e:	00007d93          	and	s11,zero,0
    22a2:	0000                	.2byte	0x0
    22a4:	2b68                	.2byte	0x2b68
    22a6:	7cce                	.2byte	0x7cce
    22a8:	0000                	.2byte	0x0
    22aa:	0000                	.2byte	0x0
    22ac:	ea20                	.2byte	0xea20
    22ae:	00007dd7          	.4byte	0x7dd7
    22b2:	0000                	.2byte	0x0
    22b4:	9799                	.2byte	0x9799
    22b6:	7c5d                	.2byte	0x7c5d
    22b8:	0000                	.2byte	0x0
    22ba:	0000                	.2byte	0x0
    22bc:	bbe2                	.2byte	0xbbe2
    22be:	7ee8                	.2byte	0x7ee8
    22c0:	0000                	.2byte	0x0
    22c2:	0000                	.2byte	0x0
    22c4:	44b4                	.2byte	0x44b4
    22c6:	7f38                	.2byte	0x7f38
    22c8:	0000                	.2byte	0x0
    22ca:	0000                	.2byte	0x0
    22cc:	af29                	.2byte	0xaf29
    22ce:	7ec5                	.2byte	0x7ec5
    22d0:	0000                	.2byte	0x0
    22d2:	0000                	.2byte	0x0
    22d4:	7ee09f7b          	.4byte	0x7ee09f7b
    22d8:	0000                	.2byte	0x0
    22da:	0000                	.2byte	0x0
    22dc:	f459                	.2byte	0xf459
    22de:	00007f27          	.4byte	0x7f27
    22e2:	0000                	.2byte	0x0
    22e4:	bf56                	.2byte	0xbf56
    22e6:	7d9c                	.2byte	0x7d9c
    22e8:	0000                	.2byte	0x0
    22ea:	0000                	.2byte	0x0
    22ec:	c215                	.2byte	0xc215
    22ee:	7efd                	.2byte	0x7efd
    22f0:	0000                	.2byte	0x0
    22f2:	0000                	.2byte	0x0
    22f4:	8c1d                	.2byte	0x8c1d
    22f6:	7eb5                	.2byte	0x7eb5
    22f8:	0000                	.2byte	0x0
    22fa:	0000                	.2byte	0x0
    22fc:	96ee                	.2byte	0x96ee
    22fe:	7f25                	.2byte	0x7f25
    2300:	0000                	.2byte	0x0
    2302:	0000                	.2byte	0x0
    2304:	7f2d3017          	auipc	zero,0x7f2d3
    2308:	0000                	.2byte	0x0
    230a:	0000                	.2byte	0x0
    230c:	7f1310f3          	csrrw	ra,0x7f1,t1
    2310:	0000                	.2byte	0x0
    2312:	0000                	.2byte	0x0
    2314:	4d49                	.2byte	0x4d49
    2316:	7cbd                	.2byte	0x7cbd
    2318:	0000                	.2byte	0x0
    231a:	0000                	.2byte	0x0
    231c:	be96                	.2byte	0xbe96
    231e:	7dad                	.2byte	0x7dad
    2320:	0000                	.2byte	0x0
    2322:	0000                	.2byte	0x0
    2324:	407f 7eec 0000 0000 	.byte	0x7f, 0x40, 0xec, 0x7e, 0x00, 0x00, 0x00, 0x00, 0x31, 0xd6, 0xde, 0x7c, 0x00, 0x00, 0x00, 0x00, 0x8d, 0x14
    232c:	d631 7cde 0000 0000 
    2334:	148d 
    2336:	7f3e                	.2byte	0x7f3e
    2338:	0000                	.2byte	0x0
    233a:	0000                	.2byte	0x0
    233c:	0eaa                	.2byte	0xeaa
    233e:	7e94                	.2byte	0x7e94
    2340:	0000                	.2byte	0x0
    2342:	0000                	.2byte	0x0
    2344:	1c84                	.2byte	0x1c84
    2346:	7e0d                	.2byte	0x7e0d
    2348:	0000                	.2byte	0x0
    234a:	0000                	.2byte	0x0
    234c:	29fe                	.2byte	0x29fe
    234e:	7f1c                	.2byte	0x7f1c
    2350:	0000                	.2byte	0x0
    2352:	0000                	.2byte	0x0
    2354:	ea00                	.2byte	0xea00
    2356:	7c81                	.2byte	0x7c81
    2358:	0000                	.2byte	0x0
    235a:	0000                	.2byte	0x0
    235c:	b7c9                	.2byte	0xb7c9
    235e:	00007c9b          	.4byte	0x7c9b
    2362:	0000                	.2byte	0x0
    2364:	adb5                	.2byte	0xadb5
    2366:	7d7e                	.2byte	0x7d7e
    2368:	0000                	.2byte	0x0
    236a:	0000                	.2byte	0x0
    236c:	012d                	.2byte	0x12d
    236e:	7e04                	.2byte	0x7e04
    2370:	0000                	.2byte	0x0
    2372:	0000                	.2byte	0x0
    2374:	d400                	.2byte	0xd400
    2376:	00007cc3          	fmadd.s	fs9,ft0,ft0,ft0
    237a:	0000                	.2byte	0x0
    237c:	667e                	.2byte	0x667e
    237e:	7ea2                	.2byte	0x7ea2
    2380:	0000                	.2byte	0x0
    2382:	0000                	.2byte	0x0
    2384:	7e21a5d7          	.4byte	0x7e21a5d7
    2388:	0000                	.2byte	0x0
    238a:	0000                	.2byte	0x0
    238c:	f501                	.2byte	0xf501
    238e:	00007f23          	.4byte	0x7f23
    2392:	0000                	.2byte	0x0
    2394:	7da3397b          	.4byte	0x7da3397b
    2398:	0000                	.2byte	0x0
    239a:	0000                	.2byte	0x0
    239c:	0a9e                	.2byte	0xa9e
    239e:	7e2e                	.2byte	0x7e2e
    23a0:	0000                	.2byte	0x0
    23a2:	0000                	.2byte	0x0
    23a4:	7efab7a7          	.4byte	0x7efab7a7
    23a8:	0000                	.2byte	0x0
    23aa:	0000                	.2byte	0x0
    23ac:	7f0eff8f          	.4byte	0x7f0eff8f
    23b0:	0000                	.2byte	0x0
    23b2:	0000                	.2byte	0x0
    23b4:	44fd                	.2byte	0x44fd
    23b6:	7f2e                	.2byte	0x7f2e
    23b8:	0000                	.2byte	0x0
    23ba:	0000                	.2byte	0x0
    23bc:	844c                	.2byte	0x844c
    23be:	7f1d                	.2byte	0x7f1d
    23c0:	0000                	.2byte	0x0
    23c2:	0000                	.2byte	0x0
    23c4:	5572                	.2byte	0x5572
    23c6:	00007eef          	jal	t4,93c6 <_end+0x6996>
    23ca:	0000                	.2byte	0x0
    23cc:	90fe                	.2byte	0x90fe
    23ce:	7ec4                	.2byte	0x7ec4
    23d0:	0000                	.2byte	0x0
    23d2:	0000                	.2byte	0x0
    23d4:	7f16                	.2byte	0x7f16
    23d6:	00007e6f          	jal	t3,93d6 <_end+0x69a6>
    23da:	0000                	.2byte	0x0
    23dc:	7efa24a3          	sw	a5,2025(s4) # 7e3287e9 <_end+0x7e325db9>
    23e0:	0000                	.2byte	0x0
    23e2:	0000                	.2byte	0x0
    23e4:	a1ac                	.2byte	0xa1ac
    23e6:	7ec1                	.2byte	0x7ec1
    23e8:	0000                	.2byte	0x0
    23ea:	0000                	.2byte	0x0
    23ec:	d03d                	.2byte	0xd03d
    23ee:	00007f37          	lui	t5,0x7
    23f2:	0000                	.2byte	0x0
    23f4:	fc0a                	.2byte	0xfc0a
    23f6:	7f2e                	.2byte	0x7f2e
    23f8:	0000                	.2byte	0x0
    23fa:	0000                	.2byte	0x0
    23fc:	5316                	.2byte	0x5316
    23fe:	7f2e                	.2byte	0x7f2e
    2400:	0000                	.2byte	0x0
    2402:	0000                	.2byte	0x0
    2404:	5158                	.2byte	0x5158
    2406:	7f06                	.2byte	0x7f06
    2408:	0000                	.2byte	0x0
    240a:	0000                	.2byte	0x0
    240c:	59d1                	.2byte	0x59d1
    240e:	7e2a                	.2byte	0x7e2a
    2410:	0000                	.2byte	0x0
    2412:	0000                	.2byte	0x0
    2414:	7f0af6e3          	bgeu	s5,a6,3400 <_end+0x9d0>
    2418:	0000                	.2byte	0x0
    241a:	0000                	.2byte	0x0
    241c:	ffad                	.2byte	0xffad
    241e:	7ed9                	.2byte	0x7ed9
    2420:	0000                	.2byte	0x0
    2422:	0000                	.2byte	0x0
    2424:	be14                	.2byte	0xbe14
    2426:	7f2c                	.2byte	0x7f2c
    2428:	0000                	.2byte	0x0
    242a:	0000                	.2byte	0x0
    242c:	e829                	.2byte	0xe829
    242e:	00007e87          	.4byte	0x7e87
    2432:	0000                	.2byte	0x0
    2434:	52ad                	.2byte	0x52ad
    2436:	7ec0                	.2byte	0x7ec0
    2438:	0000                	.2byte	0x0
    243a:	0000                	.2byte	0x0
    243c:	7ebc2a53          	.4byte	0x7ebc2a53
    2440:	0000                	.2byte	0x0
    2442:	0000                	.2byte	0x0
    2444:	2e1f 7eb1 0000      	.byte	0x1f, 0x2e, 0xb1, 0x7e, 0x00, 0x00
    244a:	0000                	.2byte	0x0
    244c:	c4ce                	.2byte	0xc4ce
    244e:	7f10                	.2byte	0x7f10
    2450:	0000                	.2byte	0x0
    2452:	0000                	.2byte	0x0
    2454:	af5a                	.2byte	0xaf5a
    2456:	7f38                	.2byte	0x7f38
    2458:	0000                	.2byte	0x0
    245a:	0000                	.2byte	0x0
    245c:	daac                	.2byte	0xdaac
    245e:	00007e87          	.4byte	0x7e87
    2462:	0000                	.2byte	0x0
    2464:	7958                	.2byte	0x7958
    2466:	7f12                	.2byte	0x7f12
    2468:	0000                	.2byte	0x0
    246a:	0000                	.2byte	0x0
    246c:	7f0d014f          	.4byte	0x7f0d014f
    2470:	0000                	.2byte	0x0
    2472:	0000                	.2byte	0x0
    2474:	7f2b90d3          	.4byte	0x7f2b90d3
    2478:	0000                	.2byte	0x0
    247a:	0000                	.2byte	0x0
    247c:	8006                	.2byte	0x8006
    247e:	7f01                	.2byte	0x7f01
    2480:	0000                	.2byte	0x0
    2482:	0000                	.2byte	0x0
    2484:	ed0a                	.2byte	0xed0a
    2486:	00007ec3          	fmadd.s	ft9,ft0,ft0,ft0
    248a:	0000                	.2byte	0x0
    248c:	b5b2                	.2byte	0xb5b2
    248e:	7e79                	.2byte	0x7e79
    2490:	0000                	.2byte	0x0
    2492:	0000                	.2byte	0x0
    2494:	7e3557bf 00000000 	.8byte	0x7e3557bf
    249c:	e399                	.2byte	0xe399
    249e:	7ec9                	.2byte	0x7ec9
    24a0:	0000                	.2byte	0x0
    24a2:	0000                	.2byte	0x0
    24a4:	ecfc                	.2byte	0xecfc
    24a6:	7e91                	.2byte	0x7e91
    24a8:	0000                	.2byte	0x0
    24aa:	0000                	.2byte	0x0
    24ac:	84ec                	.2byte	0x84ec
    24ae:	7eb2                	.2byte	0x7eb2
    24b0:	0000                	.2byte	0x0
    24b2:	0000                	.2byte	0x0
    24b4:	b815                	.2byte	0xb815
    24b6:	7cdc                	.2byte	0x7cdc
    24b8:	0000                	.2byte	0x0
    24ba:	0000                	.2byte	0x0
    24bc:	d2f1                	.2byte	0xd2f1
    24be:	7eaa                	.2byte	0x7eaa
    24c0:	0000                	.2byte	0x0
    24c2:	0000                	.2byte	0x0
    24c4:	7f3648af          	.4byte	0x7f3648af
    24c8:	0000                	.2byte	0x0
    24ca:	0000                	.2byte	0x0
    24cc:	d17d                	.2byte	0xd17d
    24ce:	7f0a                	.2byte	0x7f0a
    24d0:	0000                	.2byte	0x0
    24d2:	0000                	.2byte	0x0
    24d4:	7ea5608b          	.4byte	0x7ea5608b
    24d8:	0000                	.2byte	0x0
    24da:	0000                	.2byte	0x0
    24dc:	2ead                	.2byte	0x2ead
    24de:	7edf 0000 0000      	.byte	0xdf, 0x7e, 0x00, 0x00, 0x00, 0x00
    24e4:	7ee8aebb          	.4byte	0x7ee8aebb
    24e8:	0000                	.2byte	0x0
    24ea:	0000                	.2byte	0x0
    24ec:	9696                	.2byte	0x9696
    24ee:	7f00                	.2byte	0x7f00
    24f0:	0000                	.2byte	0x0
    24f2:	0000                	.2byte	0x0
    24f4:	6a70                	.2byte	0x6a70
    24f6:	7f20                	.2byte	0x7f20
    24f8:	0000                	.2byte	0x0
    24fa:	0000                	.2byte	0x0
    24fc:	b9cd                	.2byte	0xb9cd
    24fe:	7d2d                	.2byte	0x7d2d
    2500:	0000                	.2byte	0x0
    2502:	0000                	.2byte	0x0
    2504:	8efe                	.2byte	0x8efe
    2506:	00007f37          	lui	t5,0x7
    250a:	0000                	.2byte	0x0
    250c:	7c0e9cab          	.4byte	0x7c0e9cab
    2510:	0000                	.2byte	0x0
	...

00002514 <rvtest_data_end>:
	...

00002520 <data_begin>:
    2520:	deadbeef          	jal	t4,fffddb0a <_end+0xfffdb0da>
    2524:	deadbeef          	jal	t4,fffddb0e <_end+0xfffdb0de>
    2528:	deadbeef          	jal	t4,fffddb12 <_end+0xfffdb0e2>
    252c:	deadbeef          	jal	t4,fffddb16 <_end+0xfffdb0e6>
    2530:	deadbeef          	jal	t4,fffddb1a <_end+0xfffdb0ea>
    2534:	deadbeef          	jal	t4,fffddb1e <_end+0xfffdb0ee>
    2538:	deadbeef          	jal	t4,fffddb22 <_end+0xfffdb0f2>
    253c:	deadbeef          	jal	t4,fffddb26 <_end+0xfffdb0f6>
    2540:	deadbeef          	jal	t4,fffddb2a <_end+0xfffdb0fa>
    2544:	deadbeef          	jal	t4,fffddb2e <_end+0xfffdb0fe>
    2548:	deadbeef          	jal	t4,fffddb32 <_end+0xfffdb102>
    254c:	deadbeef          	jal	t4,fffddb36 <_end+0xfffdb106>
    2550:	deadbeef          	jal	t4,fffddb3a <_end+0xfffdb10a>
    2554:	deadbeef          	jal	t4,fffddb3e <_end+0xfffdb10e>
    2558:	deadbeef          	jal	t4,fffddb42 <_end+0xfffdb112>
    255c:	deadbeef          	jal	t4,fffddb46 <_end+0xfffdb116>
    2560:	deadbeef          	jal	t4,fffddb4a <_end+0xfffdb11a>
    2564:	deadbeef          	jal	t4,fffddb4e <_end+0xfffdb11e>
    2568:	deadbeef          	jal	t4,fffddb52 <_end+0xfffdb122>
    256c:	deadbeef          	jal	t4,fffddb56 <_end+0xfffdb126>
    2570:	deadbeef          	jal	t4,fffddb5a <_end+0xfffdb12a>
    2574:	deadbeef          	jal	t4,fffddb5e <_end+0xfffdb12e>
    2578:	deadbeef          	jal	t4,fffddb62 <_end+0xfffdb132>
    257c:	deadbeef          	jal	t4,fffddb66 <_end+0xfffdb136>
    2580:	deadbeef          	jal	t4,fffddb6a <_end+0xfffdb13a>
    2584:	deadbeef          	jal	t4,fffddb6e <_end+0xfffdb13e>
    2588:	deadbeef          	jal	t4,fffddb72 <_end+0xfffdb142>
    258c:	deadbeef          	jal	t4,fffddb76 <_end+0xfffdb146>
    2590:	deadbeef          	jal	t4,fffddb7a <_end+0xfffdb14a>
    2594:	deadbeef          	jal	t4,fffddb7e <_end+0xfffdb14e>
    2598:	deadbeef          	jal	t4,fffddb82 <_end+0xfffdb152>
    259c:	deadbeef          	jal	t4,fffddb86 <_end+0xfffdb156>
    25a0:	deadbeef          	jal	t4,fffddb8a <_end+0xfffdb15a>
    25a4:	deadbeef          	jal	t4,fffddb8e <_end+0xfffdb15e>
    25a8:	deadbeef          	jal	t4,fffddb92 <_end+0xfffdb162>
    25ac:	deadbeef          	jal	t4,fffddb96 <_end+0xfffdb166>
    25b0:	deadbeef          	jal	t4,fffddb9a <_end+0xfffdb16a>
    25b4:	deadbeef          	jal	t4,fffddb9e <_end+0xfffdb16e>
    25b8:	deadbeef          	jal	t4,fffddba2 <_end+0xfffdb172>
    25bc:	deadbeef          	jal	t4,fffddba6 <_end+0xfffdb176>
    25c0:	deadbeef          	jal	t4,fffddbaa <_end+0xfffdb17a>
    25c4:	deadbeef          	jal	t4,fffddbae <_end+0xfffdb17e>
    25c8:	deadbeef          	jal	t4,fffddbb2 <_end+0xfffdb182>
    25cc:	deadbeef          	jal	t4,fffddbb6 <_end+0xfffdb186>
    25d0:	deadbeef          	jal	t4,fffddbba <_end+0xfffdb18a>
    25d4:	deadbeef          	jal	t4,fffddbbe <_end+0xfffdb18e>
    25d8:	deadbeef          	jal	t4,fffddbc2 <_end+0xfffdb192>
    25dc:	deadbeef          	jal	t4,fffddbc6 <_end+0xfffdb196>
    25e0:	deadbeef          	jal	t4,fffddbca <_end+0xfffdb19a>
    25e4:	deadbeef          	jal	t4,fffddbce <_end+0xfffdb19e>
    25e8:	deadbeef          	jal	t4,fffddbd2 <_end+0xfffdb1a2>
    25ec:	deadbeef          	jal	t4,fffddbd6 <_end+0xfffdb1a6>
    25f0:	deadbeef          	jal	t4,fffddbda <_end+0xfffdb1aa>
    25f4:	deadbeef          	jal	t4,fffddbde <_end+0xfffdb1ae>
    25f8:	deadbeef          	jal	t4,fffddbe2 <_end+0xfffdb1b2>
    25fc:	deadbeef          	jal	t4,fffddbe6 <_end+0xfffdb1b6>
    2600:	deadbeef          	jal	t4,fffddbea <_end+0xfffdb1ba>
    2604:	deadbeef          	jal	t4,fffddbee <_end+0xfffdb1be>
    2608:	deadbeef          	jal	t4,fffddbf2 <_end+0xfffdb1c2>
    260c:	deadbeef          	jal	t4,fffddbf6 <_end+0xfffdb1c6>
    2610:	deadbeef          	jal	t4,fffddbfa <_end+0xfffdb1ca>
    2614:	deadbeef          	jal	t4,fffddbfe <_end+0xfffdb1ce>
    2618:	deadbeef          	jal	t4,fffddc02 <_end+0xfffdb1d2>
    261c:	deadbeef          	jal	t4,fffddc06 <_end+0xfffdb1d6>
    2620:	deadbeef          	jal	t4,fffddc0a <_end+0xfffdb1da>
    2624:	deadbeef          	jal	t4,fffddc0e <_end+0xfffdb1de>
    2628:	deadbeef          	jal	t4,fffddc12 <_end+0xfffdb1e2>
    262c:	deadbeef          	jal	t4,fffddc16 <_end+0xfffdb1e6>
    2630:	deadbeef          	jal	t4,fffddc1a <_end+0xfffdb1ea>
    2634:	deadbeef          	jal	t4,fffddc1e <_end+0xfffdb1ee>
    2638:	deadbeef          	jal	t4,fffddc22 <_end+0xfffdb1f2>
    263c:	deadbeef          	jal	t4,fffddc26 <_end+0xfffdb1f6>
    2640:	deadbeef          	jal	t4,fffddc2a <_end+0xfffdb1fa>
    2644:	deadbeef          	jal	t4,fffddc2e <_end+0xfffdb1fe>
    2648:	deadbeef          	jal	t4,fffddc32 <_end+0xfffdb202>
    264c:	deadbeef          	jal	t4,fffddc36 <_end+0xfffdb206>
    2650:	deadbeef          	jal	t4,fffddc3a <_end+0xfffdb20a>
    2654:	deadbeef          	jal	t4,fffddc3e <_end+0xfffdb20e>
    2658:	deadbeef          	jal	t4,fffddc42 <_end+0xfffdb212>
    265c:	deadbeef          	jal	t4,fffddc46 <_end+0xfffdb216>
    2660:	deadbeef          	jal	t4,fffddc4a <_end+0xfffdb21a>
    2664:	deadbeef          	jal	t4,fffddc4e <_end+0xfffdb21e>
    2668:	deadbeef          	jal	t4,fffddc52 <_end+0xfffdb222>
    266c:	deadbeef          	jal	t4,fffddc56 <_end+0xfffdb226>
    2670:	deadbeef          	jal	t4,fffddc5a <_end+0xfffdb22a>
    2674:	deadbeef          	jal	t4,fffddc5e <_end+0xfffdb22e>
    2678:	deadbeef          	jal	t4,fffddc62 <_end+0xfffdb232>
    267c:	deadbeef          	jal	t4,fffddc66 <_end+0xfffdb236>
    2680:	deadbeef          	jal	t4,fffddc6a <_end+0xfffdb23a>
    2684:	deadbeef          	jal	t4,fffddc6e <_end+0xfffdb23e>
    2688:	deadbeef          	jal	t4,fffddc72 <_end+0xfffdb242>
    268c:	deadbeef          	jal	t4,fffddc76 <_end+0xfffdb246>
    2690:	deadbeef          	jal	t4,fffddc7a <_end+0xfffdb24a>
    2694:	deadbeef          	jal	t4,fffddc7e <_end+0xfffdb24e>
    2698:	deadbeef          	jal	t4,fffddc82 <_end+0xfffdb252>
    269c:	deadbeef          	jal	t4,fffddc86 <_end+0xfffdb256>
    26a0:	deadbeef          	jal	t4,fffddc8a <_end+0xfffdb25a>
    26a4:	deadbeef          	jal	t4,fffddc8e <_end+0xfffdb25e>
    26a8:	deadbeef          	jal	t4,fffddc92 <_end+0xfffdb262>
    26ac:	deadbeef          	jal	t4,fffddc96 <_end+0xfffdb266>
    26b0:	deadbeef          	jal	t4,fffddc9a <_end+0xfffdb26a>
    26b4:	deadbeef          	jal	t4,fffddc9e <_end+0xfffdb26e>
    26b8:	deadbeef          	jal	t4,fffddca2 <_end+0xfffdb272>
    26bc:	deadbeef          	jal	t4,fffddca6 <_end+0xfffdb276>
    26c0:	deadbeef          	jal	t4,fffddcaa <_end+0xfffdb27a>
    26c4:	deadbeef          	jal	t4,fffddcae <_end+0xfffdb27e>
    26c8:	deadbeef          	jal	t4,fffddcb2 <_end+0xfffdb282>
    26cc:	deadbeef          	jal	t4,fffddcb6 <_end+0xfffdb286>
    26d0:	deadbeef          	jal	t4,fffddcba <_end+0xfffdb28a>
    26d4:	deadbeef          	jal	t4,fffddcbe <_end+0xfffdb28e>
    26d8:	deadbeef          	jal	t4,fffddcc2 <_end+0xfffdb292>
    26dc:	deadbeef          	jal	t4,fffddcc6 <_end+0xfffdb296>
    26e0:	deadbeef          	jal	t4,fffddcca <_end+0xfffdb29a>
    26e4:	deadbeef          	jal	t4,fffddcce <_end+0xfffdb29e>
    26e8:	deadbeef          	jal	t4,fffddcd2 <_end+0xfffdb2a2>
    26ec:	deadbeef          	jal	t4,fffddcd6 <_end+0xfffdb2a6>
    26f0:	deadbeef          	jal	t4,fffddcda <_end+0xfffdb2aa>
    26f4:	deadbeef          	jal	t4,fffddcde <_end+0xfffdb2ae>
    26f8:	deadbeef          	jal	t4,fffddce2 <_end+0xfffdb2b2>
    26fc:	deadbeef          	jal	t4,fffddce6 <_end+0xfffdb2b6>
    2700:	deadbeef          	jal	t4,fffddcea <_end+0xfffdb2ba>
    2704:	deadbeef          	jal	t4,fffddcee <_end+0xfffdb2be>
    2708:	deadbeef          	jal	t4,fffddcf2 <_end+0xfffdb2c2>
    270c:	deadbeef          	jal	t4,fffddcf6 <_end+0xfffdb2c6>
    2710:	deadbeef          	jal	t4,fffddcfa <_end+0xfffdb2ca>
    2714:	deadbeef          	jal	t4,fffddcfe <_end+0xfffdb2ce>
    2718:	deadbeef          	jal	t4,fffddd02 <_end+0xfffdb2d2>
    271c:	deadbeef          	jal	t4,fffddd06 <_end+0xfffdb2d6>
    2720:	deadbeef          	jal	t4,fffddd0a <_end+0xfffdb2da>
    2724:	deadbeef          	jal	t4,fffddd0e <_end+0xfffdb2de>
    2728:	deadbeef          	jal	t4,fffddd12 <_end+0xfffdb2e2>
    272c:	deadbeef          	jal	t4,fffddd16 <_end+0xfffdb2e6>
    2730:	deadbeef          	jal	t4,fffddd1a <_end+0xfffdb2ea>
    2734:	deadbeef          	jal	t4,fffddd1e <_end+0xfffdb2ee>
    2738:	deadbeef          	jal	t4,fffddd22 <_end+0xfffdb2f2>
    273c:	deadbeef          	jal	t4,fffddd26 <_end+0xfffdb2f6>
    2740:	deadbeef          	jal	t4,fffddd2a <_end+0xfffdb2fa>
    2744:	deadbeef          	jal	t4,fffddd2e <_end+0xfffdb2fe>
    2748:	deadbeef          	jal	t4,fffddd32 <_end+0xfffdb302>
    274c:	deadbeef          	jal	t4,fffddd36 <_end+0xfffdb306>
    2750:	deadbeef          	jal	t4,fffddd3a <_end+0xfffdb30a>
    2754:	deadbeef          	jal	t4,fffddd3e <_end+0xfffdb30e>
    2758:	deadbeef          	jal	t4,fffddd42 <_end+0xfffdb312>
    275c:	deadbeef          	jal	t4,fffddd46 <_end+0xfffdb316>
    2760:	deadbeef          	jal	t4,fffddd4a <_end+0xfffdb31a>
    2764:	deadbeef          	jal	t4,fffddd4e <_end+0xfffdb31e>
    2768:	deadbeef          	jal	t4,fffddd52 <_end+0xfffdb322>
    276c:	deadbeef          	jal	t4,fffddd56 <_end+0xfffdb326>
    2770:	deadbeef          	jal	t4,fffddd5a <_end+0xfffdb32a>
    2774:	deadbeef          	jal	t4,fffddd5e <_end+0xfffdb32e>
    2778:	deadbeef          	jal	t4,fffddd62 <_end+0xfffdb332>
    277c:	deadbeef          	jal	t4,fffddd66 <_end+0xfffdb336>
    2780:	deadbeef          	jal	t4,fffddd6a <_end+0xfffdb33a>
    2784:	deadbeef          	jal	t4,fffddd6e <_end+0xfffdb33e>
    2788:	deadbeef          	jal	t4,fffddd72 <_end+0xfffdb342>
    278c:	deadbeef          	jal	t4,fffddd76 <_end+0xfffdb346>
    2790:	deadbeef          	jal	t4,fffddd7a <_end+0xfffdb34a>
    2794:	deadbeef          	jal	t4,fffddd7e <_end+0xfffdb34e>
    2798:	deadbeef          	jal	t4,fffddd82 <_end+0xfffdb352>
    279c:	deadbeef          	jal	t4,fffddd86 <_end+0xfffdb356>
    27a0:	deadbeef          	jal	t4,fffddd8a <_end+0xfffdb35a>
    27a4:	deadbeef          	jal	t4,fffddd8e <_end+0xfffdb35e>
    27a8:	deadbeef          	jal	t4,fffddd92 <_end+0xfffdb362>
    27ac:	deadbeef          	jal	t4,fffddd96 <_end+0xfffdb366>
    27b0:	deadbeef          	jal	t4,fffddd9a <_end+0xfffdb36a>
    27b4:	deadbeef          	jal	t4,fffddd9e <_end+0xfffdb36e>
    27b8:	deadbeef          	jal	t4,fffddda2 <_end+0xfffdb372>
    27bc:	deadbeef          	jal	t4,fffddda6 <_end+0xfffdb376>
    27c0:	deadbeef          	jal	t4,fffdddaa <_end+0xfffdb37a>
    27c4:	deadbeef          	jal	t4,fffdddae <_end+0xfffdb37e>
    27c8:	deadbeef          	jal	t4,fffdddb2 <_end+0xfffdb382>
    27cc:	deadbeef          	jal	t4,fffdddb6 <_end+0xfffdb386>
    27d0:	deadbeef          	jal	t4,fffdddba <_end+0xfffdb38a>
    27d4:	deadbeef          	jal	t4,fffdddbe <_end+0xfffdb38e>
    27d8:	deadbeef          	jal	t4,fffdddc2 <_end+0xfffdb392>
    27dc:	deadbeef          	jal	t4,fffdddc6 <_end+0xfffdb396>
    27e0:	deadbeef          	jal	t4,fffdddca <_end+0xfffdb39a>
    27e4:	deadbeef          	jal	t4,fffdddce <_end+0xfffdb39e>
    27e8:	deadbeef          	jal	t4,fffdddd2 <_end+0xfffdb3a2>
    27ec:	deadbeef          	jal	t4,fffdddd6 <_end+0xfffdb3a6>
    27f0:	deadbeef          	jal	t4,fffdddda <_end+0xfffdb3aa>
    27f4:	deadbeef          	jal	t4,fffdddde <_end+0xfffdb3ae>
    27f8:	deadbeef          	jal	t4,fffddde2 <_end+0xfffdb3b2>
    27fc:	deadbeef          	jal	t4,fffddde6 <_end+0xfffdb3b6>
    2800:	deadbeef          	jal	t4,fffdddea <_end+0xfffdb3ba>
    2804:	deadbeef          	jal	t4,fffdddee <_end+0xfffdb3be>
    2808:	deadbeef          	jal	t4,fffdddf2 <_end+0xfffdb3c2>
    280c:	deadbeef          	jal	t4,fffdddf6 <_end+0xfffdb3c6>
    2810:	deadbeef          	jal	t4,fffdddfa <_end+0xfffdb3ca>
    2814:	deadbeef          	jal	t4,fffdddfe <_end+0xfffdb3ce>
    2818:	deadbeef          	jal	t4,fffdde02 <_end+0xfffdb3d2>
    281c:	deadbeef          	jal	t4,fffdde06 <_end+0xfffdb3d6>
    2820:	deadbeef          	jal	t4,fffdde0a <_end+0xfffdb3da>
    2824:	deadbeef          	jal	t4,fffdde0e <_end+0xfffdb3de>
    2828:	deadbeef          	jal	t4,fffdde12 <_end+0xfffdb3e2>
    282c:	deadbeef          	jal	t4,fffdde16 <_end+0xfffdb3e6>
    2830:	deadbeef          	jal	t4,fffdde1a <_end+0xfffdb3ea>
    2834:	deadbeef          	jal	t4,fffdde1e <_end+0xfffdb3ee>
    2838:	deadbeef          	jal	t4,fffdde22 <_end+0xfffdb3f2>
    283c:	deadbeef          	jal	t4,fffdde26 <_end+0xfffdb3f6>
    2840:	deadbeef          	jal	t4,fffdde2a <_end+0xfffdb3fa>
    2844:	deadbeef          	jal	t4,fffdde2e <_end+0xfffdb3fe>
    2848:	deadbeef          	jal	t4,fffdde32 <_end+0xfffdb402>
    284c:	deadbeef          	jal	t4,fffdde36 <_end+0xfffdb406>
    2850:	deadbeef          	jal	t4,fffdde3a <_end+0xfffdb40a>
    2854:	deadbeef          	jal	t4,fffdde3e <_end+0xfffdb40e>
    2858:	deadbeef          	jal	t4,fffdde42 <_end+0xfffdb412>
    285c:	deadbeef          	jal	t4,fffdde46 <_end+0xfffdb416>
    2860:	deadbeef          	jal	t4,fffdde4a <_end+0xfffdb41a>
    2864:	deadbeef          	jal	t4,fffdde4e <_end+0xfffdb41e>
    2868:	deadbeef          	jal	t4,fffdde52 <_end+0xfffdb422>
    286c:	deadbeef          	jal	t4,fffdde56 <_end+0xfffdb426>
    2870:	deadbeef          	jal	t4,fffdde5a <_end+0xfffdb42a>
    2874:	deadbeef          	jal	t4,fffdde5e <_end+0xfffdb42e>
    2878:	deadbeef          	jal	t4,fffdde62 <_end+0xfffdb432>
    287c:	deadbeef          	jal	t4,fffdde66 <_end+0xfffdb436>
    2880:	deadbeef          	jal	t4,fffdde6a <_end+0xfffdb43a>
    2884:	deadbeef          	jal	t4,fffdde6e <_end+0xfffdb43e>
    2888:	deadbeef          	jal	t4,fffdde72 <_end+0xfffdb442>
    288c:	deadbeef          	jal	t4,fffdde76 <_end+0xfffdb446>
    2890:	deadbeef          	jal	t4,fffdde7a <_end+0xfffdb44a>
    2894:	deadbeef          	jal	t4,fffdde7e <_end+0xfffdb44e>
    2898:	deadbeef          	jal	t4,fffdde82 <_end+0xfffdb452>
    289c:	deadbeef          	jal	t4,fffdde86 <_end+0xfffdb456>
    28a0:	deadbeef          	jal	t4,fffdde8a <_end+0xfffdb45a>
    28a4:	deadbeef          	jal	t4,fffdde8e <_end+0xfffdb45e>
    28a8:	deadbeef          	jal	t4,fffdde92 <_end+0xfffdb462>
    28ac:	deadbeef          	jal	t4,fffdde96 <_end+0xfffdb466>
    28b0:	deadbeef          	jal	t4,fffdde9a <_end+0xfffdb46a>
    28b4:	deadbeef          	jal	t4,fffdde9e <_end+0xfffdb46e>
    28b8:	deadbeef          	jal	t4,fffddea2 <_end+0xfffdb472>
    28bc:	deadbeef          	jal	t4,fffddea6 <_end+0xfffdb476>
    28c0:	deadbeef          	jal	t4,fffddeaa <_end+0xfffdb47a>
    28c4:	deadbeef          	jal	t4,fffddeae <_end+0xfffdb47e>
    28c8:	deadbeef          	jal	t4,fffddeb2 <_end+0xfffdb482>
    28cc:	deadbeef          	jal	t4,fffddeb6 <_end+0xfffdb486>
    28d0:	deadbeef          	jal	t4,fffddeba <_end+0xfffdb48a>
    28d4:	deadbeef          	jal	t4,fffddebe <_end+0xfffdb48e>
    28d8:	deadbeef          	jal	t4,fffddec2 <_end+0xfffdb492>
    28dc:	deadbeef          	jal	t4,fffddec6 <_end+0xfffdb496>
    28e0:	deadbeef          	jal	t4,fffddeca <_end+0xfffdb49a>
    28e4:	deadbeef          	jal	t4,fffddece <_end+0xfffdb49e>
    28e8:	deadbeef          	jal	t4,fffdded2 <_end+0xfffdb4a2>
    28ec:	deadbeef          	jal	t4,fffdded6 <_end+0xfffdb4a6>
    28f0:	deadbeef          	jal	t4,fffddeda <_end+0xfffdb4aa>
    28f4:	deadbeef          	jal	t4,fffddede <_end+0xfffdb4ae>
    28f8:	deadbeef          	jal	t4,fffddee2 <_end+0xfffdb4b2>
    28fc:	deadbeef          	jal	t4,fffddee6 <_end+0xfffdb4b6>
    2900:	deadbeef          	jal	t4,fffddeea <_end+0xfffdb4ba>
    2904:	deadbeef          	jal	t4,fffddeee <_end+0xfffdb4be>
    2908:	deadbeef          	jal	t4,fffddef2 <_end+0xfffdb4c2>
    290c:	deadbeef          	jal	t4,fffddef6 <_end+0xfffdb4c6>
    2910:	deadbeef          	jal	t4,fffddefa <_end+0xfffdb4ca>
    2914:	deadbeef          	jal	t4,fffddefe <_end+0xfffdb4ce>
    2918:	deadbeef          	jal	t4,fffddf02 <_end+0xfffdb4d2>
    291c:	deadbeef          	jal	t4,fffddf06 <_end+0xfffdb4d6>
    2920:	deadbeef          	jal	t4,fffddf0a <_end+0xfffdb4da>
    2924:	deadbeef          	jal	t4,fffddf0e <_end+0xfffdb4de>
    2928:	deadbeef          	jal	t4,fffddf12 <_end+0xfffdb4e2>
    292c:	deadbeef          	jal	t4,fffddf16 <_end+0xfffdb4e6>
    2930:	deadbeef          	jal	t4,fffddf1a <_end+0xfffdb4ea>
    2934:	deadbeef          	jal	t4,fffddf1e <_end+0xfffdb4ee>
    2938:	deadbeef          	jal	t4,fffddf22 <_end+0xfffdb4f2>
    293c:	deadbeef          	jal	t4,fffddf26 <_end+0xfffdb4f6>
    2940:	deadbeef          	jal	t4,fffddf2a <_end+0xfffdb4fa>
    2944:	deadbeef          	jal	t4,fffddf2e <_end+0xfffdb4fe>
    2948:	deadbeef          	jal	t4,fffddf32 <_end+0xfffdb502>
    294c:	deadbeef          	jal	t4,fffddf36 <_end+0xfffdb506>
    2950:	deadbeef          	jal	t4,fffddf3a <_end+0xfffdb50a>
    2954:	deadbeef          	jal	t4,fffddf3e <_end+0xfffdb50e>
    2958:	deadbeef          	jal	t4,fffddf42 <_end+0xfffdb512>
    295c:	deadbeef          	jal	t4,fffddf46 <_end+0xfffdb516>
    2960:	deadbeef          	jal	t4,fffddf4a <_end+0xfffdb51a>
    2964:	deadbeef          	jal	t4,fffddf4e <_end+0xfffdb51e>
    2968:	deadbeef          	jal	t4,fffddf52 <_end+0xfffdb522>
    296c:	deadbeef          	jal	t4,fffddf56 <_end+0xfffdb526>
    2970:	deadbeef          	jal	t4,fffddf5a <_end+0xfffdb52a>
    2974:	deadbeef          	jal	t4,fffddf5e <_end+0xfffdb52e>
    2978:	deadbeef          	jal	t4,fffddf62 <_end+0xfffdb532>
    297c:	deadbeef          	jal	t4,fffddf66 <_end+0xfffdb536>
    2980:	deadbeef          	jal	t4,fffddf6a <_end+0xfffdb53a>
    2984:	deadbeef          	jal	t4,fffddf6e <_end+0xfffdb53e>
    2988:	deadbeef          	jal	t4,fffddf72 <_end+0xfffdb542>
    298c:	deadbeef          	jal	t4,fffddf76 <_end+0xfffdb546>
    2990:	deadbeef          	jal	t4,fffddf7a <_end+0xfffdb54a>
    2994:	deadbeef          	jal	t4,fffddf7e <_end+0xfffdb54e>
    2998:	deadbeef          	jal	t4,fffddf82 <_end+0xfffdb552>
    299c:	deadbeef          	jal	t4,fffddf86 <_end+0xfffdb556>
    29a0:	deadbeef          	jal	t4,fffddf8a <_end+0xfffdb55a>
    29a4:	deadbeef          	jal	t4,fffddf8e <_end+0xfffdb55e>
    29a8:	deadbeef          	jal	t4,fffddf92 <_end+0xfffdb562>
    29ac:	deadbeef          	jal	t4,fffddf96 <_end+0xfffdb566>
    29b0:	deadbeef          	jal	t4,fffddf9a <_end+0xfffdb56a>
    29b4:	deadbeef          	jal	t4,fffddf9e <_end+0xfffdb56e>
    29b8:	deadbeef          	jal	t4,fffddfa2 <_end+0xfffdb572>
    29bc:	deadbeef          	jal	t4,fffddfa6 <_end+0xfffdb576>
    29c0:	deadbeef          	jal	t4,fffddfaa <_end+0xfffdb57a>
    29c4:	deadbeef          	jal	t4,fffddfae <_end+0xfffdb57e>
    29c8:	deadbeef          	jal	t4,fffddfb2 <_end+0xfffdb582>
    29cc:	deadbeef          	jal	t4,fffddfb6 <_end+0xfffdb586>
    29d0:	deadbeef          	jal	t4,fffddfba <_end+0xfffdb58a>
    29d4:	deadbeef          	jal	t4,fffddfbe <_end+0xfffdb58e>
    29d8:	deadbeef          	jal	t4,fffddfc2 <_end+0xfffdb592>
    29dc:	deadbeef          	jal	t4,fffddfc6 <_end+0xfffdb596>
    29e0:	deadbeef          	jal	t4,fffddfca <_end+0xfffdb59a>
    29e4:	deadbeef          	jal	t4,fffddfce <_end+0xfffdb59e>
    29e8:	deadbeef          	jal	t4,fffddfd2 <_end+0xfffdb5a2>
    29ec:	deadbeef          	jal	t4,fffddfd6 <_end+0xfffdb5a6>
    29f0:	deadbeef          	jal	t4,fffddfda <_end+0xfffdb5aa>
    29f4:	deadbeef          	jal	t4,fffddfde <_end+0xfffdb5ae>
    29f8:	deadbeef          	jal	t4,fffddfe2 <_end+0xfffdb5b2>
    29fc:	deadbeef          	jal	t4,fffddfe6 <_end+0xfffdb5b6>
    2a00:	deadbeef          	jal	t4,fffddfea <_end+0xfffdb5ba>
    2a04:	deadbeef          	jal	t4,fffddfee <_end+0xfffdb5be>
    2a08:	deadbeef          	jal	t4,fffddff2 <_end+0xfffdb5c2>
    2a0c:	deadbeef          	jal	t4,fffddff6 <_end+0xfffdb5c6>
    2a10:	deadbeef          	jal	t4,fffddffa <_end+0xfffdb5ca>
    2a14:	deadbeef          	jal	t4,fffddffe <_end+0xfffdb5ce>
    2a18:	deadbeef          	jal	t4,fffde002 <_end+0xfffdb5d2>
    2a1c:	deadbeef          	jal	t4,fffde006 <_end+0xfffdb5d6>
    2a20:	deadbeef          	jal	t4,fffde00a <_end+0xfffdb5da>
    2a24:	deadbeef          	jal	t4,fffde00e <_end+0xfffdb5de>
    2a28:	deadbeef          	jal	t4,fffde012 <_end+0xfffdb5e2>
    2a2c:	deadbeef          	jal	t4,fffde016 <_end+0xfffdb5e6>

Desensamblado de la sección .riscv.attributes:

00000000 <.riscv.attributes>:
   0:	2241                	.2byte	0x2241
   2:	0000                	.2byte	0x0
   4:	7200                	.2byte	0x7200
   6:	7369                	.2byte	0x7369
   8:	01007663          	bgeu	zero,a6,14 <rvtest_entry_point+0x14>
   c:	0018                	.2byte	0x18
   e:	0000                	.2byte	0x0
  10:	7205                	.2byte	0x7205
  12:	3376                	.2byte	0x3376
  14:	6932                	.2byte	0x6932
  16:	7032                	.2byte	0x7032
  18:	5f30                	.2byte	0x5f30
  1a:	3266                	.2byte	0x3266
  1c:	3070                	.2byte	0x3070
  1e:	0800                	.2byte	0x800
  20:	0a01                	.2byte	0xa01
  22:	0b              	Address 0x22 is out of bounds.

