
/home/alejandro/Escritorio/test_riscv2.5/riscv-compliance/work/rv32i_m/F/fmv.w.x_b26-01.elf:     formato del fichero elf32-littleriscv


Desensamblado de la sección .text.init:

00000000 <rvtest_entry_point>:
   0:	feedc0b7          	lui	ra,0xfeedc
   4:	ead08093          	add	ra,ra,-339 # feedbead <_end+0xfeedad0d>
   8:	ff76e137          	lui	sp,0xff76e
   c:	f5610113          	add	sp,sp,-170 # ff76df56 <_end+0xff76cdb6>
  10:	7fbb71b7          	lui	gp,0x7fbb7
  14:	fab18193          	add	gp,gp,-85 # 7fbb6fab <_end+0x7fbb5e0b>
  18:	bfddb237          	lui	tp,0xbfddb
  1c:	7d520213          	add	tp,tp,2005 # bfddb7d5 <_end+0xbfdda635>
  20:	00000297          	auipc	t0,0x0
  24:	0d828293          	add	t0,t0,216 # f8 <rvtest_code_begin>
  28:	00001317          	auipc	t1,0x1
  2c:	fd830313          	add	t1,t1,-40 # 1000 <rvtest_data_begin>
  30:	b7fbb3b7          	lui	t2,0xb7fbb
  34:	6fa38393          	add	t2,t2,1786 # b7fbb6fa <_end+0xb7fba55a>
  38:	5bfde437          	lui	s0,0x5bfde
  3c:	b7d40413          	add	s0,s0,-1155 # 5bfddb7d <_end+0x5bfdc9dd>
  40:	adfef4b7          	lui	s1,0xadfef
  44:	dbe48493          	add	s1,s1,-578 # adfeedbe <_end+0xadfedc1e>
  48:	56ff7537          	lui	a0,0x56ff7
  4c:	6df50513          	add	a0,a0,1759 # 56ff76df <_end+0x56ff653f>
  50:	ab7fc5b7          	lui	a1,0xab7fc
  54:	b6f58593          	add	a1,a1,-1169 # ab7fbb6f <_end+0xab7fa9cf>
  58:	d5bfe637          	lui	a2,0xd5bfe
  5c:	db760613          	add	a2,a2,-585 # d5bfddb7 <_end+0xd5bfcc17>
  60:	eadff6b7          	lui	a3,0xeadff
  64:	edb68693          	add	a3,a3,-293 # eadfeedb <_end+0xeadfdd3b>
  68:	f56ff737          	lui	a4,0xf56ff
  6c:	76d70713          	add	a4,a4,1901 # f56ff76d <_end+0xf56fe5cd>
  70:	fab807b7          	lui	a5,0xfab80
  74:	bb678793          	add	a5,a5,-1098 # fab7fbb6 <_end+0xfab7ea16>
  78:	7d5c0837          	lui	a6,0x7d5c0
  7c:	ddb80813          	add	a6,a6,-549 # 7d5bfddb <_end+0x7d5bec3b>
  80:	beae08b7          	lui	a7,0xbeae0
  84:	eed88893          	add	a7,a7,-275 # beadfeed <_end+0xbeaded4d>
  88:	df570937          	lui	s2,0xdf570
  8c:	f7690913          	add	s2,s2,-138 # df56ff76 <_end+0xdf56edd6>
  90:	6fab89b7          	lui	s3,0x6fab8
  94:	fbb98993          	add	s3,s3,-69 # 6fab7fbb <_end+0x6fab6e1b>
  98:	b7d5ca37          	lui	s4,0xb7d5c
  9c:	fdda0a13          	add	s4,s4,-35 # b7d5bfdd <_end+0xb7d5ae3d>
  a0:	dbeaeab7          	lui	s5,0xdbeae
  a4:	feea8a93          	add	s5,s5,-18 # dbeadfee <_end+0xdbeace4e>
  a8:	6df57b37          	lui	s6,0x6df57
  ac:	ff7b0b13          	add	s6,s6,-9 # 6df56ff7 <_end+0x6df55e57>
  b0:	b6fabbb7          	lui	s7,0xb6fab
  b4:	7fbb8b93          	add	s7,s7,2043 # b6fab7fb <_end+0xb6faa65b>
  b8:	db7d6c37          	lui	s8,0xdb7d6
  bc:	bfdc0c13          	add	s8,s8,-1027 # db7d5bfd <_end+0xdb7d4a5d>
  c0:	edbebcb7          	lui	s9,0xedbeb
  c4:	dfec8c93          	add	s9,s9,-514 # edbeadfe <_end+0xedbe9c5e>
  c8:	76df5d37          	lui	s10,0x76df5
  cc:	6ffd0d13          	add	s10,s10,1791 # 76df56ff <_end+0x76df455f>
  d0:	bb6fbdb7          	lui	s11,0xbb6fb
  d4:	b7fd8d93          	add	s11,s11,-1153 # bb6fab7f <_end+0xbb6f99df>
  d8:	ddb7de37          	lui	t3,0xddb7d
  dc:	5bfe0e13          	add	t3,t3,1471 # ddb7d5bf <_end+0xddb7c41f>
  e0:	eedbfeb7          	lui	t4,0xeedbf
  e4:	adfe8e93          	add	t4,t4,-1313 # eedbeadf <_end+0xeedbd93f>
  e8:	f76dff37          	lui	t5,0xf76df
  ec:	56ff0f13          	add	t5,t5,1391 # f76df56f <_end+0xf76de3cf>
  f0:	fbb70fb7          	lui	t6,0xfbb70
  f4:	ab7f8f93          	add	t6,t6,-1353 # fbb6fab7 <_end+0xfbb6e917>

000000f8 <rvtest_code_begin>:
  f8:	00002537          	lui	a0,0x2
  fc:	30052073          	csrs	mstatus,a0
 100:	00001817          	auipc	a6,0x1
 104:	f0480813          	add	a6,a6,-252 # 1004 <test_fp>
 108:	00001797          	auipc	a5,0x1
 10c:	f8878793          	add	a5,a5,-120 # 1090 <data_begin>

00000110 <inst_0>:
 110:	00082003          	lw	zero,0(a6)
 114:	00205073          	fsrmi	zero,0
 118:	f0000953          	fmv.w.x	fs2,zero
 11c:	001028f3          	frflags	a7
 120:	0127a027          	fsw	fs2,0(a5)
 124:	0117a223          	sw	a7,4(a5)

00000128 <inst_1>:
 128:	00482f03          	lw	t5,4(a6)
 12c:	00205073          	fsrmi	zero,0
 130:	f00f0053          	fmv.w.x	ft0,t5
 134:	001028f3          	frflags	a7
 138:	0007a427          	fsw	ft0,8(a5)
 13c:	0117a623          	sw	a7,12(a5)

00000140 <inst_2>:
 140:	00882383          	lw	t2,8(a6)
 144:	00205073          	fsrmi	zero,0
 148:	f00380d3          	fmv.w.x	ft1,t2
 14c:	001028f3          	frflags	a7
 150:	0017a827          	fsw	ft1,16(a5)
 154:	0117aa23          	sw	a7,20(a5)

00000158 <inst_3>:
 158:	00c82683          	lw	a3,12(a6)
 15c:	00205073          	fsrmi	zero,0
 160:	f00687d3          	fmv.w.x	fa5,a3
 164:	001028f3          	frflags	a7
 168:	00f7ac27          	fsw	fa5,24(a5)
 16c:	0117ae23          	sw	a7,28(a5)

00000170 <inst_4>:
 170:	01082e83          	lw	t4,16(a6)
 174:	00205073          	fsrmi	zero,0
 178:	f00e82d3          	fmv.w.x	ft5,t4
 17c:	001028f3          	frflags	a7
 180:	0257a027          	fsw	ft5,32(a5)
 184:	0317a223          	sw	a7,36(a5)

00000188 <inst_5>:
 188:	01482203          	lw	tp,20(a6)
 18c:	00205073          	fsrmi	zero,0
 190:	f0020a53          	fmv.w.x	fs4,tp
 194:	001028f3          	frflags	a7
 198:	0347a427          	fsw	fs4,40(a5)
 19c:	0317a623          	sw	a7,44(a5)
 1a0:	00080a33          	add	s4,a6,zero
 1a4:	00001997          	auipc	s3,0x1
 1a8:	f1c98993          	add	s3,s3,-228 # 10c0 <signature_x19_0>

000001ac <inst_6>:
 1ac:	018a2803          	lw	a6,24(s4)
 1b0:	00205073          	fsrmi	zero,0
 1b4:	f0080e53          	fmv.w.x	ft8,a6
 1b8:	00102af3          	frflags	s5
 1bc:	01c9a027          	fsw	ft8,0(s3)
 1c0:	0159a223          	sw	s5,4(s3)
 1c4:	000a0833          	add	a6,s4,zero
 1c8:	00001797          	auipc	a5,0x1
 1cc:	f0078793          	add	a5,a5,-256 # 10c8 <signature_x15_2>

000001d0 <inst_7>:
 1d0:	01c82a03          	lw	s4,28(a6)
 1d4:	00205073          	fsrmi	zero,0
 1d8:	f00a0853          	fmv.w.x	fa6,s4
 1dc:	001028f3          	frflags	a7
 1e0:	0107a027          	fsw	fa6,0(a5)
 1e4:	0117a223          	sw	a7,4(a5)

000001e8 <inst_8>:
 1e8:	02082c83          	lw	s9,32(a6)
 1ec:	00205073          	fsrmi	zero,0
 1f0:	f00c85d3          	fmv.w.x	fa1,s9
 1f4:	001028f3          	frflags	a7
 1f8:	00b7a427          	fsw	fa1,8(a5)
 1fc:	0117a623          	sw	a7,12(a5)

00000200 <inst_9>:
 200:	02482603          	lw	a2,36(a6)
 204:	00205073          	fsrmi	zero,0
 208:	f00604d3          	fmv.w.x	fs1,a2
 20c:	001028f3          	frflags	a7
 210:	0097a827          	fsw	fs1,16(a5)
 214:	0117aa23          	sw	a7,20(a5)

00000218 <inst_10>:
 218:	02882b83          	lw	s7,40(a6)
 21c:	00205073          	fsrmi	zero,0
 220:	f00b8653          	fmv.w.x	fa2,s7
 224:	001028f3          	frflags	a7
 228:	00c7ac27          	fsw	fa2,24(a5)
 22c:	0117ae23          	sw	a7,28(a5)

00000230 <inst_11>:
 230:	02c82583          	lw	a1,44(a6)
 234:	00205073          	fsrmi	zero,0
 238:	f00588d3          	fmv.w.x	fa7,a1
 23c:	001028f3          	frflags	a7
 240:	0317a027          	fsw	fa7,32(a5)
 244:	0317a223          	sw	a7,36(a5)

00000248 <inst_12>:
 248:	03082703          	lw	a4,48(a6)
 24c:	00205073          	fsrmi	zero,0
 250:	f0070f53          	fmv.w.x	ft10,a4
 254:	001028f3          	frflags	a7
 258:	03e7a427          	fsw	ft10,40(a5)
 25c:	0317a623          	sw	a7,44(a5)

00000260 <inst_13>:
 260:	03482d83          	lw	s11,52(a6)
 264:	00205073          	fsrmi	zero,0
 268:	f00d8ad3          	fmv.w.x	fs5,s11
 26c:	001028f3          	frflags	a7
 270:	0357a827          	fsw	fs5,48(a5)
 274:	0317aa23          	sw	a7,52(a5)

00000278 <inst_14>:
 278:	03882983          	lw	s3,56(a6)
 27c:	00205073          	fsrmi	zero,0
 280:	f0098fd3          	fmv.w.x	ft11,s3
 284:	001028f3          	frflags	a7
 288:	03f7ac27          	fsw	ft11,56(a5)
 28c:	0317ae23          	sw	a7,60(a5)

00000290 <inst_15>:
 290:	03c82103          	lw	sp,60(a6)
 294:	00205073          	fsrmi	zero,0
 298:	f00103d3          	fmv.w.x	ft7,sp
 29c:	001028f3          	frflags	a7
 2a0:	0477a027          	fsw	ft7,64(a5)
 2a4:	0517a223          	sw	a7,68(a5)

000002a8 <inst_16>:
 2a8:	04082d03          	lw	s10,64(a6)
 2ac:	00205073          	fsrmi	zero,0
 2b0:	f00d0b53          	fmv.w.x	fs6,s10
 2b4:	001028f3          	frflags	a7
 2b8:	0567a427          	fsw	fs6,72(a5)
 2bc:	0517a623          	sw	a7,76(a5)

000002c0 <inst_17>:
 2c0:	04482e03          	lw	t3,68(a6)
 2c4:	00205073          	fsrmi	zero,0
 2c8:	f00e0153          	fmv.w.x	ft2,t3
 2cc:	001028f3          	frflags	a7
 2d0:	0427a827          	fsw	ft2,80(a5)
 2d4:	0517aa23          	sw	a7,84(a5)

000002d8 <inst_18>:
 2d8:	04882a83          	lw	s5,72(a6)
 2dc:	00205073          	fsrmi	zero,0
 2e0:	f00a8453          	fmv.w.x	fs0,s5
 2e4:	001028f3          	frflags	a7
 2e8:	0487ac27          	fsw	fs0,88(a5)
 2ec:	0517ae23          	sw	a7,92(a5)

000002f0 <inst_19>:
 2f0:	04c82483          	lw	s1,76(a6)
 2f4:	00205073          	fsrmi	zero,0
 2f8:	f0048d53          	fmv.w.x	fs10,s1
 2fc:	001028f3          	frflags	a7
 300:	07a7a027          	fsw	fs10,96(a5)
 304:	0717a223          	sw	a7,100(a5)

00000308 <inst_20>:
 308:	05082903          	lw	s2,80(a6)
 30c:	00205073          	fsrmi	zero,0
 310:	f0090dd3          	fmv.w.x	fs11,s2
 314:	001028f3          	frflags	a7
 318:	07b7a427          	fsw	fs11,104(a5)
 31c:	0717a623          	sw	a7,108(a5)

00000320 <inst_21>:
 320:	05482183          	lw	gp,84(a6)
 324:	00205073          	fsrmi	zero,0
 328:	f0018253          	fmv.w.x	ft4,gp
 32c:	001028f3          	frflags	a7
 330:	0647a827          	fsw	ft4,112(a5)
 334:	0717aa23          	sw	a7,116(a5)

00000338 <inst_22>:
 338:	05882303          	lw	t1,88(a6)
 33c:	00205073          	fsrmi	zero,0
 340:	f00301d3          	fmv.w.x	ft3,t1
 344:	001028f3          	frflags	a7
 348:	0637ac27          	fsw	ft3,120(a5)
 34c:	0717ae23          	sw	a7,124(a5)

00000350 <inst_23>:
 350:	05c82403          	lw	s0,92(a6)
 354:	00205073          	fsrmi	zero,0
 358:	f0040bd3          	fmv.w.x	fs7,s0
 35c:	001028f3          	frflags	a7
 360:	0977a027          	fsw	fs7,128(a5)
 364:	0917a223          	sw	a7,132(a5)
 368:	00080a33          	add	s4,a6,zero
 36c:	00001997          	auipc	s3,0x1
 370:	de498993          	add	s3,s3,-540 # 1150 <signature_x19_1>

00000374 <inst_24>:
 374:	060a2783          	lw	a5,96(s4)
 378:	00205073          	fsrmi	zero,0
 37c:	f0078ed3          	fmv.w.x	ft9,a5
 380:	00102af3          	frflags	s5
 384:	01d9a027          	fsw	ft9,0(s3)
 388:	0159a223          	sw	s5,4(s3)

0000038c <inst_25>:
 38c:	064a2883          	lw	a7,100(s4)
 390:	00205073          	fsrmi	zero,0
 394:	f0088353          	fmv.w.x	ft6,a7
 398:	00102af3          	frflags	s5
 39c:	0069a427          	fsw	ft6,8(s3)
 3a0:	0159a623          	sw	s5,12(s3)
 3a4:	000a0833          	add	a6,s4,zero
 3a8:	00001797          	auipc	a5,0x1
 3ac:	db878793          	add	a5,a5,-584 # 1160 <signature_x15_3>

000003b0 <inst_26>:
 3b0:	06882503          	lw	a0,104(a6)
 3b4:	00205073          	fsrmi	zero,0
 3b8:	f0050553          	fmv.w.x	fa0,a0
 3bc:	001028f3          	frflags	a7
 3c0:	00a7a027          	fsw	fa0,0(a5)
 3c4:	0117a223          	sw	a7,4(a5)

000003c8 <inst_27>:
 3c8:	06c82b03          	lw	s6,108(a6)
 3cc:	00205073          	fsrmi	zero,0
 3d0:	f00b06d3          	fmv.w.x	fa3,s6
 3d4:	001028f3          	frflags	a7
 3d8:	00d7a427          	fsw	fa3,8(a5)
 3dc:	0117a623          	sw	a7,12(a5)

000003e0 <inst_28>:
 3e0:	07082283          	lw	t0,112(a6)
 3e4:	00205073          	fsrmi	zero,0
 3e8:	f00289d3          	fmv.w.x	fs3,t0
 3ec:	001028f3          	frflags	a7
 3f0:	0137a827          	fsw	fs3,16(a5)
 3f4:	0117aa23          	sw	a7,20(a5)

000003f8 <inst_29>:
 3f8:	07482f83          	lw	t6,116(a6)
 3fc:	00205073          	fsrmi	zero,0
 400:	f00f8753          	fmv.w.x	fa4,t6
 404:	001028f3          	frflags	a7
 408:	00e7ac27          	fsw	fa4,24(a5)
 40c:	0117ae23          	sw	a7,28(a5)

00000410 <inst_30>:
 410:	07882083          	lw	ra,120(a6)
 414:	00205073          	fsrmi	zero,0
 418:	f0008c53          	fmv.w.x	fs8,ra
 41c:	001028f3          	frflags	a7
 420:	0387a027          	fsw	fs8,32(a5)
 424:	0317a223          	sw	a7,36(a5)

00000428 <inst_31>:
 428:	07c82c03          	lw	s8,124(a6)
 42c:	00205073          	fsrmi	zero,0
 430:	f00c0cd3          	fmv.w.x	fs9,s8
 434:	001028f3          	frflags	a7
 438:	0397a427          	fsw	fs9,40(a5)
 43c:	0317a623          	sw	a7,44(a5)

00000440 <inst_32>:
 440:	08082503          	lw	a0,128(a6)
 444:	00205073          	fsrmi	zero,0
 448:	f00505d3          	fmv.w.x	fa1,a0
 44c:	001028f3          	frflags	a7
 450:	02b7a827          	fsw	fa1,48(a5)
 454:	0317aa23          	sw	a7,52(a5)
 458:	00000013          	nop
 45c:	00000013          	nop

00000460 <rvtest_code_end>:
 460:	00001517          	auipc	a0,0x1
 464:	c3050513          	add	a0,a0,-976 # 1090 <data_begin>
 468:	00001597          	auipc	a1,0x1
 46c:	d3858593          	add	a1,a1,-712 # 11a0 <_end>
 470:	80001637          	lui	a2,0x80001
 474:	00860613          	add	a2,a2,8 # 80001008 <_end+0x7ffffe68>

00000478 <compliance_halt_loop>:
 478:	06b50063          	beq	a0,a1,4d8 <compliance_halt_break>
 47c:	00450693          	add	a3,a0,4

00000480 <compliance_halt_loop2>:
 480:	fff68693          	add	a3,a3,-1
 484:	00068703          	lb	a4,0(a3)
 488:	40475793          	sra	a5,a4,0x4
 48c:	00f7f793          	and	a5,a5,15
 490:	00a00813          	li	a6,10
 494:	0107c463          	blt	a5,a6,49c <notLetter>
 498:	02778793          	add	a5,a5,39

0000049c <notLetter>:
 49c:	03078793          	add	a5,a5,48
 4a0:	00f60023          	sb	a5,0(a2)
 4a4:	40075793          	sra	a5,a4,0x0
 4a8:	00f7f793          	and	a5,a5,15
 4ac:	00a00813          	li	a6,10
 4b0:	0107c463          	blt	a5,a6,4b8 <notLetter2>
 4b4:	02778793          	add	a5,a5,39

000004b8 <notLetter2>:
 4b8:	03078793          	add	a5,a5,48
 4bc:	00f60023          	sb	a5,0(a2)
 4c0:	fcd510e3          	bne	a0,a3,480 <compliance_halt_loop2>
 4c4:	00450513          	add	a0,a0,4
 4c8:	00a00713          	li	a4,10
 4cc:	00e60023          	sb	a4,0(a2)
 4d0:	fa9ff06f          	j	478 <compliance_halt_loop>
 4d4:	0040006f          	j	4d8 <compliance_halt_break>

000004d8 <compliance_halt_break>:
 4d8:	80001537          	lui	a0,0x80001
 4dc:	00950513          	add	a0,a0,9 # 80001009 <_end+0x7ffffe69>
 4e0:	00d50023          	sb	a3,0(a0)
	...

Desensamblado de la sección .data:

00001000 <rvtest_data_begin>:
    1000:	cafe                	.2byte	0xcafe
    1002:	babe                	.2byte	0xbabe

00001004 <test_fp>:
    1004:	0000                	.2byte	0x0
    1006:	0000                	.2byte	0x0
    1008:	0361                	.2byte	0x361
    100a:	5ea4                	.2byte	0x5ea4
    100c:	50b2                	.2byte	0x50b2
    100e:	3d3e                	.2byte	0x3d3e
    1010:	5b61                	.2byte	0x5b61
    1012:	1441                	.2byte	0x1441
    1014:	2875                	.2byte	0x2875
    1016:	0dcd                	.2byte	0xdcd
    1018:	c25f 066c dcd8      	.byte	0x5f, 0xc2, 0x6c, 0x06, 0xd8, 0xdc
    101e:	02b2                	.2byte	0x2b2
    1020:	e5c5                	.2byte	0xe5c5
    1022:	01e9                	.2byte	0x1e9
    1024:	2779                	.2byte	0x2779
    1026:	4d9a00c3          	.4byte	0x4d9a00c3
    102a:	0064                	.2byte	0x64
    102c:	f5fd                	.2byte	0xf5fd
    102e:	003a                	.2byte	0x3a
    1030:	361d                	.2byte	0x361d
    1032:	001c                	.2byte	0x1c
    1034:	ae6a                	.2byte	0xae6a
    1036:	000d                	.2byte	0xd
    1038:	1c09                	.2byte	0x1c09
    103a:	0005                	.2byte	0x5
    103c:	ae7c                	.2byte	0xae7c
    103e:	16d00003          	lb	zero,365(zero) # 16d <inst_3+0x15>
    1042:	0001                	.2byte	0x1
    1044:	dc74                	.2byte	0xdc74
    1046:	0000                	.2byte	0x0
    1048:	00005fff 000024de 	.byte	0xff, 0x5f, 0x00, 0x00, 0xde, 0x24, 0x00, 0x00, 0x7d, 0x1a, 0x00, 0x00, 0xd7, 0x0f, 0x00, 0x00, 0x46, 0x04, 0x00, 0x00
    1050:	00001a7d 00000fd7 
    1058:	00000446 
    105c:	02a4                	.2byte	0x2a4
    105e:	0000                	.2byte	0x0
    1060:	018e                	.2byte	0x18e
    1062:	0000                	.2byte	0x0
    1064:	00fd                	.2byte	0xfd
    1066:	0000                	.2byte	0x0
    1068:	0000007b          	.4byte	0x7b
    106c:	002d                	.2byte	0x2d
    106e:	0000                	.2byte	0x0
    1070:	0010                	.2byte	0x10
    1072:	0000                	.2byte	0x0
    1074:	0000000f          	fence	unknown,unknown
    1078:	00000007          	.4byte	0x7
    107c:	0002                	.2byte	0x2
    107e:	0000                	.2byte	0x0
    1080:	0001                	.2byte	0x1
    1082:	0000                	.2byte	0x0
    1084:	0000                	.2byte	0x0
	...

00001088 <rvtest_data_end>:
	...

00001090 <data_begin>:
    1090:	deadbeef          	jal	t4,fffdc67a <_end+0xfffdb4da>
    1094:	deadbeef          	jal	t4,fffdc67e <_end+0xfffdb4de>
    1098:	deadbeef          	jal	t4,fffdc682 <_end+0xfffdb4e2>
    109c:	deadbeef          	jal	t4,fffdc686 <_end+0xfffdb4e6>
    10a0:	deadbeef          	jal	t4,fffdc68a <_end+0xfffdb4ea>
    10a4:	deadbeef          	jal	t4,fffdc68e <_end+0xfffdb4ee>
    10a8:	deadbeef          	jal	t4,fffdc692 <_end+0xfffdb4f2>
    10ac:	deadbeef          	jal	t4,fffdc696 <_end+0xfffdb4f6>
    10b0:	deadbeef          	jal	t4,fffdc69a <_end+0xfffdb4fa>
    10b4:	deadbeef          	jal	t4,fffdc69e <_end+0xfffdb4fe>
    10b8:	deadbeef          	jal	t4,fffdc6a2 <_end+0xfffdb502>
    10bc:	deadbeef          	jal	t4,fffdc6a6 <_end+0xfffdb506>

000010c0 <signature_x19_0>:
    10c0:	deadbeef          	jal	t4,fffdc6aa <_end+0xfffdb50a>
    10c4:	deadbeef          	jal	t4,fffdc6ae <_end+0xfffdb50e>

000010c8 <signature_x15_2>:
    10c8:	deadbeef          	jal	t4,fffdc6b2 <_end+0xfffdb512>
    10cc:	deadbeef          	jal	t4,fffdc6b6 <_end+0xfffdb516>
    10d0:	deadbeef          	jal	t4,fffdc6ba <_end+0xfffdb51a>
    10d4:	deadbeef          	jal	t4,fffdc6be <_end+0xfffdb51e>
    10d8:	deadbeef          	jal	t4,fffdc6c2 <_end+0xfffdb522>
    10dc:	deadbeef          	jal	t4,fffdc6c6 <_end+0xfffdb526>
    10e0:	deadbeef          	jal	t4,fffdc6ca <_end+0xfffdb52a>
    10e4:	deadbeef          	jal	t4,fffdc6ce <_end+0xfffdb52e>
    10e8:	deadbeef          	jal	t4,fffdc6d2 <_end+0xfffdb532>
    10ec:	deadbeef          	jal	t4,fffdc6d6 <_end+0xfffdb536>
    10f0:	deadbeef          	jal	t4,fffdc6da <_end+0xfffdb53a>
    10f4:	deadbeef          	jal	t4,fffdc6de <_end+0xfffdb53e>
    10f8:	deadbeef          	jal	t4,fffdc6e2 <_end+0xfffdb542>
    10fc:	deadbeef          	jal	t4,fffdc6e6 <_end+0xfffdb546>
    1100:	deadbeef          	jal	t4,fffdc6ea <_end+0xfffdb54a>
    1104:	deadbeef          	jal	t4,fffdc6ee <_end+0xfffdb54e>
    1108:	deadbeef          	jal	t4,fffdc6f2 <_end+0xfffdb552>
    110c:	deadbeef          	jal	t4,fffdc6f6 <_end+0xfffdb556>
    1110:	deadbeef          	jal	t4,fffdc6fa <_end+0xfffdb55a>
    1114:	deadbeef          	jal	t4,fffdc6fe <_end+0xfffdb55e>
    1118:	deadbeef          	jal	t4,fffdc702 <_end+0xfffdb562>
    111c:	deadbeef          	jal	t4,fffdc706 <_end+0xfffdb566>
    1120:	deadbeef          	jal	t4,fffdc70a <_end+0xfffdb56a>
    1124:	deadbeef          	jal	t4,fffdc70e <_end+0xfffdb56e>
    1128:	deadbeef          	jal	t4,fffdc712 <_end+0xfffdb572>
    112c:	deadbeef          	jal	t4,fffdc716 <_end+0xfffdb576>
    1130:	deadbeef          	jal	t4,fffdc71a <_end+0xfffdb57a>
    1134:	deadbeef          	jal	t4,fffdc71e <_end+0xfffdb57e>
    1138:	deadbeef          	jal	t4,fffdc722 <_end+0xfffdb582>
    113c:	deadbeef          	jal	t4,fffdc726 <_end+0xfffdb586>
    1140:	deadbeef          	jal	t4,fffdc72a <_end+0xfffdb58a>
    1144:	deadbeef          	jal	t4,fffdc72e <_end+0xfffdb58e>
    1148:	deadbeef          	jal	t4,fffdc732 <_end+0xfffdb592>
    114c:	deadbeef          	jal	t4,fffdc736 <_end+0xfffdb596>

00001150 <signature_x19_1>:
    1150:	deadbeef          	jal	t4,fffdc73a <_end+0xfffdb59a>
    1154:	deadbeef          	jal	t4,fffdc73e <_end+0xfffdb59e>
    1158:	deadbeef          	jal	t4,fffdc742 <_end+0xfffdb5a2>
    115c:	deadbeef          	jal	t4,fffdc746 <_end+0xfffdb5a6>

00001160 <signature_x15_3>:
    1160:	deadbeef          	jal	t4,fffdc74a <_end+0xfffdb5aa>
    1164:	deadbeef          	jal	t4,fffdc74e <_end+0xfffdb5ae>
    1168:	deadbeef          	jal	t4,fffdc752 <_end+0xfffdb5b2>
    116c:	deadbeef          	jal	t4,fffdc756 <_end+0xfffdb5b6>
    1170:	deadbeef          	jal	t4,fffdc75a <_end+0xfffdb5ba>
    1174:	deadbeef          	jal	t4,fffdc75e <_end+0xfffdb5be>
    1178:	deadbeef          	jal	t4,fffdc762 <_end+0xfffdb5c2>
    117c:	deadbeef          	jal	t4,fffdc766 <_end+0xfffdb5c6>
    1180:	deadbeef          	jal	t4,fffdc76a <_end+0xfffdb5ca>
    1184:	deadbeef          	jal	t4,fffdc76e <_end+0xfffdb5ce>
    1188:	deadbeef          	jal	t4,fffdc772 <_end+0xfffdb5d2>
    118c:	deadbeef          	jal	t4,fffdc776 <_end+0xfffdb5d6>
    1190:	deadbeef          	jal	t4,fffdc77a <_end+0xfffdb5da>
    1194:	deadbeef          	jal	t4,fffdc77e <_end+0xfffdb5de>
	...

Desensamblado de la sección .riscv.attributes:

00000000 <.riscv.attributes>:
   0:	2241                	.2byte	0x2241
   2:	0000                	.2byte	0x0
   4:	7200                	.2byte	0x7200
   6:	7369                	.2byte	0x7369
   8:	01007663          	bgeu	zero,a6,14 <rvtest_entry_point+0x14>
   c:	0018                	.2byte	0x18
   e:	0000                	.2byte	0x0
  10:	7205                	.2byte	0x7205
  12:	3376                	.2byte	0x3376
  14:	6932                	.2byte	0x6932
  16:	7032                	.2byte	0x7032
  18:	5f30                	.2byte	0x5f30
  1a:	3266                	.2byte	0x3266
  1c:	3070                	.2byte	0x3070
  1e:	0800                	.2byte	0x800
  20:	0a01                	.2byte	0xa01
  22:	0b              	Address 0x22 is out of bounds.

