
/home/alejandro/Escritorio/test_riscv2.5/riscv-compliance/work/rv32i_m/F/fmv.x.w_b22-01.elf:     formato del fichero elf32-littleriscv


Desensamblado de la sección .text.init:

00000000 <rvtest_entry_point>:
   0:	feedc0b7          	lui	ra,0xfeedc
   4:	ead08093          	add	ra,ra,-339 # feedbead <_end+0xfeedad1d>
   8:	ff76e137          	lui	sp,0xff76e
   c:	f5610113          	add	sp,sp,-170 # ff76df56 <_end+0xff76cdc6>
  10:	7fbb71b7          	lui	gp,0x7fbb7
  14:	fab18193          	add	gp,gp,-85 # 7fbb6fab <_end+0x7fbb5e1b>
  18:	bfddb237          	lui	tp,0xbfddb
  1c:	7d520213          	add	tp,tp,2005 # bfddb7d5 <_end+0xbfdda645>
  20:	00000297          	auipc	t0,0x0
  24:	0d828293          	add	t0,t0,216 # f8 <rvtest_code_begin>
  28:	00001317          	auipc	t1,0x1
  2c:	fd830313          	add	t1,t1,-40 # 1000 <rvtest_data_begin>
  30:	b7fbb3b7          	lui	t2,0xb7fbb
  34:	6fa38393          	add	t2,t2,1786 # b7fbb6fa <_end+0xb7fba56a>
  38:	5bfde437          	lui	s0,0x5bfde
  3c:	b7d40413          	add	s0,s0,-1155 # 5bfddb7d <_end+0x5bfdc9ed>
  40:	adfef4b7          	lui	s1,0xadfef
  44:	dbe48493          	add	s1,s1,-578 # adfeedbe <_end+0xadfedc2e>
  48:	56ff7537          	lui	a0,0x56ff7
  4c:	6df50513          	add	a0,a0,1759 # 56ff76df <_end+0x56ff654f>
  50:	ab7fc5b7          	lui	a1,0xab7fc
  54:	b6f58593          	add	a1,a1,-1169 # ab7fbb6f <_end+0xab7fa9df>
  58:	d5bfe637          	lui	a2,0xd5bfe
  5c:	db760613          	add	a2,a2,-585 # d5bfddb7 <_end+0xd5bfcc27>
  60:	eadff6b7          	lui	a3,0xeadff
  64:	edb68693          	add	a3,a3,-293 # eadfeedb <_end+0xeadfdd4b>
  68:	f56ff737          	lui	a4,0xf56ff
  6c:	76d70713          	add	a4,a4,1901 # f56ff76d <_end+0xf56fe5dd>
  70:	fab807b7          	lui	a5,0xfab80
  74:	bb678793          	add	a5,a5,-1098 # fab7fbb6 <_end+0xfab7ea26>
  78:	7d5c0837          	lui	a6,0x7d5c0
  7c:	ddb80813          	add	a6,a6,-549 # 7d5bfddb <_end+0x7d5bec4b>
  80:	beae08b7          	lui	a7,0xbeae0
  84:	eed88893          	add	a7,a7,-275 # beadfeed <_end+0xbeaded5d>
  88:	df570937          	lui	s2,0xdf570
  8c:	f7690913          	add	s2,s2,-138 # df56ff76 <_end+0xdf56ede6>
  90:	6fab89b7          	lui	s3,0x6fab8
  94:	fbb98993          	add	s3,s3,-69 # 6fab7fbb <_end+0x6fab6e2b>
  98:	b7d5ca37          	lui	s4,0xb7d5c
  9c:	fdda0a13          	add	s4,s4,-35 # b7d5bfdd <_end+0xb7d5ae4d>
  a0:	dbeaeab7          	lui	s5,0xdbeae
  a4:	feea8a93          	add	s5,s5,-18 # dbeadfee <_end+0xdbeace5e>
  a8:	6df57b37          	lui	s6,0x6df57
  ac:	ff7b0b13          	add	s6,s6,-9 # 6df56ff7 <_end+0x6df55e67>
  b0:	b6fabbb7          	lui	s7,0xb6fab
  b4:	7fbb8b93          	add	s7,s7,2043 # b6fab7fb <_end+0xb6faa66b>
  b8:	db7d6c37          	lui	s8,0xdb7d6
  bc:	bfdc0c13          	add	s8,s8,-1027 # db7d5bfd <_end+0xdb7d4a6d>
  c0:	edbebcb7          	lui	s9,0xedbeb
  c4:	dfec8c93          	add	s9,s9,-514 # edbeadfe <_end+0xedbe9c6e>
  c8:	76df5d37          	lui	s10,0x76df5
  cc:	6ffd0d13          	add	s10,s10,1791 # 76df56ff <_end+0x76df456f>
  d0:	bb6fbdb7          	lui	s11,0xbb6fb
  d4:	b7fd8d93          	add	s11,s11,-1153 # bb6fab7f <_end+0xbb6f99ef>
  d8:	ddb7de37          	lui	t3,0xddb7d
  dc:	5bfe0e13          	add	t3,t3,1471 # ddb7d5bf <_end+0xddb7c42f>
  e0:	eedbfeb7          	lui	t4,0xeedbf
  e4:	adfe8e93          	add	t4,t4,-1313 # eedbeadf <_end+0xeedbd94f>
  e8:	f76dff37          	lui	t5,0xf76df
  ec:	56ff0f13          	add	t5,t5,1391 # f76df56f <_end+0xf76de3df>
  f0:	fbb70fb7          	lui	t6,0xfbb70
  f4:	ab7f8f93          	add	t6,t6,-1353 # fbb6fab7 <_end+0xfbb6e927>

000000f8 <rvtest_code_begin>:
  f8:	00002537          	lui	a0,0x2
  fc:	30052073          	csrs	mstatus,a0
 100:	00001817          	auipc	a6,0x1
 104:	f0480813          	add	a6,a6,-252 # 1004 <test_fp>
 108:	00001797          	auipc	a5,0x1
 10c:	f8878793          	add	a5,a5,-120 # 1090 <data_begin>

00000110 <inst_0>:
 110:	00082187          	flw	ft3,0(a6)
 114:	00205073          	fsrmi	zero,0
 118:	e00184d3          	fmv.x.w	s1,ft3
 11c:	001028f3          	frflags	a7
 120:	0097a023          	sw	s1,0(a5)
 124:	0117a223          	sw	a7,4(a5)

00000128 <inst_1>:
 128:	00482407          	flw	fs0,4(a6)
 12c:	00205073          	fsrmi	zero,0
 130:	e0040e53          	fmv.x.w	t3,fs0
 134:	001028f3          	frflags	a7
 138:	01c7a423          	sw	t3,8(a5)
 13c:	0117a623          	sw	a7,12(a5)

00000140 <inst_2>:
 140:	00882307          	flw	ft6,8(a6)
 144:	00205073          	fsrmi	zero,0
 148:	e0030ad3          	fmv.x.w	s5,ft6
 14c:	001028f3          	frflags	a7
 150:	0157a823          	sw	s5,16(a5)
 154:	0117aa23          	sw	a7,20(a5)

00000158 <inst_3>:
 158:	00c82c07          	flw	fs8,12(a6)
 15c:	00205073          	fsrmi	zero,0
 160:	e00c0653          	fmv.x.w	a2,fs8
 164:	001028f3          	frflags	a7
 168:	00c7ac23          	sw	a2,24(a5)
 16c:	0117ae23          	sw	a7,28(a5)

00000170 <inst_4>:
 170:	01082787          	flw	fa5,16(a6)
 174:	00205073          	fsrmi	zero,0
 178:	e0078453          	fmv.x.w	s0,fa5
 17c:	001028f3          	frflags	a7
 180:	0287a023          	sw	s0,32(a5)
 184:	0317a223          	sw	a7,36(a5)

00000188 <inst_5>:
 188:	01482a07          	flw	fs4,20(a6)
 18c:	00205073          	fsrmi	zero,0
 190:	e00a0753          	fmv.x.w	a4,fs4
 194:	001028f3          	frflags	a7
 198:	02e7a423          	sw	a4,40(a5)
 19c:	0317a623          	sw	a7,44(a5)

000001a0 <inst_6>:
 1a0:	01882607          	flw	fa2,24(a6)
 1a4:	00205073          	fsrmi	zero,0
 1a8:	e00601d3          	fmv.x.w	gp,fa2
 1ac:	001028f3          	frflags	a7
 1b0:	0237a823          	sw	gp,48(a5)
 1b4:	0317aa23          	sw	a7,52(a5)

000001b8 <inst_7>:
 1b8:	01c82a87          	flw	fs5,28(a6)
 1bc:	00205073          	fsrmi	zero,0
 1c0:	e00a8cd3          	fmv.x.w	s9,fs5
 1c4:	001028f3          	frflags	a7
 1c8:	0397ac23          	sw	s9,56(a5)
 1cc:	0317ae23          	sw	a7,60(a5)

000001d0 <inst_8>:
 1d0:	02082d87          	flw	fs11,32(a6)
 1d4:	00205073          	fsrmi	zero,0
 1d8:	e00d82d3          	fmv.x.w	t0,fs11
 1dc:	001028f3          	frflags	a7
 1e0:	0457a023          	sw	t0,64(a5)
 1e4:	0517a223          	sw	a7,68(a5)

000001e8 <inst_9>:
 1e8:	02482d07          	flw	fs10,36(a6)
 1ec:	00205073          	fsrmi	zero,0
 1f0:	e00d0253          	fmv.x.w	tp,fs10
 1f4:	001028f3          	frflags	a7
 1f8:	0447a423          	sw	tp,72(a5)
 1fc:	0517a623          	sw	a7,76(a5)

00000200 <inst_10>:
 200:	02882c87          	flw	fs9,40(a6)
 204:	00205073          	fsrmi	zero,0
 208:	e00c8d53          	fmv.x.w	s10,fs9
 20c:	001028f3          	frflags	a7
 210:	05a7a823          	sw	s10,80(a5)
 214:	0517aa23          	sw	a7,84(a5)

00000218 <inst_11>:
 218:	02c82807          	flw	fa6,44(a6)
 21c:	00205073          	fsrmi	zero,0
 220:	e00805d3          	fmv.x.w	a1,fa6
 224:	001028f3          	frflags	a7
 228:	04b7ac23          	sw	a1,88(a5)
 22c:	0517ae23          	sw	a7,92(a5)

00000230 <inst_12>:
 230:	03082b07          	flw	fs6,48(a6)
 234:	00205073          	fsrmi	zero,0
 238:	e00b0553          	fmv.x.w	a0,fs6
 23c:	001028f3          	frflags	a7
 240:	06a7a023          	sw	a0,96(a5)
 244:	0717a223          	sw	a7,100(a5)

00000248 <inst_13>:
 248:	03482707          	flw	fa4,52(a6)
 24c:	00205073          	fsrmi	zero,0
 250:	e0070c53          	fmv.x.w	s8,fa4
 254:	001028f3          	frflags	a7
 258:	0787a423          	sw	s8,104(a5)
 25c:	0717a623          	sw	a7,108(a5)

00000260 <inst_14>:
 260:	03882e87          	flw	ft9,56(a6)
 264:	00205073          	fsrmi	zero,0
 268:	e00e8ed3          	fmv.x.w	t4,ft9
 26c:	001028f3          	frflags	a7
 270:	07d7a823          	sw	t4,112(a5)
 274:	0717aa23          	sw	a7,116(a5)

00000278 <inst_15>:
 278:	03c82107          	flw	ft2,60(a6)
 27c:	00205073          	fsrmi	zero,0
 280:	e0010dd3          	fmv.x.w	s11,ft2
 284:	001028f3          	frflags	a7
 288:	07b7ac23          	sw	s11,120(a5)
 28c:	0717ae23          	sw	a7,124(a5)

00000290 <inst_16>:
 290:	04082507          	flw	fa0,64(a6)
 294:	00205073          	fsrmi	zero,0
 298:	e0050153          	fmv.x.w	sp,fa0
 29c:	001028f3          	frflags	a7
 2a0:	0827a023          	sw	sp,128(a5)
 2a4:	0917a223          	sw	a7,132(a5)

000002a8 <inst_17>:
 2a8:	04482b87          	flw	fs7,68(a6)
 2ac:	00205073          	fsrmi	zero,0
 2b0:	e00b80d3          	fmv.x.w	ra,fs7
 2b4:	001028f3          	frflags	a7
 2b8:	0817a423          	sw	ra,136(a5)
 2bc:	0917a623          	sw	a7,140(a5)

000002c0 <inst_18>:
 2c0:	04882087          	flw	ft1,72(a6)
 2c4:	00205073          	fsrmi	zero,0
 2c8:	e0008f53          	fmv.x.w	t5,ft1
 2cc:	001028f3          	frflags	a7
 2d0:	09e7a823          	sw	t5,144(a5)
 2d4:	0917aa23          	sw	a7,148(a5)

000002d8 <inst_19>:
 2d8:	04c82487          	flw	fs1,76(a6)
 2dc:	00205073          	fsrmi	zero,0
 2e0:	e0048353          	fmv.x.w	t1,fs1
 2e4:	001028f3          	frflags	a7
 2e8:	0867ac23          	sw	t1,152(a5)
 2ec:	0917ae23          	sw	a7,156(a5)

000002f0 <inst_20>:
 2f0:	05082687          	flw	fa3,80(a6)
 2f4:	00205073          	fsrmi	zero,0
 2f8:	e0068bd3          	fmv.x.w	s7,fa3
 2fc:	001028f3          	frflags	a7
 300:	0b77a023          	sw	s7,160(a5)
 304:	0b17a223          	sw	a7,164(a5)

00000308 <inst_21>:
 308:	05482207          	flw	ft4,84(a6)
 30c:	00205073          	fsrmi	zero,0
 310:	e00203d3          	fmv.x.w	t2,ft4
 314:	001028f3          	frflags	a7
 318:	0a77a423          	sw	t2,168(a5)
 31c:	0b17a623          	sw	a7,172(a5)

00000320 <inst_22>:
 320:	05882e07          	flw	ft8,88(a6)
 324:	00205073          	fsrmi	zero,0
 328:	e00e0953          	fmv.x.w	s2,ft8
 32c:	001028f3          	frflags	a7
 330:	0b27a823          	sw	s2,176(a5)
 334:	0b17aa23          	sw	a7,180(a5)

00000338 <inst_23>:
 338:	05c82587          	flw	fa1,92(a6)
 33c:	00205073          	fsrmi	zero,0
 340:	e0058053          	fmv.x.w	zero,fa1
 344:	001028f3          	frflags	a7
 348:	0a07ac23          	sw	zero,184(a5)
 34c:	0b17ae23          	sw	a7,188(a5)

00000350 <inst_24>:
 350:	06082887          	flw	fa7,96(a6)
 354:	00205073          	fsrmi	zero,0
 358:	e00889d3          	fmv.x.w	s3,fa7
 35c:	001028f3          	frflags	a7
 360:	0d37a023          	sw	s3,192(a5)
 364:	0d17a223          	sw	a7,196(a5)
 368:	00080a33          	add	s4,a6,zero
 36c:	00001997          	auipc	s3,0x1
 370:	dec98993          	add	s3,s3,-532 # 1158 <signature_x19_0>

00000374 <inst_25>:
 374:	064a2907          	flw	fs2,100(s4)
 378:	00205073          	fsrmi	zero,0
 37c:	e00907d3          	fmv.x.w	a5,fs2
 380:	00102af3          	frflags	s5
 384:	00f9a023          	sw	a5,0(s3)
 388:	0159a223          	sw	s5,4(s3)
 38c:	000a0833          	add	a6,s4,zero
 390:	00001797          	auipc	a5,0x1
 394:	dd078793          	add	a5,a5,-560 # 1160 <signature_x15_2>

00000398 <inst_26>:
 398:	06882007          	flw	ft0,104(a6)
 39c:	00205073          	fsrmi	zero,0
 3a0:	e0000b53          	fmv.x.w	s6,ft0
 3a4:	001028f3          	frflags	a7
 3a8:	0167a023          	sw	s6,0(a5)
 3ac:	0117a223          	sw	a7,4(a5)

000003b0 <inst_27>:
 3b0:	06c82387          	flw	ft7,108(a6)
 3b4:	00205073          	fsrmi	zero,0
 3b8:	e00386d3          	fmv.x.w	a3,ft7
 3bc:	001028f3          	frflags	a7
 3c0:	00d7a423          	sw	a3,8(a5)
 3c4:	0117a623          	sw	a7,12(a5)

000003c8 <inst_28>:
 3c8:	07082f87          	flw	ft11,112(a6)
 3cc:	00205073          	fsrmi	zero,0
 3d0:	e00f8a53          	fmv.x.w	s4,ft11
 3d4:	001028f3          	frflags	a7
 3d8:	0147a823          	sw	s4,16(a5)
 3dc:	0117aa23          	sw	a7,20(a5)

000003e0 <inst_29>:
 3e0:	07482f07          	flw	ft10,116(a6)
 3e4:	00205073          	fsrmi	zero,0
 3e8:	e00f0fd3          	fmv.x.w	t6,ft10
 3ec:	001028f3          	frflags	a7
 3f0:	01f7ac23          	sw	t6,24(a5)
 3f4:	0117ae23          	sw	a7,28(a5)
 3f8:	00080a33          	add	s4,a6,zero
 3fc:	00001997          	auipc	s3,0x1
 400:	d8498993          	add	s3,s3,-636 # 1180 <signature_x19_1>

00000404 <inst_30>:
 404:	078a2287          	flw	ft5,120(s4)
 408:	00205073          	fsrmi	zero,0
 40c:	e0028853          	fmv.x.w	a6,ft5
 410:	00102af3          	frflags	s5
 414:	0109a023          	sw	a6,0(s3)
 418:	0159a223          	sw	s5,4(s3)

0000041c <inst_31>:
 41c:	07ca2987          	flw	fs3,124(s4)
 420:	00205073          	fsrmi	zero,0
 424:	e00988d3          	fmv.x.w	a7,fs3
 428:	00102af3          	frflags	s5
 42c:	0119a423          	sw	a7,8(s3)
 430:	0159a623          	sw	s5,12(s3)
 434:	00000013          	nop
 438:	00000013          	nop
 43c:	00000013          	nop

00000440 <rvtest_code_end>:
 440:	00001517          	auipc	a0,0x1
 444:	c5050513          	add	a0,a0,-944 # 1090 <data_begin>
 448:	00001597          	auipc	a1,0x1
 44c:	d4858593          	add	a1,a1,-696 # 1190 <_end>
 450:	80001637          	lui	a2,0x80001
 454:	00860613          	add	a2,a2,8 # 80001008 <_end+0x7ffffe78>

00000458 <compliance_halt_loop>:
 458:	06b50063          	beq	a0,a1,4b8 <compliance_halt_break>
 45c:	00450693          	add	a3,a0,4

00000460 <compliance_halt_loop2>:
 460:	fff68693          	add	a3,a3,-1
 464:	00068703          	lb	a4,0(a3)
 468:	40475793          	sra	a5,a4,0x4
 46c:	00f7f793          	and	a5,a5,15
 470:	00a00813          	li	a6,10
 474:	0107c463          	blt	a5,a6,47c <notLetter>
 478:	02778793          	add	a5,a5,39

0000047c <notLetter>:
 47c:	03078793          	add	a5,a5,48
 480:	00f60023          	sb	a5,0(a2)
 484:	40075793          	sra	a5,a4,0x0
 488:	00f7f793          	and	a5,a5,15
 48c:	00a00813          	li	a6,10
 490:	0107c463          	blt	a5,a6,498 <notLetter2>
 494:	02778793          	add	a5,a5,39

00000498 <notLetter2>:
 498:	03078793          	add	a5,a5,48
 49c:	00f60023          	sb	a5,0(a2)
 4a0:	fcd510e3          	bne	a0,a3,460 <compliance_halt_loop2>
 4a4:	00450513          	add	a0,a0,4
 4a8:	00a00713          	li	a4,10
 4ac:	00e60023          	sb	a4,0(a2)
 4b0:	fa9ff06f          	j	458 <compliance_halt_loop>
 4b4:	0040006f          	j	4b8 <compliance_halt_break>

000004b8 <compliance_halt_break>:
 4b8:	80001537          	lui	a0,0x80001
 4bc:	00950513          	add	a0,a0,9 # 80001009 <_end+0x7ffffe79>
 4c0:	00d50023          	sb	a3,0(a0)

Desensamblado de la sección .data:

00001000 <rvtest_data_begin>:
    1000:	cafe                	.2byte	0xcafe
    1002:	babe                	.2byte	0xbabe

00001004 <test_fp>:
    1004:	23b8                	.2byte	0x23b8
    1006:	3e49                	.2byte	0x3e49
    1008:	6756                	.2byte	0x6756
    100a:	6204                	.2byte	0x6204
    100c:	a4fc                	.2byte	0xa4fc
    100e:	6b5c33d3          	.4byte	0x6b5c33d3
    1012:	40e9                	.2byte	0x40e9
    1014:	1ae9                	.2byte	0x1ae9
    1016:	4068                	.2byte	0x4068
    1018:	616d                	.2byte	0x616d
    101a:	3f9a                	.2byte	0x3f9a
    101c:	fee5                	.2byte	0xfee5
    101e:	3f49                	.2byte	0x3f49
    1020:	e5d6                	.2byte	0xe5d6
    1022:	3eb6                	.2byte	0x3eb6
	...

00001084 <rvtest_data_end>:
	...

00001090 <data_begin>:
    1090:	deadbeef          	jal	t4,fffdc67a <_end+0xfffdb4ea>
    1094:	deadbeef          	jal	t4,fffdc67e <_end+0xfffdb4ee>
    1098:	deadbeef          	jal	t4,fffdc682 <_end+0xfffdb4f2>
    109c:	deadbeef          	jal	t4,fffdc686 <_end+0xfffdb4f6>
    10a0:	deadbeef          	jal	t4,fffdc68a <_end+0xfffdb4fa>
    10a4:	deadbeef          	jal	t4,fffdc68e <_end+0xfffdb4fe>
    10a8:	deadbeef          	jal	t4,fffdc692 <_end+0xfffdb502>
    10ac:	deadbeef          	jal	t4,fffdc696 <_end+0xfffdb506>
    10b0:	deadbeef          	jal	t4,fffdc69a <_end+0xfffdb50a>
    10b4:	deadbeef          	jal	t4,fffdc69e <_end+0xfffdb50e>
    10b8:	deadbeef          	jal	t4,fffdc6a2 <_end+0xfffdb512>
    10bc:	deadbeef          	jal	t4,fffdc6a6 <_end+0xfffdb516>
    10c0:	deadbeef          	jal	t4,fffdc6aa <_end+0xfffdb51a>
    10c4:	deadbeef          	jal	t4,fffdc6ae <_end+0xfffdb51e>
    10c8:	deadbeef          	jal	t4,fffdc6b2 <_end+0xfffdb522>
    10cc:	deadbeef          	jal	t4,fffdc6b6 <_end+0xfffdb526>
    10d0:	deadbeef          	jal	t4,fffdc6ba <_end+0xfffdb52a>
    10d4:	deadbeef          	jal	t4,fffdc6be <_end+0xfffdb52e>
    10d8:	deadbeef          	jal	t4,fffdc6c2 <_end+0xfffdb532>
    10dc:	deadbeef          	jal	t4,fffdc6c6 <_end+0xfffdb536>
    10e0:	deadbeef          	jal	t4,fffdc6ca <_end+0xfffdb53a>
    10e4:	deadbeef          	jal	t4,fffdc6ce <_end+0xfffdb53e>
    10e8:	deadbeef          	jal	t4,fffdc6d2 <_end+0xfffdb542>
    10ec:	deadbeef          	jal	t4,fffdc6d6 <_end+0xfffdb546>
    10f0:	deadbeef          	jal	t4,fffdc6da <_end+0xfffdb54a>
    10f4:	deadbeef          	jal	t4,fffdc6de <_end+0xfffdb54e>
    10f8:	deadbeef          	jal	t4,fffdc6e2 <_end+0xfffdb552>
    10fc:	deadbeef          	jal	t4,fffdc6e6 <_end+0xfffdb556>
    1100:	deadbeef          	jal	t4,fffdc6ea <_end+0xfffdb55a>
    1104:	deadbeef          	jal	t4,fffdc6ee <_end+0xfffdb55e>
    1108:	deadbeef          	jal	t4,fffdc6f2 <_end+0xfffdb562>
    110c:	deadbeef          	jal	t4,fffdc6f6 <_end+0xfffdb566>
    1110:	deadbeef          	jal	t4,fffdc6fa <_end+0xfffdb56a>
    1114:	deadbeef          	jal	t4,fffdc6fe <_end+0xfffdb56e>
    1118:	deadbeef          	jal	t4,fffdc702 <_end+0xfffdb572>
    111c:	deadbeef          	jal	t4,fffdc706 <_end+0xfffdb576>
    1120:	deadbeef          	jal	t4,fffdc70a <_end+0xfffdb57a>
    1124:	deadbeef          	jal	t4,fffdc70e <_end+0xfffdb57e>
    1128:	deadbeef          	jal	t4,fffdc712 <_end+0xfffdb582>
    112c:	deadbeef          	jal	t4,fffdc716 <_end+0xfffdb586>
    1130:	deadbeef          	jal	t4,fffdc71a <_end+0xfffdb58a>
    1134:	deadbeef          	jal	t4,fffdc71e <_end+0xfffdb58e>
    1138:	deadbeef          	jal	t4,fffdc722 <_end+0xfffdb592>
    113c:	deadbeef          	jal	t4,fffdc726 <_end+0xfffdb596>
    1140:	deadbeef          	jal	t4,fffdc72a <_end+0xfffdb59a>
    1144:	deadbeef          	jal	t4,fffdc72e <_end+0xfffdb59e>
    1148:	deadbeef          	jal	t4,fffdc732 <_end+0xfffdb5a2>
    114c:	deadbeef          	jal	t4,fffdc736 <_end+0xfffdb5a6>
    1150:	deadbeef          	jal	t4,fffdc73a <_end+0xfffdb5aa>
    1154:	deadbeef          	jal	t4,fffdc73e <_end+0xfffdb5ae>

00001158 <signature_x19_0>:
    1158:	deadbeef          	jal	t4,fffdc742 <_end+0xfffdb5b2>
    115c:	deadbeef          	jal	t4,fffdc746 <_end+0xfffdb5b6>

00001160 <signature_x15_2>:
    1160:	deadbeef          	jal	t4,fffdc74a <_end+0xfffdb5ba>
    1164:	deadbeef          	jal	t4,fffdc74e <_end+0xfffdb5be>
    1168:	deadbeef          	jal	t4,fffdc752 <_end+0xfffdb5c2>
    116c:	deadbeef          	jal	t4,fffdc756 <_end+0xfffdb5c6>
    1170:	deadbeef          	jal	t4,fffdc75a <_end+0xfffdb5ca>
    1174:	deadbeef          	jal	t4,fffdc75e <_end+0xfffdb5ce>
    1178:	deadbeef          	jal	t4,fffdc762 <_end+0xfffdb5d2>
    117c:	deadbeef          	jal	t4,fffdc766 <_end+0xfffdb5d6>

00001180 <signature_x19_1>:
    1180:	deadbeef          	jal	t4,fffdc76a <_end+0xfffdb5da>
    1184:	deadbeef          	jal	t4,fffdc76e <_end+0xfffdb5de>
    1188:	deadbeef          	jal	t4,fffdc772 <_end+0xfffdb5e2>
    118c:	deadbeef          	jal	t4,fffdc776 <_end+0xfffdb5e6>

Desensamblado de la sección .riscv.attributes:

00000000 <.riscv.attributes>:
   0:	2241                	.2byte	0x2241
   2:	0000                	.2byte	0x0
   4:	7200                	.2byte	0x7200
   6:	7369                	.2byte	0x7369
   8:	01007663          	bgeu	zero,a6,14 <offset+0x4>
   c:	0018                	.2byte	0x18
   e:	0000                	.2byte	0x0
  10:	7205                	.2byte	0x7205
  12:	3376                	.2byte	0x3376
  14:	6932                	.2byte	0x6932
  16:	7032                	.2byte	0x7032
  18:	5f30                	.2byte	0x5f30
  1a:	3266                	.2byte	0x3266
  1c:	3070                	.2byte	0x3070
  1e:	0800                	.2byte	0x800
  20:	0a01                	.2byte	0xa01
  22:	0b              	Address 0x22 is out of bounds.

