
/home/alejandro/Escritorio/test_riscv2.5/riscv-compliance/work/rv32i_m/F/fmv.x.w_b28-01.elf:     formato del fichero elf32-littleriscv


Desensamblado de la sección .text.init:

00000000 <rvtest_entry_point>:
   0:	feedc0b7          	lui	ra,0xfeedc
   4:	ead08093          	add	ra,ra,-339 # feedbead <_end+0xfeedad1d>
   8:	ff76e137          	lui	sp,0xff76e
   c:	f5610113          	add	sp,sp,-170 # ff76df56 <_end+0xff76cdc6>
  10:	7fbb71b7          	lui	gp,0x7fbb7
  14:	fab18193          	add	gp,gp,-85 # 7fbb6fab <_end+0x7fbb5e1b>
  18:	bfddb237          	lui	tp,0xbfddb
  1c:	7d520213          	add	tp,tp,2005 # bfddb7d5 <_end+0xbfdda645>
  20:	00000297          	auipc	t0,0x0
  24:	0d828293          	add	t0,t0,216 # f8 <rvtest_code_begin>
  28:	00001317          	auipc	t1,0x1
  2c:	fd830313          	add	t1,t1,-40 # 1000 <rvtest_data_begin>
  30:	b7fbb3b7          	lui	t2,0xb7fbb
  34:	6fa38393          	add	t2,t2,1786 # b7fbb6fa <_end+0xb7fba56a>
  38:	5bfde437          	lui	s0,0x5bfde
  3c:	b7d40413          	add	s0,s0,-1155 # 5bfddb7d <_end+0x5bfdc9ed>
  40:	adfef4b7          	lui	s1,0xadfef
  44:	dbe48493          	add	s1,s1,-578 # adfeedbe <_end+0xadfedc2e>
  48:	56ff7537          	lui	a0,0x56ff7
  4c:	6df50513          	add	a0,a0,1759 # 56ff76df <_end+0x56ff654f>
  50:	ab7fc5b7          	lui	a1,0xab7fc
  54:	b6f58593          	add	a1,a1,-1169 # ab7fbb6f <_end+0xab7fa9df>
  58:	d5bfe637          	lui	a2,0xd5bfe
  5c:	db760613          	add	a2,a2,-585 # d5bfddb7 <_end+0xd5bfcc27>
  60:	eadff6b7          	lui	a3,0xeadff
  64:	edb68693          	add	a3,a3,-293 # eadfeedb <_end+0xeadfdd4b>
  68:	f56ff737          	lui	a4,0xf56ff
  6c:	76d70713          	add	a4,a4,1901 # f56ff76d <_end+0xf56fe5dd>
  70:	fab807b7          	lui	a5,0xfab80
  74:	bb678793          	add	a5,a5,-1098 # fab7fbb6 <_end+0xfab7ea26>
  78:	7d5c0837          	lui	a6,0x7d5c0
  7c:	ddb80813          	add	a6,a6,-549 # 7d5bfddb <_end+0x7d5bec4b>
  80:	beae08b7          	lui	a7,0xbeae0
  84:	eed88893          	add	a7,a7,-275 # beadfeed <_end+0xbeaded5d>
  88:	df570937          	lui	s2,0xdf570
  8c:	f7690913          	add	s2,s2,-138 # df56ff76 <_end+0xdf56ede6>
  90:	6fab89b7          	lui	s3,0x6fab8
  94:	fbb98993          	add	s3,s3,-69 # 6fab7fbb <_end+0x6fab6e2b>
  98:	b7d5ca37          	lui	s4,0xb7d5c
  9c:	fdda0a13          	add	s4,s4,-35 # b7d5bfdd <_end+0xb7d5ae4d>
  a0:	dbeaeab7          	lui	s5,0xdbeae
  a4:	feea8a93          	add	s5,s5,-18 # dbeadfee <_end+0xdbeace5e>
  a8:	6df57b37          	lui	s6,0x6df57
  ac:	ff7b0b13          	add	s6,s6,-9 # 6df56ff7 <_end+0x6df55e67>
  b0:	b6fabbb7          	lui	s7,0xb6fab
  b4:	7fbb8b93          	add	s7,s7,2043 # b6fab7fb <_end+0xb6faa66b>
  b8:	db7d6c37          	lui	s8,0xdb7d6
  bc:	bfdc0c13          	add	s8,s8,-1027 # db7d5bfd <_end+0xdb7d4a6d>
  c0:	edbebcb7          	lui	s9,0xedbeb
  c4:	dfec8c93          	add	s9,s9,-514 # edbeadfe <_end+0xedbe9c6e>
  c8:	76df5d37          	lui	s10,0x76df5
  cc:	6ffd0d13          	add	s10,s10,1791 # 76df56ff <_end+0x76df456f>
  d0:	bb6fbdb7          	lui	s11,0xbb6fb
  d4:	b7fd8d93          	add	s11,s11,-1153 # bb6fab7f <_end+0xbb6f99ef>
  d8:	ddb7de37          	lui	t3,0xddb7d
  dc:	5bfe0e13          	add	t3,t3,1471 # ddb7d5bf <_end+0xddb7c42f>
  e0:	eedbfeb7          	lui	t4,0xeedbf
  e4:	adfe8e93          	add	t4,t4,-1313 # eedbeadf <_end+0xeedbd94f>
  e8:	f76dff37          	lui	t5,0xf76df
  ec:	56ff0f13          	add	t5,t5,1391 # f76df56f <_end+0xf76de3df>
  f0:	fbb70fb7          	lui	t6,0xfbb70
  f4:	ab7f8f93          	add	t6,t6,-1353 # fbb6fab7 <_end+0xfbb6e927>

000000f8 <rvtest_code_begin>:
  f8:	00002537          	lui	a0,0x2
  fc:	30052073          	csrs	mstatus,a0
 100:	00001a17          	auipc	s4,0x1
 104:	f04a0a13          	add	s4,s4,-252 # 1004 <test_fp>
 108:	00001997          	auipc	s3,0x1
 10c:	f8898993          	add	s3,s3,-120 # 1090 <data_begin>

00000110 <inst_0>:
 110:	000a2a87          	flw	fs5,0(s4)
 114:	00205073          	fsrmi	zero,0
 118:	e00a88d3          	fmv.x.w	a7,fs5
 11c:	00102af3          	frflags	s5
 120:	0119a023          	sw	a7,0(s3)
 124:	0159a223          	sw	s5,4(s3)
 128:	000a0833          	add	a6,s4,zero
 12c:	00001797          	auipc	a5,0x1
 130:	f6c78793          	add	a5,a5,-148 # 1098 <signature_x15_0>

00000134 <inst_1>:
 134:	00482287          	flw	ft5,4(a6)
 138:	00205073          	fsrmi	zero,0
 13c:	e00283d3          	fmv.x.w	t2,ft5
 140:	001028f3          	frflags	a7
 144:	0077a023          	sw	t2,0(a5)
 148:	0117a223          	sw	a7,4(a5)

0000014c <inst_2>:
 14c:	00882607          	flw	fa2,8(a6)
 150:	00205073          	fsrmi	zero,0
 154:	e0060d53          	fmv.x.w	s10,fa2
 158:	001028f3          	frflags	a7
 15c:	01a7a423          	sw	s10,8(a5)
 160:	0117a623          	sw	a7,12(a5)

00000164 <inst_3>:
 164:	00c82007          	flw	ft0,12(a6)
 168:	00205073          	fsrmi	zero,0
 16c:	e0000353          	fmv.x.w	t1,ft0
 170:	001028f3          	frflags	a7
 174:	0067a823          	sw	t1,16(a5)
 178:	0117aa23          	sw	a7,20(a5)

0000017c <inst_4>:
 17c:	01082c87          	flw	fs9,16(a6)
 180:	00205073          	fsrmi	zero,0
 184:	e00c81d3          	fmv.x.w	gp,fs9
 188:	001028f3          	frflags	a7
 18c:	0037ac23          	sw	gp,24(a5)
 190:	0117ae23          	sw	a7,28(a5)

00000194 <inst_5>:
 194:	01482f87          	flw	ft11,20(a6)
 198:	00205073          	fsrmi	zero,0
 19c:	e00f89d3          	fmv.x.w	s3,ft11
 1a0:	001028f3          	frflags	a7
 1a4:	0337a023          	sw	s3,32(a5)
 1a8:	0317a223          	sw	a7,36(a5)

000001ac <inst_6>:
 1ac:	01882b07          	flw	fs6,24(a6)
 1b0:	00205073          	fsrmi	zero,0
 1b4:	e00b0553          	fmv.x.w	a0,fs6
 1b8:	001028f3          	frflags	a7
 1bc:	02a7a423          	sw	a0,40(a5)
 1c0:	0317a623          	sw	a7,44(a5)

000001c4 <inst_7>:
 1c4:	01c82d87          	flw	fs11,28(a6)
 1c8:	00205073          	fsrmi	zero,0
 1cc:	e00d8c53          	fmv.x.w	s8,fs11
 1d0:	001028f3          	frflags	a7
 1d4:	0387a823          	sw	s8,48(a5)
 1d8:	0317aa23          	sw	a7,52(a5)

000001dc <inst_8>:
 1dc:	02082587          	flw	fa1,32(a6)
 1e0:	00205073          	fsrmi	zero,0
 1e4:	e0058bd3          	fmv.x.w	s7,fa1
 1e8:	001028f3          	frflags	a7
 1ec:	0377ac23          	sw	s7,56(a5)
 1f0:	0317ae23          	sw	a7,60(a5)

000001f4 <inst_9>:
 1f4:	02482807          	flw	fa6,36(a6)
 1f8:	00205073          	fsrmi	zero,0
 1fc:	e0080f53          	fmv.x.w	t5,fa6
 200:	001028f3          	frflags	a7
 204:	05e7a023          	sw	t5,64(a5)
 208:	0517a223          	sw	a7,68(a5)

0000020c <inst_10>:
 20c:	02882087          	flw	ft1,40(a6)
 210:	00205073          	fsrmi	zero,0
 214:	e0008cd3          	fmv.x.w	s9,ft1
 218:	001028f3          	frflags	a7
 21c:	0597a423          	sw	s9,72(a5)
 220:	0517a623          	sw	a7,76(a5)

00000224 <inst_11>:
 224:	02c82887          	flw	fa7,44(a6)
 228:	00205073          	fsrmi	zero,0
 22c:	e00884d3          	fmv.x.w	s1,fa7
 230:	001028f3          	frflags	a7
 234:	0497a823          	sw	s1,80(a5)
 238:	0517aa23          	sw	a7,84(a5)

0000023c <inst_12>:
 23c:	03082187          	flw	ft3,48(a6)
 240:	00205073          	fsrmi	zero,0
 244:	e0018e53          	fmv.x.w	t3,ft3
 248:	001028f3          	frflags	a7
 24c:	05c7ac23          	sw	t3,88(a5)
 250:	0517ae23          	sw	a7,92(a5)

00000254 <inst_13>:
 254:	03482787          	flw	fa5,52(a6)
 258:	00205073          	fsrmi	zero,0
 25c:	e0078753          	fmv.x.w	a4,fa5
 260:	001028f3          	frflags	a7
 264:	06e7a023          	sw	a4,96(a5)
 268:	0717a223          	sw	a7,100(a5)

0000026c <inst_14>:
 26c:	03882507          	flw	fa0,56(a6)
 270:	00205073          	fsrmi	zero,0
 274:	e0050253          	fmv.x.w	tp,fa0
 278:	001028f3          	frflags	a7
 27c:	0647a423          	sw	tp,104(a5)
 280:	0717a623          	sw	a7,108(a5)

00000284 <inst_15>:
 284:	03c82707          	flw	fa4,60(a6)
 288:	00205073          	fsrmi	zero,0
 28c:	e0070953          	fmv.x.w	s2,fa4
 290:	001028f3          	frflags	a7
 294:	0727a823          	sw	s2,112(a5)
 298:	0717aa23          	sw	a7,116(a5)

0000029c <inst_16>:
 29c:	04082307          	flw	ft6,64(a6)
 2a0:	00205073          	fsrmi	zero,0
 2a4:	e0030a53          	fmv.x.w	s4,ft6
 2a8:	001028f3          	frflags	a7
 2ac:	0747ac23          	sw	s4,120(a5)
 2b0:	0717ae23          	sw	a7,124(a5)

000002b4 <inst_17>:
 2b4:	04482687          	flw	fa3,68(a6)
 2b8:	00205073          	fsrmi	zero,0
 2bc:	e0068653          	fmv.x.w	a2,fa3
 2c0:	001028f3          	frflags	a7
 2c4:	08c7a023          	sw	a2,128(a5)
 2c8:	0917a223          	sw	a7,132(a5)

000002cc <inst_18>:
 2cc:	04882487          	flw	fs1,72(a6)
 2d0:	00205073          	fsrmi	zero,0
 2d4:	e00485d3          	fmv.x.w	a1,fs1
 2d8:	001028f3          	frflags	a7
 2dc:	08b7a423          	sw	a1,136(a5)
 2e0:	0917a623          	sw	a7,140(a5)

000002e4 <inst_19>:
 2e4:	04c82387          	flw	ft7,76(a6)
 2e8:	00205073          	fsrmi	zero,0
 2ec:	e0038153          	fmv.x.w	sp,ft7
 2f0:	001028f3          	frflags	a7
 2f4:	0827a823          	sw	sp,144(a5)
 2f8:	0917aa23          	sw	a7,148(a5)

000002fc <inst_20>:
 2fc:	05082107          	flw	ft2,80(a6)
 300:	00205073          	fsrmi	zero,0
 304:	e0010b53          	fmv.x.w	s6,ft2
 308:	001028f3          	frflags	a7
 30c:	0967ac23          	sw	s6,152(a5)
 310:	0917ae23          	sw	a7,156(a5)

00000314 <inst_21>:
 314:	05482b87          	flw	fs7,84(a6)
 318:	00205073          	fsrmi	zero,0
 31c:	e00b80d3          	fmv.x.w	ra,fs7
 320:	001028f3          	frflags	a7
 324:	0a17a023          	sw	ra,160(a5)
 328:	0b17a223          	sw	a7,164(a5)
 32c:	00080a33          	add	s4,a6,zero
 330:	00001997          	auipc	s3,0x1
 334:	e1098993          	add	s3,s3,-496 # 1140 <signature_x19_2>

00000338 <inst_22>:
 338:	058a2f07          	flw	ft10,88(s4)
 33c:	00205073          	fsrmi	zero,0
 340:	e00f0853          	fmv.x.w	a6,ft10
 344:	00102af3          	frflags	s5
 348:	0109a023          	sw	a6,0(s3)
 34c:	0159a223          	sw	s5,4(s3)
 350:	000a0833          	add	a6,s4,zero
 354:	00001797          	auipc	a5,0x1
 358:	df478793          	add	a5,a5,-524 # 1148 <signature_x15_1>

0000035c <inst_23>:
 35c:	05c82207          	flw	ft4,92(a6)
 360:	00205073          	fsrmi	zero,0
 364:	e0020fd3          	fmv.x.w	t6,ft4
 368:	001028f3          	frflags	a7
 36c:	01f7a023          	sw	t6,0(a5)
 370:	0117a223          	sw	a7,4(a5)

00000374 <inst_24>:
 374:	06082d07          	flw	fs10,96(a6)
 378:	00205073          	fsrmi	zero,0
 37c:	e00d0ed3          	fmv.x.w	t4,fs10
 380:	001028f3          	frflags	a7
 384:	01d7a423          	sw	t4,8(a5)
 388:	0117a623          	sw	a7,12(a5)
 38c:	00080a33          	add	s4,a6,zero
 390:	00001997          	auipc	s3,0x1
 394:	dc898993          	add	s3,s3,-568 # 1158 <signature_x19_3>

00000398 <inst_25>:
 398:	064a2a07          	flw	fs4,100(s4)
 39c:	00205073          	fsrmi	zero,0
 3a0:	e00a07d3          	fmv.x.w	a5,fs4
 3a4:	00102af3          	frflags	s5
 3a8:	00f9a023          	sw	a5,0(s3)
 3ac:	0159a223          	sw	s5,4(s3)
 3b0:	000a0833          	add	a6,s4,zero
 3b4:	00001797          	auipc	a5,0x1
 3b8:	dac78793          	add	a5,a5,-596 # 1160 <signature_x15_2>

000003bc <inst_26>:
 3bc:	06882407          	flw	fs0,104(a6)
 3c0:	00205073          	fsrmi	zero,0
 3c4:	e0040ad3          	fmv.x.w	s5,fs0
 3c8:	001028f3          	frflags	a7
 3cc:	0157a023          	sw	s5,0(a5)
 3d0:	0117a223          	sw	a7,4(a5)

000003d4 <inst_27>:
 3d4:	06c82907          	flw	fs2,108(a6)
 3d8:	00205073          	fsrmi	zero,0
 3dc:	e00902d3          	fmv.x.w	t0,fs2
 3e0:	001028f3          	frflags	a7
 3e4:	0057a423          	sw	t0,8(a5)
 3e8:	0117a623          	sw	a7,12(a5)

000003ec <inst_28>:
 3ec:	07082e87          	flw	ft9,112(a6)
 3f0:	00205073          	fsrmi	zero,0
 3f4:	e00e8453          	fmv.x.w	s0,ft9
 3f8:	001028f3          	frflags	a7
 3fc:	0087a823          	sw	s0,16(a5)
 400:	0117aa23          	sw	a7,20(a5)

00000404 <inst_29>:
 404:	07482987          	flw	fs3,116(a6)
 408:	00205073          	fsrmi	zero,0
 40c:	e0098dd3          	fmv.x.w	s11,fs3
 410:	001028f3          	frflags	a7
 414:	01b7ac23          	sw	s11,24(a5)
 418:	0117ae23          	sw	a7,28(a5)

0000041c <inst_30>:
 41c:	07882c07          	flw	fs8,120(a6)
 420:	00205073          	fsrmi	zero,0
 424:	e00c06d3          	fmv.x.w	a3,fs8
 428:	001028f3          	frflags	a7
 42c:	02d7a023          	sw	a3,32(a5)
 430:	0317a223          	sw	a7,36(a5)

00000434 <inst_31>:
 434:	07c82e07          	flw	ft8,124(a6)
 438:	00205073          	fsrmi	zero,0
 43c:	e00e0053          	fmv.x.w	zero,ft8
 440:	001028f3          	frflags	a7
 444:	0207a423          	sw	zero,40(a5)
 448:	0317a623          	sw	a7,44(a5)
 44c:	00000013          	nop

00000450 <rvtest_code_end>:
 450:	00001517          	auipc	a0,0x1
 454:	c4050513          	add	a0,a0,-960 # 1090 <data_begin>
 458:	00001597          	auipc	a1,0x1
 45c:	d3858593          	add	a1,a1,-712 # 1190 <_end>
 460:	80001637          	lui	a2,0x80001
 464:	00860613          	add	a2,a2,8 # 80001008 <_end+0x7ffffe78>

00000468 <compliance_halt_loop>:
 468:	06b50063          	beq	a0,a1,4c8 <compliance_halt_break>
 46c:	00450693          	add	a3,a0,4

00000470 <compliance_halt_loop2>:
 470:	fff68693          	add	a3,a3,-1
 474:	00068703          	lb	a4,0(a3)
 478:	40475793          	sra	a5,a4,0x4
 47c:	00f7f793          	and	a5,a5,15
 480:	00a00813          	li	a6,10
 484:	0107c463          	blt	a5,a6,48c <notLetter>
 488:	02778793          	add	a5,a5,39

0000048c <notLetter>:
 48c:	03078793          	add	a5,a5,48
 490:	00f60023          	sb	a5,0(a2)
 494:	40075793          	sra	a5,a4,0x0
 498:	00f7f793          	and	a5,a5,15
 49c:	00a00813          	li	a6,10
 4a0:	0107c463          	blt	a5,a6,4a8 <notLetter2>
 4a4:	02778793          	add	a5,a5,39

000004a8 <notLetter2>:
 4a8:	03078793          	add	a5,a5,48
 4ac:	00f60023          	sb	a5,0(a2)
 4b0:	fcd510e3          	bne	a0,a3,470 <compliance_halt_loop2>
 4b4:	00450513          	add	a0,a0,4
 4b8:	00a00713          	li	a4,10
 4bc:	00e60023          	sb	a4,0(a2)
 4c0:	fa9ff06f          	j	468 <compliance_halt_loop>
 4c4:	0040006f          	j	4c8 <compliance_halt_break>

000004c8 <compliance_halt_break>:
 4c8:	80001537          	lui	a0,0x80001
 4cc:	00950513          	add	a0,a0,9 # 80001009 <_end+0x7ffffe79>
 4d0:	00d50023          	sb	a3,0(a0)
	...

Desensamblado de la sección .data:

00001000 <rvtest_data_begin>:
    1000:	cafe                	.2byte	0xcafe
    1002:	babe                	.2byte	0xbabe

00001004 <test_fp>:
    1004:	0000                	.2byte	0x0
    1006:	0000                	.2byte	0x0
    1008:	0000                	.2byte	0x0
    100a:	ff80                	.2byte	0xff80
    100c:	0000                	.2byte	0x0
    100e:	cf00                	.2byte	0xcf00
    1010:	3d25                	.2byte	0x3d25
    1012:	0000cecb          	fnmsub.s	ft9,ft1,ft0,ft0,rmm
    1016:	bfa0                	.2byte	0xbfa0
    1018:	0000                	.2byte	0x0
    101a:	bfc0                	.2byte	0xbfc0
    101c:	0000                	.2byte	0x0
    101e:	bfe0                	.2byte	0xbfe0
    1020:	0000                	.2byte	0x0
    1022:	c000                	.2byte	0xc000
    1024:	0000                	.2byte	0x0
    1026:	c010                	.2byte	0xc010
    1028:	0000                	.2byte	0x0
    102a:	c020                	.2byte	0xc020
    102c:	0000                	.2byte	0x0
    102e:	c030                	.2byte	0xc030
    1030:	0000                	.2byte	0x0
    1032:	bf80                	.2byte	0xbf80
    1034:	046a                	.2byte	0x46a
    1036:	bed8                	.2byte	0xbed8
    1038:	0000                	.2byte	0x0
    103a:	8000                	.2byte	0x8000
    103c:	0001                	.2byte	0x1
    103e:	7fc0                	.2byte	0x7fc0
    1040:	0001                	.2byte	0x1
    1042:	7f80                	.2byte	0x7f80
    1044:	0000                	.2byte	0x0
    1046:	7f80                	.2byte	0x7f80
    1048:	ffff                	.2byte	0xffff
    104a:	4eff 9758 4e5b 0000 	.byte	0xff, 0x4e, 0x58, 0x97, 0x5b, 0x4e, 0x00, 0x00, 0x30, 0x40, 0x00, 0x00, 0x20, 0x40, 0x00, 0x00, 0x10, 0x40
    1052:	4030 0000 4020 0000 
    105a:	4010 
    105c:	0000                	.2byte	0x0
    105e:	4000                	.2byte	0x4000
    1060:	0000                	.2byte	0x0
    1062:	3fe0                	.2byte	0x3fe0
    1064:	0000                	.2byte	0x0
    1066:	3fc0                	.2byte	0x3fc0
    1068:	0000                	.2byte	0x0
    106a:	3fa0                	.2byte	0x3fa0
    106c:	0000                	.2byte	0x0
    106e:	3f80                	.2byte	0x3f80
    1070:	4770                	.2byte	0x4770
    1072:	3f12                	.2byte	0x3f12
	...

00001084 <rvtest_data_end>:
	...

00001090 <data_begin>:
    1090:	deadbeef          	jal	t4,fffdc67a <_end+0xfffdb4ea>
    1094:	deadbeef          	jal	t4,fffdc67e <_end+0xfffdb4ee>

00001098 <signature_x15_0>:
    1098:	deadbeef          	jal	t4,fffdc682 <_end+0xfffdb4f2>
    109c:	deadbeef          	jal	t4,fffdc686 <_end+0xfffdb4f6>
    10a0:	deadbeef          	jal	t4,fffdc68a <_end+0xfffdb4fa>
    10a4:	deadbeef          	jal	t4,fffdc68e <_end+0xfffdb4fe>
    10a8:	deadbeef          	jal	t4,fffdc692 <_end+0xfffdb502>
    10ac:	deadbeef          	jal	t4,fffdc696 <_end+0xfffdb506>
    10b0:	deadbeef          	jal	t4,fffdc69a <_end+0xfffdb50a>
    10b4:	deadbeef          	jal	t4,fffdc69e <_end+0xfffdb50e>
    10b8:	deadbeef          	jal	t4,fffdc6a2 <_end+0xfffdb512>
    10bc:	deadbeef          	jal	t4,fffdc6a6 <_end+0xfffdb516>
    10c0:	deadbeef          	jal	t4,fffdc6aa <_end+0xfffdb51a>
    10c4:	deadbeef          	jal	t4,fffdc6ae <_end+0xfffdb51e>
    10c8:	deadbeef          	jal	t4,fffdc6b2 <_end+0xfffdb522>
    10cc:	deadbeef          	jal	t4,fffdc6b6 <_end+0xfffdb526>
    10d0:	deadbeef          	jal	t4,fffdc6ba <_end+0xfffdb52a>
    10d4:	deadbeef          	jal	t4,fffdc6be <_end+0xfffdb52e>
    10d8:	deadbeef          	jal	t4,fffdc6c2 <_end+0xfffdb532>
    10dc:	deadbeef          	jal	t4,fffdc6c6 <_end+0xfffdb536>
    10e0:	deadbeef          	jal	t4,fffdc6ca <_end+0xfffdb53a>
    10e4:	deadbeef          	jal	t4,fffdc6ce <_end+0xfffdb53e>
    10e8:	deadbeef          	jal	t4,fffdc6d2 <_end+0xfffdb542>
    10ec:	deadbeef          	jal	t4,fffdc6d6 <_end+0xfffdb546>
    10f0:	deadbeef          	jal	t4,fffdc6da <_end+0xfffdb54a>
    10f4:	deadbeef          	jal	t4,fffdc6de <_end+0xfffdb54e>
    10f8:	deadbeef          	jal	t4,fffdc6e2 <_end+0xfffdb552>
    10fc:	deadbeef          	jal	t4,fffdc6e6 <_end+0xfffdb556>
    1100:	deadbeef          	jal	t4,fffdc6ea <_end+0xfffdb55a>
    1104:	deadbeef          	jal	t4,fffdc6ee <_end+0xfffdb55e>
    1108:	deadbeef          	jal	t4,fffdc6f2 <_end+0xfffdb562>
    110c:	deadbeef          	jal	t4,fffdc6f6 <_end+0xfffdb566>
    1110:	deadbeef          	jal	t4,fffdc6fa <_end+0xfffdb56a>
    1114:	deadbeef          	jal	t4,fffdc6fe <_end+0xfffdb56e>
    1118:	deadbeef          	jal	t4,fffdc702 <_end+0xfffdb572>
    111c:	deadbeef          	jal	t4,fffdc706 <_end+0xfffdb576>
    1120:	deadbeef          	jal	t4,fffdc70a <_end+0xfffdb57a>
    1124:	deadbeef          	jal	t4,fffdc70e <_end+0xfffdb57e>
    1128:	deadbeef          	jal	t4,fffdc712 <_end+0xfffdb582>
    112c:	deadbeef          	jal	t4,fffdc716 <_end+0xfffdb586>
    1130:	deadbeef          	jal	t4,fffdc71a <_end+0xfffdb58a>
    1134:	deadbeef          	jal	t4,fffdc71e <_end+0xfffdb58e>
    1138:	deadbeef          	jal	t4,fffdc722 <_end+0xfffdb592>
    113c:	deadbeef          	jal	t4,fffdc726 <_end+0xfffdb596>

00001140 <signature_x19_2>:
    1140:	deadbeef          	jal	t4,fffdc72a <_end+0xfffdb59a>
    1144:	deadbeef          	jal	t4,fffdc72e <_end+0xfffdb59e>

00001148 <signature_x15_1>:
    1148:	deadbeef          	jal	t4,fffdc732 <_end+0xfffdb5a2>
    114c:	deadbeef          	jal	t4,fffdc736 <_end+0xfffdb5a6>
    1150:	deadbeef          	jal	t4,fffdc73a <_end+0xfffdb5aa>
    1154:	deadbeef          	jal	t4,fffdc73e <_end+0xfffdb5ae>

00001158 <signature_x19_3>:
    1158:	deadbeef          	jal	t4,fffdc742 <_end+0xfffdb5b2>
    115c:	deadbeef          	jal	t4,fffdc746 <_end+0xfffdb5b6>

00001160 <signature_x15_2>:
    1160:	deadbeef          	jal	t4,fffdc74a <_end+0xfffdb5ba>
    1164:	deadbeef          	jal	t4,fffdc74e <_end+0xfffdb5be>
    1168:	deadbeef          	jal	t4,fffdc752 <_end+0xfffdb5c2>
    116c:	deadbeef          	jal	t4,fffdc756 <_end+0xfffdb5c6>
    1170:	deadbeef          	jal	t4,fffdc75a <_end+0xfffdb5ca>
    1174:	deadbeef          	jal	t4,fffdc75e <_end+0xfffdb5ce>
    1178:	deadbeef          	jal	t4,fffdc762 <_end+0xfffdb5d2>
    117c:	deadbeef          	jal	t4,fffdc766 <_end+0xfffdb5d6>
    1180:	deadbeef          	jal	t4,fffdc76a <_end+0xfffdb5da>
    1184:	deadbeef          	jal	t4,fffdc76e <_end+0xfffdb5de>
    1188:	deadbeef          	jal	t4,fffdc772 <_end+0xfffdb5e2>
    118c:	deadbeef          	jal	t4,fffdc776 <_end+0xfffdb5e6>

Desensamblado de la sección .riscv.attributes:

00000000 <.riscv.attributes>:
   0:	2241                	.2byte	0x2241
   2:	0000                	.2byte	0x0
   4:	7200                	.2byte	0x7200
   6:	7369                	.2byte	0x7369
   8:	01007663          	bgeu	zero,a6,14 <rvtest_entry_point+0x14>
   c:	0018                	.2byte	0x18
   e:	0000                	.2byte	0x0
  10:	7205                	.2byte	0x7205
  12:	3376                	.2byte	0x3376
  14:	6932                	.2byte	0x6932
  16:	7032                	.2byte	0x7032
  18:	5f30                	.2byte	0x5f30
  1a:	3266                	.2byte	0x3266
  1c:	3070                	.2byte	0x3070
  1e:	0800                	.2byte	0x800
  20:	0a01                	.2byte	0xa01
  22:	0b              	Address 0x22 is out of bounds.

