
/home/alejandro/Escritorio/test_riscv2.5/riscv-compliance/work/rv32i_m/F/fmv.w.x_b25-01.elf:     formato del fichero elf32-littleriscv


Desensamblado de la sección .text.init:

00000000 <rvtest_entry_point>:
   0:	feedc0b7          	lui	ra,0xfeedc
   4:	ead08093          	add	ra,ra,-339 # feedbead <_end+0xfeedad0d>
   8:	ff76e137          	lui	sp,0xff76e
   c:	f5610113          	add	sp,sp,-170 # ff76df56 <_end+0xff76cdb6>
  10:	7fbb71b7          	lui	gp,0x7fbb7
  14:	fab18193          	add	gp,gp,-85 # 7fbb6fab <_end+0x7fbb5e0b>
  18:	bfddb237          	lui	tp,0xbfddb
  1c:	7d520213          	add	tp,tp,2005 # bfddb7d5 <_end+0xbfdda635>
  20:	00000297          	auipc	t0,0x0
  24:	0d828293          	add	t0,t0,216 # f8 <rvtest_code_begin>
  28:	00001317          	auipc	t1,0x1
  2c:	fd830313          	add	t1,t1,-40 # 1000 <rvtest_data_begin>
  30:	b7fbb3b7          	lui	t2,0xb7fbb
  34:	6fa38393          	add	t2,t2,1786 # b7fbb6fa <_end+0xb7fba55a>
  38:	5bfde437          	lui	s0,0x5bfde
  3c:	b7d40413          	add	s0,s0,-1155 # 5bfddb7d <_end+0x5bfdc9dd>
  40:	adfef4b7          	lui	s1,0xadfef
  44:	dbe48493          	add	s1,s1,-578 # adfeedbe <_end+0xadfedc1e>
  48:	56ff7537          	lui	a0,0x56ff7
  4c:	6df50513          	add	a0,a0,1759 # 56ff76df <_end+0x56ff653f>
  50:	ab7fc5b7          	lui	a1,0xab7fc
  54:	b6f58593          	add	a1,a1,-1169 # ab7fbb6f <_end+0xab7fa9cf>
  58:	d5bfe637          	lui	a2,0xd5bfe
  5c:	db760613          	add	a2,a2,-585 # d5bfddb7 <_end+0xd5bfcc17>
  60:	eadff6b7          	lui	a3,0xeadff
  64:	edb68693          	add	a3,a3,-293 # eadfeedb <_end+0xeadfdd3b>
  68:	f56ff737          	lui	a4,0xf56ff
  6c:	76d70713          	add	a4,a4,1901 # f56ff76d <_end+0xf56fe5cd>
  70:	fab807b7          	lui	a5,0xfab80
  74:	bb678793          	add	a5,a5,-1098 # fab7fbb6 <_end+0xfab7ea16>
  78:	7d5c0837          	lui	a6,0x7d5c0
  7c:	ddb80813          	add	a6,a6,-549 # 7d5bfddb <_end+0x7d5bec3b>
  80:	beae08b7          	lui	a7,0xbeae0
  84:	eed88893          	add	a7,a7,-275 # beadfeed <_end+0xbeaded4d>
  88:	df570937          	lui	s2,0xdf570
  8c:	f7690913          	add	s2,s2,-138 # df56ff76 <_end+0xdf56edd6>
  90:	6fab89b7          	lui	s3,0x6fab8
  94:	fbb98993          	add	s3,s3,-69 # 6fab7fbb <_end+0x6fab6e1b>
  98:	b7d5ca37          	lui	s4,0xb7d5c
  9c:	fdda0a13          	add	s4,s4,-35 # b7d5bfdd <_end+0xb7d5ae3d>
  a0:	dbeaeab7          	lui	s5,0xdbeae
  a4:	feea8a93          	add	s5,s5,-18 # dbeadfee <_end+0xdbeace4e>
  a8:	6df57b37          	lui	s6,0x6df57
  ac:	ff7b0b13          	add	s6,s6,-9 # 6df56ff7 <_end+0x6df55e57>
  b0:	b6fabbb7          	lui	s7,0xb6fab
  b4:	7fbb8b93          	add	s7,s7,2043 # b6fab7fb <_end+0xb6faa65b>
  b8:	db7d6c37          	lui	s8,0xdb7d6
  bc:	bfdc0c13          	add	s8,s8,-1027 # db7d5bfd <_end+0xdb7d4a5d>
  c0:	edbebcb7          	lui	s9,0xedbeb
  c4:	dfec8c93          	add	s9,s9,-514 # edbeadfe <_end+0xedbe9c5e>
  c8:	76df5d37          	lui	s10,0x76df5
  cc:	6ffd0d13          	add	s10,s10,1791 # 76df56ff <_end+0x76df455f>
  d0:	bb6fbdb7          	lui	s11,0xbb6fb
  d4:	b7fd8d93          	add	s11,s11,-1153 # bb6fab7f <_end+0xbb6f99df>
  d8:	ddb7de37          	lui	t3,0xddb7d
  dc:	5bfe0e13          	add	t3,t3,1471 # ddb7d5bf <_end+0xddb7c41f>
  e0:	eedbfeb7          	lui	t4,0xeedbf
  e4:	adfe8e93          	add	t4,t4,-1313 # eedbeadf <_end+0xeedbd93f>
  e8:	f76dff37          	lui	t5,0xf76df
  ec:	56ff0f13          	add	t5,t5,1391 # f76df56f <_end+0xf76de3cf>
  f0:	fbb70fb7          	lui	t6,0xfbb70
  f4:	ab7f8f93          	add	t6,t6,-1353 # fbb6fab7 <_end+0xfbb6e917>

000000f8 <rvtest_code_begin>:
  f8:	00002537          	lui	a0,0x2
  fc:	30052073          	csrs	mstatus,a0
 100:	00001817          	auipc	a6,0x1
 104:	f0480813          	add	a6,a6,-252 # 1004 <test_fp>
 108:	00001797          	auipc	a5,0x1
 10c:	f8878793          	add	a5,a5,-120 # 1090 <data_begin>

00000110 <inst_0>:
 110:	00082303          	lw	t1,0(a6)
 114:	00205073          	fsrmi	zero,0
 118:	f00302d3          	fmv.w.x	ft5,t1
 11c:	001028f3          	frflags	a7
 120:	0057a027          	fsw	ft5,0(a5)
 124:	0117a223          	sw	a7,4(a5)

00000128 <inst_1>:
 128:	00482a83          	lw	s5,4(a6)
 12c:	00205073          	fsrmi	zero,0
 130:	f00a8053          	fmv.w.x	ft0,s5
 134:	001028f3          	frflags	a7
 138:	0007a427          	fsw	ft0,8(a5)
 13c:	0117a623          	sw	a7,12(a5)

00000140 <inst_2>:
 140:	00882003          	lw	zero,8(a6)
 144:	00205073          	fsrmi	zero,0
 148:	f00008d3          	fmv.w.x	fa7,zero
 14c:	001028f3          	frflags	a7
 150:	0117a827          	fsw	fa7,16(a5)
 154:	0117aa23          	sw	a7,20(a5)

00000158 <inst_3>:
 158:	00c82503          	lw	a0,12(a6)
 15c:	00205073          	fsrmi	zero,0
 160:	f0050753          	fmv.w.x	fa4,a0
 164:	001028f3          	frflags	a7
 168:	00e7ac27          	fsw	fa4,24(a5)
 16c:	0117ae23          	sw	a7,28(a5)

00000170 <inst_4>:
 170:	01082d03          	lw	s10,16(a6)
 174:	00205073          	fsrmi	zero,0
 178:	f00d0853          	fmv.w.x	fa6,s10
 17c:	001028f3          	frflags	a7
 180:	0307a027          	fsw	fa6,32(a5)
 184:	0317a223          	sw	a7,36(a5)

00000188 <inst_5>:
 188:	01482083          	lw	ra,20(a6)
 18c:	00205073          	fsrmi	zero,0
 190:	f00081d3          	fmv.w.x	ft3,ra
 194:	001028f3          	frflags	a7
 198:	0237a427          	fsw	ft3,40(a5)
 19c:	0317a623          	sw	a7,44(a5)

000001a0 <inst_6>:
 1a0:	01882a03          	lw	s4,24(a6)
 1a4:	00205073          	fsrmi	zero,0
 1a8:	f00a0a53          	fmv.w.x	fs4,s4
 1ac:	001028f3          	frflags	a7
 1b0:	0347a827          	fsw	fs4,48(a5)
 1b4:	0317aa23          	sw	a7,52(a5)

000001b8 <inst_7>:
 1b8:	01c82483          	lw	s1,28(a6)
 1bc:	00205073          	fsrmi	zero,0
 1c0:	f00487d3          	fmv.w.x	fa5,s1
 1c4:	001028f3          	frflags	a7
 1c8:	02f7ac27          	fsw	fa5,56(a5)
 1cc:	0317ae23          	sw	a7,60(a5)
 1d0:	00080a33          	add	s4,a6,zero
 1d4:	00001997          	auipc	s3,0x1
 1d8:	efc98993          	add	s3,s3,-260 # 10d0 <signature_x19_0>

000001dc <inst_8>:
 1dc:	020a2883          	lw	a7,32(s4)
 1e0:	00205073          	fsrmi	zero,0
 1e4:	f0088653          	fmv.w.x	fa2,a7
 1e8:	00102af3          	frflags	s5
 1ec:	00c9a027          	fsw	fa2,0(s3)
 1f0:	0159a223          	sw	s5,4(s3)
 1f4:	000a0833          	add	a6,s4,zero
 1f8:	00001797          	auipc	a5,0x1
 1fc:	ee078793          	add	a5,a5,-288 # 10d8 <signature_x15_2>

00000200 <inst_9>:
 200:	02482283          	lw	t0,36(a6)
 204:	00205073          	fsrmi	zero,0
 208:	f0028d53          	fmv.w.x	fs10,t0
 20c:	001028f3          	frflags	a7
 210:	01a7a027          	fsw	fs10,0(a5)
 214:	0117a223          	sw	a7,4(a5)

00000218 <inst_10>:
 218:	02882103          	lw	sp,40(a6)
 21c:	00205073          	fsrmi	zero,0
 220:	f0010cd3          	fmv.w.x	fs9,sp
 224:	001028f3          	frflags	a7
 228:	0197a427          	fsw	fs9,8(a5)
 22c:	0117a623          	sw	a7,12(a5)

00000230 <inst_11>:
 230:	02c82683          	lw	a3,44(a6)
 234:	00205073          	fsrmi	zero,0
 238:	f0068bd3          	fmv.w.x	fs7,a3
 23c:	001028f3          	frflags	a7
 240:	0177a827          	fsw	fs7,16(a5)
 244:	0117aa23          	sw	a7,20(a5)

00000248 <inst_12>:
 248:	03082403          	lw	s0,48(a6)
 24c:	00205073          	fsrmi	zero,0
 250:	f00406d3          	fmv.w.x	fa3,s0
 254:	001028f3          	frflags	a7
 258:	00d7ac27          	fsw	fa3,24(a5)
 25c:	0117ae23          	sw	a7,28(a5)

00000260 <inst_13>:
 260:	03482583          	lw	a1,52(a6)
 264:	00205073          	fsrmi	zero,0
 268:	f0058453          	fmv.w.x	fs0,a1
 26c:	001028f3          	frflags	a7
 270:	0287a027          	fsw	fs0,32(a5)
 274:	0317a223          	sw	a7,36(a5)

00000278 <inst_14>:
 278:	03882c83          	lw	s9,56(a6)
 27c:	00205073          	fsrmi	zero,0
 280:	f00c8953          	fmv.w.x	fs2,s9
 284:	001028f3          	frflags	a7
 288:	0327a427          	fsw	fs2,40(a5)
 28c:	0317a623          	sw	a7,44(a5)

00000290 <inst_15>:
 290:	03c82983          	lw	s3,60(a6)
 294:	00205073          	fsrmi	zero,0
 298:	f0098353          	fmv.w.x	ft6,s3
 29c:	001028f3          	frflags	a7
 2a0:	0267a827          	fsw	ft6,48(a5)
 2a4:	0317aa23          	sw	a7,52(a5)

000002a8 <inst_16>:
 2a8:	04082383          	lw	t2,64(a6)
 2ac:	00205073          	fsrmi	zero,0
 2b0:	f0038dd3          	fmv.w.x	fs11,t2
 2b4:	001028f3          	frflags	a7
 2b8:	03b7ac27          	fsw	fs11,56(a5)
 2bc:	0317ae23          	sw	a7,60(a5)

000002c0 <inst_17>:
 2c0:	04482c03          	lw	s8,68(a6)
 2c4:	00205073          	fsrmi	zero,0
 2c8:	f00c0553          	fmv.w.x	fa0,s8
 2cc:	001028f3          	frflags	a7
 2d0:	04a7a027          	fsw	fa0,64(a5)
 2d4:	0517a223          	sw	a7,68(a5)

000002d8 <inst_18>:
 2d8:	04882e83          	lw	t4,72(a6)
 2dc:	00205073          	fsrmi	zero,0
 2e0:	f00e8153          	fmv.w.x	ft2,t4
 2e4:	001028f3          	frflags	a7
 2e8:	0427a427          	fsw	ft2,72(a5)
 2ec:	0517a623          	sw	a7,76(a5)

000002f0 <inst_19>:
 2f0:	04c82f83          	lw	t6,76(a6)
 2f4:	00205073          	fsrmi	zero,0
 2f8:	f00f8253          	fmv.w.x	ft4,t6
 2fc:	001028f3          	frflags	a7
 300:	0447a827          	fsw	ft4,80(a5)
 304:	0517aa23          	sw	a7,84(a5)

00000308 <inst_20>:
 308:	05082183          	lw	gp,80(a6)
 30c:	00205073          	fsrmi	zero,0
 310:	f0018b53          	fmv.w.x	fs6,gp
 314:	001028f3          	frflags	a7
 318:	0567ac27          	fsw	fs6,88(a5)
 31c:	0517ae23          	sw	a7,92(a5)

00000320 <inst_21>:
 320:	05482e03          	lw	t3,84(a6)
 324:	00205073          	fsrmi	zero,0
 328:	f00e05d3          	fmv.w.x	fa1,t3
 32c:	001028f3          	frflags	a7
 330:	06b7a027          	fsw	fa1,96(a5)
 334:	0717a223          	sw	a7,100(a5)

00000338 <inst_22>:
 338:	05882703          	lw	a4,88(a6)
 33c:	00205073          	fsrmi	zero,0
 340:	f0070fd3          	fmv.w.x	ft11,a4
 344:	001028f3          	frflags	a7
 348:	07f7a427          	fsw	ft11,104(a5)
 34c:	0717a623          	sw	a7,108(a5)

00000350 <inst_23>:
 350:	05c82603          	lw	a2,92(a6)
 354:	00205073          	fsrmi	zero,0
 358:	f00600d3          	fmv.w.x	ft1,a2
 35c:	001028f3          	frflags	a7
 360:	0617a827          	fsw	ft1,112(a5)
 364:	0717aa23          	sw	a7,116(a5)

00000368 <inst_24>:
 368:	06082f03          	lw	t5,96(a6)
 36c:	00205073          	fsrmi	zero,0
 370:	f00f09d3          	fmv.w.x	fs3,t5
 374:	001028f3          	frflags	a7
 378:	0737ac27          	fsw	fs3,120(a5)
 37c:	0717ae23          	sw	a7,124(a5)

00000380 <inst_25>:
 380:	06482b83          	lw	s7,100(a6)
 384:	00205073          	fsrmi	zero,0
 388:	f00b8ed3          	fmv.w.x	ft9,s7
 38c:	001028f3          	frflags	a7
 390:	09d7a027          	fsw	ft9,128(a5)
 394:	0917a223          	sw	a7,132(a5)

00000398 <inst_26>:
 398:	06882903          	lw	s2,104(a6)
 39c:	00205073          	fsrmi	zero,0
 3a0:	f0090e53          	fmv.w.x	ft8,s2
 3a4:	001028f3          	frflags	a7
 3a8:	09c7a427          	fsw	ft8,136(a5)
 3ac:	0917a623          	sw	a7,140(a5)
 3b0:	00080a33          	add	s4,a6,zero
 3b4:	00001997          	auipc	s3,0x1
 3b8:	db498993          	add	s3,s3,-588 # 1168 <signature_x19_1>

000003bc <inst_27>:
 3bc:	06ca2783          	lw	a5,108(s4)
 3c0:	00205073          	fsrmi	zero,0
 3c4:	f0078c53          	fmv.w.x	fs8,a5
 3c8:	00102af3          	frflags	s5
 3cc:	0189a027          	fsw	fs8,0(s3)
 3d0:	0159a223          	sw	s5,4(s3)
 3d4:	000a0833          	add	a6,s4,zero
 3d8:	00001797          	auipc	a5,0x1
 3dc:	d9878793          	add	a5,a5,-616 # 1170 <signature_x15_3>

000003e0 <inst_28>:
 3e0:	07082203          	lw	tp,112(a6)
 3e4:	00205073          	fsrmi	zero,0
 3e8:	f00203d3          	fmv.w.x	ft7,tp
 3ec:	001028f3          	frflags	a7
 3f0:	0077a027          	fsw	ft7,0(a5)
 3f4:	0117a223          	sw	a7,4(a5)

000003f8 <inst_29>:
 3f8:	07482b03          	lw	s6,116(a6)
 3fc:	00205073          	fsrmi	zero,0
 400:	f00b0ad3          	fmv.w.x	fs5,s6
 404:	001028f3          	frflags	a7
 408:	0157a427          	fsw	fs5,8(a5)
 40c:	0117a623          	sw	a7,12(a5)

00000410 <inst_30>:
 410:	07882d83          	lw	s11,120(a6)
 414:	00205073          	fsrmi	zero,0
 418:	f00d8f53          	fmv.w.x	ft10,s11
 41c:	001028f3          	frflags	a7
 420:	01e7a827          	fsw	ft10,16(a5)
 424:	0117aa23          	sw	a7,20(a5)
 428:	00080a33          	add	s4,a6,zero
 42c:	00001997          	auipc	s3,0x1
 430:	d5c98993          	add	s3,s3,-676 # 1188 <signature_x19_2>

00000434 <inst_31>:
 434:	07ca2803          	lw	a6,124(s4)
 438:	00205073          	fsrmi	zero,0
 43c:	f00804d3          	fmv.w.x	fs1,a6
 440:	00102af3          	frflags	s5
 444:	0099a027          	fsw	fs1,0(s3)
 448:	0159a223          	sw	s5,4(s3)
 44c:	000a0833          	add	a6,s4,zero
 450:	00001797          	auipc	a5,0x1
 454:	d4078793          	add	a5,a5,-704 # 1190 <signature_x15_4>

00000458 <inst_32>:
 458:	08082503          	lw	a0,128(a6)
 45c:	00205073          	fsrmi	zero,0
 460:	f00505d3          	fmv.w.x	fa1,a0
 464:	001028f3          	frflags	a7
 468:	00b7a027          	fsw	fa1,0(a5)
 46c:	0117a223          	sw	a7,4(a5)

00000470 <rvtest_code_end>:
 470:	00001517          	auipc	a0,0x1
 474:	c2050513          	add	a0,a0,-992 # 1090 <data_begin>
 478:	00001597          	auipc	a1,0x1
 47c:	d2858593          	add	a1,a1,-728 # 11a0 <_end>
 480:	80001637          	lui	a2,0x80001
 484:	00860613          	add	a2,a2,8 # 80001008 <_end+0x7ffffe68>

00000488 <compliance_halt_loop>:
 488:	06b50063          	beq	a0,a1,4e8 <compliance_halt_break>
 48c:	00450693          	add	a3,a0,4

00000490 <compliance_halt_loop2>:
 490:	fff68693          	add	a3,a3,-1
 494:	00068703          	lb	a4,0(a3)
 498:	40475793          	sra	a5,a4,0x4
 49c:	00f7f793          	and	a5,a5,15
 4a0:	00a00813          	li	a6,10
 4a4:	0107c463          	blt	a5,a6,4ac <notLetter>
 4a8:	02778793          	add	a5,a5,39

000004ac <notLetter>:
 4ac:	03078793          	add	a5,a5,48
 4b0:	00f60023          	sb	a5,0(a2)
 4b4:	40075793          	sra	a5,a4,0x0
 4b8:	00f7f793          	and	a5,a5,15
 4bc:	00a00813          	li	a6,10
 4c0:	0107c463          	blt	a5,a6,4c8 <notLetter2>
 4c4:	02778793          	add	a5,a5,39

000004c8 <notLetter2>:
 4c8:	03078793          	add	a5,a5,48
 4cc:	00f60023          	sb	a5,0(a2)
 4d0:	fcd510e3          	bne	a0,a3,490 <compliance_halt_loop2>
 4d4:	00450513          	add	a0,a0,4
 4d8:	00a00713          	li	a4,10
 4dc:	00e60023          	sb	a4,0(a2)
 4e0:	fa9ff06f          	j	488 <compliance_halt_loop>
 4e4:	0040006f          	j	4e8 <compliance_halt_break>

000004e8 <compliance_halt_break>:
 4e8:	80001537          	lui	a0,0x80001
 4ec:	00950513          	add	a0,a0,9 # 80001009 <_end+0x7ffffe69>
 4f0:	00d50023          	sb	a3,0(a0)
 4f4:	0000                	.2byte	0x0
	...

Desensamblado de la sección .data:

00001000 <rvtest_data_begin>:
    1000:	cafe                	.2byte	0xcafe
    1002:	babe                	.2byte	0xbabe

00001004 <test_fp>:
    1004:	0000                	.2byte	0x0
    1006:	0000                	.2byte	0x0
    1008:	47a0                	.2byte	0x47a0
    100a:	b6dc                	.2byte	0xb6dc
    100c:	0000                	.2byte	0x0
    100e:	0000                	.2byte	0x0
    1010:	0001                	.2byte	0x1
    1012:	8000                	.2byte	0x8000
    1014:	ffff                	.2byte	0xffff
    1016:	7fff                	.2byte	0x7fff
    1018:	ffff                	.2byte	0xffff
    101a:	ffff                	.2byte	0xffff
    101c:	0001                	.2byte	0x1
	...
    1082:	0000                	.2byte	0x0
    1084:	b860                	.2byte	0xb860
    1086:	          	.4byte	0x4923

00001088 <rvtest_data_end>:
	...

00001090 <data_begin>:
    1090:	deadbeef          	jal	t4,fffdc67a <_end+0xfffdb4da>
    1094:	deadbeef          	jal	t4,fffdc67e <_end+0xfffdb4de>
    1098:	deadbeef          	jal	t4,fffdc682 <_end+0xfffdb4e2>
    109c:	deadbeef          	jal	t4,fffdc686 <_end+0xfffdb4e6>
    10a0:	deadbeef          	jal	t4,fffdc68a <_end+0xfffdb4ea>
    10a4:	deadbeef          	jal	t4,fffdc68e <_end+0xfffdb4ee>
    10a8:	deadbeef          	jal	t4,fffdc692 <_end+0xfffdb4f2>
    10ac:	deadbeef          	jal	t4,fffdc696 <_end+0xfffdb4f6>
    10b0:	deadbeef          	jal	t4,fffdc69a <_end+0xfffdb4fa>
    10b4:	deadbeef          	jal	t4,fffdc69e <_end+0xfffdb4fe>
    10b8:	deadbeef          	jal	t4,fffdc6a2 <_end+0xfffdb502>
    10bc:	deadbeef          	jal	t4,fffdc6a6 <_end+0xfffdb506>
    10c0:	deadbeef          	jal	t4,fffdc6aa <_end+0xfffdb50a>
    10c4:	deadbeef          	jal	t4,fffdc6ae <_end+0xfffdb50e>
    10c8:	deadbeef          	jal	t4,fffdc6b2 <_end+0xfffdb512>
    10cc:	deadbeef          	jal	t4,fffdc6b6 <_end+0xfffdb516>

000010d0 <signature_x19_0>:
    10d0:	deadbeef          	jal	t4,fffdc6ba <_end+0xfffdb51a>
    10d4:	deadbeef          	jal	t4,fffdc6be <_end+0xfffdb51e>

000010d8 <signature_x15_2>:
    10d8:	deadbeef          	jal	t4,fffdc6c2 <_end+0xfffdb522>
    10dc:	deadbeef          	jal	t4,fffdc6c6 <_end+0xfffdb526>
    10e0:	deadbeef          	jal	t4,fffdc6ca <_end+0xfffdb52a>
    10e4:	deadbeef          	jal	t4,fffdc6ce <_end+0xfffdb52e>
    10e8:	deadbeef          	jal	t4,fffdc6d2 <_end+0xfffdb532>
    10ec:	deadbeef          	jal	t4,fffdc6d6 <_end+0xfffdb536>
    10f0:	deadbeef          	jal	t4,fffdc6da <_end+0xfffdb53a>
    10f4:	deadbeef          	jal	t4,fffdc6de <_end+0xfffdb53e>
    10f8:	deadbeef          	jal	t4,fffdc6e2 <_end+0xfffdb542>
    10fc:	deadbeef          	jal	t4,fffdc6e6 <_end+0xfffdb546>
    1100:	deadbeef          	jal	t4,fffdc6ea <_end+0xfffdb54a>
    1104:	deadbeef          	jal	t4,fffdc6ee <_end+0xfffdb54e>
    1108:	deadbeef          	jal	t4,fffdc6f2 <_end+0xfffdb552>
    110c:	deadbeef          	jal	t4,fffdc6f6 <_end+0xfffdb556>
    1110:	deadbeef          	jal	t4,fffdc6fa <_end+0xfffdb55a>
    1114:	deadbeef          	jal	t4,fffdc6fe <_end+0xfffdb55e>
    1118:	deadbeef          	jal	t4,fffdc702 <_end+0xfffdb562>
    111c:	deadbeef          	jal	t4,fffdc706 <_end+0xfffdb566>
    1120:	deadbeef          	jal	t4,fffdc70a <_end+0xfffdb56a>
    1124:	deadbeef          	jal	t4,fffdc70e <_end+0xfffdb56e>
    1128:	deadbeef          	jal	t4,fffdc712 <_end+0xfffdb572>
    112c:	deadbeef          	jal	t4,fffdc716 <_end+0xfffdb576>
    1130:	deadbeef          	jal	t4,fffdc71a <_end+0xfffdb57a>
    1134:	deadbeef          	jal	t4,fffdc71e <_end+0xfffdb57e>
    1138:	deadbeef          	jal	t4,fffdc722 <_end+0xfffdb582>
    113c:	deadbeef          	jal	t4,fffdc726 <_end+0xfffdb586>
    1140:	deadbeef          	jal	t4,fffdc72a <_end+0xfffdb58a>
    1144:	deadbeef          	jal	t4,fffdc72e <_end+0xfffdb58e>
    1148:	deadbeef          	jal	t4,fffdc732 <_end+0xfffdb592>
    114c:	deadbeef          	jal	t4,fffdc736 <_end+0xfffdb596>
    1150:	deadbeef          	jal	t4,fffdc73a <_end+0xfffdb59a>
    1154:	deadbeef          	jal	t4,fffdc73e <_end+0xfffdb59e>
    1158:	deadbeef          	jal	t4,fffdc742 <_end+0xfffdb5a2>
    115c:	deadbeef          	jal	t4,fffdc746 <_end+0xfffdb5a6>
    1160:	deadbeef          	jal	t4,fffdc74a <_end+0xfffdb5aa>
    1164:	deadbeef          	jal	t4,fffdc74e <_end+0xfffdb5ae>

00001168 <signature_x19_1>:
    1168:	deadbeef          	jal	t4,fffdc752 <_end+0xfffdb5b2>
    116c:	deadbeef          	jal	t4,fffdc756 <_end+0xfffdb5b6>

00001170 <signature_x15_3>:
    1170:	deadbeef          	jal	t4,fffdc75a <_end+0xfffdb5ba>
    1174:	deadbeef          	jal	t4,fffdc75e <_end+0xfffdb5be>
    1178:	deadbeef          	jal	t4,fffdc762 <_end+0xfffdb5c2>
    117c:	deadbeef          	jal	t4,fffdc766 <_end+0xfffdb5c6>
    1180:	deadbeef          	jal	t4,fffdc76a <_end+0xfffdb5ca>
    1184:	deadbeef          	jal	t4,fffdc76e <_end+0xfffdb5ce>

00001188 <signature_x19_2>:
    1188:	deadbeef          	jal	t4,fffdc772 <_end+0xfffdb5d2>
    118c:	deadbeef          	jal	t4,fffdc776 <_end+0xfffdb5d6>

00001190 <signature_x15_4>:
    1190:	deadbeef          	jal	t4,fffdc77a <_end+0xfffdb5da>
    1194:	deadbeef          	jal	t4,fffdc77e <_end+0xfffdb5de>
	...

Desensamblado de la sección .riscv.attributes:

00000000 <.riscv.attributes>:
   0:	2241                	.2byte	0x2241
   2:	0000                	.2byte	0x0
   4:	7200                	.2byte	0x7200
   6:	7369                	.2byte	0x7369
   8:	01007663          	bgeu	zero,a6,14 <offset+0xc>
   c:	0018                	.2byte	0x18
   e:	0000                	.2byte	0x0
  10:	7205                	.2byte	0x7205
  12:	3376                	.2byte	0x3376
  14:	6932                	.2byte	0x6932
  16:	7032                	.2byte	0x7032
  18:	5f30                	.2byte	0x5f30
  1a:	3266                	.2byte	0x3266
  1c:	3070                	.2byte	0x3070
  1e:	0800                	.2byte	0x800
  20:	0a01                	.2byte	0xa01
  22:	0b              	Address 0x22 is out of bounds.

