
/home/alejandro/Escritorio/test_riscv2.5/riscv-compliance/work/rv32i_m/F/fnmadd_b2-01.elf:     formato del fichero elf32-littleriscv


Desensamblado de la sección .text.init:

00000000 <rvtest_entry_point>:
       0:	feedc0b7          	lui	ra,0xfeedc
       4:	ead08093          	add	ra,ra,-339 # feedbead <_end+0xfeed786d>
       8:	ff76e137          	lui	sp,0xff76e
       c:	f5610113          	add	sp,sp,-170 # ff76df56 <_end+0xff769916>
      10:	7fbb71b7          	lui	gp,0x7fbb7
      14:	fab18193          	add	gp,gp,-85 # 7fbb6fab <_end+0x7fbb296b>
      18:	bfddb237          	lui	tp,0xbfddb
      1c:	7d520213          	add	tp,tp,2005 # bfddb7d5 <_end+0xbfdd7195>
      20:	00000297          	auipc	t0,0x0
      24:	0d828293          	add	t0,t0,216 # f8 <rvtest_code_begin>
      28:	00003317          	auipc	t1,0x3
      2c:	fd830313          	add	t1,t1,-40 # 3000 <rvtest_data_begin>
      30:	b7fbb3b7          	lui	t2,0xb7fbb
      34:	6fa38393          	add	t2,t2,1786 # b7fbb6fa <_end+0xb7fb70ba>
      38:	5bfde437          	lui	s0,0x5bfde
      3c:	b7d40413          	add	s0,s0,-1155 # 5bfddb7d <_end+0x5bfd953d>
      40:	adfef4b7          	lui	s1,0xadfef
      44:	dbe48493          	add	s1,s1,-578 # adfeedbe <_end+0xadfea77e>
      48:	56ff7537          	lui	a0,0x56ff7
      4c:	6df50513          	add	a0,a0,1759 # 56ff76df <_end+0x56ff309f>
      50:	ab7fc5b7          	lui	a1,0xab7fc
      54:	b6f58593          	add	a1,a1,-1169 # ab7fbb6f <_end+0xab7f752f>
      58:	d5bfe637          	lui	a2,0xd5bfe
      5c:	db760613          	add	a2,a2,-585 # d5bfddb7 <_end+0xd5bf9777>
      60:	eadff6b7          	lui	a3,0xeadff
      64:	edb68693          	add	a3,a3,-293 # eadfeedb <_end+0xeadfa89b>
      68:	f56ff737          	lui	a4,0xf56ff
      6c:	76d70713          	add	a4,a4,1901 # f56ff76d <_end+0xf56fb12d>
      70:	fab807b7          	lui	a5,0xfab80
      74:	bb678793          	add	a5,a5,-1098 # fab7fbb6 <_end+0xfab7b576>
      78:	7d5c0837          	lui	a6,0x7d5c0
      7c:	ddb80813          	add	a6,a6,-549 # 7d5bfddb <_end+0x7d5bb79b>
      80:	beae08b7          	lui	a7,0xbeae0
      84:	eed88893          	add	a7,a7,-275 # beadfeed <_end+0xbeadb8ad>
      88:	df570937          	lui	s2,0xdf570
      8c:	f7690913          	add	s2,s2,-138 # df56ff76 <_end+0xdf56b936>
      90:	6fab89b7          	lui	s3,0x6fab8
      94:	fbb98993          	add	s3,s3,-69 # 6fab7fbb <_end+0x6fab397b>
      98:	b7d5ca37          	lui	s4,0xb7d5c
      9c:	fdda0a13          	add	s4,s4,-35 # b7d5bfdd <_end+0xb7d5799d>
      a0:	dbeaeab7          	lui	s5,0xdbeae
      a4:	feea8a93          	add	s5,s5,-18 # dbeadfee <_end+0xdbea99ae>
      a8:	6df57b37          	lui	s6,0x6df57
      ac:	ff7b0b13          	add	s6,s6,-9 # 6df56ff7 <_end+0x6df529b7>
      b0:	b6fabbb7          	lui	s7,0xb6fab
      b4:	7fbb8b93          	add	s7,s7,2043 # b6fab7fb <_end+0xb6fa71bb>
      b8:	db7d6c37          	lui	s8,0xdb7d6
      bc:	bfdc0c13          	add	s8,s8,-1027 # db7d5bfd <_end+0xdb7d15bd>
      c0:	edbebcb7          	lui	s9,0xedbeb
      c4:	dfec8c93          	add	s9,s9,-514 # edbeadfe <_end+0xedbe67be>
      c8:	76df5d37          	lui	s10,0x76df5
      cc:	6ffd0d13          	add	s10,s10,1791 # 76df56ff <_end+0x76df10bf>
      d0:	bb6fbdb7          	lui	s11,0xbb6fb
      d4:	b7fd8d93          	add	s11,s11,-1153 # bb6fab7f <_end+0xbb6f653f>
      d8:	ddb7de37          	lui	t3,0xddb7d
      dc:	5bfe0e13          	add	t3,t3,1471 # ddb7d5bf <_end+0xddb78f7f>
      e0:	eedbfeb7          	lui	t4,0xeedbf
      e4:	adfe8e93          	add	t4,t4,-1313 # eedbeadf <_end+0xeedba49f>
      e8:	f76dff37          	lui	t5,0xf76df
      ec:	56ff0f13          	add	t5,t5,1391 # f76df56f <_end+0xf76daf2f>
      f0:	fbb70fb7          	lui	t6,0xfbb70
      f4:	ab7f8f93          	add	t6,t6,-1353 # fbb6fab7 <_end+0xfbb6b477>

000000f8 <rvtest_code_begin>:
      f8:	00002537          	lui	a0,0x2
      fc:	30052073          	csrs	mstatus,a0
     100:	00003817          	auipc	a6,0x3
     104:	f0480813          	add	a6,a6,-252 # 3004 <test_fp>
     108:	00004797          	auipc	a5,0x4
     10c:	c5878793          	add	a5,a5,-936 # 3d60 <data_begin>

00000110 <inst_0>:
     110:	00082387          	flw	ft7,0(a6)
     114:	00482d87          	flw	fs11,4(a6)
     118:	00882e07          	flw	ft8,8(a6)
     11c:	00205073          	fsrmi	zero,0
     120:	e1b3fdcf          	fnmadd.s	fs11,ft7,fs11,ft8
     124:	001028f3          	frflags	a7
     128:	01b7a027          	fsw	fs11,0(a5)
     12c:	0117a223          	sw	a7,4(a5)

00000130 <inst_1>:
     130:	00c82a07          	flw	fs4,12(a6)
     134:	01082387          	flw	ft7,16(a6)
     138:	01482807          	flw	fa6,20(a6)
     13c:	00205073          	fsrmi	zero,0
     140:	807a7a4f          	fnmadd.s	fs4,fs4,ft7,fa6
     144:	001028f3          	frflags	a7
     148:	0147a427          	fsw	fs4,8(a5)
     14c:	0117a623          	sw	a7,12(a5)

00000150 <inst_2>:
     150:	01882c07          	flw	fs8,24(a6)
     154:	01c82c07          	flw	fs8,28(a6)
     158:	02082c87          	flw	fs9,32(a6)
     15c:	00205073          	fsrmi	zero,0
     160:	c98c7c4f          	fnmadd.s	fs8,fs8,fs8,fs9
     164:	001028f3          	frflags	a7
     168:	0187a827          	fsw	fs8,16(a5)
     16c:	0117aa23          	sw	a7,20(a5)

00000170 <inst_3>:
     170:	02482407          	flw	fs0,36(a6)
     174:	02882787          	flw	fa5,40(a6)
     178:	02c82107          	flw	ft2,44(a6)
     17c:	00205073          	fsrmi	zero,0
     180:	10f4734f          	fnmadd.s	ft6,fs0,fa5,ft2
     184:	001028f3          	frflags	a7
     188:	0067ac27          	fsw	ft6,24(a5)
     18c:	0117ae23          	sw	a7,28(a5)

00000190 <inst_4>:
     190:	03082d87          	flw	fs11,48(a6)
     194:	03482607          	flw	fa2,52(a6)
     198:	03882607          	flw	fa2,56(a6)
     19c:	00205073          	fsrmi	zero,0
     1a0:	60cdf64f          	fnmadd.s	fa2,fs11,fa2,fa2
     1a4:	001028f3          	frflags	a7
     1a8:	02c7a027          	fsw	fa2,32(a5)
     1ac:	0317a223          	sw	a7,36(a5)

000001b0 <inst_5>:
     1b0:	03c82f87          	flw	ft11,60(a6)
     1b4:	04082f87          	flw	ft11,64(a6)
     1b8:	04482f87          	flw	ft11,68(a6)
     1bc:	00205073          	fsrmi	zero,0
     1c0:	f9fff9cf          	fnmadd.s	fs3,ft11,ft11,ft11
     1c4:	001028f3          	frflags	a7
     1c8:	0337a427          	fsw	fs3,40(a5)
     1cc:	0317a623          	sw	a7,44(a5)

000001d0 <inst_6>:
     1d0:	04882b07          	flw	fs6,72(a6)
     1d4:	04c82b07          	flw	fs6,76(a6)
     1d8:	05082b07          	flw	fs6,80(a6)
     1dc:	00205073          	fsrmi	zero,0
     1e0:	b16b7b4f          	fnmadd.s	fs6,fs6,fs6,fs6
     1e4:	001028f3          	frflags	a7
     1e8:	0367a827          	fsw	fs6,48(a5)
     1ec:	0317aa23          	sw	a7,52(a5)

000001f0 <inst_7>:
     1f0:	05482007          	flw	ft0,84(a6)
     1f4:	05882487          	flw	fs1,88(a6)
     1f8:	05c82007          	flw	ft0,92(a6)
     1fc:	00205073          	fsrmi	zero,0
     200:	009071cf          	fnmadd.s	ft3,ft0,fs1,ft0
     204:	001028f3          	frflags	a7
     208:	0237ac27          	fsw	ft3,56(a5)
     20c:	0317ae23          	sw	a7,60(a5)

00000210 <inst_8>:
     210:	06082607          	flw	fa2,96(a6)
     214:	06482307          	flw	ft6,100(a6)
     218:	06882307          	flw	ft6,104(a6)
     21c:	00205073          	fsrmi	zero,0
     220:	30667fcf          	fnmadd.s	ft11,fa2,ft6,ft6
     224:	001028f3          	frflags	a7
     228:	05f7a027          	fsw	ft11,64(a5)
     22c:	0517a223          	sw	a7,68(a5)

00000230 <inst_9>:
     230:	06c82287          	flw	ft5,108(a6)
     234:	07082187          	flw	ft3,112(a6)
     238:	07482387          	flw	ft7,116(a6)
     23c:	00205073          	fsrmi	zero,0
     240:	3832f3cf          	fnmadd.s	ft7,ft5,ft3,ft7
     244:	001028f3          	frflags	a7
     248:	0477a427          	fsw	ft7,72(a5)
     24c:	0517a623          	sw	a7,76(a5)

00000250 <inst_10>:
     250:	07882687          	flw	fa3,120(a6)
     254:	07c82687          	flw	fa3,124(a6)
     258:	08082d87          	flw	fs11,128(a6)
     25c:	00205073          	fsrmi	zero,0
     260:	d8d6ff4f          	fnmadd.s	ft10,fa3,fa3,fs11
     264:	001028f3          	frflags	a7
     268:	05e7a827          	fsw	ft10,80(a5)
     26c:	0517aa23          	sw	a7,84(a5)

00000270 <inst_11>:
     270:	08482907          	flw	fs2,132(a6)
     274:	08882807          	flw	fa6,136(a6)
     278:	08c82907          	flw	fs2,140(a6)
     27c:	00205073          	fsrmi	zero,0
     280:	9109794f          	fnmadd.s	fs2,fs2,fa6,fs2
     284:	001028f3          	frflags	a7
     288:	0527ac27          	fsw	fs2,88(a5)
     28c:	0517ae23          	sw	a7,92(a5)

00000290 <inst_12>:
     290:	09082107          	flw	ft2,144(a6)
     294:	09482087          	flw	ft1,148(a6)
     298:	09882507          	flw	fa0,152(a6)
     29c:	00205073          	fsrmi	zero,0
     2a0:	5011774f          	fnmadd.s	fa4,ft2,ft1,fa0
     2a4:	001028f3          	frflags	a7
     2a8:	06e7a027          	fsw	fa4,96(a5)
     2ac:	0717a223          	sw	a7,100(a5)

000002b0 <inst_13>:
     2b0:	09c82487          	flw	fs1,156(a6)
     2b4:	0a082b87          	flw	fs7,160(a6)
     2b8:	0a482987          	flw	fs3,164(a6)
     2bc:	00205073          	fsrmi	zero,0
     2c0:	9974f24f          	fnmadd.s	ft4,fs1,fs7,fs3
     2c4:	001028f3          	frflags	a7
     2c8:	0647a427          	fsw	ft4,104(a5)
     2cc:	0717a623          	sw	a7,108(a5)

000002d0 <inst_14>:
     2d0:	0a882307          	flw	ft6,168(a6)
     2d4:	0ac82707          	flw	fa4,172(a6)
     2d8:	0b082487          	flw	fs1,176(a6)
     2dc:	00205073          	fsrmi	zero,0
     2e0:	48e372cf          	fnmadd.s	ft5,ft6,fa4,fs1
     2e4:	001028f3          	frflags	a7
     2e8:	0657a827          	fsw	ft5,112(a5)
     2ec:	0717aa23          	sw	a7,116(a5)

000002f0 <inst_15>:
     2f0:	0b482987          	flw	fs3,180(a6)
     2f4:	0b882d07          	flw	fs10,184(a6)
     2f8:	0bc82f07          	flw	ft10,188(a6)
     2fc:	00205073          	fsrmi	zero,0
     300:	f1a9fecf          	fnmadd.s	ft9,fs3,fs10,ft10
     304:	001028f3          	frflags	a7
     308:	07d7ac27          	fsw	ft9,120(a5)
     30c:	0717ae23          	sw	a7,124(a5)

00000310 <inst_16>:
     310:	0c082207          	flw	ft4,192(a6)
     314:	0c482887          	flw	fa7,196(a6)
     318:	0c882787          	flw	fa5,200(a6)
     31c:	00205073          	fsrmi	zero,0
     320:	7912714f          	fnmadd.s	ft2,ft4,fa7,fa5
     324:	001028f3          	frflags	a7
     328:	0827a027          	fsw	ft2,128(a5)
     32c:	0917a223          	sw	a7,132(a5)

00000330 <inst_17>:
     330:	0cc82e07          	flw	ft8,204(a6)
     334:	0d082907          	flw	fs2,208(a6)
     338:	0d482a07          	flw	fs4,212(a6)
     33c:	00205073          	fsrmi	zero,0
     340:	a12e784f          	fnmadd.s	fa6,ft8,fs2,fs4
     344:	001028f3          	frflags	a7
     348:	0907a427          	fsw	fa6,136(a5)
     34c:	0917a623          	sw	a7,140(a5)

00000350 <inst_18>:
     350:	0d882087          	flw	ft1,216(a6)
     354:	0dc82007          	flw	ft0,220(a6)
     358:	0e082b87          	flw	fs7,224(a6)
     35c:	00205073          	fsrmi	zero,0
     360:	b800f8cf          	fnmadd.s	fa7,ft1,ft0,fs7
     364:	001028f3          	frflags	a7
     368:	0917a827          	fsw	fa7,144(a5)
     36c:	0917aa23          	sw	a7,148(a5)

00000370 <inst_19>:
     370:	0e482b87          	flw	fs7,228(a6)
     374:	0e882e87          	flw	ft9,232(a6)
     378:	0ec82a87          	flw	fs5,236(a6)
     37c:	00205073          	fsrmi	zero,0
     380:	a9dbfe4f          	fnmadd.s	ft8,fs7,ft9,fs5
     384:	001028f3          	frflags	a7
     388:	09c7ac27          	fsw	ft8,152(a5)
     38c:	0917ae23          	sw	a7,156(a5)

00000390 <inst_20>:
     390:	0f082f07          	flw	ft10,240(a6)
     394:	0f482c87          	flw	fs9,244(a6)
     398:	0f882707          	flw	fa4,248(a6)
     39c:	00205073          	fsrmi	zero,0
     3a0:	719f70cf          	fnmadd.s	ft1,ft10,fs9,fa4
     3a4:	001028f3          	frflags	a7
     3a8:	0a17a027          	fsw	ft1,160(a5)
     3ac:	0b17a223          	sw	a7,164(a5)

000003b0 <inst_21>:
     3b0:	0fc82707          	flw	fa4,252(a6)
     3b4:	10082587          	flw	fa1,256(a6)
     3b8:	10482087          	flw	ft1,260(a6)
     3bc:	00205073          	fsrmi	zero,0
     3c0:	08b77bcf          	fnmadd.s	fs7,fa4,fa1,ft1
     3c4:	001028f3          	frflags	a7
     3c8:	0b77a427          	fsw	fs7,168(a5)
     3cc:	0b17a623          	sw	a7,172(a5)

000003d0 <inst_22>:
     3d0:	10882587          	flw	fa1,264(a6)
     3d4:	10c82e07          	flw	ft8,268(a6)
     3d8:	11082887          	flw	fa7,272(a6)
     3dc:	00205073          	fsrmi	zero,0
     3e0:	89c5facf          	fnmadd.s	fs5,fa1,ft8,fa7
     3e4:	001028f3          	frflags	a7
     3e8:	0b57a827          	fsw	fs5,176(a5)
     3ec:	0b17aa23          	sw	a7,180(a5)

000003f0 <inst_23>:
     3f0:	11482c87          	flw	fs9,276(a6)
     3f4:	11882287          	flw	ft5,280(a6)
     3f8:	11c82687          	flw	fa3,284(a6)
     3fc:	00205073          	fsrmi	zero,0
     400:	685cf5cf          	fnmadd.s	fa1,fs9,ft5,fa3
     404:	001028f3          	frflags	a7
     408:	0ab7ac27          	fsw	fa1,184(a5)
     40c:	0b17ae23          	sw	a7,188(a5)

00000410 <inst_24>:
     410:	12082507          	flw	fa0,288(a6)
     414:	12482a07          	flw	fs4,292(a6)
     418:	12882207          	flw	ft4,296(a6)
     41c:	00205073          	fsrmi	zero,0
     420:	214574cf          	fnmadd.s	fs1,fa0,fs4,ft4
     424:	001028f3          	frflags	a7
     428:	0c97a027          	fsw	fs1,192(a5)
     42c:	0d17a223          	sw	a7,196(a5)

00000430 <inst_25>:
     430:	12c82807          	flw	fa6,300(a6)
     434:	13082407          	flw	fs0,304(a6)
     438:	13482e87          	flw	ft9,308(a6)
     43c:	00205073          	fsrmi	zero,0
     440:	e888754f          	fnmadd.s	fa0,fa6,fs0,ft9
     444:	001028f3          	frflags	a7
     448:	0ca7a427          	fsw	fa0,200(a5)
     44c:	0d17a623          	sw	a7,204(a5)

00000450 <inst_26>:
     450:	13882a87          	flw	fs5,312(a6)
     454:	13c82f07          	flw	ft10,316(a6)
     458:	14082407          	flw	fs0,320(a6)
     45c:	00205073          	fsrmi	zero,0
     460:	41eaf6cf          	fnmadd.s	fa3,fs5,ft10,fs0
     464:	001028f3          	frflags	a7
     468:	0cd7a827          	fsw	fa3,208(a5)
     46c:	0d17aa23          	sw	a7,212(a5)

00000470 <inst_27>:
     470:	14482e87          	flw	ft9,324(a6)
     474:	14882207          	flw	ft4,328(a6)
     478:	14c82187          	flw	ft3,332(a6)
     47c:	00205073          	fsrmi	zero,0
     480:	184ef04f          	fnmadd.s	ft0,ft9,ft4,ft3
     484:	001028f3          	frflags	a7
     488:	0c07ac27          	fsw	ft0,216(a5)
     48c:	0d17ae23          	sw	a7,220(a5)

00000490 <inst_28>:
     490:	15082887          	flw	fa7,336(a6)
     494:	15482507          	flw	fa0,340(a6)
     498:	15882287          	flw	ft5,344(a6)
     49c:	00205073          	fsrmi	zero,0
     4a0:	28a8f44f          	fnmadd.s	fs0,fa7,fa0,ft5
     4a4:	001028f3          	frflags	a7
     4a8:	0e87a027          	fsw	fs0,224(a5)
     4ac:	0f17a223          	sw	a7,228(a5)

000004b0 <inst_29>:
     4b0:	15c82d07          	flw	fs10,348(a6)
     4b4:	16082107          	flw	ft2,352(a6)
     4b8:	16482587          	flw	fa1,356(a6)
     4bc:	00205073          	fsrmi	zero,0
     4c0:	582d7ccf          	fnmadd.s	fs9,fs10,ft2,fa1
     4c4:	001028f3          	frflags	a7
     4c8:	0f97a427          	fsw	fs9,232(a5)
     4cc:	0f17a623          	sw	a7,236(a5)

000004d0 <inst_30>:
     4d0:	16882187          	flw	ft3,360(a6)
     4d4:	16c82987          	flw	fs3,364(a6)
     4d8:	17082c07          	flw	fs8,368(a6)
     4dc:	00205073          	fsrmi	zero,0
     4e0:	c131f7cf          	fnmadd.s	fa5,ft3,fs3,fs8
     4e4:	001028f3          	frflags	a7
     4e8:	0ef7a827          	fsw	fa5,240(a5)
     4ec:	0f17aa23          	sw	a7,244(a5)

000004f0 <inst_31>:
     4f0:	17482787          	flw	fa5,372(a6)
     4f4:	17882087          	flw	ft1,376(a6)
     4f8:	17c82487          	flw	fs1,380(a6)
     4fc:	00205073          	fsrmi	zero,0
     500:	4817fb4f          	fnmadd.s	fs6,fa5,ft1,fs1
     504:	001028f3          	frflags	a7
     508:	0f67ac27          	fsw	fs6,248(a5)
     50c:	0f17ae23          	sw	a7,252(a5)

00000510 <inst_32>:
     510:	18082b07          	flw	fs6,384(a6)
     514:	18482a87          	flw	fs5,388(a6)
     518:	18882387          	flw	ft7,392(a6)
     51c:	00205073          	fsrmi	zero,0
     520:	395b7ccf          	fnmadd.s	fs9,fs6,fs5,ft7
     524:	001028f3          	frflags	a7
     528:	1197a027          	fsw	fs9,256(a5)
     52c:	1117a223          	sw	a7,260(a5)

00000530 <inst_33>:
     530:	18c82907          	flw	fs2,396(a6)
     534:	19082c07          	flw	fs8,400(a6)
     538:	19482d07          	flw	fs10,404(a6)
     53c:	00205073          	fsrmi	zero,0
     540:	d18977cf          	fnmadd.s	fa5,fs2,fs8,fs10
     544:	001028f3          	frflags	a7
     548:	10f7a427          	fsw	fa5,264(a5)
     54c:	1117a623          	sw	a7,268(a5)

00000550 <inst_34>:
     550:	19882b07          	flw	fs6,408(a6)
     554:	19c82807          	flw	fa6,412(a6)
     558:	1a082d87          	flw	fs11,416(a6)
     55c:	00205073          	fsrmi	zero,0
     560:	d90b7d4f          	fnmadd.s	fs10,fs6,fa6,fs11
     564:	001028f3          	frflags	a7
     568:	11a7a827          	fsw	fs10,272(a5)
     56c:	1117aa23          	sw	a7,276(a5)

00000570 <inst_35>:
     570:	1a482507          	flw	fa0,420(a6)
     574:	1a882587          	flw	fa1,424(a6)
     578:	1ac82607          	flw	fa2,428(a6)
     57c:	00205073          	fsrmi	zero,0
     580:	60b576cf          	fnmadd.s	fa3,fa0,fa1,fa2
     584:	001028f3          	frflags	a7
     588:	10d7ac27          	fsw	fa3,280(a5)
     58c:	1117ae23          	sw	a7,284(a5)

00000590 <inst_36>:
     590:	1b082507          	flw	fa0,432(a6)
     594:	1b482587          	flw	fa1,436(a6)
     598:	1b882607          	flw	fa2,440(a6)
     59c:	00205073          	fsrmi	zero,0
     5a0:	60b576cf          	fnmadd.s	fa3,fa0,fa1,fa2
     5a4:	001028f3          	frflags	a7
     5a8:	12d7a027          	fsw	fa3,288(a5)
     5ac:	1317a223          	sw	a7,292(a5)

000005b0 <inst_37>:
     5b0:	1bc82507          	flw	fa0,444(a6)
     5b4:	1c082587          	flw	fa1,448(a6)
     5b8:	1c482607          	flw	fa2,452(a6)
     5bc:	00205073          	fsrmi	zero,0
     5c0:	60b576cf          	fnmadd.s	fa3,fa0,fa1,fa2
     5c4:	001028f3          	frflags	a7
     5c8:	12d7a427          	fsw	fa3,296(a5)
     5cc:	1317a623          	sw	a7,300(a5)

000005d0 <inst_38>:
     5d0:	1c882507          	flw	fa0,456(a6)
     5d4:	1cc82587          	flw	fa1,460(a6)
     5d8:	1d082607          	flw	fa2,464(a6)
     5dc:	00205073          	fsrmi	zero,0
     5e0:	60b576cf          	fnmadd.s	fa3,fa0,fa1,fa2
     5e4:	001028f3          	frflags	a7
     5e8:	12d7a827          	fsw	fa3,304(a5)
     5ec:	1317aa23          	sw	a7,308(a5)

000005f0 <inst_39>:
     5f0:	1d482507          	flw	fa0,468(a6)
     5f4:	1d882587          	flw	fa1,472(a6)
     5f8:	1dc82607          	flw	fa2,476(a6)
     5fc:	00205073          	fsrmi	zero,0
     600:	60b576cf          	fnmadd.s	fa3,fa0,fa1,fa2
     604:	001028f3          	frflags	a7
     608:	12d7ac27          	fsw	fa3,312(a5)
     60c:	1317ae23          	sw	a7,316(a5)

00000610 <inst_40>:
     610:	1e082507          	flw	fa0,480(a6)
     614:	1e482587          	flw	fa1,484(a6)
     618:	1e882607          	flw	fa2,488(a6)
     61c:	00205073          	fsrmi	zero,0
     620:	60b576cf          	fnmadd.s	fa3,fa0,fa1,fa2
     624:	001028f3          	frflags	a7
     628:	14d7a027          	fsw	fa3,320(a5)
     62c:	1517a223          	sw	a7,324(a5)

00000630 <inst_41>:
     630:	1ec82507          	flw	fa0,492(a6)
     634:	1f082587          	flw	fa1,496(a6)
     638:	1f482607          	flw	fa2,500(a6)
     63c:	00205073          	fsrmi	zero,0
     640:	60b576cf          	fnmadd.s	fa3,fa0,fa1,fa2
     644:	001028f3          	frflags	a7
     648:	14d7a427          	fsw	fa3,328(a5)
     64c:	1517a623          	sw	a7,332(a5)

00000650 <inst_42>:
     650:	1f882507          	flw	fa0,504(a6)
     654:	1fc82587          	flw	fa1,508(a6)
     658:	20082607          	flw	fa2,512(a6)
     65c:	00205073          	fsrmi	zero,0
     660:	60b576cf          	fnmadd.s	fa3,fa0,fa1,fa2
     664:	001028f3          	frflags	a7
     668:	14d7a827          	fsw	fa3,336(a5)
     66c:	1517aa23          	sw	a7,340(a5)

00000670 <inst_43>:
     670:	20482507          	flw	fa0,516(a6)
     674:	20882587          	flw	fa1,520(a6)
     678:	20c82607          	flw	fa2,524(a6)
     67c:	00205073          	fsrmi	zero,0
     680:	60b576cf          	fnmadd.s	fa3,fa0,fa1,fa2
     684:	001028f3          	frflags	a7
     688:	14d7ac27          	fsw	fa3,344(a5)
     68c:	1517ae23          	sw	a7,348(a5)

00000690 <inst_44>:
     690:	21082507          	flw	fa0,528(a6)
     694:	21482587          	flw	fa1,532(a6)
     698:	21882607          	flw	fa2,536(a6)
     69c:	00205073          	fsrmi	zero,0
     6a0:	60b576cf          	fnmadd.s	fa3,fa0,fa1,fa2
     6a4:	001028f3          	frflags	a7
     6a8:	16d7a027          	fsw	fa3,352(a5)
     6ac:	1717a223          	sw	a7,356(a5)

000006b0 <inst_45>:
     6b0:	21c82507          	flw	fa0,540(a6)
     6b4:	22082587          	flw	fa1,544(a6)
     6b8:	22482607          	flw	fa2,548(a6)
     6bc:	00205073          	fsrmi	zero,0
     6c0:	60b576cf          	fnmadd.s	fa3,fa0,fa1,fa2
     6c4:	001028f3          	frflags	a7
     6c8:	16d7a427          	fsw	fa3,360(a5)
     6cc:	1717a623          	sw	a7,364(a5)

000006d0 <inst_46>:
     6d0:	22882507          	flw	fa0,552(a6)
     6d4:	22c82587          	flw	fa1,556(a6)
     6d8:	23082607          	flw	fa2,560(a6)
     6dc:	00205073          	fsrmi	zero,0
     6e0:	60b576cf          	fnmadd.s	fa3,fa0,fa1,fa2
     6e4:	001028f3          	frflags	a7
     6e8:	16d7a827          	fsw	fa3,368(a5)
     6ec:	1717aa23          	sw	a7,372(a5)

000006f0 <inst_47>:
     6f0:	23482507          	flw	fa0,564(a6)
     6f4:	23882587          	flw	fa1,568(a6)
     6f8:	23c82607          	flw	fa2,572(a6)
     6fc:	00205073          	fsrmi	zero,0
     700:	60b576cf          	fnmadd.s	fa3,fa0,fa1,fa2
     704:	001028f3          	frflags	a7
     708:	16d7ac27          	fsw	fa3,376(a5)
     70c:	1717ae23          	sw	a7,380(a5)

00000710 <inst_48>:
     710:	24082507          	flw	fa0,576(a6)
     714:	24482587          	flw	fa1,580(a6)
     718:	24882607          	flw	fa2,584(a6)
     71c:	00205073          	fsrmi	zero,0
     720:	60b576cf          	fnmadd.s	fa3,fa0,fa1,fa2
     724:	001028f3          	frflags	a7
     728:	18d7a027          	fsw	fa3,384(a5)
     72c:	1917a223          	sw	a7,388(a5)

00000730 <inst_49>:
     730:	24c82507          	flw	fa0,588(a6)
     734:	25082587          	flw	fa1,592(a6)
     738:	25482607          	flw	fa2,596(a6)
     73c:	00205073          	fsrmi	zero,0
     740:	60b576cf          	fnmadd.s	fa3,fa0,fa1,fa2
     744:	001028f3          	frflags	a7
     748:	18d7a427          	fsw	fa3,392(a5)
     74c:	1917a623          	sw	a7,396(a5)

00000750 <inst_50>:
     750:	25882507          	flw	fa0,600(a6)
     754:	25c82587          	flw	fa1,604(a6)
     758:	26082607          	flw	fa2,608(a6)
     75c:	00205073          	fsrmi	zero,0
     760:	60b576cf          	fnmadd.s	fa3,fa0,fa1,fa2
     764:	001028f3          	frflags	a7
     768:	18d7a827          	fsw	fa3,400(a5)
     76c:	1917aa23          	sw	a7,404(a5)

00000770 <inst_51>:
     770:	26482507          	flw	fa0,612(a6)
     774:	26882587          	flw	fa1,616(a6)
     778:	26c82607          	flw	fa2,620(a6)
     77c:	00205073          	fsrmi	zero,0
     780:	60b576cf          	fnmadd.s	fa3,fa0,fa1,fa2
     784:	001028f3          	frflags	a7
     788:	18d7ac27          	fsw	fa3,408(a5)
     78c:	1917ae23          	sw	a7,412(a5)

00000790 <inst_52>:
     790:	27082507          	flw	fa0,624(a6)
     794:	27482587          	flw	fa1,628(a6)
     798:	27882607          	flw	fa2,632(a6)
     79c:	00205073          	fsrmi	zero,0
     7a0:	60b576cf          	fnmadd.s	fa3,fa0,fa1,fa2
     7a4:	001028f3          	frflags	a7
     7a8:	1ad7a027          	fsw	fa3,416(a5)
     7ac:	1b17a223          	sw	a7,420(a5)

000007b0 <inst_53>:
     7b0:	27c82507          	flw	fa0,636(a6)
     7b4:	28082587          	flw	fa1,640(a6)
     7b8:	28482607          	flw	fa2,644(a6)
     7bc:	00205073          	fsrmi	zero,0
     7c0:	60b576cf          	fnmadd.s	fa3,fa0,fa1,fa2
     7c4:	001028f3          	frflags	a7
     7c8:	1ad7a427          	fsw	fa3,424(a5)
     7cc:	1b17a623          	sw	a7,428(a5)

000007d0 <inst_54>:
     7d0:	28882507          	flw	fa0,648(a6)
     7d4:	28c82587          	flw	fa1,652(a6)
     7d8:	29082607          	flw	fa2,656(a6)
     7dc:	00205073          	fsrmi	zero,0
     7e0:	60b576cf          	fnmadd.s	fa3,fa0,fa1,fa2
     7e4:	001028f3          	frflags	a7
     7e8:	1ad7a827          	fsw	fa3,432(a5)
     7ec:	1b17aa23          	sw	a7,436(a5)

000007f0 <inst_55>:
     7f0:	29482507          	flw	fa0,660(a6)
     7f4:	29882587          	flw	fa1,664(a6)
     7f8:	29c82607          	flw	fa2,668(a6)
     7fc:	00205073          	fsrmi	zero,0
     800:	60b576cf          	fnmadd.s	fa3,fa0,fa1,fa2
     804:	001028f3          	frflags	a7
     808:	1ad7ac27          	fsw	fa3,440(a5)
     80c:	1b17ae23          	sw	a7,444(a5)

00000810 <inst_56>:
     810:	2a082507          	flw	fa0,672(a6)
     814:	2a482587          	flw	fa1,676(a6)
     818:	2a882607          	flw	fa2,680(a6)
     81c:	00205073          	fsrmi	zero,0
     820:	60b576cf          	fnmadd.s	fa3,fa0,fa1,fa2
     824:	001028f3          	frflags	a7
     828:	1cd7a027          	fsw	fa3,448(a5)
     82c:	1d17a223          	sw	a7,452(a5)

00000830 <inst_57>:
     830:	2ac82507          	flw	fa0,684(a6)
     834:	2b082587          	flw	fa1,688(a6)
     838:	2b482607          	flw	fa2,692(a6)
     83c:	00205073          	fsrmi	zero,0
     840:	60b576cf          	fnmadd.s	fa3,fa0,fa1,fa2
     844:	001028f3          	frflags	a7
     848:	1cd7a427          	fsw	fa3,456(a5)
     84c:	1d17a623          	sw	a7,460(a5)

00000850 <inst_58>:
     850:	2b882507          	flw	fa0,696(a6)
     854:	2bc82587          	flw	fa1,700(a6)
     858:	2c082607          	flw	fa2,704(a6)
     85c:	00205073          	fsrmi	zero,0
     860:	60b576cf          	fnmadd.s	fa3,fa0,fa1,fa2
     864:	001028f3          	frflags	a7
     868:	1cd7a827          	fsw	fa3,464(a5)
     86c:	1d17aa23          	sw	a7,468(a5)

00000870 <inst_59>:
     870:	2c482507          	flw	fa0,708(a6)
     874:	2c882587          	flw	fa1,712(a6)
     878:	2cc82607          	flw	fa2,716(a6)
     87c:	00205073          	fsrmi	zero,0
     880:	60b576cf          	fnmadd.s	fa3,fa0,fa1,fa2
     884:	001028f3          	frflags	a7
     888:	1cd7ac27          	fsw	fa3,472(a5)
     88c:	1d17ae23          	sw	a7,476(a5)

00000890 <inst_60>:
     890:	2d082507          	flw	fa0,720(a6)
     894:	2d482587          	flw	fa1,724(a6)
     898:	2d882607          	flw	fa2,728(a6)
     89c:	00205073          	fsrmi	zero,0
     8a0:	60b576cf          	fnmadd.s	fa3,fa0,fa1,fa2
     8a4:	001028f3          	frflags	a7
     8a8:	1ed7a027          	fsw	fa3,480(a5)
     8ac:	1f17a223          	sw	a7,484(a5)

000008b0 <inst_61>:
     8b0:	2dc82507          	flw	fa0,732(a6)
     8b4:	2e082587          	flw	fa1,736(a6)
     8b8:	2e482607          	flw	fa2,740(a6)
     8bc:	00205073          	fsrmi	zero,0
     8c0:	60b576cf          	fnmadd.s	fa3,fa0,fa1,fa2
     8c4:	001028f3          	frflags	a7
     8c8:	1ed7a427          	fsw	fa3,488(a5)
     8cc:	1f17a623          	sw	a7,492(a5)

000008d0 <inst_62>:
     8d0:	2e882507          	flw	fa0,744(a6)
     8d4:	2ec82587          	flw	fa1,748(a6)
     8d8:	2f082607          	flw	fa2,752(a6)
     8dc:	00205073          	fsrmi	zero,0
     8e0:	60b576cf          	fnmadd.s	fa3,fa0,fa1,fa2
     8e4:	001028f3          	frflags	a7
     8e8:	1ed7a827          	fsw	fa3,496(a5)
     8ec:	1f17aa23          	sw	a7,500(a5)

000008f0 <inst_63>:
     8f0:	2f482507          	flw	fa0,756(a6)
     8f4:	2f882587          	flw	fa1,760(a6)
     8f8:	2fc82607          	flw	fa2,764(a6)
     8fc:	00205073          	fsrmi	zero,0
     900:	60b576cf          	fnmadd.s	fa3,fa0,fa1,fa2
     904:	001028f3          	frflags	a7
     908:	1ed7ac27          	fsw	fa3,504(a5)
     90c:	1f17ae23          	sw	a7,508(a5)

00000910 <inst_64>:
     910:	30082507          	flw	fa0,768(a6)
     914:	30482587          	flw	fa1,772(a6)
     918:	30882607          	flw	fa2,776(a6)
     91c:	00205073          	fsrmi	zero,0
     920:	60b576cf          	fnmadd.s	fa3,fa0,fa1,fa2
     924:	001028f3          	frflags	a7
     928:	20d7a027          	fsw	fa3,512(a5)
     92c:	2117a223          	sw	a7,516(a5)

00000930 <inst_65>:
     930:	30c82507          	flw	fa0,780(a6)
     934:	31082587          	flw	fa1,784(a6)
     938:	31482607          	flw	fa2,788(a6)
     93c:	00205073          	fsrmi	zero,0
     940:	60b576cf          	fnmadd.s	fa3,fa0,fa1,fa2
     944:	001028f3          	frflags	a7
     948:	20d7a427          	fsw	fa3,520(a5)
     94c:	2117a623          	sw	a7,524(a5)

00000950 <inst_66>:
     950:	31882507          	flw	fa0,792(a6)
     954:	31c82587          	flw	fa1,796(a6)
     958:	32082607          	flw	fa2,800(a6)
     95c:	00205073          	fsrmi	zero,0
     960:	60b576cf          	fnmadd.s	fa3,fa0,fa1,fa2
     964:	001028f3          	frflags	a7
     968:	20d7a827          	fsw	fa3,528(a5)
     96c:	2117aa23          	sw	a7,532(a5)

00000970 <inst_67>:
     970:	32482507          	flw	fa0,804(a6)
     974:	32882587          	flw	fa1,808(a6)
     978:	32c82607          	flw	fa2,812(a6)
     97c:	00205073          	fsrmi	zero,0
     980:	60b576cf          	fnmadd.s	fa3,fa0,fa1,fa2
     984:	001028f3          	frflags	a7
     988:	20d7ac27          	fsw	fa3,536(a5)
     98c:	2117ae23          	sw	a7,540(a5)

00000990 <inst_68>:
     990:	33082507          	flw	fa0,816(a6)
     994:	33482587          	flw	fa1,820(a6)
     998:	33882607          	flw	fa2,824(a6)
     99c:	00205073          	fsrmi	zero,0
     9a0:	60b576cf          	fnmadd.s	fa3,fa0,fa1,fa2
     9a4:	001028f3          	frflags	a7
     9a8:	22d7a027          	fsw	fa3,544(a5)
     9ac:	2317a223          	sw	a7,548(a5)

000009b0 <inst_69>:
     9b0:	33c82507          	flw	fa0,828(a6)
     9b4:	34082587          	flw	fa1,832(a6)
     9b8:	34482607          	flw	fa2,836(a6)
     9bc:	00205073          	fsrmi	zero,0
     9c0:	60b576cf          	fnmadd.s	fa3,fa0,fa1,fa2
     9c4:	001028f3          	frflags	a7
     9c8:	22d7a427          	fsw	fa3,552(a5)
     9cc:	2317a623          	sw	a7,556(a5)

000009d0 <inst_70>:
     9d0:	34882507          	flw	fa0,840(a6)
     9d4:	34c82587          	flw	fa1,844(a6)
     9d8:	35082607          	flw	fa2,848(a6)
     9dc:	00205073          	fsrmi	zero,0
     9e0:	60b576cf          	fnmadd.s	fa3,fa0,fa1,fa2
     9e4:	001028f3          	frflags	a7
     9e8:	22d7a827          	fsw	fa3,560(a5)
     9ec:	2317aa23          	sw	a7,564(a5)

000009f0 <inst_71>:
     9f0:	35482507          	flw	fa0,852(a6)
     9f4:	35882587          	flw	fa1,856(a6)
     9f8:	35c82607          	flw	fa2,860(a6)
     9fc:	00205073          	fsrmi	zero,0
     a00:	60b576cf          	fnmadd.s	fa3,fa0,fa1,fa2
     a04:	001028f3          	frflags	a7
     a08:	22d7ac27          	fsw	fa3,568(a5)
     a0c:	2317ae23          	sw	a7,572(a5)

00000a10 <inst_72>:
     a10:	36082507          	flw	fa0,864(a6)
     a14:	36482587          	flw	fa1,868(a6)
     a18:	36882607          	flw	fa2,872(a6)
     a1c:	00205073          	fsrmi	zero,0
     a20:	60b576cf          	fnmadd.s	fa3,fa0,fa1,fa2
     a24:	001028f3          	frflags	a7
     a28:	24d7a027          	fsw	fa3,576(a5)
     a2c:	2517a223          	sw	a7,580(a5)

00000a30 <inst_73>:
     a30:	36c82507          	flw	fa0,876(a6)
     a34:	37082587          	flw	fa1,880(a6)
     a38:	37482607          	flw	fa2,884(a6)
     a3c:	00205073          	fsrmi	zero,0
     a40:	60b576cf          	fnmadd.s	fa3,fa0,fa1,fa2
     a44:	001028f3          	frflags	a7
     a48:	24d7a427          	fsw	fa3,584(a5)
     a4c:	2517a623          	sw	a7,588(a5)

00000a50 <inst_74>:
     a50:	37882507          	flw	fa0,888(a6)
     a54:	37c82587          	flw	fa1,892(a6)
     a58:	38082607          	flw	fa2,896(a6)
     a5c:	00205073          	fsrmi	zero,0
     a60:	60b576cf          	fnmadd.s	fa3,fa0,fa1,fa2
     a64:	001028f3          	frflags	a7
     a68:	24d7a827          	fsw	fa3,592(a5)
     a6c:	2517aa23          	sw	a7,596(a5)

00000a70 <inst_75>:
     a70:	38482507          	flw	fa0,900(a6)
     a74:	38882587          	flw	fa1,904(a6)
     a78:	38c82607          	flw	fa2,908(a6)
     a7c:	00205073          	fsrmi	zero,0
     a80:	60b576cf          	fnmadd.s	fa3,fa0,fa1,fa2
     a84:	001028f3          	frflags	a7
     a88:	24d7ac27          	fsw	fa3,600(a5)
     a8c:	2517ae23          	sw	a7,604(a5)

00000a90 <inst_76>:
     a90:	39082507          	flw	fa0,912(a6)
     a94:	39482587          	flw	fa1,916(a6)
     a98:	39882607          	flw	fa2,920(a6)
     a9c:	00205073          	fsrmi	zero,0
     aa0:	60b576cf          	fnmadd.s	fa3,fa0,fa1,fa2
     aa4:	001028f3          	frflags	a7
     aa8:	26d7a027          	fsw	fa3,608(a5)
     aac:	2717a223          	sw	a7,612(a5)

00000ab0 <inst_77>:
     ab0:	39c82507          	flw	fa0,924(a6)
     ab4:	3a082587          	flw	fa1,928(a6)
     ab8:	3a482607          	flw	fa2,932(a6)
     abc:	00205073          	fsrmi	zero,0
     ac0:	60b576cf          	fnmadd.s	fa3,fa0,fa1,fa2
     ac4:	001028f3          	frflags	a7
     ac8:	26d7a427          	fsw	fa3,616(a5)
     acc:	2717a623          	sw	a7,620(a5)

00000ad0 <inst_78>:
     ad0:	3a882507          	flw	fa0,936(a6)
     ad4:	3ac82587          	flw	fa1,940(a6)
     ad8:	3b082607          	flw	fa2,944(a6)
     adc:	00205073          	fsrmi	zero,0
     ae0:	60b576cf          	fnmadd.s	fa3,fa0,fa1,fa2
     ae4:	001028f3          	frflags	a7
     ae8:	26d7a827          	fsw	fa3,624(a5)
     aec:	2717aa23          	sw	a7,628(a5)

00000af0 <inst_79>:
     af0:	3b482507          	flw	fa0,948(a6)
     af4:	3b882587          	flw	fa1,952(a6)
     af8:	3bc82607          	flw	fa2,956(a6)
     afc:	00205073          	fsrmi	zero,0
     b00:	60b576cf          	fnmadd.s	fa3,fa0,fa1,fa2
     b04:	001028f3          	frflags	a7
     b08:	26d7ac27          	fsw	fa3,632(a5)
     b0c:	2717ae23          	sw	a7,636(a5)

00000b10 <inst_80>:
     b10:	3c082507          	flw	fa0,960(a6)
     b14:	3c482587          	flw	fa1,964(a6)
     b18:	3c882607          	flw	fa2,968(a6)
     b1c:	00205073          	fsrmi	zero,0
     b20:	60b576cf          	fnmadd.s	fa3,fa0,fa1,fa2
     b24:	001028f3          	frflags	a7
     b28:	28d7a027          	fsw	fa3,640(a5)
     b2c:	2917a223          	sw	a7,644(a5)

00000b30 <inst_81>:
     b30:	3cc82507          	flw	fa0,972(a6)
     b34:	3d082587          	flw	fa1,976(a6)
     b38:	3d482607          	flw	fa2,980(a6)
     b3c:	00205073          	fsrmi	zero,0
     b40:	60b576cf          	fnmadd.s	fa3,fa0,fa1,fa2
     b44:	001028f3          	frflags	a7
     b48:	28d7a427          	fsw	fa3,648(a5)
     b4c:	2917a623          	sw	a7,652(a5)

00000b50 <inst_82>:
     b50:	3d882507          	flw	fa0,984(a6)
     b54:	3dc82587          	flw	fa1,988(a6)
     b58:	3e082607          	flw	fa2,992(a6)
     b5c:	00205073          	fsrmi	zero,0
     b60:	60b576cf          	fnmadd.s	fa3,fa0,fa1,fa2
     b64:	001028f3          	frflags	a7
     b68:	28d7a827          	fsw	fa3,656(a5)
     b6c:	2917aa23          	sw	a7,660(a5)

00000b70 <inst_83>:
     b70:	3e482507          	flw	fa0,996(a6)
     b74:	3e882587          	flw	fa1,1000(a6)
     b78:	3ec82607          	flw	fa2,1004(a6)
     b7c:	00205073          	fsrmi	zero,0
     b80:	60b576cf          	fnmadd.s	fa3,fa0,fa1,fa2
     b84:	001028f3          	frflags	a7
     b88:	28d7ac27          	fsw	fa3,664(a5)
     b8c:	2917ae23          	sw	a7,668(a5)

00000b90 <inst_84>:
     b90:	3f082507          	flw	fa0,1008(a6)
     b94:	3f482587          	flw	fa1,1012(a6)
     b98:	3f882607          	flw	fa2,1016(a6)
     b9c:	00205073          	fsrmi	zero,0
     ba0:	60b576cf          	fnmadd.s	fa3,fa0,fa1,fa2
     ba4:	001028f3          	frflags	a7
     ba8:	2ad7a027          	fsw	fa3,672(a5)
     bac:	2b17a223          	sw	a7,676(a5)

00000bb0 <inst_85>:
     bb0:	3fc82507          	flw	fa0,1020(a6)
     bb4:	40082587          	flw	fa1,1024(a6)
     bb8:	40482607          	flw	fa2,1028(a6)
     bbc:	00205073          	fsrmi	zero,0
     bc0:	60b576cf          	fnmadd.s	fa3,fa0,fa1,fa2
     bc4:	001028f3          	frflags	a7
     bc8:	2ad7a427          	fsw	fa3,680(a5)
     bcc:	2b17a623          	sw	a7,684(a5)

00000bd0 <inst_86>:
     bd0:	40882507          	flw	fa0,1032(a6)
     bd4:	40c82587          	flw	fa1,1036(a6)
     bd8:	41082607          	flw	fa2,1040(a6)
     bdc:	00205073          	fsrmi	zero,0
     be0:	60b576cf          	fnmadd.s	fa3,fa0,fa1,fa2
     be4:	001028f3          	frflags	a7
     be8:	2ad7a827          	fsw	fa3,688(a5)
     bec:	2b17aa23          	sw	a7,692(a5)

00000bf0 <inst_87>:
     bf0:	41482507          	flw	fa0,1044(a6)
     bf4:	41882587          	flw	fa1,1048(a6)
     bf8:	41c82607          	flw	fa2,1052(a6)
     bfc:	00205073          	fsrmi	zero,0
     c00:	60b576cf          	fnmadd.s	fa3,fa0,fa1,fa2
     c04:	001028f3          	frflags	a7
     c08:	2ad7ac27          	fsw	fa3,696(a5)
     c0c:	2b17ae23          	sw	a7,700(a5)

00000c10 <inst_88>:
     c10:	42082507          	flw	fa0,1056(a6)
     c14:	42482587          	flw	fa1,1060(a6)
     c18:	42882607          	flw	fa2,1064(a6)
     c1c:	00205073          	fsrmi	zero,0
     c20:	60b576cf          	fnmadd.s	fa3,fa0,fa1,fa2
     c24:	001028f3          	frflags	a7
     c28:	2cd7a027          	fsw	fa3,704(a5)
     c2c:	2d17a223          	sw	a7,708(a5)

00000c30 <inst_89>:
     c30:	42c82507          	flw	fa0,1068(a6)
     c34:	43082587          	flw	fa1,1072(a6)
     c38:	43482607          	flw	fa2,1076(a6)
     c3c:	00205073          	fsrmi	zero,0
     c40:	60b576cf          	fnmadd.s	fa3,fa0,fa1,fa2
     c44:	001028f3          	frflags	a7
     c48:	2cd7a427          	fsw	fa3,712(a5)
     c4c:	2d17a623          	sw	a7,716(a5)

00000c50 <inst_90>:
     c50:	43882507          	flw	fa0,1080(a6)
     c54:	43c82587          	flw	fa1,1084(a6)
     c58:	44082607          	flw	fa2,1088(a6)
     c5c:	00205073          	fsrmi	zero,0
     c60:	60b576cf          	fnmadd.s	fa3,fa0,fa1,fa2
     c64:	001028f3          	frflags	a7
     c68:	2cd7a827          	fsw	fa3,720(a5)
     c6c:	2d17aa23          	sw	a7,724(a5)

00000c70 <inst_91>:
     c70:	44482507          	flw	fa0,1092(a6)
     c74:	44882587          	flw	fa1,1096(a6)
     c78:	44c82607          	flw	fa2,1100(a6)
     c7c:	00205073          	fsrmi	zero,0
     c80:	60b576cf          	fnmadd.s	fa3,fa0,fa1,fa2
     c84:	001028f3          	frflags	a7
     c88:	2cd7ac27          	fsw	fa3,728(a5)
     c8c:	2d17ae23          	sw	a7,732(a5)

00000c90 <inst_92>:
     c90:	45082507          	flw	fa0,1104(a6)
     c94:	45482587          	flw	fa1,1108(a6)
     c98:	45882607          	flw	fa2,1112(a6)
     c9c:	00205073          	fsrmi	zero,0
     ca0:	60b576cf          	fnmadd.s	fa3,fa0,fa1,fa2
     ca4:	001028f3          	frflags	a7
     ca8:	2ed7a027          	fsw	fa3,736(a5)
     cac:	2f17a223          	sw	a7,740(a5)

00000cb0 <inst_93>:
     cb0:	45c82507          	flw	fa0,1116(a6)
     cb4:	46082587          	flw	fa1,1120(a6)
     cb8:	46482607          	flw	fa2,1124(a6)
     cbc:	00205073          	fsrmi	zero,0
     cc0:	60b576cf          	fnmadd.s	fa3,fa0,fa1,fa2
     cc4:	001028f3          	frflags	a7
     cc8:	2ed7a427          	fsw	fa3,744(a5)
     ccc:	2f17a623          	sw	a7,748(a5)

00000cd0 <inst_94>:
     cd0:	46882507          	flw	fa0,1128(a6)
     cd4:	46c82587          	flw	fa1,1132(a6)
     cd8:	47082607          	flw	fa2,1136(a6)
     cdc:	00205073          	fsrmi	zero,0
     ce0:	60b576cf          	fnmadd.s	fa3,fa0,fa1,fa2
     ce4:	001028f3          	frflags	a7
     ce8:	2ed7a827          	fsw	fa3,752(a5)
     cec:	2f17aa23          	sw	a7,756(a5)

00000cf0 <inst_95>:
     cf0:	47482507          	flw	fa0,1140(a6)
     cf4:	47882587          	flw	fa1,1144(a6)
     cf8:	47c82607          	flw	fa2,1148(a6)
     cfc:	00205073          	fsrmi	zero,0
     d00:	60b576cf          	fnmadd.s	fa3,fa0,fa1,fa2
     d04:	001028f3          	frflags	a7
     d08:	2ed7ac27          	fsw	fa3,760(a5)
     d0c:	2f17ae23          	sw	a7,764(a5)

00000d10 <inst_96>:
     d10:	48082507          	flw	fa0,1152(a6)
     d14:	48482587          	flw	fa1,1156(a6)
     d18:	48882607          	flw	fa2,1160(a6)
     d1c:	00205073          	fsrmi	zero,0
     d20:	60b576cf          	fnmadd.s	fa3,fa0,fa1,fa2
     d24:	001028f3          	frflags	a7
     d28:	30d7a027          	fsw	fa3,768(a5)
     d2c:	3117a223          	sw	a7,772(a5)

00000d30 <inst_97>:
     d30:	48c82507          	flw	fa0,1164(a6)
     d34:	49082587          	flw	fa1,1168(a6)
     d38:	49482607          	flw	fa2,1172(a6)
     d3c:	00205073          	fsrmi	zero,0
     d40:	60b576cf          	fnmadd.s	fa3,fa0,fa1,fa2
     d44:	001028f3          	frflags	a7
     d48:	30d7a427          	fsw	fa3,776(a5)
     d4c:	3117a623          	sw	a7,780(a5)

00000d50 <inst_98>:
     d50:	49882507          	flw	fa0,1176(a6)
     d54:	49c82587          	flw	fa1,1180(a6)
     d58:	4a082607          	flw	fa2,1184(a6)
     d5c:	00205073          	fsrmi	zero,0
     d60:	60b576cf          	fnmadd.s	fa3,fa0,fa1,fa2
     d64:	001028f3          	frflags	a7
     d68:	30d7a827          	fsw	fa3,784(a5)
     d6c:	3117aa23          	sw	a7,788(a5)

00000d70 <inst_99>:
     d70:	4a482507          	flw	fa0,1188(a6)
     d74:	4a882587          	flw	fa1,1192(a6)
     d78:	4ac82607          	flw	fa2,1196(a6)
     d7c:	00205073          	fsrmi	zero,0
     d80:	60b576cf          	fnmadd.s	fa3,fa0,fa1,fa2
     d84:	001028f3          	frflags	a7
     d88:	30d7ac27          	fsw	fa3,792(a5)
     d8c:	3117ae23          	sw	a7,796(a5)

00000d90 <inst_100>:
     d90:	4b082507          	flw	fa0,1200(a6)
     d94:	4b482587          	flw	fa1,1204(a6)
     d98:	4b882607          	flw	fa2,1208(a6)
     d9c:	00205073          	fsrmi	zero,0
     da0:	60b576cf          	fnmadd.s	fa3,fa0,fa1,fa2
     da4:	001028f3          	frflags	a7
     da8:	32d7a027          	fsw	fa3,800(a5)
     dac:	3317a223          	sw	a7,804(a5)

00000db0 <inst_101>:
     db0:	4bc82507          	flw	fa0,1212(a6)
     db4:	4c082587          	flw	fa1,1216(a6)
     db8:	4c482607          	flw	fa2,1220(a6)
     dbc:	00205073          	fsrmi	zero,0
     dc0:	60b576cf          	fnmadd.s	fa3,fa0,fa1,fa2
     dc4:	001028f3          	frflags	a7
     dc8:	32d7a427          	fsw	fa3,808(a5)
     dcc:	3317a623          	sw	a7,812(a5)

00000dd0 <inst_102>:
     dd0:	4c882507          	flw	fa0,1224(a6)
     dd4:	4cc82587          	flw	fa1,1228(a6)
     dd8:	4d082607          	flw	fa2,1232(a6)
     ddc:	00205073          	fsrmi	zero,0
     de0:	60b576cf          	fnmadd.s	fa3,fa0,fa1,fa2
     de4:	001028f3          	frflags	a7
     de8:	32d7a827          	fsw	fa3,816(a5)
     dec:	3317aa23          	sw	a7,820(a5)

00000df0 <inst_103>:
     df0:	4d482507          	flw	fa0,1236(a6)
     df4:	4d882587          	flw	fa1,1240(a6)
     df8:	4dc82607          	flw	fa2,1244(a6)
     dfc:	00205073          	fsrmi	zero,0
     e00:	60b576cf          	fnmadd.s	fa3,fa0,fa1,fa2
     e04:	001028f3          	frflags	a7
     e08:	32d7ac27          	fsw	fa3,824(a5)
     e0c:	3317ae23          	sw	a7,828(a5)

00000e10 <inst_104>:
     e10:	4e082507          	flw	fa0,1248(a6)
     e14:	4e482587          	flw	fa1,1252(a6)
     e18:	4e882607          	flw	fa2,1256(a6)
     e1c:	00205073          	fsrmi	zero,0
     e20:	60b576cf          	fnmadd.s	fa3,fa0,fa1,fa2
     e24:	001028f3          	frflags	a7
     e28:	34d7a027          	fsw	fa3,832(a5)
     e2c:	3517a223          	sw	a7,836(a5)

00000e30 <inst_105>:
     e30:	4ec82507          	flw	fa0,1260(a6)
     e34:	4f082587          	flw	fa1,1264(a6)
     e38:	4f482607          	flw	fa2,1268(a6)
     e3c:	00205073          	fsrmi	zero,0
     e40:	60b576cf          	fnmadd.s	fa3,fa0,fa1,fa2
     e44:	001028f3          	frflags	a7
     e48:	34d7a427          	fsw	fa3,840(a5)
     e4c:	3517a623          	sw	a7,844(a5)

00000e50 <inst_106>:
     e50:	4f882507          	flw	fa0,1272(a6)
     e54:	4fc82587          	flw	fa1,1276(a6)
     e58:	50082607          	flw	fa2,1280(a6)
     e5c:	00205073          	fsrmi	zero,0
     e60:	60b576cf          	fnmadd.s	fa3,fa0,fa1,fa2
     e64:	001028f3          	frflags	a7
     e68:	34d7a827          	fsw	fa3,848(a5)
     e6c:	3517aa23          	sw	a7,852(a5)

00000e70 <inst_107>:
     e70:	50482507          	flw	fa0,1284(a6)
     e74:	50882587          	flw	fa1,1288(a6)
     e78:	50c82607          	flw	fa2,1292(a6)
     e7c:	00205073          	fsrmi	zero,0
     e80:	60b576cf          	fnmadd.s	fa3,fa0,fa1,fa2
     e84:	001028f3          	frflags	a7
     e88:	34d7ac27          	fsw	fa3,856(a5)
     e8c:	3517ae23          	sw	a7,860(a5)

00000e90 <inst_108>:
     e90:	51082507          	flw	fa0,1296(a6)
     e94:	51482587          	flw	fa1,1300(a6)
     e98:	51882607          	flw	fa2,1304(a6)
     e9c:	00205073          	fsrmi	zero,0
     ea0:	60b576cf          	fnmadd.s	fa3,fa0,fa1,fa2
     ea4:	001028f3          	frflags	a7
     ea8:	36d7a027          	fsw	fa3,864(a5)
     eac:	3717a223          	sw	a7,868(a5)

00000eb0 <inst_109>:
     eb0:	51c82507          	flw	fa0,1308(a6)
     eb4:	52082587          	flw	fa1,1312(a6)
     eb8:	52482607          	flw	fa2,1316(a6)
     ebc:	00205073          	fsrmi	zero,0
     ec0:	60b576cf          	fnmadd.s	fa3,fa0,fa1,fa2
     ec4:	001028f3          	frflags	a7
     ec8:	36d7a427          	fsw	fa3,872(a5)
     ecc:	3717a623          	sw	a7,876(a5)

00000ed0 <inst_110>:
     ed0:	52882507          	flw	fa0,1320(a6)
     ed4:	52c82587          	flw	fa1,1324(a6)
     ed8:	53082607          	flw	fa2,1328(a6)
     edc:	00205073          	fsrmi	zero,0
     ee0:	60b576cf          	fnmadd.s	fa3,fa0,fa1,fa2
     ee4:	001028f3          	frflags	a7
     ee8:	36d7a827          	fsw	fa3,880(a5)
     eec:	3717aa23          	sw	a7,884(a5)

00000ef0 <inst_111>:
     ef0:	53482507          	flw	fa0,1332(a6)
     ef4:	53882587          	flw	fa1,1336(a6)
     ef8:	53c82607          	flw	fa2,1340(a6)
     efc:	00205073          	fsrmi	zero,0
     f00:	60b576cf          	fnmadd.s	fa3,fa0,fa1,fa2
     f04:	001028f3          	frflags	a7
     f08:	36d7ac27          	fsw	fa3,888(a5)
     f0c:	3717ae23          	sw	a7,892(a5)

00000f10 <inst_112>:
     f10:	54082507          	flw	fa0,1344(a6)
     f14:	54482587          	flw	fa1,1348(a6)
     f18:	54882607          	flw	fa2,1352(a6)
     f1c:	00205073          	fsrmi	zero,0
     f20:	60b576cf          	fnmadd.s	fa3,fa0,fa1,fa2
     f24:	001028f3          	frflags	a7
     f28:	38d7a027          	fsw	fa3,896(a5)
     f2c:	3917a223          	sw	a7,900(a5)

00000f30 <inst_113>:
     f30:	54c82507          	flw	fa0,1356(a6)
     f34:	55082587          	flw	fa1,1360(a6)
     f38:	55482607          	flw	fa2,1364(a6)
     f3c:	00205073          	fsrmi	zero,0
     f40:	60b576cf          	fnmadd.s	fa3,fa0,fa1,fa2
     f44:	001028f3          	frflags	a7
     f48:	38d7a427          	fsw	fa3,904(a5)
     f4c:	3917a623          	sw	a7,908(a5)

00000f50 <inst_114>:
     f50:	55882507          	flw	fa0,1368(a6)
     f54:	55c82587          	flw	fa1,1372(a6)
     f58:	56082607          	flw	fa2,1376(a6)
     f5c:	00205073          	fsrmi	zero,0
     f60:	60b576cf          	fnmadd.s	fa3,fa0,fa1,fa2
     f64:	001028f3          	frflags	a7
     f68:	38d7a827          	fsw	fa3,912(a5)
     f6c:	3917aa23          	sw	a7,916(a5)

00000f70 <inst_115>:
     f70:	56482507          	flw	fa0,1380(a6)
     f74:	56882587          	flw	fa1,1384(a6)
     f78:	56c82607          	flw	fa2,1388(a6)
     f7c:	00205073          	fsrmi	zero,0
     f80:	60b576cf          	fnmadd.s	fa3,fa0,fa1,fa2
     f84:	001028f3          	frflags	a7
     f88:	38d7ac27          	fsw	fa3,920(a5)
     f8c:	3917ae23          	sw	a7,924(a5)

00000f90 <inst_116>:
     f90:	57082507          	flw	fa0,1392(a6)
     f94:	57482587          	flw	fa1,1396(a6)
     f98:	57882607          	flw	fa2,1400(a6)
     f9c:	00205073          	fsrmi	zero,0
     fa0:	60b576cf          	fnmadd.s	fa3,fa0,fa1,fa2
     fa4:	001028f3          	frflags	a7
     fa8:	3ad7a027          	fsw	fa3,928(a5)
     fac:	3b17a223          	sw	a7,932(a5)

00000fb0 <inst_117>:
     fb0:	57c82507          	flw	fa0,1404(a6)
     fb4:	58082587          	flw	fa1,1408(a6)
     fb8:	58482607          	flw	fa2,1412(a6)
     fbc:	00205073          	fsrmi	zero,0
     fc0:	60b576cf          	fnmadd.s	fa3,fa0,fa1,fa2
     fc4:	001028f3          	frflags	a7
     fc8:	3ad7a427          	fsw	fa3,936(a5)
     fcc:	3b17a623          	sw	a7,940(a5)

00000fd0 <inst_118>:
     fd0:	58882507          	flw	fa0,1416(a6)
     fd4:	58c82587          	flw	fa1,1420(a6)
     fd8:	59082607          	flw	fa2,1424(a6)
     fdc:	00205073          	fsrmi	zero,0
     fe0:	60b576cf          	fnmadd.s	fa3,fa0,fa1,fa2
     fe4:	001028f3          	frflags	a7
     fe8:	3ad7a827          	fsw	fa3,944(a5)
     fec:	3b17aa23          	sw	a7,948(a5)

00000ff0 <inst_119>:
     ff0:	59482507          	flw	fa0,1428(a6)
     ff4:	59882587          	flw	fa1,1432(a6)
     ff8:	59c82607          	flw	fa2,1436(a6)
     ffc:	00205073          	fsrmi	zero,0
    1000:	60b576cf          	fnmadd.s	fa3,fa0,fa1,fa2
    1004:	001028f3          	frflags	a7
    1008:	3ad7ac27          	fsw	fa3,952(a5)
    100c:	3b17ae23          	sw	a7,956(a5)

00001010 <inst_120>:
    1010:	5a082507          	flw	fa0,1440(a6)
    1014:	5a482587          	flw	fa1,1444(a6)
    1018:	5a882607          	flw	fa2,1448(a6)
    101c:	00205073          	fsrmi	zero,0
    1020:	60b576cf          	fnmadd.s	fa3,fa0,fa1,fa2
    1024:	001028f3          	frflags	a7
    1028:	3cd7a027          	fsw	fa3,960(a5)
    102c:	3d17a223          	sw	a7,964(a5)

00001030 <inst_121>:
    1030:	5ac82507          	flw	fa0,1452(a6)
    1034:	5b082587          	flw	fa1,1456(a6)
    1038:	5b482607          	flw	fa2,1460(a6)
    103c:	00205073          	fsrmi	zero,0
    1040:	60b576cf          	fnmadd.s	fa3,fa0,fa1,fa2
    1044:	001028f3          	frflags	a7
    1048:	3cd7a427          	fsw	fa3,968(a5)
    104c:	3d17a623          	sw	a7,972(a5)

00001050 <inst_122>:
    1050:	5b882507          	flw	fa0,1464(a6)
    1054:	5bc82587          	flw	fa1,1468(a6)
    1058:	5c082607          	flw	fa2,1472(a6)
    105c:	00205073          	fsrmi	zero,0
    1060:	60b576cf          	fnmadd.s	fa3,fa0,fa1,fa2
    1064:	001028f3          	frflags	a7
    1068:	3cd7a827          	fsw	fa3,976(a5)
    106c:	3d17aa23          	sw	a7,980(a5)

00001070 <inst_123>:
    1070:	5c482507          	flw	fa0,1476(a6)
    1074:	5c882587          	flw	fa1,1480(a6)
    1078:	5cc82607          	flw	fa2,1484(a6)
    107c:	00205073          	fsrmi	zero,0
    1080:	60b576cf          	fnmadd.s	fa3,fa0,fa1,fa2
    1084:	001028f3          	frflags	a7
    1088:	3cd7ac27          	fsw	fa3,984(a5)
    108c:	3d17ae23          	sw	a7,988(a5)

00001090 <inst_124>:
    1090:	5d082507          	flw	fa0,1488(a6)
    1094:	5d482587          	flw	fa1,1492(a6)
    1098:	5d882607          	flw	fa2,1496(a6)
    109c:	00205073          	fsrmi	zero,0
    10a0:	60b576cf          	fnmadd.s	fa3,fa0,fa1,fa2
    10a4:	001028f3          	frflags	a7
    10a8:	3ed7a027          	fsw	fa3,992(a5)
    10ac:	3f17a223          	sw	a7,996(a5)

000010b0 <inst_125>:
    10b0:	5dc82507          	flw	fa0,1500(a6)
    10b4:	5e082587          	flw	fa1,1504(a6)
    10b8:	5e482607          	flw	fa2,1508(a6)
    10bc:	00205073          	fsrmi	zero,0
    10c0:	60b576cf          	fnmadd.s	fa3,fa0,fa1,fa2
    10c4:	001028f3          	frflags	a7
    10c8:	3ed7a427          	fsw	fa3,1000(a5)
    10cc:	3f17a623          	sw	a7,1004(a5)

000010d0 <inst_126>:
    10d0:	5e882507          	flw	fa0,1512(a6)
    10d4:	5ec82587          	flw	fa1,1516(a6)
    10d8:	5f082607          	flw	fa2,1520(a6)
    10dc:	00205073          	fsrmi	zero,0
    10e0:	60b576cf          	fnmadd.s	fa3,fa0,fa1,fa2
    10e4:	001028f3          	frflags	a7
    10e8:	3ed7a827          	fsw	fa3,1008(a5)
    10ec:	3f17aa23          	sw	a7,1012(a5)

000010f0 <inst_127>:
    10f0:	5f482507          	flw	fa0,1524(a6)
    10f4:	5f882587          	flw	fa1,1528(a6)
    10f8:	5fc82607          	flw	fa2,1532(a6)
    10fc:	00205073          	fsrmi	zero,0
    1100:	60b576cf          	fnmadd.s	fa3,fa0,fa1,fa2
    1104:	001028f3          	frflags	a7
    1108:	3ed7ac27          	fsw	fa3,1016(a5)
    110c:	3f17ae23          	sw	a7,1020(a5)

00001110 <inst_128>:
    1110:	60082507          	flw	fa0,1536(a6)
    1114:	60482587          	flw	fa1,1540(a6)
    1118:	60882607          	flw	fa2,1544(a6)
    111c:	00205073          	fsrmi	zero,0
    1120:	60b576cf          	fnmadd.s	fa3,fa0,fa1,fa2
    1124:	001028f3          	frflags	a7
    1128:	40d7a027          	fsw	fa3,1024(a5)
    112c:	4117a223          	sw	a7,1028(a5)

00001130 <inst_129>:
    1130:	60c82507          	flw	fa0,1548(a6)
    1134:	61082587          	flw	fa1,1552(a6)
    1138:	61482607          	flw	fa2,1556(a6)
    113c:	00205073          	fsrmi	zero,0
    1140:	60b576cf          	fnmadd.s	fa3,fa0,fa1,fa2
    1144:	001028f3          	frflags	a7
    1148:	40d7a427          	fsw	fa3,1032(a5)
    114c:	4117a623          	sw	a7,1036(a5)

00001150 <inst_130>:
    1150:	61882507          	flw	fa0,1560(a6)
    1154:	61c82587          	flw	fa1,1564(a6)
    1158:	62082607          	flw	fa2,1568(a6)
    115c:	00205073          	fsrmi	zero,0
    1160:	60b576cf          	fnmadd.s	fa3,fa0,fa1,fa2
    1164:	001028f3          	frflags	a7
    1168:	40d7a827          	fsw	fa3,1040(a5)
    116c:	4117aa23          	sw	a7,1044(a5)

00001170 <inst_131>:
    1170:	62482507          	flw	fa0,1572(a6)
    1174:	62882587          	flw	fa1,1576(a6)
    1178:	62c82607          	flw	fa2,1580(a6)
    117c:	00205073          	fsrmi	zero,0
    1180:	60b576cf          	fnmadd.s	fa3,fa0,fa1,fa2
    1184:	001028f3          	frflags	a7
    1188:	40d7ac27          	fsw	fa3,1048(a5)
    118c:	4117ae23          	sw	a7,1052(a5)

00001190 <inst_132>:
    1190:	63082507          	flw	fa0,1584(a6)
    1194:	63482587          	flw	fa1,1588(a6)
    1198:	63882607          	flw	fa2,1592(a6)
    119c:	00205073          	fsrmi	zero,0
    11a0:	60b576cf          	fnmadd.s	fa3,fa0,fa1,fa2
    11a4:	001028f3          	frflags	a7
    11a8:	42d7a027          	fsw	fa3,1056(a5)
    11ac:	4317a223          	sw	a7,1060(a5)

000011b0 <inst_133>:
    11b0:	63c82507          	flw	fa0,1596(a6)
    11b4:	64082587          	flw	fa1,1600(a6)
    11b8:	64482607          	flw	fa2,1604(a6)
    11bc:	00205073          	fsrmi	zero,0
    11c0:	60b576cf          	fnmadd.s	fa3,fa0,fa1,fa2
    11c4:	001028f3          	frflags	a7
    11c8:	42d7a427          	fsw	fa3,1064(a5)
    11cc:	4317a623          	sw	a7,1068(a5)

000011d0 <inst_134>:
    11d0:	64882507          	flw	fa0,1608(a6)
    11d4:	64c82587          	flw	fa1,1612(a6)
    11d8:	65082607          	flw	fa2,1616(a6)
    11dc:	00205073          	fsrmi	zero,0
    11e0:	60b576cf          	fnmadd.s	fa3,fa0,fa1,fa2
    11e4:	001028f3          	frflags	a7
    11e8:	42d7a827          	fsw	fa3,1072(a5)
    11ec:	4317aa23          	sw	a7,1076(a5)

000011f0 <inst_135>:
    11f0:	65482507          	flw	fa0,1620(a6)
    11f4:	65882587          	flw	fa1,1624(a6)
    11f8:	65c82607          	flw	fa2,1628(a6)
    11fc:	00205073          	fsrmi	zero,0
    1200:	60b576cf          	fnmadd.s	fa3,fa0,fa1,fa2
    1204:	001028f3          	frflags	a7
    1208:	42d7ac27          	fsw	fa3,1080(a5)
    120c:	4317ae23          	sw	a7,1084(a5)

00001210 <inst_136>:
    1210:	66082507          	flw	fa0,1632(a6)
    1214:	66482587          	flw	fa1,1636(a6)
    1218:	66882607          	flw	fa2,1640(a6)
    121c:	00205073          	fsrmi	zero,0
    1220:	60b576cf          	fnmadd.s	fa3,fa0,fa1,fa2
    1224:	001028f3          	frflags	a7
    1228:	44d7a027          	fsw	fa3,1088(a5)
    122c:	4517a223          	sw	a7,1092(a5)

00001230 <inst_137>:
    1230:	66c82507          	flw	fa0,1644(a6)
    1234:	67082587          	flw	fa1,1648(a6)
    1238:	67482607          	flw	fa2,1652(a6)
    123c:	00205073          	fsrmi	zero,0
    1240:	60b576cf          	fnmadd.s	fa3,fa0,fa1,fa2
    1244:	001028f3          	frflags	a7
    1248:	44d7a427          	fsw	fa3,1096(a5)
    124c:	4517a623          	sw	a7,1100(a5)

00001250 <inst_138>:
    1250:	67882507          	flw	fa0,1656(a6)
    1254:	67c82587          	flw	fa1,1660(a6)
    1258:	68082607          	flw	fa2,1664(a6)
    125c:	00205073          	fsrmi	zero,0
    1260:	60b576cf          	fnmadd.s	fa3,fa0,fa1,fa2
    1264:	001028f3          	frflags	a7
    1268:	44d7a827          	fsw	fa3,1104(a5)
    126c:	4517aa23          	sw	a7,1108(a5)

00001270 <inst_139>:
    1270:	68482507          	flw	fa0,1668(a6)
    1274:	68882587          	flw	fa1,1672(a6)
    1278:	68c82607          	flw	fa2,1676(a6)
    127c:	00205073          	fsrmi	zero,0
    1280:	60b576cf          	fnmadd.s	fa3,fa0,fa1,fa2
    1284:	001028f3          	frflags	a7
    1288:	44d7ac27          	fsw	fa3,1112(a5)
    128c:	4517ae23          	sw	a7,1116(a5)

00001290 <inst_140>:
    1290:	69082507          	flw	fa0,1680(a6)
    1294:	69482587          	flw	fa1,1684(a6)
    1298:	69882607          	flw	fa2,1688(a6)
    129c:	00205073          	fsrmi	zero,0
    12a0:	60b576cf          	fnmadd.s	fa3,fa0,fa1,fa2
    12a4:	001028f3          	frflags	a7
    12a8:	46d7a027          	fsw	fa3,1120(a5)
    12ac:	4717a223          	sw	a7,1124(a5)

000012b0 <inst_141>:
    12b0:	69c82507          	flw	fa0,1692(a6)
    12b4:	6a082587          	flw	fa1,1696(a6)
    12b8:	6a482607          	flw	fa2,1700(a6)
    12bc:	00205073          	fsrmi	zero,0
    12c0:	60b576cf          	fnmadd.s	fa3,fa0,fa1,fa2
    12c4:	001028f3          	frflags	a7
    12c8:	46d7a427          	fsw	fa3,1128(a5)
    12cc:	4717a623          	sw	a7,1132(a5)

000012d0 <inst_142>:
    12d0:	6a882507          	flw	fa0,1704(a6)
    12d4:	6ac82587          	flw	fa1,1708(a6)
    12d8:	6b082607          	flw	fa2,1712(a6)
    12dc:	00205073          	fsrmi	zero,0
    12e0:	60b576cf          	fnmadd.s	fa3,fa0,fa1,fa2
    12e4:	001028f3          	frflags	a7
    12e8:	46d7a827          	fsw	fa3,1136(a5)
    12ec:	4717aa23          	sw	a7,1140(a5)

000012f0 <inst_143>:
    12f0:	6b482507          	flw	fa0,1716(a6)
    12f4:	6b882587          	flw	fa1,1720(a6)
    12f8:	6bc82607          	flw	fa2,1724(a6)
    12fc:	00205073          	fsrmi	zero,0
    1300:	60b576cf          	fnmadd.s	fa3,fa0,fa1,fa2
    1304:	001028f3          	frflags	a7
    1308:	46d7ac27          	fsw	fa3,1144(a5)
    130c:	4717ae23          	sw	a7,1148(a5)

00001310 <inst_144>:
    1310:	6c082507          	flw	fa0,1728(a6)
    1314:	6c482587          	flw	fa1,1732(a6)
    1318:	6c882607          	flw	fa2,1736(a6)
    131c:	00205073          	fsrmi	zero,0
    1320:	60b576cf          	fnmadd.s	fa3,fa0,fa1,fa2
    1324:	001028f3          	frflags	a7
    1328:	48d7a027          	fsw	fa3,1152(a5)
    132c:	4917a223          	sw	a7,1156(a5)

00001330 <inst_145>:
    1330:	6cc82507          	flw	fa0,1740(a6)
    1334:	6d082587          	flw	fa1,1744(a6)
    1338:	6d482607          	flw	fa2,1748(a6)
    133c:	00205073          	fsrmi	zero,0
    1340:	60b576cf          	fnmadd.s	fa3,fa0,fa1,fa2
    1344:	001028f3          	frflags	a7
    1348:	48d7a427          	fsw	fa3,1160(a5)
    134c:	4917a623          	sw	a7,1164(a5)

00001350 <inst_146>:
    1350:	6d882507          	flw	fa0,1752(a6)
    1354:	6dc82587          	flw	fa1,1756(a6)
    1358:	6e082607          	flw	fa2,1760(a6)
    135c:	00205073          	fsrmi	zero,0
    1360:	60b576cf          	fnmadd.s	fa3,fa0,fa1,fa2
    1364:	001028f3          	frflags	a7
    1368:	48d7a827          	fsw	fa3,1168(a5)
    136c:	4917aa23          	sw	a7,1172(a5)

00001370 <inst_147>:
    1370:	6e482507          	flw	fa0,1764(a6)
    1374:	6e882587          	flw	fa1,1768(a6)
    1378:	6ec82607          	flw	fa2,1772(a6)
    137c:	00205073          	fsrmi	zero,0
    1380:	60b576cf          	fnmadd.s	fa3,fa0,fa1,fa2
    1384:	001028f3          	frflags	a7
    1388:	48d7ac27          	fsw	fa3,1176(a5)
    138c:	4917ae23          	sw	a7,1180(a5)

00001390 <inst_148>:
    1390:	6f082507          	flw	fa0,1776(a6)
    1394:	6f482587          	flw	fa1,1780(a6)
    1398:	6f882607          	flw	fa2,1784(a6)
    139c:	00205073          	fsrmi	zero,0
    13a0:	60b576cf          	fnmadd.s	fa3,fa0,fa1,fa2
    13a4:	001028f3          	frflags	a7
    13a8:	4ad7a027          	fsw	fa3,1184(a5)
    13ac:	4b17a223          	sw	a7,1188(a5)

000013b0 <inst_149>:
    13b0:	6fc82507          	flw	fa0,1788(a6)
    13b4:	70082587          	flw	fa1,1792(a6)
    13b8:	70482607          	flw	fa2,1796(a6)
    13bc:	00205073          	fsrmi	zero,0
    13c0:	60b576cf          	fnmadd.s	fa3,fa0,fa1,fa2
    13c4:	001028f3          	frflags	a7
    13c8:	4ad7a427          	fsw	fa3,1192(a5)
    13cc:	4b17a623          	sw	a7,1196(a5)

000013d0 <inst_150>:
    13d0:	70882507          	flw	fa0,1800(a6)
    13d4:	70c82587          	flw	fa1,1804(a6)
    13d8:	71082607          	flw	fa2,1808(a6)
    13dc:	00205073          	fsrmi	zero,0
    13e0:	60b576cf          	fnmadd.s	fa3,fa0,fa1,fa2
    13e4:	001028f3          	frflags	a7
    13e8:	4ad7a827          	fsw	fa3,1200(a5)
    13ec:	4b17aa23          	sw	a7,1204(a5)

000013f0 <inst_151>:
    13f0:	71482507          	flw	fa0,1812(a6)
    13f4:	71882587          	flw	fa1,1816(a6)
    13f8:	71c82607          	flw	fa2,1820(a6)
    13fc:	00205073          	fsrmi	zero,0
    1400:	60b576cf          	fnmadd.s	fa3,fa0,fa1,fa2
    1404:	001028f3          	frflags	a7
    1408:	4ad7ac27          	fsw	fa3,1208(a5)
    140c:	4b17ae23          	sw	a7,1212(a5)

00001410 <inst_152>:
    1410:	72082507          	flw	fa0,1824(a6)
    1414:	72482587          	flw	fa1,1828(a6)
    1418:	72882607          	flw	fa2,1832(a6)
    141c:	00205073          	fsrmi	zero,0
    1420:	60b576cf          	fnmadd.s	fa3,fa0,fa1,fa2
    1424:	001028f3          	frflags	a7
    1428:	4cd7a027          	fsw	fa3,1216(a5)
    142c:	4d17a223          	sw	a7,1220(a5)

00001430 <inst_153>:
    1430:	72c82507          	flw	fa0,1836(a6)
    1434:	73082587          	flw	fa1,1840(a6)
    1438:	73482607          	flw	fa2,1844(a6)
    143c:	00205073          	fsrmi	zero,0
    1440:	60b576cf          	fnmadd.s	fa3,fa0,fa1,fa2
    1444:	001028f3          	frflags	a7
    1448:	4cd7a427          	fsw	fa3,1224(a5)
    144c:	4d17a623          	sw	a7,1228(a5)

00001450 <inst_154>:
    1450:	73882507          	flw	fa0,1848(a6)
    1454:	73c82587          	flw	fa1,1852(a6)
    1458:	74082607          	flw	fa2,1856(a6)
    145c:	00205073          	fsrmi	zero,0
    1460:	60b576cf          	fnmadd.s	fa3,fa0,fa1,fa2
    1464:	001028f3          	frflags	a7
    1468:	4cd7a827          	fsw	fa3,1232(a5)
    146c:	4d17aa23          	sw	a7,1236(a5)

00001470 <inst_155>:
    1470:	74482507          	flw	fa0,1860(a6)
    1474:	74882587          	flw	fa1,1864(a6)
    1478:	74c82607          	flw	fa2,1868(a6)
    147c:	00205073          	fsrmi	zero,0
    1480:	60b576cf          	fnmadd.s	fa3,fa0,fa1,fa2
    1484:	001028f3          	frflags	a7
    1488:	4cd7ac27          	fsw	fa3,1240(a5)
    148c:	4d17ae23          	sw	a7,1244(a5)

00001490 <inst_156>:
    1490:	75082507          	flw	fa0,1872(a6)
    1494:	75482587          	flw	fa1,1876(a6)
    1498:	75882607          	flw	fa2,1880(a6)
    149c:	00205073          	fsrmi	zero,0
    14a0:	60b576cf          	fnmadd.s	fa3,fa0,fa1,fa2
    14a4:	001028f3          	frflags	a7
    14a8:	4ed7a027          	fsw	fa3,1248(a5)
    14ac:	4f17a223          	sw	a7,1252(a5)

000014b0 <inst_157>:
    14b0:	75c82507          	flw	fa0,1884(a6)
    14b4:	76082587          	flw	fa1,1888(a6)
    14b8:	76482607          	flw	fa2,1892(a6)
    14bc:	00205073          	fsrmi	zero,0
    14c0:	60b576cf          	fnmadd.s	fa3,fa0,fa1,fa2
    14c4:	001028f3          	frflags	a7
    14c8:	4ed7a427          	fsw	fa3,1256(a5)
    14cc:	4f17a623          	sw	a7,1260(a5)

000014d0 <inst_158>:
    14d0:	76882507          	flw	fa0,1896(a6)
    14d4:	76c82587          	flw	fa1,1900(a6)
    14d8:	77082607          	flw	fa2,1904(a6)
    14dc:	00205073          	fsrmi	zero,0
    14e0:	60b576cf          	fnmadd.s	fa3,fa0,fa1,fa2
    14e4:	001028f3          	frflags	a7
    14e8:	4ed7a827          	fsw	fa3,1264(a5)
    14ec:	4f17aa23          	sw	a7,1268(a5)

000014f0 <inst_159>:
    14f0:	77482507          	flw	fa0,1908(a6)
    14f4:	77882587          	flw	fa1,1912(a6)
    14f8:	77c82607          	flw	fa2,1916(a6)
    14fc:	00205073          	fsrmi	zero,0
    1500:	60b576cf          	fnmadd.s	fa3,fa0,fa1,fa2
    1504:	001028f3          	frflags	a7
    1508:	4ed7ac27          	fsw	fa3,1272(a5)
    150c:	4f17ae23          	sw	a7,1276(a5)

00001510 <inst_160>:
    1510:	78082507          	flw	fa0,1920(a6)
    1514:	78482587          	flw	fa1,1924(a6)
    1518:	78882607          	flw	fa2,1928(a6)
    151c:	00205073          	fsrmi	zero,0
    1520:	60b576cf          	fnmadd.s	fa3,fa0,fa1,fa2
    1524:	001028f3          	frflags	a7
    1528:	50d7a027          	fsw	fa3,1280(a5)
    152c:	5117a223          	sw	a7,1284(a5)

00001530 <inst_161>:
    1530:	78c82507          	flw	fa0,1932(a6)
    1534:	79082587          	flw	fa1,1936(a6)
    1538:	79482607          	flw	fa2,1940(a6)
    153c:	00205073          	fsrmi	zero,0
    1540:	60b576cf          	fnmadd.s	fa3,fa0,fa1,fa2
    1544:	001028f3          	frflags	a7
    1548:	50d7a427          	fsw	fa3,1288(a5)
    154c:	5117a623          	sw	a7,1292(a5)

00001550 <inst_162>:
    1550:	79882507          	flw	fa0,1944(a6)
    1554:	79c82587          	flw	fa1,1948(a6)
    1558:	7a082607          	flw	fa2,1952(a6)
    155c:	00205073          	fsrmi	zero,0
    1560:	60b576cf          	fnmadd.s	fa3,fa0,fa1,fa2
    1564:	001028f3          	frflags	a7
    1568:	50d7a827          	fsw	fa3,1296(a5)
    156c:	5117aa23          	sw	a7,1300(a5)

00001570 <inst_163>:
    1570:	7a482507          	flw	fa0,1956(a6)
    1574:	7a882587          	flw	fa1,1960(a6)
    1578:	7ac82607          	flw	fa2,1964(a6)
    157c:	00205073          	fsrmi	zero,0
    1580:	60b576cf          	fnmadd.s	fa3,fa0,fa1,fa2
    1584:	001028f3          	frflags	a7
    1588:	50d7ac27          	fsw	fa3,1304(a5)
    158c:	5117ae23          	sw	a7,1308(a5)

00001590 <inst_164>:
    1590:	7b082507          	flw	fa0,1968(a6)
    1594:	7b482587          	flw	fa1,1972(a6)
    1598:	7b882607          	flw	fa2,1976(a6)
    159c:	00205073          	fsrmi	zero,0
    15a0:	60b576cf          	fnmadd.s	fa3,fa0,fa1,fa2
    15a4:	001028f3          	frflags	a7
    15a8:	52d7a027          	fsw	fa3,1312(a5)
    15ac:	5317a223          	sw	a7,1316(a5)

000015b0 <inst_165>:
    15b0:	7bc82507          	flw	fa0,1980(a6)
    15b4:	7c082587          	flw	fa1,1984(a6)
    15b8:	7c482607          	flw	fa2,1988(a6)
    15bc:	00205073          	fsrmi	zero,0
    15c0:	60b576cf          	fnmadd.s	fa3,fa0,fa1,fa2
    15c4:	001028f3          	frflags	a7
    15c8:	52d7a427          	fsw	fa3,1320(a5)
    15cc:	5317a623          	sw	a7,1324(a5)

000015d0 <inst_166>:
    15d0:	7c882507          	flw	fa0,1992(a6)
    15d4:	7cc82587          	flw	fa1,1996(a6)
    15d8:	7d082607          	flw	fa2,2000(a6)
    15dc:	00205073          	fsrmi	zero,0
    15e0:	60b576cf          	fnmadd.s	fa3,fa0,fa1,fa2
    15e4:	001028f3          	frflags	a7
    15e8:	52d7a827          	fsw	fa3,1328(a5)
    15ec:	5317aa23          	sw	a7,1332(a5)

000015f0 <inst_167>:
    15f0:	7d482507          	flw	fa0,2004(a6)
    15f4:	7d882587          	flw	fa1,2008(a6)
    15f8:	7dc82607          	flw	fa2,2012(a6)
    15fc:	00205073          	fsrmi	zero,0
    1600:	60b576cf          	fnmadd.s	fa3,fa0,fa1,fa2
    1604:	001028f3          	frflags	a7
    1608:	52d7ac27          	fsw	fa3,1336(a5)
    160c:	5317ae23          	sw	a7,1340(a5)

00001610 <inst_168>:
    1610:	7e082507          	flw	fa0,2016(a6)
    1614:	7e482587          	flw	fa1,2020(a6)
    1618:	7e882607          	flw	fa2,2024(a6)
    161c:	00205073          	fsrmi	zero,0
    1620:	60b576cf          	fnmadd.s	fa3,fa0,fa1,fa2
    1624:	001028f3          	frflags	a7
    1628:	54d7a027          	fsw	fa3,1344(a5)
    162c:	5517a223          	sw	a7,1348(a5)

00001630 <inst_169>:
    1630:	7ec82507          	flw	fa0,2028(a6)
    1634:	7f082587          	flw	fa1,2032(a6)
    1638:	7f482607          	flw	fa2,2036(a6)
    163c:	00205073          	fsrmi	zero,0
    1640:	60b576cf          	fnmadd.s	fa3,fa0,fa1,fa2
    1644:	001028f3          	frflags	a7
    1648:	54d7a427          	fsw	fa3,1352(a5)
    164c:	5517a623          	sw	a7,1356(a5)
    1650:	7f880813          	add	a6,a6,2040

00001654 <inst_170>:
    1654:	00082507          	flw	fa0,0(a6)
    1658:	00482587          	flw	fa1,4(a6)
    165c:	00882607          	flw	fa2,8(a6)
    1660:	00205073          	fsrmi	zero,0
    1664:	60b576cf          	fnmadd.s	fa3,fa0,fa1,fa2
    1668:	001028f3          	frflags	a7
    166c:	54d7a827          	fsw	fa3,1360(a5)
    1670:	5517aa23          	sw	a7,1364(a5)

00001674 <inst_171>:
    1674:	00c82507          	flw	fa0,12(a6)
    1678:	01082587          	flw	fa1,16(a6)
    167c:	01482607          	flw	fa2,20(a6)
    1680:	00205073          	fsrmi	zero,0
    1684:	60b576cf          	fnmadd.s	fa3,fa0,fa1,fa2
    1688:	001028f3          	frflags	a7
    168c:	54d7ac27          	fsw	fa3,1368(a5)
    1690:	5517ae23          	sw	a7,1372(a5)

00001694 <inst_172>:
    1694:	01882507          	flw	fa0,24(a6)
    1698:	01c82587          	flw	fa1,28(a6)
    169c:	02082607          	flw	fa2,32(a6)
    16a0:	00205073          	fsrmi	zero,0
    16a4:	60b576cf          	fnmadd.s	fa3,fa0,fa1,fa2
    16a8:	001028f3          	frflags	a7
    16ac:	56d7a027          	fsw	fa3,1376(a5)
    16b0:	5717a223          	sw	a7,1380(a5)

000016b4 <inst_173>:
    16b4:	02482507          	flw	fa0,36(a6)
    16b8:	02882587          	flw	fa1,40(a6)
    16bc:	02c82607          	flw	fa2,44(a6)
    16c0:	00205073          	fsrmi	zero,0
    16c4:	60b576cf          	fnmadd.s	fa3,fa0,fa1,fa2
    16c8:	001028f3          	frflags	a7
    16cc:	56d7a427          	fsw	fa3,1384(a5)
    16d0:	5717a623          	sw	a7,1388(a5)

000016d4 <inst_174>:
    16d4:	03082507          	flw	fa0,48(a6)
    16d8:	03482587          	flw	fa1,52(a6)
    16dc:	03882607          	flw	fa2,56(a6)
    16e0:	00205073          	fsrmi	zero,0
    16e4:	60b576cf          	fnmadd.s	fa3,fa0,fa1,fa2
    16e8:	001028f3          	frflags	a7
    16ec:	56d7a827          	fsw	fa3,1392(a5)
    16f0:	5717aa23          	sw	a7,1396(a5)

000016f4 <inst_175>:
    16f4:	03c82507          	flw	fa0,60(a6)
    16f8:	04082587          	flw	fa1,64(a6)
    16fc:	04482607          	flw	fa2,68(a6)
    1700:	00205073          	fsrmi	zero,0
    1704:	60b576cf          	fnmadd.s	fa3,fa0,fa1,fa2
    1708:	001028f3          	frflags	a7
    170c:	56d7ac27          	fsw	fa3,1400(a5)
    1710:	5717ae23          	sw	a7,1404(a5)

00001714 <inst_176>:
    1714:	04882507          	flw	fa0,72(a6)
    1718:	04c82587          	flw	fa1,76(a6)
    171c:	05082607          	flw	fa2,80(a6)
    1720:	00205073          	fsrmi	zero,0
    1724:	60b576cf          	fnmadd.s	fa3,fa0,fa1,fa2
    1728:	001028f3          	frflags	a7
    172c:	58d7a027          	fsw	fa3,1408(a5)
    1730:	5917a223          	sw	a7,1412(a5)

00001734 <inst_177>:
    1734:	05482507          	flw	fa0,84(a6)
    1738:	05882587          	flw	fa1,88(a6)
    173c:	05c82607          	flw	fa2,92(a6)
    1740:	00205073          	fsrmi	zero,0
    1744:	60b576cf          	fnmadd.s	fa3,fa0,fa1,fa2
    1748:	001028f3          	frflags	a7
    174c:	58d7a427          	fsw	fa3,1416(a5)
    1750:	5917a623          	sw	a7,1420(a5)

00001754 <inst_178>:
    1754:	06082507          	flw	fa0,96(a6)
    1758:	06482587          	flw	fa1,100(a6)
    175c:	06882607          	flw	fa2,104(a6)
    1760:	00205073          	fsrmi	zero,0
    1764:	60b576cf          	fnmadd.s	fa3,fa0,fa1,fa2
    1768:	001028f3          	frflags	a7
    176c:	58d7a827          	fsw	fa3,1424(a5)
    1770:	5917aa23          	sw	a7,1428(a5)

00001774 <inst_179>:
    1774:	06c82507          	flw	fa0,108(a6)
    1778:	07082587          	flw	fa1,112(a6)
    177c:	07482607          	flw	fa2,116(a6)
    1780:	00205073          	fsrmi	zero,0
    1784:	60b576cf          	fnmadd.s	fa3,fa0,fa1,fa2
    1788:	001028f3          	frflags	a7
    178c:	58d7ac27          	fsw	fa3,1432(a5)
    1790:	5917ae23          	sw	a7,1436(a5)

00001794 <inst_180>:
    1794:	07882507          	flw	fa0,120(a6)
    1798:	07c82587          	flw	fa1,124(a6)
    179c:	08082607          	flw	fa2,128(a6)
    17a0:	00205073          	fsrmi	zero,0
    17a4:	60b576cf          	fnmadd.s	fa3,fa0,fa1,fa2
    17a8:	001028f3          	frflags	a7
    17ac:	5ad7a027          	fsw	fa3,1440(a5)
    17b0:	5b17a223          	sw	a7,1444(a5)

000017b4 <inst_181>:
    17b4:	08482507          	flw	fa0,132(a6)
    17b8:	08882587          	flw	fa1,136(a6)
    17bc:	08c82607          	flw	fa2,140(a6)
    17c0:	00205073          	fsrmi	zero,0
    17c4:	60b576cf          	fnmadd.s	fa3,fa0,fa1,fa2
    17c8:	001028f3          	frflags	a7
    17cc:	5ad7a427          	fsw	fa3,1448(a5)
    17d0:	5b17a623          	sw	a7,1452(a5)

000017d4 <inst_182>:
    17d4:	09082507          	flw	fa0,144(a6)
    17d8:	09482587          	flw	fa1,148(a6)
    17dc:	09882607          	flw	fa2,152(a6)
    17e0:	00205073          	fsrmi	zero,0
    17e4:	60b576cf          	fnmadd.s	fa3,fa0,fa1,fa2
    17e8:	001028f3          	frflags	a7
    17ec:	5ad7a827          	fsw	fa3,1456(a5)
    17f0:	5b17aa23          	sw	a7,1460(a5)

000017f4 <inst_183>:
    17f4:	09c82507          	flw	fa0,156(a6)
    17f8:	0a082587          	flw	fa1,160(a6)
    17fc:	0a482607          	flw	fa2,164(a6)
    1800:	00205073          	fsrmi	zero,0
    1804:	60b576cf          	fnmadd.s	fa3,fa0,fa1,fa2
    1808:	001028f3          	frflags	a7
    180c:	5ad7ac27          	fsw	fa3,1464(a5)
    1810:	5b17ae23          	sw	a7,1468(a5)

00001814 <inst_184>:
    1814:	0a882507          	flw	fa0,168(a6)
    1818:	0ac82587          	flw	fa1,172(a6)
    181c:	0b082607          	flw	fa2,176(a6)
    1820:	00205073          	fsrmi	zero,0
    1824:	60b576cf          	fnmadd.s	fa3,fa0,fa1,fa2
    1828:	001028f3          	frflags	a7
    182c:	5cd7a027          	fsw	fa3,1472(a5)
    1830:	5d17a223          	sw	a7,1476(a5)

00001834 <inst_185>:
    1834:	0b482507          	flw	fa0,180(a6)
    1838:	0b882587          	flw	fa1,184(a6)
    183c:	0bc82607          	flw	fa2,188(a6)
    1840:	00205073          	fsrmi	zero,0
    1844:	60b576cf          	fnmadd.s	fa3,fa0,fa1,fa2
    1848:	001028f3          	frflags	a7
    184c:	5cd7a427          	fsw	fa3,1480(a5)
    1850:	5d17a623          	sw	a7,1484(a5)

00001854 <inst_186>:
    1854:	0c082507          	flw	fa0,192(a6)
    1858:	0c482587          	flw	fa1,196(a6)
    185c:	0c882607          	flw	fa2,200(a6)
    1860:	00205073          	fsrmi	zero,0
    1864:	60b576cf          	fnmadd.s	fa3,fa0,fa1,fa2
    1868:	001028f3          	frflags	a7
    186c:	5cd7a827          	fsw	fa3,1488(a5)
    1870:	5d17aa23          	sw	a7,1492(a5)

00001874 <inst_187>:
    1874:	0cc82507          	flw	fa0,204(a6)
    1878:	0d082587          	flw	fa1,208(a6)
    187c:	0d482607          	flw	fa2,212(a6)
    1880:	00205073          	fsrmi	zero,0
    1884:	60b576cf          	fnmadd.s	fa3,fa0,fa1,fa2
    1888:	001028f3          	frflags	a7
    188c:	5cd7ac27          	fsw	fa3,1496(a5)
    1890:	5d17ae23          	sw	a7,1500(a5)

00001894 <inst_188>:
    1894:	0d882507          	flw	fa0,216(a6)
    1898:	0dc82587          	flw	fa1,220(a6)
    189c:	0e082607          	flw	fa2,224(a6)
    18a0:	00205073          	fsrmi	zero,0
    18a4:	60b576cf          	fnmadd.s	fa3,fa0,fa1,fa2
    18a8:	001028f3          	frflags	a7
    18ac:	5ed7a027          	fsw	fa3,1504(a5)
    18b0:	5f17a223          	sw	a7,1508(a5)

000018b4 <inst_189>:
    18b4:	0e482507          	flw	fa0,228(a6)
    18b8:	0e882587          	flw	fa1,232(a6)
    18bc:	0ec82607          	flw	fa2,236(a6)
    18c0:	00205073          	fsrmi	zero,0
    18c4:	60b576cf          	fnmadd.s	fa3,fa0,fa1,fa2
    18c8:	001028f3          	frflags	a7
    18cc:	5ed7a427          	fsw	fa3,1512(a5)
    18d0:	5f17a623          	sw	a7,1516(a5)

000018d4 <inst_190>:
    18d4:	0f082507          	flw	fa0,240(a6)
    18d8:	0f482587          	flw	fa1,244(a6)
    18dc:	0f882607          	flw	fa2,248(a6)
    18e0:	00205073          	fsrmi	zero,0
    18e4:	60b576cf          	fnmadd.s	fa3,fa0,fa1,fa2
    18e8:	001028f3          	frflags	a7
    18ec:	5ed7a827          	fsw	fa3,1520(a5)
    18f0:	5f17aa23          	sw	a7,1524(a5)

000018f4 <inst_191>:
    18f4:	0fc82507          	flw	fa0,252(a6)
    18f8:	10082587          	flw	fa1,256(a6)
    18fc:	10482607          	flw	fa2,260(a6)
    1900:	00205073          	fsrmi	zero,0
    1904:	60b576cf          	fnmadd.s	fa3,fa0,fa1,fa2
    1908:	001028f3          	frflags	a7
    190c:	5ed7ac27          	fsw	fa3,1528(a5)
    1910:	5f17ae23          	sw	a7,1532(a5)

00001914 <inst_192>:
    1914:	10882507          	flw	fa0,264(a6)
    1918:	10c82587          	flw	fa1,268(a6)
    191c:	11082607          	flw	fa2,272(a6)
    1920:	00205073          	fsrmi	zero,0
    1924:	60b576cf          	fnmadd.s	fa3,fa0,fa1,fa2
    1928:	001028f3          	frflags	a7
    192c:	60d7a027          	fsw	fa3,1536(a5)
    1930:	6117a223          	sw	a7,1540(a5)

00001934 <inst_193>:
    1934:	11482507          	flw	fa0,276(a6)
    1938:	11882587          	flw	fa1,280(a6)
    193c:	11c82607          	flw	fa2,284(a6)
    1940:	00205073          	fsrmi	zero,0
    1944:	60b576cf          	fnmadd.s	fa3,fa0,fa1,fa2
    1948:	001028f3          	frflags	a7
    194c:	60d7a427          	fsw	fa3,1544(a5)
    1950:	6117a623          	sw	a7,1548(a5)

00001954 <inst_194>:
    1954:	12082507          	flw	fa0,288(a6)
    1958:	12482587          	flw	fa1,292(a6)
    195c:	12882607          	flw	fa2,296(a6)
    1960:	00205073          	fsrmi	zero,0
    1964:	60b576cf          	fnmadd.s	fa3,fa0,fa1,fa2
    1968:	001028f3          	frflags	a7
    196c:	60d7a827          	fsw	fa3,1552(a5)
    1970:	6117aa23          	sw	a7,1556(a5)

00001974 <inst_195>:
    1974:	12c82507          	flw	fa0,300(a6)
    1978:	13082587          	flw	fa1,304(a6)
    197c:	13482607          	flw	fa2,308(a6)
    1980:	00205073          	fsrmi	zero,0
    1984:	60b576cf          	fnmadd.s	fa3,fa0,fa1,fa2
    1988:	001028f3          	frflags	a7
    198c:	60d7ac27          	fsw	fa3,1560(a5)
    1990:	6117ae23          	sw	a7,1564(a5)

00001994 <inst_196>:
    1994:	13882507          	flw	fa0,312(a6)
    1998:	13c82587          	flw	fa1,316(a6)
    199c:	14082607          	flw	fa2,320(a6)
    19a0:	00205073          	fsrmi	zero,0
    19a4:	60b576cf          	fnmadd.s	fa3,fa0,fa1,fa2
    19a8:	001028f3          	frflags	a7
    19ac:	62d7a027          	fsw	fa3,1568(a5)
    19b0:	6317a223          	sw	a7,1572(a5)

000019b4 <inst_197>:
    19b4:	14482507          	flw	fa0,324(a6)
    19b8:	14882587          	flw	fa1,328(a6)
    19bc:	14c82607          	flw	fa2,332(a6)
    19c0:	00205073          	fsrmi	zero,0
    19c4:	60b576cf          	fnmadd.s	fa3,fa0,fa1,fa2
    19c8:	001028f3          	frflags	a7
    19cc:	62d7a427          	fsw	fa3,1576(a5)
    19d0:	6317a623          	sw	a7,1580(a5)

000019d4 <inst_198>:
    19d4:	15082507          	flw	fa0,336(a6)
    19d8:	15482587          	flw	fa1,340(a6)
    19dc:	15882607          	flw	fa2,344(a6)
    19e0:	00205073          	fsrmi	zero,0
    19e4:	60b576cf          	fnmadd.s	fa3,fa0,fa1,fa2
    19e8:	001028f3          	frflags	a7
    19ec:	62d7a827          	fsw	fa3,1584(a5)
    19f0:	6317aa23          	sw	a7,1588(a5)

000019f4 <inst_199>:
    19f4:	15c82507          	flw	fa0,348(a6)
    19f8:	16082587          	flw	fa1,352(a6)
    19fc:	16482607          	flw	fa2,356(a6)
    1a00:	00205073          	fsrmi	zero,0
    1a04:	60b576cf          	fnmadd.s	fa3,fa0,fa1,fa2
    1a08:	001028f3          	frflags	a7
    1a0c:	62d7ac27          	fsw	fa3,1592(a5)
    1a10:	6317ae23          	sw	a7,1596(a5)

00001a14 <inst_200>:
    1a14:	16882507          	flw	fa0,360(a6)
    1a18:	16c82587          	flw	fa1,364(a6)
    1a1c:	17082607          	flw	fa2,368(a6)
    1a20:	00205073          	fsrmi	zero,0
    1a24:	60b576cf          	fnmadd.s	fa3,fa0,fa1,fa2
    1a28:	001028f3          	frflags	a7
    1a2c:	64d7a027          	fsw	fa3,1600(a5)
    1a30:	6517a223          	sw	a7,1604(a5)

00001a34 <inst_201>:
    1a34:	17482507          	flw	fa0,372(a6)
    1a38:	17882587          	flw	fa1,376(a6)
    1a3c:	17c82607          	flw	fa2,380(a6)
    1a40:	00205073          	fsrmi	zero,0
    1a44:	60b576cf          	fnmadd.s	fa3,fa0,fa1,fa2
    1a48:	001028f3          	frflags	a7
    1a4c:	64d7a427          	fsw	fa3,1608(a5)
    1a50:	6517a623          	sw	a7,1612(a5)

00001a54 <inst_202>:
    1a54:	18082507          	flw	fa0,384(a6)
    1a58:	18482587          	flw	fa1,388(a6)
    1a5c:	18882607          	flw	fa2,392(a6)
    1a60:	00205073          	fsrmi	zero,0
    1a64:	60b576cf          	fnmadd.s	fa3,fa0,fa1,fa2
    1a68:	001028f3          	frflags	a7
    1a6c:	64d7a827          	fsw	fa3,1616(a5)
    1a70:	6517aa23          	sw	a7,1620(a5)

00001a74 <inst_203>:
    1a74:	18c82507          	flw	fa0,396(a6)
    1a78:	19082587          	flw	fa1,400(a6)
    1a7c:	19482607          	flw	fa2,404(a6)
    1a80:	00205073          	fsrmi	zero,0
    1a84:	60b576cf          	fnmadd.s	fa3,fa0,fa1,fa2
    1a88:	001028f3          	frflags	a7
    1a8c:	64d7ac27          	fsw	fa3,1624(a5)
    1a90:	6517ae23          	sw	a7,1628(a5)

00001a94 <inst_204>:
    1a94:	19882507          	flw	fa0,408(a6)
    1a98:	19c82587          	flw	fa1,412(a6)
    1a9c:	1a082607          	flw	fa2,416(a6)
    1aa0:	00205073          	fsrmi	zero,0
    1aa4:	60b576cf          	fnmadd.s	fa3,fa0,fa1,fa2
    1aa8:	001028f3          	frflags	a7
    1aac:	66d7a027          	fsw	fa3,1632(a5)
    1ab0:	6717a223          	sw	a7,1636(a5)

00001ab4 <inst_205>:
    1ab4:	1a482507          	flw	fa0,420(a6)
    1ab8:	1a882587          	flw	fa1,424(a6)
    1abc:	1ac82607          	flw	fa2,428(a6)
    1ac0:	00205073          	fsrmi	zero,0
    1ac4:	60b576cf          	fnmadd.s	fa3,fa0,fa1,fa2
    1ac8:	001028f3          	frflags	a7
    1acc:	66d7a427          	fsw	fa3,1640(a5)
    1ad0:	6717a623          	sw	a7,1644(a5)

00001ad4 <inst_206>:
    1ad4:	1b082507          	flw	fa0,432(a6)
    1ad8:	1b482587          	flw	fa1,436(a6)
    1adc:	1b882607          	flw	fa2,440(a6)
    1ae0:	00205073          	fsrmi	zero,0
    1ae4:	60b576cf          	fnmadd.s	fa3,fa0,fa1,fa2
    1ae8:	001028f3          	frflags	a7
    1aec:	66d7a827          	fsw	fa3,1648(a5)
    1af0:	6717aa23          	sw	a7,1652(a5)

00001af4 <inst_207>:
    1af4:	1bc82507          	flw	fa0,444(a6)
    1af8:	1c082587          	flw	fa1,448(a6)
    1afc:	1c482607          	flw	fa2,452(a6)
    1b00:	00205073          	fsrmi	zero,0
    1b04:	60b576cf          	fnmadd.s	fa3,fa0,fa1,fa2
    1b08:	001028f3          	frflags	a7
    1b0c:	66d7ac27          	fsw	fa3,1656(a5)
    1b10:	6717ae23          	sw	a7,1660(a5)

00001b14 <inst_208>:
    1b14:	1c882507          	flw	fa0,456(a6)
    1b18:	1cc82587          	flw	fa1,460(a6)
    1b1c:	1d082607          	flw	fa2,464(a6)
    1b20:	00205073          	fsrmi	zero,0
    1b24:	60b576cf          	fnmadd.s	fa3,fa0,fa1,fa2
    1b28:	001028f3          	frflags	a7
    1b2c:	68d7a027          	fsw	fa3,1664(a5)
    1b30:	6917a223          	sw	a7,1668(a5)

00001b34 <inst_209>:
    1b34:	1d482507          	flw	fa0,468(a6)
    1b38:	1d882587          	flw	fa1,472(a6)
    1b3c:	1dc82607          	flw	fa2,476(a6)
    1b40:	00205073          	fsrmi	zero,0
    1b44:	60b576cf          	fnmadd.s	fa3,fa0,fa1,fa2
    1b48:	001028f3          	frflags	a7
    1b4c:	68d7a427          	fsw	fa3,1672(a5)
    1b50:	6917a623          	sw	a7,1676(a5)

00001b54 <inst_210>:
    1b54:	1e082507          	flw	fa0,480(a6)
    1b58:	1e482587          	flw	fa1,484(a6)
    1b5c:	1e882607          	flw	fa2,488(a6)
    1b60:	00205073          	fsrmi	zero,0
    1b64:	60b576cf          	fnmadd.s	fa3,fa0,fa1,fa2
    1b68:	001028f3          	frflags	a7
    1b6c:	68d7a827          	fsw	fa3,1680(a5)
    1b70:	6917aa23          	sw	a7,1684(a5)

00001b74 <inst_211>:
    1b74:	1ec82507          	flw	fa0,492(a6)
    1b78:	1f082587          	flw	fa1,496(a6)
    1b7c:	1f482607          	flw	fa2,500(a6)
    1b80:	00205073          	fsrmi	zero,0
    1b84:	60b576cf          	fnmadd.s	fa3,fa0,fa1,fa2
    1b88:	001028f3          	frflags	a7
    1b8c:	68d7ac27          	fsw	fa3,1688(a5)
    1b90:	6917ae23          	sw	a7,1692(a5)

00001b94 <inst_212>:
    1b94:	1f882507          	flw	fa0,504(a6)
    1b98:	1fc82587          	flw	fa1,508(a6)
    1b9c:	20082607          	flw	fa2,512(a6)
    1ba0:	00205073          	fsrmi	zero,0
    1ba4:	60b576cf          	fnmadd.s	fa3,fa0,fa1,fa2
    1ba8:	001028f3          	frflags	a7
    1bac:	6ad7a027          	fsw	fa3,1696(a5)
    1bb0:	6b17a223          	sw	a7,1700(a5)

00001bb4 <inst_213>:
    1bb4:	20482507          	flw	fa0,516(a6)
    1bb8:	20882587          	flw	fa1,520(a6)
    1bbc:	20c82607          	flw	fa2,524(a6)
    1bc0:	00205073          	fsrmi	zero,0
    1bc4:	60b576cf          	fnmadd.s	fa3,fa0,fa1,fa2
    1bc8:	001028f3          	frflags	a7
    1bcc:	6ad7a427          	fsw	fa3,1704(a5)
    1bd0:	6b17a623          	sw	a7,1708(a5)

00001bd4 <inst_214>:
    1bd4:	21082507          	flw	fa0,528(a6)
    1bd8:	21482587          	flw	fa1,532(a6)
    1bdc:	21882607          	flw	fa2,536(a6)
    1be0:	00205073          	fsrmi	zero,0
    1be4:	60b576cf          	fnmadd.s	fa3,fa0,fa1,fa2
    1be8:	001028f3          	frflags	a7
    1bec:	6ad7a827          	fsw	fa3,1712(a5)
    1bf0:	6b17aa23          	sw	a7,1716(a5)

00001bf4 <inst_215>:
    1bf4:	21c82507          	flw	fa0,540(a6)
    1bf8:	22082587          	flw	fa1,544(a6)
    1bfc:	22482607          	flw	fa2,548(a6)
    1c00:	00205073          	fsrmi	zero,0
    1c04:	60b576cf          	fnmadd.s	fa3,fa0,fa1,fa2
    1c08:	001028f3          	frflags	a7
    1c0c:	6ad7ac27          	fsw	fa3,1720(a5)
    1c10:	6b17ae23          	sw	a7,1724(a5)

00001c14 <inst_216>:
    1c14:	22882507          	flw	fa0,552(a6)
    1c18:	22c82587          	flw	fa1,556(a6)
    1c1c:	23082607          	flw	fa2,560(a6)
    1c20:	00205073          	fsrmi	zero,0
    1c24:	60b576cf          	fnmadd.s	fa3,fa0,fa1,fa2
    1c28:	001028f3          	frflags	a7
    1c2c:	6cd7a027          	fsw	fa3,1728(a5)
    1c30:	6d17a223          	sw	a7,1732(a5)

00001c34 <inst_217>:
    1c34:	23482507          	flw	fa0,564(a6)
    1c38:	23882587          	flw	fa1,568(a6)
    1c3c:	23c82607          	flw	fa2,572(a6)
    1c40:	00205073          	fsrmi	zero,0
    1c44:	60b576cf          	fnmadd.s	fa3,fa0,fa1,fa2
    1c48:	001028f3          	frflags	a7
    1c4c:	6cd7a427          	fsw	fa3,1736(a5)
    1c50:	6d17a623          	sw	a7,1740(a5)

00001c54 <inst_218>:
    1c54:	24082507          	flw	fa0,576(a6)
    1c58:	24482587          	flw	fa1,580(a6)
    1c5c:	24882607          	flw	fa2,584(a6)
    1c60:	00205073          	fsrmi	zero,0
    1c64:	60b576cf          	fnmadd.s	fa3,fa0,fa1,fa2
    1c68:	001028f3          	frflags	a7
    1c6c:	6cd7a827          	fsw	fa3,1744(a5)
    1c70:	6d17aa23          	sw	a7,1748(a5)

00001c74 <inst_219>:
    1c74:	24c82507          	flw	fa0,588(a6)
    1c78:	25082587          	flw	fa1,592(a6)
    1c7c:	25482607          	flw	fa2,596(a6)
    1c80:	00205073          	fsrmi	zero,0
    1c84:	60b576cf          	fnmadd.s	fa3,fa0,fa1,fa2
    1c88:	001028f3          	frflags	a7
    1c8c:	6cd7ac27          	fsw	fa3,1752(a5)
    1c90:	6d17ae23          	sw	a7,1756(a5)

00001c94 <inst_220>:
    1c94:	25882507          	flw	fa0,600(a6)
    1c98:	25c82587          	flw	fa1,604(a6)
    1c9c:	26082607          	flw	fa2,608(a6)
    1ca0:	00205073          	fsrmi	zero,0
    1ca4:	60b576cf          	fnmadd.s	fa3,fa0,fa1,fa2
    1ca8:	001028f3          	frflags	a7
    1cac:	6ed7a027          	fsw	fa3,1760(a5)
    1cb0:	6f17a223          	sw	a7,1764(a5)

00001cb4 <inst_221>:
    1cb4:	26482507          	flw	fa0,612(a6)
    1cb8:	26882587          	flw	fa1,616(a6)
    1cbc:	26c82607          	flw	fa2,620(a6)
    1cc0:	00205073          	fsrmi	zero,0
    1cc4:	60b576cf          	fnmadd.s	fa3,fa0,fa1,fa2
    1cc8:	001028f3          	frflags	a7
    1ccc:	6ed7a427          	fsw	fa3,1768(a5)
    1cd0:	6f17a623          	sw	a7,1772(a5)

00001cd4 <inst_222>:
    1cd4:	27082507          	flw	fa0,624(a6)
    1cd8:	27482587          	flw	fa1,628(a6)
    1cdc:	27882607          	flw	fa2,632(a6)
    1ce0:	00205073          	fsrmi	zero,0
    1ce4:	60b576cf          	fnmadd.s	fa3,fa0,fa1,fa2
    1ce8:	001028f3          	frflags	a7
    1cec:	6ed7a827          	fsw	fa3,1776(a5)
    1cf0:	6f17aa23          	sw	a7,1780(a5)

00001cf4 <inst_223>:
    1cf4:	27c82507          	flw	fa0,636(a6)
    1cf8:	28082587          	flw	fa1,640(a6)
    1cfc:	28482607          	flw	fa2,644(a6)
    1d00:	00205073          	fsrmi	zero,0
    1d04:	60b576cf          	fnmadd.s	fa3,fa0,fa1,fa2
    1d08:	001028f3          	frflags	a7
    1d0c:	6ed7ac27          	fsw	fa3,1784(a5)
    1d10:	6f17ae23          	sw	a7,1788(a5)

00001d14 <inst_224>:
    1d14:	28882507          	flw	fa0,648(a6)
    1d18:	28c82587          	flw	fa1,652(a6)
    1d1c:	29082607          	flw	fa2,656(a6)
    1d20:	00205073          	fsrmi	zero,0
    1d24:	60b576cf          	fnmadd.s	fa3,fa0,fa1,fa2
    1d28:	001028f3          	frflags	a7
    1d2c:	70d7a027          	fsw	fa3,1792(a5)
    1d30:	7117a223          	sw	a7,1796(a5)

00001d34 <inst_225>:
    1d34:	29482507          	flw	fa0,660(a6)
    1d38:	29882587          	flw	fa1,664(a6)
    1d3c:	29c82607          	flw	fa2,668(a6)
    1d40:	00205073          	fsrmi	zero,0
    1d44:	60b576cf          	fnmadd.s	fa3,fa0,fa1,fa2
    1d48:	001028f3          	frflags	a7
    1d4c:	70d7a427          	fsw	fa3,1800(a5)
    1d50:	7117a623          	sw	a7,1804(a5)

00001d54 <inst_226>:
    1d54:	2a082507          	flw	fa0,672(a6)
    1d58:	2a482587          	flw	fa1,676(a6)
    1d5c:	2a882607          	flw	fa2,680(a6)
    1d60:	00205073          	fsrmi	zero,0
    1d64:	60b576cf          	fnmadd.s	fa3,fa0,fa1,fa2
    1d68:	001028f3          	frflags	a7
    1d6c:	70d7a827          	fsw	fa3,1808(a5)
    1d70:	7117aa23          	sw	a7,1812(a5)

00001d74 <inst_227>:
    1d74:	2ac82507          	flw	fa0,684(a6)
    1d78:	2b082587          	flw	fa1,688(a6)
    1d7c:	2b482607          	flw	fa2,692(a6)
    1d80:	00205073          	fsrmi	zero,0
    1d84:	60b576cf          	fnmadd.s	fa3,fa0,fa1,fa2
    1d88:	001028f3          	frflags	a7
    1d8c:	70d7ac27          	fsw	fa3,1816(a5)
    1d90:	7117ae23          	sw	a7,1820(a5)

00001d94 <inst_228>:
    1d94:	2b882507          	flw	fa0,696(a6)
    1d98:	2bc82587          	flw	fa1,700(a6)
    1d9c:	2c082607          	flw	fa2,704(a6)
    1da0:	00205073          	fsrmi	zero,0
    1da4:	60b576cf          	fnmadd.s	fa3,fa0,fa1,fa2
    1da8:	001028f3          	frflags	a7
    1dac:	72d7a027          	fsw	fa3,1824(a5)
    1db0:	7317a223          	sw	a7,1828(a5)

00001db4 <inst_229>:
    1db4:	2c482507          	flw	fa0,708(a6)
    1db8:	2c882587          	flw	fa1,712(a6)
    1dbc:	2cc82607          	flw	fa2,716(a6)
    1dc0:	00205073          	fsrmi	zero,0
    1dc4:	60b576cf          	fnmadd.s	fa3,fa0,fa1,fa2
    1dc8:	001028f3          	frflags	a7
    1dcc:	72d7a427          	fsw	fa3,1832(a5)
    1dd0:	7317a623          	sw	a7,1836(a5)

00001dd4 <inst_230>:
    1dd4:	2d082507          	flw	fa0,720(a6)
    1dd8:	2d482587          	flw	fa1,724(a6)
    1ddc:	2d882607          	flw	fa2,728(a6)
    1de0:	00205073          	fsrmi	zero,0
    1de4:	60b576cf          	fnmadd.s	fa3,fa0,fa1,fa2
    1de8:	001028f3          	frflags	a7
    1dec:	72d7a827          	fsw	fa3,1840(a5)
    1df0:	7317aa23          	sw	a7,1844(a5)

00001df4 <inst_231>:
    1df4:	2dc82507          	flw	fa0,732(a6)
    1df8:	2e082587          	flw	fa1,736(a6)
    1dfc:	2e482607          	flw	fa2,740(a6)
    1e00:	00205073          	fsrmi	zero,0
    1e04:	60b576cf          	fnmadd.s	fa3,fa0,fa1,fa2
    1e08:	001028f3          	frflags	a7
    1e0c:	72d7ac27          	fsw	fa3,1848(a5)
    1e10:	7317ae23          	sw	a7,1852(a5)

00001e14 <inst_232>:
    1e14:	2e882507          	flw	fa0,744(a6)
    1e18:	2ec82587          	flw	fa1,748(a6)
    1e1c:	2f082607          	flw	fa2,752(a6)
    1e20:	00205073          	fsrmi	zero,0
    1e24:	60b576cf          	fnmadd.s	fa3,fa0,fa1,fa2
    1e28:	001028f3          	frflags	a7
    1e2c:	74d7a027          	fsw	fa3,1856(a5)
    1e30:	7517a223          	sw	a7,1860(a5)

00001e34 <inst_233>:
    1e34:	2f482507          	flw	fa0,756(a6)
    1e38:	2f882587          	flw	fa1,760(a6)
    1e3c:	2fc82607          	flw	fa2,764(a6)
    1e40:	00205073          	fsrmi	zero,0
    1e44:	60b576cf          	fnmadd.s	fa3,fa0,fa1,fa2
    1e48:	001028f3          	frflags	a7
    1e4c:	74d7a427          	fsw	fa3,1864(a5)
    1e50:	7517a623          	sw	a7,1868(a5)

00001e54 <inst_234>:
    1e54:	30082507          	flw	fa0,768(a6)
    1e58:	30482587          	flw	fa1,772(a6)
    1e5c:	30882607          	flw	fa2,776(a6)
    1e60:	00205073          	fsrmi	zero,0
    1e64:	60b576cf          	fnmadd.s	fa3,fa0,fa1,fa2
    1e68:	001028f3          	frflags	a7
    1e6c:	74d7a827          	fsw	fa3,1872(a5)
    1e70:	7517aa23          	sw	a7,1876(a5)

00001e74 <inst_235>:
    1e74:	30c82507          	flw	fa0,780(a6)
    1e78:	31082587          	flw	fa1,784(a6)
    1e7c:	31482607          	flw	fa2,788(a6)
    1e80:	00205073          	fsrmi	zero,0
    1e84:	60b576cf          	fnmadd.s	fa3,fa0,fa1,fa2
    1e88:	001028f3          	frflags	a7
    1e8c:	74d7ac27          	fsw	fa3,1880(a5)
    1e90:	7517ae23          	sw	a7,1884(a5)

00001e94 <inst_236>:
    1e94:	31882507          	flw	fa0,792(a6)
    1e98:	31c82587          	flw	fa1,796(a6)
    1e9c:	32082607          	flw	fa2,800(a6)
    1ea0:	00205073          	fsrmi	zero,0
    1ea4:	60b576cf          	fnmadd.s	fa3,fa0,fa1,fa2
    1ea8:	001028f3          	frflags	a7
    1eac:	76d7a027          	fsw	fa3,1888(a5)
    1eb0:	7717a223          	sw	a7,1892(a5)

00001eb4 <inst_237>:
    1eb4:	32482507          	flw	fa0,804(a6)
    1eb8:	32882587          	flw	fa1,808(a6)
    1ebc:	32c82607          	flw	fa2,812(a6)
    1ec0:	00205073          	fsrmi	zero,0
    1ec4:	60b576cf          	fnmadd.s	fa3,fa0,fa1,fa2
    1ec8:	001028f3          	frflags	a7
    1ecc:	76d7a427          	fsw	fa3,1896(a5)
    1ed0:	7717a623          	sw	a7,1900(a5)

00001ed4 <inst_238>:
    1ed4:	33082507          	flw	fa0,816(a6)
    1ed8:	33482587          	flw	fa1,820(a6)
    1edc:	33882607          	flw	fa2,824(a6)
    1ee0:	00205073          	fsrmi	zero,0
    1ee4:	60b576cf          	fnmadd.s	fa3,fa0,fa1,fa2
    1ee8:	001028f3          	frflags	a7
    1eec:	76d7a827          	fsw	fa3,1904(a5)
    1ef0:	7717aa23          	sw	a7,1908(a5)

00001ef4 <inst_239>:
    1ef4:	33c82507          	flw	fa0,828(a6)
    1ef8:	34082587          	flw	fa1,832(a6)
    1efc:	34482607          	flw	fa2,836(a6)
    1f00:	00205073          	fsrmi	zero,0
    1f04:	60b576cf          	fnmadd.s	fa3,fa0,fa1,fa2
    1f08:	001028f3          	frflags	a7
    1f0c:	76d7ac27          	fsw	fa3,1912(a5)
    1f10:	7717ae23          	sw	a7,1916(a5)

00001f14 <inst_240>:
    1f14:	34882507          	flw	fa0,840(a6)
    1f18:	34c82587          	flw	fa1,844(a6)
    1f1c:	35082607          	flw	fa2,848(a6)
    1f20:	00205073          	fsrmi	zero,0
    1f24:	60b576cf          	fnmadd.s	fa3,fa0,fa1,fa2
    1f28:	001028f3          	frflags	a7
    1f2c:	78d7a027          	fsw	fa3,1920(a5)
    1f30:	7917a223          	sw	a7,1924(a5)

00001f34 <inst_241>:
    1f34:	35482507          	flw	fa0,852(a6)
    1f38:	35882587          	flw	fa1,856(a6)
    1f3c:	35c82607          	flw	fa2,860(a6)
    1f40:	00205073          	fsrmi	zero,0
    1f44:	60b576cf          	fnmadd.s	fa3,fa0,fa1,fa2
    1f48:	001028f3          	frflags	a7
    1f4c:	78d7a427          	fsw	fa3,1928(a5)
    1f50:	7917a623          	sw	a7,1932(a5)

00001f54 <inst_242>:
    1f54:	36082507          	flw	fa0,864(a6)
    1f58:	36482587          	flw	fa1,868(a6)
    1f5c:	36882607          	flw	fa2,872(a6)
    1f60:	00205073          	fsrmi	zero,0
    1f64:	60b576cf          	fnmadd.s	fa3,fa0,fa1,fa2
    1f68:	001028f3          	frflags	a7
    1f6c:	78d7a827          	fsw	fa3,1936(a5)
    1f70:	7917aa23          	sw	a7,1940(a5)

00001f74 <inst_243>:
    1f74:	36c82507          	flw	fa0,876(a6)
    1f78:	37082587          	flw	fa1,880(a6)
    1f7c:	37482607          	flw	fa2,884(a6)
    1f80:	00205073          	fsrmi	zero,0
    1f84:	60b576cf          	fnmadd.s	fa3,fa0,fa1,fa2
    1f88:	001028f3          	frflags	a7
    1f8c:	78d7ac27          	fsw	fa3,1944(a5)
    1f90:	7917ae23          	sw	a7,1948(a5)

00001f94 <inst_244>:
    1f94:	37882507          	flw	fa0,888(a6)
    1f98:	37c82587          	flw	fa1,892(a6)
    1f9c:	38082607          	flw	fa2,896(a6)
    1fa0:	00205073          	fsrmi	zero,0
    1fa4:	60b576cf          	fnmadd.s	fa3,fa0,fa1,fa2
    1fa8:	001028f3          	frflags	a7
    1fac:	7ad7a027          	fsw	fa3,1952(a5)
    1fb0:	7b17a223          	sw	a7,1956(a5)

00001fb4 <inst_245>:
    1fb4:	38482507          	flw	fa0,900(a6)
    1fb8:	38882587          	flw	fa1,904(a6)
    1fbc:	38c82607          	flw	fa2,908(a6)
    1fc0:	00205073          	fsrmi	zero,0
    1fc4:	60b576cf          	fnmadd.s	fa3,fa0,fa1,fa2
    1fc8:	001028f3          	frflags	a7
    1fcc:	7ad7a427          	fsw	fa3,1960(a5)
    1fd0:	7b17a623          	sw	a7,1964(a5)

00001fd4 <inst_246>:
    1fd4:	39082507          	flw	fa0,912(a6)
    1fd8:	39482587          	flw	fa1,916(a6)
    1fdc:	39882607          	flw	fa2,920(a6)
    1fe0:	00205073          	fsrmi	zero,0
    1fe4:	60b576cf          	fnmadd.s	fa3,fa0,fa1,fa2
    1fe8:	001028f3          	frflags	a7
    1fec:	7ad7a827          	fsw	fa3,1968(a5)
    1ff0:	7b17aa23          	sw	a7,1972(a5)

00001ff4 <inst_247>:
    1ff4:	39c82507          	flw	fa0,924(a6)
    1ff8:	3a082587          	flw	fa1,928(a6)
    1ffc:	3a482607          	flw	fa2,932(a6)
    2000:	00205073          	fsrmi	zero,0
    2004:	60b576cf          	fnmadd.s	fa3,fa0,fa1,fa2
    2008:	001028f3          	frflags	a7
    200c:	7ad7ac27          	fsw	fa3,1976(a5)
    2010:	7b17ae23          	sw	a7,1980(a5)

00002014 <inst_248>:
    2014:	3a882507          	flw	fa0,936(a6)
    2018:	3ac82587          	flw	fa1,940(a6)
    201c:	3b082607          	flw	fa2,944(a6)
    2020:	00205073          	fsrmi	zero,0
    2024:	60b576cf          	fnmadd.s	fa3,fa0,fa1,fa2
    2028:	001028f3          	frflags	a7
    202c:	7cd7a027          	fsw	fa3,1984(a5)
    2030:	7d17a223          	sw	a7,1988(a5)

00002034 <inst_249>:
    2034:	3b482507          	flw	fa0,948(a6)
    2038:	3b882587          	flw	fa1,952(a6)
    203c:	3bc82607          	flw	fa2,956(a6)
    2040:	00205073          	fsrmi	zero,0
    2044:	60b576cf          	fnmadd.s	fa3,fa0,fa1,fa2
    2048:	001028f3          	frflags	a7
    204c:	7cd7a427          	fsw	fa3,1992(a5)
    2050:	7d17a623          	sw	a7,1996(a5)

00002054 <inst_250>:
    2054:	3c082507          	flw	fa0,960(a6)
    2058:	3c482587          	flw	fa1,964(a6)
    205c:	3c882607          	flw	fa2,968(a6)
    2060:	00205073          	fsrmi	zero,0
    2064:	60b576cf          	fnmadd.s	fa3,fa0,fa1,fa2
    2068:	001028f3          	frflags	a7
    206c:	7cd7a827          	fsw	fa3,2000(a5)
    2070:	7d17aa23          	sw	a7,2004(a5)

00002074 <inst_251>:
    2074:	3cc82507          	flw	fa0,972(a6)
    2078:	3d082587          	flw	fa1,976(a6)
    207c:	3d482607          	flw	fa2,980(a6)
    2080:	00205073          	fsrmi	zero,0
    2084:	60b576cf          	fnmadd.s	fa3,fa0,fa1,fa2
    2088:	001028f3          	frflags	a7
    208c:	7cd7ac27          	fsw	fa3,2008(a5)
    2090:	7d17ae23          	sw	a7,2012(a5)

00002094 <inst_252>:
    2094:	3d882507          	flw	fa0,984(a6)
    2098:	3dc82587          	flw	fa1,988(a6)
    209c:	3e082607          	flw	fa2,992(a6)
    20a0:	00205073          	fsrmi	zero,0
    20a4:	60b576cf          	fnmadd.s	fa3,fa0,fa1,fa2
    20a8:	001028f3          	frflags	a7
    20ac:	7ed7a027          	fsw	fa3,2016(a5)
    20b0:	7f17a223          	sw	a7,2020(a5)

000020b4 <inst_253>:
    20b4:	3e482507          	flw	fa0,996(a6)
    20b8:	3e882587          	flw	fa1,1000(a6)
    20bc:	3ec82607          	flw	fa2,1004(a6)
    20c0:	00205073          	fsrmi	zero,0
    20c4:	60b576cf          	fnmadd.s	fa3,fa0,fa1,fa2
    20c8:	001028f3          	frflags	a7
    20cc:	7ed7a427          	fsw	fa3,2024(a5)
    20d0:	7f17a623          	sw	a7,2028(a5)
    20d4:	00002797          	auipc	a5,0x2
    20d8:	47c78793          	add	a5,a5,1148 # 4550 <signature_x15_2>

000020dc <inst_254>:
    20dc:	3f082507          	flw	fa0,1008(a6)
    20e0:	3f482587          	flw	fa1,1012(a6)
    20e4:	3f882607          	flw	fa2,1016(a6)
    20e8:	00205073          	fsrmi	zero,0
    20ec:	60b576cf          	fnmadd.s	fa3,fa0,fa1,fa2
    20f0:	001028f3          	frflags	a7
    20f4:	00d7a027          	fsw	fa3,0(a5)
    20f8:	0117a223          	sw	a7,4(a5)

000020fc <inst_255>:
    20fc:	3fc82507          	flw	fa0,1020(a6)
    2100:	40082587          	flw	fa1,1024(a6)
    2104:	40482607          	flw	fa2,1028(a6)
    2108:	00205073          	fsrmi	zero,0
    210c:	60b576cf          	fnmadd.s	fa3,fa0,fa1,fa2
    2110:	001028f3          	frflags	a7
    2114:	00d7a427          	fsw	fa3,8(a5)
    2118:	0117a623          	sw	a7,12(a5)

0000211c <inst_256>:
    211c:	40882507          	flw	fa0,1032(a6)
    2120:	40c82587          	flw	fa1,1036(a6)
    2124:	41082607          	flw	fa2,1040(a6)
    2128:	00205073          	fsrmi	zero,0
    212c:	60b576cf          	fnmadd.s	fa3,fa0,fa1,fa2
    2130:	001028f3          	frflags	a7
    2134:	00d7a827          	fsw	fa3,16(a5)
    2138:	0117aa23          	sw	a7,20(a5)

0000213c <inst_257>:
    213c:	41482507          	flw	fa0,1044(a6)
    2140:	41882587          	flw	fa1,1048(a6)
    2144:	41c82607          	flw	fa2,1052(a6)
    2148:	00205073          	fsrmi	zero,0
    214c:	60b576cf          	fnmadd.s	fa3,fa0,fa1,fa2
    2150:	001028f3          	frflags	a7
    2154:	00d7ac27          	fsw	fa3,24(a5)
    2158:	0117ae23          	sw	a7,28(a5)

0000215c <inst_258>:
    215c:	42082507          	flw	fa0,1056(a6)
    2160:	42482587          	flw	fa1,1060(a6)
    2164:	42882607          	flw	fa2,1064(a6)
    2168:	00205073          	fsrmi	zero,0
    216c:	60b576cf          	fnmadd.s	fa3,fa0,fa1,fa2
    2170:	001028f3          	frflags	a7
    2174:	02d7a027          	fsw	fa3,32(a5)
    2178:	0317a223          	sw	a7,36(a5)

0000217c <inst_259>:
    217c:	42c82507          	flw	fa0,1068(a6)
    2180:	43082587          	flw	fa1,1072(a6)
    2184:	43482607          	flw	fa2,1076(a6)
    2188:	00205073          	fsrmi	zero,0
    218c:	60b576cf          	fnmadd.s	fa3,fa0,fa1,fa2
    2190:	001028f3          	frflags	a7
    2194:	02d7a427          	fsw	fa3,40(a5)
    2198:	0317a623          	sw	a7,44(a5)

0000219c <inst_260>:
    219c:	43882507          	flw	fa0,1080(a6)
    21a0:	43c82587          	flw	fa1,1084(a6)
    21a4:	44082607          	flw	fa2,1088(a6)
    21a8:	00205073          	fsrmi	zero,0
    21ac:	60b576cf          	fnmadd.s	fa3,fa0,fa1,fa2
    21b0:	001028f3          	frflags	a7
    21b4:	02d7a827          	fsw	fa3,48(a5)
    21b8:	0317aa23          	sw	a7,52(a5)

000021bc <inst_261>:
    21bc:	44482507          	flw	fa0,1092(a6)
    21c0:	44882587          	flw	fa1,1096(a6)
    21c4:	44c82607          	flw	fa2,1100(a6)
    21c8:	00205073          	fsrmi	zero,0
    21cc:	60b576cf          	fnmadd.s	fa3,fa0,fa1,fa2
    21d0:	001028f3          	frflags	a7
    21d4:	02d7ac27          	fsw	fa3,56(a5)
    21d8:	0317ae23          	sw	a7,60(a5)

000021dc <inst_262>:
    21dc:	45082507          	flw	fa0,1104(a6)
    21e0:	45482587          	flw	fa1,1108(a6)
    21e4:	45882607          	flw	fa2,1112(a6)
    21e8:	00205073          	fsrmi	zero,0
    21ec:	60b576cf          	fnmadd.s	fa3,fa0,fa1,fa2
    21f0:	001028f3          	frflags	a7
    21f4:	04d7a027          	fsw	fa3,64(a5)
    21f8:	0517a223          	sw	a7,68(a5)

000021fc <inst_263>:
    21fc:	45c82507          	flw	fa0,1116(a6)
    2200:	46082587          	flw	fa1,1120(a6)
    2204:	46482607          	flw	fa2,1124(a6)
    2208:	00205073          	fsrmi	zero,0
    220c:	60b576cf          	fnmadd.s	fa3,fa0,fa1,fa2
    2210:	001028f3          	frflags	a7
    2214:	04d7a427          	fsw	fa3,72(a5)
    2218:	0517a623          	sw	a7,76(a5)

0000221c <inst_264>:
    221c:	46882507          	flw	fa0,1128(a6)
    2220:	46c82587          	flw	fa1,1132(a6)
    2224:	47082607          	flw	fa2,1136(a6)
    2228:	00205073          	fsrmi	zero,0
    222c:	60b576cf          	fnmadd.s	fa3,fa0,fa1,fa2
    2230:	001028f3          	frflags	a7
    2234:	04d7a827          	fsw	fa3,80(a5)
    2238:	0517aa23          	sw	a7,84(a5)

0000223c <inst_265>:
    223c:	47482507          	flw	fa0,1140(a6)
    2240:	47882587          	flw	fa1,1144(a6)
    2244:	47c82607          	flw	fa2,1148(a6)
    2248:	00205073          	fsrmi	zero,0
    224c:	60b576cf          	fnmadd.s	fa3,fa0,fa1,fa2
    2250:	001028f3          	frflags	a7
    2254:	04d7ac27          	fsw	fa3,88(a5)
    2258:	0517ae23          	sw	a7,92(a5)

0000225c <inst_266>:
    225c:	48082507          	flw	fa0,1152(a6)
    2260:	48482587          	flw	fa1,1156(a6)
    2264:	48882607          	flw	fa2,1160(a6)
    2268:	00205073          	fsrmi	zero,0
    226c:	60b576cf          	fnmadd.s	fa3,fa0,fa1,fa2
    2270:	001028f3          	frflags	a7
    2274:	06d7a027          	fsw	fa3,96(a5)
    2278:	0717a223          	sw	a7,100(a5)

0000227c <inst_267>:
    227c:	48c82507          	flw	fa0,1164(a6)
    2280:	49082587          	flw	fa1,1168(a6)
    2284:	49482607          	flw	fa2,1172(a6)
    2288:	00205073          	fsrmi	zero,0
    228c:	60b576cf          	fnmadd.s	fa3,fa0,fa1,fa2
    2290:	001028f3          	frflags	a7
    2294:	06d7a427          	fsw	fa3,104(a5)
    2298:	0717a623          	sw	a7,108(a5)

0000229c <inst_268>:
    229c:	49882507          	flw	fa0,1176(a6)
    22a0:	49c82587          	flw	fa1,1180(a6)
    22a4:	4a082607          	flw	fa2,1184(a6)
    22a8:	00205073          	fsrmi	zero,0
    22ac:	60b576cf          	fnmadd.s	fa3,fa0,fa1,fa2
    22b0:	001028f3          	frflags	a7
    22b4:	06d7a827          	fsw	fa3,112(a5)
    22b8:	0717aa23          	sw	a7,116(a5)

000022bc <inst_269>:
    22bc:	4a482507          	flw	fa0,1188(a6)
    22c0:	4a882587          	flw	fa1,1192(a6)
    22c4:	4ac82607          	flw	fa2,1196(a6)
    22c8:	00205073          	fsrmi	zero,0
    22cc:	60b576cf          	fnmadd.s	fa3,fa0,fa1,fa2
    22d0:	001028f3          	frflags	a7
    22d4:	06d7ac27          	fsw	fa3,120(a5)
    22d8:	0717ae23          	sw	a7,124(a5)

000022dc <inst_270>:
    22dc:	4b082507          	flw	fa0,1200(a6)
    22e0:	4b482587          	flw	fa1,1204(a6)
    22e4:	4b882607          	flw	fa2,1208(a6)
    22e8:	00205073          	fsrmi	zero,0
    22ec:	60b576cf          	fnmadd.s	fa3,fa0,fa1,fa2
    22f0:	001028f3          	frflags	a7
    22f4:	08d7a027          	fsw	fa3,128(a5)
    22f8:	0917a223          	sw	a7,132(a5)

000022fc <inst_271>:
    22fc:	4bc82507          	flw	fa0,1212(a6)
    2300:	4c082587          	flw	fa1,1216(a6)
    2304:	4c482607          	flw	fa2,1220(a6)
    2308:	00205073          	fsrmi	zero,0
    230c:	60b576cf          	fnmadd.s	fa3,fa0,fa1,fa2
    2310:	001028f3          	frflags	a7
    2314:	08d7a427          	fsw	fa3,136(a5)
    2318:	0917a623          	sw	a7,140(a5)

0000231c <inst_272>:
    231c:	4c882507          	flw	fa0,1224(a6)
    2320:	4cc82587          	flw	fa1,1228(a6)
    2324:	4d082607          	flw	fa2,1232(a6)
    2328:	00205073          	fsrmi	zero,0
    232c:	60b576cf          	fnmadd.s	fa3,fa0,fa1,fa2
    2330:	001028f3          	frflags	a7
    2334:	08d7a827          	fsw	fa3,144(a5)
    2338:	0917aa23          	sw	a7,148(a5)

0000233c <inst_273>:
    233c:	4d482507          	flw	fa0,1236(a6)
    2340:	4d882587          	flw	fa1,1240(a6)
    2344:	4dc82607          	flw	fa2,1244(a6)
    2348:	00205073          	fsrmi	zero,0
    234c:	60b576cf          	fnmadd.s	fa3,fa0,fa1,fa2
    2350:	001028f3          	frflags	a7
    2354:	08d7ac27          	fsw	fa3,152(a5)
    2358:	0917ae23          	sw	a7,156(a5)

0000235c <inst_274>:
    235c:	4e082507          	flw	fa0,1248(a6)
    2360:	4e482587          	flw	fa1,1252(a6)
    2364:	4e882607          	flw	fa2,1256(a6)
    2368:	00205073          	fsrmi	zero,0
    236c:	60b576cf          	fnmadd.s	fa3,fa0,fa1,fa2
    2370:	001028f3          	frflags	a7
    2374:	0ad7a027          	fsw	fa3,160(a5)
    2378:	0b17a223          	sw	a7,164(a5)

0000237c <inst_275>:
    237c:	4ec82507          	flw	fa0,1260(a6)
    2380:	4f082587          	flw	fa1,1264(a6)
    2384:	4f482607          	flw	fa2,1268(a6)
    2388:	00205073          	fsrmi	zero,0
    238c:	60b576cf          	fnmadd.s	fa3,fa0,fa1,fa2
    2390:	001028f3          	frflags	a7
    2394:	0ad7a427          	fsw	fa3,168(a5)
    2398:	0b17a623          	sw	a7,172(a5)

0000239c <inst_276>:
    239c:	4f882507          	flw	fa0,1272(a6)
    23a0:	4fc82587          	flw	fa1,1276(a6)
    23a4:	50082607          	flw	fa2,1280(a6)
    23a8:	00205073          	fsrmi	zero,0
    23ac:	60b576cf          	fnmadd.s	fa3,fa0,fa1,fa2
    23b0:	001028f3          	frflags	a7
    23b4:	0ad7a827          	fsw	fa3,176(a5)
    23b8:	0b17aa23          	sw	a7,180(a5)

000023bc <inst_277>:
    23bc:	50482507          	flw	fa0,1284(a6)
    23c0:	50882587          	flw	fa1,1288(a6)
    23c4:	50c82607          	flw	fa2,1292(a6)
    23c8:	00205073          	fsrmi	zero,0
    23cc:	60b576cf          	fnmadd.s	fa3,fa0,fa1,fa2
    23d0:	001028f3          	frflags	a7
    23d4:	0ad7ac27          	fsw	fa3,184(a5)
    23d8:	0b17ae23          	sw	a7,188(a5)

000023dc <inst_278>:
    23dc:	51082507          	flw	fa0,1296(a6)
    23e0:	51482587          	flw	fa1,1300(a6)
    23e4:	51882607          	flw	fa2,1304(a6)
    23e8:	00205073          	fsrmi	zero,0
    23ec:	60b576cf          	fnmadd.s	fa3,fa0,fa1,fa2
    23f0:	001028f3          	frflags	a7
    23f4:	0cd7a027          	fsw	fa3,192(a5)
    23f8:	0d17a223          	sw	a7,196(a5)

000023fc <inst_279>:
    23fc:	51c82507          	flw	fa0,1308(a6)
    2400:	52082587          	flw	fa1,1312(a6)
    2404:	52482607          	flw	fa2,1316(a6)
    2408:	00205073          	fsrmi	zero,0
    240c:	60b576cf          	fnmadd.s	fa3,fa0,fa1,fa2
    2410:	001028f3          	frflags	a7
    2414:	0cd7a427          	fsw	fa3,200(a5)
    2418:	0d17a623          	sw	a7,204(a5)

0000241c <inst_280>:
    241c:	52882507          	flw	fa0,1320(a6)
    2420:	52c82587          	flw	fa1,1324(a6)
    2424:	53082607          	flw	fa2,1328(a6)
    2428:	00205073          	fsrmi	zero,0
    242c:	60b576cf          	fnmadd.s	fa3,fa0,fa1,fa2
    2430:	001028f3          	frflags	a7
    2434:	0cd7a827          	fsw	fa3,208(a5)
    2438:	0d17aa23          	sw	a7,212(a5)

0000243c <inst_281>:
    243c:	53482507          	flw	fa0,1332(a6)
    2440:	53882587          	flw	fa1,1336(a6)
    2444:	53c82607          	flw	fa2,1340(a6)
    2448:	00205073          	fsrmi	zero,0
    244c:	60b576cf          	fnmadd.s	fa3,fa0,fa1,fa2
    2450:	001028f3          	frflags	a7
    2454:	0cd7ac27          	fsw	fa3,216(a5)
    2458:	0d17ae23          	sw	a7,220(a5)

0000245c <inst_282>:
    245c:	54082507          	flw	fa0,1344(a6)
    2460:	54482587          	flw	fa1,1348(a6)
    2464:	54882607          	flw	fa2,1352(a6)
    2468:	00205073          	fsrmi	zero,0
    246c:	60b576cf          	fnmadd.s	fa3,fa0,fa1,fa2
    2470:	001028f3          	frflags	a7
    2474:	0ed7a027          	fsw	fa3,224(a5)
    2478:	0f17a223          	sw	a7,228(a5)

0000247c <inst_283>:
    247c:	54c82507          	flw	fa0,1356(a6)
    2480:	55082587          	flw	fa1,1360(a6)
    2484:	55482607          	flw	fa2,1364(a6)
    2488:	00205073          	fsrmi	zero,0
    248c:	60b576cf          	fnmadd.s	fa3,fa0,fa1,fa2
    2490:	001028f3          	frflags	a7
    2494:	0ed7a427          	fsw	fa3,232(a5)
    2498:	0f17a623          	sw	a7,236(a5)
    249c:	00000013          	nop

000024a0 <rvtest_code_end>:
    24a0:	00002517          	auipc	a0,0x2
    24a4:	8c050513          	add	a0,a0,-1856 # 3d60 <data_begin>
    24a8:	00002597          	auipc	a1,0x2
    24ac:	19858593          	add	a1,a1,408 # 4640 <_end>
    24b0:	80001637          	lui	a2,0x80001
    24b4:	00860613          	add	a2,a2,8 # 80001008 <_end+0x7fffc9c8>

000024b8 <compliance_halt_loop>:
    24b8:	06b50063          	beq	a0,a1,2518 <compliance_halt_break>
    24bc:	00450693          	add	a3,a0,4

000024c0 <compliance_halt_loop2>:
    24c0:	fff68693          	add	a3,a3,-1
    24c4:	00068703          	lb	a4,0(a3)
    24c8:	40475793          	sra	a5,a4,0x4
    24cc:	00f7f793          	and	a5,a5,15
    24d0:	00a00813          	li	a6,10
    24d4:	0107c463          	blt	a5,a6,24dc <notLetter>
    24d8:	02778793          	add	a5,a5,39

000024dc <notLetter>:
    24dc:	03078793          	add	a5,a5,48
    24e0:	00f60023          	sb	a5,0(a2)
    24e4:	40075793          	sra	a5,a4,0x0
    24e8:	00f7f793          	and	a5,a5,15
    24ec:	00a00813          	li	a6,10
    24f0:	0107c463          	blt	a5,a6,24f8 <notLetter2>
    24f4:	02778793          	add	a5,a5,39

000024f8 <notLetter2>:
    24f8:	03078793          	add	a5,a5,48
    24fc:	00f60023          	sb	a5,0(a2)
    2500:	fcd510e3          	bne	a0,a3,24c0 <compliance_halt_loop2>
    2504:	00450513          	add	a0,a0,4
    2508:	00a00713          	li	a4,10
    250c:	00e60023          	sb	a4,0(a2)
    2510:	fa9ff06f          	j	24b8 <compliance_halt_loop>
    2514:	0040006f          	j	2518 <compliance_halt_break>

00002518 <compliance_halt_break>:
    2518:	80001537          	lui	a0,0x80001
    251c:	00950513          	add	a0,a0,9 # 80001009 <_end+0x7fffc9c9>
    2520:	00d50023          	sb	a3,0(a0)
	...

Desensamblado de la sección .data:

00003000 <rvtest_data_begin>:
    3000:	cafe                	.2byte	0xcafe
    3002:	babe                	.2byte	0xbabe

00003004 <test_fp>:
    3004:	004a                	.2byte	0x4a
    3006:	0000                	.2byte	0x0
    3008:	60dd                	.2byte	0x60dd
    300a:	3e0a                	.2byte	0x3e0a
    300c:	0000000b          	.4byte	0xb
    3010:	0031                	.2byte	0x31
    3012:	7f00                	.2byte	0x7f00
    3014:	ffdd                	.2byte	0xffdd
    3016:	401f 0035 7f00      	.byte	0x1f, 0x40, 0x35, 0x00, 0x00, 0x7f
    301c:	000c                	.2byte	0xc
    301e:	7f00                	.2byte	0x7f00
    3020:	000c                	.2byte	0xc
    3022:	7f00                	.2byte	0x7f00
    3024:	0019                	.2byte	0x19
    3026:	7f00                	.2byte	0x7f00
    3028:	001e                	.2byte	0x1e
    302a:	7f00                	.2byte	0x7f00
    302c:	fffe                	.2byte	0xfffe
    302e:	00534037          	lui	zero,0x534
    3032:	7f00                	.2byte	0x7f00
    3034:	0050                	.2byte	0x50
    3036:	7f00                	.2byte	0x7f00
    3038:	ffbc                	.2byte	0xffbc
    303a:	ffbc403b          	.4byte	0xffbc403b
    303e:	0035403b          	.4byte	0x35403b
    3042:	7f00                	.2byte	0x7f00
    3044:	0035                	.2byte	0x35
    3046:	7f00                	.2byte	0x7f00
    3048:	0035                	.2byte	0x35
    304a:	7f00                	.2byte	0x7f00
    304c:	7f000017          	auipc	zero,0x7f000
    3050:	7f000017          	auipc	zero,0x7f000
    3054:	7f000017          	auipc	zero,0x7f000
    3058:	0001                	.2byte	0x1
    305a:	7f00                	.2byte	0x7f00
    305c:	8012                	.2byte	0x8012
    305e:	0001403f 002f7f00 	.8byte	0x2f7f000001403f
    3066:	7f00                	.2byte	0x7f00
    3068:	bfc8                	.2byte	0xbfc8
    306a:	bfc8403f 004c403f 	.8byte	0x4c403fbfc8403f
    3072:	7f00                	.2byte	0x7f00
    3074:	dfb9                	.2byte	0xdfb9
    3076:	0057403f 00257f00 	.8byte	0x257f000057403f
    307e:	7f00                	.2byte	0x7f00
    3080:	0025                	.2byte	0x25
    3082:	7f00                	.2byte	0x7f00
    3084:	0030                	.2byte	0x30
    3086:	7f00                	.2byte	0x7f00
    3088:	0029                	.2byte	0x29
    308a:	7f00                	.2byte	0x7f00
    308c:	403ff7cb          	fnmsub.s	fa5,ft11,ft3,fs0
    3090:	0029                	.2byte	0x29
    3092:	7f00                	.2byte	0x7f00
    3094:	0036                	.2byte	0x36
    3096:	7f00                	.2byte	0x7f00
    3098:	403ffbbf 7f000021 	.8byte	0x7f000021403ffbbf
    30a0:	0002                	.2byte	0x2
    30a2:	7f00                	.2byte	0x7f00
    30a4:	403ffe13          	and	t3,t6,1027
    30a8:	002c                	.2byte	0x2c
    30aa:	7f00                	.2byte	0x7f00
    30ac:	7f000063          	beq	zero,a6,388c <test_fp+0x888>
    30b0:	fe89                	.2byte	0xfe89
    30b2:	003b403f 00327f00 	.8byte	0x327f00003b403f
    30ba:	7f00                	.2byte	0x7f00
    30bc:	403fff3f 7f000014 	.8byte	0x7f000014403fff3f
    30c4:	001c                	.2byte	0x1c
    30c6:	7f00                	.2byte	0x7f00
    30c8:	403fffbf 7f000053 	.8byte	0x7f000053403fffbf
    30d0:	0046                	.2byte	0x46
    30d2:	7f00                	.2byte	0x7f00
    30d4:	ff95                	.2byte	0xff95
    30d6:	003d403f 00637f00 	.8byte	0x637f00003d403f
    30de:	7f00                	.2byte	0x7f00
    30e0:	ff88                	.2byte	0xff88
    30e2:	0059403f 003f7f00 	.8byte	0x3f7f000059403f
    30ea:	7f00                	.2byte	0x7f00
    30ec:	403fffbb          	.4byte	0x403fffbb
    30f0:	0044                	.2byte	0x44
    30f2:	7f00                	.2byte	0x7f00
    30f4:	7f000033          	.4byte	0x7f000033
    30f8:	ffce                	.2byte	0xffce
    30fa:	003d403f 00147f00 	.8byte	0x147f00003d403f
    3102:	7f00                	.2byte	0x7f00
    3104:	0005                	.2byte	0x5
    3106:	4040                	.2byte	0x4040
    3108:	004c                	.2byte	0x4c
    310a:	7f00                	.2byte	0x7f00
    310c:	0015                	.2byte	0x15
    310e:	7f00                	.2byte	0x7f00
    3110:	403fffe7          	.4byte	0x403fffe7
    3114:	0010                	.2byte	0x10
    3116:	7f00                	.2byte	0x7f00
    3118:	0001                	.2byte	0x1
    311a:	7f00                	.2byte	0x7f00
    311c:	001e                	.2byte	0x1e
    311e:	4040                	.2byte	0x4040
    3120:	0042                	.2byte	0x42
    3122:	7f00                	.2byte	0x7f00
    3124:	004a                	.2byte	0x4a
    3126:	7f00                	.2byte	0x7f00
    3128:	ff30                	.2byte	0xff30
    312a:	000ebeff 000e7f00 	.byte	0xff, 0xbe, 0x0e, 0x00, 0x00, 0x7f, 0x0e, 0x00, 0x00, 0x7f, 0xbb, 0xff, 0x3f, 0xbf, 0x17, 0x00
    3132:	ffbb7f00 0017bf3f 
    313a:	7f00                	.2byte	0x7f00
    313c:	0062                	.2byte	0x62
    313e:	7f00                	.2byte	0x7f00
    3140:	fedf bf5f 003a      	.byte	0xdf, 0xfe, 0x5f, 0xbf, 0x3a, 0x00
    3146:	7f00                	.2byte	0x7f00
    3148:	0005                	.2byte	0x5
    314a:	7f00                	.2byte	0x7f00
    314c:	bf6fffc3          	.4byte	0xbf6fffc3
    3150:	0019                	.2byte	0x19
    3152:	7f00                	.2byte	0x7f00
    3154:	0012                	.2byte	0x12
    3156:	7f00                	.2byte	0x7f00
    3158:	ff8d                	.2byte	0xff8d
    315a:	0027bf77          	.4byte	0x27bf77
    315e:	7f00                	.2byte	0x7f00
    3160:	7f000023          	sb	a6,2016(zero) # 7e0 <inst_54+0x10>
    3164:	bf7bff77          	.4byte	0xbf7bff77
    3168:	0021                	.2byte	0x21
    316a:	7f00                	.2byte	0x7f00
    316c:	0051                	.2byte	0x51
    316e:	7f00                	.2byte	0x7f00
    3170:	fee1                	.2byte	0xfee1
    3172:	bf7d                	.2byte	0xbf7d
    3174:	003e                	.2byte	0x3e
    3176:	7f00                	.2byte	0x7f00
    3178:	0049                	.2byte	0x49
    317a:	7f00                	.2byte	0x7f00
    317c:	bf7efee7          	.4byte	0xbf7efee7
    3180:	7f000043          	.4byte	0x7f000043
    3184:	004d                	.2byte	0x4d
    3186:	7f00                	.2byte	0x7f00
    3188:	7ef6                	.2byte	0x7ef6
    318a:	0037bf7f 00557f00 	.byte	0x7f, 0xbf, 0x37, 0x00, 0x00, 0x7f, 0x55, 0x00, 0x00, 0x7f, 0xf0, 0xbe, 0x7f, 0xbf, 0x32, 0x00
    3192:	bef07f00 0032bf7f 
    319a:	7f00                	.2byte	0x7f00
    319c:	0018                	.2byte	0x18
    319e:	7f00                	.2byte	0x7f00
    31a0:	df8e                	.2byte	0xdf8e
    31a2:	0020bf7f 00367f00 	.byte	0x7f, 0xbf, 0x20, 0x00, 0x00, 0x7f, 0x36, 0x00, 0x00, 0x7f, 0x06, 0xef, 0x7f, 0xbf, 0x46, 0x00
    31aa:	ef067f00 0046bf7f 
    31b2:	7f00                	.2byte	0x7f00
    31b4:	0011                	.2byte	0x11
    31b6:	7f00                	.2byte	0x7f00
    31b8:	f7ba                	.2byte	0xf7ba
    31ba:	0011bf7f 00237f00 	.byte	0x7f, 0xbf, 0x11, 0x00, 0x00, 0x7f, 0x23, 0x00, 0x00, 0x7f, 0x7c, 0xfb, 0x7f, 0xbf, 0x1e, 0x00
    31c2:	fb7c7f00 001ebf7f 
    31ca:	7f00                	.2byte	0x7f00
    31cc:	004c                	.2byte	0x4c
    31ce:	7f00                	.2byte	0x7f00
    31d0:	fcc8                	.2byte	0xfcc8
    31d2:	004fbf7f 000c7f00 	.byte	0x7f, 0xbf, 0x4f, 0x00, 0x00, 0x7f, 0x0c, 0x00, 0x00, 0x7f, 0x38, 0xfe, 0x7f, 0xbf, 0x57, 0x00
    31da:	fe387f00 0057bf7f 
    31e2:	7f00                	.2byte	0x7f00
    31e4:	003c                	.2byte	0x3c
    31e6:	7f00                	.2byte	0x7f00
    31e8:	fec2                	.2byte	0xfec2
    31ea:	0022bf7f 003f7f00 	.byte	0x7f, 0xbf, 0x22, 0x00, 0x00, 0x7f, 0x3f, 0x00, 0x00, 0x7f, 0x3e, 0xff, 0x7f, 0xbf, 0x01, 0x00
    31f2:	ff3e7f00 0001bf7f 
    31fa:	7f00                	.2byte	0x7f00
    31fc:	002c                	.2byte	0x2c
    31fe:	7f00                	.2byte	0x7f00
    3200:	ff74                	.2byte	0xff74
    3202:	0009bf7f 00047f00 	.byte	0x7f, 0xbf, 0x09, 0x00, 0x00, 0x7f, 0x04, 0x00, 0x00, 0x7f, 0xe2, 0xff, 0x7f, 0xbf, 0x02, 0x00
    320a:	ffe27f00 0002bf7f 
    3212:	7f00                	.2byte	0x7f00
    3214:	002d                	.2byte	0x2d
    3216:	7f00                	.2byte	0x7f00
    3218:	ff78                	.2byte	0xff78
    321a:	0012bf7f 00587f00 	.byte	0x7f, 0xbf, 0x12, 0x00, 0x00, 0x7f, 0x58, 0x00, 0x00, 0x7f, 0x3c, 0xff, 0x7f, 0xbf, 0x07, 0x00
    3222:	ff3c7f00 0007bf7f 
    322a:	7f00                	.2byte	0x7f00
    322c:	002c                	.2byte	0x2c
    322e:	7f00                	.2byte	0x7f00
    3230:	ff34                	.2byte	0xff34
    3232:	0038bf7f 002f7f00 	.byte	0x7f, 0xbf, 0x38, 0x00, 0x00, 0x7f, 0x2f, 0x00, 0x80, 0x00, 0xf2, 0xff, 0x1f, 0x40, 0x59, 0x00
    323a:	fff20080 0059401f 
    3242:	0080                	.2byte	0x80
    3244:	0062                	.2byte	0x62
    3246:	0080                	.2byte	0x80
    3248:	ff94                	.2byte	0xff94
    324a:	0004400f          	.4byte	0x4400f
    324e:	0080                	.2byte	0x80
    3250:	0080000f          	fence	unknown,i
    3254:	ffff                	.2byte	0xffff
    3256:	001d4007          	.4byte	0x1d4007
    325a:	0080                	.2byte	0x80
    325c:	0080002f          	.4byte	0x80002f
    3260:	fffc                	.2byte	0xfffc
    3262:	00594003          	lbu	zero,5(s2)
    3266:	0080                	.2byte	0x80
    3268:	0005                	.2byte	0x5
    326a:	0080                	.2byte	0x80
    326c:	0012                	.2byte	0x12
    326e:	4002                	.2byte	0x4002
    3270:	0080002f          	.4byte	0x80002f
    3274:	004d                	.2byte	0x4d
    3276:	0080                	.2byte	0x80
    3278:	ffdc                	.2byte	0xffdc
    327a:	4000                	.2byte	0x4000
    327c:	00800053          	fadd.s	ft0,ft0,fs0,rne
    3280:	000c                	.2byte	0xc
    3282:	0080                	.2byte	0x80
    3284:	8019                	.2byte	0x8019
    3286:	4000                	.2byte	0x4000
    3288:	0080004b          	fnmsub.s	ft0,ft0,fs0,ft0,rne
    328c:	0080002b          	.4byte	0x80002b
    3290:	3ff6                	.2byte	0x3ff6
    3292:	4000                	.2byte	0x4000
    3294:	00800043          	fmadd.s	ft0,ft0,fs0,ft0,rne
    3298:	0080005b          	.4byte	0x80005b
    329c:	1fd1                	.2byte	0x1fd1
    329e:	4000                	.2byte	0x4000
    32a0:	0058                	.2byte	0x58
    32a2:	0080                	.2byte	0x80
    32a4:	005e                	.2byte	0x5e
    32a6:	0080                	.2byte	0x80
    32a8:	0fd2                	.2byte	0xfd2
    32aa:	4000                	.2byte	0x4000
    32ac:	0060                	.2byte	0x60
    32ae:	0080                	.2byte	0x80
    32b0:	0021                	.2byte	0x21
    32b2:	0080                	.2byte	0x80
    32b4:	0801                	.2byte	0x801
    32b6:	4000                	.2byte	0x4000
    32b8:	0044                	.2byte	0x44
    32ba:	0080                	.2byte	0x80
    32bc:	004c                	.2byte	0x4c
    32be:	0080                	.2byte	0x80
    32c0:	03b5                	.2byte	0x3b5
    32c2:	4000                	.2byte	0x4000
    32c4:	0002                	.2byte	0x2
    32c6:	0080                	.2byte	0x80
    32c8:	001c                	.2byte	0x1c
    32ca:	0080                	.2byte	0x80
    32cc:	01f6                	.2byte	0x1f6
    32ce:	4000                	.2byte	0x4000
    32d0:	0024                	.2byte	0x24
    32d2:	0080                	.2byte	0x80
    32d4:	0045                	.2byte	0x45
    32d6:	0080                	.2byte	0x80
    32d8:	00e4                	.2byte	0xe4
    32da:	4000                	.2byte	0x4000
    32dc:	00800053          	fadd.s	ft0,ft0,fs0,rne
    32e0:	001a                	.2byte	0x1a
    32e2:	0080                	.2byte	0x80
    32e4:	0090                	.2byte	0x90
    32e6:	4000                	.2byte	0x4000
    32e8:	0054                	.2byte	0x54
    32ea:	0080                	.2byte	0x80
    32ec:	0039                	.2byte	0x39
    32ee:	0080                	.2byte	0x80
    32f0:	0016                	.2byte	0x16
    32f2:	4000                	.2byte	0x4000
    32f4:	001e                	.2byte	0x1e
    32f6:	0080                	.2byte	0x80
    32f8:	0025                	.2byte	0x25
    32fa:	0080                	.2byte	0x80
    32fc:	4000000b          	.4byte	0x4000000b
    3300:	0021                	.2byte	0x21
    3302:	0080                	.2byte	0x80
    3304:	0054                	.2byte	0x54
    3306:	0080                	.2byte	0x80
    3308:	3fffffd3          	.4byte	0x3fffffd3
    330c:	0080005b          	.4byte	0x80005b
    3310:	005e                	.2byte	0x5e
    3312:	0080                	.2byte	0x80
    3314:	3fffff8b          	.4byte	0x3fffff8b
    3318:	00800037          	lui	zero,0x800
    331c:	0061                	.2byte	0x61
    331e:	0080                	.2byte	0x80
    3320:	ff9d                	.2byte	0xff9d
    3322:	00573fff 00580080 	.byte	0xff, 0x3f, 0x57, 0x00, 0x80, 0x00, 0x58, 0x00, 0x80, 0x00, 0x58, 0xff, 0xff, 0x3f, 0x04, 0x00
    332a:	ff580080 00043fff 
    3332:	0080                	.2byte	0x80
    3334:	00800017          	auipc	zero,0x800
    3338:	3fffffdb          	.4byte	0x3fffffdb
    333c:	00800007          	.4byte	0x800007
    3340:	0080000f          	fence	unknown,i
    3344:	001e                	.2byte	0x1e
    3346:	4000                	.2byte	0x4000
    3348:	005a                	.2byte	0x5a
    334a:	0080                	.2byte	0x80
    334c:	0039                	.2byte	0x39
    334e:	0080                	.2byte	0x80
    3350:	ff4e                	.2byte	0xff4e
    3352:	0010beff 00160080 	.byte	0xff, 0xbe, 0x10, 0x00, 0x80, 0x00, 0x16, 0x00, 0x80, 0x00, 0x2c, 0xfd, 0x7f, 0xbe, 0x55, 0x00
    335a:	fd2c0080 0055be7f 
    3362:	0080                	.2byte	0x80
    3364:	004a                	.2byte	0x4a
    3366:	0080                	.2byte	0x80
    3368:	feec                	.2byte	0xfeec
    336a:	0008bdff 000a0080 	.byte	0xff, 0xbd, 0x08, 0x00, 0x80, 0x00, 0x0a, 0x00, 0x80, 0x00, 0x4c, 0xf4, 0x7f, 0xbd, 0x5d, 0x00
    3372:	f44c0080 005dbd7f 
    337a:	0080                	.2byte	0x80
    337c:	000c                	.2byte	0xc
    337e:	0080                	.2byte	0x80
    3380:	f0a8                	.2byte	0xf0a8
    3382:	003dbcff 00590080 	.byte	0xff, 0xbc, 0x3d, 0x00, 0x80, 0x00, 0x59, 0x00, 0x80, 0x00, 0x4e, 0xec, 0x7f, 0xbc, 0x26, 0x00
    338a:	ec4e0080 0026bc7f 
    3392:	0080                	.2byte	0x80
    3394:	0062                	.2byte	0x62
    3396:	0080                	.2byte	0x80
    3398:	b63c                	.2byte	0xb63c
    339a:	0049bbff 00350080 	.byte	0xff, 0xbb, 0x49, 0x00, 0x80, 0x00, 0x35, 0x00, 0x80, 0x00, 0x96, 0xc5, 0x7f, 0xbb, 0x1d, 0x00
    33a2:	c5960080 001dbb7f 
    33aa:	0080                	.2byte	0x80
    33ac:	0046                	.2byte	0x46
    33ae:	0080                	.2byte	0x80
    33b0:	8b74                	.2byte	0x8b74
    33b2:	001dbaff 00050080 	.byte	0xff, 0xba, 0x1d, 0x00, 0x80, 0x00, 0x05, 0x00, 0x80, 0x00, 0xf6, 0xbf, 0x7f, 0xba, 0x08, 0x00
    33ba:	bff60080 0008ba7f 
    33c2:	0080                	.2byte	0x80
    33c4:	0030                	.2byte	0x30
    33c6:	0080                	.2byte	0x80
    33c8:	2fa2                	.2byte	0x2fa2
    33ca:	004db9fb          	.4byte	0x4db9fb
    33ce:	0080                	.2byte	0x80
    33d0:	000d                	.2byte	0xd
    33d2:	0080                	.2byte	0x80
    33d4:	b9751fe7          	.4byte	0xb9751fe7
    33d8:	00800057          	.4byte	0x800057
    33dc:	005c                	.2byte	0x5c
    33de:	0080                	.2byte	0x80
    33e0:	7f55                	.2byte	0x7f55
    33e2:	b8ee                	.2byte	0xb8ee
    33e4:	0046                	.2byte	0x46
    33e6:	0080                	.2byte	0x80
    33e8:	0080000f          	fence	unknown,i
    33ec:	b855ffe7          	.4byte	0xb855ffe7
    33f0:	0054                	.2byte	0x54
    33f2:	0080                	.2byte	0x80
    33f4:	0062                	.2byte	0x62
    33f6:	0080                	.2byte	0x80
    33f8:	ff42                	.2byte	0xff42
    33fa:	0008b7f7          	.4byte	0x8b7f7
    33fe:	0080                	.2byte	0x80
    3400:	0006                	.2byte	0x6
    3402:	0080                	.2byte	0x80
    3404:	fffa                	.2byte	0xfffa
    3406:	b705                	.2byte	0xb705
    3408:	003d                	.2byte	0x3d
    340a:	0080                	.2byte	0x80
    340c:	0008                	.2byte	0x8
    340e:	0080                	.2byte	0x80
    3410:	fff1                	.2byte	0xfff1
    3412:	0002b6f7          	.4byte	0x2b6f7
    3416:	0080                	.2byte	0x80
    3418:	0032                	.2byte	0x32
    341a:	0080                	.2byte	0x80
    341c:	b62fffbb          	.4byte	0xb62fffbb
    3420:	000a                	.2byte	0xa
    3422:	0080                	.2byte	0x80
    3424:	0051                	.2byte	0x51
    3426:	0080                	.2byte	0x80
    3428:	ff5e                	.2byte	0xff5e
    342a:	0012347f 00160080 	.byte	0x7f, 0x34, 0x12, 0x00, 0x80, 0x00, 0x16, 0x00, 0x80, 0x00, 0xe4, 0xff, 0x21, 0x37, 0x59, 0x00
    3432:	ffe40080 00593721 
    343a:	0080                	.2byte	0x80
    343c:	0018                	.2byte	0x18
    343e:	0080                	.2byte	0x80
    3440:	ffd0                	.2byte	0xffd0
    3442:	001435ff 00230080 	.byte	0xff, 0x35, 0x14, 0x00, 0x80, 0x00, 0x23, 0x00, 0x80, 0x00, 0xd2, 0xff, 0x27, 0x37, 0x56, 0x00
    344a:	ffd20080 00563727 
    3452:	0080                	.2byte	0x80
    3454:	0060                	.2byte	0x60
    3456:	0080                	.2byte	0x80
    3458:	36bbff73          	csrrc	t5,0x36b,23
    345c:	0030                	.2byte	0x30
    345e:	0080                	.2byte	0x80
    3460:	00000053          	fadd.s	ft0,ft0,ft0,rne
    3464:	669d                	.2byte	0x669d
    3466:	4745                	.2byte	0x4745
    3468:	0046                	.2byte	0x46
    346a:	0000                	.2byte	0x0
    346c:	005c                	.2byte	0x5c
    346e:	0000                	.2byte	0x0
    3470:	90da                	.2byte	0x90da
    3472:	4785                	.2byte	0x4785
    3474:	001e                	.2byte	0x1e
    3476:	0000                	.2byte	0x0
    3478:	0055                	.2byte	0x55
    347a:	0000                	.2byte	0x0
    347c:	a8c2                	.2byte	0xa8c2
    347e:	47a8                	.2byte	0x47a8
    3480:	0012                	.2byte	0x12
    3482:	0000                	.2byte	0x0
    3484:	0044                	.2byte	0x44
    3486:	0000                	.2byte	0x0
    3488:	e266                	.2byte	0xe266
    348a:	47e1                	.2byte	0x47e1
    348c:	00000047          	fmsub.s	ft0,ft0,ft0,ft0,rne
    3490:	0002                	.2byte	0x2
    3492:	0000                	.2byte	0x0
    3494:	0064                	.2byte	0x64
    3496:	4a78                	.2byte	0x4a78
    3498:	00000033          	add	zero,zero,zero
    349c:	0044                	.2byte	0x44
    349e:	0000                	.2byte	0x0
    34a0:	47ed2d97          	auipc	s11,0x47ed2
    34a4:	0039                	.2byte	0x39
    34a6:	0000                	.2byte	0x0
    34a8:	002a                	.2byte	0x2a
    34aa:	0000                	.2byte	0x0
    34ac:	8662                	.2byte	0x8662
    34ae:	4841                	.2byte	0x4841
    34b0:	0031                	.2byte	0x31
    34b2:	0000                	.2byte	0x0
    34b4:	0019                	.2byte	0x19
    34b6:	0000                	.2byte	0x0
    34b8:	48a333af          	.4byte	0x48a333af
    34bc:	0062                	.2byte	0x62
    34be:	0000                	.2byte	0x0
    34c0:	0049                	.2byte	0x49
    34c2:	0000                	.2byte	0x0
    34c4:	0056                	.2byte	0x56
    34c6:	47e0                	.2byte	0x47e0
    34c8:	0032                	.2byte	0x32
    34ca:	0000                	.2byte	0x0
    34cc:	004a                	.2byte	0x4a
    34ce:	0000                	.2byte	0x0
    34d0:	47dd306f          	j	d714c <_end+0xd2b0c>
    34d4:	0001                	.2byte	0x1
    34d6:	0000                	.2byte	0x0
    34d8:	001f 0000 10cd      	.byte	0x1f, 0x00, 0x00, 0x00, 0xcd, 0x10
    34de:	4884                	.2byte	0x4884
    34e0:	0048                	.2byte	0x48
    34e2:	0000                	.2byte	0x0
    34e4:	0061                	.2byte	0x61
    34e6:	0000                	.2byte	0x0
    34e8:	dde6                	.2byte	0xdde6
    34ea:	47a8                	.2byte	0x47a8
    34ec:	0029                	.2byte	0x29
    34ee:	0000                	.2byte	0x0
    34f0:	0059                	.2byte	0x59
    34f2:	0000                	.2byte	0x0
    34f4:	115f 47b8 0015      	.byte	0x5f, 0x11, 0xb8, 0x47, 0x15, 0x00
    34fa:	0000                	.2byte	0x0
    34fc:	0011                	.2byte	0x11
    34fe:	0000                	.2byte	0x0
    3500:	ed91                	.2byte	0xed91
    3502:	48f0                	.2byte	0x48f0
    3504:	0036                	.2byte	0x36
    3506:	0000                	.2byte	0x0
    3508:	0049                	.2byte	0x49
    350a:	0000                	.2byte	0x0
    350c:	47e06f17          	auipc	t5,0x47e06
    3510:	005c                	.2byte	0x5c
    3512:	0000                	.2byte	0x0
    3514:	001d                	.2byte	0x1d
    3516:	0000                	.2byte	0x0
    3518:	3da0                	.2byte	0x3da0
    351a:	488d                	.2byte	0x488d
    351c:	005a                	.2byte	0x5a
    351e:	0000                	.2byte	0x0
    3520:	0032                	.2byte	0x32
    3522:	0000                	.2byte	0x0
    3524:	d6dc                	.2byte	0xd6dc
    3526:	001d4823          	.4byte	0x1d4823
    352a:	0000                	.2byte	0x0
    352c:	0041                	.2byte	0x41
    352e:	0000                	.2byte	0x0
    3530:	1010                	.2byte	0x1010
    3532:	47fc                	.2byte	0x47fc
    3534:	0049                	.2byte	0x49
    3536:	0000                	.2byte	0x0
    3538:	005f 0000 7696      	.byte	0x5f, 0x00, 0x00, 0x00, 0x96, 0x76
    353e:	47ac                	.2byte	0x47ac
    3540:	0014                	.2byte	0x14
    3542:	0000                	.2byte	0x0
    3544:	0018                	.2byte	0x18
    3546:	0000                	.2byte	0x0
    3548:	aad0                	.2byte	0xaad0
    354a:	48aa                	.2byte	0x48aa
    354c:	0025                	.2byte	0x25
    354e:	0000                	.2byte	0x0
    3550:	0000005b          	.4byte	0x5b
    3554:	0b56                	.2byte	0xb56
    3556:	47b4                	.2byte	0x47b4
    3558:	0014                	.2byte	0x14
    355a:	0000                	.2byte	0x0
    355c:	0018                	.2byte	0x18
    355e:	0000                	.2byte	0x0
    3560:	ab01                	.2byte	0xab01
    3562:	48aa                	.2byte	0x48aa
    3564:	0044                	.2byte	0x44
    3566:	0000                	.2byte	0x0
    3568:	00000043          	fmadd.s	ft0,ft0,ft0,ft0,rne
    356c:	8991                	.2byte	0x8991
    356e:	47f4                	.2byte	0x47f4
    3570:	0004                	.2byte	0x4
    3572:	0000                	.2byte	0x0
    3574:	000a                	.2byte	0xa
    3576:	0000                	.2byte	0x0
    3578:	cc3a                	.2byte	0xcc3a
    357a:	c8cc                	.2byte	0xc8cc
    357c:	002d                	.2byte	0x2d
    357e:	0000                	.2byte	0x0
    3580:	000a                	.2byte	0xa
    3582:	0000                	.2byte	0x0
    3584:	997d                	.2byte	0x997d
    3586:	c919                	.2byte	0xc919
    3588:	0011                	.2byte	0x11
    358a:	0000                	.2byte	0x0
    358c:	0040                	.2byte	0x40
    358e:	0000                	.2byte	0x0
    3590:	ff5a                	.2byte	0xff5a
    3592:	c7df 0052 0000      	.byte	0xdf, 0xc7, 0x52, 0x00, 0x00, 0x00
    3598:	003c                	.2byte	0x3c
    359a:	0000                	.2byte	0x0
    359c:	ff31                	.2byte	0xff31
    359e:	c7ff 0060 0000 0047 	.byte	0xff, 0xc7, 0x60, 0x00, 0x00, 0x00, 0x47, 0x00, 0x00, 0x00, 0x7c, 0x8c, 0xdf, 0xc7, 0x12, 0x00, 0x00, 0x00
    35a6:	0000 8c7c c7df 0012 
    35ae:	0000 
    35b0:	0000000f          	fence	unknown,unknown
    35b4:	662e                	.2byte	0x662e
    35b6:	c906                	.2byte	0xc906
    35b8:	0034                	.2byte	0x34
    35ba:	0000                	.2byte	0x0
    35bc:	005e                	.2byte	0x5e
    35be:	0000                	.2byte	0x0
    35c0:	ef31                	.2byte	0xef31
    35c2:	c7ac                	.2byte	0xc7ac
    35c4:	00000057          	.4byte	0x57
    35c8:	000a                	.2byte	0xa
    35ca:	0000                	.2byte	0x0
    35cc:	ffdd                	.2byte	0xffdd
    35ce:	0015c94b          	fnmsub.s	fs2,fa1,ft1,ft0,rmm
    35d2:	0000                	.2byte	0x0
    35d4:	0038                	.2byte	0x38
    35d6:	0000                	.2byte	0x0
    35d8:	ffcd                	.2byte	0xffcd
    35da:	c811                	.2byte	0xc811
    35dc:	002c                	.2byte	0x2c
    35de:	0000                	.2byte	0x0
    35e0:	0000001b          	.4byte	0x1b
    35e4:	8dcd                	.2byte	0x8dcd
    35e6:	005ac897          	auipc	a7,0x5ac
    35ea:	0000                	.2byte	0x0
    35ec:	0062                	.2byte	0x62
    35ee:	0000                	.2byte	0x0
    35f0:	199f c7a7 0061      	.byte	0x9f, 0x19, 0xa7, 0xc7, 0x61, 0x00
    35f6:	0000                	.2byte	0x0
    35f8:	00000007          	.4byte	0x7
    35fc:	3f92                	.2byte	0x3f92
    35fe:	c992                	.2byte	0xc992
    3600:	005f 0000 0030      	.byte	0x5f, 0x00, 0x00, 0x00, 0x30, 0x00
    3606:	0000                	.2byte	0x0
    3608:	a54d                	.2byte	0xa54d
    360a:	c82a                	.2byte	0xc82a
    360c:	0005                	.2byte	0x5
    360e:	0000                	.2byte	0x0
    3610:	00000017          	auipc	zero,0x0
    3614:	133c                	.2byte	0x133c
    3616:	c8b2                	.2byte	0xc8b2
    3618:	002c                	.2byte	0x2c
    361a:	0000                	.2byte	0x0
    361c:	0005                	.2byte	0x5
    361e:	0000                	.2byte	0x0
    3620:	ca9a                	.2byte	0xca9a
    3622:	c9cc                	.2byte	0xc9cc
    3624:	005f 0000 0045      	.byte	0x5f, 0x00, 0x00, 0x00, 0x45, 0x00
    362a:	0000                	.2byte	0x0
    362c:	7162                	.2byte	0x7162
    362e:	c7ed                	.2byte	0xc7ed
    3630:	0060                	.2byte	0x60
    3632:	0000                	.2byte	0x0
    3634:	0052                	.2byte	0x52
    3636:	0000                	.2byte	0x0
    3638:	c7c7cd77          	.4byte	0xc7c7cd77
    363c:	001f 0000 0020      	.byte	0x1f, 0x00, 0x00, 0x00, 0x20, 0x00
    3642:	0000                	.2byte	0x0
    3644:	ff22                	.2byte	0xff22
    3646:	c87f 004e 0000 005c 	.byte	0x7f, 0xc8, 0x4e, 0x00, 0x00, 0x00, 0x5c, 0x00, 0x00, 0x00, 0x1c, 0x16, 0xb2, 0xc7, 0x0b, 0x00, 0x00, 0x00
    364e:	0000 161c c7b2 000b 
    3656:	0000 
    3658:	0030                	.2byte	0x30
    365a:	0000                	.2byte	0x0
    365c:	aa98                	.2byte	0xaa98
    365e:	c82a                	.2byte	0xc82a
    3660:	0005                	.2byte	0x5
    3662:	0000                	.2byte	0x0
    3664:	0038                	.2byte	0x38
    3666:	0000                	.2byte	0x0
    3668:	48de                	.2byte	0x48de
    366a:	c812                	.2byte	0xc812
    366c:	0039                	.2byte	0x39
    366e:	0000                	.2byte	0x0
    3670:	0024                	.2byte	0x24
    3672:	0000                	.2byte	0x0
    3674:	c8638dc7          	fmsub.s	fs11,ft7,ft6,fs9,rne
    3678:	003d                	.2byte	0x3d
    367a:	0000                	.2byte	0x0
    367c:	0024                	.2byte	0x24
    367e:	0000                	.2byte	0x0
    3680:	8df5                	.2byte	0x8df5
    3682:	0024c863          	blt	s1,sp,3692 <test_fp+0x68e>
    3686:	0000                	.2byte	0x0
    3688:	0000000b          	.4byte	0xb
    368c:	2f4c                	.2byte	0x2f4c
    368e:	48ba                	.2byte	0x48ba
    3690:	0041                	.2byte	0x41
    3692:	0000                	.2byte	0x0
    3694:	0000002f          	.4byte	0x2f
    3698:	4c62                	.2byte	0x4c62
    369a:	472e                	.2byte	0x472e
    369c:	0005                	.2byte	0x5
    369e:	0000                	.2byte	0x0
    36a0:	0000002f          	.4byte	0x2f
    36a4:	4ddf 46ae 0025      	.byte	0xdf, 0x4d, 0xae, 0x46, 0x25, 0x00
    36aa:	0000                	.2byte	0x0
    36ac:	0009                	.2byte	0x9
    36ae:	0000                	.2byte	0x0
    36b0:	928e                	.2byte	0x928e
    36b2:	00264763          	blt	a2,sp,36c0 <test_fp+0x6bc>
    36b6:	0000                	.2byte	0x0
    36b8:	005c                	.2byte	0x5c
    36ba:	0000                	.2byte	0x0
    36bc:	237a                	.2byte	0x237a
    36be:	4532                	.2byte	0x4532
    36c0:	0000004b          	fnmsub.s	ft0,ft0,ft0,ft0,rne
    36c4:	0024                	.2byte	0x24
    36c6:	0000                	.2byte	0x0
    36c8:	aa39                	.2byte	0xaa39
    36ca:	003e4563          	blt	t3,gp,36d4 <test_fp+0x6d0>
    36ce:	0000                	.2byte	0x0
    36d0:	003a                	.2byte	0x3a
    36d2:	0000                	.2byte	0x0
    36d4:	6612                	.2byte	0x6612
    36d6:	448d                	.2byte	0x448d
    36d8:	0048                	.2byte	0x48
    36da:	0000                	.2byte	0x0
    36dc:	003e                	.2byte	0x3e
    36de:	0000                	.2byte	0x0
    36e0:	44045ce7          	.4byte	0x44045ce7
    36e4:	0039                	.2byte	0x39
    36e6:	0000                	.2byte	0x0
    36e8:	0019                	.2byte	0x19
    36ea:	0000                	.2byte	0x0
    36ec:	6b85                	.2byte	0x6b85
    36ee:	4424                	.2byte	0x4424
    36f0:	0039                	.2byte	0x39
    36f2:	0000                	.2byte	0x0
    36f4:	0052                	.2byte	0x52
    36f6:	0000                	.2byte	0x0
    36f8:	42c844af          	.4byte	0x42c844af
    36fc:	0012                	.2byte	0x12
    36fe:	0000                	.2byte	0x0
    3700:	0059                	.2byte	0x59
    3702:	0000                	.2byte	0x0
    3704:	4509                	.2byte	0x4509
    3706:	4238                	.2byte	0x4238
    3708:	00000003          	lb	zero,0(zero) # 0 <rvtest_entry_point>
    370c:	003a                	.2byte	0x3a
    370e:	0000                	.2byte	0x0
    3710:	b961                	.2byte	0xb961
    3712:	4211                	.2byte	0x4211
    3714:	0040                	.2byte	0x40
    3716:	0000                	.2byte	0x0
    3718:	0022                	.2byte	0x22
    371a:	0000                	.2byte	0x0
    371c:	7878                	.2byte	0x7878
    371e:	4202                	.2byte	0x4202
    3720:	0054                	.2byte	0x54
    3722:	0000                	.2byte	0x0
    3724:	0050                	.2byte	0x50
    3726:	0000                	.2byte	0x0
    3728:	999a                	.2byte	0x999a
    372a:	40ed                	.2byte	0x40ed
    372c:	0051                	.2byte	0x51
    372e:	0000                	.2byte	0x0
    3730:	0000000b          	.4byte	0xb
    3734:	2e8c                	.2byte	0x2e8c
    3736:	41ca                	.2byte	0x41ca
    3738:	0015                	.2byte	0x15
    373a:	0000                	.2byte	0x0
    373c:	0011                	.2byte	0x11
    373e:	0000                	.2byte	0x0
    3740:	c3c4                	.2byte	0xc3c4
    3742:	004f4143          	fmadd.s	ft2,ft10,ft4,ft0,rmm
    3746:	0000                	.2byte	0x0
    3748:	005a                	.2byte	0x5a
    374a:	0000                	.2byte	0x0
    374c:	3fc16c17          	auipc	s8,0x3fc16
    3750:	00000047          	fmsub.s	ft0,ft0,ft0,ft0,rne
    3754:	0051                	.2byte	0x51
    3756:	0000                	.2byte	0x0
    3758:	e065                	.2byte	0xe065
    375a:	3ee9                	.2byte	0x3ee9
    375c:	0004                	.2byte	0x4
    375e:	0000                	.2byte	0x0
    3760:	005d                	.2byte	0x5d
    3762:	0000                	.2byte	0x0
    3764:	23c9                	.2byte	0x23c9
    3766:	00093e8f          	.4byte	0x93e8f
    376a:	0000                	.2byte	0x0
    376c:	003e                	.2byte	0x3e
    376e:	0000                	.2byte	0x0
    3770:	739d                	.2byte	0x739d
    3772:	3f8e                	.2byte	0x3f8e
    3774:	003c                	.2byte	0x3c
    3776:	0000                	.2byte	0x0
    3778:	0006                	.2byte	0x6
    377a:	0000                	.2byte	0x0
    377c:	416aaaab          	.4byte	0x416aaaab
    3780:	00000053          	fadd.s	ft0,ft0,ft0,rne
    3784:	005c                	.2byte	0x5c
    3786:	0000                	.2byte	0x0
    3788:	3e3d37a7          	.4byte	0x3e3d37a7
    378c:	000e                	.2byte	0xe
    378e:	0000                	.2byte	0x0
    3790:	0056                	.2byte	0x56
    3792:	0000                	.2byte	0x0
    3794:	49ad                	.2byte	0x49ad
    3796:	000d3e23          	.4byte	0xd3e23
    379a:	0000                	.2byte	0x0
    379c:	0005                	.2byte	0x5
    379e:	0000                	.2byte	0x0
    37a0:	cbcd                	.2byte	0xcbcd
    37a2:	c94c                	.2byte	0xc94c
    37a4:	0051                	.2byte	0x51
    37a6:	0000                	.2byte	0x0
    37a8:	0029                	.2byte	0x29
    37aa:	0000                	.2byte	0x0
    37ac:	cd9c                	.2byte	0xcd9c
    37ae:	0013c747          	fmsub.s	fa4,ft7,ft1,ft0,rmm
    37b2:	0000                	.2byte	0x0
    37b4:	0020                	.2byte	0x20
    37b6:	0000                	.2byte	0x0
    37b8:	fb30                	.2byte	0xfb30
    37ba:	c6ff 004e 0000 0058 	.byte	0xff, 0xc6, 0x4e, 0x00, 0x00, 0x00, 0x58, 0x00, 0x00, 0x00, 0x46, 0x27, 0xba, 0xc5, 0x51, 0x00, 0x00, 0x00
    37c2:	0000 2746 c5ba 0051 
    37ca:	0000 
    37cc:	0000002f          	.4byte	0x2f
    37d0:	4931                	.2byte	0x4931
    37d2:	c5ae                	.2byte	0xc5ae
    37d4:	00000013          	nop
    37d8:	000d                	.2byte	0xd
    37da:	0000                	.2byte	0x0
    37dc:	7b62                	.2byte	0x7b62
    37de:	c61d                	.2byte	0xc61d
    37e0:	0030                	.2byte	0x30
    37e2:	0000                	.2byte	0x0
    37e4:	003d                	.2byte	0x3d
    37e6:	0000                	.2byte	0x0
    37e8:	3c54                	.2byte	0x3c54
    37ea:	c486                	.2byte	0xc486
    37ec:	001e                	.2byte	0x1e
    37ee:	0000                	.2byte	0x0
    37f0:	0000003f c401fefc 	.8byte	0xc401fefc0000003f
    37f8:	000a                	.2byte	0xa
    37fa:	0000                	.2byte	0x0
    37fc:	00000037          	lui	zero,0x0
    3800:	561c                	.2byte	0x561c
    3802:	c394                	.2byte	0xc394
    3804:	0044                	.2byte	0x44
    3806:	0000                	.2byte	0x0
    3808:	0000004f          	fnmadd.s	ft0,ft0,ft0,ft0,rne
    380c:	5dfa                	.2byte	0x5dfa
    380e:	0002c2cf          	fnmadd.s	ft5,ft5,ft0,ft0,rmm
    3812:	0000                	.2byte	0x0
    3814:	0014                	.2byte	0x14
    3816:	0000                	.2byte	0x0
    3818:	199a                	.2byte	0x199a
    381a:	0023c34b          	fnmsub.s	ft6,ft7,ft2,ft0,rmm
    381e:	0000                	.2byte	0x0
    3820:	0008                	.2byte	0x8
    3822:	0000                	.2byte	0x0
    3824:	0000                	.2byte	0x0
    3826:	c37d                	.2byte	0xc37d
    3828:	0019                	.2byte	0x19
    382a:	0000                	.2byte	0x0
    382c:	0040                	.2byte	0x40
    382e:	0000                	.2byte	0x0
    3830:	4000                	.2byte	0x4000
    3832:	c16d                	.2byte	0xc16d
    3834:	004c                	.2byte	0x4c
    3836:	0000                	.2byte	0x0
    3838:	0030                	.2byte	0x30
    383a:	0000                	.2byte	0x0
    383c:	5555                	.2byte	0x5555
    383e:	002fc11b          	.4byte	0x2fc11b
    3842:	0000                	.2byte	0x0
    3844:	0058                	.2byte	0x58
    3846:	0000                	.2byte	0x0
    3848:	0000                	.2byte	0x0
    384a:	bff0                	.2byte	0xbff0
    384c:	005c                	.2byte	0x5c
    384e:	0000                	.2byte	0x0
    3850:	0049                	.2byte	0x49
    3852:	0000                	.2byte	0x0
    3854:	e3f2                	.2byte	0xe3f2
    3856:	000fbfc7          	fmsub.s	ft11,ft11,ft0,ft0,rup
    385a:	0000                	.2byte	0x0
    385c:	0004                	.2byte	0x4
    385e:	0000                	.2byte	0x0
    3860:	0000                	.2byte	0x0
    3862:	4060                	.2byte	0x4060
    3864:	0000004f          	fnmadd.s	ft0,ft0,ft0,ft0,rne
    3868:	0008                	.2byte	0x8
    386a:	0000                	.2byte	0x0
    386c:	0000                	.2byte	0x0
    386e:	bf90                	.2byte	0xbf90
    3870:	0018                	.2byte	0x18
    3872:	0000                	.2byte	0x0
    3874:	0050                	.2byte	0x50
    3876:	0000                	.2byte	0x0
    3878:	3f033333          	.4byte	0x3f033333
    387c:	003a                	.2byte	0x3a
    387e:	0000                	.2byte	0x0
    3880:	0048                	.2byte	0x48
    3882:	0000                	.2byte	0x0
    3884:	8e39                	.2byte	0x8e39
    3886:	0001bde3          	.4byte	0x1bde3
    388a:	0000                	.2byte	0x0
    388c:	0015                	.2byte	0x15
    388e:	0000                	.2byte	0x0
    3890:	2492                	.2byte	0x2492
    3892:	3fc9                	.2byte	0x3fc9
    3894:	0026                	.2byte	0x26
    3896:	0000                	.2byte	0x0
    3898:	0000003f 3fb8e38e 	.8byte	0x3fb8e38e0000003f
    38a0:	005e                	.2byte	0x5e
    38a2:	0000                	.2byte	0x0
    38a4:	00000053          	fadd.s	ft0,ft0,ft0,rne
    38a8:	3f1b19a3          	sh	a7,1011(s6)
    38ac:	00000033          	add	zero,zero,zero
    38b0:	3f800023          	sb	s8,992(zero) # 3e0 <inst_22+0x10>
    38b4:	ffe9                	.2byte	0xffe9
    38b6:	401f 0029 3f80      	.byte	0x1f, 0x40, 0x29, 0x00, 0x80, 0x3f
    38bc:	0059                	.2byte	0x59
    38be:	3f80                	.2byte	0x3f80
    38c0:	400fffc3          	fmadd.s	ft11,ft11,ft0,fs0
    38c4:	004e                	.2byte	0x4e
    38c6:	3f80                	.2byte	0x3f80
    38c8:	0050                	.2byte	0x50
    38ca:	3f80                	.2byte	0x3f80
    38cc:	ffc4                	.2byte	0xffc4
    38ce:	00314007          	.4byte	0x314007
    38d2:	3f80                	.2byte	0x3f80
    38d4:	0055                	.2byte	0x55
    38d6:	3f80                	.2byte	0x3f80
    38d8:	4003ffb3          	.4byte	0x4003ffb3
    38dc:	0015                	.2byte	0x15
    38de:	3f80                	.2byte	0x3f80
    38e0:	002a                	.2byte	0x2a
    38e2:	3f80                	.2byte	0x3f80
    38e4:	ffed                	.2byte	0xffed
    38e6:	4001                	.2byte	0x4001
    38e8:	3f80002f          	.4byte	0x3f80002f
    38ec:	0052                	.2byte	0x52
    38ee:	3f80                	.2byte	0x3f80
    38f0:	4000ffcb          	fnmsub.s	ft11,ft1,ft0,fs0
    38f4:	003c                	.2byte	0x3c
    38f6:	3f80                	.2byte	0x3f80
    38f8:	0040                	.2byte	0x40
    38fa:	3f80                	.2byte	0x3f80
    38fc:	7fd4                	.2byte	0x7fd4
    38fe:	4000                	.2byte	0x4000
    3900:	0028                	.2byte	0x28
    3902:	3f80                	.2byte	0x3f80
    3904:	005d                	.2byte	0x5d
    3906:	3f80                	.2byte	0x3f80
    3908:	40003fbb          	.4byte	0x40003fbb
    390c:	0031                	.2byte	0x31
    390e:	3f80                	.2byte	0x3f80
    3910:	3f80003f 40001fca 	.8byte	0x40001fca3f80003f
    3918:	3f800013          	li	zero,1016
    391c:	0055                	.2byte	0x55
    391e:	3f80                	.2byte	0x3f80
    3920:	0fca                	.2byte	0xfca
    3922:	4000                	.2byte	0x4000
    3924:	003e                	.2byte	0x3e
    3926:	3f80                	.2byte	0x3f80
    3928:	004e                	.2byte	0x4e
    392a:	3f80                	.2byte	0x3f80
    392c:	07d0                	.2byte	0x7d0
    392e:	4000                	.2byte	0x4000
    3930:	003d                	.2byte	0x3d
    3932:	3f80                	.2byte	0x3f80
    3934:	3f80003f 400003d2 	.8byte	0x400003d23f80003f
    393c:	3f800023          	sb	s8,992(zero) # 3e0 <inst_22+0x10>
    3940:	0036                	.2byte	0x36
    3942:	3f80                	.2byte	0x3f80
    3944:	01f1                	.2byte	0x1f1
    3946:	4000                	.2byte	0x4000
    3948:	3f80004f          	.4byte	0x3f80004f
    394c:	0021                	.2byte	0x21
    394e:	3f80                	.2byte	0x3f80
    3950:	00f9                	.2byte	0xf9
    3952:	4000                	.2byte	0x4000
    3954:	0035                	.2byte	0x35
    3956:	3f80                	.2byte	0x3f80
    3958:	3f80002b          	.4byte	0x3f80002b
    395c:	0076                	.2byte	0x76
    395e:	4000                	.2byte	0x4000
    3960:	3f800043          	.4byte	0x3f800043
    3964:	0041                	.2byte	0x41
    3966:	3f80                	.2byte	0x3f80
    3968:	001c                	.2byte	0x1c
    396a:	4000                	.2byte	0x4000
    396c:	003a                	.2byte	0x3a
    396e:	3f80                	.2byte	0x3f80
    3970:	0019                	.2byte	0x19
    3972:	3f80                	.2byte	0x3f80
    3974:	40000017          	auipc	zero,0x40000
    3978:	0021                	.2byte	0x21
    397a:	3f80                	.2byte	0x3f80
    397c:	004c                	.2byte	0x4c
    397e:	3f80                	.2byte	0x3f80
    3980:	3fffffb7          	lui	t6,0x3ffff
    3984:	3f80002f          	.4byte	0x3f80002f
    3988:	0010                	.2byte	0x10
    398a:	3f80                	.2byte	0x3f80
    398c:	0008                	.2byte	0x8
    398e:	4000                	.2byte	0x4000
    3990:	0021                	.2byte	0x21
    3992:	3f80                	.2byte	0x3f80
    3994:	3f800003          	lb	zero,1016(zero) # 3f8 <inst_23+0x8>
    3998:	40000023          	sb	zero,1024(zero) # 400 <inst_23+0x10>
    399c:	0045                	.2byte	0x45
    399e:	3f80                	.2byte	0x3f80
    39a0:	3f800017          	auipc	zero,0x3f800
    39a4:	ffd9                	.2byte	0xffd9
    39a6:	00033fff 003f3f80 	.byte	0xff, 0x3f, 0x03, 0x00, 0x80, 0x3f, 0x3f, 0x00, 0x80, 0x3f, 0xe1, 0xff, 0xff, 0x3f, 0x5d, 0x00
    39ae:	ffe13f80 005d3fff 
    39b6:	3f80                	.2byte	0x3f80
    39b8:	3f800023          	sb	s8,992(zero) # 3e0 <inst_22+0x10>
    39bc:	fff5                	.2byte	0xfff5
    39be:	003a3fff 00603f80 	.byte	0xff, 0x3f, 0x3a, 0x00, 0x80, 0x3f, 0x60, 0x00, 0x80, 0x3f, 0xe0, 0xfd, 0xff, 0xbe, 0x58, 0x00
    39c6:	fde03f80 0058beff 
    39ce:	3f80                	.2byte	0x3f80
    39d0:	3f80000b          	.4byte	0x3f80000b
    39d4:	ff22                	.2byte	0xff22
    39d6:	0019be7f 005b3f80 	.byte	0x7f, 0xbe, 0x19, 0x00, 0x80, 0x3f, 0x5b, 0x00, 0x80, 0x3f, 0xfa, 0xfb, 0xff, 0xbd, 0x35, 0x00
    39de:	fbfa3f80 0035bdff 
    39e6:	3f80                	.2byte	0x3f80
    39e8:	003d                	.2byte	0x3d
    39ea:	3f80                	.2byte	0x3f80
    39ec:	faa6                	.2byte	0xfaa6
    39ee:	0027bd7f 00433f80 	.byte	0x7f, 0xbd, 0x27, 0x00, 0x80, 0x3f, 0x43, 0x00, 0x80, 0x3f, 0xba, 0xf1, 0xff, 0xbc, 0x37, 0x00
    39f6:	f1ba3f80 0037bcff 
    39fe:	3f80                	.2byte	0x3f80
    3a00:	0031                	.2byte	0x31
    3a02:	3f80                	.2byte	0x3f80
    3a04:	fa9e                	.2byte	0xfa9e
    3a06:	000abc7f 003a3f80 	.byte	0x7f, 0xbc, 0x0a, 0x00, 0x80, 0x3f, 0x3a, 0x00, 0x80, 0x3f, 0x8c, 0xc5, 0xff, 0xbb, 0x3a, 0x00
    3a0e:	c58c3f80 003abbff 
    3a16:	3f80                	.2byte	0x3f80
    3a18:	004e                	.2byte	0x4e
    3a1a:	3f80                	.2byte	0x3f80
    3a1c:	5364                	.2byte	0x5364
    3a1e:	0056bb7f 00203f80 	.byte	0x7f, 0xbb, 0x56, 0x00, 0x80, 0x3f, 0x20, 0x00, 0x80, 0x3f, 0xc0, 0xcf, 0xff, 0xba, 0x0c, 0x00
    3a26:	cfc03f80 000cbaff 
    3a2e:	3f80                	.2byte	0x3f80
    3a30:	000d                	.2byte	0xd
    3a32:	3f80                	.2byte	0x3f80
    3a34:	37e6                	.2byte	0x37e6
    3a36:	ba7e                	.2byte	0xba7e
    3a38:	0039                	.2byte	0x39
    3a3a:	3f80                	.2byte	0x3f80
    3a3c:	0060                	.2byte	0x60
    3a3e:	3f80                	.2byte	0x3f80
    3a40:	cf42                	.2byte	0xcf42
    3a42:	b9fc                	.2byte	0xb9fc
    3a44:	3f800033          	.4byte	0x3f800033
    3a48:	3f800037          	lui	zero,0x3f800
    3a4c:	5f96                	.2byte	0x5f96
    3a4e:	b976                	.2byte	0xb976
    3a50:	004d                	.2byte	0x4d
    3a52:	3f80                	.2byte	0x3f80
    3a54:	3f800007          	.4byte	0x3f800007
    3a58:	fff2                	.2byte	0xfff2
    3a5a:	b8f9                	.2byte	0xb8f9
    3a5c:	0018                	.2byte	0x18
    3a5e:	3f80                	.2byte	0x3f80
    3a60:	3f800057          	.4byte	0x3f800057
    3a64:	b8607f67          	.4byte	0xb8607f67
    3a68:	3f80003f 3f800026 	.8byte	0x3f8000263f80003f
    3a70:	ffb9                	.2byte	0xffb9
    3a72:	b7ee                	.2byte	0xb7ee
    3a74:	0011                	.2byte	0x11
    3a76:	3f80                	.2byte	0x3f80
    3a78:	0044                	.2byte	0x44
    3a7a:	3f80                	.2byte	0x3f80
    3a7c:	ffad                	.2byte	0xffad
    3a7e:	0032b71b          	.4byte	0x32b71b
    3a82:	3f80                	.2byte	0x3f80
    3a84:	0030                	.2byte	0x30
    3a86:	3f80                	.2byte	0x3f80
    3a88:	ffa6                	.2byte	0xffa6
    3a8a:	0031b5ef          	jal	a1,1f28c <_end+0x1ac4c>
    3a8e:	3f80                	.2byte	0x3f80
    3a90:	0050                	.2byte	0x50
    3a92:	3f80                	.2byte	0x3f80
    3a94:	ff60                	.2byte	0xff60
    3a96:	0028357f 00563f80 	.byte	0x7f, 0x35, 0x28, 0x00, 0x80, 0x3f, 0x56, 0x00, 0x80, 0x3f, 0x54, 0xff, 0xff, 0x36, 0x50, 0x00
    3a9e:	ff543f80 005036ff 
    3aa6:	3f80                	.2byte	0x3f80
    3aa8:	3f80002b          	.4byte	0x3f80002b
    3aac:	ffaa                	.2byte	0xffaa
    3aae:	004836ff 00033f80 	.byte	0xff, 0x36, 0x48, 0x00, 0x80, 0x3f, 0x03, 0x00, 0x80, 0x3f, 0xfc, 0xff, 0x1d, 0x37, 0x53, 0x00
    3ab6:	fffc3f80 0053371d 
    3abe:	3f80                	.2byte	0x3f80
    3ac0:	0019                	.2byte	0x19
    3ac2:	3f80                	.2byte	0x3f80
    3ac4:	ffe1                	.2byte	0xffe1
    3ac6:	361f 0016 3f80      	.byte	0x1f, 0x36, 0x16, 0x00, 0x80, 0x3f
    3acc:	3f800043          	.4byte	0x3f800043
    3ad0:	ff7a                	.2byte	0xff7a
    3ad2:	000233ff 001b3f80 	.byte	0xff, 0x33, 0x02, 0x00, 0x80, 0x3f, 0x1b, 0x00, 0x00, 0x00, 0xfb, 0xb4, 0x17, 0x48, 0x5a, 0x00
    3ada:	b4fb0000 005a4817 
    3ae2:	0000                	.2byte	0x0
    3ae4:	0012                	.2byte	0x12
    3ae6:	0000                	.2byte	0x0
    3ae8:	905c                	.2byte	0x905c
    3aea:	004d47e3          	blt	s10,tp,42f8 <data_begin+0x598>
    3aee:	0000                	.2byte	0x0
    3af0:	003e                	.2byte	0x3e
    3af2:	0000                	.2byte	0x0
    3af4:	21f8                	.2byte	0x21f8
    3af6:	4684                	.2byte	0x4684
    3af8:	001d                	.2byte	0x1d
    3afa:	0000                	.2byte	0x0
    3afc:	001a                	.2byte	0x1a
    3afe:	0000                	.2byte	0x0
    3b00:	8d9e                	.2byte	0x8d9e
    3b02:	469d                	.2byte	0x469d
    3b04:	0031                	.2byte	0x31
    3b06:	0000                	.2byte	0x0
    3b08:	0028                	.2byte	0x28
    3b0a:	0000                	.2byte	0x0
    3b0c:	df66                	.2byte	0xdf66
    3b0e:	45cc                	.2byte	0x45cc
    3b10:	005d                	.2byte	0x5d
    3b12:	0000                	.2byte	0x0
    3b14:	0055                	.2byte	0x55
    3b16:	0000                	.2byte	0x0
    3b18:	cdee                	.2byte	0xcdee
    3b1a:	44c0                	.2byte	0x44c0
    3b1c:	00000023          	sb	zero,0(zero) # 0 <rvtest_entry_point>
    3b20:	0000000f          	fence	unknown,unknown
    3b24:	b222                	.2byte	0xb222
    3b26:	4588                	.2byte	0x4588
    3b28:	004e                	.2byte	0x4e
    3b2a:	0000                	.2byte	0x0
    3b2c:	0044                	.2byte	0x44
    3b2e:	0000                	.2byte	0x0
    3b30:	21e2                	.2byte	0x21e2
    3b32:	43f1                	.2byte	0x43f1
    3b34:	001a                	.2byte	0x1a
    3b36:	0000                	.2byte	0x0
    3b38:	0041                	.2byte	0x41
    3b3a:	0000                	.2byte	0x0
    3b3c:	6666                	.2byte	0x6666
    3b3e:	437d                	.2byte	0x437d
    3b40:	00000057          	.4byte	0x57
    3b44:	0010                	.2byte	0x10
    3b46:	0000                	.2byte	0x0
    3b48:	3000                	.2byte	0x3000
    3b4a:	4400                	.2byte	0x4400
    3b4c:	000c                	.2byte	0xc
    3b4e:	0000                	.2byte	0x0
    3b50:	002e                	.2byte	0x2e
    3b52:	0000                	.2byte	0x0
    3b54:	642d                	.2byte	0x642d
    3b56:	42b5                	.2byte	0x42b5
    3b58:	004c                	.2byte	0x4c
    3b5a:	0000                	.2byte	0x0
    3b5c:	0038                	.2byte	0x38
    3b5e:	0000                	.2byte	0x0
    3b60:	1249                	.2byte	0x1249
    3b62:	4215                	.2byte	0x4215
    3b64:	00000027          	.4byte	0x27
    3b68:	0020                	.2byte	0x20
    3b6a:	0000                	.2byte	0x0
    3b6c:	c000                	.2byte	0xc000
    3b6e:	4209                	.2byte	0x4209
    3b70:	004e                	.2byte	0x4e
    3b72:	0000                	.2byte	0x0
    3b74:	0052                	.2byte	0x52
    3b76:	0000                	.2byte	0x0
    3b78:	40da2577          	.4byte	0x40da2577
    3b7c:	0000002f          	.4byte	0x2f
    3b80:	0041                	.2byte	0x41
    3b82:	0000                	.2byte	0x0
    3b84:	0000                	.2byte	0x0
    3b86:	4080                	.2byte	0x4080
    3b88:	0004                	.2byte	0x4
    3b8a:	0000                	.2byte	0x0
    3b8c:	00000053          	fadd.s	ft0,ft0,ft0,rne
    3b90:	18ad                	.2byte	0x18ad
    3b92:	4028                	.2byte	0x4028
    3b94:	005a                	.2byte	0x5a
    3b96:	0000                	.2byte	0x0
    3b98:	0042                	.2byte	0x42
    3b9a:	0000                	.2byte	0x0
    3b9c:	d174                	.2byte	0xd174
    3b9e:	4005                	.2byte	0x4005
    3ba0:	004a                	.2byte	0x4a
    3ba2:	0000                	.2byte	0x0
    3ba4:	0000003f 3f679e7a 	.8byte	0x3f679e7a0000003f
    3bac:	0019                	.2byte	0x19
    3bae:	0000                	.2byte	0x0
    3bb0:	0054                	.2byte	0x54
    3bb2:	0000                	.2byte	0x0
    3bb4:	0000                	.2byte	0x0
    3bb6:	3f40                	.2byte	0x3f40
    3bb8:	0000002f          	.4byte	0x2f
    3bbc:	004c                	.2byte	0x4c
    3bbe:	0000                	.2byte	0x0
    3bc0:	0d79                	.2byte	0xd79
    3bc2:	3ee5                	.2byte	0x3ee5
    3bc4:	001a                	.2byte	0x1a
    3bc6:	0000                	.2byte	0x0
    3bc8:	000d                	.2byte	0xd
    3bca:	0000                	.2byte	0x0
    3bcc:	3f44ec4f          	.4byte	0x3f44ec4f
    3bd0:	0006                	.2byte	0x6
    3bd2:	0000                	.2byte	0x0
    3bd4:	0052                	.2byte	0x52
    3bd6:	0000                	.2byte	0x0
    3bd8:	c190                	.2byte	0xc190
    3bda:	3ef9                	.2byte	0x3ef9
    3bdc:	0026                	.2byte	0x26
    3bde:	0000                	.2byte	0x0
    3be0:	001a                	.2byte	0x1a
    3be2:	0000                	.2byte	0x0
    3be4:	0000                	.2byte	0x0
    3be6:	4060                	.2byte	0x4060
    3be8:	005a                	.2byte	0x5a
    3bea:	0000                	.2byte	0x0
    3bec:	000d                	.2byte	0xd
    3bee:	0000                	.2byte	0x0
    3bf0:	88ea                	.2byte	0x88ea
    3bf2:	c89d                	.2byte	0xc89d
    3bf4:	0061                	.2byte	0x61
    3bf6:	0000                	.2byte	0x0
    3bf8:	0039                	.2byte	0x39
    3bfa:	0000                	.2byte	0x0
    3bfc:	b690                	.2byte	0xb690
    3bfe:	005ac70f          	.4byte	0x5ac70f
    3c02:	0000                	.2byte	0x0
    3c04:	0035                	.2byte	0x35
    3c06:	0000                	.2byte	0x0
    3c08:	8fa9                	.2byte	0x8fa9
    3c0a:	c69a                	.2byte	0xc69a
    3c0c:	0021                	.2byte	0x21
    3c0e:	0000                	.2byte	0x0
    3c10:	000c                	.2byte	0xc
    3c12:	0000                	.2byte	0x0
    3c14:	a6c0                	.2byte	0xa6c0
    3c16:	c72a                	.2byte	0xc72a
    3c18:	0000002f          	.4byte	0x2f
    3c1c:	00000037          	lui	zero,0x0
    3c20:	ebc8                	.2byte	0xebc8
    3c22:	c594                	.2byte	0xc594
    3c24:	0000002b          	.4byte	0x2b
    3c28:	0058                	.2byte	0x58
    3c2a:	0000                	.2byte	0x0
    3c2c:	c4ba2a2f          	.4byte	0xc4ba2a2f
    3c30:	000c                	.2byte	0xc
    3c32:	0000                	.2byte	0x0
    3c34:	0055                	.2byte	0x55
    3c36:	0000                	.2byte	0x0
    3c38:	8545                	.2byte	0x8545
    3c3a:	c440                	.2byte	0xc440
    3c3c:	0000004f          	fnmadd.s	ft0,ft0,ft0,ft0,rne
    3c40:	005e                	.2byte	0x5e
    3c42:	0000                	.2byte	0x0
    3c44:	1df5                	.2byte	0x1df5
    3c46:	c3ae                	.2byte	0xc3ae
    3c48:	0022                	.2byte	0x22
    3c4a:	0000                	.2byte	0x0
    3c4c:	00000047          	fmsub.s	ft0,ft0,ft0,ft0,rne
    3c50:	7e32                	.2byte	0x7e32
    3c52:	c365                	.2byte	0xc365
    3c54:	005a                	.2byte	0x5a
    3c56:	0000                	.2byte	0x0
    3c58:	0019                	.2byte	0x19
    3c5a:	0000                	.2byte	0x0
    3c5c:	6148                	.2byte	0x6148
    3c5e:	c3a2                	.2byte	0xc3a2
    3c60:	0049                	.2byte	0x49
    3c62:	0000                	.2byte	0x0
    3c64:	0058                	.2byte	0x58
    3c66:	0000                	.2byte	0x0
    3c68:	9746                	.2byte	0x9746
    3c6a:	c239                	.2byte	0xc239
    3c6c:	000d                	.2byte	0xd
    3c6e:	0000                	.2byte	0x0
    3c70:	0045                	.2byte	0x45
    3c72:	0000                	.2byte	0x0
    3c74:	5555                	.2byte	0x5555
    3c76:	c1e5                	.2byte	0xc1e5
    3c78:	0046                	.2byte	0x46
    3c7a:	0000                	.2byte	0x0
    3c7c:	005e                	.2byte	0x5e
    3c7e:	0000                	.2byte	0x0
    3c80:	c12546cf          	fnmadd.s	fa3,fa0,fs2,fs8,rmm
    3c84:	0035                	.2byte	0x35
    3c86:	0000                	.2byte	0x0
    3c88:	0000003f c0f6db6e 	.8byte	0xc0f6db6e0000003f
    3c90:	001a                	.2byte	0x1a
    3c92:	0000                	.2byte	0x0
    3c94:	00000003          	lb	zero,0(zero) # 0 <rvtest_entry_point>
    3c98:	5555                	.2byte	0x5555
    3c9a:	0023c293          	xor	t0,t2,2
    3c9e:	0000                	.2byte	0x0
    3ca0:	0029                	.2byte	0x29
    3ca2:	0000                	.2byte	0x0
    3ca4:	bf3512bb          	.4byte	0xbf3512bb
    3ca8:	00000063          	beqz	zero,3ca8 <test_fp+0xca4>
    3cac:	005f 0000 7692      	.byte	0x5f, 0x00, 0x00, 0x00, 0x92, 0x76
    3cb2:	be2c                	.2byte	0xbe2c
    3cb4:	0030                	.2byte	0x30
    3cb6:	0000                	.2byte	0x0
    3cb8:	003d                	.2byte	0x3d
    3cba:	0000                	.2byte	0x0
    3cbc:	3f8a7de7          	.4byte	0x3f8a7de7
    3cc0:	0062                	.2byte	0x62
    3cc2:	0000                	.2byte	0x0
    3cc4:	0055                	.2byte	0x55
    3cc6:	0000                	.2byte	0x0
    3cc8:	b4b5                	.2byte	0xb4b5
    3cca:	3f34                	.2byte	0x3f34
    3ccc:	004c                	.2byte	0x4c
    3cce:	0000                	.2byte	0x0
    3cd0:	0001                	.2byte	0x1
    3cd2:	0000                	.2byte	0x0
    3cd4:	0000                	.2byte	0x0
    3cd6:	4130                	.2byte	0x4130
    3cd8:	00000013          	nop
    3cdc:	0022                	.2byte	0x22
    3cde:	0000                	.2byte	0x0
    3ce0:	f0f1                	.2byte	0xf0f1
    3ce2:	3cf0                	.2byte	0x3cf0
    3ce4:	0005                	.2byte	0x5
    3ce6:	0000                	.2byte	0x0
    3ce8:	0000003f 3fc30c31 	.8byte	0x3fc30c310000003f
    3cf0:	0062                	.2byte	0x62
    3cf2:	0000                	.2byte	0x0
    3cf4:	000c                	.2byte	0xc
    3cf6:	7f00                	.2byte	0x7f00
    3cf8:	fffc                	.2byte	0xfffc
    3cfa:	0019402f          	.4byte	0x19402f
    3cfe:	7f00                	.2byte	0x7f00
    3d00:	0050                	.2byte	0x50
    3d02:	7f00                	.2byte	0x7f00
    3d04:	ffbc                	.2byte	0xffbc
    3d06:	0063403b          	.4byte	0x63403b
    3d0a:	7f00                	.2byte	0x7f00
    3d0c:	0035                	.2byte	0x35
    3d0e:	7f00                	.2byte	0x7f00
    3d10:	ffd9                	.2byte	0xffd9
    3d12:	403d                	.2byte	0x403d
    3d14:	0050                	.2byte	0x50
    3d16:	7f00                	.2byte	0x7f00
    3d18:	7f000017          	auipc	zero,0x7f000
    3d1c:	403effe3          	bgeu	t4,gp,493a <_end+0x2fa>
    3d20:	7f00000b          	.4byte	0x7f00000b
    3d24:	0001                	.2byte	0x1
    3d26:	7f00                	.2byte	0x7f00
    3d28:	8012                	.2byte	0x8012
    3d2a:	0028403f 002f7f00 	.8byte	0x2f7f000028403f
    3d32:	7f00                	.2byte	0x7f00
    3d34:	bfc8                	.2byte	0xbfc8
    3d36:	001d403f 00257f00 	.8byte	0x257f00001d403f
    3d3e:	7f00                	.2byte	0x7f00
    3d40:	efe0                	.2byte	0xefe0
    3d42:	0030403f 00297f00 	.8byte	0x297f000030403f
    3d4a:	7f00                	.2byte	0x7f00
    3d4c:	403ff7cb          	fnmsub.s	fa5,ft11,ft3,fs0
    3d50:	0012                	.2byte	0x12
    3d52:	7f00                	.2byte	0x7f00

00003d54 <rvtest_data_end>:
	...

00003d60 <data_begin>:
    3d60:	deadbeef          	jal	t4,fffdf34a <_end+0xfffdad0a>
    3d64:	deadbeef          	jal	t4,fffdf34e <_end+0xfffdad0e>
    3d68:	deadbeef          	jal	t4,fffdf352 <_end+0xfffdad12>
    3d6c:	deadbeef          	jal	t4,fffdf356 <_end+0xfffdad16>
    3d70:	deadbeef          	jal	t4,fffdf35a <_end+0xfffdad1a>
    3d74:	deadbeef          	jal	t4,fffdf35e <_end+0xfffdad1e>
    3d78:	deadbeef          	jal	t4,fffdf362 <_end+0xfffdad22>
    3d7c:	deadbeef          	jal	t4,fffdf366 <_end+0xfffdad26>
    3d80:	deadbeef          	jal	t4,fffdf36a <_end+0xfffdad2a>
    3d84:	deadbeef          	jal	t4,fffdf36e <_end+0xfffdad2e>
    3d88:	deadbeef          	jal	t4,fffdf372 <_end+0xfffdad32>
    3d8c:	deadbeef          	jal	t4,fffdf376 <_end+0xfffdad36>
    3d90:	deadbeef          	jal	t4,fffdf37a <_end+0xfffdad3a>
    3d94:	deadbeef          	jal	t4,fffdf37e <_end+0xfffdad3e>
    3d98:	deadbeef          	jal	t4,fffdf382 <_end+0xfffdad42>
    3d9c:	deadbeef          	jal	t4,fffdf386 <_end+0xfffdad46>
    3da0:	deadbeef          	jal	t4,fffdf38a <_end+0xfffdad4a>
    3da4:	deadbeef          	jal	t4,fffdf38e <_end+0xfffdad4e>
    3da8:	deadbeef          	jal	t4,fffdf392 <_end+0xfffdad52>
    3dac:	deadbeef          	jal	t4,fffdf396 <_end+0xfffdad56>
    3db0:	deadbeef          	jal	t4,fffdf39a <_end+0xfffdad5a>
    3db4:	deadbeef          	jal	t4,fffdf39e <_end+0xfffdad5e>
    3db8:	deadbeef          	jal	t4,fffdf3a2 <_end+0xfffdad62>
    3dbc:	deadbeef          	jal	t4,fffdf3a6 <_end+0xfffdad66>
    3dc0:	deadbeef          	jal	t4,fffdf3aa <_end+0xfffdad6a>
    3dc4:	deadbeef          	jal	t4,fffdf3ae <_end+0xfffdad6e>
    3dc8:	deadbeef          	jal	t4,fffdf3b2 <_end+0xfffdad72>
    3dcc:	deadbeef          	jal	t4,fffdf3b6 <_end+0xfffdad76>
    3dd0:	deadbeef          	jal	t4,fffdf3ba <_end+0xfffdad7a>
    3dd4:	deadbeef          	jal	t4,fffdf3be <_end+0xfffdad7e>
    3dd8:	deadbeef          	jal	t4,fffdf3c2 <_end+0xfffdad82>
    3ddc:	deadbeef          	jal	t4,fffdf3c6 <_end+0xfffdad86>
    3de0:	deadbeef          	jal	t4,fffdf3ca <_end+0xfffdad8a>
    3de4:	deadbeef          	jal	t4,fffdf3ce <_end+0xfffdad8e>
    3de8:	deadbeef          	jal	t4,fffdf3d2 <_end+0xfffdad92>
    3dec:	deadbeef          	jal	t4,fffdf3d6 <_end+0xfffdad96>
    3df0:	deadbeef          	jal	t4,fffdf3da <_end+0xfffdad9a>
    3df4:	deadbeef          	jal	t4,fffdf3de <_end+0xfffdad9e>
    3df8:	deadbeef          	jal	t4,fffdf3e2 <_end+0xfffdada2>
    3dfc:	deadbeef          	jal	t4,fffdf3e6 <_end+0xfffdada6>
    3e00:	deadbeef          	jal	t4,fffdf3ea <_end+0xfffdadaa>
    3e04:	deadbeef          	jal	t4,fffdf3ee <_end+0xfffdadae>
    3e08:	deadbeef          	jal	t4,fffdf3f2 <_end+0xfffdadb2>
    3e0c:	deadbeef          	jal	t4,fffdf3f6 <_end+0xfffdadb6>
    3e10:	deadbeef          	jal	t4,fffdf3fa <_end+0xfffdadba>
    3e14:	deadbeef          	jal	t4,fffdf3fe <_end+0xfffdadbe>
    3e18:	deadbeef          	jal	t4,fffdf402 <_end+0xfffdadc2>
    3e1c:	deadbeef          	jal	t4,fffdf406 <_end+0xfffdadc6>
    3e20:	deadbeef          	jal	t4,fffdf40a <_end+0xfffdadca>
    3e24:	deadbeef          	jal	t4,fffdf40e <_end+0xfffdadce>
    3e28:	deadbeef          	jal	t4,fffdf412 <_end+0xfffdadd2>
    3e2c:	deadbeef          	jal	t4,fffdf416 <_end+0xfffdadd6>
    3e30:	deadbeef          	jal	t4,fffdf41a <_end+0xfffdadda>
    3e34:	deadbeef          	jal	t4,fffdf41e <_end+0xfffdadde>
    3e38:	deadbeef          	jal	t4,fffdf422 <_end+0xfffdade2>
    3e3c:	deadbeef          	jal	t4,fffdf426 <_end+0xfffdade6>
    3e40:	deadbeef          	jal	t4,fffdf42a <_end+0xfffdadea>
    3e44:	deadbeef          	jal	t4,fffdf42e <_end+0xfffdadee>
    3e48:	deadbeef          	jal	t4,fffdf432 <_end+0xfffdadf2>
    3e4c:	deadbeef          	jal	t4,fffdf436 <_end+0xfffdadf6>
    3e50:	deadbeef          	jal	t4,fffdf43a <_end+0xfffdadfa>
    3e54:	deadbeef          	jal	t4,fffdf43e <_end+0xfffdadfe>
    3e58:	deadbeef          	jal	t4,fffdf442 <_end+0xfffdae02>
    3e5c:	deadbeef          	jal	t4,fffdf446 <_end+0xfffdae06>
    3e60:	deadbeef          	jal	t4,fffdf44a <_end+0xfffdae0a>
    3e64:	deadbeef          	jal	t4,fffdf44e <_end+0xfffdae0e>
    3e68:	deadbeef          	jal	t4,fffdf452 <_end+0xfffdae12>
    3e6c:	deadbeef          	jal	t4,fffdf456 <_end+0xfffdae16>
    3e70:	deadbeef          	jal	t4,fffdf45a <_end+0xfffdae1a>
    3e74:	deadbeef          	jal	t4,fffdf45e <_end+0xfffdae1e>
    3e78:	deadbeef          	jal	t4,fffdf462 <_end+0xfffdae22>
    3e7c:	deadbeef          	jal	t4,fffdf466 <_end+0xfffdae26>
    3e80:	deadbeef          	jal	t4,fffdf46a <_end+0xfffdae2a>
    3e84:	deadbeef          	jal	t4,fffdf46e <_end+0xfffdae2e>
    3e88:	deadbeef          	jal	t4,fffdf472 <_end+0xfffdae32>
    3e8c:	deadbeef          	jal	t4,fffdf476 <_end+0xfffdae36>
    3e90:	deadbeef          	jal	t4,fffdf47a <_end+0xfffdae3a>
    3e94:	deadbeef          	jal	t4,fffdf47e <_end+0xfffdae3e>
    3e98:	deadbeef          	jal	t4,fffdf482 <_end+0xfffdae42>
    3e9c:	deadbeef          	jal	t4,fffdf486 <_end+0xfffdae46>
    3ea0:	deadbeef          	jal	t4,fffdf48a <_end+0xfffdae4a>
    3ea4:	deadbeef          	jal	t4,fffdf48e <_end+0xfffdae4e>
    3ea8:	deadbeef          	jal	t4,fffdf492 <_end+0xfffdae52>
    3eac:	deadbeef          	jal	t4,fffdf496 <_end+0xfffdae56>
    3eb0:	deadbeef          	jal	t4,fffdf49a <_end+0xfffdae5a>
    3eb4:	deadbeef          	jal	t4,fffdf49e <_end+0xfffdae5e>
    3eb8:	deadbeef          	jal	t4,fffdf4a2 <_end+0xfffdae62>
    3ebc:	deadbeef          	jal	t4,fffdf4a6 <_end+0xfffdae66>
    3ec0:	deadbeef          	jal	t4,fffdf4aa <_end+0xfffdae6a>
    3ec4:	deadbeef          	jal	t4,fffdf4ae <_end+0xfffdae6e>
    3ec8:	deadbeef          	jal	t4,fffdf4b2 <_end+0xfffdae72>
    3ecc:	deadbeef          	jal	t4,fffdf4b6 <_end+0xfffdae76>
    3ed0:	deadbeef          	jal	t4,fffdf4ba <_end+0xfffdae7a>
    3ed4:	deadbeef          	jal	t4,fffdf4be <_end+0xfffdae7e>
    3ed8:	deadbeef          	jal	t4,fffdf4c2 <_end+0xfffdae82>
    3edc:	deadbeef          	jal	t4,fffdf4c6 <_end+0xfffdae86>
    3ee0:	deadbeef          	jal	t4,fffdf4ca <_end+0xfffdae8a>
    3ee4:	deadbeef          	jal	t4,fffdf4ce <_end+0xfffdae8e>
    3ee8:	deadbeef          	jal	t4,fffdf4d2 <_end+0xfffdae92>
    3eec:	deadbeef          	jal	t4,fffdf4d6 <_end+0xfffdae96>
    3ef0:	deadbeef          	jal	t4,fffdf4da <_end+0xfffdae9a>
    3ef4:	deadbeef          	jal	t4,fffdf4de <_end+0xfffdae9e>
    3ef8:	deadbeef          	jal	t4,fffdf4e2 <_end+0xfffdaea2>
    3efc:	deadbeef          	jal	t4,fffdf4e6 <_end+0xfffdaea6>
    3f00:	deadbeef          	jal	t4,fffdf4ea <_end+0xfffdaeaa>
    3f04:	deadbeef          	jal	t4,fffdf4ee <_end+0xfffdaeae>
    3f08:	deadbeef          	jal	t4,fffdf4f2 <_end+0xfffdaeb2>
    3f0c:	deadbeef          	jal	t4,fffdf4f6 <_end+0xfffdaeb6>
    3f10:	deadbeef          	jal	t4,fffdf4fa <_end+0xfffdaeba>
    3f14:	deadbeef          	jal	t4,fffdf4fe <_end+0xfffdaebe>
    3f18:	deadbeef          	jal	t4,fffdf502 <_end+0xfffdaec2>
    3f1c:	deadbeef          	jal	t4,fffdf506 <_end+0xfffdaec6>
    3f20:	deadbeef          	jal	t4,fffdf50a <_end+0xfffdaeca>
    3f24:	deadbeef          	jal	t4,fffdf50e <_end+0xfffdaece>
    3f28:	deadbeef          	jal	t4,fffdf512 <_end+0xfffdaed2>
    3f2c:	deadbeef          	jal	t4,fffdf516 <_end+0xfffdaed6>
    3f30:	deadbeef          	jal	t4,fffdf51a <_end+0xfffdaeda>
    3f34:	deadbeef          	jal	t4,fffdf51e <_end+0xfffdaede>
    3f38:	deadbeef          	jal	t4,fffdf522 <_end+0xfffdaee2>
    3f3c:	deadbeef          	jal	t4,fffdf526 <_end+0xfffdaee6>
    3f40:	deadbeef          	jal	t4,fffdf52a <_end+0xfffdaeea>
    3f44:	deadbeef          	jal	t4,fffdf52e <_end+0xfffdaeee>
    3f48:	deadbeef          	jal	t4,fffdf532 <_end+0xfffdaef2>
    3f4c:	deadbeef          	jal	t4,fffdf536 <_end+0xfffdaef6>
    3f50:	deadbeef          	jal	t4,fffdf53a <_end+0xfffdaefa>
    3f54:	deadbeef          	jal	t4,fffdf53e <_end+0xfffdaefe>
    3f58:	deadbeef          	jal	t4,fffdf542 <_end+0xfffdaf02>
    3f5c:	deadbeef          	jal	t4,fffdf546 <_end+0xfffdaf06>
    3f60:	deadbeef          	jal	t4,fffdf54a <_end+0xfffdaf0a>
    3f64:	deadbeef          	jal	t4,fffdf54e <_end+0xfffdaf0e>
    3f68:	deadbeef          	jal	t4,fffdf552 <_end+0xfffdaf12>
    3f6c:	deadbeef          	jal	t4,fffdf556 <_end+0xfffdaf16>
    3f70:	deadbeef          	jal	t4,fffdf55a <_end+0xfffdaf1a>
    3f74:	deadbeef          	jal	t4,fffdf55e <_end+0xfffdaf1e>
    3f78:	deadbeef          	jal	t4,fffdf562 <_end+0xfffdaf22>
    3f7c:	deadbeef          	jal	t4,fffdf566 <_end+0xfffdaf26>
    3f80:	deadbeef          	jal	t4,fffdf56a <_end+0xfffdaf2a>
    3f84:	deadbeef          	jal	t4,fffdf56e <_end+0xfffdaf2e>
    3f88:	deadbeef          	jal	t4,fffdf572 <_end+0xfffdaf32>
    3f8c:	deadbeef          	jal	t4,fffdf576 <_end+0xfffdaf36>
    3f90:	deadbeef          	jal	t4,fffdf57a <_end+0xfffdaf3a>
    3f94:	deadbeef          	jal	t4,fffdf57e <_end+0xfffdaf3e>
    3f98:	deadbeef          	jal	t4,fffdf582 <_end+0xfffdaf42>
    3f9c:	deadbeef          	jal	t4,fffdf586 <_end+0xfffdaf46>
    3fa0:	deadbeef          	jal	t4,fffdf58a <_end+0xfffdaf4a>
    3fa4:	deadbeef          	jal	t4,fffdf58e <_end+0xfffdaf4e>
    3fa8:	deadbeef          	jal	t4,fffdf592 <_end+0xfffdaf52>
    3fac:	deadbeef          	jal	t4,fffdf596 <_end+0xfffdaf56>
    3fb0:	deadbeef          	jal	t4,fffdf59a <_end+0xfffdaf5a>
    3fb4:	deadbeef          	jal	t4,fffdf59e <_end+0xfffdaf5e>
    3fb8:	deadbeef          	jal	t4,fffdf5a2 <_end+0xfffdaf62>
    3fbc:	deadbeef          	jal	t4,fffdf5a6 <_end+0xfffdaf66>
    3fc0:	deadbeef          	jal	t4,fffdf5aa <_end+0xfffdaf6a>
    3fc4:	deadbeef          	jal	t4,fffdf5ae <_end+0xfffdaf6e>
    3fc8:	deadbeef          	jal	t4,fffdf5b2 <_end+0xfffdaf72>
    3fcc:	deadbeef          	jal	t4,fffdf5b6 <_end+0xfffdaf76>
    3fd0:	deadbeef          	jal	t4,fffdf5ba <_end+0xfffdaf7a>
    3fd4:	deadbeef          	jal	t4,fffdf5be <_end+0xfffdaf7e>
    3fd8:	deadbeef          	jal	t4,fffdf5c2 <_end+0xfffdaf82>
    3fdc:	deadbeef          	jal	t4,fffdf5c6 <_end+0xfffdaf86>
    3fe0:	deadbeef          	jal	t4,fffdf5ca <_end+0xfffdaf8a>
    3fe4:	deadbeef          	jal	t4,fffdf5ce <_end+0xfffdaf8e>
    3fe8:	deadbeef          	jal	t4,fffdf5d2 <_end+0xfffdaf92>
    3fec:	deadbeef          	jal	t4,fffdf5d6 <_end+0xfffdaf96>
    3ff0:	deadbeef          	jal	t4,fffdf5da <_end+0xfffdaf9a>
    3ff4:	deadbeef          	jal	t4,fffdf5de <_end+0xfffdaf9e>
    3ff8:	deadbeef          	jal	t4,fffdf5e2 <_end+0xfffdafa2>
    3ffc:	deadbeef          	jal	t4,fffdf5e6 <_end+0xfffdafa6>
    4000:	deadbeef          	jal	t4,fffdf5ea <_end+0xfffdafaa>
    4004:	deadbeef          	jal	t4,fffdf5ee <_end+0xfffdafae>
    4008:	deadbeef          	jal	t4,fffdf5f2 <_end+0xfffdafb2>
    400c:	deadbeef          	jal	t4,fffdf5f6 <_end+0xfffdafb6>
    4010:	deadbeef          	jal	t4,fffdf5fa <_end+0xfffdafba>
    4014:	deadbeef          	jal	t4,fffdf5fe <_end+0xfffdafbe>
    4018:	deadbeef          	jal	t4,fffdf602 <_end+0xfffdafc2>
    401c:	deadbeef          	jal	t4,fffdf606 <_end+0xfffdafc6>
    4020:	deadbeef          	jal	t4,fffdf60a <_end+0xfffdafca>
    4024:	deadbeef          	jal	t4,fffdf60e <_end+0xfffdafce>
    4028:	deadbeef          	jal	t4,fffdf612 <_end+0xfffdafd2>
    402c:	deadbeef          	jal	t4,fffdf616 <_end+0xfffdafd6>
    4030:	deadbeef          	jal	t4,fffdf61a <_end+0xfffdafda>
    4034:	deadbeef          	jal	t4,fffdf61e <_end+0xfffdafde>
    4038:	deadbeef          	jal	t4,fffdf622 <_end+0xfffdafe2>
    403c:	deadbeef          	jal	t4,fffdf626 <_end+0xfffdafe6>
    4040:	deadbeef          	jal	t4,fffdf62a <_end+0xfffdafea>
    4044:	deadbeef          	jal	t4,fffdf62e <_end+0xfffdafee>
    4048:	deadbeef          	jal	t4,fffdf632 <_end+0xfffdaff2>
    404c:	deadbeef          	jal	t4,fffdf636 <_end+0xfffdaff6>
    4050:	deadbeef          	jal	t4,fffdf63a <_end+0xfffdaffa>
    4054:	deadbeef          	jal	t4,fffdf63e <_end+0xfffdaffe>
    4058:	deadbeef          	jal	t4,fffdf642 <_end+0xfffdb002>
    405c:	deadbeef          	jal	t4,fffdf646 <_end+0xfffdb006>
    4060:	deadbeef          	jal	t4,fffdf64a <_end+0xfffdb00a>
    4064:	deadbeef          	jal	t4,fffdf64e <_end+0xfffdb00e>
    4068:	deadbeef          	jal	t4,fffdf652 <_end+0xfffdb012>
    406c:	deadbeef          	jal	t4,fffdf656 <_end+0xfffdb016>
    4070:	deadbeef          	jal	t4,fffdf65a <_end+0xfffdb01a>
    4074:	deadbeef          	jal	t4,fffdf65e <_end+0xfffdb01e>
    4078:	deadbeef          	jal	t4,fffdf662 <_end+0xfffdb022>
    407c:	deadbeef          	jal	t4,fffdf666 <_end+0xfffdb026>
    4080:	deadbeef          	jal	t4,fffdf66a <_end+0xfffdb02a>
    4084:	deadbeef          	jal	t4,fffdf66e <_end+0xfffdb02e>
    4088:	deadbeef          	jal	t4,fffdf672 <_end+0xfffdb032>
    408c:	deadbeef          	jal	t4,fffdf676 <_end+0xfffdb036>
    4090:	deadbeef          	jal	t4,fffdf67a <_end+0xfffdb03a>
    4094:	deadbeef          	jal	t4,fffdf67e <_end+0xfffdb03e>
    4098:	deadbeef          	jal	t4,fffdf682 <_end+0xfffdb042>
    409c:	deadbeef          	jal	t4,fffdf686 <_end+0xfffdb046>
    40a0:	deadbeef          	jal	t4,fffdf68a <_end+0xfffdb04a>
    40a4:	deadbeef          	jal	t4,fffdf68e <_end+0xfffdb04e>
    40a8:	deadbeef          	jal	t4,fffdf692 <_end+0xfffdb052>
    40ac:	deadbeef          	jal	t4,fffdf696 <_end+0xfffdb056>
    40b0:	deadbeef          	jal	t4,fffdf69a <_end+0xfffdb05a>
    40b4:	deadbeef          	jal	t4,fffdf69e <_end+0xfffdb05e>
    40b8:	deadbeef          	jal	t4,fffdf6a2 <_end+0xfffdb062>
    40bc:	deadbeef          	jal	t4,fffdf6a6 <_end+0xfffdb066>
    40c0:	deadbeef          	jal	t4,fffdf6aa <_end+0xfffdb06a>
    40c4:	deadbeef          	jal	t4,fffdf6ae <_end+0xfffdb06e>
    40c8:	deadbeef          	jal	t4,fffdf6b2 <_end+0xfffdb072>
    40cc:	deadbeef          	jal	t4,fffdf6b6 <_end+0xfffdb076>
    40d0:	deadbeef          	jal	t4,fffdf6ba <_end+0xfffdb07a>
    40d4:	deadbeef          	jal	t4,fffdf6be <_end+0xfffdb07e>
    40d8:	deadbeef          	jal	t4,fffdf6c2 <_end+0xfffdb082>
    40dc:	deadbeef          	jal	t4,fffdf6c6 <_end+0xfffdb086>
    40e0:	deadbeef          	jal	t4,fffdf6ca <_end+0xfffdb08a>
    40e4:	deadbeef          	jal	t4,fffdf6ce <_end+0xfffdb08e>
    40e8:	deadbeef          	jal	t4,fffdf6d2 <_end+0xfffdb092>
    40ec:	deadbeef          	jal	t4,fffdf6d6 <_end+0xfffdb096>
    40f0:	deadbeef          	jal	t4,fffdf6da <_end+0xfffdb09a>
    40f4:	deadbeef          	jal	t4,fffdf6de <_end+0xfffdb09e>
    40f8:	deadbeef          	jal	t4,fffdf6e2 <_end+0xfffdb0a2>
    40fc:	deadbeef          	jal	t4,fffdf6e6 <_end+0xfffdb0a6>
    4100:	deadbeef          	jal	t4,fffdf6ea <_end+0xfffdb0aa>
    4104:	deadbeef          	jal	t4,fffdf6ee <_end+0xfffdb0ae>
    4108:	deadbeef          	jal	t4,fffdf6f2 <_end+0xfffdb0b2>
    410c:	deadbeef          	jal	t4,fffdf6f6 <_end+0xfffdb0b6>
    4110:	deadbeef          	jal	t4,fffdf6fa <_end+0xfffdb0ba>
    4114:	deadbeef          	jal	t4,fffdf6fe <_end+0xfffdb0be>
    4118:	deadbeef          	jal	t4,fffdf702 <_end+0xfffdb0c2>
    411c:	deadbeef          	jal	t4,fffdf706 <_end+0xfffdb0c6>
    4120:	deadbeef          	jal	t4,fffdf70a <_end+0xfffdb0ca>
    4124:	deadbeef          	jal	t4,fffdf70e <_end+0xfffdb0ce>
    4128:	deadbeef          	jal	t4,fffdf712 <_end+0xfffdb0d2>
    412c:	deadbeef          	jal	t4,fffdf716 <_end+0xfffdb0d6>
    4130:	deadbeef          	jal	t4,fffdf71a <_end+0xfffdb0da>
    4134:	deadbeef          	jal	t4,fffdf71e <_end+0xfffdb0de>
    4138:	deadbeef          	jal	t4,fffdf722 <_end+0xfffdb0e2>
    413c:	deadbeef          	jal	t4,fffdf726 <_end+0xfffdb0e6>
    4140:	deadbeef          	jal	t4,fffdf72a <_end+0xfffdb0ea>
    4144:	deadbeef          	jal	t4,fffdf72e <_end+0xfffdb0ee>
    4148:	deadbeef          	jal	t4,fffdf732 <_end+0xfffdb0f2>
    414c:	deadbeef          	jal	t4,fffdf736 <_end+0xfffdb0f6>
    4150:	deadbeef          	jal	t4,fffdf73a <_end+0xfffdb0fa>
    4154:	deadbeef          	jal	t4,fffdf73e <_end+0xfffdb0fe>
    4158:	deadbeef          	jal	t4,fffdf742 <_end+0xfffdb102>
    415c:	deadbeef          	jal	t4,fffdf746 <_end+0xfffdb106>
    4160:	deadbeef          	jal	t4,fffdf74a <_end+0xfffdb10a>
    4164:	deadbeef          	jal	t4,fffdf74e <_end+0xfffdb10e>
    4168:	deadbeef          	jal	t4,fffdf752 <_end+0xfffdb112>
    416c:	deadbeef          	jal	t4,fffdf756 <_end+0xfffdb116>
    4170:	deadbeef          	jal	t4,fffdf75a <_end+0xfffdb11a>
    4174:	deadbeef          	jal	t4,fffdf75e <_end+0xfffdb11e>
    4178:	deadbeef          	jal	t4,fffdf762 <_end+0xfffdb122>
    417c:	deadbeef          	jal	t4,fffdf766 <_end+0xfffdb126>
    4180:	deadbeef          	jal	t4,fffdf76a <_end+0xfffdb12a>
    4184:	deadbeef          	jal	t4,fffdf76e <_end+0xfffdb12e>
    4188:	deadbeef          	jal	t4,fffdf772 <_end+0xfffdb132>
    418c:	deadbeef          	jal	t4,fffdf776 <_end+0xfffdb136>
    4190:	deadbeef          	jal	t4,fffdf77a <_end+0xfffdb13a>
    4194:	deadbeef          	jal	t4,fffdf77e <_end+0xfffdb13e>
    4198:	deadbeef          	jal	t4,fffdf782 <_end+0xfffdb142>
    419c:	deadbeef          	jal	t4,fffdf786 <_end+0xfffdb146>
    41a0:	deadbeef          	jal	t4,fffdf78a <_end+0xfffdb14a>
    41a4:	deadbeef          	jal	t4,fffdf78e <_end+0xfffdb14e>
    41a8:	deadbeef          	jal	t4,fffdf792 <_end+0xfffdb152>
    41ac:	deadbeef          	jal	t4,fffdf796 <_end+0xfffdb156>
    41b0:	deadbeef          	jal	t4,fffdf79a <_end+0xfffdb15a>
    41b4:	deadbeef          	jal	t4,fffdf79e <_end+0xfffdb15e>
    41b8:	deadbeef          	jal	t4,fffdf7a2 <_end+0xfffdb162>
    41bc:	deadbeef          	jal	t4,fffdf7a6 <_end+0xfffdb166>
    41c0:	deadbeef          	jal	t4,fffdf7aa <_end+0xfffdb16a>
    41c4:	deadbeef          	jal	t4,fffdf7ae <_end+0xfffdb16e>
    41c8:	deadbeef          	jal	t4,fffdf7b2 <_end+0xfffdb172>
    41cc:	deadbeef          	jal	t4,fffdf7b6 <_end+0xfffdb176>
    41d0:	deadbeef          	jal	t4,fffdf7ba <_end+0xfffdb17a>
    41d4:	deadbeef          	jal	t4,fffdf7be <_end+0xfffdb17e>
    41d8:	deadbeef          	jal	t4,fffdf7c2 <_end+0xfffdb182>
    41dc:	deadbeef          	jal	t4,fffdf7c6 <_end+0xfffdb186>
    41e0:	deadbeef          	jal	t4,fffdf7ca <_end+0xfffdb18a>
    41e4:	deadbeef          	jal	t4,fffdf7ce <_end+0xfffdb18e>
    41e8:	deadbeef          	jal	t4,fffdf7d2 <_end+0xfffdb192>
    41ec:	deadbeef          	jal	t4,fffdf7d6 <_end+0xfffdb196>
    41f0:	deadbeef          	jal	t4,fffdf7da <_end+0xfffdb19a>
    41f4:	deadbeef          	jal	t4,fffdf7de <_end+0xfffdb19e>
    41f8:	deadbeef          	jal	t4,fffdf7e2 <_end+0xfffdb1a2>
    41fc:	deadbeef          	jal	t4,fffdf7e6 <_end+0xfffdb1a6>
    4200:	deadbeef          	jal	t4,fffdf7ea <_end+0xfffdb1aa>
    4204:	deadbeef          	jal	t4,fffdf7ee <_end+0xfffdb1ae>
    4208:	deadbeef          	jal	t4,fffdf7f2 <_end+0xfffdb1b2>
    420c:	deadbeef          	jal	t4,fffdf7f6 <_end+0xfffdb1b6>
    4210:	deadbeef          	jal	t4,fffdf7fa <_end+0xfffdb1ba>
    4214:	deadbeef          	jal	t4,fffdf7fe <_end+0xfffdb1be>
    4218:	deadbeef          	jal	t4,fffdf802 <_end+0xfffdb1c2>
    421c:	deadbeef          	jal	t4,fffdf806 <_end+0xfffdb1c6>
    4220:	deadbeef          	jal	t4,fffdf80a <_end+0xfffdb1ca>
    4224:	deadbeef          	jal	t4,fffdf80e <_end+0xfffdb1ce>
    4228:	deadbeef          	jal	t4,fffdf812 <_end+0xfffdb1d2>
    422c:	deadbeef          	jal	t4,fffdf816 <_end+0xfffdb1d6>
    4230:	deadbeef          	jal	t4,fffdf81a <_end+0xfffdb1da>
    4234:	deadbeef          	jal	t4,fffdf81e <_end+0xfffdb1de>
    4238:	deadbeef          	jal	t4,fffdf822 <_end+0xfffdb1e2>
    423c:	deadbeef          	jal	t4,fffdf826 <_end+0xfffdb1e6>
    4240:	deadbeef          	jal	t4,fffdf82a <_end+0xfffdb1ea>
    4244:	deadbeef          	jal	t4,fffdf82e <_end+0xfffdb1ee>
    4248:	deadbeef          	jal	t4,fffdf832 <_end+0xfffdb1f2>
    424c:	deadbeef          	jal	t4,fffdf836 <_end+0xfffdb1f6>
    4250:	deadbeef          	jal	t4,fffdf83a <_end+0xfffdb1fa>
    4254:	deadbeef          	jal	t4,fffdf83e <_end+0xfffdb1fe>
    4258:	deadbeef          	jal	t4,fffdf842 <_end+0xfffdb202>
    425c:	deadbeef          	jal	t4,fffdf846 <_end+0xfffdb206>
    4260:	deadbeef          	jal	t4,fffdf84a <_end+0xfffdb20a>
    4264:	deadbeef          	jal	t4,fffdf84e <_end+0xfffdb20e>
    4268:	deadbeef          	jal	t4,fffdf852 <_end+0xfffdb212>
    426c:	deadbeef          	jal	t4,fffdf856 <_end+0xfffdb216>
    4270:	deadbeef          	jal	t4,fffdf85a <_end+0xfffdb21a>
    4274:	deadbeef          	jal	t4,fffdf85e <_end+0xfffdb21e>
    4278:	deadbeef          	jal	t4,fffdf862 <_end+0xfffdb222>
    427c:	deadbeef          	jal	t4,fffdf866 <_end+0xfffdb226>
    4280:	deadbeef          	jal	t4,fffdf86a <_end+0xfffdb22a>
    4284:	deadbeef          	jal	t4,fffdf86e <_end+0xfffdb22e>
    4288:	deadbeef          	jal	t4,fffdf872 <_end+0xfffdb232>
    428c:	deadbeef          	jal	t4,fffdf876 <_end+0xfffdb236>
    4290:	deadbeef          	jal	t4,fffdf87a <_end+0xfffdb23a>
    4294:	deadbeef          	jal	t4,fffdf87e <_end+0xfffdb23e>
    4298:	deadbeef          	jal	t4,fffdf882 <_end+0xfffdb242>
    429c:	deadbeef          	jal	t4,fffdf886 <_end+0xfffdb246>
    42a0:	deadbeef          	jal	t4,fffdf88a <_end+0xfffdb24a>
    42a4:	deadbeef          	jal	t4,fffdf88e <_end+0xfffdb24e>
    42a8:	deadbeef          	jal	t4,fffdf892 <_end+0xfffdb252>
    42ac:	deadbeef          	jal	t4,fffdf896 <_end+0xfffdb256>
    42b0:	deadbeef          	jal	t4,fffdf89a <_end+0xfffdb25a>
    42b4:	deadbeef          	jal	t4,fffdf89e <_end+0xfffdb25e>
    42b8:	deadbeef          	jal	t4,fffdf8a2 <_end+0xfffdb262>
    42bc:	deadbeef          	jal	t4,fffdf8a6 <_end+0xfffdb266>
    42c0:	deadbeef          	jal	t4,fffdf8aa <_end+0xfffdb26a>
    42c4:	deadbeef          	jal	t4,fffdf8ae <_end+0xfffdb26e>
    42c8:	deadbeef          	jal	t4,fffdf8b2 <_end+0xfffdb272>
    42cc:	deadbeef          	jal	t4,fffdf8b6 <_end+0xfffdb276>
    42d0:	deadbeef          	jal	t4,fffdf8ba <_end+0xfffdb27a>
    42d4:	deadbeef          	jal	t4,fffdf8be <_end+0xfffdb27e>
    42d8:	deadbeef          	jal	t4,fffdf8c2 <_end+0xfffdb282>
    42dc:	deadbeef          	jal	t4,fffdf8c6 <_end+0xfffdb286>
    42e0:	deadbeef          	jal	t4,fffdf8ca <_end+0xfffdb28a>
    42e4:	deadbeef          	jal	t4,fffdf8ce <_end+0xfffdb28e>
    42e8:	deadbeef          	jal	t4,fffdf8d2 <_end+0xfffdb292>
    42ec:	deadbeef          	jal	t4,fffdf8d6 <_end+0xfffdb296>
    42f0:	deadbeef          	jal	t4,fffdf8da <_end+0xfffdb29a>
    42f4:	deadbeef          	jal	t4,fffdf8de <_end+0xfffdb29e>
    42f8:	deadbeef          	jal	t4,fffdf8e2 <_end+0xfffdb2a2>
    42fc:	deadbeef          	jal	t4,fffdf8e6 <_end+0xfffdb2a6>
    4300:	deadbeef          	jal	t4,fffdf8ea <_end+0xfffdb2aa>
    4304:	deadbeef          	jal	t4,fffdf8ee <_end+0xfffdb2ae>
    4308:	deadbeef          	jal	t4,fffdf8f2 <_end+0xfffdb2b2>
    430c:	deadbeef          	jal	t4,fffdf8f6 <_end+0xfffdb2b6>
    4310:	deadbeef          	jal	t4,fffdf8fa <_end+0xfffdb2ba>
    4314:	deadbeef          	jal	t4,fffdf8fe <_end+0xfffdb2be>
    4318:	deadbeef          	jal	t4,fffdf902 <_end+0xfffdb2c2>
    431c:	deadbeef          	jal	t4,fffdf906 <_end+0xfffdb2c6>
    4320:	deadbeef          	jal	t4,fffdf90a <_end+0xfffdb2ca>
    4324:	deadbeef          	jal	t4,fffdf90e <_end+0xfffdb2ce>
    4328:	deadbeef          	jal	t4,fffdf912 <_end+0xfffdb2d2>
    432c:	deadbeef          	jal	t4,fffdf916 <_end+0xfffdb2d6>
    4330:	deadbeef          	jal	t4,fffdf91a <_end+0xfffdb2da>
    4334:	deadbeef          	jal	t4,fffdf91e <_end+0xfffdb2de>
    4338:	deadbeef          	jal	t4,fffdf922 <_end+0xfffdb2e2>
    433c:	deadbeef          	jal	t4,fffdf926 <_end+0xfffdb2e6>
    4340:	deadbeef          	jal	t4,fffdf92a <_end+0xfffdb2ea>
    4344:	deadbeef          	jal	t4,fffdf92e <_end+0xfffdb2ee>
    4348:	deadbeef          	jal	t4,fffdf932 <_end+0xfffdb2f2>
    434c:	deadbeef          	jal	t4,fffdf936 <_end+0xfffdb2f6>
    4350:	deadbeef          	jal	t4,fffdf93a <_end+0xfffdb2fa>
    4354:	deadbeef          	jal	t4,fffdf93e <_end+0xfffdb2fe>
    4358:	deadbeef          	jal	t4,fffdf942 <_end+0xfffdb302>
    435c:	deadbeef          	jal	t4,fffdf946 <_end+0xfffdb306>
    4360:	deadbeef          	jal	t4,fffdf94a <_end+0xfffdb30a>
    4364:	deadbeef          	jal	t4,fffdf94e <_end+0xfffdb30e>
    4368:	deadbeef          	jal	t4,fffdf952 <_end+0xfffdb312>
    436c:	deadbeef          	jal	t4,fffdf956 <_end+0xfffdb316>
    4370:	deadbeef          	jal	t4,fffdf95a <_end+0xfffdb31a>
    4374:	deadbeef          	jal	t4,fffdf95e <_end+0xfffdb31e>
    4378:	deadbeef          	jal	t4,fffdf962 <_end+0xfffdb322>
    437c:	deadbeef          	jal	t4,fffdf966 <_end+0xfffdb326>
    4380:	deadbeef          	jal	t4,fffdf96a <_end+0xfffdb32a>
    4384:	deadbeef          	jal	t4,fffdf96e <_end+0xfffdb32e>
    4388:	deadbeef          	jal	t4,fffdf972 <_end+0xfffdb332>
    438c:	deadbeef          	jal	t4,fffdf976 <_end+0xfffdb336>
    4390:	deadbeef          	jal	t4,fffdf97a <_end+0xfffdb33a>
    4394:	deadbeef          	jal	t4,fffdf97e <_end+0xfffdb33e>
    4398:	deadbeef          	jal	t4,fffdf982 <_end+0xfffdb342>
    439c:	deadbeef          	jal	t4,fffdf986 <_end+0xfffdb346>
    43a0:	deadbeef          	jal	t4,fffdf98a <_end+0xfffdb34a>
    43a4:	deadbeef          	jal	t4,fffdf98e <_end+0xfffdb34e>
    43a8:	deadbeef          	jal	t4,fffdf992 <_end+0xfffdb352>
    43ac:	deadbeef          	jal	t4,fffdf996 <_end+0xfffdb356>
    43b0:	deadbeef          	jal	t4,fffdf99a <_end+0xfffdb35a>
    43b4:	deadbeef          	jal	t4,fffdf99e <_end+0xfffdb35e>
    43b8:	deadbeef          	jal	t4,fffdf9a2 <_end+0xfffdb362>
    43bc:	deadbeef          	jal	t4,fffdf9a6 <_end+0xfffdb366>
    43c0:	deadbeef          	jal	t4,fffdf9aa <_end+0xfffdb36a>
    43c4:	deadbeef          	jal	t4,fffdf9ae <_end+0xfffdb36e>
    43c8:	deadbeef          	jal	t4,fffdf9b2 <_end+0xfffdb372>
    43cc:	deadbeef          	jal	t4,fffdf9b6 <_end+0xfffdb376>
    43d0:	deadbeef          	jal	t4,fffdf9ba <_end+0xfffdb37a>
    43d4:	deadbeef          	jal	t4,fffdf9be <_end+0xfffdb37e>
    43d8:	deadbeef          	jal	t4,fffdf9c2 <_end+0xfffdb382>
    43dc:	deadbeef          	jal	t4,fffdf9c6 <_end+0xfffdb386>
    43e0:	deadbeef          	jal	t4,fffdf9ca <_end+0xfffdb38a>
    43e4:	deadbeef          	jal	t4,fffdf9ce <_end+0xfffdb38e>
    43e8:	deadbeef          	jal	t4,fffdf9d2 <_end+0xfffdb392>
    43ec:	deadbeef          	jal	t4,fffdf9d6 <_end+0xfffdb396>
    43f0:	deadbeef          	jal	t4,fffdf9da <_end+0xfffdb39a>
    43f4:	deadbeef          	jal	t4,fffdf9de <_end+0xfffdb39e>
    43f8:	deadbeef          	jal	t4,fffdf9e2 <_end+0xfffdb3a2>
    43fc:	deadbeef          	jal	t4,fffdf9e6 <_end+0xfffdb3a6>
    4400:	deadbeef          	jal	t4,fffdf9ea <_end+0xfffdb3aa>
    4404:	deadbeef          	jal	t4,fffdf9ee <_end+0xfffdb3ae>
    4408:	deadbeef          	jal	t4,fffdf9f2 <_end+0xfffdb3b2>
    440c:	deadbeef          	jal	t4,fffdf9f6 <_end+0xfffdb3b6>
    4410:	deadbeef          	jal	t4,fffdf9fa <_end+0xfffdb3ba>
    4414:	deadbeef          	jal	t4,fffdf9fe <_end+0xfffdb3be>
    4418:	deadbeef          	jal	t4,fffdfa02 <_end+0xfffdb3c2>
    441c:	deadbeef          	jal	t4,fffdfa06 <_end+0xfffdb3c6>
    4420:	deadbeef          	jal	t4,fffdfa0a <_end+0xfffdb3ca>
    4424:	deadbeef          	jal	t4,fffdfa0e <_end+0xfffdb3ce>
    4428:	deadbeef          	jal	t4,fffdfa12 <_end+0xfffdb3d2>
    442c:	deadbeef          	jal	t4,fffdfa16 <_end+0xfffdb3d6>
    4430:	deadbeef          	jal	t4,fffdfa1a <_end+0xfffdb3da>
    4434:	deadbeef          	jal	t4,fffdfa1e <_end+0xfffdb3de>
    4438:	deadbeef          	jal	t4,fffdfa22 <_end+0xfffdb3e2>
    443c:	deadbeef          	jal	t4,fffdfa26 <_end+0xfffdb3e6>
    4440:	deadbeef          	jal	t4,fffdfa2a <_end+0xfffdb3ea>
    4444:	deadbeef          	jal	t4,fffdfa2e <_end+0xfffdb3ee>
    4448:	deadbeef          	jal	t4,fffdfa32 <_end+0xfffdb3f2>
    444c:	deadbeef          	jal	t4,fffdfa36 <_end+0xfffdb3f6>
    4450:	deadbeef          	jal	t4,fffdfa3a <_end+0xfffdb3fa>
    4454:	deadbeef          	jal	t4,fffdfa3e <_end+0xfffdb3fe>
    4458:	deadbeef          	jal	t4,fffdfa42 <_end+0xfffdb402>
    445c:	deadbeef          	jal	t4,fffdfa46 <_end+0xfffdb406>
    4460:	deadbeef          	jal	t4,fffdfa4a <_end+0xfffdb40a>
    4464:	deadbeef          	jal	t4,fffdfa4e <_end+0xfffdb40e>
    4468:	deadbeef          	jal	t4,fffdfa52 <_end+0xfffdb412>
    446c:	deadbeef          	jal	t4,fffdfa56 <_end+0xfffdb416>
    4470:	deadbeef          	jal	t4,fffdfa5a <_end+0xfffdb41a>
    4474:	deadbeef          	jal	t4,fffdfa5e <_end+0xfffdb41e>
    4478:	deadbeef          	jal	t4,fffdfa62 <_end+0xfffdb422>
    447c:	deadbeef          	jal	t4,fffdfa66 <_end+0xfffdb426>
    4480:	deadbeef          	jal	t4,fffdfa6a <_end+0xfffdb42a>
    4484:	deadbeef          	jal	t4,fffdfa6e <_end+0xfffdb42e>
    4488:	deadbeef          	jal	t4,fffdfa72 <_end+0xfffdb432>
    448c:	deadbeef          	jal	t4,fffdfa76 <_end+0xfffdb436>
    4490:	deadbeef          	jal	t4,fffdfa7a <_end+0xfffdb43a>
    4494:	deadbeef          	jal	t4,fffdfa7e <_end+0xfffdb43e>
    4498:	deadbeef          	jal	t4,fffdfa82 <_end+0xfffdb442>
    449c:	deadbeef          	jal	t4,fffdfa86 <_end+0xfffdb446>
    44a0:	deadbeef          	jal	t4,fffdfa8a <_end+0xfffdb44a>
    44a4:	deadbeef          	jal	t4,fffdfa8e <_end+0xfffdb44e>
    44a8:	deadbeef          	jal	t4,fffdfa92 <_end+0xfffdb452>
    44ac:	deadbeef          	jal	t4,fffdfa96 <_end+0xfffdb456>
    44b0:	deadbeef          	jal	t4,fffdfa9a <_end+0xfffdb45a>
    44b4:	deadbeef          	jal	t4,fffdfa9e <_end+0xfffdb45e>
    44b8:	deadbeef          	jal	t4,fffdfaa2 <_end+0xfffdb462>
    44bc:	deadbeef          	jal	t4,fffdfaa6 <_end+0xfffdb466>
    44c0:	deadbeef          	jal	t4,fffdfaaa <_end+0xfffdb46a>
    44c4:	deadbeef          	jal	t4,fffdfaae <_end+0xfffdb46e>
    44c8:	deadbeef          	jal	t4,fffdfab2 <_end+0xfffdb472>
    44cc:	deadbeef          	jal	t4,fffdfab6 <_end+0xfffdb476>
    44d0:	deadbeef          	jal	t4,fffdfaba <_end+0xfffdb47a>
    44d4:	deadbeef          	jal	t4,fffdfabe <_end+0xfffdb47e>
    44d8:	deadbeef          	jal	t4,fffdfac2 <_end+0xfffdb482>
    44dc:	deadbeef          	jal	t4,fffdfac6 <_end+0xfffdb486>
    44e0:	deadbeef          	jal	t4,fffdfaca <_end+0xfffdb48a>
    44e4:	deadbeef          	jal	t4,fffdface <_end+0xfffdb48e>
    44e8:	deadbeef          	jal	t4,fffdfad2 <_end+0xfffdb492>
    44ec:	deadbeef          	jal	t4,fffdfad6 <_end+0xfffdb496>
    44f0:	deadbeef          	jal	t4,fffdfada <_end+0xfffdb49a>
    44f4:	deadbeef          	jal	t4,fffdfade <_end+0xfffdb49e>
    44f8:	deadbeef          	jal	t4,fffdfae2 <_end+0xfffdb4a2>
    44fc:	deadbeef          	jal	t4,fffdfae6 <_end+0xfffdb4a6>
    4500:	deadbeef          	jal	t4,fffdfaea <_end+0xfffdb4aa>
    4504:	deadbeef          	jal	t4,fffdfaee <_end+0xfffdb4ae>
    4508:	deadbeef          	jal	t4,fffdfaf2 <_end+0xfffdb4b2>
    450c:	deadbeef          	jal	t4,fffdfaf6 <_end+0xfffdb4b6>
    4510:	deadbeef          	jal	t4,fffdfafa <_end+0xfffdb4ba>
    4514:	deadbeef          	jal	t4,fffdfafe <_end+0xfffdb4be>
    4518:	deadbeef          	jal	t4,fffdfb02 <_end+0xfffdb4c2>
    451c:	deadbeef          	jal	t4,fffdfb06 <_end+0xfffdb4c6>
    4520:	deadbeef          	jal	t4,fffdfb0a <_end+0xfffdb4ca>
    4524:	deadbeef          	jal	t4,fffdfb0e <_end+0xfffdb4ce>
    4528:	deadbeef          	jal	t4,fffdfb12 <_end+0xfffdb4d2>
    452c:	deadbeef          	jal	t4,fffdfb16 <_end+0xfffdb4d6>
    4530:	deadbeef          	jal	t4,fffdfb1a <_end+0xfffdb4da>
    4534:	deadbeef          	jal	t4,fffdfb1e <_end+0xfffdb4de>
    4538:	deadbeef          	jal	t4,fffdfb22 <_end+0xfffdb4e2>
    453c:	deadbeef          	jal	t4,fffdfb26 <_end+0xfffdb4e6>
    4540:	deadbeef          	jal	t4,fffdfb2a <_end+0xfffdb4ea>
    4544:	deadbeef          	jal	t4,fffdfb2e <_end+0xfffdb4ee>
    4548:	deadbeef          	jal	t4,fffdfb32 <_end+0xfffdb4f2>
    454c:	deadbeef          	jal	t4,fffdfb36 <_end+0xfffdb4f6>

00004550 <signature_x15_2>:
    4550:	deadbeef          	jal	t4,fffdfb3a <_end+0xfffdb4fa>
    4554:	deadbeef          	jal	t4,fffdfb3e <_end+0xfffdb4fe>
    4558:	deadbeef          	jal	t4,fffdfb42 <_end+0xfffdb502>
    455c:	deadbeef          	jal	t4,fffdfb46 <_end+0xfffdb506>
    4560:	deadbeef          	jal	t4,fffdfb4a <_end+0xfffdb50a>
    4564:	deadbeef          	jal	t4,fffdfb4e <_end+0xfffdb50e>
    4568:	deadbeef          	jal	t4,fffdfb52 <_end+0xfffdb512>
    456c:	deadbeef          	jal	t4,fffdfb56 <_end+0xfffdb516>
    4570:	deadbeef          	jal	t4,fffdfb5a <_end+0xfffdb51a>
    4574:	deadbeef          	jal	t4,fffdfb5e <_end+0xfffdb51e>
    4578:	deadbeef          	jal	t4,fffdfb62 <_end+0xfffdb522>
    457c:	deadbeef          	jal	t4,fffdfb66 <_end+0xfffdb526>
    4580:	deadbeef          	jal	t4,fffdfb6a <_end+0xfffdb52a>
    4584:	deadbeef          	jal	t4,fffdfb6e <_end+0xfffdb52e>
    4588:	deadbeef          	jal	t4,fffdfb72 <_end+0xfffdb532>
    458c:	deadbeef          	jal	t4,fffdfb76 <_end+0xfffdb536>
    4590:	deadbeef          	jal	t4,fffdfb7a <_end+0xfffdb53a>
    4594:	deadbeef          	jal	t4,fffdfb7e <_end+0xfffdb53e>
    4598:	deadbeef          	jal	t4,fffdfb82 <_end+0xfffdb542>
    459c:	deadbeef          	jal	t4,fffdfb86 <_end+0xfffdb546>
    45a0:	deadbeef          	jal	t4,fffdfb8a <_end+0xfffdb54a>
    45a4:	deadbeef          	jal	t4,fffdfb8e <_end+0xfffdb54e>
    45a8:	deadbeef          	jal	t4,fffdfb92 <_end+0xfffdb552>
    45ac:	deadbeef          	jal	t4,fffdfb96 <_end+0xfffdb556>
    45b0:	deadbeef          	jal	t4,fffdfb9a <_end+0xfffdb55a>
    45b4:	deadbeef          	jal	t4,fffdfb9e <_end+0xfffdb55e>
    45b8:	deadbeef          	jal	t4,fffdfba2 <_end+0xfffdb562>
    45bc:	deadbeef          	jal	t4,fffdfba6 <_end+0xfffdb566>
    45c0:	deadbeef          	jal	t4,fffdfbaa <_end+0xfffdb56a>
    45c4:	deadbeef          	jal	t4,fffdfbae <_end+0xfffdb56e>
    45c8:	deadbeef          	jal	t4,fffdfbb2 <_end+0xfffdb572>
    45cc:	deadbeef          	jal	t4,fffdfbb6 <_end+0xfffdb576>
    45d0:	deadbeef          	jal	t4,fffdfbba <_end+0xfffdb57a>
    45d4:	deadbeef          	jal	t4,fffdfbbe <_end+0xfffdb57e>
    45d8:	deadbeef          	jal	t4,fffdfbc2 <_end+0xfffdb582>
    45dc:	deadbeef          	jal	t4,fffdfbc6 <_end+0xfffdb586>
    45e0:	deadbeef          	jal	t4,fffdfbca <_end+0xfffdb58a>
    45e4:	deadbeef          	jal	t4,fffdfbce <_end+0xfffdb58e>
    45e8:	deadbeef          	jal	t4,fffdfbd2 <_end+0xfffdb592>
    45ec:	deadbeef          	jal	t4,fffdfbd6 <_end+0xfffdb596>
    45f0:	deadbeef          	jal	t4,fffdfbda <_end+0xfffdb59a>
    45f4:	deadbeef          	jal	t4,fffdfbde <_end+0xfffdb59e>
    45f8:	deadbeef          	jal	t4,fffdfbe2 <_end+0xfffdb5a2>
    45fc:	deadbeef          	jal	t4,fffdfbe6 <_end+0xfffdb5a6>
    4600:	deadbeef          	jal	t4,fffdfbea <_end+0xfffdb5aa>
    4604:	deadbeef          	jal	t4,fffdfbee <_end+0xfffdb5ae>
    4608:	deadbeef          	jal	t4,fffdfbf2 <_end+0xfffdb5b2>
    460c:	deadbeef          	jal	t4,fffdfbf6 <_end+0xfffdb5b6>
    4610:	deadbeef          	jal	t4,fffdfbfa <_end+0xfffdb5ba>
    4614:	deadbeef          	jal	t4,fffdfbfe <_end+0xfffdb5be>
    4618:	deadbeef          	jal	t4,fffdfc02 <_end+0xfffdb5c2>
    461c:	deadbeef          	jal	t4,fffdfc06 <_end+0xfffdb5c6>
    4620:	deadbeef          	jal	t4,fffdfc0a <_end+0xfffdb5ca>
    4624:	deadbeef          	jal	t4,fffdfc0e <_end+0xfffdb5ce>
    4628:	deadbeef          	jal	t4,fffdfc12 <_end+0xfffdb5d2>
    462c:	deadbeef          	jal	t4,fffdfc16 <_end+0xfffdb5d6>
    4630:	deadbeef          	jal	t4,fffdfc1a <_end+0xfffdb5da>
    4634:	deadbeef          	jal	t4,fffdfc1e <_end+0xfffdb5de>
    4638:	deadbeef          	jal	t4,fffdfc22 <_end+0xfffdb5e2>
    463c:	deadbeef          	jal	t4,fffdfc26 <_end+0xfffdb5e6>

Desensamblado de la sección .riscv.attributes:

00000000 <.riscv.attributes>:
   0:	2241                	.2byte	0x2241
   2:	0000                	.2byte	0x0
   4:	7200                	.2byte	0x7200
   6:	7369                	.2byte	0x7369
   8:	01007663          	bgeu	zero,a6,14 <rvtest_entry_point+0x14>
   c:	0018                	.2byte	0x18
   e:	0000                	.2byte	0x0
  10:	7205                	.2byte	0x7205
  12:	3376                	.2byte	0x3376
  14:	6932                	.2byte	0x6932
  16:	7032                	.2byte	0x7032
  18:	5f30                	.2byte	0x5f30
  1a:	3266                	.2byte	0x3266
  1c:	3070                	.2byte	0x3070
  1e:	0800                	.2byte	0x800
  20:	0a01                	.2byte	0xa01
  22:	0b              	Address 0x22 is out of bounds.

