
/home/alejandro/Escritorio/test_riscv2.5/riscv-compliance/work/rv32i_m/F/fnmadd_b6-01.elf:     formato del fichero elf32-littleriscv


Desensamblado de la sección .text.init:

00000000 <rvtest_entry_point>:
       0:	feedc0b7          	lui	ra,0xfeedc
       4:	ead08093          	add	ra,ra,-339 # feedbead <_end+0xfeed92fd>
       8:	ff76e137          	lui	sp,0xff76e
       c:	f5610113          	add	sp,sp,-170 # ff76df56 <_end+0xff76b3a6>
      10:	7fbb71b7          	lui	gp,0x7fbb7
      14:	fab18193          	add	gp,gp,-85 # 7fbb6fab <_end+0x7fbb43fb>
      18:	bfddb237          	lui	tp,0xbfddb
      1c:	7d520213          	add	tp,tp,2005 # bfddb7d5 <_end+0xbfdd8c25>
      20:	00000297          	auipc	t0,0x0
      24:	0d828293          	add	t0,t0,216 # f8 <rvtest_code_begin>
      28:	00002317          	auipc	t1,0x2
      2c:	fd830313          	add	t1,t1,-40 # 2000 <rvtest_data_begin>
      30:	b7fbb3b7          	lui	t2,0xb7fbb
      34:	6fa38393          	add	t2,t2,1786 # b7fbb6fa <_end+0xb7fb8b4a>
      38:	5bfde437          	lui	s0,0x5bfde
      3c:	b7d40413          	add	s0,s0,-1155 # 5bfddb7d <_end+0x5bfdafcd>
      40:	adfef4b7          	lui	s1,0xadfef
      44:	dbe48493          	add	s1,s1,-578 # adfeedbe <_end+0xadfec20e>
      48:	56ff7537          	lui	a0,0x56ff7
      4c:	6df50513          	add	a0,a0,1759 # 56ff76df <_end+0x56ff4b2f>
      50:	ab7fc5b7          	lui	a1,0xab7fc
      54:	b6f58593          	add	a1,a1,-1169 # ab7fbb6f <_end+0xab7f8fbf>
      58:	d5bfe637          	lui	a2,0xd5bfe
      5c:	db760613          	add	a2,a2,-585 # d5bfddb7 <_end+0xd5bfb207>
      60:	eadff6b7          	lui	a3,0xeadff
      64:	edb68693          	add	a3,a3,-293 # eadfeedb <_end+0xeadfc32b>
      68:	f56ff737          	lui	a4,0xf56ff
      6c:	76d70713          	add	a4,a4,1901 # f56ff76d <_end+0xf56fcbbd>
      70:	fab807b7          	lui	a5,0xfab80
      74:	bb678793          	add	a5,a5,-1098 # fab7fbb6 <_end+0xfab7d006>
      78:	7d5c0837          	lui	a6,0x7d5c0
      7c:	ddb80813          	add	a6,a6,-549 # 7d5bfddb <_end+0x7d5bd22b>
      80:	beae08b7          	lui	a7,0xbeae0
      84:	eed88893          	add	a7,a7,-275 # beadfeed <_end+0xbeadd33d>
      88:	df570937          	lui	s2,0xdf570
      8c:	f7690913          	add	s2,s2,-138 # df56ff76 <_end+0xdf56d3c6>
      90:	6fab89b7          	lui	s3,0x6fab8
      94:	fbb98993          	add	s3,s3,-69 # 6fab7fbb <_end+0x6fab540b>
      98:	b7d5ca37          	lui	s4,0xb7d5c
      9c:	fdda0a13          	add	s4,s4,-35 # b7d5bfdd <_end+0xb7d5942d>
      a0:	dbeaeab7          	lui	s5,0xdbeae
      a4:	feea8a93          	add	s5,s5,-18 # dbeadfee <_end+0xdbeab43e>
      a8:	6df57b37          	lui	s6,0x6df57
      ac:	ff7b0b13          	add	s6,s6,-9 # 6df56ff7 <_end+0x6df54447>
      b0:	b6fabbb7          	lui	s7,0xb6fab
      b4:	7fbb8b93          	add	s7,s7,2043 # b6fab7fb <_end+0xb6fa8c4b>
      b8:	db7d6c37          	lui	s8,0xdb7d6
      bc:	bfdc0c13          	add	s8,s8,-1027 # db7d5bfd <_end+0xdb7d304d>
      c0:	edbebcb7          	lui	s9,0xedbeb
      c4:	dfec8c93          	add	s9,s9,-514 # edbeadfe <_end+0xedbe824e>
      c8:	76df5d37          	lui	s10,0x76df5
      cc:	6ffd0d13          	add	s10,s10,1791 # 76df56ff <_end+0x76df2b4f>
      d0:	bb6fbdb7          	lui	s11,0xbb6fb
      d4:	b7fd8d93          	add	s11,s11,-1153 # bb6fab7f <_end+0xbb6f7fcf>
      d8:	ddb7de37          	lui	t3,0xddb7d
      dc:	5bfe0e13          	add	t3,t3,1471 # ddb7d5bf <_end+0xddb7aa0f>
      e0:	eedbfeb7          	lui	t4,0xeedbf
      e4:	adfe8e93          	add	t4,t4,-1313 # eedbeadf <_end+0xeedbbf2f>
      e8:	f76dff37          	lui	t5,0xf76df
      ec:	56ff0f13          	add	t5,t5,1391 # f76df56f <_end+0xf76dc9bf>
      f0:	fbb70fb7          	lui	t6,0xfbb70
      f4:	ab7f8f93          	add	t6,t6,-1353 # fbb6fab7 <_end+0xfbb6cf07>

000000f8 <rvtest_code_begin>:
      f8:	00002537          	lui	a0,0x2
      fc:	30052073          	csrs	mstatus,a0
     100:	00002817          	auipc	a6,0x2
     104:	f0480813          	add	a6,a6,-252 # 2004 <test_fp>
     108:	00002797          	auipc	a5,0x2
     10c:	5f878793          	add	a5,a5,1528 # 2700 <data_begin>

00000110 <inst_0>:
     110:	00082c07          	flw	fs8,0(a6)
     114:	00482707          	flw	fa4,4(a6)
     118:	00882b07          	flw	fs6,8(a6)
     11c:	00205073          	fsrmi	zero,0
     120:	b0ec774f          	fnmadd.s	fa4,fs8,fa4,fs6
     124:	001028f3          	frflags	a7
     128:	00e7a027          	fsw	fa4,0(a5)
     12c:	0117a223          	sw	a7,4(a5)

00000130 <inst_1>:
     130:	00c82007          	flw	ft0,12(a6)
     134:	01082187          	flw	ft3,16(a6)
     138:	01482887          	flw	fa7,20(a6)
     13c:	00225073          	fsrmi	zero,4
     140:	8830704f          	fnmadd.s	ft0,ft0,ft3,fa7
     144:	001028f3          	frflags	a7
     148:	0007a427          	fsw	ft0,8(a5)
     14c:	0117a623          	sw	a7,12(a5)

00000150 <inst_2>:
     150:	01882b07          	flw	fs6,24(a6)
     154:	01c82b07          	flw	fs6,28(a6)
     158:	02082d07          	flw	fs10,32(a6)
     15c:	0021d073          	fsrmi	zero,3
     160:	d16b7b4f          	fnmadd.s	fs6,fs6,fs6,fs10
     164:	001028f3          	frflags	a7
     168:	0167a827          	fsw	fs6,16(a5)
     16c:	0117aa23          	sw	a7,20(a5)

00000170 <inst_3>:
     170:	02482c87          	flw	fs9,36(a6)
     174:	02882387          	flw	ft7,40(a6)
     178:	02c82d87          	flw	fs11,44(a6)
     17c:	00215073          	fsrmi	zero,2
     180:	d87cf0cf          	fnmadd.s	ft1,fs9,ft7,fs11
     184:	001028f3          	frflags	a7
     188:	0017ac27          	fsw	ft1,24(a5)
     18c:	0117ae23          	sw	a7,28(a5)

00000190 <inst_4>:
     190:	03082a07          	flw	fs4,48(a6)
     194:	03482487          	flw	fs1,52(a6)
     198:	03882487          	flw	fs1,56(a6)
     19c:	0020d073          	fsrmi	zero,1
     1a0:	489a74cf          	fnmadd.s	fs1,fs4,fs1,fs1
     1a4:	001028f3          	frflags	a7
     1a8:	0297a027          	fsw	fs1,32(a5)
     1ac:	0317a223          	sw	a7,36(a5)

000001b0 <inst_5>:
     1b0:	03c82e87          	flw	ft9,60(a6)
     1b4:	04082e87          	flw	ft9,64(a6)
     1b8:	04482e87          	flw	ft9,68(a6)
     1bc:	00205073          	fsrmi	zero,0
     1c0:	e9defccf          	fnmadd.s	fs9,ft9,ft9,ft9
     1c4:	001028f3          	frflags	a7
     1c8:	0397a427          	fsw	fs9,40(a5)
     1cc:	0317a623          	sw	a7,44(a5)

000001d0 <inst_6>:
     1d0:	04882f87          	flw	ft11,72(a6)
     1d4:	04c82f87          	flw	ft11,76(a6)
     1d8:	05082f87          	flw	ft11,80(a6)
     1dc:	00225073          	fsrmi	zero,4
     1e0:	f9ffffcf          	fnmadd.s	ft11,ft11,ft11,ft11
     1e4:	001028f3          	frflags	a7
     1e8:	03f7a827          	fsw	ft11,48(a5)
     1ec:	0317aa23          	sw	a7,52(a5)

000001f0 <inst_7>:
     1f0:	05482807          	flw	fa6,84(a6)
     1f4:	05882107          	flw	ft2,88(a6)
     1f8:	05c82807          	flw	fa6,92(a6)
     1fc:	0021d073          	fsrmi	zero,3
     200:	80287c4f          	fnmadd.s	fs8,fa6,ft2,fa6
     204:	001028f3          	frflags	a7
     208:	0387ac27          	fsw	fs8,56(a5)
     20c:	0317ae23          	sw	a7,60(a5)

00000210 <inst_8>:
     210:	06082307          	flw	ft6,96(a6)
     214:	06482007          	flw	ft0,100(a6)
     218:	06882007          	flw	ft0,104(a6)
     21c:	00215073          	fsrmi	zero,2
     220:	000372cf          	fnmadd.s	ft5,ft6,ft0,ft0
     224:	001028f3          	frflags	a7
     228:	0457a027          	fsw	ft5,64(a5)
     22c:	0517a223          	sw	a7,68(a5)

00000230 <inst_9>:
     230:	06c82607          	flw	fa2,108(a6)
     234:	07082c07          	flw	fs8,112(a6)
     238:	07482f07          	flw	ft10,116(a6)
     23c:	0020d073          	fsrmi	zero,1
     240:	f1867f4f          	fnmadd.s	ft10,fa2,fs8,ft10
     244:	001028f3          	frflags	a7
     248:	05e7a427          	fsw	ft10,72(a5)
     24c:	0517a623          	sw	a7,76(a5)

00000250 <inst_10>:
     250:	07882507          	flw	fa0,120(a6)
     254:	07c82507          	flw	fa0,124(a6)
     258:	08082407          	flw	fs0,128(a6)
     25c:	00205073          	fsrmi	zero,0
     260:	40a5734f          	fnmadd.s	ft6,fa0,fa0,fs0
     264:	001028f3          	frflags	a7
     268:	0467a827          	fsw	ft6,80(a5)
     26c:	0517aa23          	sw	a7,84(a5)

00000270 <inst_11>:
     270:	08482987          	flw	fs3,132(a6)
     274:	08882a07          	flw	fs4,136(a6)
     278:	08c82987          	flw	fs3,140(a6)
     27c:	00225073          	fsrmi	zero,4
     280:	9949f9cf          	fnmadd.s	fs3,fs3,fs4,fs3
     284:	001028f3          	frflags	a7
     288:	0537ac27          	fsw	fs3,88(a5)
     28c:	0517ae23          	sw	a7,92(a5)

00000290 <inst_12>:
     290:	09082b87          	flw	fs7,144(a6)
     294:	09482d07          	flw	fs10,148(a6)
     298:	09882787          	flw	fa5,152(a6)
     29c:	0021d073          	fsrmi	zero,3
     2a0:	79abf6cf          	fnmadd.s	fa3,fs7,fs10,fa5
     2a4:	001028f3          	frflags	a7
     2a8:	06d7a027          	fsw	fa3,96(a5)
     2ac:	0717a223          	sw	a7,100(a5)

000002b0 <inst_13>:
     2b0:	09c82f07          	flw	ft10,156(a6)
     2b4:	0a082307          	flw	ft6,160(a6)
     2b8:	0a482707          	flw	fa4,164(a6)
     2bc:	00215073          	fsrmi	zero,2
     2c0:	706f794f          	fnmadd.s	fs2,ft10,ft6,fa4
     2c4:	001028f3          	frflags	a7
     2c8:	0727a427          	fsw	fs2,104(a5)
     2cc:	0717a623          	sw	a7,108(a5)

000002d0 <inst_14>:
     2d0:	0a882107          	flw	ft2,168(a6)
     2d4:	0ac82d87          	flw	fs11,172(a6)
     2d8:	0b082a87          	flw	fs5,176(a6)
     2dc:	0020d073          	fsrmi	zero,1
     2e0:	a9b178cf          	fnmadd.s	fa7,ft2,fs11,fs5
     2e4:	001028f3          	frflags	a7
     2e8:	0717a827          	fsw	fa7,112(a5)
     2ec:	0717aa23          	sw	a7,116(a5)

000002f0 <inst_15>:
     2f0:	0b482d87          	flw	fs11,180(a6)
     2f4:	0b882a87          	flw	fs5,184(a6)
     2f8:	0bc82907          	flw	fs2,188(a6)
     2fc:	00205073          	fsrmi	zero,0
     300:	915df54f          	fnmadd.s	fa0,fs11,fs5,fs2
     304:	001028f3          	frflags	a7
     308:	06a7ac27          	fsw	fa0,120(a5)
     30c:	0717ae23          	sw	a7,124(a5)

00000310 <inst_16>:
     310:	0c082387          	flw	ft7,192(a6)
     314:	0c482987          	flw	fs3,196(a6)
     318:	0c882687          	flw	fa3,200(a6)
     31c:	00225073          	fsrmi	zero,4
     320:	6933fbcf          	fnmadd.s	fs7,ft7,fs3,fa3
     324:	001028f3          	frflags	a7
     328:	0977a027          	fsw	fs7,128(a5)
     32c:	0917a223          	sw	a7,132(a5)

00000330 <inst_17>:
     330:	0cc82e07          	flw	ft8,204(a6)
     334:	0d082407          	flw	fs0,208(a6)
     338:	0d482b87          	flw	fs7,212(a6)
     33c:	0021d073          	fsrmi	zero,3
     340:	b88e75cf          	fnmadd.s	fa1,ft8,fs0,fs7
     344:	001028f3          	frflags	a7
     348:	08b7a427          	fsw	fa1,136(a5)
     34c:	0917a623          	sw	a7,140(a5)

00000350 <inst_18>:
     350:	0d882587          	flw	fa1,216(a6)
     354:	0dc82807          	flw	fa6,220(a6)
     358:	0e082e07          	flw	ft8,224(a6)
     35c:	00215073          	fsrmi	zero,2
     360:	e105f7cf          	fnmadd.s	fa5,fa1,fa6,ft8
     364:	001028f3          	frflags	a7
     368:	08f7a827          	fsw	fa5,144(a5)
     36c:	0917aa23          	sw	a7,148(a5)

00000370 <inst_19>:
     370:	0e482087          	flw	ft1,228(a6)
     374:	0e882887          	flw	fa7,232(a6)
     378:	0ec82587          	flw	fa1,236(a6)
     37c:	0020d073          	fsrmi	zero,1
     380:	5910fe4f          	fnmadd.s	ft8,ft1,fa7,fa1
     384:	001028f3          	frflags	a7
     388:	09c7ac27          	fsw	ft8,152(a5)
     38c:	0917ae23          	sw	a7,156(a5)

00000390 <inst_20>:
     390:	0f082887          	flw	fa7,240(a6)
     394:	0f482207          	flw	ft4,244(a6)
     398:	0f882607          	flw	fa2,248(a6)
     39c:	00205073          	fsrmi	zero,0
     3a0:	6048f14f          	fnmadd.s	ft2,fa7,ft4,fa2
     3a4:	001028f3          	frflags	a7
     3a8:	0a27a027          	fsw	ft2,160(a5)
     3ac:	0b17a223          	sw	a7,164(a5)

000003b0 <inst_21>:
     3b0:	0fc82907          	flw	fs2,252(a6)
     3b4:	10082587          	flw	fa1,256(a6)
     3b8:	10482387          	flw	ft7,260(a6)
     3bc:	00225073          	fsrmi	zero,4
     3c0:	38b97acf          	fnmadd.s	fs5,fs2,fa1,ft7
     3c4:	001028f3          	frflags	a7
     3c8:	0b57a427          	fsw	fs5,168(a5)
     3cc:	0b17a623          	sw	a7,172(a5)

000003d0 <inst_22>:
     3d0:	10882787          	flw	fa5,264(a6)
     3d4:	10c82b87          	flw	fs7,268(a6)
     3d8:	11082107          	flw	ft2,272(a6)
     3dc:	0021d073          	fsrmi	zero,3
     3e0:	1177fa4f          	fnmadd.s	fs4,fa5,fs7,ft2
     3e4:	001028f3          	frflags	a7
     3e8:	0b47a827          	fsw	fs4,176(a5)
     3ec:	0b17aa23          	sw	a7,180(a5)

000003f0 <inst_23>:
     3f0:	11482687          	flw	fa3,276(a6)
     3f4:	11882c87          	flw	fs9,280(a6)
     3f8:	11c82187          	flw	ft3,284(a6)
     3fc:	00215073          	fsrmi	zero,2
     400:	1996fdcf          	fnmadd.s	fs11,fa3,fs9,ft3
     404:	001028f3          	frflags	a7
     408:	0bb7ac27          	fsw	fs11,184(a5)
     40c:	0b17ae23          	sw	a7,188(a5)

00000410 <inst_24>:
     410:	12082407          	flw	fs0,288(a6)
     414:	12482e07          	flw	ft8,292(a6)
     418:	12882c87          	flw	fs9,296(a6)
     41c:	0020d073          	fsrmi	zero,1
     420:	c9c473cf          	fnmadd.s	ft7,fs0,ft8,fs9
     424:	001028f3          	frflags	a7
     428:	0c77a027          	fsw	ft7,192(a5)
     42c:	0d17a223          	sw	a7,196(a5)

00000430 <inst_25>:
     430:	12c82707          	flw	fa4,300(a6)
     434:	13082f07          	flw	ft10,304(a6)
     438:	13482c07          	flw	fs8,308(a6)
     43c:	00205073          	fsrmi	zero,0
     440:	c1e77ecf          	fnmadd.s	ft9,fa4,ft10,fs8
     444:	001028f3          	frflags	a7
     448:	0dd7a427          	fsw	ft9,200(a5)
     44c:	0d17a623          	sw	a7,204(a5)

00000450 <inst_26>:
     450:	13882a87          	flw	fs5,312(a6)
     454:	13c82087          	flw	ft1,316(a6)
     458:	14082307          	flw	ft6,320(a6)
     45c:	00225073          	fsrmi	zero,4
     460:	301af24f          	fnmadd.s	ft4,fs5,ft1,ft6
     464:	001028f3          	frflags	a7
     468:	0c47a827          	fsw	ft4,208(a5)
     46c:	0d17aa23          	sw	a7,212(a5)

00000470 <inst_27>:
     470:	14482487          	flw	fs1,324(a6)
     474:	14882687          	flw	fa3,328(a6)
     478:	14c82287          	flw	ft5,332(a6)
     47c:	0021d073          	fsrmi	zero,3
     480:	28d4f44f          	fnmadd.s	fs0,fs1,fa3,ft5
     484:	001028f3          	frflags	a7
     488:	0c87ac27          	fsw	fs0,216(a5)
     48c:	0d17ae23          	sw	a7,220(a5)

00000490 <inst_28>:
     490:	15082d07          	flw	fs10,336(a6)
     494:	15482787          	flw	fa5,340(a6)
     498:	15882507          	flw	fa0,344(a6)
     49c:	00215073          	fsrmi	zero,2
     4a0:	50fd71cf          	fnmadd.s	ft3,fs10,fa5,fa0
     4a4:	001028f3          	frflags	a7
     4a8:	0e37a027          	fsw	ft3,224(a5)
     4ac:	0f17a223          	sw	a7,228(a5)

000004b0 <inst_29>:
     4b0:	15c82187          	flw	ft3,348(a6)
     4b4:	16082907          	flw	fs2,352(a6)
     4b8:	16482087          	flw	ft1,356(a6)
     4bc:	0020d073          	fsrmi	zero,1
     4c0:	0921f64f          	fnmadd.s	fa2,ft3,fs2,ft1
     4c4:	001028f3          	frflags	a7
     4c8:	0ec7a427          	fsw	fa2,232(a5)
     4cc:	0f17a623          	sw	a7,236(a5)

000004d0 <inst_30>:
     4d0:	16882287          	flw	ft5,360(a6)
     4d4:	16c82607          	flw	fa2,364(a6)
     4d8:	17082a07          	flw	fs4,368(a6)
     4dc:	00205073          	fsrmi	zero,0
     4e0:	a0c2f84f          	fnmadd.s	fa6,ft5,fa2,fs4
     4e4:	001028f3          	frflags	a7
     4e8:	0f07a827          	fsw	fa6,240(a5)
     4ec:	0f17aa23          	sw	a7,244(a5)

000004f0 <inst_31>:
     4f0:	17482207          	flw	ft4,372(a6)
     4f4:	17882907          	flw	fs2,376(a6)
     4f8:	17c82b87          	flw	fs7,380(a6)
     4fc:	00225073          	fsrmi	zero,4
     500:	b92276cf          	fnmadd.s	fa3,ft4,fs2,fs7
     504:	001028f3          	frflags	a7
     508:	0ed7ac27          	fsw	fa3,248(a5)
     50c:	0f17ae23          	sw	a7,252(a5)

00000510 <inst_32>:
     510:	18082687          	flw	fa3,384(a6)
     514:	18482287          	flw	ft5,388(a6)
     518:	18882607          	flw	fa2,392(a6)
     51c:	0021d073          	fsrmi	zero,3
     520:	6056ff4f          	fnmadd.s	ft10,fa3,ft5,fa2
     524:	001028f3          	frflags	a7
     528:	11e7a027          	fsw	ft10,256(a5)
     52c:	1117a223          	sw	a7,260(a5)

00000530 <inst_33>:
     530:	18c82887          	flw	fa7,396(a6)
     534:	19082d87          	flw	fs11,400(a6)
     538:	19482207          	flw	ft4,404(a6)
     53c:	00215073          	fsrmi	zero,2
     540:	21b8ffcf          	fnmadd.s	ft11,fa7,fs11,ft4
     544:	001028f3          	frflags	a7
     548:	11f7a427          	fsw	ft11,264(a5)
     54c:	1117a623          	sw	a7,268(a5)

00000550 <inst_34>:
     550:	19882207          	flw	ft4,408(a6)
     554:	19c82807          	flw	fa6,412(a6)
     558:	1a082187          	flw	ft3,416(a6)
     55c:	0020d073          	fsrmi	zero,1
     560:	19027d4f          	fnmadd.s	fs10,ft4,fa6,ft3
     564:	001028f3          	frflags	a7
     568:	11a7a827          	fsw	fs10,272(a5)
     56c:	1117aa23          	sw	a7,276(a5)

00000570 <inst_35>:
     570:	1a482507          	flw	fa0,420(a6)
     574:	1a882587          	flw	fa1,424(a6)
     578:	1ac82607          	flw	fa2,428(a6)
     57c:	00205073          	fsrmi	zero,0
     580:	60b576cf          	fnmadd.s	fa3,fa0,fa1,fa2
     584:	001028f3          	frflags	a7
     588:	10d7ac27          	fsw	fa3,280(a5)
     58c:	1117ae23          	sw	a7,284(a5)

00000590 <inst_36>:
     590:	1b082507          	flw	fa0,432(a6)
     594:	1b482587          	flw	fa1,436(a6)
     598:	1b882607          	flw	fa2,440(a6)
     59c:	00225073          	fsrmi	zero,4
     5a0:	60b576cf          	fnmadd.s	fa3,fa0,fa1,fa2
     5a4:	001028f3          	frflags	a7
     5a8:	12d7a027          	fsw	fa3,288(a5)
     5ac:	1317a223          	sw	a7,292(a5)

000005b0 <inst_37>:
     5b0:	1bc82507          	flw	fa0,444(a6)
     5b4:	1c082587          	flw	fa1,448(a6)
     5b8:	1c482607          	flw	fa2,452(a6)
     5bc:	0021d073          	fsrmi	zero,3
     5c0:	60b576cf          	fnmadd.s	fa3,fa0,fa1,fa2
     5c4:	001028f3          	frflags	a7
     5c8:	12d7a427          	fsw	fa3,296(a5)
     5cc:	1317a623          	sw	a7,300(a5)

000005d0 <inst_38>:
     5d0:	1c882507          	flw	fa0,456(a6)
     5d4:	1cc82587          	flw	fa1,460(a6)
     5d8:	1d082607          	flw	fa2,464(a6)
     5dc:	00215073          	fsrmi	zero,2
     5e0:	60b576cf          	fnmadd.s	fa3,fa0,fa1,fa2
     5e4:	001028f3          	frflags	a7
     5e8:	12d7a827          	fsw	fa3,304(a5)
     5ec:	1317aa23          	sw	a7,308(a5)

000005f0 <inst_39>:
     5f0:	1d482507          	flw	fa0,468(a6)
     5f4:	1d882587          	flw	fa1,472(a6)
     5f8:	1dc82607          	flw	fa2,476(a6)
     5fc:	0020d073          	fsrmi	zero,1
     600:	60b576cf          	fnmadd.s	fa3,fa0,fa1,fa2
     604:	001028f3          	frflags	a7
     608:	12d7ac27          	fsw	fa3,312(a5)
     60c:	1317ae23          	sw	a7,316(a5)

00000610 <inst_40>:
     610:	1e082507          	flw	fa0,480(a6)
     614:	1e482587          	flw	fa1,484(a6)
     618:	1e882607          	flw	fa2,488(a6)
     61c:	00205073          	fsrmi	zero,0
     620:	60b576cf          	fnmadd.s	fa3,fa0,fa1,fa2
     624:	001028f3          	frflags	a7
     628:	14d7a027          	fsw	fa3,320(a5)
     62c:	1517a223          	sw	a7,324(a5)

00000630 <inst_41>:
     630:	1ec82507          	flw	fa0,492(a6)
     634:	1f082587          	flw	fa1,496(a6)
     638:	1f482607          	flw	fa2,500(a6)
     63c:	00225073          	fsrmi	zero,4
     640:	60b576cf          	fnmadd.s	fa3,fa0,fa1,fa2
     644:	001028f3          	frflags	a7
     648:	14d7a427          	fsw	fa3,328(a5)
     64c:	1517a623          	sw	a7,332(a5)

00000650 <inst_42>:
     650:	1f882507          	flw	fa0,504(a6)
     654:	1fc82587          	flw	fa1,508(a6)
     658:	20082607          	flw	fa2,512(a6)
     65c:	0021d073          	fsrmi	zero,3
     660:	60b576cf          	fnmadd.s	fa3,fa0,fa1,fa2
     664:	001028f3          	frflags	a7
     668:	14d7a827          	fsw	fa3,336(a5)
     66c:	1517aa23          	sw	a7,340(a5)

00000670 <inst_43>:
     670:	20482507          	flw	fa0,516(a6)
     674:	20882587          	flw	fa1,520(a6)
     678:	20c82607          	flw	fa2,524(a6)
     67c:	00215073          	fsrmi	zero,2
     680:	60b576cf          	fnmadd.s	fa3,fa0,fa1,fa2
     684:	001028f3          	frflags	a7
     688:	14d7ac27          	fsw	fa3,344(a5)
     68c:	1517ae23          	sw	a7,348(a5)

00000690 <inst_44>:
     690:	21082507          	flw	fa0,528(a6)
     694:	21482587          	flw	fa1,532(a6)
     698:	21882607          	flw	fa2,536(a6)
     69c:	0020d073          	fsrmi	zero,1
     6a0:	60b576cf          	fnmadd.s	fa3,fa0,fa1,fa2
     6a4:	001028f3          	frflags	a7
     6a8:	16d7a027          	fsw	fa3,352(a5)
     6ac:	1717a223          	sw	a7,356(a5)

000006b0 <inst_45>:
     6b0:	21c82507          	flw	fa0,540(a6)
     6b4:	22082587          	flw	fa1,544(a6)
     6b8:	22482607          	flw	fa2,548(a6)
     6bc:	00205073          	fsrmi	zero,0
     6c0:	60b576cf          	fnmadd.s	fa3,fa0,fa1,fa2
     6c4:	001028f3          	frflags	a7
     6c8:	16d7a427          	fsw	fa3,360(a5)
     6cc:	1717a623          	sw	a7,364(a5)

000006d0 <inst_46>:
     6d0:	22882507          	flw	fa0,552(a6)
     6d4:	22c82587          	flw	fa1,556(a6)
     6d8:	23082607          	flw	fa2,560(a6)
     6dc:	00225073          	fsrmi	zero,4
     6e0:	60b576cf          	fnmadd.s	fa3,fa0,fa1,fa2
     6e4:	001028f3          	frflags	a7
     6e8:	16d7a827          	fsw	fa3,368(a5)
     6ec:	1717aa23          	sw	a7,372(a5)

000006f0 <inst_47>:
     6f0:	23482507          	flw	fa0,564(a6)
     6f4:	23882587          	flw	fa1,568(a6)
     6f8:	23c82607          	flw	fa2,572(a6)
     6fc:	0021d073          	fsrmi	zero,3
     700:	60b576cf          	fnmadd.s	fa3,fa0,fa1,fa2
     704:	001028f3          	frflags	a7
     708:	16d7ac27          	fsw	fa3,376(a5)
     70c:	1717ae23          	sw	a7,380(a5)

00000710 <inst_48>:
     710:	24082507          	flw	fa0,576(a6)
     714:	24482587          	flw	fa1,580(a6)
     718:	24882607          	flw	fa2,584(a6)
     71c:	00215073          	fsrmi	zero,2
     720:	60b576cf          	fnmadd.s	fa3,fa0,fa1,fa2
     724:	001028f3          	frflags	a7
     728:	18d7a027          	fsw	fa3,384(a5)
     72c:	1917a223          	sw	a7,388(a5)

00000730 <inst_49>:
     730:	24c82507          	flw	fa0,588(a6)
     734:	25082587          	flw	fa1,592(a6)
     738:	25482607          	flw	fa2,596(a6)
     73c:	0020d073          	fsrmi	zero,1
     740:	60b576cf          	fnmadd.s	fa3,fa0,fa1,fa2
     744:	001028f3          	frflags	a7
     748:	18d7a427          	fsw	fa3,392(a5)
     74c:	1917a623          	sw	a7,396(a5)

00000750 <inst_50>:
     750:	25882507          	flw	fa0,600(a6)
     754:	25c82587          	flw	fa1,604(a6)
     758:	26082607          	flw	fa2,608(a6)
     75c:	00205073          	fsrmi	zero,0
     760:	60b576cf          	fnmadd.s	fa3,fa0,fa1,fa2
     764:	001028f3          	frflags	a7
     768:	18d7a827          	fsw	fa3,400(a5)
     76c:	1917aa23          	sw	a7,404(a5)

00000770 <inst_51>:
     770:	26482507          	flw	fa0,612(a6)
     774:	26882587          	flw	fa1,616(a6)
     778:	26c82607          	flw	fa2,620(a6)
     77c:	00225073          	fsrmi	zero,4
     780:	60b576cf          	fnmadd.s	fa3,fa0,fa1,fa2
     784:	001028f3          	frflags	a7
     788:	18d7ac27          	fsw	fa3,408(a5)
     78c:	1917ae23          	sw	a7,412(a5)

00000790 <inst_52>:
     790:	27082507          	flw	fa0,624(a6)
     794:	27482587          	flw	fa1,628(a6)
     798:	27882607          	flw	fa2,632(a6)
     79c:	0021d073          	fsrmi	zero,3
     7a0:	60b576cf          	fnmadd.s	fa3,fa0,fa1,fa2
     7a4:	001028f3          	frflags	a7
     7a8:	1ad7a027          	fsw	fa3,416(a5)
     7ac:	1b17a223          	sw	a7,420(a5)

000007b0 <inst_53>:
     7b0:	27c82507          	flw	fa0,636(a6)
     7b4:	28082587          	flw	fa1,640(a6)
     7b8:	28482607          	flw	fa2,644(a6)
     7bc:	00215073          	fsrmi	zero,2
     7c0:	60b576cf          	fnmadd.s	fa3,fa0,fa1,fa2
     7c4:	001028f3          	frflags	a7
     7c8:	1ad7a427          	fsw	fa3,424(a5)
     7cc:	1b17a623          	sw	a7,428(a5)

000007d0 <inst_54>:
     7d0:	28882507          	flw	fa0,648(a6)
     7d4:	28c82587          	flw	fa1,652(a6)
     7d8:	29082607          	flw	fa2,656(a6)
     7dc:	0020d073          	fsrmi	zero,1
     7e0:	60b576cf          	fnmadd.s	fa3,fa0,fa1,fa2
     7e4:	001028f3          	frflags	a7
     7e8:	1ad7a827          	fsw	fa3,432(a5)
     7ec:	1b17aa23          	sw	a7,436(a5)

000007f0 <inst_55>:
     7f0:	29482507          	flw	fa0,660(a6)
     7f4:	29882587          	flw	fa1,664(a6)
     7f8:	29c82607          	flw	fa2,668(a6)
     7fc:	00205073          	fsrmi	zero,0
     800:	60b576cf          	fnmadd.s	fa3,fa0,fa1,fa2
     804:	001028f3          	frflags	a7
     808:	1ad7ac27          	fsw	fa3,440(a5)
     80c:	1b17ae23          	sw	a7,444(a5)

00000810 <inst_56>:
     810:	2a082507          	flw	fa0,672(a6)
     814:	2a482587          	flw	fa1,676(a6)
     818:	2a882607          	flw	fa2,680(a6)
     81c:	00225073          	fsrmi	zero,4
     820:	60b576cf          	fnmadd.s	fa3,fa0,fa1,fa2
     824:	001028f3          	frflags	a7
     828:	1cd7a027          	fsw	fa3,448(a5)
     82c:	1d17a223          	sw	a7,452(a5)

00000830 <inst_57>:
     830:	2ac82507          	flw	fa0,684(a6)
     834:	2b082587          	flw	fa1,688(a6)
     838:	2b482607          	flw	fa2,692(a6)
     83c:	0021d073          	fsrmi	zero,3
     840:	60b576cf          	fnmadd.s	fa3,fa0,fa1,fa2
     844:	001028f3          	frflags	a7
     848:	1cd7a427          	fsw	fa3,456(a5)
     84c:	1d17a623          	sw	a7,460(a5)

00000850 <inst_58>:
     850:	2b882507          	flw	fa0,696(a6)
     854:	2bc82587          	flw	fa1,700(a6)
     858:	2c082607          	flw	fa2,704(a6)
     85c:	00215073          	fsrmi	zero,2
     860:	60b576cf          	fnmadd.s	fa3,fa0,fa1,fa2
     864:	001028f3          	frflags	a7
     868:	1cd7a827          	fsw	fa3,464(a5)
     86c:	1d17aa23          	sw	a7,468(a5)

00000870 <inst_59>:
     870:	2c482507          	flw	fa0,708(a6)
     874:	2c882587          	flw	fa1,712(a6)
     878:	2cc82607          	flw	fa2,716(a6)
     87c:	0020d073          	fsrmi	zero,1
     880:	60b576cf          	fnmadd.s	fa3,fa0,fa1,fa2
     884:	001028f3          	frflags	a7
     888:	1cd7ac27          	fsw	fa3,472(a5)
     88c:	1d17ae23          	sw	a7,476(a5)

00000890 <inst_60>:
     890:	2d082507          	flw	fa0,720(a6)
     894:	2d482587          	flw	fa1,724(a6)
     898:	2d882607          	flw	fa2,728(a6)
     89c:	00205073          	fsrmi	zero,0
     8a0:	60b576cf          	fnmadd.s	fa3,fa0,fa1,fa2
     8a4:	001028f3          	frflags	a7
     8a8:	1ed7a027          	fsw	fa3,480(a5)
     8ac:	1f17a223          	sw	a7,484(a5)

000008b0 <inst_61>:
     8b0:	2dc82507          	flw	fa0,732(a6)
     8b4:	2e082587          	flw	fa1,736(a6)
     8b8:	2e482607          	flw	fa2,740(a6)
     8bc:	00225073          	fsrmi	zero,4
     8c0:	60b576cf          	fnmadd.s	fa3,fa0,fa1,fa2
     8c4:	001028f3          	frflags	a7
     8c8:	1ed7a427          	fsw	fa3,488(a5)
     8cc:	1f17a623          	sw	a7,492(a5)

000008d0 <inst_62>:
     8d0:	2e882507          	flw	fa0,744(a6)
     8d4:	2ec82587          	flw	fa1,748(a6)
     8d8:	2f082607          	flw	fa2,752(a6)
     8dc:	0021d073          	fsrmi	zero,3
     8e0:	60b576cf          	fnmadd.s	fa3,fa0,fa1,fa2
     8e4:	001028f3          	frflags	a7
     8e8:	1ed7a827          	fsw	fa3,496(a5)
     8ec:	1f17aa23          	sw	a7,500(a5)

000008f0 <inst_63>:
     8f0:	2f482507          	flw	fa0,756(a6)
     8f4:	2f882587          	flw	fa1,760(a6)
     8f8:	2fc82607          	flw	fa2,764(a6)
     8fc:	00215073          	fsrmi	zero,2
     900:	60b576cf          	fnmadd.s	fa3,fa0,fa1,fa2
     904:	001028f3          	frflags	a7
     908:	1ed7ac27          	fsw	fa3,504(a5)
     90c:	1f17ae23          	sw	a7,508(a5)

00000910 <inst_64>:
     910:	30082507          	flw	fa0,768(a6)
     914:	30482587          	flw	fa1,772(a6)
     918:	30882607          	flw	fa2,776(a6)
     91c:	0020d073          	fsrmi	zero,1
     920:	60b576cf          	fnmadd.s	fa3,fa0,fa1,fa2
     924:	001028f3          	frflags	a7
     928:	20d7a027          	fsw	fa3,512(a5)
     92c:	2117a223          	sw	a7,516(a5)

00000930 <inst_65>:
     930:	30c82507          	flw	fa0,780(a6)
     934:	31082587          	flw	fa1,784(a6)
     938:	31482607          	flw	fa2,788(a6)
     93c:	00205073          	fsrmi	zero,0
     940:	60b576cf          	fnmadd.s	fa3,fa0,fa1,fa2
     944:	001028f3          	frflags	a7
     948:	20d7a427          	fsw	fa3,520(a5)
     94c:	2117a623          	sw	a7,524(a5)

00000950 <inst_66>:
     950:	31882507          	flw	fa0,792(a6)
     954:	31c82587          	flw	fa1,796(a6)
     958:	32082607          	flw	fa2,800(a6)
     95c:	00225073          	fsrmi	zero,4
     960:	60b576cf          	fnmadd.s	fa3,fa0,fa1,fa2
     964:	001028f3          	frflags	a7
     968:	20d7a827          	fsw	fa3,528(a5)
     96c:	2117aa23          	sw	a7,532(a5)

00000970 <inst_67>:
     970:	32482507          	flw	fa0,804(a6)
     974:	32882587          	flw	fa1,808(a6)
     978:	32c82607          	flw	fa2,812(a6)
     97c:	0021d073          	fsrmi	zero,3
     980:	60b576cf          	fnmadd.s	fa3,fa0,fa1,fa2
     984:	001028f3          	frflags	a7
     988:	20d7ac27          	fsw	fa3,536(a5)
     98c:	2117ae23          	sw	a7,540(a5)

00000990 <inst_68>:
     990:	33082507          	flw	fa0,816(a6)
     994:	33482587          	flw	fa1,820(a6)
     998:	33882607          	flw	fa2,824(a6)
     99c:	00215073          	fsrmi	zero,2
     9a0:	60b576cf          	fnmadd.s	fa3,fa0,fa1,fa2
     9a4:	001028f3          	frflags	a7
     9a8:	22d7a027          	fsw	fa3,544(a5)
     9ac:	2317a223          	sw	a7,548(a5)

000009b0 <inst_69>:
     9b0:	33c82507          	flw	fa0,828(a6)
     9b4:	34082587          	flw	fa1,832(a6)
     9b8:	34482607          	flw	fa2,836(a6)
     9bc:	0020d073          	fsrmi	zero,1
     9c0:	60b576cf          	fnmadd.s	fa3,fa0,fa1,fa2
     9c4:	001028f3          	frflags	a7
     9c8:	22d7a427          	fsw	fa3,552(a5)
     9cc:	2317a623          	sw	a7,556(a5)

000009d0 <inst_70>:
     9d0:	34882507          	flw	fa0,840(a6)
     9d4:	34c82587          	flw	fa1,844(a6)
     9d8:	35082607          	flw	fa2,848(a6)
     9dc:	00205073          	fsrmi	zero,0
     9e0:	60b576cf          	fnmadd.s	fa3,fa0,fa1,fa2
     9e4:	001028f3          	frflags	a7
     9e8:	22d7a827          	fsw	fa3,560(a5)
     9ec:	2317aa23          	sw	a7,564(a5)

000009f0 <inst_71>:
     9f0:	35482507          	flw	fa0,852(a6)
     9f4:	35882587          	flw	fa1,856(a6)
     9f8:	35c82607          	flw	fa2,860(a6)
     9fc:	00225073          	fsrmi	zero,4
     a00:	60b576cf          	fnmadd.s	fa3,fa0,fa1,fa2
     a04:	001028f3          	frflags	a7
     a08:	22d7ac27          	fsw	fa3,568(a5)
     a0c:	2317ae23          	sw	a7,572(a5)

00000a10 <inst_72>:
     a10:	36082507          	flw	fa0,864(a6)
     a14:	36482587          	flw	fa1,868(a6)
     a18:	36882607          	flw	fa2,872(a6)
     a1c:	0021d073          	fsrmi	zero,3
     a20:	60b576cf          	fnmadd.s	fa3,fa0,fa1,fa2
     a24:	001028f3          	frflags	a7
     a28:	24d7a027          	fsw	fa3,576(a5)
     a2c:	2517a223          	sw	a7,580(a5)

00000a30 <inst_73>:
     a30:	36c82507          	flw	fa0,876(a6)
     a34:	37082587          	flw	fa1,880(a6)
     a38:	37482607          	flw	fa2,884(a6)
     a3c:	00215073          	fsrmi	zero,2
     a40:	60b576cf          	fnmadd.s	fa3,fa0,fa1,fa2
     a44:	001028f3          	frflags	a7
     a48:	24d7a427          	fsw	fa3,584(a5)
     a4c:	2517a623          	sw	a7,588(a5)

00000a50 <inst_74>:
     a50:	37882507          	flw	fa0,888(a6)
     a54:	37c82587          	flw	fa1,892(a6)
     a58:	38082607          	flw	fa2,896(a6)
     a5c:	0020d073          	fsrmi	zero,1
     a60:	60b576cf          	fnmadd.s	fa3,fa0,fa1,fa2
     a64:	001028f3          	frflags	a7
     a68:	24d7a827          	fsw	fa3,592(a5)
     a6c:	2517aa23          	sw	a7,596(a5)

00000a70 <inst_75>:
     a70:	38482507          	flw	fa0,900(a6)
     a74:	38882587          	flw	fa1,904(a6)
     a78:	38c82607          	flw	fa2,908(a6)
     a7c:	00205073          	fsrmi	zero,0
     a80:	60b576cf          	fnmadd.s	fa3,fa0,fa1,fa2
     a84:	001028f3          	frflags	a7
     a88:	24d7ac27          	fsw	fa3,600(a5)
     a8c:	2517ae23          	sw	a7,604(a5)

00000a90 <inst_76>:
     a90:	39082507          	flw	fa0,912(a6)
     a94:	39482587          	flw	fa1,916(a6)
     a98:	39882607          	flw	fa2,920(a6)
     a9c:	00225073          	fsrmi	zero,4
     aa0:	60b576cf          	fnmadd.s	fa3,fa0,fa1,fa2
     aa4:	001028f3          	frflags	a7
     aa8:	26d7a027          	fsw	fa3,608(a5)
     aac:	2717a223          	sw	a7,612(a5)

00000ab0 <inst_77>:
     ab0:	39c82507          	flw	fa0,924(a6)
     ab4:	3a082587          	flw	fa1,928(a6)
     ab8:	3a482607          	flw	fa2,932(a6)
     abc:	0021d073          	fsrmi	zero,3
     ac0:	60b576cf          	fnmadd.s	fa3,fa0,fa1,fa2
     ac4:	001028f3          	frflags	a7
     ac8:	26d7a427          	fsw	fa3,616(a5)
     acc:	2717a623          	sw	a7,620(a5)

00000ad0 <inst_78>:
     ad0:	3a882507          	flw	fa0,936(a6)
     ad4:	3ac82587          	flw	fa1,940(a6)
     ad8:	3b082607          	flw	fa2,944(a6)
     adc:	00215073          	fsrmi	zero,2
     ae0:	60b576cf          	fnmadd.s	fa3,fa0,fa1,fa2
     ae4:	001028f3          	frflags	a7
     ae8:	26d7a827          	fsw	fa3,624(a5)
     aec:	2717aa23          	sw	a7,628(a5)

00000af0 <inst_79>:
     af0:	3b482507          	flw	fa0,948(a6)
     af4:	3b882587          	flw	fa1,952(a6)
     af8:	3bc82607          	flw	fa2,956(a6)
     afc:	0020d073          	fsrmi	zero,1
     b00:	60b576cf          	fnmadd.s	fa3,fa0,fa1,fa2
     b04:	001028f3          	frflags	a7
     b08:	26d7ac27          	fsw	fa3,632(a5)
     b0c:	2717ae23          	sw	a7,636(a5)

00000b10 <inst_80>:
     b10:	3c082507          	flw	fa0,960(a6)
     b14:	3c482587          	flw	fa1,964(a6)
     b18:	3c882607          	flw	fa2,968(a6)
     b1c:	00205073          	fsrmi	zero,0
     b20:	60b576cf          	fnmadd.s	fa3,fa0,fa1,fa2
     b24:	001028f3          	frflags	a7
     b28:	28d7a027          	fsw	fa3,640(a5)
     b2c:	2917a223          	sw	a7,644(a5)

00000b30 <inst_81>:
     b30:	3cc82507          	flw	fa0,972(a6)
     b34:	3d082587          	flw	fa1,976(a6)
     b38:	3d482607          	flw	fa2,980(a6)
     b3c:	00225073          	fsrmi	zero,4
     b40:	60b576cf          	fnmadd.s	fa3,fa0,fa1,fa2
     b44:	001028f3          	frflags	a7
     b48:	28d7a427          	fsw	fa3,648(a5)
     b4c:	2917a623          	sw	a7,652(a5)

00000b50 <inst_82>:
     b50:	3d882507          	flw	fa0,984(a6)
     b54:	3dc82587          	flw	fa1,988(a6)
     b58:	3e082607          	flw	fa2,992(a6)
     b5c:	0021d073          	fsrmi	zero,3
     b60:	60b576cf          	fnmadd.s	fa3,fa0,fa1,fa2
     b64:	001028f3          	frflags	a7
     b68:	28d7a827          	fsw	fa3,656(a5)
     b6c:	2917aa23          	sw	a7,660(a5)

00000b70 <inst_83>:
     b70:	3e482507          	flw	fa0,996(a6)
     b74:	3e882587          	flw	fa1,1000(a6)
     b78:	3ec82607          	flw	fa2,1004(a6)
     b7c:	00215073          	fsrmi	zero,2
     b80:	60b576cf          	fnmadd.s	fa3,fa0,fa1,fa2
     b84:	001028f3          	frflags	a7
     b88:	28d7ac27          	fsw	fa3,664(a5)
     b8c:	2917ae23          	sw	a7,668(a5)

00000b90 <inst_84>:
     b90:	3f082507          	flw	fa0,1008(a6)
     b94:	3f482587          	flw	fa1,1012(a6)
     b98:	3f882607          	flw	fa2,1016(a6)
     b9c:	0020d073          	fsrmi	zero,1
     ba0:	60b576cf          	fnmadd.s	fa3,fa0,fa1,fa2
     ba4:	001028f3          	frflags	a7
     ba8:	2ad7a027          	fsw	fa3,672(a5)
     bac:	2b17a223          	sw	a7,676(a5)

00000bb0 <inst_85>:
     bb0:	3fc82507          	flw	fa0,1020(a6)
     bb4:	40082587          	flw	fa1,1024(a6)
     bb8:	40482607          	flw	fa2,1028(a6)
     bbc:	00205073          	fsrmi	zero,0
     bc0:	60b576cf          	fnmadd.s	fa3,fa0,fa1,fa2
     bc4:	001028f3          	frflags	a7
     bc8:	2ad7a427          	fsw	fa3,680(a5)
     bcc:	2b17a623          	sw	a7,684(a5)

00000bd0 <inst_86>:
     bd0:	40882507          	flw	fa0,1032(a6)
     bd4:	40c82587          	flw	fa1,1036(a6)
     bd8:	41082607          	flw	fa2,1040(a6)
     bdc:	00225073          	fsrmi	zero,4
     be0:	60b576cf          	fnmadd.s	fa3,fa0,fa1,fa2
     be4:	001028f3          	frflags	a7
     be8:	2ad7a827          	fsw	fa3,688(a5)
     bec:	2b17aa23          	sw	a7,692(a5)

00000bf0 <inst_87>:
     bf0:	41482507          	flw	fa0,1044(a6)
     bf4:	41882587          	flw	fa1,1048(a6)
     bf8:	41c82607          	flw	fa2,1052(a6)
     bfc:	0021d073          	fsrmi	zero,3
     c00:	60b576cf          	fnmadd.s	fa3,fa0,fa1,fa2
     c04:	001028f3          	frflags	a7
     c08:	2ad7ac27          	fsw	fa3,696(a5)
     c0c:	2b17ae23          	sw	a7,700(a5)

00000c10 <inst_88>:
     c10:	42082507          	flw	fa0,1056(a6)
     c14:	42482587          	flw	fa1,1060(a6)
     c18:	42882607          	flw	fa2,1064(a6)
     c1c:	00215073          	fsrmi	zero,2
     c20:	60b576cf          	fnmadd.s	fa3,fa0,fa1,fa2
     c24:	001028f3          	frflags	a7
     c28:	2cd7a027          	fsw	fa3,704(a5)
     c2c:	2d17a223          	sw	a7,708(a5)

00000c30 <inst_89>:
     c30:	42c82507          	flw	fa0,1068(a6)
     c34:	43082587          	flw	fa1,1072(a6)
     c38:	43482607          	flw	fa2,1076(a6)
     c3c:	0020d073          	fsrmi	zero,1
     c40:	60b576cf          	fnmadd.s	fa3,fa0,fa1,fa2
     c44:	001028f3          	frflags	a7
     c48:	2cd7a427          	fsw	fa3,712(a5)
     c4c:	2d17a623          	sw	a7,716(a5)

00000c50 <inst_90>:
     c50:	43882507          	flw	fa0,1080(a6)
     c54:	43c82587          	flw	fa1,1084(a6)
     c58:	44082607          	flw	fa2,1088(a6)
     c5c:	00205073          	fsrmi	zero,0
     c60:	60b576cf          	fnmadd.s	fa3,fa0,fa1,fa2
     c64:	001028f3          	frflags	a7
     c68:	2cd7a827          	fsw	fa3,720(a5)
     c6c:	2d17aa23          	sw	a7,724(a5)

00000c70 <inst_91>:
     c70:	44482507          	flw	fa0,1092(a6)
     c74:	44882587          	flw	fa1,1096(a6)
     c78:	44c82607          	flw	fa2,1100(a6)
     c7c:	00225073          	fsrmi	zero,4
     c80:	60b576cf          	fnmadd.s	fa3,fa0,fa1,fa2
     c84:	001028f3          	frflags	a7
     c88:	2cd7ac27          	fsw	fa3,728(a5)
     c8c:	2d17ae23          	sw	a7,732(a5)

00000c90 <inst_92>:
     c90:	45082507          	flw	fa0,1104(a6)
     c94:	45482587          	flw	fa1,1108(a6)
     c98:	45882607          	flw	fa2,1112(a6)
     c9c:	0021d073          	fsrmi	zero,3
     ca0:	60b576cf          	fnmadd.s	fa3,fa0,fa1,fa2
     ca4:	001028f3          	frflags	a7
     ca8:	2ed7a027          	fsw	fa3,736(a5)
     cac:	2f17a223          	sw	a7,740(a5)

00000cb0 <inst_93>:
     cb0:	45c82507          	flw	fa0,1116(a6)
     cb4:	46082587          	flw	fa1,1120(a6)
     cb8:	46482607          	flw	fa2,1124(a6)
     cbc:	00215073          	fsrmi	zero,2
     cc0:	60b576cf          	fnmadd.s	fa3,fa0,fa1,fa2
     cc4:	001028f3          	frflags	a7
     cc8:	2ed7a427          	fsw	fa3,744(a5)
     ccc:	2f17a623          	sw	a7,748(a5)

00000cd0 <inst_94>:
     cd0:	46882507          	flw	fa0,1128(a6)
     cd4:	46c82587          	flw	fa1,1132(a6)
     cd8:	47082607          	flw	fa2,1136(a6)
     cdc:	0020d073          	fsrmi	zero,1
     ce0:	60b576cf          	fnmadd.s	fa3,fa0,fa1,fa2
     ce4:	001028f3          	frflags	a7
     ce8:	2ed7a827          	fsw	fa3,752(a5)
     cec:	2f17aa23          	sw	a7,756(a5)

00000cf0 <inst_95>:
     cf0:	47482507          	flw	fa0,1140(a6)
     cf4:	47882587          	flw	fa1,1144(a6)
     cf8:	47c82607          	flw	fa2,1148(a6)
     cfc:	00205073          	fsrmi	zero,0
     d00:	60b576cf          	fnmadd.s	fa3,fa0,fa1,fa2
     d04:	001028f3          	frflags	a7
     d08:	2ed7ac27          	fsw	fa3,760(a5)
     d0c:	2f17ae23          	sw	a7,764(a5)

00000d10 <inst_96>:
     d10:	48082507          	flw	fa0,1152(a6)
     d14:	48482587          	flw	fa1,1156(a6)
     d18:	48882607          	flw	fa2,1160(a6)
     d1c:	00225073          	fsrmi	zero,4
     d20:	60b576cf          	fnmadd.s	fa3,fa0,fa1,fa2
     d24:	001028f3          	frflags	a7
     d28:	30d7a027          	fsw	fa3,768(a5)
     d2c:	3117a223          	sw	a7,772(a5)

00000d30 <inst_97>:
     d30:	48c82507          	flw	fa0,1164(a6)
     d34:	49082587          	flw	fa1,1168(a6)
     d38:	49482607          	flw	fa2,1172(a6)
     d3c:	0021d073          	fsrmi	zero,3
     d40:	60b576cf          	fnmadd.s	fa3,fa0,fa1,fa2
     d44:	001028f3          	frflags	a7
     d48:	30d7a427          	fsw	fa3,776(a5)
     d4c:	3117a623          	sw	a7,780(a5)

00000d50 <inst_98>:
     d50:	49882507          	flw	fa0,1176(a6)
     d54:	49c82587          	flw	fa1,1180(a6)
     d58:	4a082607          	flw	fa2,1184(a6)
     d5c:	00215073          	fsrmi	zero,2
     d60:	60b576cf          	fnmadd.s	fa3,fa0,fa1,fa2
     d64:	001028f3          	frflags	a7
     d68:	30d7a827          	fsw	fa3,784(a5)
     d6c:	3117aa23          	sw	a7,788(a5)

00000d70 <inst_99>:
     d70:	4a482507          	flw	fa0,1188(a6)
     d74:	4a882587          	flw	fa1,1192(a6)
     d78:	4ac82607          	flw	fa2,1196(a6)
     d7c:	0020d073          	fsrmi	zero,1
     d80:	60b576cf          	fnmadd.s	fa3,fa0,fa1,fa2
     d84:	001028f3          	frflags	a7
     d88:	30d7ac27          	fsw	fa3,792(a5)
     d8c:	3117ae23          	sw	a7,796(a5)

00000d90 <inst_100>:
     d90:	4b082507          	flw	fa0,1200(a6)
     d94:	4b482587          	flw	fa1,1204(a6)
     d98:	4b882607          	flw	fa2,1208(a6)
     d9c:	00205073          	fsrmi	zero,0
     da0:	60b576cf          	fnmadd.s	fa3,fa0,fa1,fa2
     da4:	001028f3          	frflags	a7
     da8:	32d7a027          	fsw	fa3,800(a5)
     dac:	3317a223          	sw	a7,804(a5)

00000db0 <inst_101>:
     db0:	4bc82507          	flw	fa0,1212(a6)
     db4:	4c082587          	flw	fa1,1216(a6)
     db8:	4c482607          	flw	fa2,1220(a6)
     dbc:	00225073          	fsrmi	zero,4
     dc0:	60b576cf          	fnmadd.s	fa3,fa0,fa1,fa2
     dc4:	001028f3          	frflags	a7
     dc8:	32d7a427          	fsw	fa3,808(a5)
     dcc:	3317a623          	sw	a7,812(a5)

00000dd0 <inst_102>:
     dd0:	4c882507          	flw	fa0,1224(a6)
     dd4:	4cc82587          	flw	fa1,1228(a6)
     dd8:	4d082607          	flw	fa2,1232(a6)
     ddc:	0021d073          	fsrmi	zero,3
     de0:	60b576cf          	fnmadd.s	fa3,fa0,fa1,fa2
     de4:	001028f3          	frflags	a7
     de8:	32d7a827          	fsw	fa3,816(a5)
     dec:	3317aa23          	sw	a7,820(a5)

00000df0 <inst_103>:
     df0:	4d482507          	flw	fa0,1236(a6)
     df4:	4d882587          	flw	fa1,1240(a6)
     df8:	4dc82607          	flw	fa2,1244(a6)
     dfc:	00215073          	fsrmi	zero,2
     e00:	60b576cf          	fnmadd.s	fa3,fa0,fa1,fa2
     e04:	001028f3          	frflags	a7
     e08:	32d7ac27          	fsw	fa3,824(a5)
     e0c:	3317ae23          	sw	a7,828(a5)

00000e10 <inst_104>:
     e10:	4e082507          	flw	fa0,1248(a6)
     e14:	4e482587          	flw	fa1,1252(a6)
     e18:	4e882607          	flw	fa2,1256(a6)
     e1c:	0020d073          	fsrmi	zero,1
     e20:	60b576cf          	fnmadd.s	fa3,fa0,fa1,fa2
     e24:	001028f3          	frflags	a7
     e28:	34d7a027          	fsw	fa3,832(a5)
     e2c:	3517a223          	sw	a7,836(a5)

00000e30 <inst_105>:
     e30:	4ec82507          	flw	fa0,1260(a6)
     e34:	4f082587          	flw	fa1,1264(a6)
     e38:	4f482607          	flw	fa2,1268(a6)
     e3c:	00205073          	fsrmi	zero,0
     e40:	60b576cf          	fnmadd.s	fa3,fa0,fa1,fa2
     e44:	001028f3          	frflags	a7
     e48:	34d7a427          	fsw	fa3,840(a5)
     e4c:	3517a623          	sw	a7,844(a5)

00000e50 <inst_106>:
     e50:	4f882507          	flw	fa0,1272(a6)
     e54:	4fc82587          	flw	fa1,1276(a6)
     e58:	50082607          	flw	fa2,1280(a6)
     e5c:	00225073          	fsrmi	zero,4
     e60:	60b576cf          	fnmadd.s	fa3,fa0,fa1,fa2
     e64:	001028f3          	frflags	a7
     e68:	34d7a827          	fsw	fa3,848(a5)
     e6c:	3517aa23          	sw	a7,852(a5)

00000e70 <inst_107>:
     e70:	50482507          	flw	fa0,1284(a6)
     e74:	50882587          	flw	fa1,1288(a6)
     e78:	50c82607          	flw	fa2,1292(a6)
     e7c:	0021d073          	fsrmi	zero,3
     e80:	60b576cf          	fnmadd.s	fa3,fa0,fa1,fa2
     e84:	001028f3          	frflags	a7
     e88:	34d7ac27          	fsw	fa3,856(a5)
     e8c:	3517ae23          	sw	a7,860(a5)

00000e90 <inst_108>:
     e90:	51082507          	flw	fa0,1296(a6)
     e94:	51482587          	flw	fa1,1300(a6)
     e98:	51882607          	flw	fa2,1304(a6)
     e9c:	00215073          	fsrmi	zero,2
     ea0:	60b576cf          	fnmadd.s	fa3,fa0,fa1,fa2
     ea4:	001028f3          	frflags	a7
     ea8:	36d7a027          	fsw	fa3,864(a5)
     eac:	3717a223          	sw	a7,868(a5)

00000eb0 <inst_109>:
     eb0:	51c82507          	flw	fa0,1308(a6)
     eb4:	52082587          	flw	fa1,1312(a6)
     eb8:	52482607          	flw	fa2,1316(a6)
     ebc:	0020d073          	fsrmi	zero,1
     ec0:	60b576cf          	fnmadd.s	fa3,fa0,fa1,fa2
     ec4:	001028f3          	frflags	a7
     ec8:	36d7a427          	fsw	fa3,872(a5)
     ecc:	3717a623          	sw	a7,876(a5)

00000ed0 <inst_110>:
     ed0:	52882507          	flw	fa0,1320(a6)
     ed4:	52c82587          	flw	fa1,1324(a6)
     ed8:	53082607          	flw	fa2,1328(a6)
     edc:	00205073          	fsrmi	zero,0
     ee0:	60b576cf          	fnmadd.s	fa3,fa0,fa1,fa2
     ee4:	001028f3          	frflags	a7
     ee8:	36d7a827          	fsw	fa3,880(a5)
     eec:	3717aa23          	sw	a7,884(a5)

00000ef0 <inst_111>:
     ef0:	53482507          	flw	fa0,1332(a6)
     ef4:	53882587          	flw	fa1,1336(a6)
     ef8:	53c82607          	flw	fa2,1340(a6)
     efc:	00225073          	fsrmi	zero,4
     f00:	60b576cf          	fnmadd.s	fa3,fa0,fa1,fa2
     f04:	001028f3          	frflags	a7
     f08:	36d7ac27          	fsw	fa3,888(a5)
     f0c:	3717ae23          	sw	a7,892(a5)

00000f10 <inst_112>:
     f10:	54082507          	flw	fa0,1344(a6)
     f14:	54482587          	flw	fa1,1348(a6)
     f18:	54882607          	flw	fa2,1352(a6)
     f1c:	0021d073          	fsrmi	zero,3
     f20:	60b576cf          	fnmadd.s	fa3,fa0,fa1,fa2
     f24:	001028f3          	frflags	a7
     f28:	38d7a027          	fsw	fa3,896(a5)
     f2c:	3917a223          	sw	a7,900(a5)

00000f30 <inst_113>:
     f30:	54c82507          	flw	fa0,1356(a6)
     f34:	55082587          	flw	fa1,1360(a6)
     f38:	55482607          	flw	fa2,1364(a6)
     f3c:	00215073          	fsrmi	zero,2
     f40:	60b576cf          	fnmadd.s	fa3,fa0,fa1,fa2
     f44:	001028f3          	frflags	a7
     f48:	38d7a427          	fsw	fa3,904(a5)
     f4c:	3917a623          	sw	a7,908(a5)

00000f50 <inst_114>:
     f50:	55882507          	flw	fa0,1368(a6)
     f54:	55c82587          	flw	fa1,1372(a6)
     f58:	56082607          	flw	fa2,1376(a6)
     f5c:	0020d073          	fsrmi	zero,1
     f60:	60b576cf          	fnmadd.s	fa3,fa0,fa1,fa2
     f64:	001028f3          	frflags	a7
     f68:	38d7a827          	fsw	fa3,912(a5)
     f6c:	3917aa23          	sw	a7,916(a5)

00000f70 <inst_115>:
     f70:	56482507          	flw	fa0,1380(a6)
     f74:	56882587          	flw	fa1,1384(a6)
     f78:	56c82607          	flw	fa2,1388(a6)
     f7c:	00205073          	fsrmi	zero,0
     f80:	60b576cf          	fnmadd.s	fa3,fa0,fa1,fa2
     f84:	001028f3          	frflags	a7
     f88:	38d7ac27          	fsw	fa3,920(a5)
     f8c:	3917ae23          	sw	a7,924(a5)

00000f90 <inst_116>:
     f90:	57082507          	flw	fa0,1392(a6)
     f94:	57482587          	flw	fa1,1396(a6)
     f98:	57882607          	flw	fa2,1400(a6)
     f9c:	00225073          	fsrmi	zero,4
     fa0:	60b576cf          	fnmadd.s	fa3,fa0,fa1,fa2
     fa4:	001028f3          	frflags	a7
     fa8:	3ad7a027          	fsw	fa3,928(a5)
     fac:	3b17a223          	sw	a7,932(a5)

00000fb0 <inst_117>:
     fb0:	57c82507          	flw	fa0,1404(a6)
     fb4:	58082587          	flw	fa1,1408(a6)
     fb8:	58482607          	flw	fa2,1412(a6)
     fbc:	0021d073          	fsrmi	zero,3
     fc0:	60b576cf          	fnmadd.s	fa3,fa0,fa1,fa2
     fc4:	001028f3          	frflags	a7
     fc8:	3ad7a427          	fsw	fa3,936(a5)
     fcc:	3b17a623          	sw	a7,940(a5)

00000fd0 <inst_118>:
     fd0:	58882507          	flw	fa0,1416(a6)
     fd4:	58c82587          	flw	fa1,1420(a6)
     fd8:	59082607          	flw	fa2,1424(a6)
     fdc:	00215073          	fsrmi	zero,2
     fe0:	60b576cf          	fnmadd.s	fa3,fa0,fa1,fa2
     fe4:	001028f3          	frflags	a7
     fe8:	3ad7a827          	fsw	fa3,944(a5)
     fec:	3b17aa23          	sw	a7,948(a5)

00000ff0 <inst_119>:
     ff0:	59482507          	flw	fa0,1428(a6)
     ff4:	59882587          	flw	fa1,1432(a6)
     ff8:	59c82607          	flw	fa2,1436(a6)
     ffc:	0020d073          	fsrmi	zero,1
    1000:	60b576cf          	fnmadd.s	fa3,fa0,fa1,fa2
    1004:	001028f3          	frflags	a7
    1008:	3ad7ac27          	fsw	fa3,952(a5)
    100c:	3b17ae23          	sw	a7,956(a5)

00001010 <inst_120>:
    1010:	5a082507          	flw	fa0,1440(a6)
    1014:	5a482587          	flw	fa1,1444(a6)
    1018:	5a882607          	flw	fa2,1448(a6)
    101c:	00205073          	fsrmi	zero,0
    1020:	60b576cf          	fnmadd.s	fa3,fa0,fa1,fa2
    1024:	001028f3          	frflags	a7
    1028:	3cd7a027          	fsw	fa3,960(a5)
    102c:	3d17a223          	sw	a7,964(a5)

00001030 <inst_121>:
    1030:	5ac82507          	flw	fa0,1452(a6)
    1034:	5b082587          	flw	fa1,1456(a6)
    1038:	5b482607          	flw	fa2,1460(a6)
    103c:	00225073          	fsrmi	zero,4
    1040:	60b576cf          	fnmadd.s	fa3,fa0,fa1,fa2
    1044:	001028f3          	frflags	a7
    1048:	3cd7a427          	fsw	fa3,968(a5)
    104c:	3d17a623          	sw	a7,972(a5)

00001050 <inst_122>:
    1050:	5b882507          	flw	fa0,1464(a6)
    1054:	5bc82587          	flw	fa1,1468(a6)
    1058:	5c082607          	flw	fa2,1472(a6)
    105c:	0021d073          	fsrmi	zero,3
    1060:	60b576cf          	fnmadd.s	fa3,fa0,fa1,fa2
    1064:	001028f3          	frflags	a7
    1068:	3cd7a827          	fsw	fa3,976(a5)
    106c:	3d17aa23          	sw	a7,980(a5)

00001070 <inst_123>:
    1070:	5c482507          	flw	fa0,1476(a6)
    1074:	5c882587          	flw	fa1,1480(a6)
    1078:	5cc82607          	flw	fa2,1484(a6)
    107c:	00215073          	fsrmi	zero,2
    1080:	60b576cf          	fnmadd.s	fa3,fa0,fa1,fa2
    1084:	001028f3          	frflags	a7
    1088:	3cd7ac27          	fsw	fa3,984(a5)
    108c:	3d17ae23          	sw	a7,988(a5)

00001090 <inst_124>:
    1090:	5d082507          	flw	fa0,1488(a6)
    1094:	5d482587          	flw	fa1,1492(a6)
    1098:	5d882607          	flw	fa2,1496(a6)
    109c:	0020d073          	fsrmi	zero,1
    10a0:	60b576cf          	fnmadd.s	fa3,fa0,fa1,fa2
    10a4:	001028f3          	frflags	a7
    10a8:	3ed7a027          	fsw	fa3,992(a5)
    10ac:	3f17a223          	sw	a7,996(a5)

000010b0 <inst_125>:
    10b0:	5dc82507          	flw	fa0,1500(a6)
    10b4:	5e082587          	flw	fa1,1504(a6)
    10b8:	5e482607          	flw	fa2,1508(a6)
    10bc:	00205073          	fsrmi	zero,0
    10c0:	60b576cf          	fnmadd.s	fa3,fa0,fa1,fa2
    10c4:	001028f3          	frflags	a7
    10c8:	3ed7a427          	fsw	fa3,1000(a5)
    10cc:	3f17a623          	sw	a7,1004(a5)

000010d0 <inst_126>:
    10d0:	5e882507          	flw	fa0,1512(a6)
    10d4:	5ec82587          	flw	fa1,1516(a6)
    10d8:	5f082607          	flw	fa2,1520(a6)
    10dc:	00225073          	fsrmi	zero,4
    10e0:	60b576cf          	fnmadd.s	fa3,fa0,fa1,fa2
    10e4:	001028f3          	frflags	a7
    10e8:	3ed7a827          	fsw	fa3,1008(a5)
    10ec:	3f17aa23          	sw	a7,1012(a5)

000010f0 <inst_127>:
    10f0:	5f482507          	flw	fa0,1524(a6)
    10f4:	5f882587          	flw	fa1,1528(a6)
    10f8:	5fc82607          	flw	fa2,1532(a6)
    10fc:	0021d073          	fsrmi	zero,3
    1100:	60b576cf          	fnmadd.s	fa3,fa0,fa1,fa2
    1104:	001028f3          	frflags	a7
    1108:	3ed7ac27          	fsw	fa3,1016(a5)
    110c:	3f17ae23          	sw	a7,1020(a5)

00001110 <inst_128>:
    1110:	60082507          	flw	fa0,1536(a6)
    1114:	60482587          	flw	fa1,1540(a6)
    1118:	60882607          	flw	fa2,1544(a6)
    111c:	00215073          	fsrmi	zero,2
    1120:	60b576cf          	fnmadd.s	fa3,fa0,fa1,fa2
    1124:	001028f3          	frflags	a7
    1128:	40d7a027          	fsw	fa3,1024(a5)
    112c:	4117a223          	sw	a7,1028(a5)

00001130 <inst_129>:
    1130:	60c82507          	flw	fa0,1548(a6)
    1134:	61082587          	flw	fa1,1552(a6)
    1138:	61482607          	flw	fa2,1556(a6)
    113c:	0020d073          	fsrmi	zero,1
    1140:	60b576cf          	fnmadd.s	fa3,fa0,fa1,fa2
    1144:	001028f3          	frflags	a7
    1148:	40d7a427          	fsw	fa3,1032(a5)
    114c:	4117a623          	sw	a7,1036(a5)

00001150 <inst_130>:
    1150:	61882507          	flw	fa0,1560(a6)
    1154:	61c82587          	flw	fa1,1564(a6)
    1158:	62082607          	flw	fa2,1568(a6)
    115c:	00205073          	fsrmi	zero,0
    1160:	60b576cf          	fnmadd.s	fa3,fa0,fa1,fa2
    1164:	001028f3          	frflags	a7
    1168:	40d7a827          	fsw	fa3,1040(a5)
    116c:	4117aa23          	sw	a7,1044(a5)

00001170 <inst_131>:
    1170:	62482507          	flw	fa0,1572(a6)
    1174:	62882587          	flw	fa1,1576(a6)
    1178:	62c82607          	flw	fa2,1580(a6)
    117c:	00225073          	fsrmi	zero,4
    1180:	60b576cf          	fnmadd.s	fa3,fa0,fa1,fa2
    1184:	001028f3          	frflags	a7
    1188:	40d7ac27          	fsw	fa3,1048(a5)
    118c:	4117ae23          	sw	a7,1052(a5)

00001190 <inst_132>:
    1190:	63082507          	flw	fa0,1584(a6)
    1194:	63482587          	flw	fa1,1588(a6)
    1198:	63882607          	flw	fa2,1592(a6)
    119c:	0021d073          	fsrmi	zero,3
    11a0:	60b576cf          	fnmadd.s	fa3,fa0,fa1,fa2
    11a4:	001028f3          	frflags	a7
    11a8:	42d7a027          	fsw	fa3,1056(a5)
    11ac:	4317a223          	sw	a7,1060(a5)

000011b0 <inst_133>:
    11b0:	63c82507          	flw	fa0,1596(a6)
    11b4:	64082587          	flw	fa1,1600(a6)
    11b8:	64482607          	flw	fa2,1604(a6)
    11bc:	00215073          	fsrmi	zero,2
    11c0:	60b576cf          	fnmadd.s	fa3,fa0,fa1,fa2
    11c4:	001028f3          	frflags	a7
    11c8:	42d7a427          	fsw	fa3,1064(a5)
    11cc:	4317a623          	sw	a7,1068(a5)

000011d0 <inst_134>:
    11d0:	64882507          	flw	fa0,1608(a6)
    11d4:	64c82587          	flw	fa1,1612(a6)
    11d8:	65082607          	flw	fa2,1616(a6)
    11dc:	0020d073          	fsrmi	zero,1
    11e0:	60b576cf          	fnmadd.s	fa3,fa0,fa1,fa2
    11e4:	001028f3          	frflags	a7
    11e8:	42d7a827          	fsw	fa3,1072(a5)
    11ec:	4317aa23          	sw	a7,1076(a5)

000011f0 <inst_135>:
    11f0:	65482507          	flw	fa0,1620(a6)
    11f4:	65882587          	flw	fa1,1624(a6)
    11f8:	65c82607          	flw	fa2,1628(a6)
    11fc:	00205073          	fsrmi	zero,0
    1200:	60b576cf          	fnmadd.s	fa3,fa0,fa1,fa2
    1204:	001028f3          	frflags	a7
    1208:	42d7ac27          	fsw	fa3,1080(a5)
    120c:	4317ae23          	sw	a7,1084(a5)

00001210 <inst_136>:
    1210:	66082507          	flw	fa0,1632(a6)
    1214:	66482587          	flw	fa1,1636(a6)
    1218:	66882607          	flw	fa2,1640(a6)
    121c:	00225073          	fsrmi	zero,4
    1220:	60b576cf          	fnmadd.s	fa3,fa0,fa1,fa2
    1224:	001028f3          	frflags	a7
    1228:	44d7a027          	fsw	fa3,1088(a5)
    122c:	4517a223          	sw	a7,1092(a5)

00001230 <inst_137>:
    1230:	66c82507          	flw	fa0,1644(a6)
    1234:	67082587          	flw	fa1,1648(a6)
    1238:	67482607          	flw	fa2,1652(a6)
    123c:	0021d073          	fsrmi	zero,3
    1240:	60b576cf          	fnmadd.s	fa3,fa0,fa1,fa2
    1244:	001028f3          	frflags	a7
    1248:	44d7a427          	fsw	fa3,1096(a5)
    124c:	4517a623          	sw	a7,1100(a5)

00001250 <inst_138>:
    1250:	67882507          	flw	fa0,1656(a6)
    1254:	67c82587          	flw	fa1,1660(a6)
    1258:	68082607          	flw	fa2,1664(a6)
    125c:	00215073          	fsrmi	zero,2
    1260:	60b576cf          	fnmadd.s	fa3,fa0,fa1,fa2
    1264:	001028f3          	frflags	a7
    1268:	44d7a827          	fsw	fa3,1104(a5)
    126c:	4517aa23          	sw	a7,1108(a5)

00001270 <inst_139>:
    1270:	68482507          	flw	fa0,1668(a6)
    1274:	68882587          	flw	fa1,1672(a6)
    1278:	68c82607          	flw	fa2,1676(a6)
    127c:	0020d073          	fsrmi	zero,1
    1280:	60b576cf          	fnmadd.s	fa3,fa0,fa1,fa2
    1284:	001028f3          	frflags	a7
    1288:	44d7ac27          	fsw	fa3,1112(a5)
    128c:	4517ae23          	sw	a7,1116(a5)

00001290 <inst_140>:
    1290:	69082507          	flw	fa0,1680(a6)
    1294:	69482587          	flw	fa1,1684(a6)
    1298:	69882607          	flw	fa2,1688(a6)
    129c:	00225073          	fsrmi	zero,4
    12a0:	60b576cf          	fnmadd.s	fa3,fa0,fa1,fa2
    12a4:	001028f3          	frflags	a7
    12a8:	46d7a027          	fsw	fa3,1120(a5)
    12ac:	4717a223          	sw	a7,1124(a5)

000012b0 <inst_141>:
    12b0:	69c82507          	flw	fa0,1692(a6)
    12b4:	6a082587          	flw	fa1,1696(a6)
    12b8:	6a482607          	flw	fa2,1700(a6)
    12bc:	0021d073          	fsrmi	zero,3
    12c0:	60b576cf          	fnmadd.s	fa3,fa0,fa1,fa2
    12c4:	001028f3          	frflags	a7
    12c8:	46d7a427          	fsw	fa3,1128(a5)
    12cc:	4717a623          	sw	a7,1132(a5)

000012d0 <inst_142>:
    12d0:	6a882507          	flw	fa0,1704(a6)
    12d4:	6ac82587          	flw	fa1,1708(a6)
    12d8:	6b082607          	flw	fa2,1712(a6)
    12dc:	0020d073          	fsrmi	zero,1
    12e0:	60b576cf          	fnmadd.s	fa3,fa0,fa1,fa2
    12e4:	001028f3          	frflags	a7
    12e8:	46d7a827          	fsw	fa3,1136(a5)
    12ec:	4717aa23          	sw	a7,1140(a5)

000012f0 <inst_143>:
    12f0:	6b482507          	flw	fa0,1716(a6)
    12f4:	6b882587          	flw	fa1,1720(a6)
    12f8:	6bc82607          	flw	fa2,1724(a6)
    12fc:	00205073          	fsrmi	zero,0
    1300:	60b576cf          	fnmadd.s	fa3,fa0,fa1,fa2
    1304:	001028f3          	frflags	a7
    1308:	46d7ac27          	fsw	fa3,1144(a5)
    130c:	4717ae23          	sw	a7,1148(a5)

00001310 <inst_144>:
    1310:	6c082507          	flw	fa0,1728(a6)
    1314:	6c482587          	flw	fa1,1732(a6)
    1318:	6c882607          	flw	fa2,1736(a6)
    131c:	00225073          	fsrmi	zero,4
    1320:	60b576cf          	fnmadd.s	fa3,fa0,fa1,fa2
    1324:	001028f3          	frflags	a7
    1328:	48d7a027          	fsw	fa3,1152(a5)
    132c:	4917a223          	sw	a7,1156(a5)

00001330 <inst_145>:
    1330:	6cc82507          	flw	fa0,1740(a6)
    1334:	6d082587          	flw	fa1,1744(a6)
    1338:	6d482607          	flw	fa2,1748(a6)
    133c:	0021d073          	fsrmi	zero,3
    1340:	60b576cf          	fnmadd.s	fa3,fa0,fa1,fa2
    1344:	001028f3          	frflags	a7
    1348:	48d7a427          	fsw	fa3,1160(a5)
    134c:	4917a623          	sw	a7,1164(a5)

00001350 <inst_146>:
    1350:	6d882507          	flw	fa0,1752(a6)
    1354:	6dc82587          	flw	fa1,1756(a6)
    1358:	6e082607          	flw	fa2,1760(a6)
    135c:	00215073          	fsrmi	zero,2
    1360:	60b576cf          	fnmadd.s	fa3,fa0,fa1,fa2
    1364:	001028f3          	frflags	a7
    1368:	48d7a827          	fsw	fa3,1168(a5)
    136c:	4917aa23          	sw	a7,1172(a5)

00001370 <inst_147>:
    1370:	6e482507          	flw	fa0,1764(a6)
    1374:	6e882587          	flw	fa1,1768(a6)
    1378:	6ec82607          	flw	fa2,1772(a6)
    137c:	00205073          	fsrmi	zero,0
    1380:	60b576cf          	fnmadd.s	fa3,fa0,fa1,fa2
    1384:	001028f3          	frflags	a7
    1388:	48d7ac27          	fsw	fa3,1176(a5)
    138c:	4917ae23          	sw	a7,1180(a5)

00001390 <inst_148>:
    1390:	6f082507          	flw	fa0,1776(a6)
    1394:	6f482587          	flw	fa1,1780(a6)
    1398:	6f882607          	flw	fa2,1784(a6)
    139c:	00225073          	fsrmi	zero,4
    13a0:	60b576cf          	fnmadd.s	fa3,fa0,fa1,fa2
    13a4:	001028f3          	frflags	a7
    13a8:	4ad7a027          	fsw	fa3,1184(a5)
    13ac:	4b17a223          	sw	a7,1188(a5)

000013b0 <rvtest_code_end>:
    13b0:	00001517          	auipc	a0,0x1
    13b4:	35050513          	add	a0,a0,848 # 2700 <data_begin>
    13b8:	00001597          	auipc	a1,0x1
    13bc:	7f858593          	add	a1,a1,2040 # 2bb0 <_end>
    13c0:	80001637          	lui	a2,0x80001
    13c4:	00860613          	add	a2,a2,8 # 80001008 <_end+0x7fffe458>

000013c8 <compliance_halt_loop>:
    13c8:	06b50063          	beq	a0,a1,1428 <compliance_halt_break>
    13cc:	00450693          	add	a3,a0,4

000013d0 <compliance_halt_loop2>:
    13d0:	fff68693          	add	a3,a3,-1
    13d4:	00068703          	lb	a4,0(a3)
    13d8:	40475793          	sra	a5,a4,0x4
    13dc:	00f7f793          	and	a5,a5,15
    13e0:	00a00813          	li	a6,10
    13e4:	0107c463          	blt	a5,a6,13ec <notLetter>
    13e8:	02778793          	add	a5,a5,39

000013ec <notLetter>:
    13ec:	03078793          	add	a5,a5,48
    13f0:	00f60023          	sb	a5,0(a2)
    13f4:	40075793          	sra	a5,a4,0x0
    13f8:	00f7f793          	and	a5,a5,15
    13fc:	00a00813          	li	a6,10
    1400:	0107c463          	blt	a5,a6,1408 <notLetter2>
    1404:	02778793          	add	a5,a5,39

00001408 <notLetter2>:
    1408:	03078793          	add	a5,a5,48
    140c:	00f60023          	sb	a5,0(a2)
    1410:	fcd510e3          	bne	a0,a3,13d0 <compliance_halt_loop2>
    1414:	00450513          	add	a0,a0,4
    1418:	00a00713          	li	a4,10
    141c:	00e60023          	sb	a4,0(a2)
    1420:	fa9ff06f          	j	13c8 <compliance_halt_loop>
    1424:	0040006f          	j	1428 <compliance_halt_break>

00001428 <compliance_halt_break>:
    1428:	80001537          	lui	a0,0x80001
    142c:	00950513          	add	a0,a0,9 # 80001009 <_end+0x7fffe459>
    1430:	00d50023          	sb	a3,0(a0)
    1434:	0000                	.2byte	0x0
	...

Desensamblado de la sección .data:

00002000 <rvtest_data_begin>:
    2000:	cafe                	.2byte	0xcafe
    2002:	babe                	.2byte	0xbabe

00002004 <test_fp>:
    2004:	0d4b0ecf          	.4byte	0xd4b0ecf
    2008:	3dd67a4f          	.4byte	0x3dd67a4f
    200c:	1f65                	.2byte	0x1f65
    200e:	0baa                	.2byte	0xbaa
    2010:	cb99                	.2byte	0xcb99
    2012:	0d92                	.2byte	0xd92
    2014:	0a09                	.2byte	0xa09
    2016:	3f21                	.2byte	0x3f21
    2018:	af9a                	.2byte	0xaf9a
    201a:	0d38                	.2byte	0xd38
    201c:	cb99                	.2byte	0xcb99
    201e:	0d92                	.2byte	0xd92
    2020:	cb99                	.2byte	0xcb99
    2022:	0d92                	.2byte	0xd92
    2024:	af9a                	.2byte	0xaf9a
    2026:	0d38                	.2byte	0xd38
    2028:	cb99                	.2byte	0xcb99
    202a:	0d92                	.2byte	0xd92
    202c:	0a09                	.2byte	0xa09
    202e:	3f21                	.2byte	0x3f21
    2030:	af9a                	.2byte	0xaf9a
    2032:	0d38                	.2byte	0xd38
    2034:	cb99                	.2byte	0xcb99
    2036:	0d92                	.2byte	0xd92
    2038:	0a09                	.2byte	0xa09
    203a:	3f21                	.2byte	0x3f21
    203c:	0a09                	.2byte	0xa09
    203e:	3f21                	.2byte	0x3f21
    2040:	cb99                	.2byte	0xcb99
    2042:	0d92                	.2byte	0xd92
    2044:	cb99                	.2byte	0xcb99
    2046:	0d92                	.2byte	0xd92
    2048:	cb99                	.2byte	0xcb99
    204a:	0d92                	.2byte	0xd92
    204c:	a57c                	.2byte	0xa57c
    204e:	a57c0d8b          	.4byte	0xa57c0d8b
    2052:	a57c0d8b          	.4byte	0xa57c0d8b
    2056:	a57c0d8b          	.4byte	0xa57c0d8b
    205a:	77880d8b          	.4byte	0x77880d8b
    205e:	a57c3f8f          	.4byte	0xa57c3f8f
    2062:	a57c0d8b          	.4byte	0xa57c0d8b
    2066:	77880d8b          	.4byte	0x77880d8b
    206a:	77883f8f          	.4byte	0x77883f8f
    206e:	a57c3f8f          	.4byte	0xa57c3f8f
    2072:	77880d8b          	.4byte	0x77880d8b
    2076:	85483f8f          	.4byte	0x85483f8f
    207a:	0d9c                	.2byte	0xd9c
    207c:	a57c                	.2byte	0xa57c
    207e:	a57c0d8b          	.4byte	0xa57c0d8b
    2082:	85480d8b          	.4byte	0x85480d8b
    2086:	0d9c                	.2byte	0xd9c
    2088:	d739                	.2byte	0xd739
    208a:	0d59                	.2byte	0xd59
    208c:	cd3d                	.2byte	0xcd3d
    208e:	3e78                	.2byte	0x3e78
    2090:	d739                	.2byte	0xd739
    2092:	0d59                	.2byte	0xd59
    2094:	d739                	.2byte	0xd739
    2096:	0d59                	.2byte	0xd59
    2098:	cd3d                	.2byte	0xcd3d
    209a:	3e78                	.2byte	0x3e78
    209c:	b725                	.2byte	0xb725
    209e:	d7390c53          	.4byte	0xd7390c53
    20a2:	0d59                	.2byte	0xd59
    20a4:	cd3d                	.2byte	0xcd3d
    20a6:	3e78                	.2byte	0x3e78
    20a8:	b725                	.2byte	0xb725
    20aa:	d7390c53          	.4byte	0xd7390c53
    20ae:	0d59                	.2byte	0xd59
    20b0:	cd3d                	.2byte	0xcd3d
    20b2:	3e78                	.2byte	0x3e78
    20b4:	b725                	.2byte	0xb725
    20b6:	d7390c53          	.4byte	0xd7390c53
    20ba:	0d59                	.2byte	0xd59
    20bc:	cd3d                	.2byte	0xcd3d
    20be:	3e78                	.2byte	0x3e78
    20c0:	b725                	.2byte	0xb725
    20c2:	f57c0c53          	.4byte	0xf57c0c53
    20c6:	0d8a                	.2byte	0xd8a
    20c8:	1db5                	.2byte	0x1db5
    20ca:	3f94                	.2byte	0x3f94
    20cc:	cc19                	.2byte	0xcc19
    20ce:	0da0                	.2byte	0xda0
    20d0:	f57c                	.2byte	0xf57c
    20d2:	0d8a                	.2byte	0xd8a
    20d4:	1db5                	.2byte	0x1db5
    20d6:	3f94                	.2byte	0x3f94
    20d8:	cc19                	.2byte	0xcc19
    20da:	0da0                	.2byte	0xda0
    20dc:	f57c                	.2byte	0xf57c
    20de:	0d8a                	.2byte	0xd8a
    20e0:	1db5                	.2byte	0x1db5
    20e2:	3f94                	.2byte	0x3f94
    20e4:	cc19                	.2byte	0xcc19
    20e6:	0da0                	.2byte	0xda0
    20e8:	f57c                	.2byte	0xf57c
    20ea:	0d8a                	.2byte	0xd8a
    20ec:	1db5                	.2byte	0x1db5
    20ee:	3f94                	.2byte	0x3f94
    20f0:	cc19                	.2byte	0xcc19
    20f2:	0da0                	.2byte	0xda0
    20f4:	f57c                	.2byte	0xf57c
    20f6:	0d8a                	.2byte	0xd8a
    20f8:	1db5                	.2byte	0x1db5
    20fa:	3f94                	.2byte	0x3f94
    20fc:	cc19                	.2byte	0xcc19
    20fe:	0da0                	.2byte	0xda0
    2100:	0d5d50db          	.4byte	0xd5d50db
    2104:	5a25                	.2byte	0x5a25
    2106:	3fae                	.2byte	0x3fae
    2108:	0d96bae3          	.4byte	0xd96bae3
    210c:	0d5d50db          	.4byte	0xd5d50db
    2110:	5a25                	.2byte	0x5a25
    2112:	3fae                	.2byte	0x3fae
    2114:	0d96bae3          	.4byte	0xd96bae3
    2118:	0d5d50db          	.4byte	0xd5d50db
    211c:	5a25                	.2byte	0x5a25
    211e:	3fae                	.2byte	0x3fae
    2120:	0d96bae3          	.4byte	0xd96bae3
    2124:	0d5d50db          	.4byte	0xd5d50db
    2128:	5a25                	.2byte	0x5a25
    212a:	3fae                	.2byte	0x3fae
    212c:	0d96bae3          	.4byte	0xd96bae3
    2130:	0d5d50db          	.4byte	0xd5d50db
    2134:	5a25                	.2byte	0x5a25
    2136:	3fae                	.2byte	0x3fae
    2138:	0d96bae3          	.4byte	0xd96bae3
    213c:	99bd                	.2byte	0x99bd
    213e:	0d3d                	.2byte	0xd3d
    2140:	1886                	.2byte	0x1886
    2142:	3fc6                	.2byte	0x3fc6
    2144:	b712                	.2byte	0xb712
    2146:	0d92                	.2byte	0xd92
    2148:	99bd                	.2byte	0x99bd
    214a:	0d3d                	.2byte	0xd3d
    214c:	1886                	.2byte	0x1886
    214e:	3fc6                	.2byte	0x3fc6
    2150:	b712                	.2byte	0xb712
    2152:	0d92                	.2byte	0xd92
    2154:	99bd                	.2byte	0x99bd
    2156:	0d3d                	.2byte	0xd3d
    2158:	1886                	.2byte	0x1886
    215a:	3fc6                	.2byte	0x3fc6
    215c:	b712                	.2byte	0xb712
    215e:	0d92                	.2byte	0xd92
    2160:	99bd                	.2byte	0x99bd
    2162:	0d3d                	.2byte	0xd3d
    2164:	1886                	.2byte	0x1886
    2166:	3fc6                	.2byte	0x3fc6
    2168:	b712                	.2byte	0xb712
    216a:	0d92                	.2byte	0xd92
    216c:	99bd                	.2byte	0x99bd
    216e:	0d3d                	.2byte	0xd3d
    2170:	1886                	.2byte	0x1886
    2172:	3fc6                	.2byte	0x3fc6
    2174:	b712                	.2byte	0xb712
    2176:	0d92                	.2byte	0xd92
    2178:	c101                	.2byte	0xc101
    217a:	6a2f0ce3          	beq	t5,sp,3032 <_end+0x482>
    217e:	3fd5                	.2byte	0x3fd5
    2180:	de0e                	.2byte	0xde0e
    2182:	0d3d                	.2byte	0xd3d
    2184:	c101                	.2byte	0xc101
    2186:	6a2f0ce3          	beq	t5,sp,303e <_end+0x48e>
    218a:	3fd5                	.2byte	0x3fd5
    218c:	de0e                	.2byte	0xde0e
    218e:	0d3d                	.2byte	0xd3d
    2190:	c101                	.2byte	0xc101
    2192:	6a2f0ce3          	beq	t5,sp,304a <_end+0x49a>
    2196:	3fd5                	.2byte	0x3fd5
    2198:	de0e                	.2byte	0xde0e
    219a:	0d3d                	.2byte	0xd3d
    219c:	c101                	.2byte	0xc101
    219e:	6a2f0ce3          	beq	t5,sp,3056 <_end+0x4a6>
    21a2:	3fd5                	.2byte	0x3fd5
    21a4:	de0e                	.2byte	0xde0e
    21a6:	0d3d                	.2byte	0xd3d
    21a8:	c101                	.2byte	0xc101
    21aa:	6a2f0ce3          	beq	t5,sp,3062 <_end+0x4b2>
    21ae:	3fd5                	.2byte	0x3fd5
    21b0:	de0e                	.2byte	0xde0e
    21b2:	0d3d                	.2byte	0xd3d
    21b4:	9c19                	.2byte	0x9c19
    21b6:	0d24                	.2byte	0xd24
    21b8:	3f42be13          	sltiu	t3,t0,1012
    21bc:	0cfa7107          	.4byte	0xcfa7107
    21c0:	9c19                	.2byte	0x9c19
    21c2:	0d24                	.2byte	0xd24
    21c4:	3f42be13          	sltiu	t3,t0,1012
    21c8:	0cfa7107          	.4byte	0xcfa7107
    21cc:	9c19                	.2byte	0x9c19
    21ce:	0d24                	.2byte	0xd24
    21d0:	3f42be13          	sltiu	t3,t0,1012
    21d4:	0cfa7107          	.4byte	0xcfa7107
    21d8:	9c19                	.2byte	0x9c19
    21da:	0d24                	.2byte	0xd24
    21dc:	3f42be13          	sltiu	t3,t0,1012
    21e0:	0cfa7107          	.4byte	0xcfa7107
    21e4:	9c19                	.2byte	0x9c19
    21e6:	0d24                	.2byte	0xd24
    21e8:	3f42be13          	sltiu	t3,t0,1012
    21ec:	0cfa7107          	.4byte	0xcfa7107
    21f0:	0d4b5be7          	.4byte	0xd4b5be7
    21f4:	3ef5f3b7          	lui	t2,0x3ef5f
    21f8:	608e                	.2byte	0x608e
    21fa:	5be70cc3          	.4byte	0x5be70cc3
    21fe:	f3b70d4b          	.4byte	0xf3b70d4b
    2202:	3ef5                	.2byte	0x3ef5
    2204:	608e                	.2byte	0x608e
    2206:	5be70cc3          	.4byte	0x5be70cc3
    220a:	f3b70d4b          	.4byte	0xf3b70d4b
    220e:	3ef5                	.2byte	0x3ef5
    2210:	608e                	.2byte	0x608e
    2212:	5be70cc3          	.4byte	0x5be70cc3
    2216:	f3b70d4b          	.4byte	0xf3b70d4b
    221a:	3ef5                	.2byte	0x3ef5
    221c:	608e                	.2byte	0x608e
    221e:	5be70cc3          	.4byte	0x5be70cc3
    2222:	f3b70d4b          	.4byte	0xf3b70d4b
    2226:	3ef5                	.2byte	0x3ef5
    2228:	608e                	.2byte	0x608e
    222a:	a8790cc3          	fmadd.s	fs9,fs2,ft7,fs5,rne
    222e:	0d9c                	.2byte	0xd9c
    2230:	4c9e                	.2byte	0x4c9e
    2232:	8ae93ee7          	.4byte	0x8ae93ee7
    2236:	0d0d                	.2byte	0xd0d
    2238:	a879                	.2byte	0xa879
    223a:	0d9c                	.2byte	0xd9c
    223c:	4c9e                	.2byte	0x4c9e
    223e:	8ae93ee7          	.4byte	0x8ae93ee7
    2242:	0d0d                	.2byte	0xd0d
    2244:	a879                	.2byte	0xa879
    2246:	0d9c                	.2byte	0xd9c
    2248:	4c9e                	.2byte	0x4c9e
    224a:	8ae93ee7          	.4byte	0x8ae93ee7
    224e:	0d0d                	.2byte	0xd0d
    2250:	a879                	.2byte	0xa879
    2252:	0d9c                	.2byte	0xd9c
    2254:	4c9e                	.2byte	0x4c9e
    2256:	8ae93ee7          	.4byte	0x8ae93ee7
    225a:	0d0d                	.2byte	0xd0d
    225c:	a879                	.2byte	0xa879
    225e:	0d9c                	.2byte	0xd9c
    2260:	4c9e                	.2byte	0x4c9e
    2262:	8ae93ee7          	.4byte	0x8ae93ee7
    2266:	0d0d                	.2byte	0xd0d
    2268:	0c307f67          	.4byte	0xc307f67
    226c:	3fcc450f          	.4byte	0x3fcc450f
    2270:	0c8cd523          	.4byte	0xc8cd523
    2274:	0c307f67          	.4byte	0xc307f67
    2278:	3fcc450f          	.4byte	0x3fcc450f
    227c:	0c8cd523          	.4byte	0xc8cd523
    2280:	0c307f67          	.4byte	0xc307f67
    2284:	3fcc450f          	.4byte	0x3fcc450f
    2288:	0c8cd523          	.4byte	0xc8cd523
    228c:	0c307f67          	.4byte	0xc307f67
    2290:	3fcc450f          	.4byte	0x3fcc450f
    2294:	0c8cd523          	.4byte	0xc8cd523
    2298:	0c307f67          	.4byte	0xc307f67
    229c:	3fcc450f          	.4byte	0x3fcc450f
    22a0:	0c8cd523          	.4byte	0xc8cd523
    22a4:	9ab1                	.2byte	0x9ab1
    22a6:	0d8e                	.2byte	0xd8e
    22a8:	1860                	.2byte	0x1860
    22aa:	017f3de3          	.4byte	0x17f3de3
    22ae:	0bfd                	.2byte	0xbfd
    22b0:	9ab1                	.2byte	0x9ab1
    22b2:	0d8e                	.2byte	0xd8e
    22b4:	1860                	.2byte	0x1860
    22b6:	017f3de3          	.4byte	0x17f3de3
    22ba:	0bfd                	.2byte	0xbfd
    22bc:	9ab1                	.2byte	0x9ab1
    22be:	0d8e                	.2byte	0xd8e
    22c0:	1860                	.2byte	0x1860
    22c2:	017f3de3          	.4byte	0x17f3de3
    22c6:	0bfd                	.2byte	0xbfd
    22c8:	9ab1                	.2byte	0x9ab1
    22ca:	0d8e                	.2byte	0xd8e
    22cc:	1860                	.2byte	0x1860
    22ce:	017f3de3          	.4byte	0x17f3de3
    22d2:	0bfd                	.2byte	0xbfd
    22d4:	9ab1                	.2byte	0x9ab1
    22d6:	0d8e                	.2byte	0xd8e
    22d8:	1860                	.2byte	0x1860
    22da:	017f3de3          	.4byte	0x17f3de3
    22de:	0bfd                	.2byte	0xbfd
    22e0:	49ac                	.2byte	0x49ac
    22e2:	0d10                	.2byte	0xd10
    22e4:	abc4                	.2byte	0xabc4
    22e6:	4006                	.2byte	0x4006
    22e8:	cec0                	.2byte	0xcec0
    22ea:	49ac0d97          	auipc	s11,0x49ac0
    22ee:	0d10                	.2byte	0xd10
    22f0:	abc4                	.2byte	0xabc4
    22f2:	4006                	.2byte	0x4006
    22f4:	cec0                	.2byte	0xcec0
    22f6:	49ac0d97          	auipc	s11,0x49ac0
    22fa:	0d10                	.2byte	0xd10
    22fc:	abc4                	.2byte	0xabc4
    22fe:	4006                	.2byte	0x4006
    2300:	cec0                	.2byte	0xcec0
    2302:	49ac0d97          	auipc	s11,0x49ac0
    2306:	0d10                	.2byte	0xd10
    2308:	abc4                	.2byte	0xabc4
    230a:	4006                	.2byte	0x4006
    230c:	cec0                	.2byte	0xcec0
    230e:	49ac0d97          	auipc	s11,0x49ac0
    2312:	0d10                	.2byte	0xd10
    2314:	abc4                	.2byte	0xabc4
    2316:	4006                	.2byte	0x4006
    2318:	cec0                	.2byte	0xcec0
    231a:	2c460d97          	auipc	s11,0x2c460
    231e:	0d00                	.2byte	0xd00
    2320:	c78e                	.2byte	0xc78e
    2322:	4001                	.2byte	0x4001
    2324:	f472                	.2byte	0xf472
    2326:	0d81                	.2byte	0xd81
    2328:	2c46                	.2byte	0x2c46
    232a:	0d00                	.2byte	0xd00
    232c:	c78e                	.2byte	0xc78e
    232e:	4001                	.2byte	0x4001
    2330:	f472                	.2byte	0xf472
    2332:	0d81                	.2byte	0xd81
    2334:	2c46                	.2byte	0x2c46
    2336:	0d00                	.2byte	0xd00
    2338:	c78e                	.2byte	0xc78e
    233a:	4001                	.2byte	0x4001
    233c:	f472                	.2byte	0xf472
    233e:	0d81                	.2byte	0xd81
    2340:	2c46                	.2byte	0x2c46
    2342:	0d00                	.2byte	0xd00
    2344:	c78e                	.2byte	0xc78e
    2346:	4001                	.2byte	0x4001
    2348:	f472                	.2byte	0xf472
    234a:	0d81                	.2byte	0xd81
    234c:	2c46                	.2byte	0x2c46
    234e:	0d00                	.2byte	0xd00
    2350:	c78e                	.2byte	0xc78e
    2352:	4001                	.2byte	0x4001
    2354:	f472                	.2byte	0xf472
    2356:	0d81                	.2byte	0xd81
    2358:	bf8e                	.2byte	0xbf8e
    235a:	18d40d67          	jalr	s10,397(s0)
    235e:	3fa5                	.2byte	0x3fa5
    2360:	74f1                	.2byte	0x74f1
    2362:	0d95                	.2byte	0xd95
    2364:	bf8e                	.2byte	0xbf8e
    2366:	18d40d67          	jalr	s10,397(s0)
    236a:	3fa5                	.2byte	0x3fa5
    236c:	74f1                	.2byte	0x74f1
    236e:	0d95                	.2byte	0xd95
    2370:	bf8e                	.2byte	0xbf8e
    2372:	18d40d67          	jalr	s10,397(s0)
    2376:	3fa5                	.2byte	0x3fa5
    2378:	74f1                	.2byte	0x74f1
    237a:	0d95                	.2byte	0xd95
    237c:	bf8e                	.2byte	0xbf8e
    237e:	18d40d67          	jalr	s10,397(s0)
    2382:	3fa5                	.2byte	0x3fa5
    2384:	74f1                	.2byte	0x74f1
    2386:	0d95                	.2byte	0xd95
    2388:	bf8e                	.2byte	0xbf8e
    238a:	18d40d67          	jalr	s10,397(s0)
    238e:	3fa5                	.2byte	0x3fa5
    2390:	74f1                	.2byte	0x74f1
    2392:	0d95                	.2byte	0xd95
    2394:	458e                	.2byte	0x458e
    2396:	0d69                	.2byte	0xd69
    2398:	3f9c7d2f          	.4byte	0x3f9c7d2f
    239c:	9874                	.2byte	0x9874
    239e:	0d8e                	.2byte	0xd8e
    23a0:	458e                	.2byte	0x458e
    23a2:	0d69                	.2byte	0xd69
    23a4:	3f9c7d2f          	.4byte	0x3f9c7d2f
    23a8:	9874                	.2byte	0x9874
    23aa:	0d8e                	.2byte	0xd8e
    23ac:	458e                	.2byte	0x458e
    23ae:	0d69                	.2byte	0xd69
    23b0:	3f9c7d2f          	.4byte	0x3f9c7d2f
    23b4:	9874                	.2byte	0x9874
    23b6:	0d8e                	.2byte	0xd8e
    23b8:	458e                	.2byte	0x458e
    23ba:	0d69                	.2byte	0xd69
    23bc:	3f9c7d2f          	.4byte	0x3f9c7d2f
    23c0:	9874                	.2byte	0x9874
    23c2:	0d8e                	.2byte	0xd8e
    23c4:	458e                	.2byte	0x458e
    23c6:	0d69                	.2byte	0xd69
    23c8:	3f9c7d2f          	.4byte	0x3f9c7d2f
    23cc:	9874                	.2byte	0x9874
    23ce:	0d8e                	.2byte	0xd8e
    23d0:	7098                	.2byte	0x7098
    23d2:	0d8c                	.2byte	0xd8c
    23d4:	d39e                	.2byte	0xd39e
    23d6:	6a753f0b          	.4byte	0x6a753f0b
    23da:	0d19                	.2byte	0xd19
    23dc:	7098                	.2byte	0x7098
    23de:	0d8c                	.2byte	0xd8c
    23e0:	d39e                	.2byte	0xd39e
    23e2:	6a753f0b          	.4byte	0x6a753f0b
    23e6:	0d19                	.2byte	0xd19
    23e8:	7098                	.2byte	0x7098
    23ea:	0d8c                	.2byte	0xd8c
    23ec:	d39e                	.2byte	0xd39e
    23ee:	6a753f0b          	.4byte	0x6a753f0b
    23f2:	0d19                	.2byte	0xd19
    23f4:	7098                	.2byte	0x7098
    23f6:	0d8c                	.2byte	0xd8c
    23f8:	d39e                	.2byte	0xd39e
    23fa:	6a753f0b          	.4byte	0x6a753f0b
    23fe:	0d19                	.2byte	0xd19
    2400:	7098                	.2byte	0x7098
    2402:	0d8c                	.2byte	0xd8c
    2404:	d39e                	.2byte	0xd39e
    2406:	6a753f0b          	.4byte	0x6a753f0b
    240a:	0d19                	.2byte	0xd19
    240c:	88ad                	.2byte	0x88ad
    240e:	d0ea0cc3          	fmadd.s	fs9,fs4,fa4,fs10,rne
    2412:	3dd2                	.2byte	0x3dd2
    2414:	05b0                	.2byte	0x5b0
    2416:	0b21                	.2byte	0xb21
    2418:	88ad                	.2byte	0x88ad
    241a:	d0ea0cc3          	fmadd.s	fs9,fs4,fa4,fs10,rne
    241e:	3dd2                	.2byte	0x3dd2
    2420:	05b0                	.2byte	0x5b0
    2422:	0b21                	.2byte	0xb21
    2424:	88ad                	.2byte	0x88ad
    2426:	d0ea0cc3          	fmadd.s	fs9,fs4,fa4,fs10,rne
    242a:	3dd2                	.2byte	0x3dd2
    242c:	05b0                	.2byte	0x5b0
    242e:	0b21                	.2byte	0xb21
    2430:	88ad                	.2byte	0x88ad
    2432:	d0ea0cc3          	fmadd.s	fs9,fs4,fa4,fs10,rne
    2436:	3dd2                	.2byte	0x3dd2
    2438:	05b0                	.2byte	0x5b0
    243a:	0b21                	.2byte	0xb21
    243c:	88ad                	.2byte	0x88ad
    243e:	d0ea0cc3          	fmadd.s	fs9,fs4,fa4,fs10,rne
    2442:	3dd2                	.2byte	0x3dd2
    2444:	05b0                	.2byte	0x5b0
    2446:	0b21                	.2byte	0xb21
    2448:	0f4d                	.2byte	0xf4d
    244a:	0d76                	.2byte	0xd76
    244c:	3f47926b          	.4byte	0x3f47926b
    2450:	d2a1                	.2byte	0xd2a1
    2452:	0f4d0d3f 926b0d76 	.8byte	0x926b0d760f4d0d3f
    245a:	d2a13f47          	.4byte	0xd2a13f47
    245e:	0f4d0d3f 926b0d76 	.8byte	0x926b0d760f4d0d3f
    2466:	d2a13f47          	.4byte	0xd2a13f47
    246a:	0f4d0d3f 926b0d76 	.8byte	0x926b0d760f4d0d3f
    2472:	d2a13f47          	.4byte	0xd2a13f47
    2476:	0f4d0d3f 926b0d76 	.8byte	0x926b0d760f4d0d3f
    247e:	d2a13f47          	.4byte	0xd2a13f47
    2482:	e2ae0d3f 50810d59 	.8byte	0x50810d59e2ae0d3f
    248a:	3c303dc3          	.4byte	0x3c303dc3
    248e:	0ba6                	.2byte	0xba6
    2490:	e2ae                	.2byte	0xe2ae
    2492:	0d59                	.2byte	0xd59
    2494:	5081                	.2byte	0x5081
    2496:	3c303dc3          	.4byte	0x3c303dc3
    249a:	0ba6                	.2byte	0xba6
    249c:	e2ae                	.2byte	0xe2ae
    249e:	0d59                	.2byte	0xd59
    24a0:	5081                	.2byte	0x5081
    24a2:	3c303dc3          	.4byte	0x3c303dc3
    24a6:	0ba6                	.2byte	0xba6
    24a8:	e2ae                	.2byte	0xe2ae
    24aa:	0d59                	.2byte	0xd59
    24ac:	5081                	.2byte	0x5081
    24ae:	3c303dc3          	.4byte	0x3c303dc3
    24b2:	0ba6                	.2byte	0xba6
    24b4:	e2ae                	.2byte	0xe2ae
    24b6:	0d59                	.2byte	0xd59
    24b8:	5081                	.2byte	0x5081
    24ba:	3c303dc3          	.4byte	0x3c303dc3
    24be:	0ba6                	.2byte	0xba6
    24c0:	c831                	.2byte	0xc831
    24c2:	0d29                	.2byte	0xd29
    24c4:	3fb55a3f 0d708ccb 	.8byte	0xd708ccb3fb55a3f
    24cc:	c831                	.2byte	0xc831
    24ce:	0d29                	.2byte	0xd29
    24d0:	3fb55a3f 0d708ccb 	.8byte	0xd708ccb3fb55a3f
    24d8:	c831                	.2byte	0xc831
    24da:	0d29                	.2byte	0xd29
    24dc:	3fb55a3f 0d708ccb 	.8byte	0xd708ccb3fb55a3f
    24e4:	c831                	.2byte	0xc831
    24e6:	0d29                	.2byte	0xd29
    24e8:	3fb55a3f 0d708ccb 	.8byte	0xd708ccb3fb55a3f
    24f0:	c831                	.2byte	0xc831
    24f2:	0d29                	.2byte	0xd29
    24f4:	3fb55a3f 0d708ccb 	.8byte	0xd708ccb3fb55a3f
    24fc:	0628                	.2byte	0x628
    24fe:	0d4e                	.2byte	0xd4e
    2500:	03b4                	.2byte	0x3b4
    2502:	d9303faf          	.4byte	0xd9303faf
    2506:	0d8c                	.2byte	0xd8c
    2508:	0628                	.2byte	0x628
    250a:	0d4e                	.2byte	0xd4e
    250c:	03b4                	.2byte	0x3b4
    250e:	d9303faf          	.4byte	0xd9303faf
    2512:	0d8c                	.2byte	0xd8c
    2514:	0628                	.2byte	0x628
    2516:	0d4e                	.2byte	0xd4e
    2518:	03b4                	.2byte	0x3b4
    251a:	d9303faf          	.4byte	0xd9303faf
    251e:	0d8c                	.2byte	0xd8c
    2520:	0628                	.2byte	0x628
    2522:	0d4e                	.2byte	0xd4e
    2524:	03b4                	.2byte	0x3b4
    2526:	d9303faf          	.4byte	0xd9303faf
    252a:	0d8c                	.2byte	0xd8c
    252c:	0628                	.2byte	0x628
    252e:	0d4e                	.2byte	0xd4e
    2530:	03b4                	.2byte	0x3b4
    2532:	d9303faf          	.4byte	0xd9303faf
    2536:	0d8c                	.2byte	0xd8c
    2538:	63b4                	.2byte	0x63b4
    253a:	56710d4f          	.4byte	0x56710d4f
    253e:	3e71                	.2byte	0x3e71
    2540:	82e4                	.2byte	0x82e4
    2542:	63b40c43          	.4byte	0x63b40c43
    2546:	56710d4f          	.4byte	0x56710d4f
    254a:	3e71                	.2byte	0x3e71
    254c:	82e4                	.2byte	0x82e4
    254e:	63b40c43          	.4byte	0x63b40c43
    2552:	56710d4f          	.4byte	0x56710d4f
    2556:	3e71                	.2byte	0x3e71
    2558:	82e4                	.2byte	0x82e4
    255a:	63b40c43          	.4byte	0x63b40c43
    255e:	56710d4f          	.4byte	0x56710d4f
    2562:	3e71                	.2byte	0x3e71
    2564:	82e4                	.2byte	0x82e4
    2566:	63b40c43          	.4byte	0x63b40c43
    256a:	56710d4f          	.4byte	0x56710d4f
    256e:	3e71                	.2byte	0x3e71
    2570:	82e4                	.2byte	0x82e4
    2572:	b93f0c43          	fmadd.s	fs8,ft10,fs3,fs7,rne
    2576:	c9d80d87          	.4byte	0xc9d80d87
    257a:	3f11                	.2byte	0x3f11
    257c:	95e0                	.2byte	0x95e0
    257e:	0d1a                	.2byte	0xd1a
    2580:	0d87b93f 3f11c9d8 	.8byte	0x3f11c9d80d87b93f
    2588:	95e0                	.2byte	0x95e0
    258a:	0d1a                	.2byte	0xd1a
    258c:	0d87b93f 3f11c9d8 	.8byte	0x3f11c9d80d87b93f
    2594:	95e0                	.2byte	0x95e0
    2596:	0d1a                	.2byte	0xd1a
    2598:	0d87b93f 3f11c9d8 	.8byte	0x3f11c9d80d87b93f
    25a0:	95e0                	.2byte	0x95e0
    25a2:	0d1a                	.2byte	0xd1a
    25a4:	0d87b93f 3f11c9d8 	.8byte	0x3f11c9d80d87b93f
    25ac:	95e0                	.2byte	0x95e0
    25ae:	0d1a                	.2byte	0xd1a
    25b0:	0da18d77          	.4byte	0xda18d77
    25b4:	3ef1d3ff 0d189bf6 	.byte	0xff, 0xd3, 0xf1, 0x3e, 0xf6, 0x9b, 0x18, 0x0d, 0x77, 0x8d, 0xa1, 0x0d, 0xff, 0xd3, 0xf1, 0x3e, 0xf6, 0x9b, 0x18, 0x0d
    25bc:	0da18d77 3ef1d3ff 
    25c4:	0d189bf6 
    25c8:	0da18d77          	.4byte	0xda18d77
    25cc:	3ef1d3ff 0d189bf6 	.byte	0xff, 0xd3, 0xf1, 0x3e, 0xf6, 0x9b, 0x18, 0x0d, 0x77, 0x8d, 0xa1, 0x0d, 0xff, 0xd3, 0xf1, 0x3e, 0xf6, 0x9b, 0x18, 0x0d
    25d4:	0da18d77 3ef1d3ff 
    25dc:	0d189bf6 
    25e0:	0da18d77          	.4byte	0xda18d77
    25e4:	3ef1d3ff 0d189bf6 	.byte	0xff, 0xd3, 0xf1, 0x3e, 0xf6, 0x9b, 0x18, 0x0d, 0x93, 0x54, 0xa8, 0x0c, 0xf0, 0x4c, 0x67, 0x3f, 0xe8, 0x16, 0x98, 0x0c
    25ec:	0ca85493 3f674cf0 
    25f4:	0c9816e8 
    25f8:	0ca85493          	.4byte	0xca85493
    25fc:	4cf0                	.2byte	0x4cf0
    25fe:	16e83f67          	.4byte	0x16e83f67
    2602:	0c98                	.2byte	0xc98
    2604:	0ca85493          	.4byte	0xca85493
    2608:	4cf0                	.2byte	0x4cf0
    260a:	16e83f67          	.4byte	0x16e83f67
    260e:	0c98                	.2byte	0xc98
    2610:	0ca85493          	.4byte	0xca85493
    2614:	4cf0                	.2byte	0x4cf0
    2616:	16e83f67          	.4byte	0x16e83f67
    261a:	0c98                	.2byte	0xc98
    261c:	0ca85493          	.4byte	0xca85493
    2620:	4cf0                	.2byte	0x4cf0
    2622:	16e83f67          	.4byte	0x16e83f67
    2626:	0c98                	.2byte	0xc98
    2628:	be86                	.2byte	0xbe86
    262a:	0a88                	.2byte	0xa88
    262c:	6538                	.2byte	0x6538
    262e:	427e                	.2byte	0x427e
    2630:	e31a                	.2byte	0xe31a
    2632:	be860d87          	.4byte	0xbe860d87
    2636:	0a88                	.2byte	0xa88
    2638:	6538                	.2byte	0x6538
    263a:	427e                	.2byte	0x427e
    263c:	e31a                	.2byte	0xe31a
    263e:	be860d87          	.4byte	0xbe860d87
    2642:	0a88                	.2byte	0xa88
    2644:	6538                	.2byte	0x6538
    2646:	427e                	.2byte	0x427e
    2648:	e31a                	.2byte	0xe31a
    264a:	be860d87          	.4byte	0xbe860d87
    264e:	0a88                	.2byte	0xa88
    2650:	6538                	.2byte	0x6538
    2652:	427e                	.2byte	0x427e
    2654:	e31a                	.2byte	0xe31a
    2656:	be860d87          	.4byte	0xbe860d87
    265a:	0a88                	.2byte	0xa88
    265c:	6538                	.2byte	0x6538
    265e:	427e                	.2byte	0x427e
    2660:	e31a                	.2byte	0xe31a
    2662:	0ecf0d87          	.4byte	0xecf0d87
    2666:	7a4f0d4b          	.4byte	0x7a4f0d4b
    266a:	3dd6                	.2byte	0x3dd6
    266c:	1f65                	.2byte	0x1f65
    266e:	0baa                	.2byte	0xbaa
    2670:	0d4b0ecf          	.4byte	0xd4b0ecf
    2674:	3dd67a4f          	.4byte	0x3dd67a4f
    2678:	1f65                	.2byte	0x1f65
    267a:	0baa                	.2byte	0xbaa
    267c:	0d4b0ecf          	.4byte	0xd4b0ecf
    2680:	3dd67a4f          	.4byte	0x3dd67a4f
    2684:	1f65                	.2byte	0x1f65
    2686:	0baa                	.2byte	0xbaa
    2688:	0d4b0ecf          	.4byte	0xd4b0ecf
    268c:	3dd67a4f          	.4byte	0x3dd67a4f
    2690:	1f65                	.2byte	0x1f65
    2692:	0baa                	.2byte	0xbaa
    2694:	cb99                	.2byte	0xcb99
    2696:	0d92                	.2byte	0xd92
    2698:	0a09                	.2byte	0xa09
    269a:	3f21                	.2byte	0x3f21
    269c:	af9a                	.2byte	0xaf9a
    269e:	0d38                	.2byte	0xd38
    26a0:	cb99                	.2byte	0xcb99
    26a2:	0d92                	.2byte	0xd92
    26a4:	0a09                	.2byte	0xa09
    26a6:	3f21                	.2byte	0x3f21
    26a8:	af9a                	.2byte	0xaf9a
    26aa:	0d38                	.2byte	0xd38
    26ac:	cb99                	.2byte	0xcb99
    26ae:	0d92                	.2byte	0xd92
    26b0:	0a09                	.2byte	0xa09
    26b2:	3f21                	.2byte	0x3f21
    26b4:	af9a                	.2byte	0xaf9a
    26b6:	0d38                	.2byte	0xd38
    26b8:	cb99                	.2byte	0xcb99
    26ba:	0d92                	.2byte	0xd92
    26bc:	0a09                	.2byte	0xa09
    26be:	3f21                	.2byte	0x3f21
    26c0:	af9a                	.2byte	0xaf9a
    26c2:	0d38                	.2byte	0xd38
    26c4:	a57c                	.2byte	0xa57c
    26c6:	77880d8b          	.4byte	0x77880d8b
    26ca:	85483f8f          	.4byte	0x85483f8f
    26ce:	0d9c                	.2byte	0xd9c
    26d0:	a57c                	.2byte	0xa57c
    26d2:	77880d8b          	.4byte	0x77880d8b
    26d6:	85483f8f          	.4byte	0x85483f8f
    26da:	0d9c                	.2byte	0xd9c
    26dc:	a57c                	.2byte	0xa57c
    26de:	77880d8b          	.4byte	0x77880d8b
    26e2:	85483f8f          	.4byte	0x85483f8f
    26e6:	0d9c                	.2byte	0xd9c
    26e8:	a57c                	.2byte	0xa57c
    26ea:	77880d8b          	.4byte	0x77880d8b
    26ee:	85483f8f          	.4byte	0x85483f8f
    26f2:	0d9c                	.2byte	0xd9c
    26f4:	d739                	.2byte	0xd739
    26f6:	0d59                	.2byte	0xd59
    26f8:	cd3d                	.2byte	0xcd3d
    26fa:	3e78                	.2byte	0x3e78
    26fc:	b725                	.2byte	0xb725
    26fe:	          	.4byte	0xbeef0c53

00002700 <data_begin>:
    2700:	deadbeef          	jal	t4,fffddcea <_end+0xfffdb13a>
    2704:	deadbeef          	jal	t4,fffddcee <_end+0xfffdb13e>
    2708:	deadbeef          	jal	t4,fffddcf2 <_end+0xfffdb142>
    270c:	deadbeef          	jal	t4,fffddcf6 <_end+0xfffdb146>
    2710:	deadbeef          	jal	t4,fffddcfa <_end+0xfffdb14a>
    2714:	deadbeef          	jal	t4,fffddcfe <_end+0xfffdb14e>
    2718:	deadbeef          	jal	t4,fffddd02 <_end+0xfffdb152>
    271c:	deadbeef          	jal	t4,fffddd06 <_end+0xfffdb156>
    2720:	deadbeef          	jal	t4,fffddd0a <_end+0xfffdb15a>
    2724:	deadbeef          	jal	t4,fffddd0e <_end+0xfffdb15e>
    2728:	deadbeef          	jal	t4,fffddd12 <_end+0xfffdb162>
    272c:	deadbeef          	jal	t4,fffddd16 <_end+0xfffdb166>
    2730:	deadbeef          	jal	t4,fffddd1a <_end+0xfffdb16a>
    2734:	deadbeef          	jal	t4,fffddd1e <_end+0xfffdb16e>
    2738:	deadbeef          	jal	t4,fffddd22 <_end+0xfffdb172>
    273c:	deadbeef          	jal	t4,fffddd26 <_end+0xfffdb176>
    2740:	deadbeef          	jal	t4,fffddd2a <_end+0xfffdb17a>
    2744:	deadbeef          	jal	t4,fffddd2e <_end+0xfffdb17e>
    2748:	deadbeef          	jal	t4,fffddd32 <_end+0xfffdb182>
    274c:	deadbeef          	jal	t4,fffddd36 <_end+0xfffdb186>
    2750:	deadbeef          	jal	t4,fffddd3a <_end+0xfffdb18a>
    2754:	deadbeef          	jal	t4,fffddd3e <_end+0xfffdb18e>
    2758:	deadbeef          	jal	t4,fffddd42 <_end+0xfffdb192>
    275c:	deadbeef          	jal	t4,fffddd46 <_end+0xfffdb196>
    2760:	deadbeef          	jal	t4,fffddd4a <_end+0xfffdb19a>
    2764:	deadbeef          	jal	t4,fffddd4e <_end+0xfffdb19e>
    2768:	deadbeef          	jal	t4,fffddd52 <_end+0xfffdb1a2>
    276c:	deadbeef          	jal	t4,fffddd56 <_end+0xfffdb1a6>
    2770:	deadbeef          	jal	t4,fffddd5a <_end+0xfffdb1aa>
    2774:	deadbeef          	jal	t4,fffddd5e <_end+0xfffdb1ae>
    2778:	deadbeef          	jal	t4,fffddd62 <_end+0xfffdb1b2>
    277c:	deadbeef          	jal	t4,fffddd66 <_end+0xfffdb1b6>
    2780:	deadbeef          	jal	t4,fffddd6a <_end+0xfffdb1ba>
    2784:	deadbeef          	jal	t4,fffddd6e <_end+0xfffdb1be>
    2788:	deadbeef          	jal	t4,fffddd72 <_end+0xfffdb1c2>
    278c:	deadbeef          	jal	t4,fffddd76 <_end+0xfffdb1c6>
    2790:	deadbeef          	jal	t4,fffddd7a <_end+0xfffdb1ca>
    2794:	deadbeef          	jal	t4,fffddd7e <_end+0xfffdb1ce>
    2798:	deadbeef          	jal	t4,fffddd82 <_end+0xfffdb1d2>
    279c:	deadbeef          	jal	t4,fffddd86 <_end+0xfffdb1d6>
    27a0:	deadbeef          	jal	t4,fffddd8a <_end+0xfffdb1da>
    27a4:	deadbeef          	jal	t4,fffddd8e <_end+0xfffdb1de>
    27a8:	deadbeef          	jal	t4,fffddd92 <_end+0xfffdb1e2>
    27ac:	deadbeef          	jal	t4,fffddd96 <_end+0xfffdb1e6>
    27b0:	deadbeef          	jal	t4,fffddd9a <_end+0xfffdb1ea>
    27b4:	deadbeef          	jal	t4,fffddd9e <_end+0xfffdb1ee>
    27b8:	deadbeef          	jal	t4,fffddda2 <_end+0xfffdb1f2>
    27bc:	deadbeef          	jal	t4,fffddda6 <_end+0xfffdb1f6>
    27c0:	deadbeef          	jal	t4,fffdddaa <_end+0xfffdb1fa>
    27c4:	deadbeef          	jal	t4,fffdddae <_end+0xfffdb1fe>
    27c8:	deadbeef          	jal	t4,fffdddb2 <_end+0xfffdb202>
    27cc:	deadbeef          	jal	t4,fffdddb6 <_end+0xfffdb206>
    27d0:	deadbeef          	jal	t4,fffdddba <_end+0xfffdb20a>
    27d4:	deadbeef          	jal	t4,fffdddbe <_end+0xfffdb20e>
    27d8:	deadbeef          	jal	t4,fffdddc2 <_end+0xfffdb212>
    27dc:	deadbeef          	jal	t4,fffdddc6 <_end+0xfffdb216>
    27e0:	deadbeef          	jal	t4,fffdddca <_end+0xfffdb21a>
    27e4:	deadbeef          	jal	t4,fffdddce <_end+0xfffdb21e>
    27e8:	deadbeef          	jal	t4,fffdddd2 <_end+0xfffdb222>
    27ec:	deadbeef          	jal	t4,fffdddd6 <_end+0xfffdb226>
    27f0:	deadbeef          	jal	t4,fffdddda <_end+0xfffdb22a>
    27f4:	deadbeef          	jal	t4,fffdddde <_end+0xfffdb22e>
    27f8:	deadbeef          	jal	t4,fffddde2 <_end+0xfffdb232>
    27fc:	deadbeef          	jal	t4,fffddde6 <_end+0xfffdb236>
    2800:	deadbeef          	jal	t4,fffdddea <_end+0xfffdb23a>
    2804:	deadbeef          	jal	t4,fffdddee <_end+0xfffdb23e>
    2808:	deadbeef          	jal	t4,fffdddf2 <_end+0xfffdb242>
    280c:	deadbeef          	jal	t4,fffdddf6 <_end+0xfffdb246>
    2810:	deadbeef          	jal	t4,fffdddfa <_end+0xfffdb24a>
    2814:	deadbeef          	jal	t4,fffdddfe <_end+0xfffdb24e>
    2818:	deadbeef          	jal	t4,fffdde02 <_end+0xfffdb252>
    281c:	deadbeef          	jal	t4,fffdde06 <_end+0xfffdb256>
    2820:	deadbeef          	jal	t4,fffdde0a <_end+0xfffdb25a>
    2824:	deadbeef          	jal	t4,fffdde0e <_end+0xfffdb25e>
    2828:	deadbeef          	jal	t4,fffdde12 <_end+0xfffdb262>
    282c:	deadbeef          	jal	t4,fffdde16 <_end+0xfffdb266>
    2830:	deadbeef          	jal	t4,fffdde1a <_end+0xfffdb26a>
    2834:	deadbeef          	jal	t4,fffdde1e <_end+0xfffdb26e>
    2838:	deadbeef          	jal	t4,fffdde22 <_end+0xfffdb272>
    283c:	deadbeef          	jal	t4,fffdde26 <_end+0xfffdb276>
    2840:	deadbeef          	jal	t4,fffdde2a <_end+0xfffdb27a>
    2844:	deadbeef          	jal	t4,fffdde2e <_end+0xfffdb27e>
    2848:	deadbeef          	jal	t4,fffdde32 <_end+0xfffdb282>
    284c:	deadbeef          	jal	t4,fffdde36 <_end+0xfffdb286>
    2850:	deadbeef          	jal	t4,fffdde3a <_end+0xfffdb28a>
    2854:	deadbeef          	jal	t4,fffdde3e <_end+0xfffdb28e>
    2858:	deadbeef          	jal	t4,fffdde42 <_end+0xfffdb292>
    285c:	deadbeef          	jal	t4,fffdde46 <_end+0xfffdb296>
    2860:	deadbeef          	jal	t4,fffdde4a <_end+0xfffdb29a>
    2864:	deadbeef          	jal	t4,fffdde4e <_end+0xfffdb29e>
    2868:	deadbeef          	jal	t4,fffdde52 <_end+0xfffdb2a2>
    286c:	deadbeef          	jal	t4,fffdde56 <_end+0xfffdb2a6>
    2870:	deadbeef          	jal	t4,fffdde5a <_end+0xfffdb2aa>
    2874:	deadbeef          	jal	t4,fffdde5e <_end+0xfffdb2ae>
    2878:	deadbeef          	jal	t4,fffdde62 <_end+0xfffdb2b2>
    287c:	deadbeef          	jal	t4,fffdde66 <_end+0xfffdb2b6>
    2880:	deadbeef          	jal	t4,fffdde6a <_end+0xfffdb2ba>
    2884:	deadbeef          	jal	t4,fffdde6e <_end+0xfffdb2be>
    2888:	deadbeef          	jal	t4,fffdde72 <_end+0xfffdb2c2>
    288c:	deadbeef          	jal	t4,fffdde76 <_end+0xfffdb2c6>
    2890:	deadbeef          	jal	t4,fffdde7a <_end+0xfffdb2ca>
    2894:	deadbeef          	jal	t4,fffdde7e <_end+0xfffdb2ce>
    2898:	deadbeef          	jal	t4,fffdde82 <_end+0xfffdb2d2>
    289c:	deadbeef          	jal	t4,fffdde86 <_end+0xfffdb2d6>
    28a0:	deadbeef          	jal	t4,fffdde8a <_end+0xfffdb2da>
    28a4:	deadbeef          	jal	t4,fffdde8e <_end+0xfffdb2de>
    28a8:	deadbeef          	jal	t4,fffdde92 <_end+0xfffdb2e2>
    28ac:	deadbeef          	jal	t4,fffdde96 <_end+0xfffdb2e6>
    28b0:	deadbeef          	jal	t4,fffdde9a <_end+0xfffdb2ea>
    28b4:	deadbeef          	jal	t4,fffdde9e <_end+0xfffdb2ee>
    28b8:	deadbeef          	jal	t4,fffddea2 <_end+0xfffdb2f2>
    28bc:	deadbeef          	jal	t4,fffddea6 <_end+0xfffdb2f6>
    28c0:	deadbeef          	jal	t4,fffddeaa <_end+0xfffdb2fa>
    28c4:	deadbeef          	jal	t4,fffddeae <_end+0xfffdb2fe>
    28c8:	deadbeef          	jal	t4,fffddeb2 <_end+0xfffdb302>
    28cc:	deadbeef          	jal	t4,fffddeb6 <_end+0xfffdb306>
    28d0:	deadbeef          	jal	t4,fffddeba <_end+0xfffdb30a>
    28d4:	deadbeef          	jal	t4,fffddebe <_end+0xfffdb30e>
    28d8:	deadbeef          	jal	t4,fffddec2 <_end+0xfffdb312>
    28dc:	deadbeef          	jal	t4,fffddec6 <_end+0xfffdb316>
    28e0:	deadbeef          	jal	t4,fffddeca <_end+0xfffdb31a>
    28e4:	deadbeef          	jal	t4,fffddece <_end+0xfffdb31e>
    28e8:	deadbeef          	jal	t4,fffdded2 <_end+0xfffdb322>
    28ec:	deadbeef          	jal	t4,fffdded6 <_end+0xfffdb326>
    28f0:	deadbeef          	jal	t4,fffddeda <_end+0xfffdb32a>
    28f4:	deadbeef          	jal	t4,fffddede <_end+0xfffdb32e>
    28f8:	deadbeef          	jal	t4,fffddee2 <_end+0xfffdb332>
    28fc:	deadbeef          	jal	t4,fffddee6 <_end+0xfffdb336>
    2900:	deadbeef          	jal	t4,fffddeea <_end+0xfffdb33a>
    2904:	deadbeef          	jal	t4,fffddeee <_end+0xfffdb33e>
    2908:	deadbeef          	jal	t4,fffddef2 <_end+0xfffdb342>
    290c:	deadbeef          	jal	t4,fffddef6 <_end+0xfffdb346>
    2910:	deadbeef          	jal	t4,fffddefa <_end+0xfffdb34a>
    2914:	deadbeef          	jal	t4,fffddefe <_end+0xfffdb34e>
    2918:	deadbeef          	jal	t4,fffddf02 <_end+0xfffdb352>
    291c:	deadbeef          	jal	t4,fffddf06 <_end+0xfffdb356>
    2920:	deadbeef          	jal	t4,fffddf0a <_end+0xfffdb35a>
    2924:	deadbeef          	jal	t4,fffddf0e <_end+0xfffdb35e>
    2928:	deadbeef          	jal	t4,fffddf12 <_end+0xfffdb362>
    292c:	deadbeef          	jal	t4,fffddf16 <_end+0xfffdb366>
    2930:	deadbeef          	jal	t4,fffddf1a <_end+0xfffdb36a>
    2934:	deadbeef          	jal	t4,fffddf1e <_end+0xfffdb36e>
    2938:	deadbeef          	jal	t4,fffddf22 <_end+0xfffdb372>
    293c:	deadbeef          	jal	t4,fffddf26 <_end+0xfffdb376>
    2940:	deadbeef          	jal	t4,fffddf2a <_end+0xfffdb37a>
    2944:	deadbeef          	jal	t4,fffddf2e <_end+0xfffdb37e>
    2948:	deadbeef          	jal	t4,fffddf32 <_end+0xfffdb382>
    294c:	deadbeef          	jal	t4,fffddf36 <_end+0xfffdb386>
    2950:	deadbeef          	jal	t4,fffddf3a <_end+0xfffdb38a>
    2954:	deadbeef          	jal	t4,fffddf3e <_end+0xfffdb38e>
    2958:	deadbeef          	jal	t4,fffddf42 <_end+0xfffdb392>
    295c:	deadbeef          	jal	t4,fffddf46 <_end+0xfffdb396>
    2960:	deadbeef          	jal	t4,fffddf4a <_end+0xfffdb39a>
    2964:	deadbeef          	jal	t4,fffddf4e <_end+0xfffdb39e>
    2968:	deadbeef          	jal	t4,fffddf52 <_end+0xfffdb3a2>
    296c:	deadbeef          	jal	t4,fffddf56 <_end+0xfffdb3a6>
    2970:	deadbeef          	jal	t4,fffddf5a <_end+0xfffdb3aa>
    2974:	deadbeef          	jal	t4,fffddf5e <_end+0xfffdb3ae>
    2978:	deadbeef          	jal	t4,fffddf62 <_end+0xfffdb3b2>
    297c:	deadbeef          	jal	t4,fffddf66 <_end+0xfffdb3b6>
    2980:	deadbeef          	jal	t4,fffddf6a <_end+0xfffdb3ba>
    2984:	deadbeef          	jal	t4,fffddf6e <_end+0xfffdb3be>
    2988:	deadbeef          	jal	t4,fffddf72 <_end+0xfffdb3c2>
    298c:	deadbeef          	jal	t4,fffddf76 <_end+0xfffdb3c6>
    2990:	deadbeef          	jal	t4,fffddf7a <_end+0xfffdb3ca>
    2994:	deadbeef          	jal	t4,fffddf7e <_end+0xfffdb3ce>
    2998:	deadbeef          	jal	t4,fffddf82 <_end+0xfffdb3d2>
    299c:	deadbeef          	jal	t4,fffddf86 <_end+0xfffdb3d6>
    29a0:	deadbeef          	jal	t4,fffddf8a <_end+0xfffdb3da>
    29a4:	deadbeef          	jal	t4,fffddf8e <_end+0xfffdb3de>
    29a8:	deadbeef          	jal	t4,fffddf92 <_end+0xfffdb3e2>
    29ac:	deadbeef          	jal	t4,fffddf96 <_end+0xfffdb3e6>
    29b0:	deadbeef          	jal	t4,fffddf9a <_end+0xfffdb3ea>
    29b4:	deadbeef          	jal	t4,fffddf9e <_end+0xfffdb3ee>
    29b8:	deadbeef          	jal	t4,fffddfa2 <_end+0xfffdb3f2>
    29bc:	deadbeef          	jal	t4,fffddfa6 <_end+0xfffdb3f6>
    29c0:	deadbeef          	jal	t4,fffddfaa <_end+0xfffdb3fa>
    29c4:	deadbeef          	jal	t4,fffddfae <_end+0xfffdb3fe>
    29c8:	deadbeef          	jal	t4,fffddfb2 <_end+0xfffdb402>
    29cc:	deadbeef          	jal	t4,fffddfb6 <_end+0xfffdb406>
    29d0:	deadbeef          	jal	t4,fffddfba <_end+0xfffdb40a>
    29d4:	deadbeef          	jal	t4,fffddfbe <_end+0xfffdb40e>
    29d8:	deadbeef          	jal	t4,fffddfc2 <_end+0xfffdb412>
    29dc:	deadbeef          	jal	t4,fffddfc6 <_end+0xfffdb416>
    29e0:	deadbeef          	jal	t4,fffddfca <_end+0xfffdb41a>
    29e4:	deadbeef          	jal	t4,fffddfce <_end+0xfffdb41e>
    29e8:	deadbeef          	jal	t4,fffddfd2 <_end+0xfffdb422>
    29ec:	deadbeef          	jal	t4,fffddfd6 <_end+0xfffdb426>
    29f0:	deadbeef          	jal	t4,fffddfda <_end+0xfffdb42a>
    29f4:	deadbeef          	jal	t4,fffddfde <_end+0xfffdb42e>
    29f8:	deadbeef          	jal	t4,fffddfe2 <_end+0xfffdb432>
    29fc:	deadbeef          	jal	t4,fffddfe6 <_end+0xfffdb436>
    2a00:	deadbeef          	jal	t4,fffddfea <_end+0xfffdb43a>
    2a04:	deadbeef          	jal	t4,fffddfee <_end+0xfffdb43e>
    2a08:	deadbeef          	jal	t4,fffddff2 <_end+0xfffdb442>
    2a0c:	deadbeef          	jal	t4,fffddff6 <_end+0xfffdb446>
    2a10:	deadbeef          	jal	t4,fffddffa <_end+0xfffdb44a>
    2a14:	deadbeef          	jal	t4,fffddffe <_end+0xfffdb44e>
    2a18:	deadbeef          	jal	t4,fffde002 <_end+0xfffdb452>
    2a1c:	deadbeef          	jal	t4,fffde006 <_end+0xfffdb456>
    2a20:	deadbeef          	jal	t4,fffde00a <_end+0xfffdb45a>
    2a24:	deadbeef          	jal	t4,fffde00e <_end+0xfffdb45e>
    2a28:	deadbeef          	jal	t4,fffde012 <_end+0xfffdb462>
    2a2c:	deadbeef          	jal	t4,fffde016 <_end+0xfffdb466>
    2a30:	deadbeef          	jal	t4,fffde01a <_end+0xfffdb46a>
    2a34:	deadbeef          	jal	t4,fffde01e <_end+0xfffdb46e>
    2a38:	deadbeef          	jal	t4,fffde022 <_end+0xfffdb472>
    2a3c:	deadbeef          	jal	t4,fffde026 <_end+0xfffdb476>
    2a40:	deadbeef          	jal	t4,fffde02a <_end+0xfffdb47a>
    2a44:	deadbeef          	jal	t4,fffde02e <_end+0xfffdb47e>
    2a48:	deadbeef          	jal	t4,fffde032 <_end+0xfffdb482>
    2a4c:	deadbeef          	jal	t4,fffde036 <_end+0xfffdb486>
    2a50:	deadbeef          	jal	t4,fffde03a <_end+0xfffdb48a>
    2a54:	deadbeef          	jal	t4,fffde03e <_end+0xfffdb48e>
    2a58:	deadbeef          	jal	t4,fffde042 <_end+0xfffdb492>
    2a5c:	deadbeef          	jal	t4,fffde046 <_end+0xfffdb496>
    2a60:	deadbeef          	jal	t4,fffde04a <_end+0xfffdb49a>
    2a64:	deadbeef          	jal	t4,fffde04e <_end+0xfffdb49e>
    2a68:	deadbeef          	jal	t4,fffde052 <_end+0xfffdb4a2>
    2a6c:	deadbeef          	jal	t4,fffde056 <_end+0xfffdb4a6>
    2a70:	deadbeef          	jal	t4,fffde05a <_end+0xfffdb4aa>
    2a74:	deadbeef          	jal	t4,fffde05e <_end+0xfffdb4ae>
    2a78:	deadbeef          	jal	t4,fffde062 <_end+0xfffdb4b2>
    2a7c:	deadbeef          	jal	t4,fffde066 <_end+0xfffdb4b6>
    2a80:	deadbeef          	jal	t4,fffde06a <_end+0xfffdb4ba>
    2a84:	deadbeef          	jal	t4,fffde06e <_end+0xfffdb4be>
    2a88:	deadbeef          	jal	t4,fffde072 <_end+0xfffdb4c2>
    2a8c:	deadbeef          	jal	t4,fffde076 <_end+0xfffdb4c6>
    2a90:	deadbeef          	jal	t4,fffde07a <_end+0xfffdb4ca>
    2a94:	deadbeef          	jal	t4,fffde07e <_end+0xfffdb4ce>
    2a98:	deadbeef          	jal	t4,fffde082 <_end+0xfffdb4d2>
    2a9c:	deadbeef          	jal	t4,fffde086 <_end+0xfffdb4d6>
    2aa0:	deadbeef          	jal	t4,fffde08a <_end+0xfffdb4da>
    2aa4:	deadbeef          	jal	t4,fffde08e <_end+0xfffdb4de>
    2aa8:	deadbeef          	jal	t4,fffde092 <_end+0xfffdb4e2>
    2aac:	deadbeef          	jal	t4,fffde096 <_end+0xfffdb4e6>
    2ab0:	deadbeef          	jal	t4,fffde09a <_end+0xfffdb4ea>
    2ab4:	deadbeef          	jal	t4,fffde09e <_end+0xfffdb4ee>
    2ab8:	deadbeef          	jal	t4,fffde0a2 <_end+0xfffdb4f2>
    2abc:	deadbeef          	jal	t4,fffde0a6 <_end+0xfffdb4f6>
    2ac0:	deadbeef          	jal	t4,fffde0aa <_end+0xfffdb4fa>
    2ac4:	deadbeef          	jal	t4,fffde0ae <_end+0xfffdb4fe>
    2ac8:	deadbeef          	jal	t4,fffde0b2 <_end+0xfffdb502>
    2acc:	deadbeef          	jal	t4,fffde0b6 <_end+0xfffdb506>
    2ad0:	deadbeef          	jal	t4,fffde0ba <_end+0xfffdb50a>
    2ad4:	deadbeef          	jal	t4,fffde0be <_end+0xfffdb50e>
    2ad8:	deadbeef          	jal	t4,fffde0c2 <_end+0xfffdb512>
    2adc:	deadbeef          	jal	t4,fffde0c6 <_end+0xfffdb516>
    2ae0:	deadbeef          	jal	t4,fffde0ca <_end+0xfffdb51a>
    2ae4:	deadbeef          	jal	t4,fffde0ce <_end+0xfffdb51e>
    2ae8:	deadbeef          	jal	t4,fffde0d2 <_end+0xfffdb522>
    2aec:	deadbeef          	jal	t4,fffde0d6 <_end+0xfffdb526>
    2af0:	deadbeef          	jal	t4,fffde0da <_end+0xfffdb52a>
    2af4:	deadbeef          	jal	t4,fffde0de <_end+0xfffdb52e>
    2af8:	deadbeef          	jal	t4,fffde0e2 <_end+0xfffdb532>
    2afc:	deadbeef          	jal	t4,fffde0e6 <_end+0xfffdb536>
    2b00:	deadbeef          	jal	t4,fffde0ea <_end+0xfffdb53a>
    2b04:	deadbeef          	jal	t4,fffde0ee <_end+0xfffdb53e>
    2b08:	deadbeef          	jal	t4,fffde0f2 <_end+0xfffdb542>
    2b0c:	deadbeef          	jal	t4,fffde0f6 <_end+0xfffdb546>
    2b10:	deadbeef          	jal	t4,fffde0fa <_end+0xfffdb54a>
    2b14:	deadbeef          	jal	t4,fffde0fe <_end+0xfffdb54e>
    2b18:	deadbeef          	jal	t4,fffde102 <_end+0xfffdb552>
    2b1c:	deadbeef          	jal	t4,fffde106 <_end+0xfffdb556>
    2b20:	deadbeef          	jal	t4,fffde10a <_end+0xfffdb55a>
    2b24:	deadbeef          	jal	t4,fffde10e <_end+0xfffdb55e>
    2b28:	deadbeef          	jal	t4,fffde112 <_end+0xfffdb562>
    2b2c:	deadbeef          	jal	t4,fffde116 <_end+0xfffdb566>
    2b30:	deadbeef          	jal	t4,fffde11a <_end+0xfffdb56a>
    2b34:	deadbeef          	jal	t4,fffde11e <_end+0xfffdb56e>
    2b38:	deadbeef          	jal	t4,fffde122 <_end+0xfffdb572>
    2b3c:	deadbeef          	jal	t4,fffde126 <_end+0xfffdb576>
    2b40:	deadbeef          	jal	t4,fffde12a <_end+0xfffdb57a>
    2b44:	deadbeef          	jal	t4,fffde12e <_end+0xfffdb57e>
    2b48:	deadbeef          	jal	t4,fffde132 <_end+0xfffdb582>
    2b4c:	deadbeef          	jal	t4,fffde136 <_end+0xfffdb586>
    2b50:	deadbeef          	jal	t4,fffde13a <_end+0xfffdb58a>
    2b54:	deadbeef          	jal	t4,fffde13e <_end+0xfffdb58e>
    2b58:	deadbeef          	jal	t4,fffde142 <_end+0xfffdb592>
    2b5c:	deadbeef          	jal	t4,fffde146 <_end+0xfffdb596>
    2b60:	deadbeef          	jal	t4,fffde14a <_end+0xfffdb59a>
    2b64:	deadbeef          	jal	t4,fffde14e <_end+0xfffdb59e>
    2b68:	deadbeef          	jal	t4,fffde152 <_end+0xfffdb5a2>
    2b6c:	deadbeef          	jal	t4,fffde156 <_end+0xfffdb5a6>
    2b70:	deadbeef          	jal	t4,fffde15a <_end+0xfffdb5aa>
    2b74:	deadbeef          	jal	t4,fffde15e <_end+0xfffdb5ae>
    2b78:	deadbeef          	jal	t4,fffde162 <_end+0xfffdb5b2>
    2b7c:	deadbeef          	jal	t4,fffde166 <_end+0xfffdb5b6>
    2b80:	deadbeef          	jal	t4,fffde16a <_end+0xfffdb5ba>
    2b84:	deadbeef          	jal	t4,fffde16e <_end+0xfffdb5be>
    2b88:	deadbeef          	jal	t4,fffde172 <_end+0xfffdb5c2>
    2b8c:	deadbeef          	jal	t4,fffde176 <_end+0xfffdb5c6>
    2b90:	deadbeef          	jal	t4,fffde17a <_end+0xfffdb5ca>
    2b94:	deadbeef          	jal	t4,fffde17e <_end+0xfffdb5ce>
    2b98:	deadbeef          	jal	t4,fffde182 <_end+0xfffdb5d2>
    2b9c:	deadbeef          	jal	t4,fffde186 <_end+0xfffdb5d6>
    2ba0:	deadbeef          	jal	t4,fffde18a <_end+0xfffdb5da>
    2ba4:	deadbeef          	jal	t4,fffde18e <_end+0xfffdb5de>
	...

Desensamblado de la sección .riscv.attributes:

00000000 <.riscv.attributes>:
   0:	2241                	.2byte	0x2241
   2:	0000                	.2byte	0x0
   4:	7200                	.2byte	0x7200
   6:	7369                	.2byte	0x7369
   8:	01007663          	bgeu	zero,a6,14 <rvtest_entry_point+0x14>
   c:	0018                	.2byte	0x18
   e:	0000                	.2byte	0x0
  10:	7205                	.2byte	0x7205
  12:	3376                	.2byte	0x3376
  14:	6932                	.2byte	0x6932
  16:	7032                	.2byte	0x7032
  18:	5f30                	.2byte	0x5f30
  1a:	3266                	.2byte	0x3266
  1c:	3070                	.2byte	0x3070
  1e:	0800                	.2byte	0x800
  20:	0a01                	.2byte	0xa01
  22:	0b              	Address 0x22 is out of bounds.

