
/home/alejandro/Escritorio/test_riscv2.5/riscv-compliance/work/rv32i_m/F/fnmadd_b5-01.elf:     formato del fichero elf32-littleriscv


Desensamblado de la sección .text.init:

00000000 <rvtest_entry_point>:
       0:	feedc0b7          	lui	ra,0xfeedc
       4:	ead08093          	add	ra,ra,-339 # feedbead <_end+0xfeed8ccd>
       8:	ff76e137          	lui	sp,0xff76e
       c:	f5610113          	add	sp,sp,-170 # ff76df56 <_end+0xff76ad76>
      10:	7fbb71b7          	lui	gp,0x7fbb7
      14:	fab18193          	add	gp,gp,-85 # 7fbb6fab <_end+0x7fbb3dcb>
      18:	bfddb237          	lui	tp,0xbfddb
      1c:	7d520213          	add	tp,tp,2005 # bfddb7d5 <_end+0xbfdd85f5>
      20:	00000297          	auipc	t0,0x0
      24:	0d828293          	add	t0,t0,216 # f8 <rvtest_code_begin>
      28:	00002317          	auipc	t1,0x2
      2c:	fd830313          	add	t1,t1,-40 # 2000 <rvtest_data_begin>
      30:	b7fbb3b7          	lui	t2,0xb7fbb
      34:	6fa38393          	add	t2,t2,1786 # b7fbb6fa <_end+0xb7fb851a>
      38:	5bfde437          	lui	s0,0x5bfde
      3c:	b7d40413          	add	s0,s0,-1155 # 5bfddb7d <_end+0x5bfda99d>
      40:	adfef4b7          	lui	s1,0xadfef
      44:	dbe48493          	add	s1,s1,-578 # adfeedbe <_end+0xadfebbde>
      48:	56ff7537          	lui	a0,0x56ff7
      4c:	6df50513          	add	a0,a0,1759 # 56ff76df <_end+0x56ff44ff>
      50:	ab7fc5b7          	lui	a1,0xab7fc
      54:	b6f58593          	add	a1,a1,-1169 # ab7fbb6f <_end+0xab7f898f>
      58:	d5bfe637          	lui	a2,0xd5bfe
      5c:	db760613          	add	a2,a2,-585 # d5bfddb7 <_end+0xd5bfabd7>
      60:	eadff6b7          	lui	a3,0xeadff
      64:	edb68693          	add	a3,a3,-293 # eadfeedb <_end+0xeadfbcfb>
      68:	f56ff737          	lui	a4,0xf56ff
      6c:	76d70713          	add	a4,a4,1901 # f56ff76d <_end+0xf56fc58d>
      70:	fab807b7          	lui	a5,0xfab80
      74:	bb678793          	add	a5,a5,-1098 # fab7fbb6 <_end+0xfab7c9d6>
      78:	7d5c0837          	lui	a6,0x7d5c0
      7c:	ddb80813          	add	a6,a6,-549 # 7d5bfddb <_end+0x7d5bcbfb>
      80:	beae08b7          	lui	a7,0xbeae0
      84:	eed88893          	add	a7,a7,-275 # beadfeed <_end+0xbeadcd0d>
      88:	df570937          	lui	s2,0xdf570
      8c:	f7690913          	add	s2,s2,-138 # df56ff76 <_end+0xdf56cd96>
      90:	6fab89b7          	lui	s3,0x6fab8
      94:	fbb98993          	add	s3,s3,-69 # 6fab7fbb <_end+0x6fab4ddb>
      98:	b7d5ca37          	lui	s4,0xb7d5c
      9c:	fdda0a13          	add	s4,s4,-35 # b7d5bfdd <_end+0xb7d58dfd>
      a0:	dbeaeab7          	lui	s5,0xdbeae
      a4:	feea8a93          	add	s5,s5,-18 # dbeadfee <_end+0xdbeaae0e>
      a8:	6df57b37          	lui	s6,0x6df57
      ac:	ff7b0b13          	add	s6,s6,-9 # 6df56ff7 <_end+0x6df53e17>
      b0:	b6fabbb7          	lui	s7,0xb6fab
      b4:	7fbb8b93          	add	s7,s7,2043 # b6fab7fb <_end+0xb6fa861b>
      b8:	db7d6c37          	lui	s8,0xdb7d6
      bc:	bfdc0c13          	add	s8,s8,-1027 # db7d5bfd <_end+0xdb7d2a1d>
      c0:	edbebcb7          	lui	s9,0xedbeb
      c4:	dfec8c93          	add	s9,s9,-514 # edbeadfe <_end+0xedbe7c1e>
      c8:	76df5d37          	lui	s10,0x76df5
      cc:	6ffd0d13          	add	s10,s10,1791 # 76df56ff <_end+0x76df251f>
      d0:	bb6fbdb7          	lui	s11,0xbb6fb
      d4:	b7fd8d93          	add	s11,s11,-1153 # bb6fab7f <_end+0xbb6f799f>
      d8:	ddb7de37          	lui	t3,0xddb7d
      dc:	5bfe0e13          	add	t3,t3,1471 # ddb7d5bf <_end+0xddb7a3df>
      e0:	eedbfeb7          	lui	t4,0xeedbf
      e4:	adfe8e93          	add	t4,t4,-1313 # eedbeadf <_end+0xeedbb8ff>
      e8:	f76dff37          	lui	t5,0xf76df
      ec:	56ff0f13          	add	t5,t5,1391 # f76df56f <_end+0xf76dc38f>
      f0:	fbb70fb7          	lui	t6,0xfbb70
      f4:	ab7f8f93          	add	t6,t6,-1353 # fbb6fab7 <_end+0xfbb6c8d7>

000000f8 <rvtest_code_begin>:
      f8:	00002537          	lui	a0,0x2
      fc:	30052073          	csrs	mstatus,a0
     100:	00002817          	auipc	a6,0x2
     104:	f0480813          	add	a6,a6,-252 # 2004 <test_fp>
     108:	00003797          	auipc	a5,0x3
     10c:	9b878793          	add	a5,a5,-1608 # 2ac0 <data_begin>

00000110 <inst_0>:
     110:	00082407          	flw	fs0,0(a6)
     114:	00482987          	flw	fs3,4(a6)
     118:	00882087          	flw	ft1,8(a6)
     11c:	00205073          	fsrmi	zero,0
     120:	093479cf          	fnmadd.s	fs3,fs0,fs3,ft1
     124:	001028f3          	frflags	a7
     128:	0137a027          	fsw	fs3,0(a5)
     12c:	0117a223          	sw	a7,4(a5)

00000130 <inst_1>:
     130:	00c82c07          	flw	fs8,12(a6)
     134:	01082307          	flw	ft6,16(a6)
     138:	01482887          	flw	fa7,20(a6)
     13c:	00225073          	fsrmi	zero,4
     140:	886c7c4f          	fnmadd.s	fs8,fs8,ft6,fa7
     144:	001028f3          	frflags	a7
     148:	0187a427          	fsw	fs8,8(a5)
     14c:	0117a623          	sw	a7,12(a5)

00000150 <inst_2>:
     150:	01882007          	flw	ft0,24(a6)
     154:	01c82007          	flw	ft0,28(a6)
     158:	02082c87          	flw	fs9,32(a6)
     15c:	0021d073          	fsrmi	zero,3
     160:	c800704f          	fnmadd.s	ft0,ft0,ft0,fs9
     164:	001028f3          	frflags	a7
     168:	0007a827          	fsw	ft0,16(a5)
     16c:	0117aa23          	sw	a7,20(a5)

00000170 <inst_3>:
     170:	02482107          	flw	ft2,36(a6)
     174:	02882387          	flw	ft7,40(a6)
     178:	02c82707          	flw	fa4,44(a6)
     17c:	00215073          	fsrmi	zero,2
     180:	70717f4f          	fnmadd.s	ft10,ft2,ft7,fa4
     184:	001028f3          	frflags	a7
     188:	01e7ac27          	fsw	ft10,24(a5)
     18c:	0117ae23          	sw	a7,28(a5)

00000190 <inst_4>:
     190:	03082087          	flw	ft1,48(a6)
     194:	03482787          	flw	fa5,52(a6)
     198:	03882787          	flw	fa5,56(a6)
     19c:	0020d073          	fsrmi	zero,1
     1a0:	78f0f7cf          	fnmadd.s	fa5,ft1,fa5,fa5
     1a4:	001028f3          	frflags	a7
     1a8:	02f7a027          	fsw	fa5,32(a5)
     1ac:	0317a223          	sw	a7,36(a5)

000001b0 <inst_5>:
     1b0:	03c82687          	flw	fa3,60(a6)
     1b4:	04082687          	flw	fa3,64(a6)
     1b8:	04482687          	flw	fa3,68(a6)
     1bc:	00205073          	fsrmi	zero,0
     1c0:	68d6f54f          	fnmadd.s	fa0,fa3,fa3,fa3
     1c4:	001028f3          	frflags	a7
     1c8:	02a7a427          	fsw	fa0,40(a5)
     1cc:	0317a623          	sw	a7,44(a5)

000001d0 <inst_6>:
     1d0:	04882607          	flw	fa2,72(a6)
     1d4:	04c82607          	flw	fa2,76(a6)
     1d8:	05082607          	flw	fa2,80(a6)
     1dc:	00225073          	fsrmi	zero,4
     1e0:	60c6764f          	fnmadd.s	fa2,fa2,fa2,fa2
     1e4:	001028f3          	frflags	a7
     1e8:	02c7a827          	fsw	fa2,48(a5)
     1ec:	0317aa23          	sw	a7,52(a5)

000001f0 <inst_7>:
     1f0:	05482d07          	flw	fs10,84(a6)
     1f4:	05882287          	flw	ft5,88(a6)
     1f8:	05c82d07          	flw	fs10,92(a6)
     1fc:	0021d073          	fsrmi	zero,3
     200:	d05d714f          	fnmadd.s	ft2,fs10,ft5,fs10
     204:	001028f3          	frflags	a7
     208:	0227ac27          	fsw	ft2,56(a5)
     20c:	0317ae23          	sw	a7,60(a5)

00000210 <inst_8>:
     210:	06082e87          	flw	ft9,96(a6)
     214:	06482207          	flw	ft4,100(a6)
     218:	06882207          	flw	ft4,104(a6)
     21c:	00215073          	fsrmi	zero,2
     220:	204ef94f          	fnmadd.s	fs2,ft9,ft4,ft4
     224:	001028f3          	frflags	a7
     228:	0527a027          	fsw	fs2,64(a5)
     22c:	0517a223          	sw	a7,68(a5)

00000230 <inst_9>:
     230:	06c82f07          	flw	ft10,108(a6)
     234:	07082807          	flw	fa6,112(a6)
     238:	07482b87          	flw	fs7,116(a6)
     23c:	0020d073          	fsrmi	zero,1
     240:	b90f7bcf          	fnmadd.s	fs7,ft10,fa6,fs7
     244:	001028f3          	frflags	a7
     248:	0577a427          	fsw	fs7,72(a5)
     24c:	0517a623          	sw	a7,76(a5)

00000250 <inst_10>:
     250:	07882887          	flw	fa7,120(a6)
     254:	07c82887          	flw	fa7,124(a6)
     258:	08082987          	flw	fs3,128(a6)
     25c:	00205073          	fsrmi	zero,0
     260:	9918f24f          	fnmadd.s	ft4,fa7,fa7,fs3
     264:	001028f3          	frflags	a7
     268:	0447a827          	fsw	ft4,80(a5)
     26c:	0517aa23          	sw	a7,84(a5)

00000270 <inst_11>:
     270:	08482807          	flw	fa6,132(a6)
     274:	08882e87          	flw	ft9,136(a6)
     278:	08c82807          	flw	fa6,140(a6)
     27c:	00225073          	fsrmi	zero,4
     280:	81d8784f          	fnmadd.s	fa6,fa6,ft9,fa6
     284:	001028f3          	frflags	a7
     288:	0507ac27          	fsw	fa6,88(a5)
     28c:	0517ae23          	sw	a7,92(a5)

00000290 <inst_12>:
     290:	09082487          	flw	fs1,144(a6)
     294:	09482f87          	flw	ft11,148(a6)
     298:	09882307          	flw	ft6,152(a6)
     29c:	0021d073          	fsrmi	zero,3
     2a0:	31f4f74f          	fnmadd.s	fa4,fs1,ft11,ft6
     2a4:	001028f3          	frflags	a7
     2a8:	06e7a027          	fsw	fa4,96(a5)
     2ac:	0717a223          	sw	a7,100(a5)

000002b0 <inst_13>:
     2b0:	09c82987          	flw	fs3,156(a6)
     2b4:	0a082087          	flw	ft1,160(a6)
     2b8:	0a482907          	flw	fs2,164(a6)
     2bc:	00215073          	fsrmi	zero,2
     2c0:	9019fb4f          	fnmadd.s	fs6,fs3,ft1,fs2
     2c4:	001028f3          	frflags	a7
     2c8:	0767a427          	fsw	fs6,104(a5)
     2cc:	0717a623          	sw	a7,108(a5)

000002d0 <inst_14>:
     2d0:	0a882307          	flw	ft6,168(a6)
     2d4:	0ac82187          	flw	ft3,172(a6)
     2d8:	0b082a07          	flw	fs4,176(a6)
     2dc:	0020d073          	fsrmi	zero,1
     2e0:	a0337e4f          	fnmadd.s	ft8,ft6,ft3,fs4
     2e4:	001028f3          	frflags	a7
     2e8:	07c7a827          	fsw	ft8,112(a5)
     2ec:	0717aa23          	sw	a7,116(a5)

000002f0 <inst_15>:
     2f0:	0b482707          	flw	fa4,180(a6)
     2f4:	0b882d87          	flw	fs11,184(a6)
     2f8:	0bc82f07          	flw	ft10,188(a6)
     2fc:	00205073          	fsrmi	zero,0
     300:	f1b7734f          	fnmadd.s	ft6,fa4,fs11,ft10
     304:	001028f3          	frflags	a7
     308:	0667ac27          	fsw	ft6,120(a5)
     30c:	0717ae23          	sw	a7,124(a5)

00000310 <inst_16>:
     310:	0c082507          	flw	fa0,192(a6)
     314:	0c482a87          	flw	fs5,196(a6)
     318:	0c882d87          	flw	fs11,200(a6)
     31c:	00225073          	fsrmi	zero,4
     320:	d9557fcf          	fnmadd.s	ft11,fa0,fs5,fs11
     324:	001028f3          	frflags	a7
     328:	09f7a027          	fsw	ft11,128(a5)
     32c:	0917a223          	sw	a7,132(a5)

00000330 <inst_17>:
     330:	0cc82f87          	flw	ft11,204(a6)
     334:	0d082507          	flw	fa0,208(a6)
     338:	0d482107          	flw	ft2,212(a6)
     33c:	0021d073          	fsrmi	zero,3
     340:	10aff6cf          	fnmadd.s	fa3,ft11,fa0,ft2
     344:	001028f3          	frflags	a7
     348:	08d7a427          	fsw	fa3,136(a5)
     34c:	0917a623          	sw	a7,140(a5)

00000350 <inst_18>:
     350:	0d882b07          	flw	fs6,216(a6)
     354:	0dc82c87          	flw	fs9,220(a6)
     358:	0e082187          	flw	ft3,224(a6)
     35c:	00215073          	fsrmi	zero,2
     360:	199b7a4f          	fnmadd.s	fs4,fs6,fs9,ft3
     364:	001028f3          	frflags	a7
     368:	0947a827          	fsw	fs4,144(a5)
     36c:	0917aa23          	sw	a7,148(a5)

00000370 <inst_19>:
     370:	0e482e07          	flw	ft8,228(a6)
     374:	0e882487          	flw	fs1,232(a6)
     378:	0ec82507          	flw	fa0,236(a6)
     37c:	0020d073          	fsrmi	zero,1
     380:	509e7acf          	fnmadd.s	fs5,ft8,fs1,fa0
     384:	001028f3          	frflags	a7
     388:	0957ac27          	fsw	fs5,152(a5)
     38c:	0917ae23          	sw	a7,156(a5)

00000390 <inst_20>:
     390:	0f082d87          	flw	fs11,240(a6)
     394:	0f482b87          	flw	fs7,244(a6)
     398:	0f882f87          	flw	ft11,248(a6)
     39c:	00205073          	fsrmi	zero,0
     3a0:	f97df5cf          	fnmadd.s	fa1,fs11,fs7,ft11
     3a4:	001028f3          	frflags	a7
     3a8:	0ab7a027          	fsw	fa1,160(a5)
     3ac:	0b17a223          	sw	a7,164(a5)

000003b0 <inst_21>:
     3b0:	0fc82287          	flw	ft5,252(a6)
     3b4:	10082587          	flw	fa1,256(a6)
     3b8:	10482c07          	flw	fs8,260(a6)
     3bc:	00225073          	fsrmi	zero,4
     3c0:	c0b2fccf          	fnmadd.s	fs9,ft5,fa1,fs8
     3c4:	001028f3          	frflags	a7
     3c8:	0b97a427          	fsw	fs9,168(a5)
     3cc:	0b17a623          	sw	a7,172(a5)

000003d0 <inst_22>:
     3d0:	10882907          	flw	fs2,264(a6)
     3d4:	10c82c07          	flw	fs8,268(a6)
     3d8:	11082587          	flw	fa1,272(a6)
     3dc:	0021d073          	fsrmi	zero,3
     3e0:	598971cf          	fnmadd.s	ft3,fs2,fs8,fa1
     3e4:	001028f3          	frflags	a7
     3e8:	0a37a827          	fsw	ft3,176(a5)
     3ec:	0b17aa23          	sw	a7,180(a5)

000003f0 <inst_23>:
     3f0:	11482c87          	flw	fs9,276(a6)
     3f4:	11882f07          	flw	ft10,280(a6)
     3f8:	11c82e87          	flw	ft9,284(a6)
     3fc:	00215073          	fsrmi	zero,2
     400:	e9ecfd4f          	fnmadd.s	fs10,fs9,ft10,ft9
     404:	001028f3          	frflags	a7
     408:	0ba7ac27          	fsw	fs10,184(a5)
     40c:	0b17ae23          	sw	a7,188(a5)

00000410 <inst_24>:
     410:	12082a07          	flw	fs4,288(a6)
     414:	12482e07          	flw	ft8,292(a6)
     418:	12882007          	flw	ft0,296(a6)
     41c:	0020d073          	fsrmi	zero,1
     420:	01ca7ecf          	fnmadd.s	ft9,fs4,ft8,ft0
     424:	001028f3          	frflags	a7
     428:	0dd7a027          	fsw	ft9,192(a5)
     42c:	0d17a223          	sw	a7,196(a5)

00000430 <inst_25>:
     430:	12c82387          	flw	ft7,300(a6)
     434:	13082707          	flw	fa4,304(a6)
     438:	13482e07          	flw	ft8,308(a6)
     43c:	00205073          	fsrmi	zero,0
     440:	e0e3f44f          	fnmadd.s	fs0,ft7,fa4,ft8
     444:	001028f3          	frflags	a7
     448:	0c87a427          	fsw	fs0,200(a5)
     44c:	0d17a623          	sw	a7,204(a5)

00000450 <inst_26>:
     450:	13882a87          	flw	fs5,312(a6)
     454:	13c82407          	flw	fs0,316(a6)
     458:	14082387          	flw	ft7,320(a6)
     45c:	00225073          	fsrmi	zero,4
     460:	388af8cf          	fnmadd.s	fa7,fs5,fs0,ft7
     464:	001028f3          	frflags	a7
     468:	0d17a827          	fsw	fa7,208(a5)
     46c:	0d17aa23          	sw	a7,212(a5)

00000470 <inst_27>:
     470:	14482787          	flw	fa5,324(a6)
     474:	14882107          	flw	ft2,328(a6)
     478:	14c82287          	flw	ft5,332(a6)
     47c:	0021d073          	fsrmi	zero,3
     480:	2827f0cf          	fnmadd.s	ft1,fa5,ft2,ft5
     484:	001028f3          	frflags	a7
     488:	0c17ac27          	fsw	ft1,216(a5)
     48c:	0d17ae23          	sw	a7,220(a5)

00000490 <inst_28>:
     490:	15082b87          	flw	fs7,336(a6)
     494:	15482b07          	flw	fs6,340(a6)
     498:	15882487          	flw	fs1,344(a6)
     49c:	00215073          	fsrmi	zero,2
     4a0:	496bf3cf          	fnmadd.s	ft7,fs7,fs6,fs1
     4a4:	001028f3          	frflags	a7
     4a8:	0e77a027          	fsw	ft7,224(a5)
     4ac:	0f17a223          	sw	a7,228(a5)

000004b0 <inst_29>:
     4b0:	15c82207          	flw	ft4,348(a6)
     4b4:	16082d07          	flw	fs10,352(a6)
     4b8:	16482a87          	flw	fs5,356(a6)
     4bc:	0020d073          	fsrmi	zero,1
     4c0:	a9a27dcf          	fnmadd.s	fs11,ft4,fs10,fs5
     4c4:	001028f3          	frflags	a7
     4c8:	0fb7a427          	fsw	fs11,232(a5)
     4cc:	0f17a623          	sw	a7,236(a5)

000004d0 <inst_30>:
     4d0:	16882187          	flw	ft3,360(a6)
     4d4:	16c82a07          	flw	fs4,364(a6)
     4d8:	17082407          	flw	fs0,368(a6)
     4dc:	00205073          	fsrmi	zero,0
     4e0:	4141f4cf          	fnmadd.s	fs1,ft3,fs4,fs0
     4e4:	001028f3          	frflags	a7
     4e8:	0e97a827          	fsw	fs1,240(a5)
     4ec:	0f17aa23          	sw	a7,244(a5)

000004f0 <inst_31>:
     4f0:	17482587          	flw	fa1,372(a6)
     4f4:	17882907          	flw	fs2,376(a6)
     4f8:	17c82b07          	flw	fs6,380(a6)
     4fc:	00225073          	fsrmi	zero,4
     500:	b125f2cf          	fnmadd.s	ft5,fa1,fs2,fs6
     504:	001028f3          	frflags	a7
     508:	0e57ac27          	fsw	ft5,248(a5)
     50c:	0f17ae23          	sw	a7,252(a5)

00000510 <inst_32>:
     510:	18082507          	flw	fa0,384(a6)
     514:	18482587          	flw	fa1,388(a6)
     518:	18882607          	flw	fa2,392(a6)
     51c:	0021d073          	fsrmi	zero,3
     520:	60b576cf          	fnmadd.s	fa3,fa0,fa1,fa2
     524:	001028f3          	frflags	a7
     528:	10d7a027          	fsw	fa3,256(a5)
     52c:	1117a223          	sw	a7,260(a5)

00000530 <inst_33>:
     530:	18c82507          	flw	fa0,396(a6)
     534:	19082587          	flw	fa1,400(a6)
     538:	19482607          	flw	fa2,404(a6)
     53c:	00215073          	fsrmi	zero,2
     540:	60b576cf          	fnmadd.s	fa3,fa0,fa1,fa2
     544:	001028f3          	frflags	a7
     548:	10d7a427          	fsw	fa3,264(a5)
     54c:	1117a623          	sw	a7,268(a5)

00000550 <inst_34>:
     550:	19882507          	flw	fa0,408(a6)
     554:	19c82587          	flw	fa1,412(a6)
     558:	1a082607          	flw	fa2,416(a6)
     55c:	0020d073          	fsrmi	zero,1
     560:	60b576cf          	fnmadd.s	fa3,fa0,fa1,fa2
     564:	001028f3          	frflags	a7
     568:	10d7a827          	fsw	fa3,272(a5)
     56c:	1117aa23          	sw	a7,276(a5)

00000570 <inst_35>:
     570:	1a482507          	flw	fa0,420(a6)
     574:	1a882587          	flw	fa1,424(a6)
     578:	1ac82607          	flw	fa2,428(a6)
     57c:	00205073          	fsrmi	zero,0
     580:	60b576cf          	fnmadd.s	fa3,fa0,fa1,fa2
     584:	001028f3          	frflags	a7
     588:	10d7ac27          	fsw	fa3,280(a5)
     58c:	1117ae23          	sw	a7,284(a5)

00000590 <inst_36>:
     590:	1b082507          	flw	fa0,432(a6)
     594:	1b482587          	flw	fa1,436(a6)
     598:	1b882607          	flw	fa2,440(a6)
     59c:	00225073          	fsrmi	zero,4
     5a0:	60b576cf          	fnmadd.s	fa3,fa0,fa1,fa2
     5a4:	001028f3          	frflags	a7
     5a8:	12d7a027          	fsw	fa3,288(a5)
     5ac:	1317a223          	sw	a7,292(a5)

000005b0 <inst_37>:
     5b0:	1bc82507          	flw	fa0,444(a6)
     5b4:	1c082587          	flw	fa1,448(a6)
     5b8:	1c482607          	flw	fa2,452(a6)
     5bc:	0021d073          	fsrmi	zero,3
     5c0:	60b576cf          	fnmadd.s	fa3,fa0,fa1,fa2
     5c4:	001028f3          	frflags	a7
     5c8:	12d7a427          	fsw	fa3,296(a5)
     5cc:	1317a623          	sw	a7,300(a5)

000005d0 <inst_38>:
     5d0:	1c882507          	flw	fa0,456(a6)
     5d4:	1cc82587          	flw	fa1,460(a6)
     5d8:	1d082607          	flw	fa2,464(a6)
     5dc:	00215073          	fsrmi	zero,2
     5e0:	60b576cf          	fnmadd.s	fa3,fa0,fa1,fa2
     5e4:	001028f3          	frflags	a7
     5e8:	12d7a827          	fsw	fa3,304(a5)
     5ec:	1317aa23          	sw	a7,308(a5)

000005f0 <inst_39>:
     5f0:	1d482507          	flw	fa0,468(a6)
     5f4:	1d882587          	flw	fa1,472(a6)
     5f8:	1dc82607          	flw	fa2,476(a6)
     5fc:	0020d073          	fsrmi	zero,1
     600:	60b576cf          	fnmadd.s	fa3,fa0,fa1,fa2
     604:	001028f3          	frflags	a7
     608:	12d7ac27          	fsw	fa3,312(a5)
     60c:	1317ae23          	sw	a7,316(a5)

00000610 <inst_40>:
     610:	1e082507          	flw	fa0,480(a6)
     614:	1e482587          	flw	fa1,484(a6)
     618:	1e882607          	flw	fa2,488(a6)
     61c:	00205073          	fsrmi	zero,0
     620:	60b576cf          	fnmadd.s	fa3,fa0,fa1,fa2
     624:	001028f3          	frflags	a7
     628:	14d7a027          	fsw	fa3,320(a5)
     62c:	1517a223          	sw	a7,324(a5)

00000630 <inst_41>:
     630:	1ec82507          	flw	fa0,492(a6)
     634:	1f082587          	flw	fa1,496(a6)
     638:	1f482607          	flw	fa2,500(a6)
     63c:	00225073          	fsrmi	zero,4
     640:	60b576cf          	fnmadd.s	fa3,fa0,fa1,fa2
     644:	001028f3          	frflags	a7
     648:	14d7a427          	fsw	fa3,328(a5)
     64c:	1517a623          	sw	a7,332(a5)

00000650 <inst_42>:
     650:	1f882507          	flw	fa0,504(a6)
     654:	1fc82587          	flw	fa1,508(a6)
     658:	20082607          	flw	fa2,512(a6)
     65c:	0021d073          	fsrmi	zero,3
     660:	60b576cf          	fnmadd.s	fa3,fa0,fa1,fa2
     664:	001028f3          	frflags	a7
     668:	14d7a827          	fsw	fa3,336(a5)
     66c:	1517aa23          	sw	a7,340(a5)

00000670 <inst_43>:
     670:	20482507          	flw	fa0,516(a6)
     674:	20882587          	flw	fa1,520(a6)
     678:	20c82607          	flw	fa2,524(a6)
     67c:	00215073          	fsrmi	zero,2
     680:	60b576cf          	fnmadd.s	fa3,fa0,fa1,fa2
     684:	001028f3          	frflags	a7
     688:	14d7ac27          	fsw	fa3,344(a5)
     68c:	1517ae23          	sw	a7,348(a5)

00000690 <inst_44>:
     690:	21082507          	flw	fa0,528(a6)
     694:	21482587          	flw	fa1,532(a6)
     698:	21882607          	flw	fa2,536(a6)
     69c:	0020d073          	fsrmi	zero,1
     6a0:	60b576cf          	fnmadd.s	fa3,fa0,fa1,fa2
     6a4:	001028f3          	frflags	a7
     6a8:	16d7a027          	fsw	fa3,352(a5)
     6ac:	1717a223          	sw	a7,356(a5)

000006b0 <inst_45>:
     6b0:	21c82507          	flw	fa0,540(a6)
     6b4:	22082587          	flw	fa1,544(a6)
     6b8:	22482607          	flw	fa2,548(a6)
     6bc:	00205073          	fsrmi	zero,0
     6c0:	60b576cf          	fnmadd.s	fa3,fa0,fa1,fa2
     6c4:	001028f3          	frflags	a7
     6c8:	16d7a427          	fsw	fa3,360(a5)
     6cc:	1717a623          	sw	a7,364(a5)

000006d0 <inst_46>:
     6d0:	22882507          	flw	fa0,552(a6)
     6d4:	22c82587          	flw	fa1,556(a6)
     6d8:	23082607          	flw	fa2,560(a6)
     6dc:	00225073          	fsrmi	zero,4
     6e0:	60b576cf          	fnmadd.s	fa3,fa0,fa1,fa2
     6e4:	001028f3          	frflags	a7
     6e8:	16d7a827          	fsw	fa3,368(a5)
     6ec:	1717aa23          	sw	a7,372(a5)

000006f0 <inst_47>:
     6f0:	23482507          	flw	fa0,564(a6)
     6f4:	23882587          	flw	fa1,568(a6)
     6f8:	23c82607          	flw	fa2,572(a6)
     6fc:	0021d073          	fsrmi	zero,3
     700:	60b576cf          	fnmadd.s	fa3,fa0,fa1,fa2
     704:	001028f3          	frflags	a7
     708:	16d7ac27          	fsw	fa3,376(a5)
     70c:	1717ae23          	sw	a7,380(a5)

00000710 <inst_48>:
     710:	24082507          	flw	fa0,576(a6)
     714:	24482587          	flw	fa1,580(a6)
     718:	24882607          	flw	fa2,584(a6)
     71c:	00215073          	fsrmi	zero,2
     720:	60b576cf          	fnmadd.s	fa3,fa0,fa1,fa2
     724:	001028f3          	frflags	a7
     728:	18d7a027          	fsw	fa3,384(a5)
     72c:	1917a223          	sw	a7,388(a5)

00000730 <inst_49>:
     730:	24c82507          	flw	fa0,588(a6)
     734:	25082587          	flw	fa1,592(a6)
     738:	25482607          	flw	fa2,596(a6)
     73c:	0020d073          	fsrmi	zero,1
     740:	60b576cf          	fnmadd.s	fa3,fa0,fa1,fa2
     744:	001028f3          	frflags	a7
     748:	18d7a427          	fsw	fa3,392(a5)
     74c:	1917a623          	sw	a7,396(a5)

00000750 <inst_50>:
     750:	25882507          	flw	fa0,600(a6)
     754:	25c82587          	flw	fa1,604(a6)
     758:	26082607          	flw	fa2,608(a6)
     75c:	00205073          	fsrmi	zero,0
     760:	60b576cf          	fnmadd.s	fa3,fa0,fa1,fa2
     764:	001028f3          	frflags	a7
     768:	18d7a827          	fsw	fa3,400(a5)
     76c:	1917aa23          	sw	a7,404(a5)

00000770 <inst_51>:
     770:	26482507          	flw	fa0,612(a6)
     774:	26882587          	flw	fa1,616(a6)
     778:	26c82607          	flw	fa2,620(a6)
     77c:	00225073          	fsrmi	zero,4
     780:	60b576cf          	fnmadd.s	fa3,fa0,fa1,fa2
     784:	001028f3          	frflags	a7
     788:	18d7ac27          	fsw	fa3,408(a5)
     78c:	1917ae23          	sw	a7,412(a5)

00000790 <inst_52>:
     790:	27082507          	flw	fa0,624(a6)
     794:	27482587          	flw	fa1,628(a6)
     798:	27882607          	flw	fa2,632(a6)
     79c:	0021d073          	fsrmi	zero,3
     7a0:	60b576cf          	fnmadd.s	fa3,fa0,fa1,fa2
     7a4:	001028f3          	frflags	a7
     7a8:	1ad7a027          	fsw	fa3,416(a5)
     7ac:	1b17a223          	sw	a7,420(a5)

000007b0 <inst_53>:
     7b0:	27c82507          	flw	fa0,636(a6)
     7b4:	28082587          	flw	fa1,640(a6)
     7b8:	28482607          	flw	fa2,644(a6)
     7bc:	00215073          	fsrmi	zero,2
     7c0:	60b576cf          	fnmadd.s	fa3,fa0,fa1,fa2
     7c4:	001028f3          	frflags	a7
     7c8:	1ad7a427          	fsw	fa3,424(a5)
     7cc:	1b17a623          	sw	a7,428(a5)

000007d0 <inst_54>:
     7d0:	28882507          	flw	fa0,648(a6)
     7d4:	28c82587          	flw	fa1,652(a6)
     7d8:	29082607          	flw	fa2,656(a6)
     7dc:	0020d073          	fsrmi	zero,1
     7e0:	60b576cf          	fnmadd.s	fa3,fa0,fa1,fa2
     7e4:	001028f3          	frflags	a7
     7e8:	1ad7a827          	fsw	fa3,432(a5)
     7ec:	1b17aa23          	sw	a7,436(a5)

000007f0 <inst_55>:
     7f0:	29482507          	flw	fa0,660(a6)
     7f4:	29882587          	flw	fa1,664(a6)
     7f8:	29c82607          	flw	fa2,668(a6)
     7fc:	00205073          	fsrmi	zero,0
     800:	60b576cf          	fnmadd.s	fa3,fa0,fa1,fa2
     804:	001028f3          	frflags	a7
     808:	1ad7ac27          	fsw	fa3,440(a5)
     80c:	1b17ae23          	sw	a7,444(a5)

00000810 <inst_56>:
     810:	2a082507          	flw	fa0,672(a6)
     814:	2a482587          	flw	fa1,676(a6)
     818:	2a882607          	flw	fa2,680(a6)
     81c:	00225073          	fsrmi	zero,4
     820:	60b576cf          	fnmadd.s	fa3,fa0,fa1,fa2
     824:	001028f3          	frflags	a7
     828:	1cd7a027          	fsw	fa3,448(a5)
     82c:	1d17a223          	sw	a7,452(a5)

00000830 <inst_57>:
     830:	2ac82507          	flw	fa0,684(a6)
     834:	2b082587          	flw	fa1,688(a6)
     838:	2b482607          	flw	fa2,692(a6)
     83c:	0021d073          	fsrmi	zero,3
     840:	60b576cf          	fnmadd.s	fa3,fa0,fa1,fa2
     844:	001028f3          	frflags	a7
     848:	1cd7a427          	fsw	fa3,456(a5)
     84c:	1d17a623          	sw	a7,460(a5)

00000850 <inst_58>:
     850:	2b882507          	flw	fa0,696(a6)
     854:	2bc82587          	flw	fa1,700(a6)
     858:	2c082607          	flw	fa2,704(a6)
     85c:	00215073          	fsrmi	zero,2
     860:	60b576cf          	fnmadd.s	fa3,fa0,fa1,fa2
     864:	001028f3          	frflags	a7
     868:	1cd7a827          	fsw	fa3,464(a5)
     86c:	1d17aa23          	sw	a7,468(a5)

00000870 <inst_59>:
     870:	2c482507          	flw	fa0,708(a6)
     874:	2c882587          	flw	fa1,712(a6)
     878:	2cc82607          	flw	fa2,716(a6)
     87c:	0020d073          	fsrmi	zero,1
     880:	60b576cf          	fnmadd.s	fa3,fa0,fa1,fa2
     884:	001028f3          	frflags	a7
     888:	1cd7ac27          	fsw	fa3,472(a5)
     88c:	1d17ae23          	sw	a7,476(a5)

00000890 <inst_60>:
     890:	2d082507          	flw	fa0,720(a6)
     894:	2d482587          	flw	fa1,724(a6)
     898:	2d882607          	flw	fa2,728(a6)
     89c:	00205073          	fsrmi	zero,0
     8a0:	60b576cf          	fnmadd.s	fa3,fa0,fa1,fa2
     8a4:	001028f3          	frflags	a7
     8a8:	1ed7a027          	fsw	fa3,480(a5)
     8ac:	1f17a223          	sw	a7,484(a5)

000008b0 <inst_61>:
     8b0:	2dc82507          	flw	fa0,732(a6)
     8b4:	2e082587          	flw	fa1,736(a6)
     8b8:	2e482607          	flw	fa2,740(a6)
     8bc:	00225073          	fsrmi	zero,4
     8c0:	60b576cf          	fnmadd.s	fa3,fa0,fa1,fa2
     8c4:	001028f3          	frflags	a7
     8c8:	1ed7a427          	fsw	fa3,488(a5)
     8cc:	1f17a623          	sw	a7,492(a5)

000008d0 <inst_62>:
     8d0:	2e882507          	flw	fa0,744(a6)
     8d4:	2ec82587          	flw	fa1,748(a6)
     8d8:	2f082607          	flw	fa2,752(a6)
     8dc:	0021d073          	fsrmi	zero,3
     8e0:	60b576cf          	fnmadd.s	fa3,fa0,fa1,fa2
     8e4:	001028f3          	frflags	a7
     8e8:	1ed7a827          	fsw	fa3,496(a5)
     8ec:	1f17aa23          	sw	a7,500(a5)

000008f0 <inst_63>:
     8f0:	2f482507          	flw	fa0,756(a6)
     8f4:	2f882587          	flw	fa1,760(a6)
     8f8:	2fc82607          	flw	fa2,764(a6)
     8fc:	00215073          	fsrmi	zero,2
     900:	60b576cf          	fnmadd.s	fa3,fa0,fa1,fa2
     904:	001028f3          	frflags	a7
     908:	1ed7ac27          	fsw	fa3,504(a5)
     90c:	1f17ae23          	sw	a7,508(a5)

00000910 <inst_64>:
     910:	30082507          	flw	fa0,768(a6)
     914:	30482587          	flw	fa1,772(a6)
     918:	30882607          	flw	fa2,776(a6)
     91c:	0020d073          	fsrmi	zero,1
     920:	60b576cf          	fnmadd.s	fa3,fa0,fa1,fa2
     924:	001028f3          	frflags	a7
     928:	20d7a027          	fsw	fa3,512(a5)
     92c:	2117a223          	sw	a7,516(a5)

00000930 <inst_65>:
     930:	30c82507          	flw	fa0,780(a6)
     934:	31082587          	flw	fa1,784(a6)
     938:	31482607          	flw	fa2,788(a6)
     93c:	00205073          	fsrmi	zero,0
     940:	60b576cf          	fnmadd.s	fa3,fa0,fa1,fa2
     944:	001028f3          	frflags	a7
     948:	20d7a427          	fsw	fa3,520(a5)
     94c:	2117a623          	sw	a7,524(a5)

00000950 <inst_66>:
     950:	31882507          	flw	fa0,792(a6)
     954:	31c82587          	flw	fa1,796(a6)
     958:	32082607          	flw	fa2,800(a6)
     95c:	00225073          	fsrmi	zero,4
     960:	60b576cf          	fnmadd.s	fa3,fa0,fa1,fa2
     964:	001028f3          	frflags	a7
     968:	20d7a827          	fsw	fa3,528(a5)
     96c:	2117aa23          	sw	a7,532(a5)

00000970 <inst_67>:
     970:	32482507          	flw	fa0,804(a6)
     974:	32882587          	flw	fa1,808(a6)
     978:	32c82607          	flw	fa2,812(a6)
     97c:	0021d073          	fsrmi	zero,3
     980:	60b576cf          	fnmadd.s	fa3,fa0,fa1,fa2
     984:	001028f3          	frflags	a7
     988:	20d7ac27          	fsw	fa3,536(a5)
     98c:	2117ae23          	sw	a7,540(a5)

00000990 <inst_68>:
     990:	33082507          	flw	fa0,816(a6)
     994:	33482587          	flw	fa1,820(a6)
     998:	33882607          	flw	fa2,824(a6)
     99c:	00215073          	fsrmi	zero,2
     9a0:	60b576cf          	fnmadd.s	fa3,fa0,fa1,fa2
     9a4:	001028f3          	frflags	a7
     9a8:	22d7a027          	fsw	fa3,544(a5)
     9ac:	2317a223          	sw	a7,548(a5)

000009b0 <inst_69>:
     9b0:	33c82507          	flw	fa0,828(a6)
     9b4:	34082587          	flw	fa1,832(a6)
     9b8:	34482607          	flw	fa2,836(a6)
     9bc:	0020d073          	fsrmi	zero,1
     9c0:	60b576cf          	fnmadd.s	fa3,fa0,fa1,fa2
     9c4:	001028f3          	frflags	a7
     9c8:	22d7a427          	fsw	fa3,552(a5)
     9cc:	2317a623          	sw	a7,556(a5)

000009d0 <inst_70>:
     9d0:	34882507          	flw	fa0,840(a6)
     9d4:	34c82587          	flw	fa1,844(a6)
     9d8:	35082607          	flw	fa2,848(a6)
     9dc:	00205073          	fsrmi	zero,0
     9e0:	60b576cf          	fnmadd.s	fa3,fa0,fa1,fa2
     9e4:	001028f3          	frflags	a7
     9e8:	22d7a827          	fsw	fa3,560(a5)
     9ec:	2317aa23          	sw	a7,564(a5)

000009f0 <inst_71>:
     9f0:	35482507          	flw	fa0,852(a6)
     9f4:	35882587          	flw	fa1,856(a6)
     9f8:	35c82607          	flw	fa2,860(a6)
     9fc:	00225073          	fsrmi	zero,4
     a00:	60b576cf          	fnmadd.s	fa3,fa0,fa1,fa2
     a04:	001028f3          	frflags	a7
     a08:	22d7ac27          	fsw	fa3,568(a5)
     a0c:	2317ae23          	sw	a7,572(a5)

00000a10 <inst_72>:
     a10:	36082507          	flw	fa0,864(a6)
     a14:	36482587          	flw	fa1,868(a6)
     a18:	36882607          	flw	fa2,872(a6)
     a1c:	0021d073          	fsrmi	zero,3
     a20:	60b576cf          	fnmadd.s	fa3,fa0,fa1,fa2
     a24:	001028f3          	frflags	a7
     a28:	24d7a027          	fsw	fa3,576(a5)
     a2c:	2517a223          	sw	a7,580(a5)

00000a30 <inst_73>:
     a30:	36c82507          	flw	fa0,876(a6)
     a34:	37082587          	flw	fa1,880(a6)
     a38:	37482607          	flw	fa2,884(a6)
     a3c:	00215073          	fsrmi	zero,2
     a40:	60b576cf          	fnmadd.s	fa3,fa0,fa1,fa2
     a44:	001028f3          	frflags	a7
     a48:	24d7a427          	fsw	fa3,584(a5)
     a4c:	2517a623          	sw	a7,588(a5)

00000a50 <inst_74>:
     a50:	37882507          	flw	fa0,888(a6)
     a54:	37c82587          	flw	fa1,892(a6)
     a58:	38082607          	flw	fa2,896(a6)
     a5c:	0020d073          	fsrmi	zero,1
     a60:	60b576cf          	fnmadd.s	fa3,fa0,fa1,fa2
     a64:	001028f3          	frflags	a7
     a68:	24d7a827          	fsw	fa3,592(a5)
     a6c:	2517aa23          	sw	a7,596(a5)

00000a70 <inst_75>:
     a70:	38482507          	flw	fa0,900(a6)
     a74:	38882587          	flw	fa1,904(a6)
     a78:	38c82607          	flw	fa2,908(a6)
     a7c:	00205073          	fsrmi	zero,0
     a80:	60b576cf          	fnmadd.s	fa3,fa0,fa1,fa2
     a84:	001028f3          	frflags	a7
     a88:	24d7ac27          	fsw	fa3,600(a5)
     a8c:	2517ae23          	sw	a7,604(a5)

00000a90 <inst_76>:
     a90:	39082507          	flw	fa0,912(a6)
     a94:	39482587          	flw	fa1,916(a6)
     a98:	39882607          	flw	fa2,920(a6)
     a9c:	00225073          	fsrmi	zero,4
     aa0:	60b576cf          	fnmadd.s	fa3,fa0,fa1,fa2
     aa4:	001028f3          	frflags	a7
     aa8:	26d7a027          	fsw	fa3,608(a5)
     aac:	2717a223          	sw	a7,612(a5)

00000ab0 <inst_77>:
     ab0:	39c82507          	flw	fa0,924(a6)
     ab4:	3a082587          	flw	fa1,928(a6)
     ab8:	3a482607          	flw	fa2,932(a6)
     abc:	0021d073          	fsrmi	zero,3
     ac0:	60b576cf          	fnmadd.s	fa3,fa0,fa1,fa2
     ac4:	001028f3          	frflags	a7
     ac8:	26d7a427          	fsw	fa3,616(a5)
     acc:	2717a623          	sw	a7,620(a5)

00000ad0 <inst_78>:
     ad0:	3a882507          	flw	fa0,936(a6)
     ad4:	3ac82587          	flw	fa1,940(a6)
     ad8:	3b082607          	flw	fa2,944(a6)
     adc:	00215073          	fsrmi	zero,2
     ae0:	60b576cf          	fnmadd.s	fa3,fa0,fa1,fa2
     ae4:	001028f3          	frflags	a7
     ae8:	26d7a827          	fsw	fa3,624(a5)
     aec:	2717aa23          	sw	a7,628(a5)

00000af0 <inst_79>:
     af0:	3b482507          	flw	fa0,948(a6)
     af4:	3b882587          	flw	fa1,952(a6)
     af8:	3bc82607          	flw	fa2,956(a6)
     afc:	0020d073          	fsrmi	zero,1
     b00:	60b576cf          	fnmadd.s	fa3,fa0,fa1,fa2
     b04:	001028f3          	frflags	a7
     b08:	26d7ac27          	fsw	fa3,632(a5)
     b0c:	2717ae23          	sw	a7,636(a5)

00000b10 <inst_80>:
     b10:	3c082507          	flw	fa0,960(a6)
     b14:	3c482587          	flw	fa1,964(a6)
     b18:	3c882607          	flw	fa2,968(a6)
     b1c:	00205073          	fsrmi	zero,0
     b20:	60b576cf          	fnmadd.s	fa3,fa0,fa1,fa2
     b24:	001028f3          	frflags	a7
     b28:	28d7a027          	fsw	fa3,640(a5)
     b2c:	2917a223          	sw	a7,644(a5)

00000b30 <inst_81>:
     b30:	3cc82507          	flw	fa0,972(a6)
     b34:	3d082587          	flw	fa1,976(a6)
     b38:	3d482607          	flw	fa2,980(a6)
     b3c:	00225073          	fsrmi	zero,4
     b40:	60b576cf          	fnmadd.s	fa3,fa0,fa1,fa2
     b44:	001028f3          	frflags	a7
     b48:	28d7a427          	fsw	fa3,648(a5)
     b4c:	2917a623          	sw	a7,652(a5)

00000b50 <inst_82>:
     b50:	3d882507          	flw	fa0,984(a6)
     b54:	3dc82587          	flw	fa1,988(a6)
     b58:	3e082607          	flw	fa2,992(a6)
     b5c:	0021d073          	fsrmi	zero,3
     b60:	60b576cf          	fnmadd.s	fa3,fa0,fa1,fa2
     b64:	001028f3          	frflags	a7
     b68:	28d7a827          	fsw	fa3,656(a5)
     b6c:	2917aa23          	sw	a7,660(a5)

00000b70 <inst_83>:
     b70:	3e482507          	flw	fa0,996(a6)
     b74:	3e882587          	flw	fa1,1000(a6)
     b78:	3ec82607          	flw	fa2,1004(a6)
     b7c:	00215073          	fsrmi	zero,2
     b80:	60b576cf          	fnmadd.s	fa3,fa0,fa1,fa2
     b84:	001028f3          	frflags	a7
     b88:	28d7ac27          	fsw	fa3,664(a5)
     b8c:	2917ae23          	sw	a7,668(a5)

00000b90 <inst_84>:
     b90:	3f082507          	flw	fa0,1008(a6)
     b94:	3f482587          	flw	fa1,1012(a6)
     b98:	3f882607          	flw	fa2,1016(a6)
     b9c:	0020d073          	fsrmi	zero,1
     ba0:	60b576cf          	fnmadd.s	fa3,fa0,fa1,fa2
     ba4:	001028f3          	frflags	a7
     ba8:	2ad7a027          	fsw	fa3,672(a5)
     bac:	2b17a223          	sw	a7,676(a5)

00000bb0 <inst_85>:
     bb0:	3fc82507          	flw	fa0,1020(a6)
     bb4:	40082587          	flw	fa1,1024(a6)
     bb8:	40482607          	flw	fa2,1028(a6)
     bbc:	00205073          	fsrmi	zero,0
     bc0:	60b576cf          	fnmadd.s	fa3,fa0,fa1,fa2
     bc4:	001028f3          	frflags	a7
     bc8:	2ad7a427          	fsw	fa3,680(a5)
     bcc:	2b17a623          	sw	a7,684(a5)

00000bd0 <inst_86>:
     bd0:	40882507          	flw	fa0,1032(a6)
     bd4:	40c82587          	flw	fa1,1036(a6)
     bd8:	41082607          	flw	fa2,1040(a6)
     bdc:	00225073          	fsrmi	zero,4
     be0:	60b576cf          	fnmadd.s	fa3,fa0,fa1,fa2
     be4:	001028f3          	frflags	a7
     be8:	2ad7a827          	fsw	fa3,688(a5)
     bec:	2b17aa23          	sw	a7,692(a5)

00000bf0 <inst_87>:
     bf0:	41482507          	flw	fa0,1044(a6)
     bf4:	41882587          	flw	fa1,1048(a6)
     bf8:	41c82607          	flw	fa2,1052(a6)
     bfc:	0021d073          	fsrmi	zero,3
     c00:	60b576cf          	fnmadd.s	fa3,fa0,fa1,fa2
     c04:	001028f3          	frflags	a7
     c08:	2ad7ac27          	fsw	fa3,696(a5)
     c0c:	2b17ae23          	sw	a7,700(a5)

00000c10 <inst_88>:
     c10:	42082507          	flw	fa0,1056(a6)
     c14:	42482587          	flw	fa1,1060(a6)
     c18:	42882607          	flw	fa2,1064(a6)
     c1c:	00215073          	fsrmi	zero,2
     c20:	60b576cf          	fnmadd.s	fa3,fa0,fa1,fa2
     c24:	001028f3          	frflags	a7
     c28:	2cd7a027          	fsw	fa3,704(a5)
     c2c:	2d17a223          	sw	a7,708(a5)

00000c30 <inst_89>:
     c30:	42c82507          	flw	fa0,1068(a6)
     c34:	43082587          	flw	fa1,1072(a6)
     c38:	43482607          	flw	fa2,1076(a6)
     c3c:	0020d073          	fsrmi	zero,1
     c40:	60b576cf          	fnmadd.s	fa3,fa0,fa1,fa2
     c44:	001028f3          	frflags	a7
     c48:	2cd7a427          	fsw	fa3,712(a5)
     c4c:	2d17a623          	sw	a7,716(a5)

00000c50 <inst_90>:
     c50:	43882507          	flw	fa0,1080(a6)
     c54:	43c82587          	flw	fa1,1084(a6)
     c58:	44082607          	flw	fa2,1088(a6)
     c5c:	00205073          	fsrmi	zero,0
     c60:	60b576cf          	fnmadd.s	fa3,fa0,fa1,fa2
     c64:	001028f3          	frflags	a7
     c68:	2cd7a827          	fsw	fa3,720(a5)
     c6c:	2d17aa23          	sw	a7,724(a5)

00000c70 <inst_91>:
     c70:	44482507          	flw	fa0,1092(a6)
     c74:	44882587          	flw	fa1,1096(a6)
     c78:	44c82607          	flw	fa2,1100(a6)
     c7c:	00225073          	fsrmi	zero,4
     c80:	60b576cf          	fnmadd.s	fa3,fa0,fa1,fa2
     c84:	001028f3          	frflags	a7
     c88:	2cd7ac27          	fsw	fa3,728(a5)
     c8c:	2d17ae23          	sw	a7,732(a5)

00000c90 <inst_92>:
     c90:	45082507          	flw	fa0,1104(a6)
     c94:	45482587          	flw	fa1,1108(a6)
     c98:	45882607          	flw	fa2,1112(a6)
     c9c:	0021d073          	fsrmi	zero,3
     ca0:	60b576cf          	fnmadd.s	fa3,fa0,fa1,fa2
     ca4:	001028f3          	frflags	a7
     ca8:	2ed7a027          	fsw	fa3,736(a5)
     cac:	2f17a223          	sw	a7,740(a5)

00000cb0 <inst_93>:
     cb0:	45c82507          	flw	fa0,1116(a6)
     cb4:	46082587          	flw	fa1,1120(a6)
     cb8:	46482607          	flw	fa2,1124(a6)
     cbc:	00215073          	fsrmi	zero,2
     cc0:	60b576cf          	fnmadd.s	fa3,fa0,fa1,fa2
     cc4:	001028f3          	frflags	a7
     cc8:	2ed7a427          	fsw	fa3,744(a5)
     ccc:	2f17a623          	sw	a7,748(a5)

00000cd0 <inst_94>:
     cd0:	46882507          	flw	fa0,1128(a6)
     cd4:	46c82587          	flw	fa1,1132(a6)
     cd8:	47082607          	flw	fa2,1136(a6)
     cdc:	0020d073          	fsrmi	zero,1
     ce0:	60b576cf          	fnmadd.s	fa3,fa0,fa1,fa2
     ce4:	001028f3          	frflags	a7
     ce8:	2ed7a827          	fsw	fa3,752(a5)
     cec:	2f17aa23          	sw	a7,756(a5)

00000cf0 <inst_95>:
     cf0:	47482507          	flw	fa0,1140(a6)
     cf4:	47882587          	flw	fa1,1144(a6)
     cf8:	47c82607          	flw	fa2,1148(a6)
     cfc:	00205073          	fsrmi	zero,0
     d00:	60b576cf          	fnmadd.s	fa3,fa0,fa1,fa2
     d04:	001028f3          	frflags	a7
     d08:	2ed7ac27          	fsw	fa3,760(a5)
     d0c:	2f17ae23          	sw	a7,764(a5)

00000d10 <inst_96>:
     d10:	48082507          	flw	fa0,1152(a6)
     d14:	48482587          	flw	fa1,1156(a6)
     d18:	48882607          	flw	fa2,1160(a6)
     d1c:	00225073          	fsrmi	zero,4
     d20:	60b576cf          	fnmadd.s	fa3,fa0,fa1,fa2
     d24:	001028f3          	frflags	a7
     d28:	30d7a027          	fsw	fa3,768(a5)
     d2c:	3117a223          	sw	a7,772(a5)

00000d30 <inst_97>:
     d30:	48c82507          	flw	fa0,1164(a6)
     d34:	49082587          	flw	fa1,1168(a6)
     d38:	49482607          	flw	fa2,1172(a6)
     d3c:	0021d073          	fsrmi	zero,3
     d40:	60b576cf          	fnmadd.s	fa3,fa0,fa1,fa2
     d44:	001028f3          	frflags	a7
     d48:	30d7a427          	fsw	fa3,776(a5)
     d4c:	3117a623          	sw	a7,780(a5)

00000d50 <inst_98>:
     d50:	49882507          	flw	fa0,1176(a6)
     d54:	49c82587          	flw	fa1,1180(a6)
     d58:	4a082607          	flw	fa2,1184(a6)
     d5c:	00215073          	fsrmi	zero,2
     d60:	60b576cf          	fnmadd.s	fa3,fa0,fa1,fa2
     d64:	001028f3          	frflags	a7
     d68:	30d7a827          	fsw	fa3,784(a5)
     d6c:	3117aa23          	sw	a7,788(a5)

00000d70 <inst_99>:
     d70:	4a482507          	flw	fa0,1188(a6)
     d74:	4a882587          	flw	fa1,1192(a6)
     d78:	4ac82607          	flw	fa2,1196(a6)
     d7c:	0020d073          	fsrmi	zero,1
     d80:	60b576cf          	fnmadd.s	fa3,fa0,fa1,fa2
     d84:	001028f3          	frflags	a7
     d88:	30d7ac27          	fsw	fa3,792(a5)
     d8c:	3117ae23          	sw	a7,796(a5)

00000d90 <inst_100>:
     d90:	4b082507          	flw	fa0,1200(a6)
     d94:	4b482587          	flw	fa1,1204(a6)
     d98:	4b882607          	flw	fa2,1208(a6)
     d9c:	00205073          	fsrmi	zero,0
     da0:	60b576cf          	fnmadd.s	fa3,fa0,fa1,fa2
     da4:	001028f3          	frflags	a7
     da8:	32d7a027          	fsw	fa3,800(a5)
     dac:	3317a223          	sw	a7,804(a5)

00000db0 <inst_101>:
     db0:	4bc82507          	flw	fa0,1212(a6)
     db4:	4c082587          	flw	fa1,1216(a6)
     db8:	4c482607          	flw	fa2,1220(a6)
     dbc:	00225073          	fsrmi	zero,4
     dc0:	60b576cf          	fnmadd.s	fa3,fa0,fa1,fa2
     dc4:	001028f3          	frflags	a7
     dc8:	32d7a427          	fsw	fa3,808(a5)
     dcc:	3317a623          	sw	a7,812(a5)

00000dd0 <inst_102>:
     dd0:	4c882507          	flw	fa0,1224(a6)
     dd4:	4cc82587          	flw	fa1,1228(a6)
     dd8:	4d082607          	flw	fa2,1232(a6)
     ddc:	0021d073          	fsrmi	zero,3
     de0:	60b576cf          	fnmadd.s	fa3,fa0,fa1,fa2
     de4:	001028f3          	frflags	a7
     de8:	32d7a827          	fsw	fa3,816(a5)
     dec:	3317aa23          	sw	a7,820(a5)

00000df0 <inst_103>:
     df0:	4d482507          	flw	fa0,1236(a6)
     df4:	4d882587          	flw	fa1,1240(a6)
     df8:	4dc82607          	flw	fa2,1244(a6)
     dfc:	00215073          	fsrmi	zero,2
     e00:	60b576cf          	fnmadd.s	fa3,fa0,fa1,fa2
     e04:	001028f3          	frflags	a7
     e08:	32d7ac27          	fsw	fa3,824(a5)
     e0c:	3317ae23          	sw	a7,828(a5)

00000e10 <inst_104>:
     e10:	4e082507          	flw	fa0,1248(a6)
     e14:	4e482587          	flw	fa1,1252(a6)
     e18:	4e882607          	flw	fa2,1256(a6)
     e1c:	0020d073          	fsrmi	zero,1
     e20:	60b576cf          	fnmadd.s	fa3,fa0,fa1,fa2
     e24:	001028f3          	frflags	a7
     e28:	34d7a027          	fsw	fa3,832(a5)
     e2c:	3517a223          	sw	a7,836(a5)

00000e30 <inst_105>:
     e30:	4ec82507          	flw	fa0,1260(a6)
     e34:	4f082587          	flw	fa1,1264(a6)
     e38:	4f482607          	flw	fa2,1268(a6)
     e3c:	00205073          	fsrmi	zero,0
     e40:	60b576cf          	fnmadd.s	fa3,fa0,fa1,fa2
     e44:	001028f3          	frflags	a7
     e48:	34d7a427          	fsw	fa3,840(a5)
     e4c:	3517a623          	sw	a7,844(a5)

00000e50 <inst_106>:
     e50:	4f882507          	flw	fa0,1272(a6)
     e54:	4fc82587          	flw	fa1,1276(a6)
     e58:	50082607          	flw	fa2,1280(a6)
     e5c:	00225073          	fsrmi	zero,4
     e60:	60b576cf          	fnmadd.s	fa3,fa0,fa1,fa2
     e64:	001028f3          	frflags	a7
     e68:	34d7a827          	fsw	fa3,848(a5)
     e6c:	3517aa23          	sw	a7,852(a5)

00000e70 <inst_107>:
     e70:	50482507          	flw	fa0,1284(a6)
     e74:	50882587          	flw	fa1,1288(a6)
     e78:	50c82607          	flw	fa2,1292(a6)
     e7c:	0021d073          	fsrmi	zero,3
     e80:	60b576cf          	fnmadd.s	fa3,fa0,fa1,fa2
     e84:	001028f3          	frflags	a7
     e88:	34d7ac27          	fsw	fa3,856(a5)
     e8c:	3517ae23          	sw	a7,860(a5)

00000e90 <inst_108>:
     e90:	51082507          	flw	fa0,1296(a6)
     e94:	51482587          	flw	fa1,1300(a6)
     e98:	51882607          	flw	fa2,1304(a6)
     e9c:	00215073          	fsrmi	zero,2
     ea0:	60b576cf          	fnmadd.s	fa3,fa0,fa1,fa2
     ea4:	001028f3          	frflags	a7
     ea8:	36d7a027          	fsw	fa3,864(a5)
     eac:	3717a223          	sw	a7,868(a5)

00000eb0 <inst_109>:
     eb0:	51c82507          	flw	fa0,1308(a6)
     eb4:	52082587          	flw	fa1,1312(a6)
     eb8:	52482607          	flw	fa2,1316(a6)
     ebc:	0020d073          	fsrmi	zero,1
     ec0:	60b576cf          	fnmadd.s	fa3,fa0,fa1,fa2
     ec4:	001028f3          	frflags	a7
     ec8:	36d7a427          	fsw	fa3,872(a5)
     ecc:	3717a623          	sw	a7,876(a5)

00000ed0 <inst_110>:
     ed0:	52882507          	flw	fa0,1320(a6)
     ed4:	52c82587          	flw	fa1,1324(a6)
     ed8:	53082607          	flw	fa2,1328(a6)
     edc:	00205073          	fsrmi	zero,0
     ee0:	60b576cf          	fnmadd.s	fa3,fa0,fa1,fa2
     ee4:	001028f3          	frflags	a7
     ee8:	36d7a827          	fsw	fa3,880(a5)
     eec:	3717aa23          	sw	a7,884(a5)

00000ef0 <inst_111>:
     ef0:	53482507          	flw	fa0,1332(a6)
     ef4:	53882587          	flw	fa1,1336(a6)
     ef8:	53c82607          	flw	fa2,1340(a6)
     efc:	00225073          	fsrmi	zero,4
     f00:	60b576cf          	fnmadd.s	fa3,fa0,fa1,fa2
     f04:	001028f3          	frflags	a7
     f08:	36d7ac27          	fsw	fa3,888(a5)
     f0c:	3717ae23          	sw	a7,892(a5)

00000f10 <inst_112>:
     f10:	54082507          	flw	fa0,1344(a6)
     f14:	54482587          	flw	fa1,1348(a6)
     f18:	54882607          	flw	fa2,1352(a6)
     f1c:	0021d073          	fsrmi	zero,3
     f20:	60b576cf          	fnmadd.s	fa3,fa0,fa1,fa2
     f24:	001028f3          	frflags	a7
     f28:	38d7a027          	fsw	fa3,896(a5)
     f2c:	3917a223          	sw	a7,900(a5)

00000f30 <inst_113>:
     f30:	54c82507          	flw	fa0,1356(a6)
     f34:	55082587          	flw	fa1,1360(a6)
     f38:	55482607          	flw	fa2,1364(a6)
     f3c:	00215073          	fsrmi	zero,2
     f40:	60b576cf          	fnmadd.s	fa3,fa0,fa1,fa2
     f44:	001028f3          	frflags	a7
     f48:	38d7a427          	fsw	fa3,904(a5)
     f4c:	3917a623          	sw	a7,908(a5)

00000f50 <inst_114>:
     f50:	55882507          	flw	fa0,1368(a6)
     f54:	55c82587          	flw	fa1,1372(a6)
     f58:	56082607          	flw	fa2,1376(a6)
     f5c:	0020d073          	fsrmi	zero,1
     f60:	60b576cf          	fnmadd.s	fa3,fa0,fa1,fa2
     f64:	001028f3          	frflags	a7
     f68:	38d7a827          	fsw	fa3,912(a5)
     f6c:	3917aa23          	sw	a7,916(a5)

00000f70 <inst_115>:
     f70:	56482507          	flw	fa0,1380(a6)
     f74:	56882587          	flw	fa1,1384(a6)
     f78:	56c82607          	flw	fa2,1388(a6)
     f7c:	00205073          	fsrmi	zero,0
     f80:	60b576cf          	fnmadd.s	fa3,fa0,fa1,fa2
     f84:	001028f3          	frflags	a7
     f88:	38d7ac27          	fsw	fa3,920(a5)
     f8c:	3917ae23          	sw	a7,924(a5)

00000f90 <inst_116>:
     f90:	57082507          	flw	fa0,1392(a6)
     f94:	57482587          	flw	fa1,1396(a6)
     f98:	57882607          	flw	fa2,1400(a6)
     f9c:	00225073          	fsrmi	zero,4
     fa0:	60b576cf          	fnmadd.s	fa3,fa0,fa1,fa2
     fa4:	001028f3          	frflags	a7
     fa8:	3ad7a027          	fsw	fa3,928(a5)
     fac:	3b17a223          	sw	a7,932(a5)

00000fb0 <inst_117>:
     fb0:	57c82507          	flw	fa0,1404(a6)
     fb4:	58082587          	flw	fa1,1408(a6)
     fb8:	58482607          	flw	fa2,1412(a6)
     fbc:	0021d073          	fsrmi	zero,3
     fc0:	60b576cf          	fnmadd.s	fa3,fa0,fa1,fa2
     fc4:	001028f3          	frflags	a7
     fc8:	3ad7a427          	fsw	fa3,936(a5)
     fcc:	3b17a623          	sw	a7,940(a5)

00000fd0 <inst_118>:
     fd0:	58882507          	flw	fa0,1416(a6)
     fd4:	58c82587          	flw	fa1,1420(a6)
     fd8:	59082607          	flw	fa2,1424(a6)
     fdc:	00215073          	fsrmi	zero,2
     fe0:	60b576cf          	fnmadd.s	fa3,fa0,fa1,fa2
     fe4:	001028f3          	frflags	a7
     fe8:	3ad7a827          	fsw	fa3,944(a5)
     fec:	3b17aa23          	sw	a7,948(a5)

00000ff0 <inst_119>:
     ff0:	59482507          	flw	fa0,1428(a6)
     ff4:	59882587          	flw	fa1,1432(a6)
     ff8:	59c82607          	flw	fa2,1436(a6)
     ffc:	0020d073          	fsrmi	zero,1
    1000:	60b576cf          	fnmadd.s	fa3,fa0,fa1,fa2
    1004:	001028f3          	frflags	a7
    1008:	3ad7ac27          	fsw	fa3,952(a5)
    100c:	3b17ae23          	sw	a7,956(a5)

00001010 <inst_120>:
    1010:	5a082507          	flw	fa0,1440(a6)
    1014:	5a482587          	flw	fa1,1444(a6)
    1018:	5a882607          	flw	fa2,1448(a6)
    101c:	00205073          	fsrmi	zero,0
    1020:	60b576cf          	fnmadd.s	fa3,fa0,fa1,fa2
    1024:	001028f3          	frflags	a7
    1028:	3cd7a027          	fsw	fa3,960(a5)
    102c:	3d17a223          	sw	a7,964(a5)

00001030 <inst_121>:
    1030:	5ac82507          	flw	fa0,1452(a6)
    1034:	5b082587          	flw	fa1,1456(a6)
    1038:	5b482607          	flw	fa2,1460(a6)
    103c:	00225073          	fsrmi	zero,4
    1040:	60b576cf          	fnmadd.s	fa3,fa0,fa1,fa2
    1044:	001028f3          	frflags	a7
    1048:	3cd7a427          	fsw	fa3,968(a5)
    104c:	3d17a623          	sw	a7,972(a5)

00001050 <inst_122>:
    1050:	5b882507          	flw	fa0,1464(a6)
    1054:	5bc82587          	flw	fa1,1468(a6)
    1058:	5c082607          	flw	fa2,1472(a6)
    105c:	0021d073          	fsrmi	zero,3
    1060:	60b576cf          	fnmadd.s	fa3,fa0,fa1,fa2
    1064:	001028f3          	frflags	a7
    1068:	3cd7a827          	fsw	fa3,976(a5)
    106c:	3d17aa23          	sw	a7,980(a5)

00001070 <inst_123>:
    1070:	5c482507          	flw	fa0,1476(a6)
    1074:	5c882587          	flw	fa1,1480(a6)
    1078:	5cc82607          	flw	fa2,1484(a6)
    107c:	00215073          	fsrmi	zero,2
    1080:	60b576cf          	fnmadd.s	fa3,fa0,fa1,fa2
    1084:	001028f3          	frflags	a7
    1088:	3cd7ac27          	fsw	fa3,984(a5)
    108c:	3d17ae23          	sw	a7,988(a5)

00001090 <inst_124>:
    1090:	5d082507          	flw	fa0,1488(a6)
    1094:	5d482587          	flw	fa1,1492(a6)
    1098:	5d882607          	flw	fa2,1496(a6)
    109c:	0020d073          	fsrmi	zero,1
    10a0:	60b576cf          	fnmadd.s	fa3,fa0,fa1,fa2
    10a4:	001028f3          	frflags	a7
    10a8:	3ed7a027          	fsw	fa3,992(a5)
    10ac:	3f17a223          	sw	a7,996(a5)

000010b0 <inst_125>:
    10b0:	5dc82507          	flw	fa0,1500(a6)
    10b4:	5e082587          	flw	fa1,1504(a6)
    10b8:	5e482607          	flw	fa2,1508(a6)
    10bc:	00205073          	fsrmi	zero,0
    10c0:	60b576cf          	fnmadd.s	fa3,fa0,fa1,fa2
    10c4:	001028f3          	frflags	a7
    10c8:	3ed7a427          	fsw	fa3,1000(a5)
    10cc:	3f17a623          	sw	a7,1004(a5)

000010d0 <inst_126>:
    10d0:	5e882507          	flw	fa0,1512(a6)
    10d4:	5ec82587          	flw	fa1,1516(a6)
    10d8:	5f082607          	flw	fa2,1520(a6)
    10dc:	00225073          	fsrmi	zero,4
    10e0:	60b576cf          	fnmadd.s	fa3,fa0,fa1,fa2
    10e4:	001028f3          	frflags	a7
    10e8:	3ed7a827          	fsw	fa3,1008(a5)
    10ec:	3f17aa23          	sw	a7,1012(a5)

000010f0 <inst_127>:
    10f0:	5f482507          	flw	fa0,1524(a6)
    10f4:	5f882587          	flw	fa1,1528(a6)
    10f8:	5fc82607          	flw	fa2,1532(a6)
    10fc:	0021d073          	fsrmi	zero,3
    1100:	60b576cf          	fnmadd.s	fa3,fa0,fa1,fa2
    1104:	001028f3          	frflags	a7
    1108:	3ed7ac27          	fsw	fa3,1016(a5)
    110c:	3f17ae23          	sw	a7,1020(a5)

00001110 <inst_128>:
    1110:	60082507          	flw	fa0,1536(a6)
    1114:	60482587          	flw	fa1,1540(a6)
    1118:	60882607          	flw	fa2,1544(a6)
    111c:	00215073          	fsrmi	zero,2
    1120:	60b576cf          	fnmadd.s	fa3,fa0,fa1,fa2
    1124:	001028f3          	frflags	a7
    1128:	40d7a027          	fsw	fa3,1024(a5)
    112c:	4117a223          	sw	a7,1028(a5)

00001130 <inst_129>:
    1130:	60c82507          	flw	fa0,1548(a6)
    1134:	61082587          	flw	fa1,1552(a6)
    1138:	61482607          	flw	fa2,1556(a6)
    113c:	0020d073          	fsrmi	zero,1
    1140:	60b576cf          	fnmadd.s	fa3,fa0,fa1,fa2
    1144:	001028f3          	frflags	a7
    1148:	40d7a427          	fsw	fa3,1032(a5)
    114c:	4117a623          	sw	a7,1036(a5)

00001150 <inst_130>:
    1150:	61882507          	flw	fa0,1560(a6)
    1154:	61c82587          	flw	fa1,1564(a6)
    1158:	62082607          	flw	fa2,1568(a6)
    115c:	00205073          	fsrmi	zero,0
    1160:	60b576cf          	fnmadd.s	fa3,fa0,fa1,fa2
    1164:	001028f3          	frflags	a7
    1168:	40d7a827          	fsw	fa3,1040(a5)
    116c:	4117aa23          	sw	a7,1044(a5)

00001170 <inst_131>:
    1170:	62482507          	flw	fa0,1572(a6)
    1174:	62882587          	flw	fa1,1576(a6)
    1178:	62c82607          	flw	fa2,1580(a6)
    117c:	00225073          	fsrmi	zero,4
    1180:	60b576cf          	fnmadd.s	fa3,fa0,fa1,fa2
    1184:	001028f3          	frflags	a7
    1188:	40d7ac27          	fsw	fa3,1048(a5)
    118c:	4117ae23          	sw	a7,1052(a5)

00001190 <inst_132>:
    1190:	63082507          	flw	fa0,1584(a6)
    1194:	63482587          	flw	fa1,1588(a6)
    1198:	63882607          	flw	fa2,1592(a6)
    119c:	0021d073          	fsrmi	zero,3
    11a0:	60b576cf          	fnmadd.s	fa3,fa0,fa1,fa2
    11a4:	001028f3          	frflags	a7
    11a8:	42d7a027          	fsw	fa3,1056(a5)
    11ac:	4317a223          	sw	a7,1060(a5)

000011b0 <inst_133>:
    11b0:	63c82507          	flw	fa0,1596(a6)
    11b4:	64082587          	flw	fa1,1600(a6)
    11b8:	64482607          	flw	fa2,1604(a6)
    11bc:	00215073          	fsrmi	zero,2
    11c0:	60b576cf          	fnmadd.s	fa3,fa0,fa1,fa2
    11c4:	001028f3          	frflags	a7
    11c8:	42d7a427          	fsw	fa3,1064(a5)
    11cc:	4317a623          	sw	a7,1068(a5)

000011d0 <inst_134>:
    11d0:	64882507          	flw	fa0,1608(a6)
    11d4:	64c82587          	flw	fa1,1612(a6)
    11d8:	65082607          	flw	fa2,1616(a6)
    11dc:	0020d073          	fsrmi	zero,1
    11e0:	60b576cf          	fnmadd.s	fa3,fa0,fa1,fa2
    11e4:	001028f3          	frflags	a7
    11e8:	42d7a827          	fsw	fa3,1072(a5)
    11ec:	4317aa23          	sw	a7,1076(a5)

000011f0 <inst_135>:
    11f0:	65482507          	flw	fa0,1620(a6)
    11f4:	65882587          	flw	fa1,1624(a6)
    11f8:	65c82607          	flw	fa2,1628(a6)
    11fc:	00205073          	fsrmi	zero,0
    1200:	60b576cf          	fnmadd.s	fa3,fa0,fa1,fa2
    1204:	001028f3          	frflags	a7
    1208:	42d7ac27          	fsw	fa3,1080(a5)
    120c:	4317ae23          	sw	a7,1084(a5)

00001210 <inst_136>:
    1210:	66082507          	flw	fa0,1632(a6)
    1214:	66482587          	flw	fa1,1636(a6)
    1218:	66882607          	flw	fa2,1640(a6)
    121c:	00225073          	fsrmi	zero,4
    1220:	60b576cf          	fnmadd.s	fa3,fa0,fa1,fa2
    1224:	001028f3          	frflags	a7
    1228:	44d7a027          	fsw	fa3,1088(a5)
    122c:	4517a223          	sw	a7,1092(a5)

00001230 <inst_137>:
    1230:	66c82507          	flw	fa0,1644(a6)
    1234:	67082587          	flw	fa1,1648(a6)
    1238:	67482607          	flw	fa2,1652(a6)
    123c:	0021d073          	fsrmi	zero,3
    1240:	60b576cf          	fnmadd.s	fa3,fa0,fa1,fa2
    1244:	001028f3          	frflags	a7
    1248:	44d7a427          	fsw	fa3,1096(a5)
    124c:	4517a623          	sw	a7,1100(a5)

00001250 <inst_138>:
    1250:	67882507          	flw	fa0,1656(a6)
    1254:	67c82587          	flw	fa1,1660(a6)
    1258:	68082607          	flw	fa2,1664(a6)
    125c:	00215073          	fsrmi	zero,2
    1260:	60b576cf          	fnmadd.s	fa3,fa0,fa1,fa2
    1264:	001028f3          	frflags	a7
    1268:	44d7a827          	fsw	fa3,1104(a5)
    126c:	4517aa23          	sw	a7,1108(a5)

00001270 <inst_139>:
    1270:	68482507          	flw	fa0,1668(a6)
    1274:	68882587          	flw	fa1,1672(a6)
    1278:	68c82607          	flw	fa2,1676(a6)
    127c:	0020d073          	fsrmi	zero,1
    1280:	60b576cf          	fnmadd.s	fa3,fa0,fa1,fa2
    1284:	001028f3          	frflags	a7
    1288:	44d7ac27          	fsw	fa3,1112(a5)
    128c:	4517ae23          	sw	a7,1116(a5)

00001290 <inst_140>:
    1290:	69082507          	flw	fa0,1680(a6)
    1294:	69482587          	flw	fa1,1684(a6)
    1298:	69882607          	flw	fa2,1688(a6)
    129c:	00205073          	fsrmi	zero,0
    12a0:	60b576cf          	fnmadd.s	fa3,fa0,fa1,fa2
    12a4:	001028f3          	frflags	a7
    12a8:	46d7a027          	fsw	fa3,1120(a5)
    12ac:	4717a223          	sw	a7,1124(a5)

000012b0 <inst_141>:
    12b0:	69c82507          	flw	fa0,1692(a6)
    12b4:	6a082587          	flw	fa1,1696(a6)
    12b8:	6a482607          	flw	fa2,1700(a6)
    12bc:	00225073          	fsrmi	zero,4
    12c0:	60b576cf          	fnmadd.s	fa3,fa0,fa1,fa2
    12c4:	001028f3          	frflags	a7
    12c8:	46d7a427          	fsw	fa3,1128(a5)
    12cc:	4717a623          	sw	a7,1132(a5)

000012d0 <inst_142>:
    12d0:	6a882507          	flw	fa0,1704(a6)
    12d4:	6ac82587          	flw	fa1,1708(a6)
    12d8:	6b082607          	flw	fa2,1712(a6)
    12dc:	0021d073          	fsrmi	zero,3
    12e0:	60b576cf          	fnmadd.s	fa3,fa0,fa1,fa2
    12e4:	001028f3          	frflags	a7
    12e8:	46d7a827          	fsw	fa3,1136(a5)
    12ec:	4717aa23          	sw	a7,1140(a5)

000012f0 <inst_143>:
    12f0:	6b482507          	flw	fa0,1716(a6)
    12f4:	6b882587          	flw	fa1,1720(a6)
    12f8:	6bc82607          	flw	fa2,1724(a6)
    12fc:	00215073          	fsrmi	zero,2
    1300:	60b576cf          	fnmadd.s	fa3,fa0,fa1,fa2
    1304:	001028f3          	frflags	a7
    1308:	46d7ac27          	fsw	fa3,1144(a5)
    130c:	4717ae23          	sw	a7,1148(a5)

00001310 <inst_144>:
    1310:	6c082507          	flw	fa0,1728(a6)
    1314:	6c482587          	flw	fa1,1732(a6)
    1318:	6c882607          	flw	fa2,1736(a6)
    131c:	0020d073          	fsrmi	zero,1
    1320:	60b576cf          	fnmadd.s	fa3,fa0,fa1,fa2
    1324:	001028f3          	frflags	a7
    1328:	48d7a027          	fsw	fa3,1152(a5)
    132c:	4917a223          	sw	a7,1156(a5)

00001330 <inst_145>:
    1330:	6cc82507          	flw	fa0,1740(a6)
    1334:	6d082587          	flw	fa1,1744(a6)
    1338:	6d482607          	flw	fa2,1748(a6)
    133c:	00205073          	fsrmi	zero,0
    1340:	60b576cf          	fnmadd.s	fa3,fa0,fa1,fa2
    1344:	001028f3          	frflags	a7
    1348:	48d7a427          	fsw	fa3,1160(a5)
    134c:	4917a623          	sw	a7,1164(a5)

00001350 <inst_146>:
    1350:	6d882507          	flw	fa0,1752(a6)
    1354:	6dc82587          	flw	fa1,1756(a6)
    1358:	6e082607          	flw	fa2,1760(a6)
    135c:	00225073          	fsrmi	zero,4
    1360:	60b576cf          	fnmadd.s	fa3,fa0,fa1,fa2
    1364:	001028f3          	frflags	a7
    1368:	48d7a827          	fsw	fa3,1168(a5)
    136c:	4917aa23          	sw	a7,1172(a5)

00001370 <inst_147>:
    1370:	6e482507          	flw	fa0,1764(a6)
    1374:	6e882587          	flw	fa1,1768(a6)
    1378:	6ec82607          	flw	fa2,1772(a6)
    137c:	0021d073          	fsrmi	zero,3
    1380:	60b576cf          	fnmadd.s	fa3,fa0,fa1,fa2
    1384:	001028f3          	frflags	a7
    1388:	48d7ac27          	fsw	fa3,1176(a5)
    138c:	4917ae23          	sw	a7,1180(a5)

00001390 <inst_148>:
    1390:	6f082507          	flw	fa0,1776(a6)
    1394:	6f482587          	flw	fa1,1780(a6)
    1398:	6f882607          	flw	fa2,1784(a6)
    139c:	00215073          	fsrmi	zero,2
    13a0:	60b576cf          	fnmadd.s	fa3,fa0,fa1,fa2
    13a4:	001028f3          	frflags	a7
    13a8:	4ad7a027          	fsw	fa3,1184(a5)
    13ac:	4b17a223          	sw	a7,1188(a5)

000013b0 <inst_149>:
    13b0:	6fc82507          	flw	fa0,1788(a6)
    13b4:	70082587          	flw	fa1,1792(a6)
    13b8:	70482607          	flw	fa2,1796(a6)
    13bc:	0020d073          	fsrmi	zero,1
    13c0:	60b576cf          	fnmadd.s	fa3,fa0,fa1,fa2
    13c4:	001028f3          	frflags	a7
    13c8:	4ad7a427          	fsw	fa3,1192(a5)
    13cc:	4b17a623          	sw	a7,1196(a5)

000013d0 <inst_150>:
    13d0:	70882507          	flw	fa0,1800(a6)
    13d4:	70c82587          	flw	fa1,1804(a6)
    13d8:	71082607          	flw	fa2,1808(a6)
    13dc:	00205073          	fsrmi	zero,0
    13e0:	60b576cf          	fnmadd.s	fa3,fa0,fa1,fa2
    13e4:	001028f3          	frflags	a7
    13e8:	4ad7a827          	fsw	fa3,1200(a5)
    13ec:	4b17aa23          	sw	a7,1204(a5)

000013f0 <inst_151>:
    13f0:	71482507          	flw	fa0,1812(a6)
    13f4:	71882587          	flw	fa1,1816(a6)
    13f8:	71c82607          	flw	fa2,1820(a6)
    13fc:	00225073          	fsrmi	zero,4
    1400:	60b576cf          	fnmadd.s	fa3,fa0,fa1,fa2
    1404:	001028f3          	frflags	a7
    1408:	4ad7ac27          	fsw	fa3,1208(a5)
    140c:	4b17ae23          	sw	a7,1212(a5)

00001410 <inst_152>:
    1410:	72082507          	flw	fa0,1824(a6)
    1414:	72482587          	flw	fa1,1828(a6)
    1418:	72882607          	flw	fa2,1832(a6)
    141c:	0021d073          	fsrmi	zero,3
    1420:	60b576cf          	fnmadd.s	fa3,fa0,fa1,fa2
    1424:	001028f3          	frflags	a7
    1428:	4cd7a027          	fsw	fa3,1216(a5)
    142c:	4d17a223          	sw	a7,1220(a5)

00001430 <inst_153>:
    1430:	72c82507          	flw	fa0,1836(a6)
    1434:	73082587          	flw	fa1,1840(a6)
    1438:	73482607          	flw	fa2,1844(a6)
    143c:	00215073          	fsrmi	zero,2
    1440:	60b576cf          	fnmadd.s	fa3,fa0,fa1,fa2
    1444:	001028f3          	frflags	a7
    1448:	4cd7a427          	fsw	fa3,1224(a5)
    144c:	4d17a623          	sw	a7,1228(a5)

00001450 <inst_154>:
    1450:	73882507          	flw	fa0,1848(a6)
    1454:	73c82587          	flw	fa1,1852(a6)
    1458:	74082607          	flw	fa2,1856(a6)
    145c:	0020d073          	fsrmi	zero,1
    1460:	60b576cf          	fnmadd.s	fa3,fa0,fa1,fa2
    1464:	001028f3          	frflags	a7
    1468:	4cd7a827          	fsw	fa3,1232(a5)
    146c:	4d17aa23          	sw	a7,1236(a5)

00001470 <inst_155>:
    1470:	74482507          	flw	fa0,1860(a6)
    1474:	74882587          	flw	fa1,1864(a6)
    1478:	74c82607          	flw	fa2,1868(a6)
    147c:	00205073          	fsrmi	zero,0
    1480:	60b576cf          	fnmadd.s	fa3,fa0,fa1,fa2
    1484:	001028f3          	frflags	a7
    1488:	4cd7ac27          	fsw	fa3,1240(a5)
    148c:	4d17ae23          	sw	a7,1244(a5)

00001490 <inst_156>:
    1490:	75082507          	flw	fa0,1872(a6)
    1494:	75482587          	flw	fa1,1876(a6)
    1498:	75882607          	flw	fa2,1880(a6)
    149c:	00225073          	fsrmi	zero,4
    14a0:	60b576cf          	fnmadd.s	fa3,fa0,fa1,fa2
    14a4:	001028f3          	frflags	a7
    14a8:	4ed7a027          	fsw	fa3,1248(a5)
    14ac:	4f17a223          	sw	a7,1252(a5)

000014b0 <inst_157>:
    14b0:	75c82507          	flw	fa0,1884(a6)
    14b4:	76082587          	flw	fa1,1888(a6)
    14b8:	76482607          	flw	fa2,1892(a6)
    14bc:	0021d073          	fsrmi	zero,3
    14c0:	60b576cf          	fnmadd.s	fa3,fa0,fa1,fa2
    14c4:	001028f3          	frflags	a7
    14c8:	4ed7a427          	fsw	fa3,1256(a5)
    14cc:	4f17a623          	sw	a7,1260(a5)

000014d0 <inst_158>:
    14d0:	76882507          	flw	fa0,1896(a6)
    14d4:	76c82587          	flw	fa1,1900(a6)
    14d8:	77082607          	flw	fa2,1904(a6)
    14dc:	00215073          	fsrmi	zero,2
    14e0:	60b576cf          	fnmadd.s	fa3,fa0,fa1,fa2
    14e4:	001028f3          	frflags	a7
    14e8:	4ed7a827          	fsw	fa3,1264(a5)
    14ec:	4f17aa23          	sw	a7,1268(a5)

000014f0 <inst_159>:
    14f0:	77482507          	flw	fa0,1908(a6)
    14f4:	77882587          	flw	fa1,1912(a6)
    14f8:	77c82607          	flw	fa2,1916(a6)
    14fc:	0020d073          	fsrmi	zero,1
    1500:	60b576cf          	fnmadd.s	fa3,fa0,fa1,fa2
    1504:	001028f3          	frflags	a7
    1508:	4ed7ac27          	fsw	fa3,1272(a5)
    150c:	4f17ae23          	sw	a7,1276(a5)

00001510 <inst_160>:
    1510:	78082507          	flw	fa0,1920(a6)
    1514:	78482587          	flw	fa1,1924(a6)
    1518:	78882607          	flw	fa2,1928(a6)
    151c:	00205073          	fsrmi	zero,0
    1520:	60b576cf          	fnmadd.s	fa3,fa0,fa1,fa2
    1524:	001028f3          	frflags	a7
    1528:	50d7a027          	fsw	fa3,1280(a5)
    152c:	5117a223          	sw	a7,1284(a5)

00001530 <inst_161>:
    1530:	78c82507          	flw	fa0,1932(a6)
    1534:	79082587          	flw	fa1,1936(a6)
    1538:	79482607          	flw	fa2,1940(a6)
    153c:	00225073          	fsrmi	zero,4
    1540:	60b576cf          	fnmadd.s	fa3,fa0,fa1,fa2
    1544:	001028f3          	frflags	a7
    1548:	50d7a427          	fsw	fa3,1288(a5)
    154c:	5117a623          	sw	a7,1292(a5)

00001550 <inst_162>:
    1550:	79882507          	flw	fa0,1944(a6)
    1554:	79c82587          	flw	fa1,1948(a6)
    1558:	7a082607          	flw	fa2,1952(a6)
    155c:	0021d073          	fsrmi	zero,3
    1560:	60b576cf          	fnmadd.s	fa3,fa0,fa1,fa2
    1564:	001028f3          	frflags	a7
    1568:	50d7a827          	fsw	fa3,1296(a5)
    156c:	5117aa23          	sw	a7,1300(a5)

00001570 <inst_163>:
    1570:	7a482507          	flw	fa0,1956(a6)
    1574:	7a882587          	flw	fa1,1960(a6)
    1578:	7ac82607          	flw	fa2,1964(a6)
    157c:	00215073          	fsrmi	zero,2
    1580:	60b576cf          	fnmadd.s	fa3,fa0,fa1,fa2
    1584:	001028f3          	frflags	a7
    1588:	50d7ac27          	fsw	fa3,1304(a5)
    158c:	5117ae23          	sw	a7,1308(a5)

00001590 <inst_164>:
    1590:	7b082507          	flw	fa0,1968(a6)
    1594:	7b482587          	flw	fa1,1972(a6)
    1598:	7b882607          	flw	fa2,1976(a6)
    159c:	0020d073          	fsrmi	zero,1
    15a0:	60b576cf          	fnmadd.s	fa3,fa0,fa1,fa2
    15a4:	001028f3          	frflags	a7
    15a8:	52d7a027          	fsw	fa3,1312(a5)
    15ac:	5317a223          	sw	a7,1316(a5)

000015b0 <inst_165>:
    15b0:	7bc82507          	flw	fa0,1980(a6)
    15b4:	7c082587          	flw	fa1,1984(a6)
    15b8:	7c482607          	flw	fa2,1988(a6)
    15bc:	00205073          	fsrmi	zero,0
    15c0:	60b576cf          	fnmadd.s	fa3,fa0,fa1,fa2
    15c4:	001028f3          	frflags	a7
    15c8:	52d7a427          	fsw	fa3,1320(a5)
    15cc:	5317a623          	sw	a7,1324(a5)

000015d0 <inst_166>:
    15d0:	7c882507          	flw	fa0,1992(a6)
    15d4:	7cc82587          	flw	fa1,1996(a6)
    15d8:	7d082607          	flw	fa2,2000(a6)
    15dc:	00225073          	fsrmi	zero,4
    15e0:	60b576cf          	fnmadd.s	fa3,fa0,fa1,fa2
    15e4:	001028f3          	frflags	a7
    15e8:	52d7a827          	fsw	fa3,1328(a5)
    15ec:	5317aa23          	sw	a7,1332(a5)

000015f0 <inst_167>:
    15f0:	7d482507          	flw	fa0,2004(a6)
    15f4:	7d882587          	flw	fa1,2008(a6)
    15f8:	7dc82607          	flw	fa2,2012(a6)
    15fc:	0021d073          	fsrmi	zero,3
    1600:	60b576cf          	fnmadd.s	fa3,fa0,fa1,fa2
    1604:	001028f3          	frflags	a7
    1608:	52d7ac27          	fsw	fa3,1336(a5)
    160c:	5317ae23          	sw	a7,1340(a5)

00001610 <inst_168>:
    1610:	7e082507          	flw	fa0,2016(a6)
    1614:	7e482587          	flw	fa1,2020(a6)
    1618:	7e882607          	flw	fa2,2024(a6)
    161c:	00215073          	fsrmi	zero,2
    1620:	60b576cf          	fnmadd.s	fa3,fa0,fa1,fa2
    1624:	001028f3          	frflags	a7
    1628:	54d7a027          	fsw	fa3,1344(a5)
    162c:	5517a223          	sw	a7,1348(a5)

00001630 <inst_169>:
    1630:	7ec82507          	flw	fa0,2028(a6)
    1634:	7f082587          	flw	fa1,2032(a6)
    1638:	7f482607          	flw	fa2,2036(a6)
    163c:	0020d073          	fsrmi	zero,1
    1640:	60b576cf          	fnmadd.s	fa3,fa0,fa1,fa2
    1644:	001028f3          	frflags	a7
    1648:	54d7a427          	fsw	fa3,1352(a5)
    164c:	5517a623          	sw	a7,1356(a5)
    1650:	7f880813          	add	a6,a6,2040

00001654 <inst_170>:
    1654:	00082507          	flw	fa0,0(a6)
    1658:	00482587          	flw	fa1,4(a6)
    165c:	00882607          	flw	fa2,8(a6)
    1660:	00205073          	fsrmi	zero,0
    1664:	60b576cf          	fnmadd.s	fa3,fa0,fa1,fa2
    1668:	001028f3          	frflags	a7
    166c:	54d7a827          	fsw	fa3,1360(a5)
    1670:	5517aa23          	sw	a7,1364(a5)

00001674 <inst_171>:
    1674:	00c82507          	flw	fa0,12(a6)
    1678:	01082587          	flw	fa1,16(a6)
    167c:	01482607          	flw	fa2,20(a6)
    1680:	00225073          	fsrmi	zero,4
    1684:	60b576cf          	fnmadd.s	fa3,fa0,fa1,fa2
    1688:	001028f3          	frflags	a7
    168c:	54d7ac27          	fsw	fa3,1368(a5)
    1690:	5517ae23          	sw	a7,1372(a5)

00001694 <inst_172>:
    1694:	01882507          	flw	fa0,24(a6)
    1698:	01c82587          	flw	fa1,28(a6)
    169c:	02082607          	flw	fa2,32(a6)
    16a0:	0021d073          	fsrmi	zero,3
    16a4:	60b576cf          	fnmadd.s	fa3,fa0,fa1,fa2
    16a8:	001028f3          	frflags	a7
    16ac:	56d7a027          	fsw	fa3,1376(a5)
    16b0:	5717a223          	sw	a7,1380(a5)

000016b4 <inst_173>:
    16b4:	02482507          	flw	fa0,36(a6)
    16b8:	02882587          	flw	fa1,40(a6)
    16bc:	02c82607          	flw	fa2,44(a6)
    16c0:	00215073          	fsrmi	zero,2
    16c4:	60b576cf          	fnmadd.s	fa3,fa0,fa1,fa2
    16c8:	001028f3          	frflags	a7
    16cc:	56d7a427          	fsw	fa3,1384(a5)
    16d0:	5717a623          	sw	a7,1388(a5)

000016d4 <inst_174>:
    16d4:	03082507          	flw	fa0,48(a6)
    16d8:	03482587          	flw	fa1,52(a6)
    16dc:	03882607          	flw	fa2,56(a6)
    16e0:	0020d073          	fsrmi	zero,1
    16e4:	60b576cf          	fnmadd.s	fa3,fa0,fa1,fa2
    16e8:	001028f3          	frflags	a7
    16ec:	56d7a827          	fsw	fa3,1392(a5)
    16f0:	5717aa23          	sw	a7,1396(a5)

000016f4 <inst_175>:
    16f4:	03c82507          	flw	fa0,60(a6)
    16f8:	04082587          	flw	fa1,64(a6)
    16fc:	04482607          	flw	fa2,68(a6)
    1700:	00205073          	fsrmi	zero,0
    1704:	60b576cf          	fnmadd.s	fa3,fa0,fa1,fa2
    1708:	001028f3          	frflags	a7
    170c:	56d7ac27          	fsw	fa3,1400(a5)
    1710:	5717ae23          	sw	a7,1404(a5)

00001714 <inst_176>:
    1714:	04882507          	flw	fa0,72(a6)
    1718:	04c82587          	flw	fa1,76(a6)
    171c:	05082607          	flw	fa2,80(a6)
    1720:	00225073          	fsrmi	zero,4
    1724:	60b576cf          	fnmadd.s	fa3,fa0,fa1,fa2
    1728:	001028f3          	frflags	a7
    172c:	58d7a027          	fsw	fa3,1408(a5)
    1730:	5917a223          	sw	a7,1412(a5)

00001734 <inst_177>:
    1734:	05482507          	flw	fa0,84(a6)
    1738:	05882587          	flw	fa1,88(a6)
    173c:	05c82607          	flw	fa2,92(a6)
    1740:	0021d073          	fsrmi	zero,3
    1744:	60b576cf          	fnmadd.s	fa3,fa0,fa1,fa2
    1748:	001028f3          	frflags	a7
    174c:	58d7a427          	fsw	fa3,1416(a5)
    1750:	5917a623          	sw	a7,1420(a5)

00001754 <inst_178>:
    1754:	06082507          	flw	fa0,96(a6)
    1758:	06482587          	flw	fa1,100(a6)
    175c:	06882607          	flw	fa2,104(a6)
    1760:	00215073          	fsrmi	zero,2
    1764:	60b576cf          	fnmadd.s	fa3,fa0,fa1,fa2
    1768:	001028f3          	frflags	a7
    176c:	58d7a827          	fsw	fa3,1424(a5)
    1770:	5917aa23          	sw	a7,1428(a5)

00001774 <inst_179>:
    1774:	06c82507          	flw	fa0,108(a6)
    1778:	07082587          	flw	fa1,112(a6)
    177c:	07482607          	flw	fa2,116(a6)
    1780:	0020d073          	fsrmi	zero,1
    1784:	60b576cf          	fnmadd.s	fa3,fa0,fa1,fa2
    1788:	001028f3          	frflags	a7
    178c:	58d7ac27          	fsw	fa3,1432(a5)
    1790:	5917ae23          	sw	a7,1436(a5)

00001794 <inst_180>:
    1794:	07882507          	flw	fa0,120(a6)
    1798:	07c82587          	flw	fa1,124(a6)
    179c:	08082607          	flw	fa2,128(a6)
    17a0:	00205073          	fsrmi	zero,0
    17a4:	60b576cf          	fnmadd.s	fa3,fa0,fa1,fa2
    17a8:	001028f3          	frflags	a7
    17ac:	5ad7a027          	fsw	fa3,1440(a5)
    17b0:	5b17a223          	sw	a7,1444(a5)

000017b4 <inst_181>:
    17b4:	08482507          	flw	fa0,132(a6)
    17b8:	08882587          	flw	fa1,136(a6)
    17bc:	08c82607          	flw	fa2,140(a6)
    17c0:	00225073          	fsrmi	zero,4
    17c4:	60b576cf          	fnmadd.s	fa3,fa0,fa1,fa2
    17c8:	001028f3          	frflags	a7
    17cc:	5ad7a427          	fsw	fa3,1448(a5)
    17d0:	5b17a623          	sw	a7,1452(a5)

000017d4 <inst_182>:
    17d4:	09082507          	flw	fa0,144(a6)
    17d8:	09482587          	flw	fa1,148(a6)
    17dc:	09882607          	flw	fa2,152(a6)
    17e0:	0021d073          	fsrmi	zero,3
    17e4:	60b576cf          	fnmadd.s	fa3,fa0,fa1,fa2
    17e8:	001028f3          	frflags	a7
    17ec:	5ad7a827          	fsw	fa3,1456(a5)
    17f0:	5b17aa23          	sw	a7,1460(a5)

000017f4 <inst_183>:
    17f4:	09c82507          	flw	fa0,156(a6)
    17f8:	0a082587          	flw	fa1,160(a6)
    17fc:	0a482607          	flw	fa2,164(a6)
    1800:	00215073          	fsrmi	zero,2
    1804:	60b576cf          	fnmadd.s	fa3,fa0,fa1,fa2
    1808:	001028f3          	frflags	a7
    180c:	5ad7ac27          	fsw	fa3,1464(a5)
    1810:	5b17ae23          	sw	a7,1468(a5)

00001814 <inst_184>:
    1814:	0a882507          	flw	fa0,168(a6)
    1818:	0ac82587          	flw	fa1,172(a6)
    181c:	0b082607          	flw	fa2,176(a6)
    1820:	0020d073          	fsrmi	zero,1
    1824:	60b576cf          	fnmadd.s	fa3,fa0,fa1,fa2
    1828:	001028f3          	frflags	a7
    182c:	5cd7a027          	fsw	fa3,1472(a5)
    1830:	5d17a223          	sw	a7,1476(a5)

00001834 <inst_185>:
    1834:	0b482507          	flw	fa0,180(a6)
    1838:	0b882587          	flw	fa1,184(a6)
    183c:	0bc82607          	flw	fa2,188(a6)
    1840:	00205073          	fsrmi	zero,0
    1844:	60b576cf          	fnmadd.s	fa3,fa0,fa1,fa2
    1848:	001028f3          	frflags	a7
    184c:	5cd7a427          	fsw	fa3,1480(a5)
    1850:	5d17a623          	sw	a7,1484(a5)

00001854 <inst_186>:
    1854:	0c082507          	flw	fa0,192(a6)
    1858:	0c482587          	flw	fa1,196(a6)
    185c:	0c882607          	flw	fa2,200(a6)
    1860:	00225073          	fsrmi	zero,4
    1864:	60b576cf          	fnmadd.s	fa3,fa0,fa1,fa2
    1868:	001028f3          	frflags	a7
    186c:	5cd7a827          	fsw	fa3,1488(a5)
    1870:	5d17aa23          	sw	a7,1492(a5)

00001874 <inst_187>:
    1874:	0cc82507          	flw	fa0,204(a6)
    1878:	0d082587          	flw	fa1,208(a6)
    187c:	0d482607          	flw	fa2,212(a6)
    1880:	0021d073          	fsrmi	zero,3
    1884:	60b576cf          	fnmadd.s	fa3,fa0,fa1,fa2
    1888:	001028f3          	frflags	a7
    188c:	5cd7ac27          	fsw	fa3,1496(a5)
    1890:	5d17ae23          	sw	a7,1500(a5)

00001894 <inst_188>:
    1894:	0d882507          	flw	fa0,216(a6)
    1898:	0dc82587          	flw	fa1,220(a6)
    189c:	0e082607          	flw	fa2,224(a6)
    18a0:	00215073          	fsrmi	zero,2
    18a4:	60b576cf          	fnmadd.s	fa3,fa0,fa1,fa2
    18a8:	001028f3          	frflags	a7
    18ac:	5ed7a027          	fsw	fa3,1504(a5)
    18b0:	5f17a223          	sw	a7,1508(a5)

000018b4 <inst_189>:
    18b4:	0e482507          	flw	fa0,228(a6)
    18b8:	0e882587          	flw	fa1,232(a6)
    18bc:	0ec82607          	flw	fa2,236(a6)
    18c0:	0020d073          	fsrmi	zero,1
    18c4:	60b576cf          	fnmadd.s	fa3,fa0,fa1,fa2
    18c8:	001028f3          	frflags	a7
    18cc:	5ed7a427          	fsw	fa3,1512(a5)
    18d0:	5f17a623          	sw	a7,1516(a5)

000018d4 <inst_190>:
    18d4:	0f082507          	flw	fa0,240(a6)
    18d8:	0f482587          	flw	fa1,244(a6)
    18dc:	0f882607          	flw	fa2,248(a6)
    18e0:	00205073          	fsrmi	zero,0
    18e4:	60b576cf          	fnmadd.s	fa3,fa0,fa1,fa2
    18e8:	001028f3          	frflags	a7
    18ec:	5ed7a827          	fsw	fa3,1520(a5)
    18f0:	5f17aa23          	sw	a7,1524(a5)

000018f4 <inst_191>:
    18f4:	0fc82507          	flw	fa0,252(a6)
    18f8:	10082587          	flw	fa1,256(a6)
    18fc:	10482607          	flw	fa2,260(a6)
    1900:	00225073          	fsrmi	zero,4
    1904:	60b576cf          	fnmadd.s	fa3,fa0,fa1,fa2
    1908:	001028f3          	frflags	a7
    190c:	5ed7ac27          	fsw	fa3,1528(a5)
    1910:	5f17ae23          	sw	a7,1532(a5)

00001914 <inst_192>:
    1914:	10882507          	flw	fa0,264(a6)
    1918:	10c82587          	flw	fa1,268(a6)
    191c:	11082607          	flw	fa2,272(a6)
    1920:	0021d073          	fsrmi	zero,3
    1924:	60b576cf          	fnmadd.s	fa3,fa0,fa1,fa2
    1928:	001028f3          	frflags	a7
    192c:	60d7a027          	fsw	fa3,1536(a5)
    1930:	6117a223          	sw	a7,1540(a5)

00001934 <inst_193>:
    1934:	11482507          	flw	fa0,276(a6)
    1938:	11882587          	flw	fa1,280(a6)
    193c:	11c82607          	flw	fa2,284(a6)
    1940:	00215073          	fsrmi	zero,2
    1944:	60b576cf          	fnmadd.s	fa3,fa0,fa1,fa2
    1948:	001028f3          	frflags	a7
    194c:	60d7a427          	fsw	fa3,1544(a5)
    1950:	6117a623          	sw	a7,1548(a5)

00001954 <inst_194>:
    1954:	12082507          	flw	fa0,288(a6)
    1958:	12482587          	flw	fa1,292(a6)
    195c:	12882607          	flw	fa2,296(a6)
    1960:	0020d073          	fsrmi	zero,1
    1964:	60b576cf          	fnmadd.s	fa3,fa0,fa1,fa2
    1968:	001028f3          	frflags	a7
    196c:	60d7a827          	fsw	fa3,1552(a5)
    1970:	6117aa23          	sw	a7,1556(a5)

00001974 <inst_195>:
    1974:	12c82507          	flw	fa0,300(a6)
    1978:	13082587          	flw	fa1,304(a6)
    197c:	13482607          	flw	fa2,308(a6)
    1980:	00205073          	fsrmi	zero,0
    1984:	60b576cf          	fnmadd.s	fa3,fa0,fa1,fa2
    1988:	001028f3          	frflags	a7
    198c:	60d7ac27          	fsw	fa3,1560(a5)
    1990:	6117ae23          	sw	a7,1564(a5)

00001994 <inst_196>:
    1994:	13882507          	flw	fa0,312(a6)
    1998:	13c82587          	flw	fa1,316(a6)
    199c:	14082607          	flw	fa2,320(a6)
    19a0:	00225073          	fsrmi	zero,4
    19a4:	60b576cf          	fnmadd.s	fa3,fa0,fa1,fa2
    19a8:	001028f3          	frflags	a7
    19ac:	62d7a027          	fsw	fa3,1568(a5)
    19b0:	6317a223          	sw	a7,1572(a5)

000019b4 <inst_197>:
    19b4:	14482507          	flw	fa0,324(a6)
    19b8:	14882587          	flw	fa1,328(a6)
    19bc:	14c82607          	flw	fa2,332(a6)
    19c0:	0021d073          	fsrmi	zero,3
    19c4:	60b576cf          	fnmadd.s	fa3,fa0,fa1,fa2
    19c8:	001028f3          	frflags	a7
    19cc:	62d7a427          	fsw	fa3,1576(a5)
    19d0:	6317a623          	sw	a7,1580(a5)

000019d4 <inst_198>:
    19d4:	15082507          	flw	fa0,336(a6)
    19d8:	15482587          	flw	fa1,340(a6)
    19dc:	15882607          	flw	fa2,344(a6)
    19e0:	00215073          	fsrmi	zero,2
    19e4:	60b576cf          	fnmadd.s	fa3,fa0,fa1,fa2
    19e8:	001028f3          	frflags	a7
    19ec:	62d7a827          	fsw	fa3,1584(a5)
    19f0:	6317aa23          	sw	a7,1588(a5)

000019f4 <inst_199>:
    19f4:	15c82507          	flw	fa0,348(a6)
    19f8:	16082587          	flw	fa1,352(a6)
    19fc:	16482607          	flw	fa2,356(a6)
    1a00:	0020d073          	fsrmi	zero,1
    1a04:	60b576cf          	fnmadd.s	fa3,fa0,fa1,fa2
    1a08:	001028f3          	frflags	a7
    1a0c:	62d7ac27          	fsw	fa3,1592(a5)
    1a10:	6317ae23          	sw	a7,1596(a5)

00001a14 <inst_200>:
    1a14:	16882507          	flw	fa0,360(a6)
    1a18:	16c82587          	flw	fa1,364(a6)
    1a1c:	17082607          	flw	fa2,368(a6)
    1a20:	00205073          	fsrmi	zero,0
    1a24:	60b576cf          	fnmadd.s	fa3,fa0,fa1,fa2
    1a28:	001028f3          	frflags	a7
    1a2c:	64d7a027          	fsw	fa3,1600(a5)
    1a30:	6517a223          	sw	a7,1604(a5)

00001a34 <inst_201>:
    1a34:	17482507          	flw	fa0,372(a6)
    1a38:	17882587          	flw	fa1,376(a6)
    1a3c:	17c82607          	flw	fa2,380(a6)
    1a40:	00225073          	fsrmi	zero,4
    1a44:	60b576cf          	fnmadd.s	fa3,fa0,fa1,fa2
    1a48:	001028f3          	frflags	a7
    1a4c:	64d7a427          	fsw	fa3,1608(a5)
    1a50:	6517a623          	sw	a7,1612(a5)

00001a54 <inst_202>:
    1a54:	18082507          	flw	fa0,384(a6)
    1a58:	18482587          	flw	fa1,388(a6)
    1a5c:	18882607          	flw	fa2,392(a6)
    1a60:	0021d073          	fsrmi	zero,3
    1a64:	60b576cf          	fnmadd.s	fa3,fa0,fa1,fa2
    1a68:	001028f3          	frflags	a7
    1a6c:	64d7a827          	fsw	fa3,1616(a5)
    1a70:	6517aa23          	sw	a7,1620(a5)

00001a74 <inst_203>:
    1a74:	18c82507          	flw	fa0,396(a6)
    1a78:	19082587          	flw	fa1,400(a6)
    1a7c:	19482607          	flw	fa2,404(a6)
    1a80:	00215073          	fsrmi	zero,2
    1a84:	60b576cf          	fnmadd.s	fa3,fa0,fa1,fa2
    1a88:	001028f3          	frflags	a7
    1a8c:	64d7ac27          	fsw	fa3,1624(a5)
    1a90:	6517ae23          	sw	a7,1628(a5)

00001a94 <inst_204>:
    1a94:	19882507          	flw	fa0,408(a6)
    1a98:	19c82587          	flw	fa1,412(a6)
    1a9c:	1a082607          	flw	fa2,416(a6)
    1aa0:	0020d073          	fsrmi	zero,1
    1aa4:	60b576cf          	fnmadd.s	fa3,fa0,fa1,fa2
    1aa8:	001028f3          	frflags	a7
    1aac:	66d7a027          	fsw	fa3,1632(a5)
    1ab0:	6717a223          	sw	a7,1636(a5)

00001ab4 <inst_205>:
    1ab4:	1a482507          	flw	fa0,420(a6)
    1ab8:	1a882587          	flw	fa1,424(a6)
    1abc:	1ac82607          	flw	fa2,428(a6)
    1ac0:	00205073          	fsrmi	zero,0
    1ac4:	60b576cf          	fnmadd.s	fa3,fa0,fa1,fa2
    1ac8:	001028f3          	frflags	a7
    1acc:	66d7a427          	fsw	fa3,1640(a5)
    1ad0:	6717a623          	sw	a7,1644(a5)

00001ad4 <inst_206>:
    1ad4:	1b082507          	flw	fa0,432(a6)
    1ad8:	1b482587          	flw	fa1,436(a6)
    1adc:	1b882607          	flw	fa2,440(a6)
    1ae0:	00225073          	fsrmi	zero,4
    1ae4:	60b576cf          	fnmadd.s	fa3,fa0,fa1,fa2
    1ae8:	001028f3          	frflags	a7
    1aec:	66d7a827          	fsw	fa3,1648(a5)
    1af0:	6717aa23          	sw	a7,1652(a5)

00001af4 <inst_207>:
    1af4:	1bc82507          	flw	fa0,444(a6)
    1af8:	1c082587          	flw	fa1,448(a6)
    1afc:	1c482607          	flw	fa2,452(a6)
    1b00:	0021d073          	fsrmi	zero,3
    1b04:	60b576cf          	fnmadd.s	fa3,fa0,fa1,fa2
    1b08:	001028f3          	frflags	a7
    1b0c:	66d7ac27          	fsw	fa3,1656(a5)
    1b10:	6717ae23          	sw	a7,1660(a5)

00001b14 <inst_208>:
    1b14:	1c882507          	flw	fa0,456(a6)
    1b18:	1cc82587          	flw	fa1,460(a6)
    1b1c:	1d082607          	flw	fa2,464(a6)
    1b20:	00215073          	fsrmi	zero,2
    1b24:	60b576cf          	fnmadd.s	fa3,fa0,fa1,fa2
    1b28:	001028f3          	frflags	a7
    1b2c:	68d7a027          	fsw	fa3,1664(a5)
    1b30:	6917a223          	sw	a7,1668(a5)

00001b34 <inst_209>:
    1b34:	1d482507          	flw	fa0,468(a6)
    1b38:	1d882587          	flw	fa1,472(a6)
    1b3c:	1dc82607          	flw	fa2,476(a6)
    1b40:	0020d073          	fsrmi	zero,1
    1b44:	60b576cf          	fnmadd.s	fa3,fa0,fa1,fa2
    1b48:	001028f3          	frflags	a7
    1b4c:	68d7a427          	fsw	fa3,1672(a5)
    1b50:	6917a623          	sw	a7,1676(a5)

00001b54 <inst_210>:
    1b54:	1e082507          	flw	fa0,480(a6)
    1b58:	1e482587          	flw	fa1,484(a6)
    1b5c:	1e882607          	flw	fa2,488(a6)
    1b60:	00205073          	fsrmi	zero,0
    1b64:	60b576cf          	fnmadd.s	fa3,fa0,fa1,fa2
    1b68:	001028f3          	frflags	a7
    1b6c:	68d7a827          	fsw	fa3,1680(a5)
    1b70:	6917aa23          	sw	a7,1684(a5)

00001b74 <inst_211>:
    1b74:	1ec82507          	flw	fa0,492(a6)
    1b78:	1f082587          	flw	fa1,496(a6)
    1b7c:	1f482607          	flw	fa2,500(a6)
    1b80:	00225073          	fsrmi	zero,4
    1b84:	60b576cf          	fnmadd.s	fa3,fa0,fa1,fa2
    1b88:	001028f3          	frflags	a7
    1b8c:	68d7ac27          	fsw	fa3,1688(a5)
    1b90:	6917ae23          	sw	a7,1692(a5)

00001b94 <inst_212>:
    1b94:	1f882507          	flw	fa0,504(a6)
    1b98:	1fc82587          	flw	fa1,508(a6)
    1b9c:	20082607          	flw	fa2,512(a6)
    1ba0:	0021d073          	fsrmi	zero,3
    1ba4:	60b576cf          	fnmadd.s	fa3,fa0,fa1,fa2
    1ba8:	001028f3          	frflags	a7
    1bac:	6ad7a027          	fsw	fa3,1696(a5)
    1bb0:	6b17a223          	sw	a7,1700(a5)

00001bb4 <inst_213>:
    1bb4:	20482507          	flw	fa0,516(a6)
    1bb8:	20882587          	flw	fa1,520(a6)
    1bbc:	20c82607          	flw	fa2,524(a6)
    1bc0:	00215073          	fsrmi	zero,2
    1bc4:	60b576cf          	fnmadd.s	fa3,fa0,fa1,fa2
    1bc8:	001028f3          	frflags	a7
    1bcc:	6ad7a427          	fsw	fa3,1704(a5)
    1bd0:	6b17a623          	sw	a7,1708(a5)

00001bd4 <inst_214>:
    1bd4:	21082507          	flw	fa0,528(a6)
    1bd8:	21482587          	flw	fa1,532(a6)
    1bdc:	21882607          	flw	fa2,536(a6)
    1be0:	0020d073          	fsrmi	zero,1
    1be4:	60b576cf          	fnmadd.s	fa3,fa0,fa1,fa2
    1be8:	001028f3          	frflags	a7
    1bec:	6ad7a827          	fsw	fa3,1712(a5)
    1bf0:	6b17aa23          	sw	a7,1716(a5)

00001bf4 <inst_215>:
    1bf4:	21c82507          	flw	fa0,540(a6)
    1bf8:	22082587          	flw	fa1,544(a6)
    1bfc:	22482607          	flw	fa2,548(a6)
    1c00:	00205073          	fsrmi	zero,0
    1c04:	60b576cf          	fnmadd.s	fa3,fa0,fa1,fa2
    1c08:	001028f3          	frflags	a7
    1c0c:	6ad7ac27          	fsw	fa3,1720(a5)
    1c10:	6b17ae23          	sw	a7,1724(a5)

00001c14 <inst_216>:
    1c14:	22882507          	flw	fa0,552(a6)
    1c18:	22c82587          	flw	fa1,556(a6)
    1c1c:	23082607          	flw	fa2,560(a6)
    1c20:	00225073          	fsrmi	zero,4
    1c24:	60b576cf          	fnmadd.s	fa3,fa0,fa1,fa2
    1c28:	001028f3          	frflags	a7
    1c2c:	6cd7a027          	fsw	fa3,1728(a5)
    1c30:	6d17a223          	sw	a7,1732(a5)

00001c34 <inst_217>:
    1c34:	23482507          	flw	fa0,564(a6)
    1c38:	23882587          	flw	fa1,568(a6)
    1c3c:	23c82607          	flw	fa2,572(a6)
    1c40:	0021d073          	fsrmi	zero,3
    1c44:	60b576cf          	fnmadd.s	fa3,fa0,fa1,fa2
    1c48:	001028f3          	frflags	a7
    1c4c:	6cd7a427          	fsw	fa3,1736(a5)
    1c50:	6d17a623          	sw	a7,1740(a5)

00001c54 <inst_218>:
    1c54:	24082507          	flw	fa0,576(a6)
    1c58:	24482587          	flw	fa1,580(a6)
    1c5c:	24882607          	flw	fa2,584(a6)
    1c60:	00215073          	fsrmi	zero,2
    1c64:	60b576cf          	fnmadd.s	fa3,fa0,fa1,fa2
    1c68:	001028f3          	frflags	a7
    1c6c:	6cd7a827          	fsw	fa3,1744(a5)
    1c70:	6d17aa23          	sw	a7,1748(a5)

00001c74 <inst_219>:
    1c74:	24c82507          	flw	fa0,588(a6)
    1c78:	25082587          	flw	fa1,592(a6)
    1c7c:	25482607          	flw	fa2,596(a6)
    1c80:	0020d073          	fsrmi	zero,1
    1c84:	60b576cf          	fnmadd.s	fa3,fa0,fa1,fa2
    1c88:	001028f3          	frflags	a7
    1c8c:	6cd7ac27          	fsw	fa3,1752(a5)
    1c90:	6d17ae23          	sw	a7,1756(a5)

00001c94 <inst_220>:
    1c94:	25882507          	flw	fa0,600(a6)
    1c98:	25c82587          	flw	fa1,604(a6)
    1c9c:	26082607          	flw	fa2,608(a6)
    1ca0:	0021d073          	fsrmi	zero,3
    1ca4:	60b576cf          	fnmadd.s	fa3,fa0,fa1,fa2
    1ca8:	001028f3          	frflags	a7
    1cac:	6ed7a027          	fsw	fa3,1760(a5)
    1cb0:	6f17a223          	sw	a7,1764(a5)

00001cb4 <inst_221>:
    1cb4:	26482507          	flw	fa0,612(a6)
    1cb8:	26882587          	flw	fa1,616(a6)
    1cbc:	26c82607          	flw	fa2,620(a6)
    1cc0:	0020d073          	fsrmi	zero,1
    1cc4:	60b576cf          	fnmadd.s	fa3,fa0,fa1,fa2
    1cc8:	001028f3          	frflags	a7
    1ccc:	6ed7a427          	fsw	fa3,1768(a5)
    1cd0:	6f17a623          	sw	a7,1772(a5)

00001cd4 <inst_222>:
    1cd4:	27082507          	flw	fa0,624(a6)
    1cd8:	27482587          	flw	fa1,628(a6)
    1cdc:	27882607          	flw	fa2,632(a6)
    1ce0:	00205073          	fsrmi	zero,0
    1ce4:	60b576cf          	fnmadd.s	fa3,fa0,fa1,fa2
    1ce8:	001028f3          	frflags	a7
    1cec:	6ed7a827          	fsw	fa3,1776(a5)
    1cf0:	6f17aa23          	sw	a7,1780(a5)

00001cf4 <inst_223>:
    1cf4:	27c82507          	flw	fa0,636(a6)
    1cf8:	28082587          	flw	fa1,640(a6)
    1cfc:	28482607          	flw	fa2,644(a6)
    1d00:	00225073          	fsrmi	zero,4
    1d04:	60b576cf          	fnmadd.s	fa3,fa0,fa1,fa2
    1d08:	001028f3          	frflags	a7
    1d0c:	6ed7ac27          	fsw	fa3,1784(a5)
    1d10:	6f17ae23          	sw	a7,1788(a5)

00001d14 <inst_224>:
    1d14:	28882507          	flw	fa0,648(a6)
    1d18:	28c82587          	flw	fa1,652(a6)
    1d1c:	29082607          	flw	fa2,656(a6)
    1d20:	0021d073          	fsrmi	zero,3
    1d24:	60b576cf          	fnmadd.s	fa3,fa0,fa1,fa2
    1d28:	001028f3          	frflags	a7
    1d2c:	70d7a027          	fsw	fa3,1792(a5)
    1d30:	7117a223          	sw	a7,1796(a5)

00001d34 <inst_225>:
    1d34:	29482507          	flw	fa0,660(a6)
    1d38:	29882587          	flw	fa1,664(a6)
    1d3c:	29c82607          	flw	fa2,668(a6)
    1d40:	00215073          	fsrmi	zero,2
    1d44:	60b576cf          	fnmadd.s	fa3,fa0,fa1,fa2
    1d48:	001028f3          	frflags	a7
    1d4c:	70d7a427          	fsw	fa3,1800(a5)
    1d50:	7117a623          	sw	a7,1804(a5)

00001d54 <inst_226>:
    1d54:	2a082507          	flw	fa0,672(a6)
    1d58:	2a482587          	flw	fa1,676(a6)
    1d5c:	2a882607          	flw	fa2,680(a6)
    1d60:	00205073          	fsrmi	zero,0
    1d64:	60b576cf          	fnmadd.s	fa3,fa0,fa1,fa2
    1d68:	001028f3          	frflags	a7
    1d6c:	70d7a827          	fsw	fa3,1808(a5)
    1d70:	7117aa23          	sw	a7,1812(a5)

00001d74 <inst_227>:
    1d74:	2ac82507          	flw	fa0,684(a6)
    1d78:	2b082587          	flw	fa1,688(a6)
    1d7c:	2b482607          	flw	fa2,692(a6)
    1d80:	00225073          	fsrmi	zero,4
    1d84:	60b576cf          	fnmadd.s	fa3,fa0,fa1,fa2
    1d88:	001028f3          	frflags	a7
    1d8c:	70d7ac27          	fsw	fa3,1816(a5)
    1d90:	7117ae23          	sw	a7,1820(a5)
    1d94:	00000013          	nop
    1d98:	00000013          	nop
    1d9c:	00000013          	nop

00001da0 <rvtest_code_end>:
    1da0:	00001517          	auipc	a0,0x1
    1da4:	d2050513          	add	a0,a0,-736 # 2ac0 <data_begin>
    1da8:	00001597          	auipc	a1,0x1
    1dac:	43858593          	add	a1,a1,1080 # 31e0 <_end>
    1db0:	80001637          	lui	a2,0x80001
    1db4:	00860613          	add	a2,a2,8 # 80001008 <_end+0x7fffde28>

00001db8 <compliance_halt_loop>:
    1db8:	06b50063          	beq	a0,a1,1e18 <compliance_halt_break>
    1dbc:	00450693          	add	a3,a0,4

00001dc0 <compliance_halt_loop2>:
    1dc0:	fff68693          	add	a3,a3,-1
    1dc4:	00068703          	lb	a4,0(a3)
    1dc8:	40475793          	sra	a5,a4,0x4
    1dcc:	00f7f793          	and	a5,a5,15
    1dd0:	00a00813          	li	a6,10
    1dd4:	0107c463          	blt	a5,a6,1ddc <notLetter>
    1dd8:	02778793          	add	a5,a5,39

00001ddc <notLetter>:
    1ddc:	03078793          	add	a5,a5,48
    1de0:	00f60023          	sb	a5,0(a2)
    1de4:	40075793          	sra	a5,a4,0x0
    1de8:	00f7f793          	and	a5,a5,15
    1dec:	00a00813          	li	a6,10
    1df0:	0107c463          	blt	a5,a6,1df8 <notLetter2>
    1df4:	02778793          	add	a5,a5,39

00001df8 <notLetter2>:
    1df8:	03078793          	add	a5,a5,48
    1dfc:	00f60023          	sb	a5,0(a2)
    1e00:	fcd510e3          	bne	a0,a3,1dc0 <compliance_halt_loop2>
    1e04:	00450513          	add	a0,a0,4
    1e08:	00a00713          	li	a4,10
    1e0c:	00e60023          	sb	a4,0(a2)
    1e10:	fa9ff06f          	j	1db8 <compliance_halt_loop>
    1e14:	0040006f          	j	1e18 <compliance_halt_break>

00001e18 <compliance_halt_break>:
    1e18:	80001537          	lui	a0,0x80001
    1e1c:	00950513          	add	a0,a0,9 # 80001009 <_end+0x7fffde29>
    1e20:	00d50023          	sb	a3,0(a0)

Desensamblado de la sección .data:

00002000 <rvtest_data_begin>:
    2000:	cafe                	.2byte	0xcafe
    2002:	babe                	.2byte	0xbabe

00002004 <test_fp>:
    2004:	5240                	.2byte	0x5240
    2006:	7f18                	.2byte	0x7f18
    2008:	9ddd                	.2byte	0x9ddd
    200a:	3f84                	.2byte	0x3f84
    200c:	d0ae                	.2byte	0xd0ae
    200e:	7f1d                	.2byte	0x7f1d
    2010:	d648                	.2byte	0xd648
    2012:	7eb4                	.2byte	0x7eb4
    2014:	3fbfcdc7          	.4byte	0x3fbfcdc7
    2018:	7d3c                	.2byte	0x7d3c
    201a:	d6487f07          	.4byte	0xd6487f07
    201e:	7eb4                	.2byte	0x7eb4
    2020:	d648                	.2byte	0xd648
    2022:	7eb4                	.2byte	0x7eb4
    2024:	7d3c                	.2byte	0x7d3c
    2026:	d6487f07          	.4byte	0xd6487f07
    202a:	7eb4                	.2byte	0x7eb4
    202c:	3fbfcdc7          	.4byte	0x3fbfcdc7
    2030:	7d3c                	.2byte	0x7d3c
    2032:	d6487f07          	.4byte	0xd6487f07
    2036:	7eb4                	.2byte	0x7eb4
    2038:	3fbfcdc7          	.4byte	0x3fbfcdc7
    203c:	3fbfcdc7          	.4byte	0x3fbfcdc7
    2040:	d648                	.2byte	0xd648
    2042:	7eb4                	.2byte	0x7eb4
    2044:	d648                	.2byte	0xd648
    2046:	7eb4                	.2byte	0x7eb4
    2048:	d648                	.2byte	0xd648
    204a:	7eb4                	.2byte	0x7eb4
    204c:	d9d9                	.2byte	0xd9d9
    204e:	7f18                	.2byte	0x7f18
    2050:	d9d9                	.2byte	0xd9d9
    2052:	7f18                	.2byte	0x7f18
    2054:	d9d9                	.2byte	0xd9d9
    2056:	7f18                	.2byte	0x7f18
    2058:	d9d9                	.2byte	0xd9d9
    205a:	7f18                	.2byte	0x7f18
    205c:	3f262663          	.4byte	0x3f262663
    2060:	d9d9                	.2byte	0xd9d9
    2062:	7f18                	.2byte	0x7f18
    2064:	d9d9                	.2byte	0xd9d9
    2066:	7f18                	.2byte	0x7f18
    2068:	3f262663          	.4byte	0x3f262663
    206c:	3f262663          	.4byte	0x3f262663
    2070:	d9d9                	.2byte	0xd9d9
    2072:	7f18                	.2byte	0x7f18
    2074:	3f262663          	.4byte	0x3f262663
    2078:	685d                	.2byte	0x685d
    207a:	7ec6                	.2byte	0x7ec6
    207c:	d9d9                	.2byte	0xd9d9
    207e:	7f18                	.2byte	0x7f18
    2080:	d9d9                	.2byte	0xd9d9
    2082:	7f18                	.2byte	0x7f18
    2084:	685d                	.2byte	0x685d
    2086:	7ec6                	.2byte	0x7ec6
    2088:	b8f9                	.2byte	0xb8f9
    208a:	ee417eab          	.4byte	0xee417eab
    208e:	3fed                	.2byte	0x3fed
    2090:	b8f9                	.2byte	0xb8f9
    2092:	b8f97eab          	.4byte	0xb8f97eab
    2096:	ee417eab          	.4byte	0xee417eab
    209a:	3fed                	.2byte	0x3fed
    209c:	9a10                	.2byte	0x9a10
    209e:	7f1f b8f9 7eab      	.byte	0x1f, 0x7f, 0xf9, 0xb8, 0xab, 0x7e
    20a4:	ee41                	.2byte	0xee41
    20a6:	3fed                	.2byte	0x3fed
    20a8:	9a10                	.2byte	0x9a10
    20aa:	7f1f b8f9 7eab      	.byte	0x1f, 0x7f, 0xf9, 0xb8, 0xab, 0x7e
    20b0:	ee41                	.2byte	0xee41
    20b2:	3fed                	.2byte	0x3fed
    20b4:	9a10                	.2byte	0x9a10
    20b6:	7f1f b8f9 7eab      	.byte	0x1f, 0x7f, 0xf9, 0xb8, 0xab, 0x7e
    20bc:	ee41                	.2byte	0xee41
    20be:	3fed                	.2byte	0x3fed
    20c0:	9a10                	.2byte	0x9a10
    20c2:	7f1f ae82 7f00      	.byte	0x1f, 0x7f, 0x82, 0xae, 0x00, 0x7f
    20c8:	e1b5                	.2byte	0xe1b5
    20ca:	3fa9                	.2byte	0x3fa9
    20cc:	c951                	.2byte	0xc951
    20ce:	7f2a                	.2byte	0x7f2a
    20d0:	ae82                	.2byte	0xae82
    20d2:	7f00                	.2byte	0x7f00
    20d4:	e1b5                	.2byte	0xe1b5
    20d6:	3fa9                	.2byte	0x3fa9
    20d8:	c951                	.2byte	0xc951
    20da:	7f2a                	.2byte	0x7f2a
    20dc:	ae82                	.2byte	0xae82
    20de:	7f00                	.2byte	0x7f00
    20e0:	e1b5                	.2byte	0xe1b5
    20e2:	3fa9                	.2byte	0x3fa9
    20e4:	c951                	.2byte	0xc951
    20e6:	7f2a                	.2byte	0x7f2a
    20e8:	ae82                	.2byte	0xae82
    20ea:	7f00                	.2byte	0x7f00
    20ec:	e1b5                	.2byte	0xe1b5
    20ee:	3fa9                	.2byte	0x3fa9
    20f0:	c951                	.2byte	0xc951
    20f2:	7f2a                	.2byte	0x7f2a
    20f4:	ae82                	.2byte	0xae82
    20f6:	7f00                	.2byte	0x7f00
    20f8:	e1b5                	.2byte	0xe1b5
    20fa:	3fa9                	.2byte	0x3fa9
    20fc:	c951                	.2byte	0xc951
    20fe:	7f2a                	.2byte	0x7f2a
    2100:	0464                	.2byte	0x464
    2102:	7f3c                	.2byte	0x7f3c
    2104:	41a6                	.2byte	0x41a6
    2106:	3f69                	.2byte	0x3f69
    2108:	5036                	.2byte	0x5036
    210a:	04647f2b          	.4byte	0x4647f2b
    210e:	7f3c                	.2byte	0x7f3c
    2110:	41a6                	.2byte	0x41a6
    2112:	3f69                	.2byte	0x3f69
    2114:	5036                	.2byte	0x5036
    2116:	04647f2b          	.4byte	0x4647f2b
    211a:	7f3c                	.2byte	0x7f3c
    211c:	41a6                	.2byte	0x41a6
    211e:	3f69                	.2byte	0x3f69
    2120:	5036                	.2byte	0x5036
    2122:	04647f2b          	.4byte	0x4647f2b
    2126:	7f3c                	.2byte	0x7f3c
    2128:	41a6                	.2byte	0x41a6
    212a:	3f69                	.2byte	0x3f69
    212c:	5036                	.2byte	0x5036
    212e:	04647f2b          	.4byte	0x4647f2b
    2132:	7f3c                	.2byte	0x7f3c
    2134:	41a6                	.2byte	0x41a6
    2136:	3f69                	.2byte	0x3f69
    2138:	5036                	.2byte	0x5036
    213a:	58cf7f2b          	.4byte	0x58cf7f2b
    213e:	7f3c                	.2byte	0x7f3c
    2140:	090a                	.2byte	0x90a
    2142:	3e80                	.2byte	0x3e80
    2144:	661c                	.2byte	0x661c
    2146:	7e3c                	.2byte	0x7e3c
    2148:	7f3c58cf          	.4byte	0x7f3c58cf
    214c:	090a                	.2byte	0x90a
    214e:	3e80                	.2byte	0x3e80
    2150:	661c                	.2byte	0x661c
    2152:	7e3c                	.2byte	0x7e3c
    2154:	7f3c58cf          	.4byte	0x7f3c58cf
    2158:	090a                	.2byte	0x90a
    215a:	3e80                	.2byte	0x3e80
    215c:	661c                	.2byte	0x661c
    215e:	7e3c                	.2byte	0x7e3c
    2160:	7f3c58cf          	.4byte	0x7f3c58cf
    2164:	090a                	.2byte	0x90a
    2166:	3e80                	.2byte	0x3e80
    2168:	661c                	.2byte	0x661c
    216a:	7e3c                	.2byte	0x7e3c
    216c:	7f3c58cf          	.4byte	0x7f3c58cf
    2170:	090a                	.2byte	0x90a
    2172:	3e80                	.2byte	0x3e80
    2174:	661c                	.2byte	0x661c
    2176:	7e3c                	.2byte	0x7e3c
    2178:	4ac6                	.2byte	0x4ac6
    217a:	70e27f0f          	.4byte	0x70e27f0f
    217e:	3f08                	.2byte	0x3f08
    2180:	bdd1                	.2byte	0xbdd1
    2182:	7e98                	.2byte	0x7e98
    2184:	4ac6                	.2byte	0x4ac6
    2186:	70e27f0f          	.4byte	0x70e27f0f
    218a:	3f08                	.2byte	0x3f08
    218c:	bdd1                	.2byte	0xbdd1
    218e:	7e98                	.2byte	0x7e98
    2190:	4ac6                	.2byte	0x4ac6
    2192:	70e27f0f          	.4byte	0x70e27f0f
    2196:	3f08                	.2byte	0x3f08
    2198:	bdd1                	.2byte	0xbdd1
    219a:	7e98                	.2byte	0x7e98
    219c:	4ac6                	.2byte	0x4ac6
    219e:	70e27f0f          	.4byte	0x70e27f0f
    21a2:	3f08                	.2byte	0x3f08
    21a4:	bdd1                	.2byte	0xbdd1
    21a6:	7e98                	.2byte	0x7e98
    21a8:	4ac6                	.2byte	0x4ac6
    21aa:	70e27f0f          	.4byte	0x70e27f0f
    21ae:	3f08                	.2byte	0x3f08
    21b0:	bdd1                	.2byte	0xbdd1
    21b2:	7e98                	.2byte	0x7e98
    21b4:	7d255773          	csrrw	a4,0x7d2,10
    21b8:	40fb6dc7          	fmsub.s	fs11,fs6,fa5,fs0,unknown
    21bc:	63a5                	.2byte	0x63a5
    21be:	7ea2                	.2byte	0x7ea2
    21c0:	7d255773          	csrrw	a4,0x7d2,10
    21c4:	40fb6dc7          	fmsub.s	fs11,fs6,fa5,fs0,unknown
    21c8:	63a5                	.2byte	0x63a5
    21ca:	7ea2                	.2byte	0x7ea2
    21cc:	7d255773          	csrrw	a4,0x7d2,10
    21d0:	40fb6dc7          	fmsub.s	fs11,fs6,fa5,fs0,unknown
    21d4:	63a5                	.2byte	0x63a5
    21d6:	7ea2                	.2byte	0x7ea2
    21d8:	7d255773          	csrrw	a4,0x7d2,10
    21dc:	40fb6dc7          	fmsub.s	fs11,fs6,fa5,fs0,unknown
    21e0:	63a5                	.2byte	0x63a5
    21e2:	7ea2                	.2byte	0x7ea2
    21e4:	7d255773          	csrrw	a4,0x7d2,10
    21e8:	40fb6dc7          	fmsub.s	fs11,fs6,fa5,fs0,unknown
    21ec:	63a5                	.2byte	0x63a5
    21ee:	7ea2                	.2byte	0x7ea2
    21f0:	d171                	.2byte	0xd171
    21f2:	7dc2                	.2byte	0x7dc2
    21f4:	4426                	.2byte	0x4426
    21f6:	40fc                	.2byte	0x40fc
    21f8:	7f3ffa07          	.4byte	0x7f3ffa07
    21fc:	d171                	.2byte	0xd171
    21fe:	7dc2                	.2byte	0x7dc2
    2200:	4426                	.2byte	0x4426
    2202:	40fc                	.2byte	0x40fc
    2204:	7f3ffa07          	.4byte	0x7f3ffa07
    2208:	d171                	.2byte	0xd171
    220a:	7dc2                	.2byte	0x7dc2
    220c:	4426                	.2byte	0x4426
    220e:	40fc                	.2byte	0x40fc
    2210:	7f3ffa07          	.4byte	0x7f3ffa07
    2214:	d171                	.2byte	0xd171
    2216:	7dc2                	.2byte	0x7dc2
    2218:	4426                	.2byte	0x4426
    221a:	40fc                	.2byte	0x40fc
    221c:	7f3ffa07          	.4byte	0x7f3ffa07
    2220:	d171                	.2byte	0xd171
    2222:	7dc2                	.2byte	0x7dc2
    2224:	4426                	.2byte	0x4426
    2226:	40fc                	.2byte	0x40fc
    2228:	7f3ffa07          	.4byte	0x7f3ffa07
    222c:	ec66                	.2byte	0xec66
    222e:	7e90                	.2byte	0x7e90
    2230:	fd1f 3f83 7088      	.byte	0x1f, 0xfd, 0x83, 0x3f, 0x88, 0x70
    2236:	7e95                	.2byte	0x7e95
    2238:	ec66                	.2byte	0xec66
    223a:	7e90                	.2byte	0x7e90
    223c:	fd1f 3f83 7088      	.byte	0x1f, 0xfd, 0x83, 0x3f, 0x88, 0x70
    2242:	7e95                	.2byte	0x7e95
    2244:	ec66                	.2byte	0xec66
    2246:	7e90                	.2byte	0x7e90
    2248:	fd1f 3f83 7088      	.byte	0x1f, 0xfd, 0x83, 0x3f, 0x88, 0x70
    224e:	7e95                	.2byte	0x7e95
    2250:	ec66                	.2byte	0xec66
    2252:	7e90                	.2byte	0x7e90
    2254:	fd1f 3f83 7088      	.byte	0x1f, 0xfd, 0x83, 0x3f, 0x88, 0x70
    225a:	7e95                	.2byte	0x7e95
    225c:	ec66                	.2byte	0xec66
    225e:	7e90                	.2byte	0x7e90
    2260:	fd1f 3f83 7088      	.byte	0x1f, 0xfd, 0x83, 0x3f, 0x88, 0x70
    2266:	7e95                	.2byte	0x7e95
    2268:	2e8d                	.2byte	0x2e8d
    226a:	7eee                	.2byte	0x7eee
    226c:	b106                	.2byte	0xb106
    226e:	3efc                	.2byte	0x3efc
    2270:	7e6b1a87          	.4byte	0x7e6b1a87
    2274:	2e8d                	.2byte	0x2e8d
    2276:	7eee                	.2byte	0x7eee
    2278:	b106                	.2byte	0xb106
    227a:	3efc                	.2byte	0x3efc
    227c:	7e6b1a87          	.4byte	0x7e6b1a87
    2280:	2e8d                	.2byte	0x2e8d
    2282:	7eee                	.2byte	0x7eee
    2284:	b106                	.2byte	0xb106
    2286:	3efc                	.2byte	0x3efc
    2288:	7e6b1a87          	.4byte	0x7e6b1a87
    228c:	2e8d                	.2byte	0x2e8d
    228e:	7eee                	.2byte	0x7eee
    2290:	b106                	.2byte	0xb106
    2292:	3efc                	.2byte	0x3efc
    2294:	7e6b1a87          	.4byte	0x7e6b1a87
    2298:	2e8d                	.2byte	0x2e8d
    229a:	7eee                	.2byte	0x7eee
    229c:	b106                	.2byte	0xb106
    229e:	3efc                	.2byte	0x3efc
    22a0:	7e6b1a87          	.4byte	0x7e6b1a87
    22a4:	ad2c                	.2byte	0xad2c
    22a6:	7e7f                	.2byte	0x7e7f
    22a8:	df2e                	.2byte	0xdf2e
    22aa:	402d                	.2byte	0x402d
    22ac:	a6ed                	.2byte	0xa6ed
    22ae:	7f2d                	.2byte	0x7f2d
    22b0:	ad2c                	.2byte	0xad2c
    22b2:	7e7f                	.2byte	0x7e7f
    22b4:	df2e                	.2byte	0xdf2e
    22b6:	402d                	.2byte	0x402d
    22b8:	a6ed                	.2byte	0xa6ed
    22ba:	7f2d                	.2byte	0x7f2d
    22bc:	ad2c                	.2byte	0xad2c
    22be:	7e7f                	.2byte	0x7e7f
    22c0:	df2e                	.2byte	0xdf2e
    22c2:	402d                	.2byte	0x402d
    22c4:	a6ed                	.2byte	0xa6ed
    22c6:	7f2d                	.2byte	0x7f2d
    22c8:	ad2c                	.2byte	0xad2c
    22ca:	7e7f                	.2byte	0x7e7f
    22cc:	df2e                	.2byte	0xdf2e
    22ce:	402d                	.2byte	0x402d
    22d0:	a6ed                	.2byte	0xa6ed
    22d2:	7f2d                	.2byte	0x7f2d
    22d4:	ad2c                	.2byte	0xad2c
    22d6:	7e7f                	.2byte	0x7e7f
    22d8:	df2e                	.2byte	0xdf2e
    22da:	402d                	.2byte	0x402d
    22dc:	a6ed                	.2byte	0xa6ed
    22de:	7f2d                	.2byte	0x7f2d
    22e0:	6314                	.2byte	0x6314
    22e2:	7f15                	.2byte	0x7f15
    22e4:	9b9f 3cb3 9e2f      	.byte	0x9f, 0x9b, 0xb3, 0x3c, 0x2f, 0x9e
    22ea:	7c51                	.2byte	0x7c51
    22ec:	6314                	.2byte	0x6314
    22ee:	7f15                	.2byte	0x7f15
    22f0:	9b9f 3cb3 9e2f      	.byte	0x9f, 0x9b, 0xb3, 0x3c, 0x2f, 0x9e
    22f6:	7c51                	.2byte	0x7c51
    22f8:	6314                	.2byte	0x6314
    22fa:	7f15                	.2byte	0x7f15
    22fc:	9b9f 3cb3 9e2f      	.byte	0x9f, 0x9b, 0xb3, 0x3c, 0x2f, 0x9e
    2302:	7c51                	.2byte	0x7c51
    2304:	6314                	.2byte	0x6314
    2306:	7f15                	.2byte	0x7f15
    2308:	9b9f 3cb3 9e2f      	.byte	0x9f, 0x9b, 0xb3, 0x3c, 0x2f, 0x9e
    230e:	7c51                	.2byte	0x7c51
    2310:	6314                	.2byte	0x6314
    2312:	7f15                	.2byte	0x7f15
    2314:	9b9f 3cb3 9e2f      	.byte	0x9f, 0x9b, 0xb3, 0x3c, 0x2f, 0x9e
    231a:	7c51                	.2byte	0x7c51
    231c:	7f060f17          	auipc	t5,0x7f060
    2320:	ec96                	.2byte	0xec96
    2322:	3c92                	.2byte	0x3c92
    2324:	e100                	.2byte	0xe100
    2326:	7c19                	.2byte	0x7c19
    2328:	7f060f17          	auipc	t5,0x7f060
    232c:	ec96                	.2byte	0xec96
    232e:	3c92                	.2byte	0x3c92
    2330:	e100                	.2byte	0xe100
    2332:	7c19                	.2byte	0x7c19
    2334:	7f060f17          	auipc	t5,0x7f060
    2338:	ec96                	.2byte	0xec96
    233a:	3c92                	.2byte	0x3c92
    233c:	e100                	.2byte	0xe100
    233e:	7c19                	.2byte	0x7c19
    2340:	7f060f17          	auipc	t5,0x7f060
    2344:	ec96                	.2byte	0xec96
    2346:	3c92                	.2byte	0x3c92
    2348:	e100                	.2byte	0xe100
    234a:	7c19                	.2byte	0x7c19
    234c:	7f060f17          	auipc	t5,0x7f060
    2350:	ec96                	.2byte	0xec96
    2352:	3c92                	.2byte	0x3c92
    2354:	e100                	.2byte	0xe100
    2356:	7c19                	.2byte	0x7c19
    2358:	311f 7e21 f6ba      	.byte	0x1f, 0x31, 0x21, 0x7e, 0xba, 0xf6
    235e:	2efb4083          	lbu	ra,751(s6)
    2362:	7f26                	.2byte	0x7f26
    2364:	311f 7e21 f6ba      	.byte	0x1f, 0x31, 0x21, 0x7e, 0xba, 0xf6
    236a:	2efb4083          	lbu	ra,751(s6)
    236e:	7f26                	.2byte	0x7f26
    2370:	311f 7e21 f6ba      	.byte	0x1f, 0x31, 0x21, 0x7e, 0xba, 0xf6
    2376:	2efb4083          	lbu	ra,751(s6)
    237a:	7f26                	.2byte	0x7f26
    237c:	311f 7e21 f6ba      	.byte	0x1f, 0x31, 0x21, 0x7e, 0xba, 0xf6
    2382:	2efb4083          	lbu	ra,751(s6)
    2386:	7f26                	.2byte	0x7f26
    2388:	311f 7e21 f6ba      	.byte	0x1f, 0x31, 0x21, 0x7e, 0xba, 0xf6
    238e:	2efb4083          	lbu	ra,751(s6)
    2392:	7f26                	.2byte	0x7f26
    2394:	c1fe                	.2byte	0xc1fe
    2396:	7eb9                	.2byte	0x7eb9
    2398:	2c1f 3e92 214e      	.byte	0x1f, 0x2c, 0x92, 0x3e, 0x4e, 0x21
    239e:	7dd4                	.2byte	0x7dd4
    23a0:	c1fe                	.2byte	0xc1fe
    23a2:	7eb9                	.2byte	0x7eb9
    23a4:	2c1f 3e92 214e      	.byte	0x1f, 0x2c, 0x92, 0x3e, 0x4e, 0x21
    23aa:	7dd4                	.2byte	0x7dd4
    23ac:	c1fe                	.2byte	0xc1fe
    23ae:	7eb9                	.2byte	0x7eb9
    23b0:	2c1f 3e92 214e      	.byte	0x1f, 0x2c, 0x92, 0x3e, 0x4e, 0x21
    23b6:	7dd4                	.2byte	0x7dd4
    23b8:	c1fe                	.2byte	0xc1fe
    23ba:	7eb9                	.2byte	0x7eb9
    23bc:	2c1f 3e92 214e      	.byte	0x1f, 0x2c, 0x92, 0x3e, 0x4e, 0x21
    23c2:	7dd4                	.2byte	0x7dd4
    23c4:	c1fe                	.2byte	0xc1fe
    23c6:	7eb9                	.2byte	0x7eb9
    23c8:	2c1f 3e92 214e      	.byte	0x1f, 0x2c, 0x92, 0x3e, 0x4e, 0x21
    23ce:	7dd4                	.2byte	0x7dd4
    23d0:	d4df 7e6f dc16      	.byte	0xdf, 0xd4, 0x6f, 0x7e, 0x16, 0xdc
    23d6:	3f20                	.2byte	0x3f20
    23d8:	7e16b33b          	.4byte	0x7e16b33b
    23dc:	d4df 7e6f dc16      	.byte	0xdf, 0xd4, 0x6f, 0x7e, 0x16, 0xdc
    23e2:	3f20                	.2byte	0x3f20
    23e4:	7e16b33b          	.4byte	0x7e16b33b
    23e8:	d4df 7e6f dc16      	.byte	0xdf, 0xd4, 0x6f, 0x7e, 0x16, 0xdc
    23ee:	3f20                	.2byte	0x3f20
    23f0:	7e16b33b          	.4byte	0x7e16b33b
    23f4:	d4df 7e6f dc16      	.byte	0xdf, 0xd4, 0x6f, 0x7e, 0x16, 0xdc
    23fa:	3f20                	.2byte	0x3f20
    23fc:	7e16b33b          	.4byte	0x7e16b33b
    2400:	d4df 7e6f dc16      	.byte	0xdf, 0xd4, 0x6f, 0x7e, 0x16, 0xdc
    2406:	3f20                	.2byte	0x3f20
    2408:	7e16b33b          	.4byte	0x7e16b33b
    240c:	7db37137          	lui	sp,0x7db37
    2410:	88f6                	.2byte	0x88f6
    2412:	40b5                	.2byte	0x40b5
    2414:	7efe7e1b          	.4byte	0x7efe7e1b
    2418:	7db37137          	lui	sp,0x7db37
    241c:	88f6                	.2byte	0x88f6
    241e:	40b5                	.2byte	0x40b5
    2420:	7efe7e1b          	.4byte	0x7efe7e1b
    2424:	7db37137          	lui	sp,0x7db37
    2428:	88f6                	.2byte	0x88f6
    242a:	40b5                	.2byte	0x40b5
    242c:	7efe7e1b          	.4byte	0x7efe7e1b
    2430:	7db37137          	lui	sp,0x7db37
    2434:	88f6                	.2byte	0x88f6
    2436:	40b5                	.2byte	0x40b5
    2438:	7efe7e1b          	.4byte	0x7efe7e1b
    243c:	7db37137          	lui	sp,0x7db37
    2440:	88f6                	.2byte	0x88f6
    2442:	40b5                	.2byte	0x40b5
    2444:	7efe7e1b          	.4byte	0x7efe7e1b
    2448:	f9a2                	.2byte	0xf9a2
    244a:	7f28                	.2byte	0x7f28
    244c:	3f18ca47          	.4byte	0x3f18ca47
    2450:	b378                	.2byte	0xb378
    2452:	7ec9                	.2byte	0x7ec9
    2454:	f9a2                	.2byte	0xf9a2
    2456:	7f28                	.2byte	0x7f28
    2458:	3f18ca47          	.4byte	0x3f18ca47
    245c:	b378                	.2byte	0xb378
    245e:	7ec9                	.2byte	0x7ec9
    2460:	f9a2                	.2byte	0xf9a2
    2462:	7f28                	.2byte	0x7f28
    2464:	3f18ca47          	.4byte	0x3f18ca47
    2468:	b378                	.2byte	0xb378
    246a:	7ec9                	.2byte	0x7ec9
    246c:	f9a2                	.2byte	0xf9a2
    246e:	7f28                	.2byte	0x7f28
    2470:	3f18ca47          	.4byte	0x3f18ca47
    2474:	b378                	.2byte	0xb378
    2476:	7ec9                	.2byte	0x7ec9
    2478:	f9a2                	.2byte	0xf9a2
    247a:	7f28                	.2byte	0x7f28
    247c:	3f18ca47          	.4byte	0x3f18ca47
    2480:	b378                	.2byte	0xb378
    2482:	7ec9                	.2byte	0x7ec9
    2484:	3c76                	.2byte	0x3c76
    2486:	7ee2                	.2byte	0x7ee2
    2488:	e23d                	.2byte	0xe23d
    248a:	c28b3e1b          	.4byte	0xc28b3e1b
    248e:	7d89                	.2byte	0x7d89
    2490:	3c76                	.2byte	0x3c76
    2492:	7ee2                	.2byte	0x7ee2
    2494:	e23d                	.2byte	0xe23d
    2496:	c28b3e1b          	.4byte	0xc28b3e1b
    249a:	7d89                	.2byte	0x7d89
    249c:	3c76                	.2byte	0x3c76
    249e:	7ee2                	.2byte	0x7ee2
    24a0:	e23d                	.2byte	0xe23d
    24a2:	c28b3e1b          	.4byte	0xc28b3e1b
    24a6:	7d89                	.2byte	0x7d89
    24a8:	3c76                	.2byte	0x3c76
    24aa:	7ee2                	.2byte	0x7ee2
    24ac:	e23d                	.2byte	0xe23d
    24ae:	c28b3e1b          	.4byte	0xc28b3e1b
    24b2:	7d89                	.2byte	0x7d89
    24b4:	3c76                	.2byte	0x3c76
    24b6:	7ee2                	.2byte	0x7ee2
    24b8:	e23d                	.2byte	0xe23d
    24ba:	c28b3e1b          	.4byte	0xc28b3e1b
    24be:	7d89                	.2byte	0x7d89
    24c0:	1228                	.2byte	0x1228
    24c2:	77d27ee7          	.4byte	0x77d27ee7
    24c6:	3f01                	.2byte	0x3f01
    24c8:	b89c                	.2byte	0xb89c
    24ca:	7e69                	.2byte	0x7e69
    24cc:	1228                	.2byte	0x1228
    24ce:	77d27ee7          	.4byte	0x77d27ee7
    24d2:	3f01                	.2byte	0x3f01
    24d4:	b89c                	.2byte	0xb89c
    24d6:	7e69                	.2byte	0x7e69
    24d8:	1228                	.2byte	0x1228
    24da:	77d27ee7          	.4byte	0x77d27ee7
    24de:	3f01                	.2byte	0x3f01
    24e0:	b89c                	.2byte	0xb89c
    24e2:	7e69                	.2byte	0x7e69
    24e4:	1228                	.2byte	0x1228
    24e6:	77d27ee7          	.4byte	0x77d27ee7
    24ea:	3f01                	.2byte	0x3f01
    24ec:	b89c                	.2byte	0xb89c
    24ee:	7e69                	.2byte	0x7e69
    24f0:	1228                	.2byte	0x1228
    24f2:	77d27ee7          	.4byte	0x77d27ee7
    24f6:	3f01                	.2byte	0x3f01
    24f8:	b89c                	.2byte	0xb89c
    24fa:	7e69                	.2byte	0x7e69
    24fc:	9fe8                	.2byte	0x9fe8
    24fe:	7cae                	.2byte	0x7cae
    2500:	6f55                	.2byte	0x6f55
    2502:	c4bf414b          	.4byte	0xc4bf414b
    2506:	7e8a                	.2byte	0x7e8a
    2508:	9fe8                	.2byte	0x9fe8
    250a:	7cae                	.2byte	0x7cae
    250c:	6f55                	.2byte	0x6f55
    250e:	c4bf414b          	.4byte	0xc4bf414b
    2512:	7e8a                	.2byte	0x7e8a
    2514:	9fe8                	.2byte	0x9fe8
    2516:	7cae                	.2byte	0x7cae
    2518:	6f55                	.2byte	0x6f55
    251a:	c4bf414b          	.4byte	0xc4bf414b
    251e:	7e8a                	.2byte	0x7e8a
    2520:	9fe8                	.2byte	0x9fe8
    2522:	7cae                	.2byte	0x7cae
    2524:	6f55                	.2byte	0x6f55
    2526:	c4bf414b          	.4byte	0xc4bf414b
    252a:	7e8a                	.2byte	0x7e8a
    252c:	9fe8                	.2byte	0x9fe8
    252e:	7cae                	.2byte	0x7cae
    2530:	6f55                	.2byte	0x6f55
    2532:	c4bf414b          	.4byte	0xc4bf414b
    2536:	7e8a                	.2byte	0x7e8a
    2538:	a82d                	.2byte	0xa82d
    253a:	7f1a                	.2byte	0x7f1a
    253c:	2701                	.2byte	0x2701
    253e:	76c83f9b          	.4byte	0x76c83f9b
    2542:	a82d7f3b          	.4byte	0xa82d7f3b
    2546:	7f1a                	.2byte	0x7f1a
    2548:	2701                	.2byte	0x2701
    254a:	76c83f9b          	.4byte	0x76c83f9b
    254e:	a82d7f3b          	.4byte	0xa82d7f3b
    2552:	7f1a                	.2byte	0x7f1a
    2554:	2701                	.2byte	0x2701
    2556:	76c83f9b          	.4byte	0x76c83f9b
    255a:	a82d7f3b          	.4byte	0xa82d7f3b
    255e:	7f1a                	.2byte	0x7f1a
    2560:	2701                	.2byte	0x2701
    2562:	76c83f9b          	.4byte	0x76c83f9b
    2566:	a82d7f3b          	.4byte	0xa82d7f3b
    256a:	7f1a                	.2byte	0x7f1a
    256c:	2701                	.2byte	0x2701
    256e:	76c83f9b          	.4byte	0x76c83f9b
    2572:	83fc7f3b          	.4byte	0x83fc7f3b
    2576:	97907ef7          	.4byte	0x97907ef7
    257a:	3f8a                	.2byte	0x3f8a
    257c:	ffb0                	.2byte	0xffb0
    257e:	7f05                	.2byte	0x7f05
    2580:	83fc                	.2byte	0x83fc
    2582:	97907ef7          	.4byte	0x97907ef7
    2586:	3f8a                	.2byte	0x3f8a
    2588:	ffb0                	.2byte	0xffb0
    258a:	7f05                	.2byte	0x7f05
    258c:	83fc                	.2byte	0x83fc
    258e:	97907ef7          	.4byte	0x97907ef7
    2592:	3f8a                	.2byte	0x3f8a
    2594:	ffb0                	.2byte	0xffb0
    2596:	7f05                	.2byte	0x7f05
    2598:	83fc                	.2byte	0x83fc
    259a:	97907ef7          	.4byte	0x97907ef7
    259e:	3f8a                	.2byte	0x3f8a
    25a0:	ffb0                	.2byte	0xffb0
    25a2:	7f05                	.2byte	0x7f05
    25a4:	83fc                	.2byte	0x83fc
    25a6:	97907ef7          	.4byte	0x97907ef7
    25aa:	3f8a                	.2byte	0x3f8a
    25ac:	ffb0                	.2byte	0xffb0
    25ae:	7f05                	.2byte	0x7f05
    25b0:	a04a                	.2byte	0xa04a
    25b2:	7f2e                	.2byte	0x7f2e
    25b4:	dbda                	.2byte	0xdbda
    25b6:	3f10                	.2byte	0x3f10
    25b8:	a044                	.2byte	0xa044
    25ba:	7ec5                	.2byte	0x7ec5
    25bc:	a04a                	.2byte	0xa04a
    25be:	7f2e                	.2byte	0x7f2e
    25c0:	dbda                	.2byte	0xdbda
    25c2:	3f10                	.2byte	0x3f10
    25c4:	a044                	.2byte	0xa044
    25c6:	7ec5                	.2byte	0x7ec5
    25c8:	a04a                	.2byte	0xa04a
    25ca:	7f2e                	.2byte	0x7f2e
    25cc:	dbda                	.2byte	0xdbda
    25ce:	3f10                	.2byte	0x3f10
    25d0:	a044                	.2byte	0xa044
    25d2:	7ec5                	.2byte	0x7ec5
    25d4:	a04a                	.2byte	0xa04a
    25d6:	7f2e                	.2byte	0x7f2e
    25d8:	dbda                	.2byte	0xdbda
    25da:	3f10                	.2byte	0x3f10
    25dc:	a044                	.2byte	0xa044
    25de:	7ec5                	.2byte	0x7ec5
    25e0:	a04a                	.2byte	0xa04a
    25e2:	7f2e                	.2byte	0x7f2e
    25e4:	dbda                	.2byte	0xdbda
    25e6:	3f10                	.2byte	0x3f10
    25e8:	a044                	.2byte	0xa044
    25ea:	7ec5                	.2byte	0x7ec5
    25ec:	62c0                	.2byte	0x62c0
    25ee:	7e8a                	.2byte	0x7e8a
    25f0:	a532                	.2byte	0xa532
    25f2:	4025                	.2byte	0x4025
    25f4:	15e5                	.2byte	0x15e5
    25f6:	62c07f33          	.4byte	0x62c07f33
    25fa:	7e8a                	.2byte	0x7e8a
    25fc:	a532                	.2byte	0xa532
    25fe:	4025                	.2byte	0x4025
    2600:	15e5                	.2byte	0x15e5
    2602:	62c07f33          	.4byte	0x62c07f33
    2606:	7e8a                	.2byte	0x7e8a
    2608:	a532                	.2byte	0xa532
    260a:	4025                	.2byte	0x4025
    260c:	15e5                	.2byte	0x15e5
    260e:	62c07f33          	.4byte	0x62c07f33
    2612:	7e8a                	.2byte	0x7e8a
    2614:	a532                	.2byte	0xa532
    2616:	4025                	.2byte	0x4025
    2618:	15e5                	.2byte	0x15e5
    261a:	62c07f33          	.4byte	0x62c07f33
    261e:	7e8a                	.2byte	0x7e8a
    2620:	a532                	.2byte	0xa532
    2622:	4025                	.2byte	0x4025
    2624:	15e5                	.2byte	0x15e5
    2626:	457f7f33          	.4byte	0x457f7f33
    262a:	7e1a                	.2byte	0x7e1a
    262c:	d100                	.2byte	0xd100
    262e:	4050                	.2byte	0x4050
    2630:	acd4                	.2byte	0xacd4
    2632:	457f7efb          	.4byte	0x457f7efb
    2636:	7e1a                	.2byte	0x7e1a
    2638:	d100                	.2byte	0xd100
    263a:	4050                	.2byte	0x4050
    263c:	acd4                	.2byte	0xacd4
    263e:	457f7efb          	.4byte	0x457f7efb
    2642:	7e1a                	.2byte	0x7e1a
    2644:	d100                	.2byte	0xd100
    2646:	4050                	.2byte	0x4050
    2648:	acd4                	.2byte	0xacd4
    264a:	457f7efb          	.4byte	0x457f7efb
    264e:	7e1a                	.2byte	0x7e1a
    2650:	d100                	.2byte	0xd100
    2652:	4050                	.2byte	0x4050
    2654:	acd4                	.2byte	0xacd4
    2656:	457f7efb          	.4byte	0x457f7efb
    265a:	7e1a                	.2byte	0x7e1a
    265c:	d100                	.2byte	0xd100
    265e:	4050                	.2byte	0x4050
    2660:	acd4                	.2byte	0xacd4
    2662:	a9e27efb          	.4byte	0xa9e27efb
    2666:	7f36                	.2byte	0x7f36
    2668:	3f1e600b          	.4byte	0x3f1e600b
    266c:	7ee202c3          	.4byte	0x7ee202c3
    2670:	a9e2                	.2byte	0xa9e2
    2672:	7f36                	.2byte	0x7f36
    2674:	3f1e600b          	.4byte	0x3f1e600b
    2678:	7ee202c3          	.4byte	0x7ee202c3
    267c:	a9e2                	.2byte	0xa9e2
    267e:	7f36                	.2byte	0x7f36
    2680:	3f1e600b          	.4byte	0x3f1e600b
    2684:	7ee202c3          	.4byte	0x7ee202c3
    2688:	a9e2                	.2byte	0xa9e2
    268a:	7f36                	.2byte	0x7f36
    268c:	3f1e600b          	.4byte	0x3f1e600b
    2690:	7ee202c3          	.4byte	0x7ee202c3
    2694:	a9e2                	.2byte	0xa9e2
    2696:	7f36                	.2byte	0x7f36
    2698:	3f1e600b          	.4byte	0x3f1e600b
    269c:	7ee202c3          	.4byte	0x7ee202c3
    26a0:	7ef3cf0f          	.4byte	0x7ef3cf0f
    26a4:	3eeacfa3          	.4byte	0x3eeacfa3
    26a8:	7e5fa103          	lw	sp,2021(t6)
    26ac:	7ef3cf0f          	.4byte	0x7ef3cf0f
    26b0:	3eeacfa3          	.4byte	0x3eeacfa3
    26b4:	7e5fa103          	lw	sp,2021(t6)
    26b8:	7ef3cf0f          	.4byte	0x7ef3cf0f
    26bc:	3eeacfa3          	.4byte	0x3eeacfa3
    26c0:	7e5fa103          	lw	sp,2021(t6)
    26c4:	7ef3cf0f          	.4byte	0x7ef3cf0f
    26c8:	3eeacfa3          	.4byte	0x3eeacfa3
    26cc:	7e5fa103          	lw	sp,2021(t6)
    26d0:	7ef3cf0f          	.4byte	0x7ef3cf0f
    26d4:	3eeacfa3          	.4byte	0x3eeacfa3
    26d8:	7e5fa103          	lw	sp,2021(t6)
    26dc:	0bf1                	.2byte	0xbf1
    26de:	7d90                	.2byte	0x7d90
    26e0:	40068d67          	jalr	s10,1024(a3)
    26e4:	6ba2                	.2byte	0x6ba2
    26e6:	0bf17e17          	auipc	t3,0xbf17
    26ea:	7d90                	.2byte	0x7d90
    26ec:	40068d67          	jalr	s10,1024(a3)
    26f0:	6ba2                	.2byte	0x6ba2
    26f2:	0bf17e17          	auipc	t3,0xbf17
    26f6:	7d90                	.2byte	0x7d90
    26f8:	40068d67          	jalr	s10,1024(a3)
    26fc:	6ba2                	.2byte	0x6ba2
    26fe:	0bf17e17          	auipc	t3,0xbf17
    2702:	7d90                	.2byte	0x7d90
    2704:	40068d67          	jalr	s10,1024(a3)
    2708:	6ba2                	.2byte	0x6ba2
    270a:	0bf17e17          	auipc	t3,0xbf17
    270e:	7d90                	.2byte	0x7d90
    2710:	40068d67          	jalr	s10,1024(a3)
    2714:	6ba2                	.2byte	0x6ba2
    2716:	849e7e17          	auipc	t3,0x849e7
    271a:	7f1a                	.2byte	0x7f1a
    271c:	3f0d9f1b          	.4byte	0x3f0d9f1b
    2720:	f628                	.2byte	0xf628
    2722:	7eaa                	.2byte	0x7eaa
    2724:	849e                	.2byte	0x849e
    2726:	7f1a                	.2byte	0x7f1a
    2728:	3f0d9f1b          	.4byte	0x3f0d9f1b
    272c:	f628                	.2byte	0xf628
    272e:	7eaa                	.2byte	0x7eaa
    2730:	849e                	.2byte	0x849e
    2732:	7f1a                	.2byte	0x7f1a
    2734:	3f0d9f1b          	.4byte	0x3f0d9f1b
    2738:	f628                	.2byte	0xf628
    273a:	7eaa                	.2byte	0x7eaa
    273c:	849e                	.2byte	0x849e
    273e:	7f1a                	.2byte	0x7f1a
    2740:	3f0d9f1b          	.4byte	0x3f0d9f1b
    2744:	f628                	.2byte	0xf628
    2746:	7eaa                	.2byte	0x7eaa
    2748:	849e                	.2byte	0x849e
    274a:	7f1a                	.2byte	0x7f1a
    274c:	3f0d9f1b          	.4byte	0x3f0d9f1b
    2750:	f628                	.2byte	0xf628
    2752:	7eaa                	.2byte	0x7eaa
    2754:	0e02                	.2byte	0xe02
    2756:	7bec7d8f          	.4byte	0x7bec7d8f
    275a:	4109                	.2byte	0x4109
    275c:	a77e                	.2byte	0xa77e
    275e:	7f19                	.2byte	0x7f19
    2760:	0e02                	.2byte	0xe02
    2762:	7bec7d8f          	.4byte	0x7bec7d8f
    2766:	4109                	.2byte	0x4109
    2768:	a77e                	.2byte	0xa77e
    276a:	7f19                	.2byte	0x7f19
    276c:	0e02                	.2byte	0xe02
    276e:	7bec7d8f          	.4byte	0x7bec7d8f
    2772:	4109                	.2byte	0x4109
    2774:	a77e                	.2byte	0xa77e
    2776:	7f19                	.2byte	0x7f19
    2778:	0e02                	.2byte	0xe02
    277a:	7bec7d8f          	.4byte	0x7bec7d8f
    277e:	4109                	.2byte	0x4109
    2780:	a77e                	.2byte	0xa77e
    2782:	7f19                	.2byte	0x7f19
    2784:	0e02                	.2byte	0xe02
    2786:	7bec7d8f          	.4byte	0x7bec7d8f
    278a:	4109                	.2byte	0x4109
    278c:	a77e                	.2byte	0xa77e
    278e:	7f19                	.2byte	0x7f19
    2790:	1a29                	.2byte	0x1a29
    2792:	7f22                	.2byte	0x7f22
    2794:	3ecb81fb          	.4byte	0x3ecb81fb
    2798:	dd0d                	.2byte	0xdd0d
    279a:	7e80                	.2byte	0x7e80
    279c:	1a29                	.2byte	0x1a29
    279e:	7f22                	.2byte	0x7f22
    27a0:	3ecb81fb          	.4byte	0x3ecb81fb
    27a4:	dd0d                	.2byte	0xdd0d
    27a6:	7e80                	.2byte	0x7e80
    27a8:	1a29                	.2byte	0x1a29
    27aa:	7f22                	.2byte	0x7f22
    27ac:	3ecb81fb          	.4byte	0x3ecb81fb
    27b0:	dd0d                	.2byte	0xdd0d
    27b2:	7e80                	.2byte	0x7e80
    27b4:	1a29                	.2byte	0x1a29
    27b6:	7f22                	.2byte	0x7f22
    27b8:	3ecb81fb          	.4byte	0x3ecb81fb
    27bc:	dd0d                	.2byte	0xdd0d
    27be:	7e80                	.2byte	0x7e80
    27c0:	1a29                	.2byte	0x1a29
    27c2:	7f22                	.2byte	0x7f22
    27c4:	3ecb81fb          	.4byte	0x3ecb81fb
    27c8:	dd0d                	.2byte	0xdd0d
    27ca:	7e80                	.2byte	0x7e80
    27cc:	3f02                	.2byte	0x3f02
    27ce:	7f1a                	.2byte	0x7f1a
    27d0:	8069                	.2byte	0x8069
    27d2:	3f5a                	.2byte	0x3f5a
    27d4:	7f03a707          	flw	fa4,2032(t2)
    27d8:	3f02                	.2byte	0x3f02
    27da:	7f1a                	.2byte	0x7f1a
    27dc:	8069                	.2byte	0x8069
    27de:	3f5a                	.2byte	0x3f5a
    27e0:	7f03a707          	flw	fa4,2032(t2)
    27e4:	3f02                	.2byte	0x3f02
    27e6:	7f1a                	.2byte	0x7f1a
    27e8:	8069                	.2byte	0x8069
    27ea:	3f5a                	.2byte	0x3f5a
    27ec:	7f03a707          	flw	fa4,2032(t2)
    27f0:	3f02                	.2byte	0x3f02
    27f2:	7f1a                	.2byte	0x7f1a
    27f4:	8069                	.2byte	0x8069
    27f6:	3f5a                	.2byte	0x3f5a
    27f8:	7f03a707          	flw	fa4,2032(t2)
    27fc:	3f02                	.2byte	0x3f02
    27fe:	7f1a                	.2byte	0x7f1a
    2800:	8069                	.2byte	0x8069
    2802:	3f5a                	.2byte	0x3f5a
    2804:	7f03a707          	flw	fa4,2032(t2)
    2808:	9574                	.2byte	0x9574
    280a:	7f1a                	.2byte	0x7f1a
    280c:	da1a                	.2byte	0xda1a
    280e:	3ea8                	.2byte	0x3ea8
    2810:	7e4beb8f          	.4byte	0x7e4beb8f
    2814:	9574                	.2byte	0x9574
    2816:	7f1a                	.2byte	0x7f1a
    2818:	da1a                	.2byte	0xda1a
    281a:	3ea8                	.2byte	0x3ea8
    281c:	7e4beb8f          	.4byte	0x7e4beb8f
    2820:	9574                	.2byte	0x9574
    2822:	7f1a                	.2byte	0x7f1a
    2824:	da1a                	.2byte	0xda1a
    2826:	3ea8                	.2byte	0x3ea8
    2828:	7e4beb8f          	.4byte	0x7e4beb8f
    282c:	9574                	.2byte	0x9574
    282e:	7f1a                	.2byte	0x7f1a
    2830:	da1a                	.2byte	0xda1a
    2832:	3ea8                	.2byte	0x3ea8
    2834:	7e4beb8f          	.4byte	0x7e4beb8f
    2838:	9574                	.2byte	0x9574
    283a:	7f1a                	.2byte	0x7f1a
    283c:	da1a                	.2byte	0xda1a
    283e:	3ea8                	.2byte	0x3ea8
    2840:	7e4beb8f          	.4byte	0x7e4beb8f
    2844:	365e                	.2byte	0x365e
    2846:	7e14                	.2byte	0x7e14
    2848:	403798bb          	.4byte	0x403798bb
    284c:	9695                	.2byte	0x9695
    284e:	7ed4                	.2byte	0x7ed4
    2850:	365e                	.2byte	0x365e
    2852:	7e14                	.2byte	0x7e14
    2854:	403798bb          	.4byte	0x403798bb
    2858:	9695                	.2byte	0x9695
    285a:	7ed4                	.2byte	0x7ed4
    285c:	365e                	.2byte	0x365e
    285e:	7e14                	.2byte	0x7e14
    2860:	403798bb          	.4byte	0x403798bb
    2864:	9695                	.2byte	0x9695
    2866:	7ed4                	.2byte	0x7ed4
    2868:	365e                	.2byte	0x365e
    286a:	7e14                	.2byte	0x7e14
    286c:	403798bb          	.4byte	0x403798bb
    2870:	9695                	.2byte	0x9695
    2872:	7ed4                	.2byte	0x7ed4
    2874:	365e                	.2byte	0x365e
    2876:	7e14                	.2byte	0x7e14
    2878:	403798bb          	.4byte	0x403798bb
    287c:	9695                	.2byte	0x9695
    287e:	7ed4                	.2byte	0x7ed4
    2880:	b58d                	.2byte	0xb58d
    2882:	7ece                	.2byte	0x7ece
    2884:	2e36                	.2byte	0x2e36
    2886:	3fa2                	.2byte	0x3fa2
    2888:	f434                	.2byte	0xf434
    288a:	7f02                	.2byte	0x7f02
    288c:	b58d                	.2byte	0xb58d
    288e:	7ece                	.2byte	0x7ece
    2890:	2e36                	.2byte	0x2e36
    2892:	3fa2                	.2byte	0x3fa2
    2894:	f434                	.2byte	0xf434
    2896:	7f02                	.2byte	0x7f02
    2898:	b58d                	.2byte	0xb58d
    289a:	7ece                	.2byte	0x7ece
    289c:	2e36                	.2byte	0x2e36
    289e:	3fa2                	.2byte	0x3fa2
    28a0:	f434                	.2byte	0xf434
    28a2:	7f02                	.2byte	0x7f02
    28a4:	b58d                	.2byte	0xb58d
    28a6:	7ece                	.2byte	0x7ece
    28a8:	2e36                	.2byte	0x2e36
    28aa:	3fa2                	.2byte	0x3fa2
    28ac:	f434                	.2byte	0xf434
    28ae:	7f02                	.2byte	0x7f02
    28b0:	b58d                	.2byte	0xb58d
    28b2:	7ece                	.2byte	0x7ece
    28b4:	2e36                	.2byte	0x2e36
    28b6:	3fa2                	.2byte	0x3fa2
    28b8:	f434                	.2byte	0xf434
    28ba:	7f02                	.2byte	0x7f02
    28bc:	2059                	.2byte	0x2059
    28be:	7f0c                	.2byte	0x7f0c
    28c0:	387d                	.2byte	0x387d
    28c2:	3f11                	.2byte	0x3f11
    28c4:	fa7c                	.2byte	0xfa7c
    28c6:	7e9e                	.2byte	0x7e9e
    28c8:	2059                	.2byte	0x2059
    28ca:	7f0c                	.2byte	0x7f0c
    28cc:	387d                	.2byte	0x387d
    28ce:	3f11                	.2byte	0x3f11
    28d0:	fa7c                	.2byte	0xfa7c
    28d2:	7e9e                	.2byte	0x7e9e
    28d4:	2059                	.2byte	0x2059
    28d6:	7f0c                	.2byte	0x7f0c
    28d8:	387d                	.2byte	0x387d
    28da:	3f11                	.2byte	0x3f11
    28dc:	fa7c                	.2byte	0xfa7c
    28de:	7e9e                	.2byte	0x7e9e
    28e0:	2059                	.2byte	0x2059
    28e2:	7f0c                	.2byte	0x7f0c
    28e4:	387d                	.2byte	0x387d
    28e6:	3f11                	.2byte	0x3f11
    28e8:	fa7c                	.2byte	0xfa7c
    28ea:	7e9e                	.2byte	0x7e9e
    28ec:	2059                	.2byte	0x2059
    28ee:	7f0c                	.2byte	0x7f0c
    28f0:	387d                	.2byte	0x387d
    28f2:	3f11                	.2byte	0x3f11
    28f4:	fa7c                	.2byte	0xfa7c
    28f6:	7e9e                	.2byte	0x7e9e
    28f8:	6e9f 7e51 33f6      	.byte	0x9f, 0x6e, 0x51, 0x7e, 0xf6, 0x33
    28fe:	403c                	.2byte	0x403c
    2900:	7f19f7bf 7e516e9f 	.8byte	0x7e516e9f7f19f7bf
    2908:	33f6                	.2byte	0x33f6
    290a:	403c                	.2byte	0x403c
    290c:	7f19f7bf 7e516e9f 	.8byte	0x7e516e9f7f19f7bf
    2914:	33f6                	.2byte	0x33f6
    2916:	403c                	.2byte	0x403c
    2918:	7f19f7bf 7e516e9f 	.8byte	0x7e516e9f7f19f7bf
    2920:	33f6                	.2byte	0x33f6
    2922:	403c                	.2byte	0x403c
    2924:	7f19f7bf 7e516e9f 	.8byte	0x7e516e9f7f19f7bf
    292c:	33f6                	.2byte	0x33f6
    292e:	403c                	.2byte	0x403c
    2930:	7f19f7bf 7e8f4b27 	.8byte	0x7e8f4b277f19f7bf
    2938:	15cd                	.2byte	0x15cd
    293a:	4004                	.2byte	0x4004
    293c:	dde9                	.2byte	0xdde9
    293e:	4b277f13          	and	t5,a4,1202
    2942:	15cd7e8f          	.4byte	0x15cd7e8f
    2946:	4004                	.2byte	0x4004
    2948:	dde9                	.2byte	0xdde9
    294a:	4b277f13          	and	t5,a4,1202
    294e:	15cd7e8f          	.4byte	0x15cd7e8f
    2952:	4004                	.2byte	0x4004
    2954:	dde9                	.2byte	0xdde9
    2956:	4b277f13          	and	t5,a4,1202
    295a:	15cd7e8f          	.4byte	0x15cd7e8f
    295e:	4004                	.2byte	0x4004
    2960:	dde9                	.2byte	0xdde9
    2962:	4b277f13          	and	t5,a4,1202
    2966:	15cd7e8f          	.4byte	0x15cd7e8f
    296a:	4004                	.2byte	0x4004
    296c:	dde9                	.2byte	0xdde9
    296e:	93df7f13          	and	t5,t5,-1731
    2972:	7eb4                	.2byte	0x7eb4
    2974:	cb22                	.2byte	0xcb22
    2976:	3fce                	.2byte	0x3fce
    2978:	7f11de47          	.4byte	0x7f11de47
    297c:	93df 7eb4 cb22      	.byte	0xdf, 0x93, 0xb4, 0x7e, 0x22, 0xcb
    2982:	3fce                	.2byte	0x3fce
    2984:	7f11de47          	.4byte	0x7f11de47
    2988:	93df 7eb4 cb22      	.byte	0xdf, 0x93, 0xb4, 0x7e, 0x22, 0xcb
    298e:	3fce                	.2byte	0x3fce
    2990:	7f11de47          	.4byte	0x7f11de47
    2994:	93df 7eb4 cb22      	.byte	0xdf, 0x93, 0xb4, 0x7e, 0x22, 0xcb
    299a:	3fce                	.2byte	0x3fce
    299c:	7f11de47          	.4byte	0x7f11de47
    29a0:	93df 7eb4 cb22      	.byte	0xdf, 0x93, 0xb4, 0x7e, 0x22, 0xcb
    29a6:	3fce                	.2byte	0x3fce
    29a8:	7f11de47          	.4byte	0x7f11de47
    29ac:	79b19f1b          	.4byte	0x79b19f1b
    29b0:	44b76ad3          	.4byte	0x44b76ad3
    29b4:	85b6                	.2byte	0x85b6
    29b6:	7efe                	.2byte	0x7efe
    29b8:	79b19f1b          	.4byte	0x79b19f1b
    29bc:	44b76ad3          	.4byte	0x44b76ad3
    29c0:	85b6                	.2byte	0x85b6
    29c2:	7efe                	.2byte	0x7efe
    29c4:	79b19f1b          	.4byte	0x79b19f1b
    29c8:	44b76ad3          	.4byte	0x44b76ad3
    29cc:	85b6                	.2byte	0x85b6
    29ce:	7efe                	.2byte	0x7efe
    29d0:	79b19f1b          	.4byte	0x79b19f1b
    29d4:	44b76ad3          	.4byte	0x44b76ad3
    29d8:	85b6                	.2byte	0x85b6
    29da:	7efe                	.2byte	0x7efe
    29dc:	79b19f1b          	.4byte	0x79b19f1b
    29e0:	44b76ad3          	.4byte	0x44b76ad3
    29e4:	85b6                	.2byte	0x85b6
    29e6:	7efe                	.2byte	0x7efe
    29e8:	7eba40d7          	.4byte	0x7eba40d7
    29ec:	1548                	.2byte	0x1548
    29ee:	3f0a                	.2byte	0x3f0a
    29f0:	ecdf 7e48 40d7      	.byte	0xdf, 0xec, 0x48, 0x7e, 0xd7, 0x40
    29f6:	7eba                	.2byte	0x7eba
    29f8:	1548                	.2byte	0x1548
    29fa:	3f0a                	.2byte	0x3f0a
    29fc:	ecdf 7e48 40d7      	.byte	0xdf, 0xec, 0x48, 0x7e, 0xd7, 0x40
    2a02:	7eba                	.2byte	0x7eba
    2a04:	1548                	.2byte	0x1548
    2a06:	3f0a                	.2byte	0x3f0a
    2a08:	ecdf 7e48 40d7      	.byte	0xdf, 0xec, 0x48, 0x7e, 0xd7, 0x40
    2a0e:	7eba                	.2byte	0x7eba
    2a10:	1548                	.2byte	0x1548
    2a12:	3f0a                	.2byte	0x3f0a
    2a14:	ecdf 7e48 40d7      	.byte	0xdf, 0xec, 0x48, 0x7e, 0xd7, 0x40
    2a1a:	7eba                	.2byte	0x7eba
    2a1c:	1548                	.2byte	0x1548
    2a1e:	3f0a                	.2byte	0x3f0a
    2a20:	ecdf 7e48 5240      	.byte	0xdf, 0xec, 0x48, 0x7e, 0x40, 0x52
    2a26:	7f18                	.2byte	0x7f18
    2a28:	9ddd                	.2byte	0x9ddd
    2a2a:	3f84                	.2byte	0x3f84
    2a2c:	d0ae                	.2byte	0xd0ae
    2a2e:	7f1d                	.2byte	0x7f1d
    2a30:	5240                	.2byte	0x5240
    2a32:	7f18                	.2byte	0x7f18
    2a34:	9ddd                	.2byte	0x9ddd
    2a36:	3f84                	.2byte	0x3f84
    2a38:	d0ae                	.2byte	0xd0ae
    2a3a:	7f1d                	.2byte	0x7f1d
    2a3c:	5240                	.2byte	0x5240
    2a3e:	7f18                	.2byte	0x7f18
    2a40:	9ddd                	.2byte	0x9ddd
    2a42:	3f84                	.2byte	0x3f84
    2a44:	d0ae                	.2byte	0xd0ae
    2a46:	7f1d                	.2byte	0x7f1d
    2a48:	5240                	.2byte	0x5240
    2a4a:	7f18                	.2byte	0x7f18
    2a4c:	9ddd                	.2byte	0x9ddd
    2a4e:	3f84                	.2byte	0x3f84
    2a50:	d0ae                	.2byte	0xd0ae
    2a52:	7f1d                	.2byte	0x7f1d
    2a54:	d648                	.2byte	0xd648
    2a56:	7eb4                	.2byte	0x7eb4
    2a58:	3fbfcdc7          	.4byte	0x3fbfcdc7
    2a5c:	7d3c                	.2byte	0x7d3c
    2a5e:	d6487f07          	.4byte	0xd6487f07
    2a62:	7eb4                	.2byte	0x7eb4
    2a64:	3fbfcdc7          	.4byte	0x3fbfcdc7
    2a68:	7d3c                	.2byte	0x7d3c
    2a6a:	d6487f07          	.4byte	0xd6487f07
    2a6e:	7eb4                	.2byte	0x7eb4
    2a70:	3fbfcdc7          	.4byte	0x3fbfcdc7
    2a74:	7d3c                	.2byte	0x7d3c
    2a76:	d9d97f07          	.4byte	0xd9d97f07
    2a7a:	7f18                	.2byte	0x7f18
    2a7c:	3f262663          	.4byte	0x3f262663
    2a80:	685d                	.2byte	0x685d
    2a82:	7ec6                	.2byte	0x7ec6
    2a84:	d9d9                	.2byte	0xd9d9
    2a86:	7f18                	.2byte	0x7f18
    2a88:	3f262663          	.4byte	0x3f262663
    2a8c:	685d                	.2byte	0x685d
    2a8e:	7ec6                	.2byte	0x7ec6
    2a90:	d9d9                	.2byte	0xd9d9
    2a92:	7f18                	.2byte	0x7f18
    2a94:	3f262663          	.4byte	0x3f262663
    2a98:	685d                	.2byte	0x685d
    2a9a:	7ec6                	.2byte	0x7ec6
    2a9c:	d9d9                	.2byte	0xd9d9
    2a9e:	7f18                	.2byte	0x7f18
    2aa0:	3f262663          	.4byte	0x3f262663
    2aa4:	685d                	.2byte	0x685d
    2aa6:	7ec6                	.2byte	0x7ec6
    2aa8:	b8f9                	.2byte	0xb8f9
    2aaa:	ee417eab          	.4byte	0xee417eab
    2aae:	3fed                	.2byte	0x3fed
    2ab0:	9a10                	.2byte	0x9a10
    2ab2:	7f1f        	.byte	0x1f, 0x7f, 0x00, 0x00, 0x00, 0x00

00002ab4 <rvtest_data_end>:
	...

00002ac0 <data_begin>:
    2ac0:	deadbeef          	jal	t4,fffde0aa <_end+0xfffdaeca>
    2ac4:	deadbeef          	jal	t4,fffde0ae <_end+0xfffdaece>
    2ac8:	deadbeef          	jal	t4,fffde0b2 <_end+0xfffdaed2>
    2acc:	deadbeef          	jal	t4,fffde0b6 <_end+0xfffdaed6>
    2ad0:	deadbeef          	jal	t4,fffde0ba <_end+0xfffdaeda>
    2ad4:	deadbeef          	jal	t4,fffde0be <_end+0xfffdaede>
    2ad8:	deadbeef          	jal	t4,fffde0c2 <_end+0xfffdaee2>
    2adc:	deadbeef          	jal	t4,fffde0c6 <_end+0xfffdaee6>
    2ae0:	deadbeef          	jal	t4,fffde0ca <_end+0xfffdaeea>
    2ae4:	deadbeef          	jal	t4,fffde0ce <_end+0xfffdaeee>
    2ae8:	deadbeef          	jal	t4,fffde0d2 <_end+0xfffdaef2>
    2aec:	deadbeef          	jal	t4,fffde0d6 <_end+0xfffdaef6>
    2af0:	deadbeef          	jal	t4,fffde0da <_end+0xfffdaefa>
    2af4:	deadbeef          	jal	t4,fffde0de <_end+0xfffdaefe>
    2af8:	deadbeef          	jal	t4,fffde0e2 <_end+0xfffdaf02>
    2afc:	deadbeef          	jal	t4,fffde0e6 <_end+0xfffdaf06>
    2b00:	deadbeef          	jal	t4,fffde0ea <_end+0xfffdaf0a>
    2b04:	deadbeef          	jal	t4,fffde0ee <_end+0xfffdaf0e>
    2b08:	deadbeef          	jal	t4,fffde0f2 <_end+0xfffdaf12>
    2b0c:	deadbeef          	jal	t4,fffde0f6 <_end+0xfffdaf16>
    2b10:	deadbeef          	jal	t4,fffde0fa <_end+0xfffdaf1a>
    2b14:	deadbeef          	jal	t4,fffde0fe <_end+0xfffdaf1e>
    2b18:	deadbeef          	jal	t4,fffde102 <_end+0xfffdaf22>
    2b1c:	deadbeef          	jal	t4,fffde106 <_end+0xfffdaf26>
    2b20:	deadbeef          	jal	t4,fffde10a <_end+0xfffdaf2a>
    2b24:	deadbeef          	jal	t4,fffde10e <_end+0xfffdaf2e>
    2b28:	deadbeef          	jal	t4,fffde112 <_end+0xfffdaf32>
    2b2c:	deadbeef          	jal	t4,fffde116 <_end+0xfffdaf36>
    2b30:	deadbeef          	jal	t4,fffde11a <_end+0xfffdaf3a>
    2b34:	deadbeef          	jal	t4,fffde11e <_end+0xfffdaf3e>
    2b38:	deadbeef          	jal	t4,fffde122 <_end+0xfffdaf42>
    2b3c:	deadbeef          	jal	t4,fffde126 <_end+0xfffdaf46>
    2b40:	deadbeef          	jal	t4,fffde12a <_end+0xfffdaf4a>
    2b44:	deadbeef          	jal	t4,fffde12e <_end+0xfffdaf4e>
    2b48:	deadbeef          	jal	t4,fffde132 <_end+0xfffdaf52>
    2b4c:	deadbeef          	jal	t4,fffde136 <_end+0xfffdaf56>
    2b50:	deadbeef          	jal	t4,fffde13a <_end+0xfffdaf5a>
    2b54:	deadbeef          	jal	t4,fffde13e <_end+0xfffdaf5e>
    2b58:	deadbeef          	jal	t4,fffde142 <_end+0xfffdaf62>
    2b5c:	deadbeef          	jal	t4,fffde146 <_end+0xfffdaf66>
    2b60:	deadbeef          	jal	t4,fffde14a <_end+0xfffdaf6a>
    2b64:	deadbeef          	jal	t4,fffde14e <_end+0xfffdaf6e>
    2b68:	deadbeef          	jal	t4,fffde152 <_end+0xfffdaf72>
    2b6c:	deadbeef          	jal	t4,fffde156 <_end+0xfffdaf76>
    2b70:	deadbeef          	jal	t4,fffde15a <_end+0xfffdaf7a>
    2b74:	deadbeef          	jal	t4,fffde15e <_end+0xfffdaf7e>
    2b78:	deadbeef          	jal	t4,fffde162 <_end+0xfffdaf82>
    2b7c:	deadbeef          	jal	t4,fffde166 <_end+0xfffdaf86>
    2b80:	deadbeef          	jal	t4,fffde16a <_end+0xfffdaf8a>
    2b84:	deadbeef          	jal	t4,fffde16e <_end+0xfffdaf8e>
    2b88:	deadbeef          	jal	t4,fffde172 <_end+0xfffdaf92>
    2b8c:	deadbeef          	jal	t4,fffde176 <_end+0xfffdaf96>
    2b90:	deadbeef          	jal	t4,fffde17a <_end+0xfffdaf9a>
    2b94:	deadbeef          	jal	t4,fffde17e <_end+0xfffdaf9e>
    2b98:	deadbeef          	jal	t4,fffde182 <_end+0xfffdafa2>
    2b9c:	deadbeef          	jal	t4,fffde186 <_end+0xfffdafa6>
    2ba0:	deadbeef          	jal	t4,fffde18a <_end+0xfffdafaa>
    2ba4:	deadbeef          	jal	t4,fffde18e <_end+0xfffdafae>
    2ba8:	deadbeef          	jal	t4,fffde192 <_end+0xfffdafb2>
    2bac:	deadbeef          	jal	t4,fffde196 <_end+0xfffdafb6>
    2bb0:	deadbeef          	jal	t4,fffde19a <_end+0xfffdafba>
    2bb4:	deadbeef          	jal	t4,fffde19e <_end+0xfffdafbe>
    2bb8:	deadbeef          	jal	t4,fffde1a2 <_end+0xfffdafc2>
    2bbc:	deadbeef          	jal	t4,fffde1a6 <_end+0xfffdafc6>
    2bc0:	deadbeef          	jal	t4,fffde1aa <_end+0xfffdafca>
    2bc4:	deadbeef          	jal	t4,fffde1ae <_end+0xfffdafce>
    2bc8:	deadbeef          	jal	t4,fffde1b2 <_end+0xfffdafd2>
    2bcc:	deadbeef          	jal	t4,fffde1b6 <_end+0xfffdafd6>
    2bd0:	deadbeef          	jal	t4,fffde1ba <_end+0xfffdafda>
    2bd4:	deadbeef          	jal	t4,fffde1be <_end+0xfffdafde>
    2bd8:	deadbeef          	jal	t4,fffde1c2 <_end+0xfffdafe2>
    2bdc:	deadbeef          	jal	t4,fffde1c6 <_end+0xfffdafe6>
    2be0:	deadbeef          	jal	t4,fffde1ca <_end+0xfffdafea>
    2be4:	deadbeef          	jal	t4,fffde1ce <_end+0xfffdafee>
    2be8:	deadbeef          	jal	t4,fffde1d2 <_end+0xfffdaff2>
    2bec:	deadbeef          	jal	t4,fffde1d6 <_end+0xfffdaff6>
    2bf0:	deadbeef          	jal	t4,fffde1da <_end+0xfffdaffa>
    2bf4:	deadbeef          	jal	t4,fffde1de <_end+0xfffdaffe>
    2bf8:	deadbeef          	jal	t4,fffde1e2 <_end+0xfffdb002>
    2bfc:	deadbeef          	jal	t4,fffde1e6 <_end+0xfffdb006>
    2c00:	deadbeef          	jal	t4,fffde1ea <_end+0xfffdb00a>
    2c04:	deadbeef          	jal	t4,fffde1ee <_end+0xfffdb00e>
    2c08:	deadbeef          	jal	t4,fffde1f2 <_end+0xfffdb012>
    2c0c:	deadbeef          	jal	t4,fffde1f6 <_end+0xfffdb016>
    2c10:	deadbeef          	jal	t4,fffde1fa <_end+0xfffdb01a>
    2c14:	deadbeef          	jal	t4,fffde1fe <_end+0xfffdb01e>
    2c18:	deadbeef          	jal	t4,fffde202 <_end+0xfffdb022>
    2c1c:	deadbeef          	jal	t4,fffde206 <_end+0xfffdb026>
    2c20:	deadbeef          	jal	t4,fffde20a <_end+0xfffdb02a>
    2c24:	deadbeef          	jal	t4,fffde20e <_end+0xfffdb02e>
    2c28:	deadbeef          	jal	t4,fffde212 <_end+0xfffdb032>
    2c2c:	deadbeef          	jal	t4,fffde216 <_end+0xfffdb036>
    2c30:	deadbeef          	jal	t4,fffde21a <_end+0xfffdb03a>
    2c34:	deadbeef          	jal	t4,fffde21e <_end+0xfffdb03e>
    2c38:	deadbeef          	jal	t4,fffde222 <_end+0xfffdb042>
    2c3c:	deadbeef          	jal	t4,fffde226 <_end+0xfffdb046>
    2c40:	deadbeef          	jal	t4,fffde22a <_end+0xfffdb04a>
    2c44:	deadbeef          	jal	t4,fffde22e <_end+0xfffdb04e>
    2c48:	deadbeef          	jal	t4,fffde232 <_end+0xfffdb052>
    2c4c:	deadbeef          	jal	t4,fffde236 <_end+0xfffdb056>
    2c50:	deadbeef          	jal	t4,fffde23a <_end+0xfffdb05a>
    2c54:	deadbeef          	jal	t4,fffde23e <_end+0xfffdb05e>
    2c58:	deadbeef          	jal	t4,fffde242 <_end+0xfffdb062>
    2c5c:	deadbeef          	jal	t4,fffde246 <_end+0xfffdb066>
    2c60:	deadbeef          	jal	t4,fffde24a <_end+0xfffdb06a>
    2c64:	deadbeef          	jal	t4,fffde24e <_end+0xfffdb06e>
    2c68:	deadbeef          	jal	t4,fffde252 <_end+0xfffdb072>
    2c6c:	deadbeef          	jal	t4,fffde256 <_end+0xfffdb076>
    2c70:	deadbeef          	jal	t4,fffde25a <_end+0xfffdb07a>
    2c74:	deadbeef          	jal	t4,fffde25e <_end+0xfffdb07e>
    2c78:	deadbeef          	jal	t4,fffde262 <_end+0xfffdb082>
    2c7c:	deadbeef          	jal	t4,fffde266 <_end+0xfffdb086>
    2c80:	deadbeef          	jal	t4,fffde26a <_end+0xfffdb08a>
    2c84:	deadbeef          	jal	t4,fffde26e <_end+0xfffdb08e>
    2c88:	deadbeef          	jal	t4,fffde272 <_end+0xfffdb092>
    2c8c:	deadbeef          	jal	t4,fffde276 <_end+0xfffdb096>
    2c90:	deadbeef          	jal	t4,fffde27a <_end+0xfffdb09a>
    2c94:	deadbeef          	jal	t4,fffde27e <_end+0xfffdb09e>
    2c98:	deadbeef          	jal	t4,fffde282 <_end+0xfffdb0a2>
    2c9c:	deadbeef          	jal	t4,fffde286 <_end+0xfffdb0a6>
    2ca0:	deadbeef          	jal	t4,fffde28a <_end+0xfffdb0aa>
    2ca4:	deadbeef          	jal	t4,fffde28e <_end+0xfffdb0ae>
    2ca8:	deadbeef          	jal	t4,fffde292 <_end+0xfffdb0b2>
    2cac:	deadbeef          	jal	t4,fffde296 <_end+0xfffdb0b6>
    2cb0:	deadbeef          	jal	t4,fffde29a <_end+0xfffdb0ba>
    2cb4:	deadbeef          	jal	t4,fffde29e <_end+0xfffdb0be>
    2cb8:	deadbeef          	jal	t4,fffde2a2 <_end+0xfffdb0c2>
    2cbc:	deadbeef          	jal	t4,fffde2a6 <_end+0xfffdb0c6>
    2cc0:	deadbeef          	jal	t4,fffde2aa <_end+0xfffdb0ca>
    2cc4:	deadbeef          	jal	t4,fffde2ae <_end+0xfffdb0ce>
    2cc8:	deadbeef          	jal	t4,fffde2b2 <_end+0xfffdb0d2>
    2ccc:	deadbeef          	jal	t4,fffde2b6 <_end+0xfffdb0d6>
    2cd0:	deadbeef          	jal	t4,fffde2ba <_end+0xfffdb0da>
    2cd4:	deadbeef          	jal	t4,fffde2be <_end+0xfffdb0de>
    2cd8:	deadbeef          	jal	t4,fffde2c2 <_end+0xfffdb0e2>
    2cdc:	deadbeef          	jal	t4,fffde2c6 <_end+0xfffdb0e6>
    2ce0:	deadbeef          	jal	t4,fffde2ca <_end+0xfffdb0ea>
    2ce4:	deadbeef          	jal	t4,fffde2ce <_end+0xfffdb0ee>
    2ce8:	deadbeef          	jal	t4,fffde2d2 <_end+0xfffdb0f2>
    2cec:	deadbeef          	jal	t4,fffde2d6 <_end+0xfffdb0f6>
    2cf0:	deadbeef          	jal	t4,fffde2da <_end+0xfffdb0fa>
    2cf4:	deadbeef          	jal	t4,fffde2de <_end+0xfffdb0fe>
    2cf8:	deadbeef          	jal	t4,fffde2e2 <_end+0xfffdb102>
    2cfc:	deadbeef          	jal	t4,fffde2e6 <_end+0xfffdb106>
    2d00:	deadbeef          	jal	t4,fffde2ea <_end+0xfffdb10a>
    2d04:	deadbeef          	jal	t4,fffde2ee <_end+0xfffdb10e>
    2d08:	deadbeef          	jal	t4,fffde2f2 <_end+0xfffdb112>
    2d0c:	deadbeef          	jal	t4,fffde2f6 <_end+0xfffdb116>
    2d10:	deadbeef          	jal	t4,fffde2fa <_end+0xfffdb11a>
    2d14:	deadbeef          	jal	t4,fffde2fe <_end+0xfffdb11e>
    2d18:	deadbeef          	jal	t4,fffde302 <_end+0xfffdb122>
    2d1c:	deadbeef          	jal	t4,fffde306 <_end+0xfffdb126>
    2d20:	deadbeef          	jal	t4,fffde30a <_end+0xfffdb12a>
    2d24:	deadbeef          	jal	t4,fffde30e <_end+0xfffdb12e>
    2d28:	deadbeef          	jal	t4,fffde312 <_end+0xfffdb132>
    2d2c:	deadbeef          	jal	t4,fffde316 <_end+0xfffdb136>
    2d30:	deadbeef          	jal	t4,fffde31a <_end+0xfffdb13a>
    2d34:	deadbeef          	jal	t4,fffde31e <_end+0xfffdb13e>
    2d38:	deadbeef          	jal	t4,fffde322 <_end+0xfffdb142>
    2d3c:	deadbeef          	jal	t4,fffde326 <_end+0xfffdb146>
    2d40:	deadbeef          	jal	t4,fffde32a <_end+0xfffdb14a>
    2d44:	deadbeef          	jal	t4,fffde32e <_end+0xfffdb14e>
    2d48:	deadbeef          	jal	t4,fffde332 <_end+0xfffdb152>
    2d4c:	deadbeef          	jal	t4,fffde336 <_end+0xfffdb156>
    2d50:	deadbeef          	jal	t4,fffde33a <_end+0xfffdb15a>
    2d54:	deadbeef          	jal	t4,fffde33e <_end+0xfffdb15e>
    2d58:	deadbeef          	jal	t4,fffde342 <_end+0xfffdb162>
    2d5c:	deadbeef          	jal	t4,fffde346 <_end+0xfffdb166>
    2d60:	deadbeef          	jal	t4,fffde34a <_end+0xfffdb16a>
    2d64:	deadbeef          	jal	t4,fffde34e <_end+0xfffdb16e>
    2d68:	deadbeef          	jal	t4,fffde352 <_end+0xfffdb172>
    2d6c:	deadbeef          	jal	t4,fffde356 <_end+0xfffdb176>
    2d70:	deadbeef          	jal	t4,fffde35a <_end+0xfffdb17a>
    2d74:	deadbeef          	jal	t4,fffde35e <_end+0xfffdb17e>
    2d78:	deadbeef          	jal	t4,fffde362 <_end+0xfffdb182>
    2d7c:	deadbeef          	jal	t4,fffde366 <_end+0xfffdb186>
    2d80:	deadbeef          	jal	t4,fffde36a <_end+0xfffdb18a>
    2d84:	deadbeef          	jal	t4,fffde36e <_end+0xfffdb18e>
    2d88:	deadbeef          	jal	t4,fffde372 <_end+0xfffdb192>
    2d8c:	deadbeef          	jal	t4,fffde376 <_end+0xfffdb196>
    2d90:	deadbeef          	jal	t4,fffde37a <_end+0xfffdb19a>
    2d94:	deadbeef          	jal	t4,fffde37e <_end+0xfffdb19e>
    2d98:	deadbeef          	jal	t4,fffde382 <_end+0xfffdb1a2>
    2d9c:	deadbeef          	jal	t4,fffde386 <_end+0xfffdb1a6>
    2da0:	deadbeef          	jal	t4,fffde38a <_end+0xfffdb1aa>
    2da4:	deadbeef          	jal	t4,fffde38e <_end+0xfffdb1ae>
    2da8:	deadbeef          	jal	t4,fffde392 <_end+0xfffdb1b2>
    2dac:	deadbeef          	jal	t4,fffde396 <_end+0xfffdb1b6>
    2db0:	deadbeef          	jal	t4,fffde39a <_end+0xfffdb1ba>
    2db4:	deadbeef          	jal	t4,fffde39e <_end+0xfffdb1be>
    2db8:	deadbeef          	jal	t4,fffde3a2 <_end+0xfffdb1c2>
    2dbc:	deadbeef          	jal	t4,fffde3a6 <_end+0xfffdb1c6>
    2dc0:	deadbeef          	jal	t4,fffde3aa <_end+0xfffdb1ca>
    2dc4:	deadbeef          	jal	t4,fffde3ae <_end+0xfffdb1ce>
    2dc8:	deadbeef          	jal	t4,fffde3b2 <_end+0xfffdb1d2>
    2dcc:	deadbeef          	jal	t4,fffde3b6 <_end+0xfffdb1d6>
    2dd0:	deadbeef          	jal	t4,fffde3ba <_end+0xfffdb1da>
    2dd4:	deadbeef          	jal	t4,fffde3be <_end+0xfffdb1de>
    2dd8:	deadbeef          	jal	t4,fffde3c2 <_end+0xfffdb1e2>
    2ddc:	deadbeef          	jal	t4,fffde3c6 <_end+0xfffdb1e6>
    2de0:	deadbeef          	jal	t4,fffde3ca <_end+0xfffdb1ea>
    2de4:	deadbeef          	jal	t4,fffde3ce <_end+0xfffdb1ee>
    2de8:	deadbeef          	jal	t4,fffde3d2 <_end+0xfffdb1f2>
    2dec:	deadbeef          	jal	t4,fffde3d6 <_end+0xfffdb1f6>
    2df0:	deadbeef          	jal	t4,fffde3da <_end+0xfffdb1fa>
    2df4:	deadbeef          	jal	t4,fffde3de <_end+0xfffdb1fe>
    2df8:	deadbeef          	jal	t4,fffde3e2 <_end+0xfffdb202>
    2dfc:	deadbeef          	jal	t4,fffde3e6 <_end+0xfffdb206>
    2e00:	deadbeef          	jal	t4,fffde3ea <_end+0xfffdb20a>
    2e04:	deadbeef          	jal	t4,fffde3ee <_end+0xfffdb20e>
    2e08:	deadbeef          	jal	t4,fffde3f2 <_end+0xfffdb212>
    2e0c:	deadbeef          	jal	t4,fffde3f6 <_end+0xfffdb216>
    2e10:	deadbeef          	jal	t4,fffde3fa <_end+0xfffdb21a>
    2e14:	deadbeef          	jal	t4,fffde3fe <_end+0xfffdb21e>
    2e18:	deadbeef          	jal	t4,fffde402 <_end+0xfffdb222>
    2e1c:	deadbeef          	jal	t4,fffde406 <_end+0xfffdb226>
    2e20:	deadbeef          	jal	t4,fffde40a <_end+0xfffdb22a>
    2e24:	deadbeef          	jal	t4,fffde40e <_end+0xfffdb22e>
    2e28:	deadbeef          	jal	t4,fffde412 <_end+0xfffdb232>
    2e2c:	deadbeef          	jal	t4,fffde416 <_end+0xfffdb236>
    2e30:	deadbeef          	jal	t4,fffde41a <_end+0xfffdb23a>
    2e34:	deadbeef          	jal	t4,fffde41e <_end+0xfffdb23e>
    2e38:	deadbeef          	jal	t4,fffde422 <_end+0xfffdb242>
    2e3c:	deadbeef          	jal	t4,fffde426 <_end+0xfffdb246>
    2e40:	deadbeef          	jal	t4,fffde42a <_end+0xfffdb24a>
    2e44:	deadbeef          	jal	t4,fffde42e <_end+0xfffdb24e>
    2e48:	deadbeef          	jal	t4,fffde432 <_end+0xfffdb252>
    2e4c:	deadbeef          	jal	t4,fffde436 <_end+0xfffdb256>
    2e50:	deadbeef          	jal	t4,fffde43a <_end+0xfffdb25a>
    2e54:	deadbeef          	jal	t4,fffde43e <_end+0xfffdb25e>
    2e58:	deadbeef          	jal	t4,fffde442 <_end+0xfffdb262>
    2e5c:	deadbeef          	jal	t4,fffde446 <_end+0xfffdb266>
    2e60:	deadbeef          	jal	t4,fffde44a <_end+0xfffdb26a>
    2e64:	deadbeef          	jal	t4,fffde44e <_end+0xfffdb26e>
    2e68:	deadbeef          	jal	t4,fffde452 <_end+0xfffdb272>
    2e6c:	deadbeef          	jal	t4,fffde456 <_end+0xfffdb276>
    2e70:	deadbeef          	jal	t4,fffde45a <_end+0xfffdb27a>
    2e74:	deadbeef          	jal	t4,fffde45e <_end+0xfffdb27e>
    2e78:	deadbeef          	jal	t4,fffde462 <_end+0xfffdb282>
    2e7c:	deadbeef          	jal	t4,fffde466 <_end+0xfffdb286>
    2e80:	deadbeef          	jal	t4,fffde46a <_end+0xfffdb28a>
    2e84:	deadbeef          	jal	t4,fffde46e <_end+0xfffdb28e>
    2e88:	deadbeef          	jal	t4,fffde472 <_end+0xfffdb292>
    2e8c:	deadbeef          	jal	t4,fffde476 <_end+0xfffdb296>
    2e90:	deadbeef          	jal	t4,fffde47a <_end+0xfffdb29a>
    2e94:	deadbeef          	jal	t4,fffde47e <_end+0xfffdb29e>
    2e98:	deadbeef          	jal	t4,fffde482 <_end+0xfffdb2a2>
    2e9c:	deadbeef          	jal	t4,fffde486 <_end+0xfffdb2a6>
    2ea0:	deadbeef          	jal	t4,fffde48a <_end+0xfffdb2aa>
    2ea4:	deadbeef          	jal	t4,fffde48e <_end+0xfffdb2ae>
    2ea8:	deadbeef          	jal	t4,fffde492 <_end+0xfffdb2b2>
    2eac:	deadbeef          	jal	t4,fffde496 <_end+0xfffdb2b6>
    2eb0:	deadbeef          	jal	t4,fffde49a <_end+0xfffdb2ba>
    2eb4:	deadbeef          	jal	t4,fffde49e <_end+0xfffdb2be>
    2eb8:	deadbeef          	jal	t4,fffde4a2 <_end+0xfffdb2c2>
    2ebc:	deadbeef          	jal	t4,fffde4a6 <_end+0xfffdb2c6>
    2ec0:	deadbeef          	jal	t4,fffde4aa <_end+0xfffdb2ca>
    2ec4:	deadbeef          	jal	t4,fffde4ae <_end+0xfffdb2ce>
    2ec8:	deadbeef          	jal	t4,fffde4b2 <_end+0xfffdb2d2>
    2ecc:	deadbeef          	jal	t4,fffde4b6 <_end+0xfffdb2d6>
    2ed0:	deadbeef          	jal	t4,fffde4ba <_end+0xfffdb2da>
    2ed4:	deadbeef          	jal	t4,fffde4be <_end+0xfffdb2de>
    2ed8:	deadbeef          	jal	t4,fffde4c2 <_end+0xfffdb2e2>
    2edc:	deadbeef          	jal	t4,fffde4c6 <_end+0xfffdb2e6>
    2ee0:	deadbeef          	jal	t4,fffde4ca <_end+0xfffdb2ea>
    2ee4:	deadbeef          	jal	t4,fffde4ce <_end+0xfffdb2ee>
    2ee8:	deadbeef          	jal	t4,fffde4d2 <_end+0xfffdb2f2>
    2eec:	deadbeef          	jal	t4,fffde4d6 <_end+0xfffdb2f6>
    2ef0:	deadbeef          	jal	t4,fffde4da <_end+0xfffdb2fa>
    2ef4:	deadbeef          	jal	t4,fffde4de <_end+0xfffdb2fe>
    2ef8:	deadbeef          	jal	t4,fffde4e2 <_end+0xfffdb302>
    2efc:	deadbeef          	jal	t4,fffde4e6 <_end+0xfffdb306>
    2f00:	deadbeef          	jal	t4,fffde4ea <_end+0xfffdb30a>
    2f04:	deadbeef          	jal	t4,fffde4ee <_end+0xfffdb30e>
    2f08:	deadbeef          	jal	t4,fffde4f2 <_end+0xfffdb312>
    2f0c:	deadbeef          	jal	t4,fffde4f6 <_end+0xfffdb316>
    2f10:	deadbeef          	jal	t4,fffde4fa <_end+0xfffdb31a>
    2f14:	deadbeef          	jal	t4,fffde4fe <_end+0xfffdb31e>
    2f18:	deadbeef          	jal	t4,fffde502 <_end+0xfffdb322>
    2f1c:	deadbeef          	jal	t4,fffde506 <_end+0xfffdb326>
    2f20:	deadbeef          	jal	t4,fffde50a <_end+0xfffdb32a>
    2f24:	deadbeef          	jal	t4,fffde50e <_end+0xfffdb32e>
    2f28:	deadbeef          	jal	t4,fffde512 <_end+0xfffdb332>
    2f2c:	deadbeef          	jal	t4,fffde516 <_end+0xfffdb336>
    2f30:	deadbeef          	jal	t4,fffde51a <_end+0xfffdb33a>
    2f34:	deadbeef          	jal	t4,fffde51e <_end+0xfffdb33e>
    2f38:	deadbeef          	jal	t4,fffde522 <_end+0xfffdb342>
    2f3c:	deadbeef          	jal	t4,fffde526 <_end+0xfffdb346>
    2f40:	deadbeef          	jal	t4,fffde52a <_end+0xfffdb34a>
    2f44:	deadbeef          	jal	t4,fffde52e <_end+0xfffdb34e>
    2f48:	deadbeef          	jal	t4,fffde532 <_end+0xfffdb352>
    2f4c:	deadbeef          	jal	t4,fffde536 <_end+0xfffdb356>
    2f50:	deadbeef          	jal	t4,fffde53a <_end+0xfffdb35a>
    2f54:	deadbeef          	jal	t4,fffde53e <_end+0xfffdb35e>
    2f58:	deadbeef          	jal	t4,fffde542 <_end+0xfffdb362>
    2f5c:	deadbeef          	jal	t4,fffde546 <_end+0xfffdb366>
    2f60:	deadbeef          	jal	t4,fffde54a <_end+0xfffdb36a>
    2f64:	deadbeef          	jal	t4,fffde54e <_end+0xfffdb36e>
    2f68:	deadbeef          	jal	t4,fffde552 <_end+0xfffdb372>
    2f6c:	deadbeef          	jal	t4,fffde556 <_end+0xfffdb376>
    2f70:	deadbeef          	jal	t4,fffde55a <_end+0xfffdb37a>
    2f74:	deadbeef          	jal	t4,fffde55e <_end+0xfffdb37e>
    2f78:	deadbeef          	jal	t4,fffde562 <_end+0xfffdb382>
    2f7c:	deadbeef          	jal	t4,fffde566 <_end+0xfffdb386>
    2f80:	deadbeef          	jal	t4,fffde56a <_end+0xfffdb38a>
    2f84:	deadbeef          	jal	t4,fffde56e <_end+0xfffdb38e>
    2f88:	deadbeef          	jal	t4,fffde572 <_end+0xfffdb392>
    2f8c:	deadbeef          	jal	t4,fffde576 <_end+0xfffdb396>
    2f90:	deadbeef          	jal	t4,fffde57a <_end+0xfffdb39a>
    2f94:	deadbeef          	jal	t4,fffde57e <_end+0xfffdb39e>
    2f98:	deadbeef          	jal	t4,fffde582 <_end+0xfffdb3a2>
    2f9c:	deadbeef          	jal	t4,fffde586 <_end+0xfffdb3a6>
    2fa0:	deadbeef          	jal	t4,fffde58a <_end+0xfffdb3aa>
    2fa4:	deadbeef          	jal	t4,fffde58e <_end+0xfffdb3ae>
    2fa8:	deadbeef          	jal	t4,fffde592 <_end+0xfffdb3b2>
    2fac:	deadbeef          	jal	t4,fffde596 <_end+0xfffdb3b6>
    2fb0:	deadbeef          	jal	t4,fffde59a <_end+0xfffdb3ba>
    2fb4:	deadbeef          	jal	t4,fffde59e <_end+0xfffdb3be>
    2fb8:	deadbeef          	jal	t4,fffde5a2 <_end+0xfffdb3c2>
    2fbc:	deadbeef          	jal	t4,fffde5a6 <_end+0xfffdb3c6>
    2fc0:	deadbeef          	jal	t4,fffde5aa <_end+0xfffdb3ca>
    2fc4:	deadbeef          	jal	t4,fffde5ae <_end+0xfffdb3ce>
    2fc8:	deadbeef          	jal	t4,fffde5b2 <_end+0xfffdb3d2>
    2fcc:	deadbeef          	jal	t4,fffde5b6 <_end+0xfffdb3d6>
    2fd0:	deadbeef          	jal	t4,fffde5ba <_end+0xfffdb3da>
    2fd4:	deadbeef          	jal	t4,fffde5be <_end+0xfffdb3de>
    2fd8:	deadbeef          	jal	t4,fffde5c2 <_end+0xfffdb3e2>
    2fdc:	deadbeef          	jal	t4,fffde5c6 <_end+0xfffdb3e6>
    2fe0:	deadbeef          	jal	t4,fffde5ca <_end+0xfffdb3ea>
    2fe4:	deadbeef          	jal	t4,fffde5ce <_end+0xfffdb3ee>
    2fe8:	deadbeef          	jal	t4,fffde5d2 <_end+0xfffdb3f2>
    2fec:	deadbeef          	jal	t4,fffde5d6 <_end+0xfffdb3f6>
    2ff0:	deadbeef          	jal	t4,fffde5da <_end+0xfffdb3fa>
    2ff4:	deadbeef          	jal	t4,fffde5de <_end+0xfffdb3fe>
    2ff8:	deadbeef          	jal	t4,fffde5e2 <_end+0xfffdb402>
    2ffc:	deadbeef          	jal	t4,fffde5e6 <_end+0xfffdb406>
    3000:	deadbeef          	jal	t4,fffde5ea <_end+0xfffdb40a>
    3004:	deadbeef          	jal	t4,fffde5ee <_end+0xfffdb40e>
    3008:	deadbeef          	jal	t4,fffde5f2 <_end+0xfffdb412>
    300c:	deadbeef          	jal	t4,fffde5f6 <_end+0xfffdb416>
    3010:	deadbeef          	jal	t4,fffde5fa <_end+0xfffdb41a>
    3014:	deadbeef          	jal	t4,fffde5fe <_end+0xfffdb41e>
    3018:	deadbeef          	jal	t4,fffde602 <_end+0xfffdb422>
    301c:	deadbeef          	jal	t4,fffde606 <_end+0xfffdb426>
    3020:	deadbeef          	jal	t4,fffde60a <_end+0xfffdb42a>
    3024:	deadbeef          	jal	t4,fffde60e <_end+0xfffdb42e>
    3028:	deadbeef          	jal	t4,fffde612 <_end+0xfffdb432>
    302c:	deadbeef          	jal	t4,fffde616 <_end+0xfffdb436>
    3030:	deadbeef          	jal	t4,fffde61a <_end+0xfffdb43a>
    3034:	deadbeef          	jal	t4,fffde61e <_end+0xfffdb43e>
    3038:	deadbeef          	jal	t4,fffde622 <_end+0xfffdb442>
    303c:	deadbeef          	jal	t4,fffde626 <_end+0xfffdb446>
    3040:	deadbeef          	jal	t4,fffde62a <_end+0xfffdb44a>
    3044:	deadbeef          	jal	t4,fffde62e <_end+0xfffdb44e>
    3048:	deadbeef          	jal	t4,fffde632 <_end+0xfffdb452>
    304c:	deadbeef          	jal	t4,fffde636 <_end+0xfffdb456>
    3050:	deadbeef          	jal	t4,fffde63a <_end+0xfffdb45a>
    3054:	deadbeef          	jal	t4,fffde63e <_end+0xfffdb45e>
    3058:	deadbeef          	jal	t4,fffde642 <_end+0xfffdb462>
    305c:	deadbeef          	jal	t4,fffde646 <_end+0xfffdb466>
    3060:	deadbeef          	jal	t4,fffde64a <_end+0xfffdb46a>
    3064:	deadbeef          	jal	t4,fffde64e <_end+0xfffdb46e>
    3068:	deadbeef          	jal	t4,fffde652 <_end+0xfffdb472>
    306c:	deadbeef          	jal	t4,fffde656 <_end+0xfffdb476>
    3070:	deadbeef          	jal	t4,fffde65a <_end+0xfffdb47a>
    3074:	deadbeef          	jal	t4,fffde65e <_end+0xfffdb47e>
    3078:	deadbeef          	jal	t4,fffde662 <_end+0xfffdb482>
    307c:	deadbeef          	jal	t4,fffde666 <_end+0xfffdb486>
    3080:	deadbeef          	jal	t4,fffde66a <_end+0xfffdb48a>
    3084:	deadbeef          	jal	t4,fffde66e <_end+0xfffdb48e>
    3088:	deadbeef          	jal	t4,fffde672 <_end+0xfffdb492>
    308c:	deadbeef          	jal	t4,fffde676 <_end+0xfffdb496>
    3090:	deadbeef          	jal	t4,fffde67a <_end+0xfffdb49a>
    3094:	deadbeef          	jal	t4,fffde67e <_end+0xfffdb49e>
    3098:	deadbeef          	jal	t4,fffde682 <_end+0xfffdb4a2>
    309c:	deadbeef          	jal	t4,fffde686 <_end+0xfffdb4a6>
    30a0:	deadbeef          	jal	t4,fffde68a <_end+0xfffdb4aa>
    30a4:	deadbeef          	jal	t4,fffde68e <_end+0xfffdb4ae>
    30a8:	deadbeef          	jal	t4,fffde692 <_end+0xfffdb4b2>
    30ac:	deadbeef          	jal	t4,fffde696 <_end+0xfffdb4b6>
    30b0:	deadbeef          	jal	t4,fffde69a <_end+0xfffdb4ba>
    30b4:	deadbeef          	jal	t4,fffde69e <_end+0xfffdb4be>
    30b8:	deadbeef          	jal	t4,fffde6a2 <_end+0xfffdb4c2>
    30bc:	deadbeef          	jal	t4,fffde6a6 <_end+0xfffdb4c6>
    30c0:	deadbeef          	jal	t4,fffde6aa <_end+0xfffdb4ca>
    30c4:	deadbeef          	jal	t4,fffde6ae <_end+0xfffdb4ce>
    30c8:	deadbeef          	jal	t4,fffde6b2 <_end+0xfffdb4d2>
    30cc:	deadbeef          	jal	t4,fffde6b6 <_end+0xfffdb4d6>
    30d0:	deadbeef          	jal	t4,fffde6ba <_end+0xfffdb4da>
    30d4:	deadbeef          	jal	t4,fffde6be <_end+0xfffdb4de>
    30d8:	deadbeef          	jal	t4,fffde6c2 <_end+0xfffdb4e2>
    30dc:	deadbeef          	jal	t4,fffde6c6 <_end+0xfffdb4e6>
    30e0:	deadbeef          	jal	t4,fffde6ca <_end+0xfffdb4ea>
    30e4:	deadbeef          	jal	t4,fffde6ce <_end+0xfffdb4ee>
    30e8:	deadbeef          	jal	t4,fffde6d2 <_end+0xfffdb4f2>
    30ec:	deadbeef          	jal	t4,fffde6d6 <_end+0xfffdb4f6>
    30f0:	deadbeef          	jal	t4,fffde6da <_end+0xfffdb4fa>
    30f4:	deadbeef          	jal	t4,fffde6de <_end+0xfffdb4fe>
    30f8:	deadbeef          	jal	t4,fffde6e2 <_end+0xfffdb502>
    30fc:	deadbeef          	jal	t4,fffde6e6 <_end+0xfffdb506>
    3100:	deadbeef          	jal	t4,fffde6ea <_end+0xfffdb50a>
    3104:	deadbeef          	jal	t4,fffde6ee <_end+0xfffdb50e>
    3108:	deadbeef          	jal	t4,fffde6f2 <_end+0xfffdb512>
    310c:	deadbeef          	jal	t4,fffde6f6 <_end+0xfffdb516>
    3110:	deadbeef          	jal	t4,fffde6fa <_end+0xfffdb51a>
    3114:	deadbeef          	jal	t4,fffde6fe <_end+0xfffdb51e>
    3118:	deadbeef          	jal	t4,fffde702 <_end+0xfffdb522>
    311c:	deadbeef          	jal	t4,fffde706 <_end+0xfffdb526>
    3120:	deadbeef          	jal	t4,fffde70a <_end+0xfffdb52a>
    3124:	deadbeef          	jal	t4,fffde70e <_end+0xfffdb52e>
    3128:	deadbeef          	jal	t4,fffde712 <_end+0xfffdb532>
    312c:	deadbeef          	jal	t4,fffde716 <_end+0xfffdb536>
    3130:	deadbeef          	jal	t4,fffde71a <_end+0xfffdb53a>
    3134:	deadbeef          	jal	t4,fffde71e <_end+0xfffdb53e>
    3138:	deadbeef          	jal	t4,fffde722 <_end+0xfffdb542>
    313c:	deadbeef          	jal	t4,fffde726 <_end+0xfffdb546>
    3140:	deadbeef          	jal	t4,fffde72a <_end+0xfffdb54a>
    3144:	deadbeef          	jal	t4,fffde72e <_end+0xfffdb54e>
    3148:	deadbeef          	jal	t4,fffde732 <_end+0xfffdb552>
    314c:	deadbeef          	jal	t4,fffde736 <_end+0xfffdb556>
    3150:	deadbeef          	jal	t4,fffde73a <_end+0xfffdb55a>
    3154:	deadbeef          	jal	t4,fffde73e <_end+0xfffdb55e>
    3158:	deadbeef          	jal	t4,fffde742 <_end+0xfffdb562>
    315c:	deadbeef          	jal	t4,fffde746 <_end+0xfffdb566>
    3160:	deadbeef          	jal	t4,fffde74a <_end+0xfffdb56a>
    3164:	deadbeef          	jal	t4,fffde74e <_end+0xfffdb56e>
    3168:	deadbeef          	jal	t4,fffde752 <_end+0xfffdb572>
    316c:	deadbeef          	jal	t4,fffde756 <_end+0xfffdb576>
    3170:	deadbeef          	jal	t4,fffde75a <_end+0xfffdb57a>
    3174:	deadbeef          	jal	t4,fffde75e <_end+0xfffdb57e>
    3178:	deadbeef          	jal	t4,fffde762 <_end+0xfffdb582>
    317c:	deadbeef          	jal	t4,fffde766 <_end+0xfffdb586>
    3180:	deadbeef          	jal	t4,fffde76a <_end+0xfffdb58a>
    3184:	deadbeef          	jal	t4,fffde76e <_end+0xfffdb58e>
    3188:	deadbeef          	jal	t4,fffde772 <_end+0xfffdb592>
    318c:	deadbeef          	jal	t4,fffde776 <_end+0xfffdb596>
    3190:	deadbeef          	jal	t4,fffde77a <_end+0xfffdb59a>
    3194:	deadbeef          	jal	t4,fffde77e <_end+0xfffdb59e>
    3198:	deadbeef          	jal	t4,fffde782 <_end+0xfffdb5a2>
    319c:	deadbeef          	jal	t4,fffde786 <_end+0xfffdb5a6>
    31a0:	deadbeef          	jal	t4,fffde78a <_end+0xfffdb5aa>
    31a4:	deadbeef          	jal	t4,fffde78e <_end+0xfffdb5ae>
    31a8:	deadbeef          	jal	t4,fffde792 <_end+0xfffdb5b2>
    31ac:	deadbeef          	jal	t4,fffde796 <_end+0xfffdb5b6>
    31b0:	deadbeef          	jal	t4,fffde79a <_end+0xfffdb5ba>
    31b4:	deadbeef          	jal	t4,fffde79e <_end+0xfffdb5be>
    31b8:	deadbeef          	jal	t4,fffde7a2 <_end+0xfffdb5c2>
    31bc:	deadbeef          	jal	t4,fffde7a6 <_end+0xfffdb5c6>
    31c0:	deadbeef          	jal	t4,fffde7aa <_end+0xfffdb5ca>
    31c4:	deadbeef          	jal	t4,fffde7ae <_end+0xfffdb5ce>
    31c8:	deadbeef          	jal	t4,fffde7b2 <_end+0xfffdb5d2>
    31cc:	deadbeef          	jal	t4,fffde7b6 <_end+0xfffdb5d6>
    31d0:	deadbeef          	jal	t4,fffde7ba <_end+0xfffdb5da>
    31d4:	deadbeef          	jal	t4,fffde7be <_end+0xfffdb5de>
    31d8:	deadbeef          	jal	t4,fffde7c2 <_end+0xfffdb5e2>
    31dc:	deadbeef          	jal	t4,fffde7c6 <_end+0xfffdb5e6>

Desensamblado de la sección .riscv.attributes:

00000000 <.riscv.attributes>:
   0:	2241                	.2byte	0x2241
   2:	0000                	.2byte	0x0
   4:	7200                	.2byte	0x7200
   6:	7369                	.2byte	0x7369
   8:	01007663          	bgeu	zero,a6,14 <rvtest_entry_point+0x14>
   c:	0018                	.2byte	0x18
   e:	0000                	.2byte	0x0
  10:	7205                	.2byte	0x7205
  12:	3376                	.2byte	0x3376
  14:	6932                	.2byte	0x6932
  16:	7032                	.2byte	0x7032
  18:	5f30                	.2byte	0x5f30
  1a:	3266                	.2byte	0x3266
  1c:	3070                	.2byte	0x3070
  1e:	0800                	.2byte	0x800
  20:	0a01                	.2byte	0xa01
  22:	0b              	Address 0x22 is out of bounds.

