
/home/alejandro/Escritorio/test_riscv2.5/riscv-compliance/work/rv32i_m/F/fnmadd_b7-01.elf:     formato del fichero elf32-littleriscv


Desensamblado de la sección .text.init:

00000000 <rvtest_entry_point>:
       0:	feedc0b7          	lui	ra,0xfeedc
       4:	ead08093          	add	ra,ra,-339 # feedbead <_end+0xfeed916d>
       8:	ff76e137          	lui	sp,0xff76e
       c:	f5610113          	add	sp,sp,-170 # ff76df56 <_end+0xff76b216>
      10:	7fbb71b7          	lui	gp,0x7fbb7
      14:	fab18193          	add	gp,gp,-85 # 7fbb6fab <_end+0x7fbb426b>
      18:	bfddb237          	lui	tp,0xbfddb
      1c:	7d520213          	add	tp,tp,2005 # bfddb7d5 <_end+0xbfdd8a95>
      20:	00000297          	auipc	t0,0x0
      24:	0d828293          	add	t0,t0,216 # f8 <rvtest_code_begin>
      28:	00002317          	auipc	t1,0x2
      2c:	fd830313          	add	t1,t1,-40 # 2000 <rvtest_data_begin>
      30:	b7fbb3b7          	lui	t2,0xb7fbb
      34:	6fa38393          	add	t2,t2,1786 # b7fbb6fa <_end+0xb7fb89ba>
      38:	5bfde437          	lui	s0,0x5bfde
      3c:	b7d40413          	add	s0,s0,-1155 # 5bfddb7d <_end+0x5bfdae3d>
      40:	adfef4b7          	lui	s1,0xadfef
      44:	dbe48493          	add	s1,s1,-578 # adfeedbe <_end+0xadfec07e>
      48:	56ff7537          	lui	a0,0x56ff7
      4c:	6df50513          	add	a0,a0,1759 # 56ff76df <_end+0x56ff499f>
      50:	ab7fc5b7          	lui	a1,0xab7fc
      54:	b6f58593          	add	a1,a1,-1169 # ab7fbb6f <_end+0xab7f8e2f>
      58:	d5bfe637          	lui	a2,0xd5bfe
      5c:	db760613          	add	a2,a2,-585 # d5bfddb7 <_end+0xd5bfb077>
      60:	eadff6b7          	lui	a3,0xeadff
      64:	edb68693          	add	a3,a3,-293 # eadfeedb <_end+0xeadfc19b>
      68:	f56ff737          	lui	a4,0xf56ff
      6c:	76d70713          	add	a4,a4,1901 # f56ff76d <_end+0xf56fca2d>
      70:	fab807b7          	lui	a5,0xfab80
      74:	bb678793          	add	a5,a5,-1098 # fab7fbb6 <_end+0xfab7ce76>
      78:	7d5c0837          	lui	a6,0x7d5c0
      7c:	ddb80813          	add	a6,a6,-549 # 7d5bfddb <_end+0x7d5bd09b>
      80:	beae08b7          	lui	a7,0xbeae0
      84:	eed88893          	add	a7,a7,-275 # beadfeed <_end+0xbeadd1ad>
      88:	df570937          	lui	s2,0xdf570
      8c:	f7690913          	add	s2,s2,-138 # df56ff76 <_end+0xdf56d236>
      90:	6fab89b7          	lui	s3,0x6fab8
      94:	fbb98993          	add	s3,s3,-69 # 6fab7fbb <_end+0x6fab527b>
      98:	b7d5ca37          	lui	s4,0xb7d5c
      9c:	fdda0a13          	add	s4,s4,-35 # b7d5bfdd <_end+0xb7d5929d>
      a0:	dbeaeab7          	lui	s5,0xdbeae
      a4:	feea8a93          	add	s5,s5,-18 # dbeadfee <_end+0xdbeab2ae>
      a8:	6df57b37          	lui	s6,0x6df57
      ac:	ff7b0b13          	add	s6,s6,-9 # 6df56ff7 <_end+0x6df542b7>
      b0:	b6fabbb7          	lui	s7,0xb6fab
      b4:	7fbb8b93          	add	s7,s7,2043 # b6fab7fb <_end+0xb6fa8abb>
      b8:	db7d6c37          	lui	s8,0xdb7d6
      bc:	bfdc0c13          	add	s8,s8,-1027 # db7d5bfd <_end+0xdb7d2ebd>
      c0:	edbebcb7          	lui	s9,0xedbeb
      c4:	dfec8c93          	add	s9,s9,-514 # edbeadfe <_end+0xedbe80be>
      c8:	76df5d37          	lui	s10,0x76df5
      cc:	6ffd0d13          	add	s10,s10,1791 # 76df56ff <_end+0x76df29bf>
      d0:	bb6fbdb7          	lui	s11,0xbb6fb
      d4:	b7fd8d93          	add	s11,s11,-1153 # bb6fab7f <_end+0xbb6f7e3f>
      d8:	ddb7de37          	lui	t3,0xddb7d
      dc:	5bfe0e13          	add	t3,t3,1471 # ddb7d5bf <_end+0xddb7a87f>
      e0:	eedbfeb7          	lui	t4,0xeedbf
      e4:	adfe8e93          	add	t4,t4,-1313 # eedbeadf <_end+0xeedbbd9f>
      e8:	f76dff37          	lui	t5,0xf76df
      ec:	56ff0f13          	add	t5,t5,1391 # f76df56f <_end+0xf76dc82f>
      f0:	fbb70fb7          	lui	t6,0xfbb70
      f4:	ab7f8f93          	add	t6,t6,-1353 # fbb6fab7 <_end+0xfbb6cd77>

000000f8 <rvtest_code_begin>:
      f8:	00002537          	lui	a0,0x2
      fc:	30052073          	csrs	mstatus,a0
     100:	00002817          	auipc	a6,0x2
     104:	f0480813          	add	a6,a6,-252 # 2004 <test_fp>
     108:	00002797          	auipc	a5,0x2
     10c:	6e878793          	add	a5,a5,1768 # 27f0 <data_begin>

00000110 <inst_0>:
     110:	00082387          	flw	ft7,0(a6)
     114:	00482207          	flw	ft4,4(a6)
     118:	00882c87          	flw	fs9,8(a6)
     11c:	0021d073          	fsrmi	zero,3
     120:	c843f24f          	fnmadd.s	ft4,ft7,ft4,fs9
     124:	001028f3          	frflags	a7
     128:	0047a027          	fsw	ft4,0(a5)
     12c:	0117a223          	sw	a7,4(a5)

00000130 <inst_1>:
     130:	00c82687          	flw	fa3,12(a6)
     134:	01082807          	flw	fa6,16(a6)
     138:	01482b07          	flw	fs6,20(a6)
     13c:	0021d073          	fsrmi	zero,3
     140:	b106f6cf          	fnmadd.s	fa3,fa3,fa6,fs6
     144:	001028f3          	frflags	a7
     148:	00d7a427          	fsw	fa3,8(a5)
     14c:	0117a623          	sw	a7,12(a5)

00000150 <inst_2>:
     150:	01882c87          	flw	fs9,24(a6)
     154:	01c82c87          	flw	fs9,28(a6)
     158:	02082a07          	flw	fs4,32(a6)
     15c:	0021d073          	fsrmi	zero,3
     160:	a19cfccf          	fnmadd.s	fs9,fs9,fs9,fs4
     164:	001028f3          	frflags	a7
     168:	0197a827          	fsw	fs9,16(a5)
     16c:	0117aa23          	sw	a7,20(a5)

00000170 <inst_3>:
     170:	02482887          	flw	fa7,36(a6)
     174:	02882987          	flw	fs3,40(a6)
     178:	02c82487          	flw	fs1,44(a6)
     17c:	0021d073          	fsrmi	zero,3
     180:	4938f94f          	fnmadd.s	fs2,fa7,fs3,fs1
     184:	001028f3          	frflags	a7
     188:	0127ac27          	fsw	fs2,24(a5)
     18c:	0117ae23          	sw	a7,28(a5)

00000190 <inst_4>:
     190:	03082f07          	flw	ft10,48(a6)
     194:	03482e07          	flw	ft8,52(a6)
     198:	03882e07          	flw	ft8,56(a6)
     19c:	0021d073          	fsrmi	zero,3
     1a0:	e1cf7e4f          	fnmadd.s	ft8,ft10,ft8,ft8
     1a4:	001028f3          	frflags	a7
     1a8:	03c7a027          	fsw	ft8,32(a5)
     1ac:	0317a223          	sw	a7,36(a5)

000001b0 <inst_5>:
     1b0:	03c82507          	flw	fa0,60(a6)
     1b4:	04082507          	flw	fa0,64(a6)
     1b8:	04482507          	flw	fa0,68(a6)
     1bc:	0021d073          	fsrmi	zero,3
     1c0:	50a57d4f          	fnmadd.s	fs10,fa0,fa0,fa0
     1c4:	001028f3          	frflags	a7
     1c8:	03a7a427          	fsw	fs10,40(a5)
     1cc:	0317a623          	sw	a7,44(a5)

000001d0 <inst_6>:
     1d0:	04882307          	flw	ft6,72(a6)
     1d4:	04c82307          	flw	ft6,76(a6)
     1d8:	05082307          	flw	ft6,80(a6)
     1dc:	0021d073          	fsrmi	zero,3
     1e0:	3063734f          	fnmadd.s	ft6,ft6,ft6,ft6
     1e4:	001028f3          	frflags	a7
     1e8:	0267a827          	fsw	ft6,48(a5)
     1ec:	0317aa23          	sw	a7,52(a5)

000001f0 <inst_7>:
     1f0:	05482d07          	flw	fs10,84(a6)
     1f4:	05882187          	flw	ft3,88(a6)
     1f8:	05c82d07          	flw	fs10,92(a6)
     1fc:	0021d073          	fsrmi	zero,3
     200:	d03d7dcf          	fnmadd.s	fs11,fs10,ft3,fs10
     204:	001028f3          	frflags	a7
     208:	03b7ac27          	fsw	fs11,56(a5)
     20c:	0317ae23          	sw	a7,60(a5)

00000210 <inst_8>:
     210:	06082807          	flw	fa6,96(a6)
     214:	06482787          	flw	fa5,100(a6)
     218:	06882787          	flw	fa5,104(a6)
     21c:	0021d073          	fsrmi	zero,3
     220:	78f874cf          	fnmadd.s	fs1,fa6,fa5,fa5
     224:	001028f3          	frflags	a7
     228:	0497a027          	fsw	fs1,64(a5)
     22c:	0517a223          	sw	a7,68(a5)

00000230 <inst_9>:
     230:	06c82707          	flw	fa4,108(a6)
     234:	07082007          	flw	ft0,112(a6)
     238:	07482c07          	flw	fs8,116(a6)
     23c:	0021d073          	fsrmi	zero,3
     240:	c0077c4f          	fnmadd.s	fs8,fa4,ft0,fs8
     244:	001028f3          	frflags	a7
     248:	0587a427          	fsw	fs8,72(a5)
     24c:	0517a623          	sw	a7,76(a5)

00000250 <inst_10>:
     250:	07882f87          	flw	ft11,120(a6)
     254:	07c82f87          	flw	ft11,124(a6)
     258:	08082607          	flw	fa2,128(a6)
     25c:	0021d073          	fsrmi	zero,3
     260:	61fff14f          	fnmadd.s	ft2,ft11,ft11,fa2
     264:	001028f3          	frflags	a7
     268:	0427a827          	fsw	ft2,80(a5)
     26c:	0517aa23          	sw	a7,84(a5)

00000270 <inst_11>:
     270:	08482587          	flw	fa1,132(a6)
     274:	08882487          	flw	fs1,136(a6)
     278:	08c82587          	flw	fa1,140(a6)
     27c:	0021d073          	fsrmi	zero,3
     280:	5895f5cf          	fnmadd.s	fa1,fa1,fs1,fa1
     284:	001028f3          	frflags	a7
     288:	04b7ac27          	fsw	fa1,88(a5)
     28c:	0517ae23          	sw	a7,92(a5)

00000290 <inst_12>:
     290:	09082407          	flw	fs0,144(a6)
     294:	09482887          	flw	fa7,148(a6)
     298:	09882f87          	flw	ft11,152(a6)
     29c:	0021d073          	fsrmi	zero,3
     2a0:	f91477cf          	fnmadd.s	fa5,fs0,fa7,ft11
     2a4:	001028f3          	frflags	a7
     2a8:	06f7a027          	fsw	fa5,96(a5)
     2ac:	0717a223          	sw	a7,100(a5)

000002b0 <inst_13>:
     2b0:	09c82287          	flw	ft5,156(a6)
     2b4:	0a082c07          	flw	fs8,160(a6)
     2b8:	0a482a87          	flw	fs5,164(a6)
     2bc:	0021d073          	fsrmi	zero,3
     2c0:	a982f8cf          	fnmadd.s	fa7,ft5,fs8,fs5
     2c4:	001028f3          	frflags	a7
     2c8:	0717a427          	fsw	fa7,104(a5)
     2cc:	0717a623          	sw	a7,108(a5)

000002d0 <inst_14>:
     2d0:	0a882787          	flw	fa5,168(a6)
     2d4:	0ac82687          	flw	fa3,172(a6)
     2d8:	0b082287          	flw	ft5,176(a6)
     2dc:	0021d073          	fsrmi	zero,3
     2e0:	28d7f44f          	fnmadd.s	fs0,fa5,fa3,ft5
     2e4:	001028f3          	frflags	a7
     2e8:	0687a827          	fsw	fs0,112(a5)
     2ec:	0717aa23          	sw	a7,116(a5)

000002f0 <inst_15>:
     2f0:	0b482107          	flw	ft2,180(a6)
     2f4:	0b882907          	flw	fs2,184(a6)
     2f8:	0bc82187          	flw	ft3,188(a6)
     2fc:	0021d073          	fsrmi	zero,3
     300:	192170cf          	fnmadd.s	ft1,ft2,fs2,ft3
     304:	001028f3          	frflags	a7
     308:	0617ac27          	fsw	ft1,120(a5)
     30c:	0717ae23          	sw	a7,124(a5)

00000310 <inst_16>:
     310:	0c082e07          	flw	ft8,192(a6)
     314:	0c482587          	flw	fa1,196(a6)
     318:	0c882007          	flw	ft0,200(a6)
     31c:	0021d073          	fsrmi	zero,3
     320:	00be7f4f          	fnmadd.s	ft10,ft8,fa1,ft0
     324:	001028f3          	frflags	a7
     328:	09e7a027          	fsw	ft10,128(a5)
     32c:	0917a223          	sw	a7,132(a5)

00000330 <inst_17>:
     330:	0cc82007          	flw	ft0,204(a6)
     334:	0d082607          	flw	fa2,208(a6)
     338:	0d482887          	flw	fa7,212(a6)
     33c:	0021d073          	fsrmi	zero,3
     340:	88c071cf          	fnmadd.s	ft3,ft0,fa2,fa7
     344:	001028f3          	frflags	a7
     348:	0837a427          	fsw	ft3,136(a5)
     34c:	0917a623          	sw	a7,140(a5)

00000350 <inst_18>:
     350:	0d882087          	flw	ft1,216(a6)
     354:	0dc82e87          	flw	ft9,220(a6)
     358:	0e082107          	flw	ft2,224(a6)
     35c:	0021d073          	fsrmi	zero,3
     360:	11d0f9cf          	fnmadd.s	fs3,ft1,ft9,ft2
     364:	001028f3          	frflags	a7
     368:	0937a827          	fsw	fs3,144(a5)
     36c:	0917aa23          	sw	a7,148(a5)

00000370 <inst_19>:
     370:	0e482907          	flw	fs2,228(a6)
     374:	0e882a87          	flw	fs5,232(a6)
     378:	0ec82b87          	flw	fs7,236(a6)
     37c:	0021d073          	fsrmi	zero,3
     380:	b95973cf          	fnmadd.s	ft7,fs2,fs5,fs7
     384:	001028f3          	frflags	a7
     388:	0877ac27          	fsw	ft7,152(a5)
     38c:	0917ae23          	sw	a7,156(a5)

00000390 <inst_20>:
     390:	0f082207          	flw	ft4,240(a6)
     394:	0f482d07          	flw	fs10,244(a6)
     398:	0f882707          	flw	fa4,248(a6)
     39c:	0021d073          	fsrmi	zero,3
     3a0:	71a27acf          	fnmadd.s	fs5,ft4,fs10,fa4
     3a4:	001028f3          	frflags	a7
     3a8:	0b57a027          	fsw	fs5,160(a5)
     3ac:	0b17a223          	sw	a7,164(a5)

000003b0 <inst_21>:
     3b0:	0fc82c07          	flw	fs8,252(a6)
     3b4:	10082407          	flw	fs0,256(a6)
     3b8:	10482087          	flw	ft1,260(a6)
     3bc:	0021d073          	fsrmi	zero,3
     3c0:	088c7b4f          	fnmadd.s	fs6,fs8,fs0,ft1
     3c4:	001028f3          	frflags	a7
     3c8:	0b67a427          	fsw	fs6,168(a5)
     3cc:	0b17a623          	sw	a7,172(a5)

000003d0 <inst_22>:
     3d0:	10882b87          	flw	fs7,264(a6)
     3d4:	10c82107          	flw	ft2,268(a6)
     3d8:	11082907          	flw	fs2,272(a6)
     3dc:	0021d073          	fsrmi	zero,3
     3e0:	902bffcf          	fnmadd.s	ft11,fs7,ft2,fs2
     3e4:	001028f3          	frflags	a7
     3e8:	0bf7a827          	fsw	ft11,176(a5)
     3ec:	0b17aa23          	sw	a7,180(a5)

000003f0 <inst_23>:
     3f0:	11482987          	flw	fs3,276(a6)
     3f4:	11882b07          	flw	fs6,280(a6)
     3f8:	11c82407          	flw	fs0,284(a6)
     3fc:	0021d073          	fsrmi	zero,3
     400:	4169f74f          	fnmadd.s	fa4,fs3,fs6,fs0
     404:	001028f3          	frflags	a7
     408:	0ae7ac27          	fsw	fa4,184(a5)
     40c:	0b17ae23          	sw	a7,188(a5)

00000410 <inst_24>:
     410:	12082a87          	flw	fs5,288(a6)
     414:	12482b87          	flw	fs7,292(a6)
     418:	12882f07          	flw	ft10,296(a6)
     41c:	0021d073          	fsrmi	zero,3
     420:	f17af84f          	fnmadd.s	fa6,fs5,fs7,ft10
     424:	001028f3          	frflags	a7
     428:	0d07a027          	fsw	fa6,192(a5)
     42c:	0d17a223          	sw	a7,196(a5)

00000430 <inst_25>:
     430:	12c82d87          	flw	fs11,300(a6)
     434:	13082707          	flw	fa4,304(a6)
     438:	13482387          	flw	ft7,308(a6)
     43c:	0021d073          	fsrmi	zero,3
     440:	38edf2cf          	fnmadd.s	ft5,fs11,fa4,ft7
     444:	001028f3          	frflags	a7
     448:	0c57a427          	fsw	ft5,200(a5)
     44c:	0d17a623          	sw	a7,204(a5)

00000450 <inst_26>:
     450:	13882187          	flw	ft3,312(a6)
     454:	13c82087          	flw	ft1,316(a6)
     458:	14082687          	flw	fa3,320(a6)
     45c:	0021d073          	fsrmi	zero,3
     460:	6811fbcf          	fnmadd.s	fs7,ft3,ft1,fa3
     464:	001028f3          	frflags	a7
     468:	0d77a827          	fsw	fs7,208(a5)
     46c:	0d17aa23          	sw	a7,212(a5)

00000470 <inst_27>:
     470:	14482b07          	flw	fs6,324(a6)
     474:	14882287          	flw	ft5,328(a6)
     478:	14c82e87          	flw	ft9,332(a6)
     47c:	0021d073          	fsrmi	zero,3
     480:	e85b704f          	fnmadd.s	ft0,fs6,ft5,ft9
     484:	001028f3          	frflags	a7
     488:	0c07ac27          	fsw	ft0,216(a5)
     48c:	0d17ae23          	sw	a7,220(a5)

00000490 <inst_28>:
     490:	15082e87          	flw	ft9,336(a6)
     494:	15482f07          	flw	ft10,340(a6)
     498:	15882207          	flw	ft4,344(a6)
     49c:	0021d073          	fsrmi	zero,3
     4a0:	21eef64f          	fnmadd.s	fa2,ft9,ft10,ft4
     4a4:	001028f3          	frflags	a7
     4a8:	0ec7a027          	fsw	fa2,224(a5)
     4ac:	0f17a223          	sw	a7,228(a5)

000004b0 <inst_29>:
     4b0:	15c82607          	flw	fa2,348(a6)
     4b4:	16082a07          	flw	fs4,352(a6)
     4b8:	16482d87          	flw	fs11,356(a6)
     4bc:	0021d073          	fsrmi	zero,3
     4c0:	d946754f          	fnmadd.s	fa0,fa2,fs4,fs11
     4c4:	001028f3          	frflags	a7
     4c8:	0ea7a427          	fsw	fa0,232(a5)
     4cc:	0f17a623          	sw	a7,236(a5)

000004d0 <inst_30>:
     4d0:	16882a07          	flw	fs4,360(a6)
     4d4:	16c82387          	flw	ft7,364(a6)
     4d8:	17082807          	flw	fa6,368(a6)
     4dc:	0021d073          	fsrmi	zero,3
     4e0:	807a7ecf          	fnmadd.s	ft9,fs4,ft7,fa6
     4e4:	001028f3          	frflags	a7
     4e8:	0fd7a827          	fsw	ft9,240(a5)
     4ec:	0f17aa23          	sw	a7,244(a5)

000004f0 <inst_31>:
     4f0:	17482487          	flw	fs1,372(a6)
     4f4:	17882d87          	flw	fs11,376(a6)
     4f8:	17c82987          	flw	fs3,380(a6)
     4fc:	0021d073          	fsrmi	zero,3
     500:	99b4fa4f          	fnmadd.s	fs4,fs1,fs11,fs3
     504:	001028f3          	frflags	a7
     508:	0f47ac27          	fsw	fs4,248(a5)
     50c:	0f17ae23          	sw	a7,252(a5)

00000510 <inst_32>:
     510:	18082507          	flw	fa0,384(a6)
     514:	18482587          	flw	fa1,388(a6)
     518:	18882607          	flw	fa2,392(a6)
     51c:	0021d073          	fsrmi	zero,3
     520:	60b576cf          	fnmadd.s	fa3,fa0,fa1,fa2
     524:	001028f3          	frflags	a7
     528:	10d7a027          	fsw	fa3,256(a5)
     52c:	1117a223          	sw	a7,260(a5)

00000530 <inst_33>:
     530:	18c82507          	flw	fa0,396(a6)
     534:	19082587          	flw	fa1,400(a6)
     538:	19482607          	flw	fa2,404(a6)
     53c:	0021d073          	fsrmi	zero,3
     540:	60b576cf          	fnmadd.s	fa3,fa0,fa1,fa2
     544:	001028f3          	frflags	a7
     548:	10d7a427          	fsw	fa3,264(a5)
     54c:	1117a623          	sw	a7,268(a5)

00000550 <inst_34>:
     550:	19882507          	flw	fa0,408(a6)
     554:	19c82587          	flw	fa1,412(a6)
     558:	1a082607          	flw	fa2,416(a6)
     55c:	0021d073          	fsrmi	zero,3
     560:	60b576cf          	fnmadd.s	fa3,fa0,fa1,fa2
     564:	001028f3          	frflags	a7
     568:	10d7a827          	fsw	fa3,272(a5)
     56c:	1117aa23          	sw	a7,276(a5)

00000570 <inst_35>:
     570:	1a482507          	flw	fa0,420(a6)
     574:	1a882587          	flw	fa1,424(a6)
     578:	1ac82607          	flw	fa2,428(a6)
     57c:	0021d073          	fsrmi	zero,3
     580:	60b576cf          	fnmadd.s	fa3,fa0,fa1,fa2
     584:	001028f3          	frflags	a7
     588:	10d7ac27          	fsw	fa3,280(a5)
     58c:	1117ae23          	sw	a7,284(a5)

00000590 <inst_36>:
     590:	1b082507          	flw	fa0,432(a6)
     594:	1b482587          	flw	fa1,436(a6)
     598:	1b882607          	flw	fa2,440(a6)
     59c:	0021d073          	fsrmi	zero,3
     5a0:	60b576cf          	fnmadd.s	fa3,fa0,fa1,fa2
     5a4:	001028f3          	frflags	a7
     5a8:	12d7a027          	fsw	fa3,288(a5)
     5ac:	1317a223          	sw	a7,292(a5)

000005b0 <inst_37>:
     5b0:	1bc82507          	flw	fa0,444(a6)
     5b4:	1c082587          	flw	fa1,448(a6)
     5b8:	1c482607          	flw	fa2,452(a6)
     5bc:	0021d073          	fsrmi	zero,3
     5c0:	60b576cf          	fnmadd.s	fa3,fa0,fa1,fa2
     5c4:	001028f3          	frflags	a7
     5c8:	12d7a427          	fsw	fa3,296(a5)
     5cc:	1317a623          	sw	a7,300(a5)

000005d0 <inst_38>:
     5d0:	1c882507          	flw	fa0,456(a6)
     5d4:	1cc82587          	flw	fa1,460(a6)
     5d8:	1d082607          	flw	fa2,464(a6)
     5dc:	0021d073          	fsrmi	zero,3
     5e0:	60b576cf          	fnmadd.s	fa3,fa0,fa1,fa2
     5e4:	001028f3          	frflags	a7
     5e8:	12d7a827          	fsw	fa3,304(a5)
     5ec:	1317aa23          	sw	a7,308(a5)

000005f0 <inst_39>:
     5f0:	1d482507          	flw	fa0,468(a6)
     5f4:	1d882587          	flw	fa1,472(a6)
     5f8:	1dc82607          	flw	fa2,476(a6)
     5fc:	0021d073          	fsrmi	zero,3
     600:	60b576cf          	fnmadd.s	fa3,fa0,fa1,fa2
     604:	001028f3          	frflags	a7
     608:	12d7ac27          	fsw	fa3,312(a5)
     60c:	1317ae23          	sw	a7,316(a5)

00000610 <inst_40>:
     610:	1e082507          	flw	fa0,480(a6)
     614:	1e482587          	flw	fa1,484(a6)
     618:	1e882607          	flw	fa2,488(a6)
     61c:	0021d073          	fsrmi	zero,3
     620:	60b576cf          	fnmadd.s	fa3,fa0,fa1,fa2
     624:	001028f3          	frflags	a7
     628:	14d7a027          	fsw	fa3,320(a5)
     62c:	1517a223          	sw	a7,324(a5)

00000630 <inst_41>:
     630:	1ec82507          	flw	fa0,492(a6)
     634:	1f082587          	flw	fa1,496(a6)
     638:	1f482607          	flw	fa2,500(a6)
     63c:	0021d073          	fsrmi	zero,3
     640:	60b576cf          	fnmadd.s	fa3,fa0,fa1,fa2
     644:	001028f3          	frflags	a7
     648:	14d7a427          	fsw	fa3,328(a5)
     64c:	1517a623          	sw	a7,332(a5)

00000650 <inst_42>:
     650:	1f882507          	flw	fa0,504(a6)
     654:	1fc82587          	flw	fa1,508(a6)
     658:	20082607          	flw	fa2,512(a6)
     65c:	0021d073          	fsrmi	zero,3
     660:	60b576cf          	fnmadd.s	fa3,fa0,fa1,fa2
     664:	001028f3          	frflags	a7
     668:	14d7a827          	fsw	fa3,336(a5)
     66c:	1517aa23          	sw	a7,340(a5)

00000670 <inst_43>:
     670:	20482507          	flw	fa0,516(a6)
     674:	20882587          	flw	fa1,520(a6)
     678:	20c82607          	flw	fa2,524(a6)
     67c:	0021d073          	fsrmi	zero,3
     680:	60b576cf          	fnmadd.s	fa3,fa0,fa1,fa2
     684:	001028f3          	frflags	a7
     688:	14d7ac27          	fsw	fa3,344(a5)
     68c:	1517ae23          	sw	a7,348(a5)

00000690 <inst_44>:
     690:	21082507          	flw	fa0,528(a6)
     694:	21482587          	flw	fa1,532(a6)
     698:	21882607          	flw	fa2,536(a6)
     69c:	0021d073          	fsrmi	zero,3
     6a0:	60b576cf          	fnmadd.s	fa3,fa0,fa1,fa2
     6a4:	001028f3          	frflags	a7
     6a8:	16d7a027          	fsw	fa3,352(a5)
     6ac:	1717a223          	sw	a7,356(a5)

000006b0 <inst_45>:
     6b0:	21c82507          	flw	fa0,540(a6)
     6b4:	22082587          	flw	fa1,544(a6)
     6b8:	22482607          	flw	fa2,548(a6)
     6bc:	0021d073          	fsrmi	zero,3
     6c0:	60b576cf          	fnmadd.s	fa3,fa0,fa1,fa2
     6c4:	001028f3          	frflags	a7
     6c8:	16d7a427          	fsw	fa3,360(a5)
     6cc:	1717a623          	sw	a7,364(a5)

000006d0 <inst_46>:
     6d0:	22882507          	flw	fa0,552(a6)
     6d4:	22c82587          	flw	fa1,556(a6)
     6d8:	23082607          	flw	fa2,560(a6)
     6dc:	0021d073          	fsrmi	zero,3
     6e0:	60b576cf          	fnmadd.s	fa3,fa0,fa1,fa2
     6e4:	001028f3          	frflags	a7
     6e8:	16d7a827          	fsw	fa3,368(a5)
     6ec:	1717aa23          	sw	a7,372(a5)

000006f0 <inst_47>:
     6f0:	23482507          	flw	fa0,564(a6)
     6f4:	23882587          	flw	fa1,568(a6)
     6f8:	23c82607          	flw	fa2,572(a6)
     6fc:	0021d073          	fsrmi	zero,3
     700:	60b576cf          	fnmadd.s	fa3,fa0,fa1,fa2
     704:	001028f3          	frflags	a7
     708:	16d7ac27          	fsw	fa3,376(a5)
     70c:	1717ae23          	sw	a7,380(a5)

00000710 <inst_48>:
     710:	24082507          	flw	fa0,576(a6)
     714:	24482587          	flw	fa1,580(a6)
     718:	24882607          	flw	fa2,584(a6)
     71c:	0021d073          	fsrmi	zero,3
     720:	60b576cf          	fnmadd.s	fa3,fa0,fa1,fa2
     724:	001028f3          	frflags	a7
     728:	18d7a027          	fsw	fa3,384(a5)
     72c:	1917a223          	sw	a7,388(a5)

00000730 <inst_49>:
     730:	24c82507          	flw	fa0,588(a6)
     734:	25082587          	flw	fa1,592(a6)
     738:	25482607          	flw	fa2,596(a6)
     73c:	0021d073          	fsrmi	zero,3
     740:	60b576cf          	fnmadd.s	fa3,fa0,fa1,fa2
     744:	001028f3          	frflags	a7
     748:	18d7a427          	fsw	fa3,392(a5)
     74c:	1917a623          	sw	a7,396(a5)

00000750 <inst_50>:
     750:	25882507          	flw	fa0,600(a6)
     754:	25c82587          	flw	fa1,604(a6)
     758:	26082607          	flw	fa2,608(a6)
     75c:	0021d073          	fsrmi	zero,3
     760:	60b576cf          	fnmadd.s	fa3,fa0,fa1,fa2
     764:	001028f3          	frflags	a7
     768:	18d7a827          	fsw	fa3,400(a5)
     76c:	1917aa23          	sw	a7,404(a5)

00000770 <inst_51>:
     770:	26482507          	flw	fa0,612(a6)
     774:	26882587          	flw	fa1,616(a6)
     778:	26c82607          	flw	fa2,620(a6)
     77c:	0021d073          	fsrmi	zero,3
     780:	60b576cf          	fnmadd.s	fa3,fa0,fa1,fa2
     784:	001028f3          	frflags	a7
     788:	18d7ac27          	fsw	fa3,408(a5)
     78c:	1917ae23          	sw	a7,412(a5)

00000790 <inst_52>:
     790:	27082507          	flw	fa0,624(a6)
     794:	27482587          	flw	fa1,628(a6)
     798:	27882607          	flw	fa2,632(a6)
     79c:	0021d073          	fsrmi	zero,3
     7a0:	60b576cf          	fnmadd.s	fa3,fa0,fa1,fa2
     7a4:	001028f3          	frflags	a7
     7a8:	1ad7a027          	fsw	fa3,416(a5)
     7ac:	1b17a223          	sw	a7,420(a5)

000007b0 <inst_53>:
     7b0:	27c82507          	flw	fa0,636(a6)
     7b4:	28082587          	flw	fa1,640(a6)
     7b8:	28482607          	flw	fa2,644(a6)
     7bc:	0021d073          	fsrmi	zero,3
     7c0:	60b576cf          	fnmadd.s	fa3,fa0,fa1,fa2
     7c4:	001028f3          	frflags	a7
     7c8:	1ad7a427          	fsw	fa3,424(a5)
     7cc:	1b17a623          	sw	a7,428(a5)

000007d0 <inst_54>:
     7d0:	28882507          	flw	fa0,648(a6)
     7d4:	28c82587          	flw	fa1,652(a6)
     7d8:	29082607          	flw	fa2,656(a6)
     7dc:	0021d073          	fsrmi	zero,3
     7e0:	60b576cf          	fnmadd.s	fa3,fa0,fa1,fa2
     7e4:	001028f3          	frflags	a7
     7e8:	1ad7a827          	fsw	fa3,432(a5)
     7ec:	1b17aa23          	sw	a7,436(a5)

000007f0 <inst_55>:
     7f0:	29482507          	flw	fa0,660(a6)
     7f4:	29882587          	flw	fa1,664(a6)
     7f8:	29c82607          	flw	fa2,668(a6)
     7fc:	0021d073          	fsrmi	zero,3
     800:	60b576cf          	fnmadd.s	fa3,fa0,fa1,fa2
     804:	001028f3          	frflags	a7
     808:	1ad7ac27          	fsw	fa3,440(a5)
     80c:	1b17ae23          	sw	a7,444(a5)

00000810 <inst_56>:
     810:	2a082507          	flw	fa0,672(a6)
     814:	2a482587          	flw	fa1,676(a6)
     818:	2a882607          	flw	fa2,680(a6)
     81c:	0021d073          	fsrmi	zero,3
     820:	60b576cf          	fnmadd.s	fa3,fa0,fa1,fa2
     824:	001028f3          	frflags	a7
     828:	1cd7a027          	fsw	fa3,448(a5)
     82c:	1d17a223          	sw	a7,452(a5)

00000830 <inst_57>:
     830:	2ac82507          	flw	fa0,684(a6)
     834:	2b082587          	flw	fa1,688(a6)
     838:	2b482607          	flw	fa2,692(a6)
     83c:	0021d073          	fsrmi	zero,3
     840:	60b576cf          	fnmadd.s	fa3,fa0,fa1,fa2
     844:	001028f3          	frflags	a7
     848:	1cd7a427          	fsw	fa3,456(a5)
     84c:	1d17a623          	sw	a7,460(a5)

00000850 <inst_58>:
     850:	2b882507          	flw	fa0,696(a6)
     854:	2bc82587          	flw	fa1,700(a6)
     858:	2c082607          	flw	fa2,704(a6)
     85c:	0021d073          	fsrmi	zero,3
     860:	60b576cf          	fnmadd.s	fa3,fa0,fa1,fa2
     864:	001028f3          	frflags	a7
     868:	1cd7a827          	fsw	fa3,464(a5)
     86c:	1d17aa23          	sw	a7,468(a5)

00000870 <inst_59>:
     870:	2c482507          	flw	fa0,708(a6)
     874:	2c882587          	flw	fa1,712(a6)
     878:	2cc82607          	flw	fa2,716(a6)
     87c:	0021d073          	fsrmi	zero,3
     880:	60b576cf          	fnmadd.s	fa3,fa0,fa1,fa2
     884:	001028f3          	frflags	a7
     888:	1cd7ac27          	fsw	fa3,472(a5)
     88c:	1d17ae23          	sw	a7,476(a5)

00000890 <inst_60>:
     890:	2d082507          	flw	fa0,720(a6)
     894:	2d482587          	flw	fa1,724(a6)
     898:	2d882607          	flw	fa2,728(a6)
     89c:	0021d073          	fsrmi	zero,3
     8a0:	60b576cf          	fnmadd.s	fa3,fa0,fa1,fa2
     8a4:	001028f3          	frflags	a7
     8a8:	1ed7a027          	fsw	fa3,480(a5)
     8ac:	1f17a223          	sw	a7,484(a5)

000008b0 <inst_61>:
     8b0:	2dc82507          	flw	fa0,732(a6)
     8b4:	2e082587          	flw	fa1,736(a6)
     8b8:	2e482607          	flw	fa2,740(a6)
     8bc:	0021d073          	fsrmi	zero,3
     8c0:	60b576cf          	fnmadd.s	fa3,fa0,fa1,fa2
     8c4:	001028f3          	frflags	a7
     8c8:	1ed7a427          	fsw	fa3,488(a5)
     8cc:	1f17a623          	sw	a7,492(a5)

000008d0 <inst_62>:
     8d0:	2e882507          	flw	fa0,744(a6)
     8d4:	2ec82587          	flw	fa1,748(a6)
     8d8:	2f082607          	flw	fa2,752(a6)
     8dc:	0021d073          	fsrmi	zero,3
     8e0:	60b576cf          	fnmadd.s	fa3,fa0,fa1,fa2
     8e4:	001028f3          	frflags	a7
     8e8:	1ed7a827          	fsw	fa3,496(a5)
     8ec:	1f17aa23          	sw	a7,500(a5)

000008f0 <inst_63>:
     8f0:	2f482507          	flw	fa0,756(a6)
     8f4:	2f882587          	flw	fa1,760(a6)
     8f8:	2fc82607          	flw	fa2,764(a6)
     8fc:	0021d073          	fsrmi	zero,3
     900:	60b576cf          	fnmadd.s	fa3,fa0,fa1,fa2
     904:	001028f3          	frflags	a7
     908:	1ed7ac27          	fsw	fa3,504(a5)
     90c:	1f17ae23          	sw	a7,508(a5)

00000910 <inst_64>:
     910:	30082507          	flw	fa0,768(a6)
     914:	30482587          	flw	fa1,772(a6)
     918:	30882607          	flw	fa2,776(a6)
     91c:	0021d073          	fsrmi	zero,3
     920:	60b576cf          	fnmadd.s	fa3,fa0,fa1,fa2
     924:	001028f3          	frflags	a7
     928:	20d7a027          	fsw	fa3,512(a5)
     92c:	2117a223          	sw	a7,516(a5)

00000930 <inst_65>:
     930:	30c82507          	flw	fa0,780(a6)
     934:	31082587          	flw	fa1,784(a6)
     938:	31482607          	flw	fa2,788(a6)
     93c:	0021d073          	fsrmi	zero,3
     940:	60b576cf          	fnmadd.s	fa3,fa0,fa1,fa2
     944:	001028f3          	frflags	a7
     948:	20d7a427          	fsw	fa3,520(a5)
     94c:	2117a623          	sw	a7,524(a5)

00000950 <inst_66>:
     950:	31882507          	flw	fa0,792(a6)
     954:	31c82587          	flw	fa1,796(a6)
     958:	32082607          	flw	fa2,800(a6)
     95c:	0021d073          	fsrmi	zero,3
     960:	60b576cf          	fnmadd.s	fa3,fa0,fa1,fa2
     964:	001028f3          	frflags	a7
     968:	20d7a827          	fsw	fa3,528(a5)
     96c:	2117aa23          	sw	a7,532(a5)

00000970 <inst_67>:
     970:	32482507          	flw	fa0,804(a6)
     974:	32882587          	flw	fa1,808(a6)
     978:	32c82607          	flw	fa2,812(a6)
     97c:	0021d073          	fsrmi	zero,3
     980:	60b576cf          	fnmadd.s	fa3,fa0,fa1,fa2
     984:	001028f3          	frflags	a7
     988:	20d7ac27          	fsw	fa3,536(a5)
     98c:	2117ae23          	sw	a7,540(a5)

00000990 <inst_68>:
     990:	33082507          	flw	fa0,816(a6)
     994:	33482587          	flw	fa1,820(a6)
     998:	33882607          	flw	fa2,824(a6)
     99c:	0021d073          	fsrmi	zero,3
     9a0:	60b576cf          	fnmadd.s	fa3,fa0,fa1,fa2
     9a4:	001028f3          	frflags	a7
     9a8:	22d7a027          	fsw	fa3,544(a5)
     9ac:	2317a223          	sw	a7,548(a5)

000009b0 <inst_69>:
     9b0:	33c82507          	flw	fa0,828(a6)
     9b4:	34082587          	flw	fa1,832(a6)
     9b8:	34482607          	flw	fa2,836(a6)
     9bc:	0021d073          	fsrmi	zero,3
     9c0:	60b576cf          	fnmadd.s	fa3,fa0,fa1,fa2
     9c4:	001028f3          	frflags	a7
     9c8:	22d7a427          	fsw	fa3,552(a5)
     9cc:	2317a623          	sw	a7,556(a5)

000009d0 <inst_70>:
     9d0:	34882507          	flw	fa0,840(a6)
     9d4:	34c82587          	flw	fa1,844(a6)
     9d8:	35082607          	flw	fa2,848(a6)
     9dc:	0021d073          	fsrmi	zero,3
     9e0:	60b576cf          	fnmadd.s	fa3,fa0,fa1,fa2
     9e4:	001028f3          	frflags	a7
     9e8:	22d7a827          	fsw	fa3,560(a5)
     9ec:	2317aa23          	sw	a7,564(a5)

000009f0 <inst_71>:
     9f0:	35482507          	flw	fa0,852(a6)
     9f4:	35882587          	flw	fa1,856(a6)
     9f8:	35c82607          	flw	fa2,860(a6)
     9fc:	0021d073          	fsrmi	zero,3
     a00:	60b576cf          	fnmadd.s	fa3,fa0,fa1,fa2
     a04:	001028f3          	frflags	a7
     a08:	22d7ac27          	fsw	fa3,568(a5)
     a0c:	2317ae23          	sw	a7,572(a5)

00000a10 <inst_72>:
     a10:	36082507          	flw	fa0,864(a6)
     a14:	36482587          	flw	fa1,868(a6)
     a18:	36882607          	flw	fa2,872(a6)
     a1c:	0021d073          	fsrmi	zero,3
     a20:	60b576cf          	fnmadd.s	fa3,fa0,fa1,fa2
     a24:	001028f3          	frflags	a7
     a28:	24d7a027          	fsw	fa3,576(a5)
     a2c:	2517a223          	sw	a7,580(a5)

00000a30 <inst_73>:
     a30:	36c82507          	flw	fa0,876(a6)
     a34:	37082587          	flw	fa1,880(a6)
     a38:	37482607          	flw	fa2,884(a6)
     a3c:	0021d073          	fsrmi	zero,3
     a40:	60b576cf          	fnmadd.s	fa3,fa0,fa1,fa2
     a44:	001028f3          	frflags	a7
     a48:	24d7a427          	fsw	fa3,584(a5)
     a4c:	2517a623          	sw	a7,588(a5)

00000a50 <inst_74>:
     a50:	37882507          	flw	fa0,888(a6)
     a54:	37c82587          	flw	fa1,892(a6)
     a58:	38082607          	flw	fa2,896(a6)
     a5c:	0021d073          	fsrmi	zero,3
     a60:	60b576cf          	fnmadd.s	fa3,fa0,fa1,fa2
     a64:	001028f3          	frflags	a7
     a68:	24d7a827          	fsw	fa3,592(a5)
     a6c:	2517aa23          	sw	a7,596(a5)

00000a70 <inst_75>:
     a70:	38482507          	flw	fa0,900(a6)
     a74:	38882587          	flw	fa1,904(a6)
     a78:	38c82607          	flw	fa2,908(a6)
     a7c:	0021d073          	fsrmi	zero,3
     a80:	60b576cf          	fnmadd.s	fa3,fa0,fa1,fa2
     a84:	001028f3          	frflags	a7
     a88:	24d7ac27          	fsw	fa3,600(a5)
     a8c:	2517ae23          	sw	a7,604(a5)

00000a90 <inst_76>:
     a90:	39082507          	flw	fa0,912(a6)
     a94:	39482587          	flw	fa1,916(a6)
     a98:	39882607          	flw	fa2,920(a6)
     a9c:	0021d073          	fsrmi	zero,3
     aa0:	60b576cf          	fnmadd.s	fa3,fa0,fa1,fa2
     aa4:	001028f3          	frflags	a7
     aa8:	26d7a027          	fsw	fa3,608(a5)
     aac:	2717a223          	sw	a7,612(a5)

00000ab0 <inst_77>:
     ab0:	39c82507          	flw	fa0,924(a6)
     ab4:	3a082587          	flw	fa1,928(a6)
     ab8:	3a482607          	flw	fa2,932(a6)
     abc:	0021d073          	fsrmi	zero,3
     ac0:	60b576cf          	fnmadd.s	fa3,fa0,fa1,fa2
     ac4:	001028f3          	frflags	a7
     ac8:	26d7a427          	fsw	fa3,616(a5)
     acc:	2717a623          	sw	a7,620(a5)

00000ad0 <inst_78>:
     ad0:	3a882507          	flw	fa0,936(a6)
     ad4:	3ac82587          	flw	fa1,940(a6)
     ad8:	3b082607          	flw	fa2,944(a6)
     adc:	0021d073          	fsrmi	zero,3
     ae0:	60b576cf          	fnmadd.s	fa3,fa0,fa1,fa2
     ae4:	001028f3          	frflags	a7
     ae8:	26d7a827          	fsw	fa3,624(a5)
     aec:	2717aa23          	sw	a7,628(a5)

00000af0 <inst_79>:
     af0:	3b482507          	flw	fa0,948(a6)
     af4:	3b882587          	flw	fa1,952(a6)
     af8:	3bc82607          	flw	fa2,956(a6)
     afc:	0021d073          	fsrmi	zero,3
     b00:	60b576cf          	fnmadd.s	fa3,fa0,fa1,fa2
     b04:	001028f3          	frflags	a7
     b08:	26d7ac27          	fsw	fa3,632(a5)
     b0c:	2717ae23          	sw	a7,636(a5)

00000b10 <inst_80>:
     b10:	3c082507          	flw	fa0,960(a6)
     b14:	3c482587          	flw	fa1,964(a6)
     b18:	3c882607          	flw	fa2,968(a6)
     b1c:	0021d073          	fsrmi	zero,3
     b20:	60b576cf          	fnmadd.s	fa3,fa0,fa1,fa2
     b24:	001028f3          	frflags	a7
     b28:	28d7a027          	fsw	fa3,640(a5)
     b2c:	2917a223          	sw	a7,644(a5)

00000b30 <inst_81>:
     b30:	3cc82507          	flw	fa0,972(a6)
     b34:	3d082587          	flw	fa1,976(a6)
     b38:	3d482607          	flw	fa2,980(a6)
     b3c:	0021d073          	fsrmi	zero,3
     b40:	60b576cf          	fnmadd.s	fa3,fa0,fa1,fa2
     b44:	001028f3          	frflags	a7
     b48:	28d7a427          	fsw	fa3,648(a5)
     b4c:	2917a623          	sw	a7,652(a5)

00000b50 <inst_82>:
     b50:	3d882507          	flw	fa0,984(a6)
     b54:	3dc82587          	flw	fa1,988(a6)
     b58:	3e082607          	flw	fa2,992(a6)
     b5c:	0021d073          	fsrmi	zero,3
     b60:	60b576cf          	fnmadd.s	fa3,fa0,fa1,fa2
     b64:	001028f3          	frflags	a7
     b68:	28d7a827          	fsw	fa3,656(a5)
     b6c:	2917aa23          	sw	a7,660(a5)

00000b70 <inst_83>:
     b70:	3e482507          	flw	fa0,996(a6)
     b74:	3e882587          	flw	fa1,1000(a6)
     b78:	3ec82607          	flw	fa2,1004(a6)
     b7c:	0021d073          	fsrmi	zero,3
     b80:	60b576cf          	fnmadd.s	fa3,fa0,fa1,fa2
     b84:	001028f3          	frflags	a7
     b88:	28d7ac27          	fsw	fa3,664(a5)
     b8c:	2917ae23          	sw	a7,668(a5)

00000b90 <inst_84>:
     b90:	3f082507          	flw	fa0,1008(a6)
     b94:	3f482587          	flw	fa1,1012(a6)
     b98:	3f882607          	flw	fa2,1016(a6)
     b9c:	0021d073          	fsrmi	zero,3
     ba0:	60b576cf          	fnmadd.s	fa3,fa0,fa1,fa2
     ba4:	001028f3          	frflags	a7
     ba8:	2ad7a027          	fsw	fa3,672(a5)
     bac:	2b17a223          	sw	a7,676(a5)

00000bb0 <inst_85>:
     bb0:	3fc82507          	flw	fa0,1020(a6)
     bb4:	40082587          	flw	fa1,1024(a6)
     bb8:	40482607          	flw	fa2,1028(a6)
     bbc:	0021d073          	fsrmi	zero,3
     bc0:	60b576cf          	fnmadd.s	fa3,fa0,fa1,fa2
     bc4:	001028f3          	frflags	a7
     bc8:	2ad7a427          	fsw	fa3,680(a5)
     bcc:	2b17a623          	sw	a7,684(a5)

00000bd0 <inst_86>:
     bd0:	40882507          	flw	fa0,1032(a6)
     bd4:	40c82587          	flw	fa1,1036(a6)
     bd8:	41082607          	flw	fa2,1040(a6)
     bdc:	0021d073          	fsrmi	zero,3
     be0:	60b576cf          	fnmadd.s	fa3,fa0,fa1,fa2
     be4:	001028f3          	frflags	a7
     be8:	2ad7a827          	fsw	fa3,688(a5)
     bec:	2b17aa23          	sw	a7,692(a5)

00000bf0 <inst_87>:
     bf0:	41482507          	flw	fa0,1044(a6)
     bf4:	41882587          	flw	fa1,1048(a6)
     bf8:	41c82607          	flw	fa2,1052(a6)
     bfc:	0021d073          	fsrmi	zero,3
     c00:	60b576cf          	fnmadd.s	fa3,fa0,fa1,fa2
     c04:	001028f3          	frflags	a7
     c08:	2ad7ac27          	fsw	fa3,696(a5)
     c0c:	2b17ae23          	sw	a7,700(a5)

00000c10 <inst_88>:
     c10:	42082507          	flw	fa0,1056(a6)
     c14:	42482587          	flw	fa1,1060(a6)
     c18:	42882607          	flw	fa2,1064(a6)
     c1c:	0021d073          	fsrmi	zero,3
     c20:	60b576cf          	fnmadd.s	fa3,fa0,fa1,fa2
     c24:	001028f3          	frflags	a7
     c28:	2cd7a027          	fsw	fa3,704(a5)
     c2c:	2d17a223          	sw	a7,708(a5)

00000c30 <inst_89>:
     c30:	42c82507          	flw	fa0,1068(a6)
     c34:	43082587          	flw	fa1,1072(a6)
     c38:	43482607          	flw	fa2,1076(a6)
     c3c:	0021d073          	fsrmi	zero,3
     c40:	60b576cf          	fnmadd.s	fa3,fa0,fa1,fa2
     c44:	001028f3          	frflags	a7
     c48:	2cd7a427          	fsw	fa3,712(a5)
     c4c:	2d17a623          	sw	a7,716(a5)

00000c50 <inst_90>:
     c50:	43882507          	flw	fa0,1080(a6)
     c54:	43c82587          	flw	fa1,1084(a6)
     c58:	44082607          	flw	fa2,1088(a6)
     c5c:	0021d073          	fsrmi	zero,3
     c60:	60b576cf          	fnmadd.s	fa3,fa0,fa1,fa2
     c64:	001028f3          	frflags	a7
     c68:	2cd7a827          	fsw	fa3,720(a5)
     c6c:	2d17aa23          	sw	a7,724(a5)

00000c70 <inst_91>:
     c70:	44482507          	flw	fa0,1092(a6)
     c74:	44882587          	flw	fa1,1096(a6)
     c78:	44c82607          	flw	fa2,1100(a6)
     c7c:	0021d073          	fsrmi	zero,3
     c80:	60b576cf          	fnmadd.s	fa3,fa0,fa1,fa2
     c84:	001028f3          	frflags	a7
     c88:	2cd7ac27          	fsw	fa3,728(a5)
     c8c:	2d17ae23          	sw	a7,732(a5)

00000c90 <inst_92>:
     c90:	45082507          	flw	fa0,1104(a6)
     c94:	45482587          	flw	fa1,1108(a6)
     c98:	45882607          	flw	fa2,1112(a6)
     c9c:	0021d073          	fsrmi	zero,3
     ca0:	60b576cf          	fnmadd.s	fa3,fa0,fa1,fa2
     ca4:	001028f3          	frflags	a7
     ca8:	2ed7a027          	fsw	fa3,736(a5)
     cac:	2f17a223          	sw	a7,740(a5)

00000cb0 <inst_93>:
     cb0:	45c82507          	flw	fa0,1116(a6)
     cb4:	46082587          	flw	fa1,1120(a6)
     cb8:	46482607          	flw	fa2,1124(a6)
     cbc:	0021d073          	fsrmi	zero,3
     cc0:	60b576cf          	fnmadd.s	fa3,fa0,fa1,fa2
     cc4:	001028f3          	frflags	a7
     cc8:	2ed7a427          	fsw	fa3,744(a5)
     ccc:	2f17a623          	sw	a7,748(a5)

00000cd0 <inst_94>:
     cd0:	46882507          	flw	fa0,1128(a6)
     cd4:	46c82587          	flw	fa1,1132(a6)
     cd8:	47082607          	flw	fa2,1136(a6)
     cdc:	0021d073          	fsrmi	zero,3
     ce0:	60b576cf          	fnmadd.s	fa3,fa0,fa1,fa2
     ce4:	001028f3          	frflags	a7
     ce8:	2ed7a827          	fsw	fa3,752(a5)
     cec:	2f17aa23          	sw	a7,756(a5)

00000cf0 <inst_95>:
     cf0:	47482507          	flw	fa0,1140(a6)
     cf4:	47882587          	flw	fa1,1144(a6)
     cf8:	47c82607          	flw	fa2,1148(a6)
     cfc:	0021d073          	fsrmi	zero,3
     d00:	60b576cf          	fnmadd.s	fa3,fa0,fa1,fa2
     d04:	001028f3          	frflags	a7
     d08:	2ed7ac27          	fsw	fa3,760(a5)
     d0c:	2f17ae23          	sw	a7,764(a5)

00000d10 <inst_96>:
     d10:	48082507          	flw	fa0,1152(a6)
     d14:	48482587          	flw	fa1,1156(a6)
     d18:	48882607          	flw	fa2,1160(a6)
     d1c:	0021d073          	fsrmi	zero,3
     d20:	60b576cf          	fnmadd.s	fa3,fa0,fa1,fa2
     d24:	001028f3          	frflags	a7
     d28:	30d7a027          	fsw	fa3,768(a5)
     d2c:	3117a223          	sw	a7,772(a5)

00000d30 <inst_97>:
     d30:	48c82507          	flw	fa0,1164(a6)
     d34:	49082587          	flw	fa1,1168(a6)
     d38:	49482607          	flw	fa2,1172(a6)
     d3c:	0021d073          	fsrmi	zero,3
     d40:	60b576cf          	fnmadd.s	fa3,fa0,fa1,fa2
     d44:	001028f3          	frflags	a7
     d48:	30d7a427          	fsw	fa3,776(a5)
     d4c:	3117a623          	sw	a7,780(a5)

00000d50 <inst_98>:
     d50:	49882507          	flw	fa0,1176(a6)
     d54:	49c82587          	flw	fa1,1180(a6)
     d58:	4a082607          	flw	fa2,1184(a6)
     d5c:	0021d073          	fsrmi	zero,3
     d60:	60b576cf          	fnmadd.s	fa3,fa0,fa1,fa2
     d64:	001028f3          	frflags	a7
     d68:	30d7a827          	fsw	fa3,784(a5)
     d6c:	3117aa23          	sw	a7,788(a5)

00000d70 <inst_99>:
     d70:	4a482507          	flw	fa0,1188(a6)
     d74:	4a882587          	flw	fa1,1192(a6)
     d78:	4ac82607          	flw	fa2,1196(a6)
     d7c:	0021d073          	fsrmi	zero,3
     d80:	60b576cf          	fnmadd.s	fa3,fa0,fa1,fa2
     d84:	001028f3          	frflags	a7
     d88:	30d7ac27          	fsw	fa3,792(a5)
     d8c:	3117ae23          	sw	a7,796(a5)

00000d90 <inst_100>:
     d90:	4b082507          	flw	fa0,1200(a6)
     d94:	4b482587          	flw	fa1,1204(a6)
     d98:	4b882607          	flw	fa2,1208(a6)
     d9c:	0021d073          	fsrmi	zero,3
     da0:	60b576cf          	fnmadd.s	fa3,fa0,fa1,fa2
     da4:	001028f3          	frflags	a7
     da8:	32d7a027          	fsw	fa3,800(a5)
     dac:	3317a223          	sw	a7,804(a5)

00000db0 <inst_101>:
     db0:	4bc82507          	flw	fa0,1212(a6)
     db4:	4c082587          	flw	fa1,1216(a6)
     db8:	4c482607          	flw	fa2,1220(a6)
     dbc:	0021d073          	fsrmi	zero,3
     dc0:	60b576cf          	fnmadd.s	fa3,fa0,fa1,fa2
     dc4:	001028f3          	frflags	a7
     dc8:	32d7a427          	fsw	fa3,808(a5)
     dcc:	3317a623          	sw	a7,812(a5)

00000dd0 <inst_102>:
     dd0:	4c882507          	flw	fa0,1224(a6)
     dd4:	4cc82587          	flw	fa1,1228(a6)
     dd8:	4d082607          	flw	fa2,1232(a6)
     ddc:	0021d073          	fsrmi	zero,3
     de0:	60b576cf          	fnmadd.s	fa3,fa0,fa1,fa2
     de4:	001028f3          	frflags	a7
     de8:	32d7a827          	fsw	fa3,816(a5)
     dec:	3317aa23          	sw	a7,820(a5)

00000df0 <inst_103>:
     df0:	4d482507          	flw	fa0,1236(a6)
     df4:	4d882587          	flw	fa1,1240(a6)
     df8:	4dc82607          	flw	fa2,1244(a6)
     dfc:	0021d073          	fsrmi	zero,3
     e00:	60b576cf          	fnmadd.s	fa3,fa0,fa1,fa2
     e04:	001028f3          	frflags	a7
     e08:	32d7ac27          	fsw	fa3,824(a5)
     e0c:	3317ae23          	sw	a7,828(a5)

00000e10 <inst_104>:
     e10:	4e082507          	flw	fa0,1248(a6)
     e14:	4e482587          	flw	fa1,1252(a6)
     e18:	4e882607          	flw	fa2,1256(a6)
     e1c:	0021d073          	fsrmi	zero,3
     e20:	60b576cf          	fnmadd.s	fa3,fa0,fa1,fa2
     e24:	001028f3          	frflags	a7
     e28:	34d7a027          	fsw	fa3,832(a5)
     e2c:	3517a223          	sw	a7,836(a5)

00000e30 <inst_105>:
     e30:	4ec82507          	flw	fa0,1260(a6)
     e34:	4f082587          	flw	fa1,1264(a6)
     e38:	4f482607          	flw	fa2,1268(a6)
     e3c:	0021d073          	fsrmi	zero,3
     e40:	60b576cf          	fnmadd.s	fa3,fa0,fa1,fa2
     e44:	001028f3          	frflags	a7
     e48:	34d7a427          	fsw	fa3,840(a5)
     e4c:	3517a623          	sw	a7,844(a5)

00000e50 <inst_106>:
     e50:	4f882507          	flw	fa0,1272(a6)
     e54:	4fc82587          	flw	fa1,1276(a6)
     e58:	50082607          	flw	fa2,1280(a6)
     e5c:	0021d073          	fsrmi	zero,3
     e60:	60b576cf          	fnmadd.s	fa3,fa0,fa1,fa2
     e64:	001028f3          	frflags	a7
     e68:	34d7a827          	fsw	fa3,848(a5)
     e6c:	3517aa23          	sw	a7,852(a5)

00000e70 <inst_107>:
     e70:	50482507          	flw	fa0,1284(a6)
     e74:	50882587          	flw	fa1,1288(a6)
     e78:	50c82607          	flw	fa2,1292(a6)
     e7c:	0021d073          	fsrmi	zero,3
     e80:	60b576cf          	fnmadd.s	fa3,fa0,fa1,fa2
     e84:	001028f3          	frflags	a7
     e88:	34d7ac27          	fsw	fa3,856(a5)
     e8c:	3517ae23          	sw	a7,860(a5)

00000e90 <inst_108>:
     e90:	51082507          	flw	fa0,1296(a6)
     e94:	51482587          	flw	fa1,1300(a6)
     e98:	51882607          	flw	fa2,1304(a6)
     e9c:	0021d073          	fsrmi	zero,3
     ea0:	60b576cf          	fnmadd.s	fa3,fa0,fa1,fa2
     ea4:	001028f3          	frflags	a7
     ea8:	36d7a027          	fsw	fa3,864(a5)
     eac:	3717a223          	sw	a7,868(a5)

00000eb0 <inst_109>:
     eb0:	51c82507          	flw	fa0,1308(a6)
     eb4:	52082587          	flw	fa1,1312(a6)
     eb8:	52482607          	flw	fa2,1316(a6)
     ebc:	0021d073          	fsrmi	zero,3
     ec0:	60b576cf          	fnmadd.s	fa3,fa0,fa1,fa2
     ec4:	001028f3          	frflags	a7
     ec8:	36d7a427          	fsw	fa3,872(a5)
     ecc:	3717a623          	sw	a7,876(a5)

00000ed0 <inst_110>:
     ed0:	52882507          	flw	fa0,1320(a6)
     ed4:	52c82587          	flw	fa1,1324(a6)
     ed8:	53082607          	flw	fa2,1328(a6)
     edc:	0021d073          	fsrmi	zero,3
     ee0:	60b576cf          	fnmadd.s	fa3,fa0,fa1,fa2
     ee4:	001028f3          	frflags	a7
     ee8:	36d7a827          	fsw	fa3,880(a5)
     eec:	3717aa23          	sw	a7,884(a5)

00000ef0 <inst_111>:
     ef0:	53482507          	flw	fa0,1332(a6)
     ef4:	53882587          	flw	fa1,1336(a6)
     ef8:	53c82607          	flw	fa2,1340(a6)
     efc:	0021d073          	fsrmi	zero,3
     f00:	60b576cf          	fnmadd.s	fa3,fa0,fa1,fa2
     f04:	001028f3          	frflags	a7
     f08:	36d7ac27          	fsw	fa3,888(a5)
     f0c:	3717ae23          	sw	a7,892(a5)

00000f10 <inst_112>:
     f10:	54082507          	flw	fa0,1344(a6)
     f14:	54482587          	flw	fa1,1348(a6)
     f18:	54882607          	flw	fa2,1352(a6)
     f1c:	0021d073          	fsrmi	zero,3
     f20:	60b576cf          	fnmadd.s	fa3,fa0,fa1,fa2
     f24:	001028f3          	frflags	a7
     f28:	38d7a027          	fsw	fa3,896(a5)
     f2c:	3917a223          	sw	a7,900(a5)

00000f30 <inst_113>:
     f30:	54c82507          	flw	fa0,1356(a6)
     f34:	55082587          	flw	fa1,1360(a6)
     f38:	55482607          	flw	fa2,1364(a6)
     f3c:	0021d073          	fsrmi	zero,3
     f40:	60b576cf          	fnmadd.s	fa3,fa0,fa1,fa2
     f44:	001028f3          	frflags	a7
     f48:	38d7a427          	fsw	fa3,904(a5)
     f4c:	3917a623          	sw	a7,908(a5)

00000f50 <inst_114>:
     f50:	55882507          	flw	fa0,1368(a6)
     f54:	55c82587          	flw	fa1,1372(a6)
     f58:	56082607          	flw	fa2,1376(a6)
     f5c:	0021d073          	fsrmi	zero,3
     f60:	60b576cf          	fnmadd.s	fa3,fa0,fa1,fa2
     f64:	001028f3          	frflags	a7
     f68:	38d7a827          	fsw	fa3,912(a5)
     f6c:	3917aa23          	sw	a7,916(a5)

00000f70 <inst_115>:
     f70:	56482507          	flw	fa0,1380(a6)
     f74:	56882587          	flw	fa1,1384(a6)
     f78:	56c82607          	flw	fa2,1388(a6)
     f7c:	0021d073          	fsrmi	zero,3
     f80:	60b576cf          	fnmadd.s	fa3,fa0,fa1,fa2
     f84:	001028f3          	frflags	a7
     f88:	38d7ac27          	fsw	fa3,920(a5)
     f8c:	3917ae23          	sw	a7,924(a5)

00000f90 <inst_116>:
     f90:	57082507          	flw	fa0,1392(a6)
     f94:	57482587          	flw	fa1,1396(a6)
     f98:	57882607          	flw	fa2,1400(a6)
     f9c:	0021d073          	fsrmi	zero,3
     fa0:	60b576cf          	fnmadd.s	fa3,fa0,fa1,fa2
     fa4:	001028f3          	frflags	a7
     fa8:	3ad7a027          	fsw	fa3,928(a5)
     fac:	3b17a223          	sw	a7,932(a5)

00000fb0 <inst_117>:
     fb0:	57c82507          	flw	fa0,1404(a6)
     fb4:	58082587          	flw	fa1,1408(a6)
     fb8:	58482607          	flw	fa2,1412(a6)
     fbc:	0021d073          	fsrmi	zero,3
     fc0:	60b576cf          	fnmadd.s	fa3,fa0,fa1,fa2
     fc4:	001028f3          	frflags	a7
     fc8:	3ad7a427          	fsw	fa3,936(a5)
     fcc:	3b17a623          	sw	a7,940(a5)

00000fd0 <inst_118>:
     fd0:	58882507          	flw	fa0,1416(a6)
     fd4:	58c82587          	flw	fa1,1420(a6)
     fd8:	59082607          	flw	fa2,1424(a6)
     fdc:	0021d073          	fsrmi	zero,3
     fe0:	60b576cf          	fnmadd.s	fa3,fa0,fa1,fa2
     fe4:	001028f3          	frflags	a7
     fe8:	3ad7a827          	fsw	fa3,944(a5)
     fec:	3b17aa23          	sw	a7,948(a5)

00000ff0 <inst_119>:
     ff0:	59482507          	flw	fa0,1428(a6)
     ff4:	59882587          	flw	fa1,1432(a6)
     ff8:	59c82607          	flw	fa2,1436(a6)
     ffc:	0021d073          	fsrmi	zero,3
    1000:	60b576cf          	fnmadd.s	fa3,fa0,fa1,fa2
    1004:	001028f3          	frflags	a7
    1008:	3ad7ac27          	fsw	fa3,952(a5)
    100c:	3b17ae23          	sw	a7,956(a5)

00001010 <inst_120>:
    1010:	5a082507          	flw	fa0,1440(a6)
    1014:	5a482587          	flw	fa1,1444(a6)
    1018:	5a882607          	flw	fa2,1448(a6)
    101c:	0021d073          	fsrmi	zero,3
    1020:	60b576cf          	fnmadd.s	fa3,fa0,fa1,fa2
    1024:	001028f3          	frflags	a7
    1028:	3cd7a027          	fsw	fa3,960(a5)
    102c:	3d17a223          	sw	a7,964(a5)

00001030 <inst_121>:
    1030:	5ac82507          	flw	fa0,1452(a6)
    1034:	5b082587          	flw	fa1,1456(a6)
    1038:	5b482607          	flw	fa2,1460(a6)
    103c:	0021d073          	fsrmi	zero,3
    1040:	60b576cf          	fnmadd.s	fa3,fa0,fa1,fa2
    1044:	001028f3          	frflags	a7
    1048:	3cd7a427          	fsw	fa3,968(a5)
    104c:	3d17a623          	sw	a7,972(a5)

00001050 <inst_122>:
    1050:	5b882507          	flw	fa0,1464(a6)
    1054:	5bc82587          	flw	fa1,1468(a6)
    1058:	5c082607          	flw	fa2,1472(a6)
    105c:	0021d073          	fsrmi	zero,3
    1060:	60b576cf          	fnmadd.s	fa3,fa0,fa1,fa2
    1064:	001028f3          	frflags	a7
    1068:	3cd7a827          	fsw	fa3,976(a5)
    106c:	3d17aa23          	sw	a7,980(a5)

00001070 <inst_123>:
    1070:	5c482507          	flw	fa0,1476(a6)
    1074:	5c882587          	flw	fa1,1480(a6)
    1078:	5cc82607          	flw	fa2,1484(a6)
    107c:	0021d073          	fsrmi	zero,3
    1080:	60b576cf          	fnmadd.s	fa3,fa0,fa1,fa2
    1084:	001028f3          	frflags	a7
    1088:	3cd7ac27          	fsw	fa3,984(a5)
    108c:	3d17ae23          	sw	a7,988(a5)

00001090 <inst_124>:
    1090:	5d082507          	flw	fa0,1488(a6)
    1094:	5d482587          	flw	fa1,1492(a6)
    1098:	5d882607          	flw	fa2,1496(a6)
    109c:	0021d073          	fsrmi	zero,3
    10a0:	60b576cf          	fnmadd.s	fa3,fa0,fa1,fa2
    10a4:	001028f3          	frflags	a7
    10a8:	3ed7a027          	fsw	fa3,992(a5)
    10ac:	3f17a223          	sw	a7,996(a5)

000010b0 <inst_125>:
    10b0:	5dc82507          	flw	fa0,1500(a6)
    10b4:	5e082587          	flw	fa1,1504(a6)
    10b8:	5e482607          	flw	fa2,1508(a6)
    10bc:	0021d073          	fsrmi	zero,3
    10c0:	60b576cf          	fnmadd.s	fa3,fa0,fa1,fa2
    10c4:	001028f3          	frflags	a7
    10c8:	3ed7a427          	fsw	fa3,1000(a5)
    10cc:	3f17a623          	sw	a7,1004(a5)

000010d0 <inst_126>:
    10d0:	5e882507          	flw	fa0,1512(a6)
    10d4:	5ec82587          	flw	fa1,1516(a6)
    10d8:	5f082607          	flw	fa2,1520(a6)
    10dc:	0021d073          	fsrmi	zero,3
    10e0:	60b576cf          	fnmadd.s	fa3,fa0,fa1,fa2
    10e4:	001028f3          	frflags	a7
    10e8:	3ed7a827          	fsw	fa3,1008(a5)
    10ec:	3f17aa23          	sw	a7,1012(a5)

000010f0 <inst_127>:
    10f0:	5f482507          	flw	fa0,1524(a6)
    10f4:	5f882587          	flw	fa1,1528(a6)
    10f8:	5fc82607          	flw	fa2,1532(a6)
    10fc:	0021d073          	fsrmi	zero,3
    1100:	60b576cf          	fnmadd.s	fa3,fa0,fa1,fa2
    1104:	001028f3          	frflags	a7
    1108:	3ed7ac27          	fsw	fa3,1016(a5)
    110c:	3f17ae23          	sw	a7,1020(a5)

00001110 <inst_128>:
    1110:	60082507          	flw	fa0,1536(a6)
    1114:	60482587          	flw	fa1,1540(a6)
    1118:	60882607          	flw	fa2,1544(a6)
    111c:	0021d073          	fsrmi	zero,3
    1120:	60b576cf          	fnmadd.s	fa3,fa0,fa1,fa2
    1124:	001028f3          	frflags	a7
    1128:	40d7a027          	fsw	fa3,1024(a5)
    112c:	4117a223          	sw	a7,1028(a5)

00001130 <inst_129>:
    1130:	60c82507          	flw	fa0,1548(a6)
    1134:	61082587          	flw	fa1,1552(a6)
    1138:	61482607          	flw	fa2,1556(a6)
    113c:	0021d073          	fsrmi	zero,3
    1140:	60b576cf          	fnmadd.s	fa3,fa0,fa1,fa2
    1144:	001028f3          	frflags	a7
    1148:	40d7a427          	fsw	fa3,1032(a5)
    114c:	4117a623          	sw	a7,1036(a5)

00001150 <inst_130>:
    1150:	61882507          	flw	fa0,1560(a6)
    1154:	61c82587          	flw	fa1,1564(a6)
    1158:	62082607          	flw	fa2,1568(a6)
    115c:	0021d073          	fsrmi	zero,3
    1160:	60b576cf          	fnmadd.s	fa3,fa0,fa1,fa2
    1164:	001028f3          	frflags	a7
    1168:	40d7a827          	fsw	fa3,1040(a5)
    116c:	4117aa23          	sw	a7,1044(a5)

00001170 <inst_131>:
    1170:	62482507          	flw	fa0,1572(a6)
    1174:	62882587          	flw	fa1,1576(a6)
    1178:	62c82607          	flw	fa2,1580(a6)
    117c:	0021d073          	fsrmi	zero,3
    1180:	60b576cf          	fnmadd.s	fa3,fa0,fa1,fa2
    1184:	001028f3          	frflags	a7
    1188:	40d7ac27          	fsw	fa3,1048(a5)
    118c:	4117ae23          	sw	a7,1052(a5)

00001190 <inst_132>:
    1190:	63082507          	flw	fa0,1584(a6)
    1194:	63482587          	flw	fa1,1588(a6)
    1198:	63882607          	flw	fa2,1592(a6)
    119c:	0021d073          	fsrmi	zero,3
    11a0:	60b576cf          	fnmadd.s	fa3,fa0,fa1,fa2
    11a4:	001028f3          	frflags	a7
    11a8:	42d7a027          	fsw	fa3,1056(a5)
    11ac:	4317a223          	sw	a7,1060(a5)

000011b0 <inst_133>:
    11b0:	63c82507          	flw	fa0,1596(a6)
    11b4:	64082587          	flw	fa1,1600(a6)
    11b8:	64482607          	flw	fa2,1604(a6)
    11bc:	0021d073          	fsrmi	zero,3
    11c0:	60b576cf          	fnmadd.s	fa3,fa0,fa1,fa2
    11c4:	001028f3          	frflags	a7
    11c8:	42d7a427          	fsw	fa3,1064(a5)
    11cc:	4317a623          	sw	a7,1068(a5)

000011d0 <inst_134>:
    11d0:	64882507          	flw	fa0,1608(a6)
    11d4:	64c82587          	flw	fa1,1612(a6)
    11d8:	65082607          	flw	fa2,1616(a6)
    11dc:	0021d073          	fsrmi	zero,3
    11e0:	60b576cf          	fnmadd.s	fa3,fa0,fa1,fa2
    11e4:	001028f3          	frflags	a7
    11e8:	42d7a827          	fsw	fa3,1072(a5)
    11ec:	4317aa23          	sw	a7,1076(a5)

000011f0 <inst_135>:
    11f0:	65482507          	flw	fa0,1620(a6)
    11f4:	65882587          	flw	fa1,1624(a6)
    11f8:	65c82607          	flw	fa2,1628(a6)
    11fc:	0021d073          	fsrmi	zero,3
    1200:	60b576cf          	fnmadd.s	fa3,fa0,fa1,fa2
    1204:	001028f3          	frflags	a7
    1208:	42d7ac27          	fsw	fa3,1080(a5)
    120c:	4317ae23          	sw	a7,1084(a5)

00001210 <inst_136>:
    1210:	66082507          	flw	fa0,1632(a6)
    1214:	66482587          	flw	fa1,1636(a6)
    1218:	66882607          	flw	fa2,1640(a6)
    121c:	0021d073          	fsrmi	zero,3
    1220:	60b576cf          	fnmadd.s	fa3,fa0,fa1,fa2
    1224:	001028f3          	frflags	a7
    1228:	44d7a027          	fsw	fa3,1088(a5)
    122c:	4517a223          	sw	a7,1092(a5)

00001230 <inst_137>:
    1230:	66c82507          	flw	fa0,1644(a6)
    1234:	67082587          	flw	fa1,1648(a6)
    1238:	67482607          	flw	fa2,1652(a6)
    123c:	0021d073          	fsrmi	zero,3
    1240:	60b576cf          	fnmadd.s	fa3,fa0,fa1,fa2
    1244:	001028f3          	frflags	a7
    1248:	44d7a427          	fsw	fa3,1096(a5)
    124c:	4517a623          	sw	a7,1100(a5)

00001250 <inst_138>:
    1250:	67882507          	flw	fa0,1656(a6)
    1254:	67c82587          	flw	fa1,1660(a6)
    1258:	68082607          	flw	fa2,1664(a6)
    125c:	0021d073          	fsrmi	zero,3
    1260:	60b576cf          	fnmadd.s	fa3,fa0,fa1,fa2
    1264:	001028f3          	frflags	a7
    1268:	44d7a827          	fsw	fa3,1104(a5)
    126c:	4517aa23          	sw	a7,1108(a5)

00001270 <inst_139>:
    1270:	68482507          	flw	fa0,1668(a6)
    1274:	68882587          	flw	fa1,1672(a6)
    1278:	68c82607          	flw	fa2,1676(a6)
    127c:	0021d073          	fsrmi	zero,3
    1280:	60b576cf          	fnmadd.s	fa3,fa0,fa1,fa2
    1284:	001028f3          	frflags	a7
    1288:	44d7ac27          	fsw	fa3,1112(a5)
    128c:	4517ae23          	sw	a7,1116(a5)

00001290 <inst_140>:
    1290:	69082507          	flw	fa0,1680(a6)
    1294:	69482587          	flw	fa1,1684(a6)
    1298:	69882607          	flw	fa2,1688(a6)
    129c:	0021d073          	fsrmi	zero,3
    12a0:	60b576cf          	fnmadd.s	fa3,fa0,fa1,fa2
    12a4:	001028f3          	frflags	a7
    12a8:	46d7a027          	fsw	fa3,1120(a5)
    12ac:	4717a223          	sw	a7,1124(a5)

000012b0 <inst_141>:
    12b0:	69c82507          	flw	fa0,1692(a6)
    12b4:	6a082587          	flw	fa1,1696(a6)
    12b8:	6a482607          	flw	fa2,1700(a6)
    12bc:	0021d073          	fsrmi	zero,3
    12c0:	60b576cf          	fnmadd.s	fa3,fa0,fa1,fa2
    12c4:	001028f3          	frflags	a7
    12c8:	46d7a427          	fsw	fa3,1128(a5)
    12cc:	4717a623          	sw	a7,1132(a5)

000012d0 <inst_142>:
    12d0:	6a882507          	flw	fa0,1704(a6)
    12d4:	6ac82587          	flw	fa1,1708(a6)
    12d8:	6b082607          	flw	fa2,1712(a6)
    12dc:	0021d073          	fsrmi	zero,3
    12e0:	60b576cf          	fnmadd.s	fa3,fa0,fa1,fa2
    12e4:	001028f3          	frflags	a7
    12e8:	46d7a827          	fsw	fa3,1136(a5)
    12ec:	4717aa23          	sw	a7,1140(a5)

000012f0 <inst_143>:
    12f0:	6b482507          	flw	fa0,1716(a6)
    12f4:	6b882587          	flw	fa1,1720(a6)
    12f8:	6bc82607          	flw	fa2,1724(a6)
    12fc:	0021d073          	fsrmi	zero,3
    1300:	60b576cf          	fnmadd.s	fa3,fa0,fa1,fa2
    1304:	001028f3          	frflags	a7
    1308:	46d7ac27          	fsw	fa3,1144(a5)
    130c:	4717ae23          	sw	a7,1148(a5)

00001310 <inst_144>:
    1310:	6c082507          	flw	fa0,1728(a6)
    1314:	6c482587          	flw	fa1,1732(a6)
    1318:	6c882607          	flw	fa2,1736(a6)
    131c:	0021d073          	fsrmi	zero,3
    1320:	60b576cf          	fnmadd.s	fa3,fa0,fa1,fa2
    1324:	001028f3          	frflags	a7
    1328:	48d7a027          	fsw	fa3,1152(a5)
    132c:	4917a223          	sw	a7,1156(a5)

00001330 <inst_145>:
    1330:	6cc82507          	flw	fa0,1740(a6)
    1334:	6d082587          	flw	fa1,1744(a6)
    1338:	6d482607          	flw	fa2,1748(a6)
    133c:	0021d073          	fsrmi	zero,3
    1340:	60b576cf          	fnmadd.s	fa3,fa0,fa1,fa2
    1344:	001028f3          	frflags	a7
    1348:	48d7a427          	fsw	fa3,1160(a5)
    134c:	4917a623          	sw	a7,1164(a5)

00001350 <inst_146>:
    1350:	6d882507          	flw	fa0,1752(a6)
    1354:	6dc82587          	flw	fa1,1756(a6)
    1358:	6e082607          	flw	fa2,1760(a6)
    135c:	0021d073          	fsrmi	zero,3
    1360:	60b576cf          	fnmadd.s	fa3,fa0,fa1,fa2
    1364:	001028f3          	frflags	a7
    1368:	48d7a827          	fsw	fa3,1168(a5)
    136c:	4917aa23          	sw	a7,1172(a5)

00001370 <inst_147>:
    1370:	6e482507          	flw	fa0,1764(a6)
    1374:	6e882587          	flw	fa1,1768(a6)
    1378:	6ec82607          	flw	fa2,1772(a6)
    137c:	0021d073          	fsrmi	zero,3
    1380:	60b576cf          	fnmadd.s	fa3,fa0,fa1,fa2
    1384:	001028f3          	frflags	a7
    1388:	48d7ac27          	fsw	fa3,1176(a5)
    138c:	4917ae23          	sw	a7,1180(a5)

00001390 <inst_148>:
    1390:	6f082507          	flw	fa0,1776(a6)
    1394:	6f482587          	flw	fa1,1780(a6)
    1398:	6f882607          	flw	fa2,1784(a6)
    139c:	0021d073          	fsrmi	zero,3
    13a0:	60b576cf          	fnmadd.s	fa3,fa0,fa1,fa2
    13a4:	001028f3          	frflags	a7
    13a8:	4ad7a027          	fsw	fa3,1184(a5)
    13ac:	4b17a223          	sw	a7,1188(a5)

000013b0 <inst_149>:
    13b0:	6fc82507          	flw	fa0,1788(a6)
    13b4:	70082587          	flw	fa1,1792(a6)
    13b8:	70482607          	flw	fa2,1796(a6)
    13bc:	0021d073          	fsrmi	zero,3
    13c0:	60b576cf          	fnmadd.s	fa3,fa0,fa1,fa2
    13c4:	001028f3          	frflags	a7
    13c8:	4ad7a427          	fsw	fa3,1192(a5)
    13cc:	4b17a623          	sw	a7,1196(a5)

000013d0 <inst_150>:
    13d0:	70882507          	flw	fa0,1800(a6)
    13d4:	70c82587          	flw	fa1,1804(a6)
    13d8:	71082607          	flw	fa2,1808(a6)
    13dc:	0021d073          	fsrmi	zero,3
    13e0:	60b576cf          	fnmadd.s	fa3,fa0,fa1,fa2
    13e4:	001028f3          	frflags	a7
    13e8:	4ad7a827          	fsw	fa3,1200(a5)
    13ec:	4b17aa23          	sw	a7,1204(a5)

000013f0 <inst_151>:
    13f0:	71482507          	flw	fa0,1812(a6)
    13f4:	71882587          	flw	fa1,1816(a6)
    13f8:	71c82607          	flw	fa2,1820(a6)
    13fc:	0021d073          	fsrmi	zero,3
    1400:	60b576cf          	fnmadd.s	fa3,fa0,fa1,fa2
    1404:	001028f3          	frflags	a7
    1408:	4ad7ac27          	fsw	fa3,1208(a5)
    140c:	4b17ae23          	sw	a7,1212(a5)

00001410 <inst_152>:
    1410:	72082507          	flw	fa0,1824(a6)
    1414:	72482587          	flw	fa1,1828(a6)
    1418:	72882607          	flw	fa2,1832(a6)
    141c:	0021d073          	fsrmi	zero,3
    1420:	60b576cf          	fnmadd.s	fa3,fa0,fa1,fa2
    1424:	001028f3          	frflags	a7
    1428:	4cd7a027          	fsw	fa3,1216(a5)
    142c:	4d17a223          	sw	a7,1220(a5)

00001430 <inst_153>:
    1430:	72c82507          	flw	fa0,1836(a6)
    1434:	73082587          	flw	fa1,1840(a6)
    1438:	73482607          	flw	fa2,1844(a6)
    143c:	0021d073          	fsrmi	zero,3
    1440:	60b576cf          	fnmadd.s	fa3,fa0,fa1,fa2
    1444:	001028f3          	frflags	a7
    1448:	4cd7a427          	fsw	fa3,1224(a5)
    144c:	4d17a623          	sw	a7,1228(a5)

00001450 <inst_154>:
    1450:	73882507          	flw	fa0,1848(a6)
    1454:	73c82587          	flw	fa1,1852(a6)
    1458:	74082607          	flw	fa2,1856(a6)
    145c:	0021d073          	fsrmi	zero,3
    1460:	60b576cf          	fnmadd.s	fa3,fa0,fa1,fa2
    1464:	001028f3          	frflags	a7
    1468:	4cd7a827          	fsw	fa3,1232(a5)
    146c:	4d17aa23          	sw	a7,1236(a5)

00001470 <inst_155>:
    1470:	74482507          	flw	fa0,1860(a6)
    1474:	74882587          	flw	fa1,1864(a6)
    1478:	74c82607          	flw	fa2,1868(a6)
    147c:	0021d073          	fsrmi	zero,3
    1480:	60b576cf          	fnmadd.s	fa3,fa0,fa1,fa2
    1484:	001028f3          	frflags	a7
    1488:	4cd7ac27          	fsw	fa3,1240(a5)
    148c:	4d17ae23          	sw	a7,1244(a5)

00001490 <inst_156>:
    1490:	75082507          	flw	fa0,1872(a6)
    1494:	75482587          	flw	fa1,1876(a6)
    1498:	75882607          	flw	fa2,1880(a6)
    149c:	0021d073          	fsrmi	zero,3
    14a0:	60b576cf          	fnmadd.s	fa3,fa0,fa1,fa2
    14a4:	001028f3          	frflags	a7
    14a8:	4ed7a027          	fsw	fa3,1248(a5)
    14ac:	4f17a223          	sw	a7,1252(a5)

000014b0 <inst_157>:
    14b0:	75c82507          	flw	fa0,1884(a6)
    14b4:	76082587          	flw	fa1,1888(a6)
    14b8:	76482607          	flw	fa2,1892(a6)
    14bc:	0021d073          	fsrmi	zero,3
    14c0:	60b576cf          	fnmadd.s	fa3,fa0,fa1,fa2
    14c4:	001028f3          	frflags	a7
    14c8:	4ed7a427          	fsw	fa3,1256(a5)
    14cc:	4f17a623          	sw	a7,1260(a5)

000014d0 <inst_158>:
    14d0:	76882507          	flw	fa0,1896(a6)
    14d4:	76c82587          	flw	fa1,1900(a6)
    14d8:	77082607          	flw	fa2,1904(a6)
    14dc:	0021d073          	fsrmi	zero,3
    14e0:	60b576cf          	fnmadd.s	fa3,fa0,fa1,fa2
    14e4:	001028f3          	frflags	a7
    14e8:	4ed7a827          	fsw	fa3,1264(a5)
    14ec:	4f17aa23          	sw	a7,1268(a5)

000014f0 <inst_159>:
    14f0:	77482507          	flw	fa0,1908(a6)
    14f4:	77882587          	flw	fa1,1912(a6)
    14f8:	77c82607          	flw	fa2,1916(a6)
    14fc:	0021d073          	fsrmi	zero,3
    1500:	60b576cf          	fnmadd.s	fa3,fa0,fa1,fa2
    1504:	001028f3          	frflags	a7
    1508:	4ed7ac27          	fsw	fa3,1272(a5)
    150c:	4f17ae23          	sw	a7,1276(a5)

00001510 <inst_160>:
    1510:	78082507          	flw	fa0,1920(a6)
    1514:	78482587          	flw	fa1,1924(a6)
    1518:	78882607          	flw	fa2,1928(a6)
    151c:	0021d073          	fsrmi	zero,3
    1520:	60b576cf          	fnmadd.s	fa3,fa0,fa1,fa2
    1524:	001028f3          	frflags	a7
    1528:	50d7a027          	fsw	fa3,1280(a5)
    152c:	5117a223          	sw	a7,1284(a5)

00001530 <inst_161>:
    1530:	78c82507          	flw	fa0,1932(a6)
    1534:	79082587          	flw	fa1,1936(a6)
    1538:	79482607          	flw	fa2,1940(a6)
    153c:	0021d073          	fsrmi	zero,3
    1540:	60b576cf          	fnmadd.s	fa3,fa0,fa1,fa2
    1544:	001028f3          	frflags	a7
    1548:	50d7a427          	fsw	fa3,1288(a5)
    154c:	5117a623          	sw	a7,1292(a5)

00001550 <inst_162>:
    1550:	79882507          	flw	fa0,1944(a6)
    1554:	79c82587          	flw	fa1,1948(a6)
    1558:	7a082607          	flw	fa2,1952(a6)
    155c:	0021d073          	fsrmi	zero,3
    1560:	60b576cf          	fnmadd.s	fa3,fa0,fa1,fa2
    1564:	001028f3          	frflags	a7
    1568:	50d7a827          	fsw	fa3,1296(a5)
    156c:	5117aa23          	sw	a7,1300(a5)

00001570 <inst_163>:
    1570:	7a482507          	flw	fa0,1956(a6)
    1574:	7a882587          	flw	fa1,1960(a6)
    1578:	7ac82607          	flw	fa2,1964(a6)
    157c:	0021d073          	fsrmi	zero,3
    1580:	60b576cf          	fnmadd.s	fa3,fa0,fa1,fa2
    1584:	001028f3          	frflags	a7
    1588:	50d7ac27          	fsw	fa3,1304(a5)
    158c:	5117ae23          	sw	a7,1308(a5)

00001590 <inst_164>:
    1590:	7b082507          	flw	fa0,1968(a6)
    1594:	7b482587          	flw	fa1,1972(a6)
    1598:	7b882607          	flw	fa2,1976(a6)
    159c:	0021d073          	fsrmi	zero,3
    15a0:	60b576cf          	fnmadd.s	fa3,fa0,fa1,fa2
    15a4:	001028f3          	frflags	a7
    15a8:	52d7a027          	fsw	fa3,1312(a5)
    15ac:	5317a223          	sw	a7,1316(a5)

000015b0 <inst_165>:
    15b0:	7bc82507          	flw	fa0,1980(a6)
    15b4:	7c082587          	flw	fa1,1984(a6)
    15b8:	7c482607          	flw	fa2,1988(a6)
    15bc:	0021d073          	fsrmi	zero,3
    15c0:	60b576cf          	fnmadd.s	fa3,fa0,fa1,fa2
    15c4:	001028f3          	frflags	a7
    15c8:	52d7a427          	fsw	fa3,1320(a5)
    15cc:	5317a623          	sw	a7,1324(a5)

000015d0 <inst_166>:
    15d0:	7c882507          	flw	fa0,1992(a6)
    15d4:	7cc82587          	flw	fa1,1996(a6)
    15d8:	7d082607          	flw	fa2,2000(a6)
    15dc:	0021d073          	fsrmi	zero,3
    15e0:	60b576cf          	fnmadd.s	fa3,fa0,fa1,fa2
    15e4:	001028f3          	frflags	a7
    15e8:	52d7a827          	fsw	fa3,1328(a5)
    15ec:	5317aa23          	sw	a7,1332(a5)

000015f0 <inst_167>:
    15f0:	7d482507          	flw	fa0,2004(a6)
    15f4:	7d882587          	flw	fa1,2008(a6)
    15f8:	7dc82607          	flw	fa2,2012(a6)
    15fc:	0021d073          	fsrmi	zero,3
    1600:	60b576cf          	fnmadd.s	fa3,fa0,fa1,fa2
    1604:	001028f3          	frflags	a7
    1608:	52d7ac27          	fsw	fa3,1336(a5)
    160c:	5317ae23          	sw	a7,1340(a5)

00001610 <inst_168>:
    1610:	7e082507          	flw	fa0,2016(a6)
    1614:	7e482587          	flw	fa1,2020(a6)
    1618:	7e882607          	flw	fa2,2024(a6)
    161c:	0021d073          	fsrmi	zero,3
    1620:	60b576cf          	fnmadd.s	fa3,fa0,fa1,fa2
    1624:	001028f3          	frflags	a7
    1628:	54d7a027          	fsw	fa3,1344(a5)
    162c:	5517a223          	sw	a7,1348(a5)

00001630 <rvtest_code_end>:
    1630:	00001517          	auipc	a0,0x1
    1634:	1c050513          	add	a0,a0,448 # 27f0 <data_begin>
    1638:	00001597          	auipc	a1,0x1
    163c:	70858593          	add	a1,a1,1800 # 2d40 <_end>
    1640:	80001637          	lui	a2,0x80001
    1644:	00860613          	add	a2,a2,8 # 80001008 <_end+0x7fffe2c8>

00001648 <compliance_halt_loop>:
    1648:	06b50063          	beq	a0,a1,16a8 <compliance_halt_break>
    164c:	00450693          	add	a3,a0,4

00001650 <compliance_halt_loop2>:
    1650:	fff68693          	add	a3,a3,-1
    1654:	00068703          	lb	a4,0(a3)
    1658:	40475793          	sra	a5,a4,0x4
    165c:	00f7f793          	and	a5,a5,15
    1660:	00a00813          	li	a6,10
    1664:	0107c463          	blt	a5,a6,166c <notLetter>
    1668:	02778793          	add	a5,a5,39

0000166c <notLetter>:
    166c:	03078793          	add	a5,a5,48
    1670:	00f60023          	sb	a5,0(a2)
    1674:	40075793          	sra	a5,a4,0x0
    1678:	00f7f793          	and	a5,a5,15
    167c:	00a00813          	li	a6,10
    1680:	0107c463          	blt	a5,a6,1688 <notLetter2>
    1684:	02778793          	add	a5,a5,39

00001688 <notLetter2>:
    1688:	03078793          	add	a5,a5,48
    168c:	00f60023          	sb	a5,0(a2)
    1690:	fcd510e3          	bne	a0,a3,1650 <compliance_halt_loop2>
    1694:	00450513          	add	a0,a0,4
    1698:	00a00713          	li	a4,10
    169c:	00e60023          	sb	a4,0(a2)
    16a0:	fa9ff06f          	j	1648 <compliance_halt_loop>
    16a4:	0040006f          	j	16a8 <compliance_halt_break>

000016a8 <compliance_halt_break>:
    16a8:	80001537          	lui	a0,0x80001
    16ac:	00950513          	add	a0,a0,9 # 80001009 <_end+0x7fffe2c9>
    16b0:	00d50023          	sb	a3,0(a0)
    16b4:	0000                	.2byte	0x0
	...

Desensamblado de la sección .data:

00002000 <rvtest_data_begin>:
    2000:	cafe                	.2byte	0xcafe
    2002:	babe                	.2byte	0xbabe

00002004 <test_fp>:
    2004:	5240                	.2byte	0x5240
    2006:	7f18                	.2byte	0x7f18
    2008:	9ddd                	.2byte	0x9ddd
    200a:	3f84                	.2byte	0x3f84
    200c:	d0ae                	.2byte	0xd0ae
    200e:	7f1d                	.2byte	0x7f1d
    2010:	1565                	.2byte	0x1565
    2012:	7dd2                	.2byte	0x7dd2
    2014:	c576                	.2byte	0xc576
    2016:	815940cf          	fnmadd.s	ft1,fs2,fs5,fa6,rmm
    201a:	7f2a                	.2byte	0x7f2a
    201c:	7eb87cb7          	lui	s9,0x7eb87
    2020:	7eb87cb7          	lui	s9,0x7eb87
    2024:	7a18                	.2byte	0x7a18
    2026:	669e7e4f          	.4byte	0x669e7e4f
    202a:	7ed8                	.2byte	0x7ed8
    202c:	3f8e6227          	.4byte	0x3f8e6227
    2030:	b7c8                	.2byte	0xb7c8
    2032:	7ef0                	.2byte	0x7ef0
    2034:	6b51                	.2byte	0x6b51
    2036:	fd377e93          	and	t4,a4,-45
    203a:	3fc5                	.2byte	0x3fc5
    203c:	3fc5fd37          	lui	s10,0x3fc5f
    2040:	a7c1                	.2byte	0xa7c1
    2042:	a7c17e0b          	.4byte	0xa7c17e0b
    2046:	a7c17e0b          	.4byte	0xa7c17e0b
    204a:	55e57e0b          	.4byte	0x55e57e0b
    204e:	55e57dcb          	.4byte	0x55e57dcb
    2052:	55e57dcb          	.4byte	0x55e57dcb
    2056:	d7977dcb          	.4byte	0xd7977dcb
    205a:	7ee2                	.2byte	0x7ee2
    205c:	cffe                	.2byte	0xcffe
    205e:	3eec                	.2byte	0x3eec
    2060:	7ee2d797          	auipc	a5,0x7ee2d
    2064:	7f1f0a23          	sb	a7,2036(t5)
    2068:	6415                	.2byte	0x6415
    206a:	3dd8                	.2byte	0x3dd8
    206c:	6415                	.2byte	0x6415
    206e:	3dd8                	.2byte	0x3dd8
    2070:	2a61                	.2byte	0x2a61
    2072:	7d51                	.2byte	0x7d51
    2074:	3a11                	.2byte	0x3a11
    2076:	a8353d1b          	.4byte	0xa8353d1b
    207a:	7afd                	.2byte	0x7afd
    207c:	1e0c                	.2byte	0x1e0c
    207e:	7dd6                	.2byte	0x7dd6
    2080:	1e0c                	.2byte	0x1e0c
    2082:	7dd6                	.2byte	0x7dd6
    2084:	7bf189f3          	.4byte	0x7bf189f3
    2088:	d54d                	.2byte	0xd54d
    208a:	7f1f a0e8 3d7e      	.byte	0x1f, 0x7f, 0xe8, 0xa0, 0x7e, 0x3d
    2090:	d54d                	.2byte	0xd54d
    2092:	7f1f fe5b 7f35      	.byte	0x1f, 0x7f, 0x5b, 0xfe, 0x35, 0x7f
    2098:	4e05                	.2byte	0x4e05
    209a:	47f53eeb          	.4byte	0x47f53eeb
    209e:	1d457ea7          	.4byte	0x1d457ea7
    20a2:	7cac                	.2byte	0x7cac
    20a4:	42038dbf 7f30e48e 	.8byte	0x7f30e48e42038dbf
    20ac:	e534                	.2byte	0xe534
    20ae:	92c87db3          	.4byte	0x92c87db3
    20b2:	4101                	.2byte	0x4101
    20b4:	7f361b4b          	.4byte	0x7f361b4b
    20b8:	296d                	.2byte	0x296d
    20ba:	7cc9                	.2byte	0x7cc9
    20bc:	6a25                	.2byte	0x6a25
    20be:	fb604133          	.4byte	0xfb604133
    20c2:	7e8c                	.2byte	0x7e8c
    20c4:	e409                	.2byte	0xe409
    20c6:	5f3b7d8f          	.4byte	0x5f3b7d8f
    20ca:	9eb540cb          	.4byte	0x9eb540cb
    20ce:	7ee4                	.2byte	0x7ee4
    20d0:	4e7c                	.2byte	0x4e7c
    20d2:	6e227f03          	.4byte	0x6e227f03
    20d6:	3f91                	.2byte	0x3f91
    20d8:	2fe4                	.2byte	0x2fe4
    20da:	7f15                	.2byte	0x7f15
    20dc:	0fcc                	.2byte	0xfcc
    20de:	30277f3f f92b3f36 	.8byte	0xf92b3f3630277f3f
    20e6:	c8617f07          	.4byte	0xc8617f07
    20ea:	2e6f7f17          	auipc	t5,0x2e6f7
    20ee:	3f71                	.2byte	0x3f71
    20f0:	ff2c                	.2byte	0xff2c
    20f2:	7f0e                	.2byte	0x7f0e
    20f4:	68b9                	.2byte	0x68b9
    20f6:	69af7ee3          	bgeu	t5,s10,2f92 <_end+0x252>
    20fa:	3edc                	.2byte	0x3edc
    20fc:	cbe1                	.2byte	0xcbe1
    20fe:	35517e43          	.4byte	0x35517e43
    2102:	19677f17          	auipc	t5,0x19677
    2106:	51e93e8b          	.4byte	0x51e93e8b
    210a:	7e24                	.2byte	0x7e24
    210c:	fad5                	.2byte	0xfad5
    210e:	7f24                	.2byte	0x7f24
    2110:	0772                	.2byte	0x772
    2112:	3f68                	.2byte	0x3f68
    2114:	881d                	.2byte	0x881d
    2116:	7f15                	.2byte	0x7f15
    2118:	4148                	.2byte	0x4148
    211a:	7eaa                	.2byte	0x7eaa
    211c:	6e25                	.2byte	0x6e25
    211e:	3ee9                	.2byte	0x3ee9
    2120:	7e1b3eab          	.4byte	0x7e1b3eab
    2124:	f86d                	.2byte	0xf86d
    2126:	7ef9                	.2byte	0x7ef9
    2128:	c0e4                	.2byte	0xc0e4
    212a:	3ee1                	.2byte	0x3ee1
    212c:	6fb2                	.2byte	0x6fb2
    212e:	7e5c                	.2byte	0x7e5c
    2130:	c7a5                	.2byte	0xc7a5
    2132:	7f01                	.2byte	0x7f01
    2134:	21b9                	.2byte	0x21b9
    2136:	3f8a                	.2byte	0x3f8a
    2138:	0d70                	.2byte	0xd70
    213a:	7f0c                	.2byte	0x7f0c
    213c:	9a0c                	.2byte	0x9a0c
    213e:	7f30                	.2byte	0x7f30
    2140:	c5b9                	.2byte	0xc5b9
    2142:	3f50                	.2byte	0x3f50
    2144:	0590                	.2byte	0x590
    2146:	7f10                	.2byte	0x7f10
    2148:	7f3cc8a3          	.4byte	0x7f3cc8a3
    214c:	57a9                	.2byte	0x57a9
    214e:	3d50                	.2byte	0x3d50
    2150:	a3aa                	.2byte	0xa3aa
    2152:	7d19                	.2byte	0x7d19
    2154:	68e1                	.2byte	0x68e1
    2156:	7db8                	.2byte	0x7db8
    2158:	4b41                	.2byte	0x4b41
    215a:	60203f6f          	jal	t5,575c <_end+0x2a1c>
    215e:	7dac                	.2byte	0x7dac
    2160:	7e79                	.2byte	0x7e79
    2162:	7e01                	.2byte	0x7e01
    2164:	407b0813          	add	a6,s6,1031
    2168:	f62e                	.2byte	0xf62e
    216a:	7efd                	.2byte	0x7efd
    216c:	0956                	.2byte	0x956
    216e:	c26e7f0b          	.4byte	0xc26e7f0b
    2172:	3f98                	.2byte	0x3f98
    2174:	ee48                	.2byte	0xee48
    2176:	7f25                	.2byte	0x7f25
    2178:	6815                	.2byte	0x6815
    217a:	7e61                	.2byte	0x7e61
    217c:	6ee4                	.2byte	0x6ee4
    217e:	3fcd                	.2byte	0x3fcd
    2180:	e1fc                	.2byte	0xe1fc
    2182:	7eb4                	.2byte	0x7eb4
    2184:	13e5                	.2byte	0x13e5
    2186:	7ed9                	.2byte	0x7ed9
    2188:	d3e6                	.2byte	0xd3e6
    218a:	3fd0                	.2byte	0x3fd0
    218c:	13d9                	.2byte	0x13d9
    218e:	7f31                	.2byte	0x7f31
    2190:	7f16fd83          	.4byte	0x7f16fd83
    2194:	dd89                	.2byte	0xdd89
    2196:	3e92                	.2byte	0x3e92
    2198:	3e7e                	.2byte	0x3e7e
    219a:	7e2d                	.2byte	0x7e2d
    219c:	b82c                	.2byte	0xb82c
    219e:	7cc5                	.2byte	0x7cc5
    21a0:	ed1d                	.2byte	0xed1d
    21a2:	4186                	.2byte	0x4186
    21a4:	6b12                	.2byte	0x6b12
    21a6:	7ed0                	.2byte	0x7ed0
    21a8:	d31d                	.2byte	0xd31d
    21aa:	7d99                	.2byte	0x7d99
    21ac:	ee21                	.2byte	0xee21
    21ae:	406a                	.2byte	0x406a
    21b0:	7e8d2a0f          	.4byte	0x7e8d2a0f
    21b4:	0384                	.2byte	0x384
    21b6:	7db0                	.2byte	0x7db0
    21b8:	40c68f57          	.4byte	0x40c68f57
    21bc:	8546                	.2byte	0x8546
    21be:	7f08                	.2byte	0x7f08
    21c0:	f85a                	.2byte	0xf85a
    21c2:	7cf4                	.2byte	0x7cf4
    21c4:	4854                	.2byte	0x4854
    21c6:	4198                	.2byte	0x4198
    21c8:	b8ad                	.2byte	0xb8ad
    21ca:	7f11                	.2byte	0x7f11
    21cc:	b96c                	.2byte	0xb96c
    21ce:	8cd87e93          	and	t4,a6,-1843
    21d2:	3e22                	.2byte	0x3e22
    21d4:	993a                	.2byte	0x993a
    21d6:	19fa7d3b          	.4byte	0x19fa7d3b
    21da:	7dfc                	.2byte	0x7dfc
    21dc:	e479                	.2byte	0xe479
    21de:	2da84073          	.4byte	0x2da84073
    21e2:	7ef0                	.2byte	0x7ef0
    21e4:	f572                	.2byte	0xf572
    21e6:	7eff                	.2byte	0x7eff
    21e8:	c415                	.2byte	0xc415
    21ea:	3fba                	.2byte	0x3fba
    21ec:	bc62                	.2byte	0xbc62
    21ee:	7f3a                	.2byte	0x7f3a
    21f0:	9c08                	.2byte	0x9c08
    21f2:	7f1a                	.2byte	0x7f1a
    21f4:	aafe                	.2byte	0xaafe
    21f6:	3eec                	.2byte	0x3eec
    21f8:	ef1c                	.2byte	0xef1c
    21fa:	7e8e                	.2byte	0x7e8e
    21fc:	8b22                	.2byte	0x8b22
    21fe:	7f09                	.2byte	0x7f09
    2200:	8bbe                	.2byte	0x8bbe
    2202:	3f66                	.2byte	0x3f66
    2204:	bc2c                	.2byte	0xbc2c
    2206:	9b497ef7          	.4byte	0x9b497ef7
    220a:	c9707ed3          	.4byte	0xc9707ed3
    220e:	3f99                	.2byte	0x3f99
    2210:	3ca1                	.2byte	0x3ca1
    2212:	7efe                	.2byte	0x7efe
    2214:	a4f0                	.2byte	0xa4f0
    2216:	7e98                	.2byte	0x7e98
    2218:	9a40                	.2byte	0x9a40
    221a:	4020                	.2byte	0x4020
    221c:	8620                	.2byte	0x8620
    221e:	55c97f3f 1b637e92 	.8byte	0x1b637e9255c97f3f
    2226:	3f94                	.2byte	0x3f94
    2228:	5281                	.2byte	0x5281
    222a:	7ea9                	.2byte	0x7ea9
    222c:	7f0d                	.2byte	0x7f0d
    222e:	7e10                	.2byte	0x7e10
    2230:	489c                	.2byte	0x489c
    2232:	3fdd                	.2byte	0x3fdd
    2234:	cd55                	.2byte	0xcd55
    2236:	7e79                	.2byte	0x7e79
    2238:	fe06                	.2byte	0xfe06
    223a:	7f16                	.2byte	0x7f16
    223c:	3272                	.2byte	0x3272
    223e:	3f39                	.2byte	0x3f39
    2240:	7eda76a7          	.4byte	0x7eda76a7
    2244:	9380                	.2byte	0x9380
    2246:	7e38                	.2byte	0x7e38
    2248:	6b19                	.2byte	0x6b19
    224a:	4018                	.2byte	0x4018
    224c:	c998                	.2byte	0xc998
    224e:	a6847edb          	.4byte	0xa6847edb
    2252:	7dfa                	.2byte	0x7dfa
    2254:	4242                	.2byte	0x4242
    2256:	3ff8                	.2byte	0x3ff8
    2258:	1230                	.2byte	0x1230
    225a:	d4d87e73          	csrrc	t3,0xd4d,16
    225e:	7f2e                	.2byte	0x7f2e
    2260:	3eebab23          	sw	a4,1014(s7)
    2264:	f242                	.2byte	0xf242
    2266:	7ea0                	.2byte	0x7ea0
    2268:	2f80                	.2byte	0x2f80
    226a:	7e2a                	.2byte	0x7e2a
    226c:	e85e                	.2byte	0xe85e
    226e:	4022                	.2byte	0x4022
    2270:	7ed89913          	.4byte	0x7ed89913
    2274:	1c59                	.2byte	0x1c59
    2276:	7e95                	.2byte	0x7e95
    2278:	1231                	.2byte	0x1231
    227a:	53c03f13          	sltiu	t5,zero,1340
    227e:	f0487e2b          	.4byte	0xf0487e2b
    2282:	ec947de7          	.4byte	0xec947de7
    2286:	4070                	.2byte	0x4070
    2288:	479c                	.2byte	0x479c
    228a:	7eda                	.2byte	0x7eda
    228c:	dc85                	.2byte	0xdc85
    228e:	7de6                	.2byte	0x7de6
    2290:	e8a0                	.2byte	0xe8a0
    2292:	59a93fef          	jal	t6,9582c <_end+0x92aec>
    2296:	7e58                	.2byte	0x7e58
    2298:	7cbb3e27          	.4byte	0x7cbb3e27
    229c:	ecfa                	.2byte	0xecfa
    229e:	4189                	.2byte	0x4189
    22a0:	7ec9c32f          	.4byte	0x7ec9c32f
    22a4:	3d35                	.2byte	0x3d35
    22a6:	11787d63          	bgeu	a6,s7,23c0 <test_fp+0x3bc>
    22aa:	40e1                	.2byte	0x40e1
    22ac:	c84e                	.2byte	0xc84e
    22ae:	e6597ec7          	.4byte	0xe6597ec7
    22b2:	7ebd                	.2byte	0x7ebd
    22b4:	3e1bacb3          	.4byte	0x3e1bacb3
    22b8:	7d66f527          	.4byte	0x7d66f527
    22bc:	18a0                	.2byte	0x18a0
    22be:	7ed2                	.2byte	0x7ed2
    22c0:	3f592123          	sw	s5,994(s2)
    22c4:	3212                	.2byte	0x3212
    22c6:	7eb2                	.2byte	0x7eb2
    22c8:	73a9                	.2byte	0x73a9
    22ca:	7f0c                	.2byte	0x7f0c
    22cc:	a10c                	.2byte	0xa10c
    22ce:	3e1f 2863 7daf      	.byte	0x1f, 0x3e, 0x63, 0x28, 0xaf, 0x7d
    22d4:	e545                	.2byte	0xe545
    22d6:	54b27e83          	.4byte	0x54b27e83
    22da:	5f0a3e67          	.4byte	0x5f0a3e67
    22de:	7d6e                	.2byte	0x7d6e
    22e0:	5c6a                	.2byte	0x5c6a
    22e2:	7f36                	.2byte	0x7f36
    22e4:	db59                	.2byte	0xdb59
    22e6:	3f3c                	.2byte	0x3f3c
    22e8:	881f 7f06 a9e8      	.byte	0x1f, 0x88, 0x06, 0x7f, 0xe8, 0xa9
    22ee:	7f3e                	.2byte	0x7f3e
    22f0:	4378                	.2byte	0x4378
    22f2:	3f45                	.2byte	0x3f45
    22f4:	eaff 7f12 4484 7e8e 	.byte	0xff, 0xea, 0x12, 0x7f, 0x84, 0x44, 0x8e, 0x7e, 0xdf, 0xe7, 0x0f, 0x3e, 0x44, 0xf2, 0x1f, 0x7d, 0xb3, 0xfc, 0xc8, 0x7c, 0x76, 0x84
    22fc:	e7df 3e0f f244 7d1f 
    2304:	fcb3 7cc8 8476 
    230a:	40a9                	.2byte	0x40a9
    230c:	16d1                	.2byte	0x16d1
    230e:	7e05                	.2byte	0x7e05
    2310:	363e                	.2byte	0x363e
    2312:	7ef5                	.2byte	0x7ef5
    2314:	ade2                	.2byte	0xade2
    2316:	3f56                	.2byte	0x3f56
    2318:	a1e6                	.2byte	0xa1e6
    231a:	7ecd                	.2byte	0x7ecd
    231c:	8c5d                	.2byte	0x8c5d
    231e:	83f47d83          	.4byte	0x83f47d83
    2322:	4118                	.2byte	0x4118
    2324:	7f1cbe4b          	.4byte	0x7f1cbe4b
    2328:	7f310e27          	.4byte	0x7f310e27
    232c:	bfdf 3d0d 12ff      	.byte	0xdf, 0xbf, 0x0d, 0x3d, 0xff, 0x12
    2332:	7cc4                	.2byte	0x7cc4
    2334:	7f3983ab          	.4byte	0x7f3983ab
    2338:	39df 3ee4 6335      	.byte	0xdf, 0x39, 0xe4, 0x3e, 0x35, 0x63
    233e:	7ea5                	.2byte	0x7ea5
    2340:	c049                	.2byte	0xc049
    2342:	7f24                	.2byte	0x7f24
    2344:	3ea6f4cf          	.4byte	0x3ea6f4cf
    2348:	e479                	.2byte	0xe479
    234a:	7e56                	.2byte	0x7e56
    234c:	6ab9                	.2byte	0x6ab9
    234e:	7f34                	.2byte	0x7f34
    2350:	3db66217          	auipc	tp,0x3db66
    2354:	8901                	.2byte	0x8901
    2356:	7d80                	.2byte	0x7d80
    2358:	7f3bca6f          	jal	s4,bf34a <_end+0xbc60a>
    235c:	c04d                	.2byte	0xc04d
    235e:	3e95                	.2byte	0x3e95
    2360:	7e5bb3c7          	.4byte	0x7e5bb3c7
    2364:	983d                	.2byte	0x983d
    2366:	16087d43          	.4byte	0x16087d43
    236a:	4149                	.2byte	0x4149
    236c:	a35e                	.2byte	0xa35e
    236e:	7f19                	.2byte	0x7f19
    2370:	47d6                	.2byte	0x47d6
    2372:	7e54                	.2byte	0x7e54
    2374:	4024f81b          	.4byte	0x4024f81b
    2378:	cbc1                	.2byte	0xcbc1
    237a:	7f08                	.2byte	0x7f08
    237c:	7f1578bb          	.4byte	0x7f1578bb
    2380:	0440                	.2byte	0x440
    2382:	ad9e3f13          	sltiu	t5,t3,-1319
    2386:	7c127eab          	.4byte	0x7c127eab
    238a:	7f2e                	.2byte	0x7f2e
    238c:	3ef864d3          	.4byte	0x3ef864d3
    2390:	7ea94ceb          	.4byte	0x7ea94ceb
    2394:	7dd28ae7          	jalr	s5,2013(t0)
    2398:	3da9                	.2byte	0x3da9
    239a:	40dc                	.2byte	0x40dc
    239c:	2215                	.2byte	0x2215
    239e:	7f35                	.2byte	0x7f35
    23a0:	35ac                	.2byte	0x35ac
    23a2:	7f05                	.2byte	0x7f05
    23a4:	fe69                	.2byte	0xfe69
    23a6:	3f91                	.2byte	0x3f91
    23a8:	ef92                	.2byte	0xef92
    23aa:	83377f17          	auipc	t5,0x83377
    23ae:	87827f2b          	.4byte	0x87827f2b
    23b2:	3f01                	.2byte	0x3f01
    23b4:	8fd1                	.2byte	0x8fd1
    23b6:	7ead                	.2byte	0x7ead
    23b8:	fd0c                	.2byte	0xfd0c
    23ba:	7f2e                	.2byte	0x7f2e
    23bc:	f82d                	.2byte	0xf82d
    23be:	3f7e                	.2byte	0x3f7e
    23c0:	48b6                	.2byte	0x48b6
    23c2:	7f2e                	.2byte	0x7f2e
    23c4:	7d8052ab          	.4byte	0x7d8052ab
    23c8:	40ecc2eb          	.4byte	0x40ecc2eb
    23cc:	5bd5                	.2byte	0x5bd5
    23ce:	7eed                	.2byte	0x7eed
    23d0:	1508                	.2byte	0x1508
    23d2:	cb437dc3          	.4byte	0xcb437dc3
    23d6:	40d1                	.2byte	0x40d1
    23d8:	df11                	.2byte	0xdf11
    23da:	7f1f 9c9d 7ef1      	.byte	0x1f, 0x7f, 0x9d, 0x9c, 0xf1, 0x7e
    23e0:	aeb4                	.2byte	0xaeb4
    23e2:	3f8e                	.2byte	0x3f8e
    23e4:	a9c2                	.2byte	0xa9c2
    23e6:	7f06                	.2byte	0x7f06
    23e8:	ae90                	.2byte	0xae90
    23ea:	7eb1                	.2byte	0x7eb1
    23ec:	da00                	.2byte	0xda00
    23ee:	3ff8                	.2byte	0x3ff8
    23f0:	7f2cb86b          	.4byte	0x7f2cb86b
    23f4:	f156                	.2byte	0xf156
    23f6:	7da1                	.2byte	0x7da1
    23f8:	f0a5                	.2byte	0xf0a5
    23fa:	e62040c3          	.4byte	0xe62040c3
    23fe:	27a37ef7          	.4byte	0x27a37ef7
    2402:	7ef1                	.2byte	0x7ef1
    2404:	3e1eb06b          	.4byte	0x3e1eb06b
    2408:	7d957ca7          	.4byte	0x7d957ca7
    240c:	ed41                	.2byte	0xed41
    240e:	7ee8                	.2byte	0x7ee8
    2410:	3e738f77          	.4byte	0x3e738f77
    2414:	9bbd                	.2byte	0x9bbd
    2416:	7ddd                	.2byte	0x7ddd
    2418:	a80c                	.2byte	0xa80c
    241a:	7dde                	.2byte	0x7dde
    241c:	408a19f7          	.4byte	0x408a19f7
    2420:	3a58                	.2byte	0x3a58
    2422:	7ef0                	.2byte	0x7ef0
    2424:	d68e                	.2byte	0xd68e
    2426:	7d99                	.2byte	0x7d99
    2428:	40674db3          	.4byte	0x40674db3
    242c:	7e8aff4b          	.4byte	0x7e8aff4b
    2430:	cf7c                	.2byte	0xcf7c
    2432:	7ebc                	.2byte	0x7ebc
    2434:	21c1                	.2byte	0x21c1
    2436:	3f74                	.2byte	0x3f74
    2438:	0ea8                	.2byte	0xea8
    243a:	7eb4                	.2byte	0x7eb4
    243c:	332e                	.2byte	0x332e
    243e:	7f16                	.2byte	0x7f16
    2440:	1bd2                	.2byte	0x1bd2
    2442:	3f85                	.2byte	0x3f85
    2444:	31d4                	.2byte	0x31d4
    2446:	7f1c                	.2byte	0x7f1c
    2448:	8edc                	.2byte	0x8edc
    244a:	28417eeb          	.4byte	0x28417eeb
    244e:	3f30                	.2byte	0x3f30
    2450:	1741                	.2byte	0x1741
    2452:	7ea2                	.2byte	0x7ea2
    2454:	7e13f0eb          	.4byte	0x7e13f0eb
    2458:	617d                	.2byte	0x617d
    245a:	409d                	.2byte	0x409d
    245c:	e62e                	.2byte	0xe62e
    245e:	7f35                	.2byte	0x7f35
    2460:	ded1                	.2byte	0xded1
    2462:	6e927f23          	.4byte	0x6e927f23
    2466:	3d95                	.2byte	0x3d95
    2468:	4eee                	.2byte	0x4eee
    246a:	03297d3f e82c7e8b 	.8byte	0xe82c7e8b03297d3f
    2472:	4025                	.2byte	0x4025
    2474:	2e39                	.2byte	0x2e39
    2476:	7f34                	.2byte	0x7f34
    2478:	3fe4                	.2byte	0x3fe4
    247a:	7dac                	.2byte	0x7dac
    247c:	0748                	.2byte	0x748
    247e:	40cd                	.2byte	0x40cd
    2480:	f410                	.2byte	0xf410
    2482:	7f09                	.2byte	0x7f09
    2484:	031d                	.2byte	0x31d
    2486:	7cb9                	.2byte	0x7cb9
    2488:	41cd83ab          	.4byte	0x41cd83ab
    248c:	7f1486a7          	.4byte	0x7f1486a7
    2490:	8d9d                	.2byte	0x8d9d
    2492:	7eac                	.2byte	0x7eac
    2494:	21ad                	.2byte	0x21ad
    2496:	3e02                	.2byte	0x3e02
    2498:	7d2f6d3b          	.4byte	0x7d2f6d3b
    249c:	7e5f5397          	auipc	t2,0x7e5f5
    24a0:	726c                	.2byte	0x726c
    24a2:	3cae                	.2byte	0x3cae
    24a4:	7b982ea3          	sw	s9,1981(a6)
    24a8:	571c                	.2byte	0x571c
    24aa:	7f18                	.2byte	0x7f18
    24ac:	18df 3f97 d45e      	.byte	0xdf, 0x18, 0x97, 0x3f, 0x5e, 0xd4
    24b2:	f0ab7f33          	.4byte	0xf0ab7f33
    24b6:	7e98                	.2byte	0x7e98
    24b8:	3f9cd557          	.4byte	0x3f9cd557
    24bc:	643a                	.2byte	0x643a
    24be:	90667ebb          	.4byte	0x90667ebb
    24c2:	e51c7ee7          	.4byte	0xe51c7ee7
    24c6:	d8c63f07          	.4byte	0xd8c63f07
    24ca:	7e75                	.2byte	0x7e75
    24cc:	3b25                	.2byte	0x3b25
    24ce:	7f31                	.2byte	0x7f31
    24d0:	93fc                	.2byte	0x93fc
    24d2:	3ed0                	.2byte	0x3ed0
    24d4:	6682                	.2byte	0x6682
    24d6:	7e90                	.2byte	0x7e90
    24d8:	263c                	.2byte	0x263c
    24da:	7efd                	.2byte	0x7efd
    24dc:	7c65                	.2byte	0x7c65
    24de:	3fbc                	.2byte	0x3fbc
    24e0:	7f3a6317          	auipc	t1,0x7f3a6
    24e4:	82a0                	.2byte	0x82a0
    24e6:	7f1a                	.2byte	0x7f1a
    24e8:	c01c                	.2byte	0xc01c
    24ea:	3ecd                	.2byte	0x3ecd
    24ec:	7e785d1b          	.4byte	0x7e785d1b
    24f0:	7e90f39b          	.4byte	0x7e90f39b
    24f4:	4d9f 3f4f c1db      	.byte	0x9f, 0x4d, 0x4f, 0x3f, 0xdb, 0xc1
    24fa:	7e6a                	.2byte	0x7e6a
    24fc:	7eb7c24b          	.4byte	0x7eb7c24b
    2500:	2086                	.2byte	0x2086
    2502:	3e98                	.2byte	0x3e98
    2504:	7dda656b          	.4byte	0x7dda656b
    2508:	7e4dc6a7          	.4byte	0x7e4dc6a7
    250c:	3fe2c78f          	.4byte	0x3fe2c78f
    2510:	49c8                	.2byte	0x49c8
    2512:	7eb6                	.2byte	0x7eb6
    2514:	d30c                	.2byte	0xd30c
    2516:	7f28                	.2byte	0x7f28
    2518:	3b1d                	.2byte	0x3b1d
    251a:	3f32                	.2byte	0x3f32
    251c:	1376                	.2byte	0x1376
    251e:	a8857eeb          	.4byte	0xa8857eeb
    2522:	48407e43          	fmadd.s	ft8,ft0,ft4,fs1
    2526:	3fce                	.2byte	0x3fce
    2528:	a8d4                	.2byte	0xa8d4
    252a:	7e9d                	.2byte	0x7e9d
    252c:	6385                	.2byte	0x6385
    252e:	7ead                	.2byte	0x7ead
    2530:	7a19                	.2byte	0x7a19
    2532:	19404003          	lbu	zero,404(zero) # 194 <inst_4+0x4>
    2536:	7f32                	.2byte	0x7f32
    2538:	a492                	.2byte	0xa492
    253a:	7e8a                	.2byte	0x7e8a
    253c:	bca1                	.2byte	0xbca1
    253e:	3f35                	.2byte	0x3f35
    2540:	7e44d907          	.4byte	0x7e44d907
    2544:	b054                	.2byte	0xb054
    2546:	7dbd                	.2byte	0x7dbd
    2548:	ba96                	.2byte	0xba96
    254a:	4098                	.2byte	0x4098
    254c:	7ee255e7          	.4byte	0x7ee255e7
    2550:	31c2                	.2byte	0x31c2
    2552:	7e04                	.2byte	0x7e04
    2554:	2039                	.2byte	0x2039
    2556:	3e02                	.2byte	0x3e02
    2558:	63d1                	.2byte	0x63d1
    255a:	7c86                	.2byte	0x7c86
    255c:	4351                	.2byte	0x4351
    255e:	c9e97ebb          	.4byte	0xc9e97ebb
    2562:	3fcd                	.2byte	0x3fcd
    2564:	889a                	.2byte	0x889a
    2566:	7f16                	.2byte	0x7f16
    2568:	7f0f54bf 3eb6502d 	.8byte	0x3eb6502d7f0f54bf
    2570:	7e4c2647          	.4byte	0x7e4c2647
    2574:	149a                	.2byte	0x149a
    2576:	7e9d                	.2byte	0x7e9d
    2578:	1bda                	.2byte	0x1bda
    257a:	fd653e57          	.4byte	0xfd653e57
    257e:	d6487d83          	.4byte	0xd6487d83
    2582:	7eb4                	.2byte	0x7eb4
    2584:	3fbfcdc7          	.4byte	0x3fbfcdc7
    2588:	7d3c                	.2byte	0x7d3c
    258a:	d9d97f07          	.4byte	0xd9d97f07
    258e:	7f18                	.2byte	0x7f18
    2590:	3f262663          	.4byte	0x3f262663
    2594:	685d                	.2byte	0x685d
    2596:	7ec6                	.2byte	0x7ec6
    2598:	b8f9                	.2byte	0xb8f9
    259a:	ee417eab          	.4byte	0xee417eab
    259e:	3fed                	.2byte	0x3fed
    25a0:	9a10                	.2byte	0x9a10
    25a2:	7f1f ae82 7f00      	.byte	0x1f, 0x7f, 0x82, 0xae, 0x00, 0x7f
    25a8:	e1b5                	.2byte	0xe1b5
    25aa:	3fa9                	.2byte	0x3fa9
    25ac:	c951                	.2byte	0xc951
    25ae:	7f2a                	.2byte	0x7f2a
    25b0:	0464                	.2byte	0x464
    25b2:	7f3c                	.2byte	0x7f3c
    25b4:	41a6                	.2byte	0x41a6
    25b6:	3f69                	.2byte	0x3f69
    25b8:	5036                	.2byte	0x5036
    25ba:	58cf7f2b          	.4byte	0x58cf7f2b
    25be:	7f3c                	.2byte	0x7f3c
    25c0:	090a                	.2byte	0x90a
    25c2:	3e80                	.2byte	0x3e80
    25c4:	661c                	.2byte	0x661c
    25c6:	7e3c                	.2byte	0x7e3c
    25c8:	4ac6                	.2byte	0x4ac6
    25ca:	70e27f0f          	.4byte	0x70e27f0f
    25ce:	3f08                	.2byte	0x3f08
    25d0:	bdd1                	.2byte	0xbdd1
    25d2:	7e98                	.2byte	0x7e98
    25d4:	7d255773          	csrrw	a4,0x7d2,10
    25d8:	40fb6dc7          	fmsub.s	fs11,fs6,fa5,fs0,unknown
    25dc:	63a5                	.2byte	0x63a5
    25de:	7ea2                	.2byte	0x7ea2
    25e0:	d171                	.2byte	0xd171
    25e2:	7dc2                	.2byte	0x7dc2
    25e4:	4426                	.2byte	0x4426
    25e6:	40fc                	.2byte	0x40fc
    25e8:	7f3ffa07          	.4byte	0x7f3ffa07
    25ec:	ec66                	.2byte	0xec66
    25ee:	7e90                	.2byte	0x7e90
    25f0:	fd1f 3f83 7088      	.byte	0x1f, 0xfd, 0x83, 0x3f, 0x88, 0x70
    25f6:	7e95                	.2byte	0x7e95
    25f8:	2e8d                	.2byte	0x2e8d
    25fa:	7eee                	.2byte	0x7eee
    25fc:	b106                	.2byte	0xb106
    25fe:	3efc                	.2byte	0x3efc
    2600:	7e6b1a87          	.4byte	0x7e6b1a87
    2604:	ad2c                	.2byte	0xad2c
    2606:	7e7f                	.2byte	0x7e7f
    2608:	df2e                	.2byte	0xdf2e
    260a:	402d                	.2byte	0x402d
    260c:	a6ed                	.2byte	0xa6ed
    260e:	7f2d                	.2byte	0x7f2d
    2610:	6314                	.2byte	0x6314
    2612:	7f15                	.2byte	0x7f15
    2614:	9b9f 3cb3 9e2f      	.byte	0x9f, 0x9b, 0xb3, 0x3c, 0x2f, 0x9e
    261a:	7c51                	.2byte	0x7c51
    261c:	7f060f17          	auipc	t5,0x7f060
    2620:	ec96                	.2byte	0xec96
    2622:	3c92                	.2byte	0x3c92
    2624:	e100                	.2byte	0xe100
    2626:	7c19                	.2byte	0x7c19
    2628:	311f 7e21 f6ba      	.byte	0x1f, 0x31, 0x21, 0x7e, 0xba, 0xf6
    262e:	2efb4083          	lbu	ra,751(s6)
    2632:	7f26                	.2byte	0x7f26
    2634:	c1fe                	.2byte	0xc1fe
    2636:	7eb9                	.2byte	0x7eb9
    2638:	2c1f 3e92 214e      	.byte	0x1f, 0x2c, 0x92, 0x3e, 0x4e, 0x21
    263e:	7dd4                	.2byte	0x7dd4
    2640:	d4df 7e6f dc16      	.byte	0xdf, 0xd4, 0x6f, 0x7e, 0x16, 0xdc
    2646:	3f20                	.2byte	0x3f20
    2648:	7e16b33b          	.4byte	0x7e16b33b
    264c:	7db37137          	lui	sp,0x7db37
    2650:	88f6                	.2byte	0x88f6
    2652:	40b5                	.2byte	0x40b5
    2654:	7efe7e1b          	.4byte	0x7efe7e1b
    2658:	f9a2                	.2byte	0xf9a2
    265a:	7f28                	.2byte	0x7f28
    265c:	3f18ca47          	.4byte	0x3f18ca47
    2660:	b378                	.2byte	0xb378
    2662:	7ec9                	.2byte	0x7ec9
    2664:	3c76                	.2byte	0x3c76
    2666:	7ee2                	.2byte	0x7ee2
    2668:	e23d                	.2byte	0xe23d
    266a:	c28b3e1b          	.4byte	0xc28b3e1b
    266e:	7d89                	.2byte	0x7d89
    2670:	1228                	.2byte	0x1228
    2672:	77d27ee7          	.4byte	0x77d27ee7
    2676:	3f01                	.2byte	0x3f01
    2678:	b89c                	.2byte	0xb89c
    267a:	7e69                	.2byte	0x7e69
    267c:	9fe8                	.2byte	0x9fe8
    267e:	7cae                	.2byte	0x7cae
    2680:	6f55                	.2byte	0x6f55
    2682:	c4bf414b          	.4byte	0xc4bf414b
    2686:	7e8a                	.2byte	0x7e8a
    2688:	a82d                	.2byte	0xa82d
    268a:	7f1a                	.2byte	0x7f1a
    268c:	2701                	.2byte	0x2701
    268e:	76c83f9b          	.4byte	0x76c83f9b
    2692:	83fc7f3b          	.4byte	0x83fc7f3b
    2696:	97907ef7          	.4byte	0x97907ef7
    269a:	3f8a                	.2byte	0x3f8a
    269c:	ffb0                	.2byte	0xffb0
    269e:	7f05                	.2byte	0x7f05
    26a0:	a04a                	.2byte	0xa04a
    26a2:	7f2e                	.2byte	0x7f2e
    26a4:	dbda                	.2byte	0xdbda
    26a6:	3f10                	.2byte	0x3f10
    26a8:	a044                	.2byte	0xa044
    26aa:	7ec5                	.2byte	0x7ec5
    26ac:	62c0                	.2byte	0x62c0
    26ae:	7e8a                	.2byte	0x7e8a
    26b0:	a532                	.2byte	0xa532
    26b2:	4025                	.2byte	0x4025
    26b4:	15e5                	.2byte	0x15e5
    26b6:	457f7f33          	.4byte	0x457f7f33
    26ba:	7e1a                	.2byte	0x7e1a
    26bc:	d100                	.2byte	0xd100
    26be:	4050                	.2byte	0x4050
    26c0:	acd4                	.2byte	0xacd4
    26c2:	a9e27efb          	.4byte	0xa9e27efb
    26c6:	7f36                	.2byte	0x7f36
    26c8:	3f1e600b          	.4byte	0x3f1e600b
    26cc:	7ee202c3          	.4byte	0x7ee202c3
    26d0:	7ef3cf0f          	.4byte	0x7ef3cf0f
    26d4:	3eeacfa3          	.4byte	0x3eeacfa3
    26d8:	7e5fa103          	lw	sp,2021(t6)
    26dc:	0bf1                	.2byte	0xbf1
    26de:	7d90                	.2byte	0x7d90
    26e0:	40068d67          	jalr	s10,1024(a3)
    26e4:	6ba2                	.2byte	0x6ba2
    26e6:	849e7e17          	auipc	t3,0x849e7
    26ea:	7f1a                	.2byte	0x7f1a
    26ec:	3f0d9f1b          	.4byte	0x3f0d9f1b
    26f0:	f628                	.2byte	0xf628
    26f2:	7eaa                	.2byte	0x7eaa
    26f4:	0e02                	.2byte	0xe02
    26f6:	7bec7d8f          	.4byte	0x7bec7d8f
    26fa:	4109                	.2byte	0x4109
    26fc:	a77e                	.2byte	0xa77e
    26fe:	7f19                	.2byte	0x7f19
    2700:	1a29                	.2byte	0x1a29
    2702:	7f22                	.2byte	0x7f22
    2704:	3ecb81fb          	.4byte	0x3ecb81fb
    2708:	dd0d                	.2byte	0xdd0d
    270a:	7e80                	.2byte	0x7e80
    270c:	3f02                	.2byte	0x3f02
    270e:	7f1a                	.2byte	0x7f1a
    2710:	8069                	.2byte	0x8069
    2712:	3f5a                	.2byte	0x3f5a
    2714:	7f03a707          	flw	fa4,2032(t2) # 7e5f7c8c <_end+0x7e5f4f4c>
    2718:	9574                	.2byte	0x9574
    271a:	7f1a                	.2byte	0x7f1a
    271c:	da1a                	.2byte	0xda1a
    271e:	3ea8                	.2byte	0x3ea8
    2720:	7e4beb8f          	.4byte	0x7e4beb8f
    2724:	365e                	.2byte	0x365e
    2726:	7e14                	.2byte	0x7e14
    2728:	403798bb          	.4byte	0x403798bb
    272c:	9695                	.2byte	0x9695
    272e:	7ed4                	.2byte	0x7ed4
    2730:	b58d                	.2byte	0xb58d
    2732:	7ece                	.2byte	0x7ece
    2734:	2e36                	.2byte	0x2e36
    2736:	3fa2                	.2byte	0x3fa2
    2738:	f434                	.2byte	0xf434
    273a:	7f02                	.2byte	0x7f02
    273c:	2059                	.2byte	0x2059
    273e:	7f0c                	.2byte	0x7f0c
    2740:	387d                	.2byte	0x387d
    2742:	3f11                	.2byte	0x3f11
    2744:	fa7c                	.2byte	0xfa7c
    2746:	7e9e                	.2byte	0x7e9e
    2748:	6e9f 7e51 33f6      	.byte	0x9f, 0x6e, 0x51, 0x7e, 0xf6, 0x33
    274e:	403c                	.2byte	0x403c
    2750:	7f19f7bf 7e8f4b27 	.8byte	0x7e8f4b277f19f7bf
    2758:	15cd                	.2byte	0x15cd
    275a:	4004                	.2byte	0x4004
    275c:	dde9                	.2byte	0xdde9
    275e:	93df7f13          	and	t5,t5,-1731
    2762:	7eb4                	.2byte	0x7eb4
    2764:	cb22                	.2byte	0xcb22
    2766:	3fce                	.2byte	0x3fce
    2768:	7f11de47          	.4byte	0x7f11de47
    276c:	79b19f1b          	.4byte	0x79b19f1b
    2770:	44b76ad3          	.4byte	0x44b76ad3
    2774:	85b6                	.2byte	0x85b6
    2776:	7efe                	.2byte	0x7efe
    2778:	7eba40d7          	.4byte	0x7eba40d7
    277c:	1548                	.2byte	0x1548
    277e:	3f0a                	.2byte	0x3f0a
    2780:	ecdf 7e48 7cb7      	.byte	0xdf, 0xec, 0x48, 0x7e, 0xb7, 0x7c
    2786:	7eb8                	.2byte	0x7eb8
    2788:	f35d                	.2byte	0xf35d
    278a:	7a183f0f          	.4byte	0x7a183f0f
    278e:	6b517e4f          	.4byte	0x6b517e4f
    2792:	fd377e93          	and	t4,a4,-45
    2796:	3fc5                	.2byte	0x3fc5
    2798:	06cc                	.2byte	0x6cc
    279a:	7ee4                	.2byte	0x7ee4
    279c:	a7c1                	.2byte	0xa7c1
    279e:	f5fd7e0b          	.4byte	0xf5fd7e0b
    27a2:	9e8040ab          	.4byte	0x9e8040ab
    27a6:	55e57f3b          	.4byte	0x55e57f3b
    27aa:	ac557dcb          	.4byte	0xac557dcb
    27ae:	404a                	.2byte	0x404a
    27b0:	faa9                	.2byte	0xfaa9
    27b2:	7ea0                	.2byte	0x7ea0
    27b4:	7ee2d797          	auipc	a5,0x7ee2d
    27b8:	cffe                	.2byte	0xcffe
    27ba:	3eec                	.2byte	0x3eec
    27bc:	d70d                	.2byte	0xd70d
    27be:	7e51                	.2byte	0x7e51
    27c0:	7f1f0a23          	sb	a7,2036(t5) # 7f062e10 <_end+0x7f0600d0>
    27c4:	6415                	.2byte	0x6415
    27c6:	3dd8                	.2byte	0x3dd8
    27c8:	6eba                	.2byte	0x6eba
    27ca:	7d86                	.2byte	0x7d86
    27cc:	2a61                	.2byte	0x2a61
    27ce:	7d51                	.2byte	0x7d51
    27d0:	3a11                	.2byte	0x3a11
    27d2:	a8353d1b          	.4byte	0xa8353d1b
    27d6:	7afd                	.2byte	0x7afd
    27d8:	1e0c                	.2byte	0x1e0c
    27da:	7dd6                	.2byte	0x7dd6
    27dc:	6484                	.2byte	0x6484
    27de:	3d90                	.2byte	0x3d90
    27e0:	7bf189f3          	.4byte	0x7bf189f3
    27e4:	d54d                	.2byte	0xd54d
    27e6:	7f1f a0e8 3d7e      	.byte	0x1f, 0x7f, 0xe8, 0xa0, 0x7e, 0x3d
    27ec:	fa19                	.2byte	0xfa19
    27ee:	7d1e                	.2byte	0x7d1e

000027f0 <data_begin>:
    27f0:	deadbeef          	jal	t4,fffdddda <_end+0xfffdb09a>
    27f4:	deadbeef          	jal	t4,fffdddde <_end+0xfffdb09e>
    27f8:	deadbeef          	jal	t4,fffddde2 <_end+0xfffdb0a2>
    27fc:	deadbeef          	jal	t4,fffddde6 <_end+0xfffdb0a6>
    2800:	deadbeef          	jal	t4,fffdddea <_end+0xfffdb0aa>
    2804:	deadbeef          	jal	t4,fffdddee <_end+0xfffdb0ae>
    2808:	deadbeef          	jal	t4,fffdddf2 <_end+0xfffdb0b2>
    280c:	deadbeef          	jal	t4,fffdddf6 <_end+0xfffdb0b6>
    2810:	deadbeef          	jal	t4,fffdddfa <_end+0xfffdb0ba>
    2814:	deadbeef          	jal	t4,fffdddfe <_end+0xfffdb0be>
    2818:	deadbeef          	jal	t4,fffdde02 <_end+0xfffdb0c2>
    281c:	deadbeef          	jal	t4,fffdde06 <_end+0xfffdb0c6>
    2820:	deadbeef          	jal	t4,fffdde0a <_end+0xfffdb0ca>
    2824:	deadbeef          	jal	t4,fffdde0e <_end+0xfffdb0ce>
    2828:	deadbeef          	jal	t4,fffdde12 <_end+0xfffdb0d2>
    282c:	deadbeef          	jal	t4,fffdde16 <_end+0xfffdb0d6>
    2830:	deadbeef          	jal	t4,fffdde1a <_end+0xfffdb0da>
    2834:	deadbeef          	jal	t4,fffdde1e <_end+0xfffdb0de>
    2838:	deadbeef          	jal	t4,fffdde22 <_end+0xfffdb0e2>
    283c:	deadbeef          	jal	t4,fffdde26 <_end+0xfffdb0e6>
    2840:	deadbeef          	jal	t4,fffdde2a <_end+0xfffdb0ea>
    2844:	deadbeef          	jal	t4,fffdde2e <_end+0xfffdb0ee>
    2848:	deadbeef          	jal	t4,fffdde32 <_end+0xfffdb0f2>
    284c:	deadbeef          	jal	t4,fffdde36 <_end+0xfffdb0f6>
    2850:	deadbeef          	jal	t4,fffdde3a <_end+0xfffdb0fa>
    2854:	deadbeef          	jal	t4,fffdde3e <_end+0xfffdb0fe>
    2858:	deadbeef          	jal	t4,fffdde42 <_end+0xfffdb102>
    285c:	deadbeef          	jal	t4,fffdde46 <_end+0xfffdb106>
    2860:	deadbeef          	jal	t4,fffdde4a <_end+0xfffdb10a>
    2864:	deadbeef          	jal	t4,fffdde4e <_end+0xfffdb10e>
    2868:	deadbeef          	jal	t4,fffdde52 <_end+0xfffdb112>
    286c:	deadbeef          	jal	t4,fffdde56 <_end+0xfffdb116>
    2870:	deadbeef          	jal	t4,fffdde5a <_end+0xfffdb11a>
    2874:	deadbeef          	jal	t4,fffdde5e <_end+0xfffdb11e>
    2878:	deadbeef          	jal	t4,fffdde62 <_end+0xfffdb122>
    287c:	deadbeef          	jal	t4,fffdde66 <_end+0xfffdb126>
    2880:	deadbeef          	jal	t4,fffdde6a <_end+0xfffdb12a>
    2884:	deadbeef          	jal	t4,fffdde6e <_end+0xfffdb12e>
    2888:	deadbeef          	jal	t4,fffdde72 <_end+0xfffdb132>
    288c:	deadbeef          	jal	t4,fffdde76 <_end+0xfffdb136>
    2890:	deadbeef          	jal	t4,fffdde7a <_end+0xfffdb13a>
    2894:	deadbeef          	jal	t4,fffdde7e <_end+0xfffdb13e>
    2898:	deadbeef          	jal	t4,fffdde82 <_end+0xfffdb142>
    289c:	deadbeef          	jal	t4,fffdde86 <_end+0xfffdb146>
    28a0:	deadbeef          	jal	t4,fffdde8a <_end+0xfffdb14a>
    28a4:	deadbeef          	jal	t4,fffdde8e <_end+0xfffdb14e>
    28a8:	deadbeef          	jal	t4,fffdde92 <_end+0xfffdb152>
    28ac:	deadbeef          	jal	t4,fffdde96 <_end+0xfffdb156>
    28b0:	deadbeef          	jal	t4,fffdde9a <_end+0xfffdb15a>
    28b4:	deadbeef          	jal	t4,fffdde9e <_end+0xfffdb15e>
    28b8:	deadbeef          	jal	t4,fffddea2 <_end+0xfffdb162>
    28bc:	deadbeef          	jal	t4,fffddea6 <_end+0xfffdb166>
    28c0:	deadbeef          	jal	t4,fffddeaa <_end+0xfffdb16a>
    28c4:	deadbeef          	jal	t4,fffddeae <_end+0xfffdb16e>
    28c8:	deadbeef          	jal	t4,fffddeb2 <_end+0xfffdb172>
    28cc:	deadbeef          	jal	t4,fffddeb6 <_end+0xfffdb176>
    28d0:	deadbeef          	jal	t4,fffddeba <_end+0xfffdb17a>
    28d4:	deadbeef          	jal	t4,fffddebe <_end+0xfffdb17e>
    28d8:	deadbeef          	jal	t4,fffddec2 <_end+0xfffdb182>
    28dc:	deadbeef          	jal	t4,fffddec6 <_end+0xfffdb186>
    28e0:	deadbeef          	jal	t4,fffddeca <_end+0xfffdb18a>
    28e4:	deadbeef          	jal	t4,fffddece <_end+0xfffdb18e>
    28e8:	deadbeef          	jal	t4,fffdded2 <_end+0xfffdb192>
    28ec:	deadbeef          	jal	t4,fffdded6 <_end+0xfffdb196>
    28f0:	deadbeef          	jal	t4,fffddeda <_end+0xfffdb19a>
    28f4:	deadbeef          	jal	t4,fffddede <_end+0xfffdb19e>
    28f8:	deadbeef          	jal	t4,fffddee2 <_end+0xfffdb1a2>
    28fc:	deadbeef          	jal	t4,fffddee6 <_end+0xfffdb1a6>
    2900:	deadbeef          	jal	t4,fffddeea <_end+0xfffdb1aa>
    2904:	deadbeef          	jal	t4,fffddeee <_end+0xfffdb1ae>
    2908:	deadbeef          	jal	t4,fffddef2 <_end+0xfffdb1b2>
    290c:	deadbeef          	jal	t4,fffddef6 <_end+0xfffdb1b6>
    2910:	deadbeef          	jal	t4,fffddefa <_end+0xfffdb1ba>
    2914:	deadbeef          	jal	t4,fffddefe <_end+0xfffdb1be>
    2918:	deadbeef          	jal	t4,fffddf02 <_end+0xfffdb1c2>
    291c:	deadbeef          	jal	t4,fffddf06 <_end+0xfffdb1c6>
    2920:	deadbeef          	jal	t4,fffddf0a <_end+0xfffdb1ca>
    2924:	deadbeef          	jal	t4,fffddf0e <_end+0xfffdb1ce>
    2928:	deadbeef          	jal	t4,fffddf12 <_end+0xfffdb1d2>
    292c:	deadbeef          	jal	t4,fffddf16 <_end+0xfffdb1d6>
    2930:	deadbeef          	jal	t4,fffddf1a <_end+0xfffdb1da>
    2934:	deadbeef          	jal	t4,fffddf1e <_end+0xfffdb1de>
    2938:	deadbeef          	jal	t4,fffddf22 <_end+0xfffdb1e2>
    293c:	deadbeef          	jal	t4,fffddf26 <_end+0xfffdb1e6>
    2940:	deadbeef          	jal	t4,fffddf2a <_end+0xfffdb1ea>
    2944:	deadbeef          	jal	t4,fffddf2e <_end+0xfffdb1ee>
    2948:	deadbeef          	jal	t4,fffddf32 <_end+0xfffdb1f2>
    294c:	deadbeef          	jal	t4,fffddf36 <_end+0xfffdb1f6>
    2950:	deadbeef          	jal	t4,fffddf3a <_end+0xfffdb1fa>
    2954:	deadbeef          	jal	t4,fffddf3e <_end+0xfffdb1fe>
    2958:	deadbeef          	jal	t4,fffddf42 <_end+0xfffdb202>
    295c:	deadbeef          	jal	t4,fffddf46 <_end+0xfffdb206>
    2960:	deadbeef          	jal	t4,fffddf4a <_end+0xfffdb20a>
    2964:	deadbeef          	jal	t4,fffddf4e <_end+0xfffdb20e>
    2968:	deadbeef          	jal	t4,fffddf52 <_end+0xfffdb212>
    296c:	deadbeef          	jal	t4,fffddf56 <_end+0xfffdb216>
    2970:	deadbeef          	jal	t4,fffddf5a <_end+0xfffdb21a>
    2974:	deadbeef          	jal	t4,fffddf5e <_end+0xfffdb21e>
    2978:	deadbeef          	jal	t4,fffddf62 <_end+0xfffdb222>
    297c:	deadbeef          	jal	t4,fffddf66 <_end+0xfffdb226>
    2980:	deadbeef          	jal	t4,fffddf6a <_end+0xfffdb22a>
    2984:	deadbeef          	jal	t4,fffddf6e <_end+0xfffdb22e>
    2988:	deadbeef          	jal	t4,fffddf72 <_end+0xfffdb232>
    298c:	deadbeef          	jal	t4,fffddf76 <_end+0xfffdb236>
    2990:	deadbeef          	jal	t4,fffddf7a <_end+0xfffdb23a>
    2994:	deadbeef          	jal	t4,fffddf7e <_end+0xfffdb23e>
    2998:	deadbeef          	jal	t4,fffddf82 <_end+0xfffdb242>
    299c:	deadbeef          	jal	t4,fffddf86 <_end+0xfffdb246>
    29a0:	deadbeef          	jal	t4,fffddf8a <_end+0xfffdb24a>
    29a4:	deadbeef          	jal	t4,fffddf8e <_end+0xfffdb24e>
    29a8:	deadbeef          	jal	t4,fffddf92 <_end+0xfffdb252>
    29ac:	deadbeef          	jal	t4,fffddf96 <_end+0xfffdb256>
    29b0:	deadbeef          	jal	t4,fffddf9a <_end+0xfffdb25a>
    29b4:	deadbeef          	jal	t4,fffddf9e <_end+0xfffdb25e>
    29b8:	deadbeef          	jal	t4,fffddfa2 <_end+0xfffdb262>
    29bc:	deadbeef          	jal	t4,fffddfa6 <_end+0xfffdb266>
    29c0:	deadbeef          	jal	t4,fffddfaa <_end+0xfffdb26a>
    29c4:	deadbeef          	jal	t4,fffddfae <_end+0xfffdb26e>
    29c8:	deadbeef          	jal	t4,fffddfb2 <_end+0xfffdb272>
    29cc:	deadbeef          	jal	t4,fffddfb6 <_end+0xfffdb276>
    29d0:	deadbeef          	jal	t4,fffddfba <_end+0xfffdb27a>
    29d4:	deadbeef          	jal	t4,fffddfbe <_end+0xfffdb27e>
    29d8:	deadbeef          	jal	t4,fffddfc2 <_end+0xfffdb282>
    29dc:	deadbeef          	jal	t4,fffddfc6 <_end+0xfffdb286>
    29e0:	deadbeef          	jal	t4,fffddfca <_end+0xfffdb28a>
    29e4:	deadbeef          	jal	t4,fffddfce <_end+0xfffdb28e>
    29e8:	deadbeef          	jal	t4,fffddfd2 <_end+0xfffdb292>
    29ec:	deadbeef          	jal	t4,fffddfd6 <_end+0xfffdb296>
    29f0:	deadbeef          	jal	t4,fffddfda <_end+0xfffdb29a>
    29f4:	deadbeef          	jal	t4,fffddfde <_end+0xfffdb29e>
    29f8:	deadbeef          	jal	t4,fffddfe2 <_end+0xfffdb2a2>
    29fc:	deadbeef          	jal	t4,fffddfe6 <_end+0xfffdb2a6>
    2a00:	deadbeef          	jal	t4,fffddfea <_end+0xfffdb2aa>
    2a04:	deadbeef          	jal	t4,fffddfee <_end+0xfffdb2ae>
    2a08:	deadbeef          	jal	t4,fffddff2 <_end+0xfffdb2b2>
    2a0c:	deadbeef          	jal	t4,fffddff6 <_end+0xfffdb2b6>
    2a10:	deadbeef          	jal	t4,fffddffa <_end+0xfffdb2ba>
    2a14:	deadbeef          	jal	t4,fffddffe <_end+0xfffdb2be>
    2a18:	deadbeef          	jal	t4,fffde002 <_end+0xfffdb2c2>
    2a1c:	deadbeef          	jal	t4,fffde006 <_end+0xfffdb2c6>
    2a20:	deadbeef          	jal	t4,fffde00a <_end+0xfffdb2ca>
    2a24:	deadbeef          	jal	t4,fffde00e <_end+0xfffdb2ce>
    2a28:	deadbeef          	jal	t4,fffde012 <_end+0xfffdb2d2>
    2a2c:	deadbeef          	jal	t4,fffde016 <_end+0xfffdb2d6>
    2a30:	deadbeef          	jal	t4,fffde01a <_end+0xfffdb2da>
    2a34:	deadbeef          	jal	t4,fffde01e <_end+0xfffdb2de>
    2a38:	deadbeef          	jal	t4,fffde022 <_end+0xfffdb2e2>
    2a3c:	deadbeef          	jal	t4,fffde026 <_end+0xfffdb2e6>
    2a40:	deadbeef          	jal	t4,fffde02a <_end+0xfffdb2ea>
    2a44:	deadbeef          	jal	t4,fffde02e <_end+0xfffdb2ee>
    2a48:	deadbeef          	jal	t4,fffde032 <_end+0xfffdb2f2>
    2a4c:	deadbeef          	jal	t4,fffde036 <_end+0xfffdb2f6>
    2a50:	deadbeef          	jal	t4,fffde03a <_end+0xfffdb2fa>
    2a54:	deadbeef          	jal	t4,fffde03e <_end+0xfffdb2fe>
    2a58:	deadbeef          	jal	t4,fffde042 <_end+0xfffdb302>
    2a5c:	deadbeef          	jal	t4,fffde046 <_end+0xfffdb306>
    2a60:	deadbeef          	jal	t4,fffde04a <_end+0xfffdb30a>
    2a64:	deadbeef          	jal	t4,fffde04e <_end+0xfffdb30e>
    2a68:	deadbeef          	jal	t4,fffde052 <_end+0xfffdb312>
    2a6c:	deadbeef          	jal	t4,fffde056 <_end+0xfffdb316>
    2a70:	deadbeef          	jal	t4,fffde05a <_end+0xfffdb31a>
    2a74:	deadbeef          	jal	t4,fffde05e <_end+0xfffdb31e>
    2a78:	deadbeef          	jal	t4,fffde062 <_end+0xfffdb322>
    2a7c:	deadbeef          	jal	t4,fffde066 <_end+0xfffdb326>
    2a80:	deadbeef          	jal	t4,fffde06a <_end+0xfffdb32a>
    2a84:	deadbeef          	jal	t4,fffde06e <_end+0xfffdb32e>
    2a88:	deadbeef          	jal	t4,fffde072 <_end+0xfffdb332>
    2a8c:	deadbeef          	jal	t4,fffde076 <_end+0xfffdb336>
    2a90:	deadbeef          	jal	t4,fffde07a <_end+0xfffdb33a>
    2a94:	deadbeef          	jal	t4,fffde07e <_end+0xfffdb33e>
    2a98:	deadbeef          	jal	t4,fffde082 <_end+0xfffdb342>
    2a9c:	deadbeef          	jal	t4,fffde086 <_end+0xfffdb346>
    2aa0:	deadbeef          	jal	t4,fffde08a <_end+0xfffdb34a>
    2aa4:	deadbeef          	jal	t4,fffde08e <_end+0xfffdb34e>
    2aa8:	deadbeef          	jal	t4,fffde092 <_end+0xfffdb352>
    2aac:	deadbeef          	jal	t4,fffde096 <_end+0xfffdb356>
    2ab0:	deadbeef          	jal	t4,fffde09a <_end+0xfffdb35a>
    2ab4:	deadbeef          	jal	t4,fffde09e <_end+0xfffdb35e>
    2ab8:	deadbeef          	jal	t4,fffde0a2 <_end+0xfffdb362>
    2abc:	deadbeef          	jal	t4,fffde0a6 <_end+0xfffdb366>
    2ac0:	deadbeef          	jal	t4,fffde0aa <_end+0xfffdb36a>
    2ac4:	deadbeef          	jal	t4,fffde0ae <_end+0xfffdb36e>
    2ac8:	deadbeef          	jal	t4,fffde0b2 <_end+0xfffdb372>
    2acc:	deadbeef          	jal	t4,fffde0b6 <_end+0xfffdb376>
    2ad0:	deadbeef          	jal	t4,fffde0ba <_end+0xfffdb37a>
    2ad4:	deadbeef          	jal	t4,fffde0be <_end+0xfffdb37e>
    2ad8:	deadbeef          	jal	t4,fffde0c2 <_end+0xfffdb382>
    2adc:	deadbeef          	jal	t4,fffde0c6 <_end+0xfffdb386>
    2ae0:	deadbeef          	jal	t4,fffde0ca <_end+0xfffdb38a>
    2ae4:	deadbeef          	jal	t4,fffde0ce <_end+0xfffdb38e>
    2ae8:	deadbeef          	jal	t4,fffde0d2 <_end+0xfffdb392>
    2aec:	deadbeef          	jal	t4,fffde0d6 <_end+0xfffdb396>
    2af0:	deadbeef          	jal	t4,fffde0da <_end+0xfffdb39a>
    2af4:	deadbeef          	jal	t4,fffde0de <_end+0xfffdb39e>
    2af8:	deadbeef          	jal	t4,fffde0e2 <_end+0xfffdb3a2>
    2afc:	deadbeef          	jal	t4,fffde0e6 <_end+0xfffdb3a6>
    2b00:	deadbeef          	jal	t4,fffde0ea <_end+0xfffdb3aa>
    2b04:	deadbeef          	jal	t4,fffde0ee <_end+0xfffdb3ae>
    2b08:	deadbeef          	jal	t4,fffde0f2 <_end+0xfffdb3b2>
    2b0c:	deadbeef          	jal	t4,fffde0f6 <_end+0xfffdb3b6>
    2b10:	deadbeef          	jal	t4,fffde0fa <_end+0xfffdb3ba>
    2b14:	deadbeef          	jal	t4,fffde0fe <_end+0xfffdb3be>
    2b18:	deadbeef          	jal	t4,fffde102 <_end+0xfffdb3c2>
    2b1c:	deadbeef          	jal	t4,fffde106 <_end+0xfffdb3c6>
    2b20:	deadbeef          	jal	t4,fffde10a <_end+0xfffdb3ca>
    2b24:	deadbeef          	jal	t4,fffde10e <_end+0xfffdb3ce>
    2b28:	deadbeef          	jal	t4,fffde112 <_end+0xfffdb3d2>
    2b2c:	deadbeef          	jal	t4,fffde116 <_end+0xfffdb3d6>
    2b30:	deadbeef          	jal	t4,fffde11a <_end+0xfffdb3da>
    2b34:	deadbeef          	jal	t4,fffde11e <_end+0xfffdb3de>
    2b38:	deadbeef          	jal	t4,fffde122 <_end+0xfffdb3e2>
    2b3c:	deadbeef          	jal	t4,fffde126 <_end+0xfffdb3e6>
    2b40:	deadbeef          	jal	t4,fffde12a <_end+0xfffdb3ea>
    2b44:	deadbeef          	jal	t4,fffde12e <_end+0xfffdb3ee>
    2b48:	deadbeef          	jal	t4,fffde132 <_end+0xfffdb3f2>
    2b4c:	deadbeef          	jal	t4,fffde136 <_end+0xfffdb3f6>
    2b50:	deadbeef          	jal	t4,fffde13a <_end+0xfffdb3fa>
    2b54:	deadbeef          	jal	t4,fffde13e <_end+0xfffdb3fe>
    2b58:	deadbeef          	jal	t4,fffde142 <_end+0xfffdb402>
    2b5c:	deadbeef          	jal	t4,fffde146 <_end+0xfffdb406>
    2b60:	deadbeef          	jal	t4,fffde14a <_end+0xfffdb40a>
    2b64:	deadbeef          	jal	t4,fffde14e <_end+0xfffdb40e>
    2b68:	deadbeef          	jal	t4,fffde152 <_end+0xfffdb412>
    2b6c:	deadbeef          	jal	t4,fffde156 <_end+0xfffdb416>
    2b70:	deadbeef          	jal	t4,fffde15a <_end+0xfffdb41a>
    2b74:	deadbeef          	jal	t4,fffde15e <_end+0xfffdb41e>
    2b78:	deadbeef          	jal	t4,fffde162 <_end+0xfffdb422>
    2b7c:	deadbeef          	jal	t4,fffde166 <_end+0xfffdb426>
    2b80:	deadbeef          	jal	t4,fffde16a <_end+0xfffdb42a>
    2b84:	deadbeef          	jal	t4,fffde16e <_end+0xfffdb42e>
    2b88:	deadbeef          	jal	t4,fffde172 <_end+0xfffdb432>
    2b8c:	deadbeef          	jal	t4,fffde176 <_end+0xfffdb436>
    2b90:	deadbeef          	jal	t4,fffde17a <_end+0xfffdb43a>
    2b94:	deadbeef          	jal	t4,fffde17e <_end+0xfffdb43e>
    2b98:	deadbeef          	jal	t4,fffde182 <_end+0xfffdb442>
    2b9c:	deadbeef          	jal	t4,fffde186 <_end+0xfffdb446>
    2ba0:	deadbeef          	jal	t4,fffde18a <_end+0xfffdb44a>
    2ba4:	deadbeef          	jal	t4,fffde18e <_end+0xfffdb44e>
    2ba8:	deadbeef          	jal	t4,fffde192 <_end+0xfffdb452>
    2bac:	deadbeef          	jal	t4,fffde196 <_end+0xfffdb456>
    2bb0:	deadbeef          	jal	t4,fffde19a <_end+0xfffdb45a>
    2bb4:	deadbeef          	jal	t4,fffde19e <_end+0xfffdb45e>
    2bb8:	deadbeef          	jal	t4,fffde1a2 <_end+0xfffdb462>
    2bbc:	deadbeef          	jal	t4,fffde1a6 <_end+0xfffdb466>
    2bc0:	deadbeef          	jal	t4,fffde1aa <_end+0xfffdb46a>
    2bc4:	deadbeef          	jal	t4,fffde1ae <_end+0xfffdb46e>
    2bc8:	deadbeef          	jal	t4,fffde1b2 <_end+0xfffdb472>
    2bcc:	deadbeef          	jal	t4,fffde1b6 <_end+0xfffdb476>
    2bd0:	deadbeef          	jal	t4,fffde1ba <_end+0xfffdb47a>
    2bd4:	deadbeef          	jal	t4,fffde1be <_end+0xfffdb47e>
    2bd8:	deadbeef          	jal	t4,fffde1c2 <_end+0xfffdb482>
    2bdc:	deadbeef          	jal	t4,fffde1c6 <_end+0xfffdb486>
    2be0:	deadbeef          	jal	t4,fffde1ca <_end+0xfffdb48a>
    2be4:	deadbeef          	jal	t4,fffde1ce <_end+0xfffdb48e>
    2be8:	deadbeef          	jal	t4,fffde1d2 <_end+0xfffdb492>
    2bec:	deadbeef          	jal	t4,fffde1d6 <_end+0xfffdb496>
    2bf0:	deadbeef          	jal	t4,fffde1da <_end+0xfffdb49a>
    2bf4:	deadbeef          	jal	t4,fffde1de <_end+0xfffdb49e>
    2bf8:	deadbeef          	jal	t4,fffde1e2 <_end+0xfffdb4a2>
    2bfc:	deadbeef          	jal	t4,fffde1e6 <_end+0xfffdb4a6>
    2c00:	deadbeef          	jal	t4,fffde1ea <_end+0xfffdb4aa>
    2c04:	deadbeef          	jal	t4,fffde1ee <_end+0xfffdb4ae>
    2c08:	deadbeef          	jal	t4,fffde1f2 <_end+0xfffdb4b2>
    2c0c:	deadbeef          	jal	t4,fffde1f6 <_end+0xfffdb4b6>
    2c10:	deadbeef          	jal	t4,fffde1fa <_end+0xfffdb4ba>
    2c14:	deadbeef          	jal	t4,fffde1fe <_end+0xfffdb4be>
    2c18:	deadbeef          	jal	t4,fffde202 <_end+0xfffdb4c2>
    2c1c:	deadbeef          	jal	t4,fffde206 <_end+0xfffdb4c6>
    2c20:	deadbeef          	jal	t4,fffde20a <_end+0xfffdb4ca>
    2c24:	deadbeef          	jal	t4,fffde20e <_end+0xfffdb4ce>
    2c28:	deadbeef          	jal	t4,fffde212 <_end+0xfffdb4d2>
    2c2c:	deadbeef          	jal	t4,fffde216 <_end+0xfffdb4d6>
    2c30:	deadbeef          	jal	t4,fffde21a <_end+0xfffdb4da>
    2c34:	deadbeef          	jal	t4,fffde21e <_end+0xfffdb4de>
    2c38:	deadbeef          	jal	t4,fffde222 <_end+0xfffdb4e2>
    2c3c:	deadbeef          	jal	t4,fffde226 <_end+0xfffdb4e6>
    2c40:	deadbeef          	jal	t4,fffde22a <_end+0xfffdb4ea>
    2c44:	deadbeef          	jal	t4,fffde22e <_end+0xfffdb4ee>
    2c48:	deadbeef          	jal	t4,fffde232 <_end+0xfffdb4f2>
    2c4c:	deadbeef          	jal	t4,fffde236 <_end+0xfffdb4f6>
    2c50:	deadbeef          	jal	t4,fffde23a <_end+0xfffdb4fa>
    2c54:	deadbeef          	jal	t4,fffde23e <_end+0xfffdb4fe>
    2c58:	deadbeef          	jal	t4,fffde242 <_end+0xfffdb502>
    2c5c:	deadbeef          	jal	t4,fffde246 <_end+0xfffdb506>
    2c60:	deadbeef          	jal	t4,fffde24a <_end+0xfffdb50a>
    2c64:	deadbeef          	jal	t4,fffde24e <_end+0xfffdb50e>
    2c68:	deadbeef          	jal	t4,fffde252 <_end+0xfffdb512>
    2c6c:	deadbeef          	jal	t4,fffde256 <_end+0xfffdb516>
    2c70:	deadbeef          	jal	t4,fffde25a <_end+0xfffdb51a>
    2c74:	deadbeef          	jal	t4,fffde25e <_end+0xfffdb51e>
    2c78:	deadbeef          	jal	t4,fffde262 <_end+0xfffdb522>
    2c7c:	deadbeef          	jal	t4,fffde266 <_end+0xfffdb526>
    2c80:	deadbeef          	jal	t4,fffde26a <_end+0xfffdb52a>
    2c84:	deadbeef          	jal	t4,fffde26e <_end+0xfffdb52e>
    2c88:	deadbeef          	jal	t4,fffde272 <_end+0xfffdb532>
    2c8c:	deadbeef          	jal	t4,fffde276 <_end+0xfffdb536>
    2c90:	deadbeef          	jal	t4,fffde27a <_end+0xfffdb53a>
    2c94:	deadbeef          	jal	t4,fffde27e <_end+0xfffdb53e>
    2c98:	deadbeef          	jal	t4,fffde282 <_end+0xfffdb542>
    2c9c:	deadbeef          	jal	t4,fffde286 <_end+0xfffdb546>
    2ca0:	deadbeef          	jal	t4,fffde28a <_end+0xfffdb54a>
    2ca4:	deadbeef          	jal	t4,fffde28e <_end+0xfffdb54e>
    2ca8:	deadbeef          	jal	t4,fffde292 <_end+0xfffdb552>
    2cac:	deadbeef          	jal	t4,fffde296 <_end+0xfffdb556>
    2cb0:	deadbeef          	jal	t4,fffde29a <_end+0xfffdb55a>
    2cb4:	deadbeef          	jal	t4,fffde29e <_end+0xfffdb55e>
    2cb8:	deadbeef          	jal	t4,fffde2a2 <_end+0xfffdb562>
    2cbc:	deadbeef          	jal	t4,fffde2a6 <_end+0xfffdb566>
    2cc0:	deadbeef          	jal	t4,fffde2aa <_end+0xfffdb56a>
    2cc4:	deadbeef          	jal	t4,fffde2ae <_end+0xfffdb56e>
    2cc8:	deadbeef          	jal	t4,fffde2b2 <_end+0xfffdb572>
    2ccc:	deadbeef          	jal	t4,fffde2b6 <_end+0xfffdb576>
    2cd0:	deadbeef          	jal	t4,fffde2ba <_end+0xfffdb57a>
    2cd4:	deadbeef          	jal	t4,fffde2be <_end+0xfffdb57e>
    2cd8:	deadbeef          	jal	t4,fffde2c2 <_end+0xfffdb582>
    2cdc:	deadbeef          	jal	t4,fffde2c6 <_end+0xfffdb586>
    2ce0:	deadbeef          	jal	t4,fffde2ca <_end+0xfffdb58a>
    2ce4:	deadbeef          	jal	t4,fffde2ce <_end+0xfffdb58e>
    2ce8:	deadbeef          	jal	t4,fffde2d2 <_end+0xfffdb592>
    2cec:	deadbeef          	jal	t4,fffde2d6 <_end+0xfffdb596>
    2cf0:	deadbeef          	jal	t4,fffde2da <_end+0xfffdb59a>
    2cf4:	deadbeef          	jal	t4,fffde2de <_end+0xfffdb59e>
    2cf8:	deadbeef          	jal	t4,fffde2e2 <_end+0xfffdb5a2>
    2cfc:	deadbeef          	jal	t4,fffde2e6 <_end+0xfffdb5a6>
    2d00:	deadbeef          	jal	t4,fffde2ea <_end+0xfffdb5aa>
    2d04:	deadbeef          	jal	t4,fffde2ee <_end+0xfffdb5ae>
    2d08:	deadbeef          	jal	t4,fffde2f2 <_end+0xfffdb5b2>
    2d0c:	deadbeef          	jal	t4,fffde2f6 <_end+0xfffdb5b6>
    2d10:	deadbeef          	jal	t4,fffde2fa <_end+0xfffdb5ba>
    2d14:	deadbeef          	jal	t4,fffde2fe <_end+0xfffdb5be>
    2d18:	deadbeef          	jal	t4,fffde302 <_end+0xfffdb5c2>
    2d1c:	deadbeef          	jal	t4,fffde306 <_end+0xfffdb5c6>
    2d20:	deadbeef          	jal	t4,fffde30a <_end+0xfffdb5ca>
    2d24:	deadbeef          	jal	t4,fffde30e <_end+0xfffdb5ce>
    2d28:	deadbeef          	jal	t4,fffde312 <_end+0xfffdb5d2>
    2d2c:	deadbeef          	jal	t4,fffde316 <_end+0xfffdb5d6>
    2d30:	deadbeef          	jal	t4,fffde31a <_end+0xfffdb5da>
    2d34:	deadbeef          	jal	t4,fffde31e <_end+0xfffdb5de>
	...

Desensamblado de la sección .riscv.attributes:

00000000 <.riscv.attributes>:
   0:	2241                	.2byte	0x2241
   2:	0000                	.2byte	0x0
   4:	7200                	.2byte	0x7200
   6:	7369                	.2byte	0x7369
   8:	01007663          	bgeu	zero,a6,14 <rvtest_entry_point+0x14>
   c:	0018                	.2byte	0x18
   e:	0000                	.2byte	0x0
  10:	7205                	.2byte	0x7205
  12:	3376                	.2byte	0x3376
  14:	6932                	.2byte	0x6932
  16:	7032                	.2byte	0x7032
  18:	5f30                	.2byte	0x5f30
  1a:	3266                	.2byte	0x3266
  1c:	3070                	.2byte	0x3070
  1e:	0800                	.2byte	0x800
  20:	0a01                	.2byte	0xa01
  22:	0b              	Address 0x22 is out of bounds.

