
/home/alejandro/Escritorio/test_riscv2.5/riscv-compliance/work/rv32i_m/F/fnmadd_b3-01.elf:     formato del fichero elf32-littleriscv


Desensamblado de la sección .text.init:

00000000 <rvtest_entry_point>:
       0:	feedc0b7          	lui	ra,0xfeedc
       4:	ead08093          	add	ra,ra,-339 # feedbead <_end+0xfeecd67d>
       8:	ff76e137          	lui	sp,0xff76e
       c:	f5610113          	add	sp,sp,-170 # ff76df56 <_end+0xff75f726>
      10:	7fbb71b7          	lui	gp,0x7fbb7
      14:	fab18193          	add	gp,gp,-85 # 7fbb6fab <_end+0x7fba877b>
      18:	bfddb237          	lui	tp,0xbfddb
      1c:	7d520213          	add	tp,tp,2005 # bfddb7d5 <_end+0xbfdccfa5>
      20:	00000297          	auipc	t0,0x0
      24:	0d828293          	add	t0,t0,216 # f8 <rvtest_code_begin>
      28:	00009317          	auipc	t1,0x9
      2c:	fd830313          	add	t1,t1,-40 # 9000 <rvtest_data_begin>
      30:	b7fbb3b7          	lui	t2,0xb7fbb
      34:	6fa38393          	add	t2,t2,1786 # b7fbb6fa <_end+0xb7faceca>
      38:	5bfde437          	lui	s0,0x5bfde
      3c:	b7d40413          	add	s0,s0,-1155 # 5bfddb7d <_end+0x5bfcf34d>
      40:	adfef4b7          	lui	s1,0xadfef
      44:	dbe48493          	add	s1,s1,-578 # adfeedbe <_end+0xadfe058e>
      48:	56ff7537          	lui	a0,0x56ff7
      4c:	6df50513          	add	a0,a0,1759 # 56ff76df <_end+0x56fe8eaf>
      50:	ab7fc5b7          	lui	a1,0xab7fc
      54:	b6f58593          	add	a1,a1,-1169 # ab7fbb6f <_end+0xab7ed33f>
      58:	d5bfe637          	lui	a2,0xd5bfe
      5c:	db760613          	add	a2,a2,-585 # d5bfddb7 <_end+0xd5bef587>
      60:	eadff6b7          	lui	a3,0xeadff
      64:	edb68693          	add	a3,a3,-293 # eadfeedb <_end+0xeadf06ab>
      68:	f56ff737          	lui	a4,0xf56ff
      6c:	76d70713          	add	a4,a4,1901 # f56ff76d <_end+0xf56f0f3d>
      70:	fab807b7          	lui	a5,0xfab80
      74:	bb678793          	add	a5,a5,-1098 # fab7fbb6 <_end+0xfab71386>
      78:	7d5c0837          	lui	a6,0x7d5c0
      7c:	ddb80813          	add	a6,a6,-549 # 7d5bfddb <_end+0x7d5b15ab>
      80:	beae08b7          	lui	a7,0xbeae0
      84:	eed88893          	add	a7,a7,-275 # beadfeed <_end+0xbead16bd>
      88:	df570937          	lui	s2,0xdf570
      8c:	f7690913          	add	s2,s2,-138 # df56ff76 <_end+0xdf561746>
      90:	6fab89b7          	lui	s3,0x6fab8
      94:	fbb98993          	add	s3,s3,-69 # 6fab7fbb <_end+0x6faa978b>
      98:	b7d5ca37          	lui	s4,0xb7d5c
      9c:	fdda0a13          	add	s4,s4,-35 # b7d5bfdd <_end+0xb7d4d7ad>
      a0:	dbeaeab7          	lui	s5,0xdbeae
      a4:	feea8a93          	add	s5,s5,-18 # dbeadfee <_end+0xdbe9f7be>
      a8:	6df57b37          	lui	s6,0x6df57
      ac:	ff7b0b13          	add	s6,s6,-9 # 6df56ff7 <_end+0x6df487c7>
      b0:	b6fabbb7          	lui	s7,0xb6fab
      b4:	7fbb8b93          	add	s7,s7,2043 # b6fab7fb <_end+0xb6f9cfcb>
      b8:	db7d6c37          	lui	s8,0xdb7d6
      bc:	bfdc0c13          	add	s8,s8,-1027 # db7d5bfd <_end+0xdb7c73cd>
      c0:	edbebcb7          	lui	s9,0xedbeb
      c4:	dfec8c93          	add	s9,s9,-514 # edbeadfe <_end+0xedbdc5ce>
      c8:	76df5d37          	lui	s10,0x76df5
      cc:	6ffd0d13          	add	s10,s10,1791 # 76df56ff <_end+0x76de6ecf>
      d0:	bb6fbdb7          	lui	s11,0xbb6fb
      d4:	b7fd8d93          	add	s11,s11,-1153 # bb6fab7f <_end+0xbb6ec34f>
      d8:	ddb7de37          	lui	t3,0xddb7d
      dc:	5bfe0e13          	add	t3,t3,1471 # ddb7d5bf <_end+0xddb6ed8f>
      e0:	eedbfeb7          	lui	t4,0xeedbf
      e4:	adfe8e93          	add	t4,t4,-1313 # eedbeadf <_end+0xeedb02af>
      e8:	f76dff37          	lui	t5,0xf76df
      ec:	56ff0f13          	add	t5,t5,1391 # f76df56f <_end+0xf76d0d3f>
      f0:	fbb70fb7          	lui	t6,0xfbb70
      f4:	ab7f8f93          	add	t6,t6,-1353 # fbb6fab7 <_end+0xfbb61287>

000000f8 <rvtest_code_begin>:
      f8:	00002537          	lui	a0,0x2
      fc:	30052073          	csrs	mstatus,a0
     100:	00009817          	auipc	a6,0x9
     104:	f0480813          	add	a6,a6,-252 # 9004 <test_fp>
     108:	0000c797          	auipc	a5,0xc
     10c:	3e878793          	add	a5,a5,1000 # c4f0 <data_begin>

00000110 <inst_0>:
     110:	00082207          	flw	ft4,0(a6)
     114:	00482287          	flw	ft5,4(a6)
     118:	00882c87          	flw	fs9,8(a6)
     11c:	00205073          	fsrmi	zero,0
     120:	c85272cf          	fnmadd.s	ft5,ft4,ft5,fs9
     124:	001028f3          	frflags	a7
     128:	0057a027          	fsw	ft5,0(a5)
     12c:	0117a223          	sw	a7,4(a5)

00000130 <inst_1>:
     130:	00c82387          	flw	ft7,12(a6)
     134:	01082787          	flw	fa5,16(a6)
     138:	01482987          	flw	fs3,20(a6)
     13c:	00225073          	fsrmi	zero,4
     140:	98f3f3cf          	fnmadd.s	ft7,ft7,fa5,fs3
     144:	001028f3          	frflags	a7
     148:	0077a427          	fsw	ft7,8(a5)
     14c:	0117a623          	sw	a7,12(a5)

00000150 <inst_2>:
     150:	01882707          	flw	fa4,24(a6)
     154:	01c82707          	flw	fa4,28(a6)
     158:	02082b07          	flw	fs6,32(a6)
     15c:	0021d073          	fsrmi	zero,3
     160:	b0e7774f          	fnmadd.s	fa4,fa4,fa4,fs6
     164:	001028f3          	frflags	a7
     168:	00e7a827          	fsw	fa4,16(a5)
     16c:	0117aa23          	sw	a7,20(a5)

00000170 <inst_3>:
     170:	02482807          	flw	fa6,36(a6)
     174:	02882b07          	flw	fs6,40(a6)
     178:	02c82207          	flw	ft4,44(a6)
     17c:	00215073          	fsrmi	zero,2
     180:	21687ecf          	fnmadd.s	ft9,fa6,fs6,ft4
     184:	001028f3          	frflags	a7
     188:	01d7ac27          	fsw	ft9,24(a5)
     18c:	0117ae23          	sw	a7,28(a5)

00000190 <inst_4>:
     190:	03082587          	flw	fa1,48(a6)
     194:	03482687          	flw	fa3,52(a6)
     198:	03882687          	flw	fa3,56(a6)
     19c:	0020d073          	fsrmi	zero,1
     1a0:	68d5f6cf          	fnmadd.s	fa3,fa1,fa3,fa3
     1a4:	001028f3          	frflags	a7
     1a8:	02d7a027          	fsw	fa3,32(a5)
     1ac:	0317a223          	sw	a7,36(a5)

000001b0 <inst_5>:
     1b0:	03c82607          	flw	fa2,60(a6)
     1b4:	04082607          	flw	fa2,64(a6)
     1b8:	04482607          	flw	fa2,68(a6)
     1bc:	00205073          	fsrmi	zero,0
     1c0:	60c6744f          	fnmadd.s	fs0,fa2,fa2,fa2
     1c4:	001028f3          	frflags	a7
     1c8:	0287a427          	fsw	fs0,40(a5)
     1cc:	0317a623          	sw	a7,44(a5)

000001d0 <inst_6>:
     1d0:	04882d07          	flw	fs10,72(a6)
     1d4:	04c82d07          	flw	fs10,76(a6)
     1d8:	05082d07          	flw	fs10,80(a6)
     1dc:	00225073          	fsrmi	zero,4
     1e0:	d1ad7d4f          	fnmadd.s	fs10,fs10,fs10,fs10
     1e4:	001028f3          	frflags	a7
     1e8:	03a7a827          	fsw	fs10,48(a5)
     1ec:	0317aa23          	sw	a7,52(a5)

000001f0 <inst_7>:
     1f0:	05482507          	flw	fa0,84(a6)
     1f4:	05882c07          	flw	fs8,88(a6)
     1f8:	05c82507          	flw	fa0,92(a6)
     1fc:	0021d073          	fsrmi	zero,3
     200:	5185724f          	fnmadd.s	ft4,fa0,fs8,fa0
     204:	001028f3          	frflags	a7
     208:	0247ac27          	fsw	ft4,56(a5)
     20c:	0317ae23          	sw	a7,60(a5)

00000210 <inst_8>:
     210:	06082b07          	flw	fs6,96(a6)
     214:	06482387          	flw	ft7,100(a6)
     218:	06882387          	flw	ft7,104(a6)
     21c:	00215073          	fsrmi	zero,2
     220:	387b79cf          	fnmadd.s	fs3,fs6,ft7,ft7
     224:	001028f3          	frflags	a7
     228:	0537a027          	fsw	fs3,64(a5)
     22c:	0517a223          	sw	a7,68(a5)

00000230 <inst_9>:
     230:	06c82787          	flw	fa5,108(a6)
     234:	07082987          	flw	fs3,112(a6)
     238:	07482a07          	flw	fs4,116(a6)
     23c:	0020d073          	fsrmi	zero,1
     240:	a137fa4f          	fnmadd.s	fs4,fa5,fs3,fs4
     244:	001028f3          	frflags	a7
     248:	0547a427          	fsw	fs4,72(a5)
     24c:	0517a623          	sw	a7,76(a5)

00000250 <inst_10>:
     250:	07882a87          	flw	fs5,120(a6)
     254:	07c82a87          	flw	fs5,124(a6)
     258:	08082487          	flw	fs1,128(a6)
     25c:	00205073          	fsrmi	zero,0
     260:	495afb4f          	fnmadd.s	fs6,fs5,fs5,fs1
     264:	001028f3          	frflags	a7
     268:	0567a827          	fsw	fs6,80(a5)
     26c:	0517aa23          	sw	a7,84(a5)

00000270 <inst_11>:
     270:	08482187          	flw	ft3,132(a6)
     274:	08882307          	flw	ft6,136(a6)
     278:	08c82187          	flw	ft3,140(a6)
     27c:	00225073          	fsrmi	zero,4
     280:	1861f1cf          	fnmadd.s	ft3,ft3,ft6,ft3
     284:	001028f3          	frflags	a7
     288:	0437ac27          	fsw	ft3,88(a5)
     28c:	0517ae23          	sw	a7,92(a5)

00000290 <inst_12>:
     290:	09082307          	flw	ft6,144(a6)
     294:	09482087          	flw	ft1,148(a6)
     298:	09882e87          	flw	ft9,152(a6)
     29c:	0021d073          	fsrmi	zero,3
     2a0:	e81375cf          	fnmadd.s	fa1,ft6,ft1,ft9
     2a4:	001028f3          	frflags	a7
     2a8:	06b7a027          	fsw	fa1,96(a5)
     2ac:	0717a223          	sw	a7,100(a5)

000002b0 <inst_13>:
     2b0:	09c82c87          	flw	fs9,156(a6)
     2b4:	0a082e87          	flw	ft9,160(a6)
     2b8:	0a482f07          	flw	ft10,164(a6)
     2bc:	00215073          	fsrmi	zero,2
     2c0:	f1dcfc4f          	fnmadd.s	fs8,fs9,ft9,ft10
     2c4:	001028f3          	frflags	a7
     2c8:	0787a427          	fsw	fs8,104(a5)
     2cc:	0717a623          	sw	a7,108(a5)

000002d0 <inst_14>:
     2d0:	0a882c07          	flw	fs8,168(a6)
     2d4:	0ac82887          	flw	fa7,172(a6)
     2d8:	0b082807          	flw	fa6,176(a6)
     2dc:	0020d073          	fsrmi	zero,1
     2e0:	811c714f          	fnmadd.s	ft2,fs8,fa7,fa6
     2e4:	001028f3          	frflags	a7
     2e8:	0627a827          	fsw	ft2,112(a5)
     2ec:	0717aa23          	sw	a7,116(a5)

000002f0 <inst_15>:
     2f0:	0b482b87          	flw	fs7,180(a6)
     2f4:	0b882f07          	flw	ft10,184(a6)
     2f8:	0bc82d87          	flw	fs11,188(a6)
     2fc:	00205073          	fsrmi	zero,0
     300:	d9ebf8cf          	fnmadd.s	fa7,fs7,ft10,fs11
     304:	001028f3          	frflags	a7
     308:	0717ac27          	fsw	fa7,120(a5)
     30c:	0717ae23          	sw	a7,124(a5)

00000310 <inst_16>:
     310:	0c082287          	flw	ft5,192(a6)
     314:	0c482b87          	flw	fs7,196(a6)
     318:	0c882907          	flw	fs2,200(a6)
     31c:	00225073          	fsrmi	zero,4
     320:	9172f34f          	fnmadd.s	ft6,ft5,fs7,fs2
     324:	001028f3          	frflags	a7
     328:	0867a027          	fsw	ft6,128(a5)
     32c:	0917a223          	sw	a7,132(a5)

00000330 <inst_17>:
     330:	0cc82f87          	flw	ft11,204(a6)
     334:	0d082d87          	flw	fs11,208(a6)
     338:	0d482407          	flw	fs0,212(a6)
     33c:	0021d073          	fsrmi	zero,3
     340:	41bff4cf          	fnmadd.s	fs1,ft11,fs11,fs0
     344:	001028f3          	frflags	a7
     348:	0897a427          	fsw	fs1,136(a5)
     34c:	0917a623          	sw	a7,140(a5)

00000350 <inst_18>:
     350:	0d882f07          	flw	ft10,216(a6)
     354:	0dc82487          	flw	fs1,220(a6)
     358:	0e082307          	flw	ft6,224(a6)
     35c:	00215073          	fsrmi	zero,2
     360:	309f794f          	fnmadd.s	fs2,ft10,fs1,ft6
     364:	001028f3          	frflags	a7
     368:	0927a827          	fsw	fs2,144(a5)
     36c:	0917aa23          	sw	a7,148(a5)

00000370 <inst_19>:
     370:	0e482887          	flw	fa7,228(a6)
     374:	0e882207          	flw	ft4,232(a6)
     378:	0ec82707          	flw	fa4,236(a6)
     37c:	0020d073          	fsrmi	zero,1
     380:	7048f7cf          	fnmadd.s	fa5,fa7,ft4,fa4
     384:	001028f3          	frflags	a7
     388:	08f7ac27          	fsw	fa5,152(a5)
     38c:	0917ae23          	sw	a7,156(a5)

00000390 <inst_20>:
     390:	0f082007          	flw	ft0,240(a6)
     394:	0f482107          	flw	ft2,244(a6)
     398:	0f882087          	flw	ft1,248(a6)
     39c:	00205073          	fsrmi	zero,0
     3a0:	08207fcf          	fnmadd.s	ft11,ft0,ft2,ft1
     3a4:	001028f3          	frflags	a7
     3a8:	0bf7a027          	fsw	ft11,160(a5)
     3ac:	0b17a223          	sw	a7,164(a5)

000003b0 <inst_21>:
     3b0:	0fc82687          	flw	fa3,252(a6)
     3b4:	10082907          	flw	fs2,256(a6)
     3b8:	10482887          	flw	fa7,260(a6)
     3bc:	00225073          	fsrmi	zero,4
     3c0:	8926f0cf          	fnmadd.s	ft1,fa3,fs2,fa7
     3c4:	001028f3          	frflags	a7
     3c8:	0a17a427          	fsw	ft1,168(a5)
     3cc:	0b17a623          	sw	a7,172(a5)

000003d0 <inst_22>:
     3d0:	10882e87          	flw	ft9,264(a6)
     3d4:	10c82407          	flw	fs0,268(a6)
     3d8:	11082007          	flw	ft0,272(a6)
     3dc:	0021d073          	fsrmi	zero,3
     3e0:	008ef84f          	fnmadd.s	fa6,ft9,fs0,ft0
     3e4:	001028f3          	frflags	a7
     3e8:	0b07a827          	fsw	fa6,176(a5)
     3ec:	0b17aa23          	sw	a7,180(a5)

000003f0 <inst_23>:
     3f0:	11482087          	flw	ft1,276(a6)
     3f4:	11882a07          	flw	fs4,280(a6)
     3f8:	11c82787          	flw	fa5,284(a6)
     3fc:	00215073          	fsrmi	zero,2
     400:	7940f54f          	fnmadd.s	fa0,ft1,fs4,fa5
     404:	001028f3          	frflags	a7
     408:	0aa7ac27          	fsw	fa0,184(a5)
     40c:	0b17ae23          	sw	a7,188(a5)

00000410 <inst_24>:
     410:	12082407          	flw	fs0,288(a6)
     414:	12482587          	flw	fa1,292(a6)
     418:	12882a87          	flw	fs5,296(a6)
     41c:	0020d073          	fsrmi	zero,1
     420:	a8b47ccf          	fnmadd.s	fs9,fs0,fa1,fs5
     424:	001028f3          	frflags	a7
     428:	0d97a027          	fsw	fs9,192(a5)
     42c:	0d17a223          	sw	a7,196(a5)

00000430 <inst_25>:
     430:	12c82a07          	flw	fs4,300(a6)
     434:	13082187          	flw	ft3,304(a6)
     438:	13482e07          	flw	ft8,308(a6)
     43c:	00205073          	fsrmi	zero,0
     440:	e03a7dcf          	fnmadd.s	fs11,fs4,ft3,ft8
     444:	001028f3          	frflags	a7
     448:	0db7a427          	fsw	fs11,200(a5)
     44c:	0d17a623          	sw	a7,204(a5)

00000450 <inst_26>:
     450:	13882107          	flw	ft2,312(a6)
     454:	13c82507          	flw	fa0,316(a6)
     458:	14082587          	flw	fa1,320(a6)
     45c:	00225073          	fsrmi	zero,4
     460:	58a17f4f          	fnmadd.s	ft10,ft2,fa0,fa1
     464:	001028f3          	frflags	a7
     468:	0de7a827          	fsw	ft10,208(a5)
     46c:	0d17aa23          	sw	a7,212(a5)

00000470 <inst_27>:
     470:	14482487          	flw	fs1,324(a6)
     474:	14882807          	flw	fa6,328(a6)
     478:	14c82c07          	flw	fs8,332(a6)
     47c:	0021d073          	fsrmi	zero,3
     480:	c104fbcf          	fnmadd.s	fs7,fs1,fa6,fs8
     484:	001028f3          	frflags	a7
     488:	0d77ac27          	fsw	fs7,216(a5)
     48c:	0d17ae23          	sw	a7,220(a5)

00000490 <inst_28>:
     490:	15082907          	flw	fs2,336(a6)
     494:	15482e07          	flw	ft8,340(a6)
     498:	15882107          	flw	ft2,344(a6)
     49c:	00215073          	fsrmi	zero,2
     4a0:	11c97acf          	fnmadd.s	fs5,fs2,ft8,ft2
     4a4:	001028f3          	frflags	a7
     4a8:	0f57a027          	fsw	fs5,224(a5)
     4ac:	0f17a223          	sw	a7,228(a5)

000004b0 <inst_29>:
     4b0:	15c82d87          	flw	fs11,348(a6)
     4b4:	16082c87          	flw	fs9,352(a6)
     4b8:	16482f87          	flw	ft11,356(a6)
     4bc:	0020d073          	fsrmi	zero,1
     4c0:	f99df64f          	fnmadd.s	fa2,fs11,fs9,ft11
     4c4:	001028f3          	frflags	a7
     4c8:	0ec7a427          	fsw	fa2,232(a5)
     4cc:	0f17a623          	sw	a7,236(a5)

000004d0 <inst_30>:
     4d0:	16882987          	flw	fs3,360(a6)
     4d4:	16c82007          	flw	ft0,364(a6)
     4d8:	17082b87          	flw	fs7,368(a6)
     4dc:	00205073          	fsrmi	zero,0
     4e0:	b809fe4f          	fnmadd.s	ft8,fs3,ft0,fs7
     4e4:	001028f3          	frflags	a7
     4e8:	0fc7a827          	fsw	ft8,240(a5)
     4ec:	0f17aa23          	sw	a7,244(a5)

000004f0 <inst_31>:
     4f0:	17482e07          	flw	ft8,372(a6)
     4f4:	17882f87          	flw	ft11,376(a6)
     4f8:	17c82287          	flw	ft5,380(a6)
     4fc:	00225073          	fsrmi	zero,4
     500:	29fe704f          	fnmadd.s	ft0,ft8,ft11,ft5
     504:	001028f3          	frflags	a7
     508:	0e07ac27          	fsw	ft0,248(a5)
     50c:	0f17ae23          	sw	a7,252(a5)

00000510 <inst_32>:
     510:	18082507          	flw	fa0,384(a6)
     514:	18482587          	flw	fa1,388(a6)
     518:	18882607          	flw	fa2,392(a6)
     51c:	0021d073          	fsrmi	zero,3
     520:	60b576cf          	fnmadd.s	fa3,fa0,fa1,fa2
     524:	001028f3          	frflags	a7
     528:	10d7a027          	fsw	fa3,256(a5)
     52c:	1117a223          	sw	a7,260(a5)

00000530 <inst_33>:
     530:	18c82507          	flw	fa0,396(a6)
     534:	19082587          	flw	fa1,400(a6)
     538:	19482607          	flw	fa2,404(a6)
     53c:	00215073          	fsrmi	zero,2
     540:	60b576cf          	fnmadd.s	fa3,fa0,fa1,fa2
     544:	001028f3          	frflags	a7
     548:	10d7a427          	fsw	fa3,264(a5)
     54c:	1117a623          	sw	a7,268(a5)

00000550 <inst_34>:
     550:	19882507          	flw	fa0,408(a6)
     554:	19c82587          	flw	fa1,412(a6)
     558:	1a082607          	flw	fa2,416(a6)
     55c:	0020d073          	fsrmi	zero,1
     560:	60b576cf          	fnmadd.s	fa3,fa0,fa1,fa2
     564:	001028f3          	frflags	a7
     568:	10d7a827          	fsw	fa3,272(a5)
     56c:	1117aa23          	sw	a7,276(a5)

00000570 <inst_35>:
     570:	1a482507          	flw	fa0,420(a6)
     574:	1a882587          	flw	fa1,424(a6)
     578:	1ac82607          	flw	fa2,428(a6)
     57c:	00205073          	fsrmi	zero,0
     580:	60b576cf          	fnmadd.s	fa3,fa0,fa1,fa2
     584:	001028f3          	frflags	a7
     588:	10d7ac27          	fsw	fa3,280(a5)
     58c:	1117ae23          	sw	a7,284(a5)

00000590 <inst_36>:
     590:	1b082507          	flw	fa0,432(a6)
     594:	1b482587          	flw	fa1,436(a6)
     598:	1b882607          	flw	fa2,440(a6)
     59c:	00225073          	fsrmi	zero,4
     5a0:	60b576cf          	fnmadd.s	fa3,fa0,fa1,fa2
     5a4:	001028f3          	frflags	a7
     5a8:	12d7a027          	fsw	fa3,288(a5)
     5ac:	1317a223          	sw	a7,292(a5)

000005b0 <inst_37>:
     5b0:	1bc82507          	flw	fa0,444(a6)
     5b4:	1c082587          	flw	fa1,448(a6)
     5b8:	1c482607          	flw	fa2,452(a6)
     5bc:	0021d073          	fsrmi	zero,3
     5c0:	60b576cf          	fnmadd.s	fa3,fa0,fa1,fa2
     5c4:	001028f3          	frflags	a7
     5c8:	12d7a427          	fsw	fa3,296(a5)
     5cc:	1317a623          	sw	a7,300(a5)

000005d0 <inst_38>:
     5d0:	1c882507          	flw	fa0,456(a6)
     5d4:	1cc82587          	flw	fa1,460(a6)
     5d8:	1d082607          	flw	fa2,464(a6)
     5dc:	00215073          	fsrmi	zero,2
     5e0:	60b576cf          	fnmadd.s	fa3,fa0,fa1,fa2
     5e4:	001028f3          	frflags	a7
     5e8:	12d7a827          	fsw	fa3,304(a5)
     5ec:	1317aa23          	sw	a7,308(a5)

000005f0 <inst_39>:
     5f0:	1d482507          	flw	fa0,468(a6)
     5f4:	1d882587          	flw	fa1,472(a6)
     5f8:	1dc82607          	flw	fa2,476(a6)
     5fc:	0020d073          	fsrmi	zero,1
     600:	60b576cf          	fnmadd.s	fa3,fa0,fa1,fa2
     604:	001028f3          	frflags	a7
     608:	12d7ac27          	fsw	fa3,312(a5)
     60c:	1317ae23          	sw	a7,316(a5)

00000610 <inst_40>:
     610:	1e082507          	flw	fa0,480(a6)
     614:	1e482587          	flw	fa1,484(a6)
     618:	1e882607          	flw	fa2,488(a6)
     61c:	00205073          	fsrmi	zero,0
     620:	60b576cf          	fnmadd.s	fa3,fa0,fa1,fa2
     624:	001028f3          	frflags	a7
     628:	14d7a027          	fsw	fa3,320(a5)
     62c:	1517a223          	sw	a7,324(a5)

00000630 <inst_41>:
     630:	1ec82507          	flw	fa0,492(a6)
     634:	1f082587          	flw	fa1,496(a6)
     638:	1f482607          	flw	fa2,500(a6)
     63c:	00225073          	fsrmi	zero,4
     640:	60b576cf          	fnmadd.s	fa3,fa0,fa1,fa2
     644:	001028f3          	frflags	a7
     648:	14d7a427          	fsw	fa3,328(a5)
     64c:	1517a623          	sw	a7,332(a5)

00000650 <inst_42>:
     650:	1f882507          	flw	fa0,504(a6)
     654:	1fc82587          	flw	fa1,508(a6)
     658:	20082607          	flw	fa2,512(a6)
     65c:	0021d073          	fsrmi	zero,3
     660:	60b576cf          	fnmadd.s	fa3,fa0,fa1,fa2
     664:	001028f3          	frflags	a7
     668:	14d7a827          	fsw	fa3,336(a5)
     66c:	1517aa23          	sw	a7,340(a5)

00000670 <inst_43>:
     670:	20482507          	flw	fa0,516(a6)
     674:	20882587          	flw	fa1,520(a6)
     678:	20c82607          	flw	fa2,524(a6)
     67c:	00215073          	fsrmi	zero,2
     680:	60b576cf          	fnmadd.s	fa3,fa0,fa1,fa2
     684:	001028f3          	frflags	a7
     688:	14d7ac27          	fsw	fa3,344(a5)
     68c:	1517ae23          	sw	a7,348(a5)

00000690 <inst_44>:
     690:	21082507          	flw	fa0,528(a6)
     694:	21482587          	flw	fa1,532(a6)
     698:	21882607          	flw	fa2,536(a6)
     69c:	0020d073          	fsrmi	zero,1
     6a0:	60b576cf          	fnmadd.s	fa3,fa0,fa1,fa2
     6a4:	001028f3          	frflags	a7
     6a8:	16d7a027          	fsw	fa3,352(a5)
     6ac:	1717a223          	sw	a7,356(a5)

000006b0 <inst_45>:
     6b0:	21c82507          	flw	fa0,540(a6)
     6b4:	22082587          	flw	fa1,544(a6)
     6b8:	22482607          	flw	fa2,548(a6)
     6bc:	00205073          	fsrmi	zero,0
     6c0:	60b576cf          	fnmadd.s	fa3,fa0,fa1,fa2
     6c4:	001028f3          	frflags	a7
     6c8:	16d7a427          	fsw	fa3,360(a5)
     6cc:	1717a623          	sw	a7,364(a5)

000006d0 <inst_46>:
     6d0:	22882507          	flw	fa0,552(a6)
     6d4:	22c82587          	flw	fa1,556(a6)
     6d8:	23082607          	flw	fa2,560(a6)
     6dc:	00225073          	fsrmi	zero,4
     6e0:	60b576cf          	fnmadd.s	fa3,fa0,fa1,fa2
     6e4:	001028f3          	frflags	a7
     6e8:	16d7a827          	fsw	fa3,368(a5)
     6ec:	1717aa23          	sw	a7,372(a5)

000006f0 <inst_47>:
     6f0:	23482507          	flw	fa0,564(a6)
     6f4:	23882587          	flw	fa1,568(a6)
     6f8:	23c82607          	flw	fa2,572(a6)
     6fc:	0021d073          	fsrmi	zero,3
     700:	60b576cf          	fnmadd.s	fa3,fa0,fa1,fa2
     704:	001028f3          	frflags	a7
     708:	16d7ac27          	fsw	fa3,376(a5)
     70c:	1717ae23          	sw	a7,380(a5)

00000710 <inst_48>:
     710:	24082507          	flw	fa0,576(a6)
     714:	24482587          	flw	fa1,580(a6)
     718:	24882607          	flw	fa2,584(a6)
     71c:	00215073          	fsrmi	zero,2
     720:	60b576cf          	fnmadd.s	fa3,fa0,fa1,fa2
     724:	001028f3          	frflags	a7
     728:	18d7a027          	fsw	fa3,384(a5)
     72c:	1917a223          	sw	a7,388(a5)

00000730 <inst_49>:
     730:	24c82507          	flw	fa0,588(a6)
     734:	25082587          	flw	fa1,592(a6)
     738:	25482607          	flw	fa2,596(a6)
     73c:	0020d073          	fsrmi	zero,1
     740:	60b576cf          	fnmadd.s	fa3,fa0,fa1,fa2
     744:	001028f3          	frflags	a7
     748:	18d7a427          	fsw	fa3,392(a5)
     74c:	1917a623          	sw	a7,396(a5)

00000750 <inst_50>:
     750:	25882507          	flw	fa0,600(a6)
     754:	25c82587          	flw	fa1,604(a6)
     758:	26082607          	flw	fa2,608(a6)
     75c:	00205073          	fsrmi	zero,0
     760:	60b576cf          	fnmadd.s	fa3,fa0,fa1,fa2
     764:	001028f3          	frflags	a7
     768:	18d7a827          	fsw	fa3,400(a5)
     76c:	1917aa23          	sw	a7,404(a5)

00000770 <inst_51>:
     770:	26482507          	flw	fa0,612(a6)
     774:	26882587          	flw	fa1,616(a6)
     778:	26c82607          	flw	fa2,620(a6)
     77c:	00225073          	fsrmi	zero,4
     780:	60b576cf          	fnmadd.s	fa3,fa0,fa1,fa2
     784:	001028f3          	frflags	a7
     788:	18d7ac27          	fsw	fa3,408(a5)
     78c:	1917ae23          	sw	a7,412(a5)

00000790 <inst_52>:
     790:	27082507          	flw	fa0,624(a6)
     794:	27482587          	flw	fa1,628(a6)
     798:	27882607          	flw	fa2,632(a6)
     79c:	0021d073          	fsrmi	zero,3
     7a0:	60b576cf          	fnmadd.s	fa3,fa0,fa1,fa2
     7a4:	001028f3          	frflags	a7
     7a8:	1ad7a027          	fsw	fa3,416(a5)
     7ac:	1b17a223          	sw	a7,420(a5)

000007b0 <inst_53>:
     7b0:	27c82507          	flw	fa0,636(a6)
     7b4:	28082587          	flw	fa1,640(a6)
     7b8:	28482607          	flw	fa2,644(a6)
     7bc:	00215073          	fsrmi	zero,2
     7c0:	60b576cf          	fnmadd.s	fa3,fa0,fa1,fa2
     7c4:	001028f3          	frflags	a7
     7c8:	1ad7a427          	fsw	fa3,424(a5)
     7cc:	1b17a623          	sw	a7,428(a5)

000007d0 <inst_54>:
     7d0:	28882507          	flw	fa0,648(a6)
     7d4:	28c82587          	flw	fa1,652(a6)
     7d8:	29082607          	flw	fa2,656(a6)
     7dc:	0020d073          	fsrmi	zero,1
     7e0:	60b576cf          	fnmadd.s	fa3,fa0,fa1,fa2
     7e4:	001028f3          	frflags	a7
     7e8:	1ad7a827          	fsw	fa3,432(a5)
     7ec:	1b17aa23          	sw	a7,436(a5)

000007f0 <inst_55>:
     7f0:	29482507          	flw	fa0,660(a6)
     7f4:	29882587          	flw	fa1,664(a6)
     7f8:	29c82607          	flw	fa2,668(a6)
     7fc:	00205073          	fsrmi	zero,0
     800:	60b576cf          	fnmadd.s	fa3,fa0,fa1,fa2
     804:	001028f3          	frflags	a7
     808:	1ad7ac27          	fsw	fa3,440(a5)
     80c:	1b17ae23          	sw	a7,444(a5)

00000810 <inst_56>:
     810:	2a082507          	flw	fa0,672(a6)
     814:	2a482587          	flw	fa1,676(a6)
     818:	2a882607          	flw	fa2,680(a6)
     81c:	00225073          	fsrmi	zero,4
     820:	60b576cf          	fnmadd.s	fa3,fa0,fa1,fa2
     824:	001028f3          	frflags	a7
     828:	1cd7a027          	fsw	fa3,448(a5)
     82c:	1d17a223          	sw	a7,452(a5)

00000830 <inst_57>:
     830:	2ac82507          	flw	fa0,684(a6)
     834:	2b082587          	flw	fa1,688(a6)
     838:	2b482607          	flw	fa2,692(a6)
     83c:	0021d073          	fsrmi	zero,3
     840:	60b576cf          	fnmadd.s	fa3,fa0,fa1,fa2
     844:	001028f3          	frflags	a7
     848:	1cd7a427          	fsw	fa3,456(a5)
     84c:	1d17a623          	sw	a7,460(a5)

00000850 <inst_58>:
     850:	2b882507          	flw	fa0,696(a6)
     854:	2bc82587          	flw	fa1,700(a6)
     858:	2c082607          	flw	fa2,704(a6)
     85c:	00215073          	fsrmi	zero,2
     860:	60b576cf          	fnmadd.s	fa3,fa0,fa1,fa2
     864:	001028f3          	frflags	a7
     868:	1cd7a827          	fsw	fa3,464(a5)
     86c:	1d17aa23          	sw	a7,468(a5)

00000870 <inst_59>:
     870:	2c482507          	flw	fa0,708(a6)
     874:	2c882587          	flw	fa1,712(a6)
     878:	2cc82607          	flw	fa2,716(a6)
     87c:	0020d073          	fsrmi	zero,1
     880:	60b576cf          	fnmadd.s	fa3,fa0,fa1,fa2
     884:	001028f3          	frflags	a7
     888:	1cd7ac27          	fsw	fa3,472(a5)
     88c:	1d17ae23          	sw	a7,476(a5)

00000890 <inst_60>:
     890:	2d082507          	flw	fa0,720(a6)
     894:	2d482587          	flw	fa1,724(a6)
     898:	2d882607          	flw	fa2,728(a6)
     89c:	00205073          	fsrmi	zero,0
     8a0:	60b576cf          	fnmadd.s	fa3,fa0,fa1,fa2
     8a4:	001028f3          	frflags	a7
     8a8:	1ed7a027          	fsw	fa3,480(a5)
     8ac:	1f17a223          	sw	a7,484(a5)

000008b0 <inst_61>:
     8b0:	2dc82507          	flw	fa0,732(a6)
     8b4:	2e082587          	flw	fa1,736(a6)
     8b8:	2e482607          	flw	fa2,740(a6)
     8bc:	00225073          	fsrmi	zero,4
     8c0:	60b576cf          	fnmadd.s	fa3,fa0,fa1,fa2
     8c4:	001028f3          	frflags	a7
     8c8:	1ed7a427          	fsw	fa3,488(a5)
     8cc:	1f17a623          	sw	a7,492(a5)

000008d0 <inst_62>:
     8d0:	2e882507          	flw	fa0,744(a6)
     8d4:	2ec82587          	flw	fa1,748(a6)
     8d8:	2f082607          	flw	fa2,752(a6)
     8dc:	0021d073          	fsrmi	zero,3
     8e0:	60b576cf          	fnmadd.s	fa3,fa0,fa1,fa2
     8e4:	001028f3          	frflags	a7
     8e8:	1ed7a827          	fsw	fa3,496(a5)
     8ec:	1f17aa23          	sw	a7,500(a5)

000008f0 <inst_63>:
     8f0:	2f482507          	flw	fa0,756(a6)
     8f4:	2f882587          	flw	fa1,760(a6)
     8f8:	2fc82607          	flw	fa2,764(a6)
     8fc:	00215073          	fsrmi	zero,2
     900:	60b576cf          	fnmadd.s	fa3,fa0,fa1,fa2
     904:	001028f3          	frflags	a7
     908:	1ed7ac27          	fsw	fa3,504(a5)
     90c:	1f17ae23          	sw	a7,508(a5)

00000910 <inst_64>:
     910:	30082507          	flw	fa0,768(a6)
     914:	30482587          	flw	fa1,772(a6)
     918:	30882607          	flw	fa2,776(a6)
     91c:	0020d073          	fsrmi	zero,1
     920:	60b576cf          	fnmadd.s	fa3,fa0,fa1,fa2
     924:	001028f3          	frflags	a7
     928:	20d7a027          	fsw	fa3,512(a5)
     92c:	2117a223          	sw	a7,516(a5)

00000930 <inst_65>:
     930:	30c82507          	flw	fa0,780(a6)
     934:	31082587          	flw	fa1,784(a6)
     938:	31482607          	flw	fa2,788(a6)
     93c:	00205073          	fsrmi	zero,0
     940:	60b576cf          	fnmadd.s	fa3,fa0,fa1,fa2
     944:	001028f3          	frflags	a7
     948:	20d7a427          	fsw	fa3,520(a5)
     94c:	2117a623          	sw	a7,524(a5)

00000950 <inst_66>:
     950:	31882507          	flw	fa0,792(a6)
     954:	31c82587          	flw	fa1,796(a6)
     958:	32082607          	flw	fa2,800(a6)
     95c:	00225073          	fsrmi	zero,4
     960:	60b576cf          	fnmadd.s	fa3,fa0,fa1,fa2
     964:	001028f3          	frflags	a7
     968:	20d7a827          	fsw	fa3,528(a5)
     96c:	2117aa23          	sw	a7,532(a5)

00000970 <inst_67>:
     970:	32482507          	flw	fa0,804(a6)
     974:	32882587          	flw	fa1,808(a6)
     978:	32c82607          	flw	fa2,812(a6)
     97c:	0021d073          	fsrmi	zero,3
     980:	60b576cf          	fnmadd.s	fa3,fa0,fa1,fa2
     984:	001028f3          	frflags	a7
     988:	20d7ac27          	fsw	fa3,536(a5)
     98c:	2117ae23          	sw	a7,540(a5)

00000990 <inst_68>:
     990:	33082507          	flw	fa0,816(a6)
     994:	33482587          	flw	fa1,820(a6)
     998:	33882607          	flw	fa2,824(a6)
     99c:	00215073          	fsrmi	zero,2
     9a0:	60b576cf          	fnmadd.s	fa3,fa0,fa1,fa2
     9a4:	001028f3          	frflags	a7
     9a8:	22d7a027          	fsw	fa3,544(a5)
     9ac:	2317a223          	sw	a7,548(a5)

000009b0 <inst_69>:
     9b0:	33c82507          	flw	fa0,828(a6)
     9b4:	34082587          	flw	fa1,832(a6)
     9b8:	34482607          	flw	fa2,836(a6)
     9bc:	0020d073          	fsrmi	zero,1
     9c0:	60b576cf          	fnmadd.s	fa3,fa0,fa1,fa2
     9c4:	001028f3          	frflags	a7
     9c8:	22d7a427          	fsw	fa3,552(a5)
     9cc:	2317a623          	sw	a7,556(a5)

000009d0 <inst_70>:
     9d0:	34882507          	flw	fa0,840(a6)
     9d4:	34c82587          	flw	fa1,844(a6)
     9d8:	35082607          	flw	fa2,848(a6)
     9dc:	00205073          	fsrmi	zero,0
     9e0:	60b576cf          	fnmadd.s	fa3,fa0,fa1,fa2
     9e4:	001028f3          	frflags	a7
     9e8:	22d7a827          	fsw	fa3,560(a5)
     9ec:	2317aa23          	sw	a7,564(a5)

000009f0 <inst_71>:
     9f0:	35482507          	flw	fa0,852(a6)
     9f4:	35882587          	flw	fa1,856(a6)
     9f8:	35c82607          	flw	fa2,860(a6)
     9fc:	00225073          	fsrmi	zero,4
     a00:	60b576cf          	fnmadd.s	fa3,fa0,fa1,fa2
     a04:	001028f3          	frflags	a7
     a08:	22d7ac27          	fsw	fa3,568(a5)
     a0c:	2317ae23          	sw	a7,572(a5)

00000a10 <inst_72>:
     a10:	36082507          	flw	fa0,864(a6)
     a14:	36482587          	flw	fa1,868(a6)
     a18:	36882607          	flw	fa2,872(a6)
     a1c:	0021d073          	fsrmi	zero,3
     a20:	60b576cf          	fnmadd.s	fa3,fa0,fa1,fa2
     a24:	001028f3          	frflags	a7
     a28:	24d7a027          	fsw	fa3,576(a5)
     a2c:	2517a223          	sw	a7,580(a5)

00000a30 <inst_73>:
     a30:	36c82507          	flw	fa0,876(a6)
     a34:	37082587          	flw	fa1,880(a6)
     a38:	37482607          	flw	fa2,884(a6)
     a3c:	00215073          	fsrmi	zero,2
     a40:	60b576cf          	fnmadd.s	fa3,fa0,fa1,fa2
     a44:	001028f3          	frflags	a7
     a48:	24d7a427          	fsw	fa3,584(a5)
     a4c:	2517a623          	sw	a7,588(a5)

00000a50 <inst_74>:
     a50:	37882507          	flw	fa0,888(a6)
     a54:	37c82587          	flw	fa1,892(a6)
     a58:	38082607          	flw	fa2,896(a6)
     a5c:	0020d073          	fsrmi	zero,1
     a60:	60b576cf          	fnmadd.s	fa3,fa0,fa1,fa2
     a64:	001028f3          	frflags	a7
     a68:	24d7a827          	fsw	fa3,592(a5)
     a6c:	2517aa23          	sw	a7,596(a5)

00000a70 <inst_75>:
     a70:	38482507          	flw	fa0,900(a6)
     a74:	38882587          	flw	fa1,904(a6)
     a78:	38c82607          	flw	fa2,908(a6)
     a7c:	00205073          	fsrmi	zero,0
     a80:	60b576cf          	fnmadd.s	fa3,fa0,fa1,fa2
     a84:	001028f3          	frflags	a7
     a88:	24d7ac27          	fsw	fa3,600(a5)
     a8c:	2517ae23          	sw	a7,604(a5)

00000a90 <inst_76>:
     a90:	39082507          	flw	fa0,912(a6)
     a94:	39482587          	flw	fa1,916(a6)
     a98:	39882607          	flw	fa2,920(a6)
     a9c:	00225073          	fsrmi	zero,4
     aa0:	60b576cf          	fnmadd.s	fa3,fa0,fa1,fa2
     aa4:	001028f3          	frflags	a7
     aa8:	26d7a027          	fsw	fa3,608(a5)
     aac:	2717a223          	sw	a7,612(a5)

00000ab0 <inst_77>:
     ab0:	39c82507          	flw	fa0,924(a6)
     ab4:	3a082587          	flw	fa1,928(a6)
     ab8:	3a482607          	flw	fa2,932(a6)
     abc:	0021d073          	fsrmi	zero,3
     ac0:	60b576cf          	fnmadd.s	fa3,fa0,fa1,fa2
     ac4:	001028f3          	frflags	a7
     ac8:	26d7a427          	fsw	fa3,616(a5)
     acc:	2717a623          	sw	a7,620(a5)

00000ad0 <inst_78>:
     ad0:	3a882507          	flw	fa0,936(a6)
     ad4:	3ac82587          	flw	fa1,940(a6)
     ad8:	3b082607          	flw	fa2,944(a6)
     adc:	00215073          	fsrmi	zero,2
     ae0:	60b576cf          	fnmadd.s	fa3,fa0,fa1,fa2
     ae4:	001028f3          	frflags	a7
     ae8:	26d7a827          	fsw	fa3,624(a5)
     aec:	2717aa23          	sw	a7,628(a5)

00000af0 <inst_79>:
     af0:	3b482507          	flw	fa0,948(a6)
     af4:	3b882587          	flw	fa1,952(a6)
     af8:	3bc82607          	flw	fa2,956(a6)
     afc:	0020d073          	fsrmi	zero,1
     b00:	60b576cf          	fnmadd.s	fa3,fa0,fa1,fa2
     b04:	001028f3          	frflags	a7
     b08:	26d7ac27          	fsw	fa3,632(a5)
     b0c:	2717ae23          	sw	a7,636(a5)

00000b10 <inst_80>:
     b10:	3c082507          	flw	fa0,960(a6)
     b14:	3c482587          	flw	fa1,964(a6)
     b18:	3c882607          	flw	fa2,968(a6)
     b1c:	00205073          	fsrmi	zero,0
     b20:	60b576cf          	fnmadd.s	fa3,fa0,fa1,fa2
     b24:	001028f3          	frflags	a7
     b28:	28d7a027          	fsw	fa3,640(a5)
     b2c:	2917a223          	sw	a7,644(a5)

00000b30 <inst_81>:
     b30:	3cc82507          	flw	fa0,972(a6)
     b34:	3d082587          	flw	fa1,976(a6)
     b38:	3d482607          	flw	fa2,980(a6)
     b3c:	00225073          	fsrmi	zero,4
     b40:	60b576cf          	fnmadd.s	fa3,fa0,fa1,fa2
     b44:	001028f3          	frflags	a7
     b48:	28d7a427          	fsw	fa3,648(a5)
     b4c:	2917a623          	sw	a7,652(a5)

00000b50 <inst_82>:
     b50:	3d882507          	flw	fa0,984(a6)
     b54:	3dc82587          	flw	fa1,988(a6)
     b58:	3e082607          	flw	fa2,992(a6)
     b5c:	0021d073          	fsrmi	zero,3
     b60:	60b576cf          	fnmadd.s	fa3,fa0,fa1,fa2
     b64:	001028f3          	frflags	a7
     b68:	28d7a827          	fsw	fa3,656(a5)
     b6c:	2917aa23          	sw	a7,660(a5)

00000b70 <inst_83>:
     b70:	3e482507          	flw	fa0,996(a6)
     b74:	3e882587          	flw	fa1,1000(a6)
     b78:	3ec82607          	flw	fa2,1004(a6)
     b7c:	00215073          	fsrmi	zero,2
     b80:	60b576cf          	fnmadd.s	fa3,fa0,fa1,fa2
     b84:	001028f3          	frflags	a7
     b88:	28d7ac27          	fsw	fa3,664(a5)
     b8c:	2917ae23          	sw	a7,668(a5)

00000b90 <inst_84>:
     b90:	3f082507          	flw	fa0,1008(a6)
     b94:	3f482587          	flw	fa1,1012(a6)
     b98:	3f882607          	flw	fa2,1016(a6)
     b9c:	0020d073          	fsrmi	zero,1
     ba0:	60b576cf          	fnmadd.s	fa3,fa0,fa1,fa2
     ba4:	001028f3          	frflags	a7
     ba8:	2ad7a027          	fsw	fa3,672(a5)
     bac:	2b17a223          	sw	a7,676(a5)

00000bb0 <inst_85>:
     bb0:	3fc82507          	flw	fa0,1020(a6)
     bb4:	40082587          	flw	fa1,1024(a6)
     bb8:	40482607          	flw	fa2,1028(a6)
     bbc:	00205073          	fsrmi	zero,0
     bc0:	60b576cf          	fnmadd.s	fa3,fa0,fa1,fa2
     bc4:	001028f3          	frflags	a7
     bc8:	2ad7a427          	fsw	fa3,680(a5)
     bcc:	2b17a623          	sw	a7,684(a5)

00000bd0 <inst_86>:
     bd0:	40882507          	flw	fa0,1032(a6)
     bd4:	40c82587          	flw	fa1,1036(a6)
     bd8:	41082607          	flw	fa2,1040(a6)
     bdc:	00225073          	fsrmi	zero,4
     be0:	60b576cf          	fnmadd.s	fa3,fa0,fa1,fa2
     be4:	001028f3          	frflags	a7
     be8:	2ad7a827          	fsw	fa3,688(a5)
     bec:	2b17aa23          	sw	a7,692(a5)

00000bf0 <inst_87>:
     bf0:	41482507          	flw	fa0,1044(a6)
     bf4:	41882587          	flw	fa1,1048(a6)
     bf8:	41c82607          	flw	fa2,1052(a6)
     bfc:	0021d073          	fsrmi	zero,3
     c00:	60b576cf          	fnmadd.s	fa3,fa0,fa1,fa2
     c04:	001028f3          	frflags	a7
     c08:	2ad7ac27          	fsw	fa3,696(a5)
     c0c:	2b17ae23          	sw	a7,700(a5)

00000c10 <inst_88>:
     c10:	42082507          	flw	fa0,1056(a6)
     c14:	42482587          	flw	fa1,1060(a6)
     c18:	42882607          	flw	fa2,1064(a6)
     c1c:	00215073          	fsrmi	zero,2
     c20:	60b576cf          	fnmadd.s	fa3,fa0,fa1,fa2
     c24:	001028f3          	frflags	a7
     c28:	2cd7a027          	fsw	fa3,704(a5)
     c2c:	2d17a223          	sw	a7,708(a5)

00000c30 <inst_89>:
     c30:	42c82507          	flw	fa0,1068(a6)
     c34:	43082587          	flw	fa1,1072(a6)
     c38:	43482607          	flw	fa2,1076(a6)
     c3c:	0020d073          	fsrmi	zero,1
     c40:	60b576cf          	fnmadd.s	fa3,fa0,fa1,fa2
     c44:	001028f3          	frflags	a7
     c48:	2cd7a427          	fsw	fa3,712(a5)
     c4c:	2d17a623          	sw	a7,716(a5)

00000c50 <inst_90>:
     c50:	43882507          	flw	fa0,1080(a6)
     c54:	43c82587          	flw	fa1,1084(a6)
     c58:	44082607          	flw	fa2,1088(a6)
     c5c:	00205073          	fsrmi	zero,0
     c60:	60b576cf          	fnmadd.s	fa3,fa0,fa1,fa2
     c64:	001028f3          	frflags	a7
     c68:	2cd7a827          	fsw	fa3,720(a5)
     c6c:	2d17aa23          	sw	a7,724(a5)

00000c70 <inst_91>:
     c70:	44482507          	flw	fa0,1092(a6)
     c74:	44882587          	flw	fa1,1096(a6)
     c78:	44c82607          	flw	fa2,1100(a6)
     c7c:	00225073          	fsrmi	zero,4
     c80:	60b576cf          	fnmadd.s	fa3,fa0,fa1,fa2
     c84:	001028f3          	frflags	a7
     c88:	2cd7ac27          	fsw	fa3,728(a5)
     c8c:	2d17ae23          	sw	a7,732(a5)

00000c90 <inst_92>:
     c90:	45082507          	flw	fa0,1104(a6)
     c94:	45482587          	flw	fa1,1108(a6)
     c98:	45882607          	flw	fa2,1112(a6)
     c9c:	0021d073          	fsrmi	zero,3
     ca0:	60b576cf          	fnmadd.s	fa3,fa0,fa1,fa2
     ca4:	001028f3          	frflags	a7
     ca8:	2ed7a027          	fsw	fa3,736(a5)
     cac:	2f17a223          	sw	a7,740(a5)

00000cb0 <inst_93>:
     cb0:	45c82507          	flw	fa0,1116(a6)
     cb4:	46082587          	flw	fa1,1120(a6)
     cb8:	46482607          	flw	fa2,1124(a6)
     cbc:	00215073          	fsrmi	zero,2
     cc0:	60b576cf          	fnmadd.s	fa3,fa0,fa1,fa2
     cc4:	001028f3          	frflags	a7
     cc8:	2ed7a427          	fsw	fa3,744(a5)
     ccc:	2f17a623          	sw	a7,748(a5)

00000cd0 <inst_94>:
     cd0:	46882507          	flw	fa0,1128(a6)
     cd4:	46c82587          	flw	fa1,1132(a6)
     cd8:	47082607          	flw	fa2,1136(a6)
     cdc:	0020d073          	fsrmi	zero,1
     ce0:	60b576cf          	fnmadd.s	fa3,fa0,fa1,fa2
     ce4:	001028f3          	frflags	a7
     ce8:	2ed7a827          	fsw	fa3,752(a5)
     cec:	2f17aa23          	sw	a7,756(a5)

00000cf0 <inst_95>:
     cf0:	47482507          	flw	fa0,1140(a6)
     cf4:	47882587          	flw	fa1,1144(a6)
     cf8:	47c82607          	flw	fa2,1148(a6)
     cfc:	00205073          	fsrmi	zero,0
     d00:	60b576cf          	fnmadd.s	fa3,fa0,fa1,fa2
     d04:	001028f3          	frflags	a7
     d08:	2ed7ac27          	fsw	fa3,760(a5)
     d0c:	2f17ae23          	sw	a7,764(a5)

00000d10 <inst_96>:
     d10:	48082507          	flw	fa0,1152(a6)
     d14:	48482587          	flw	fa1,1156(a6)
     d18:	48882607          	flw	fa2,1160(a6)
     d1c:	00225073          	fsrmi	zero,4
     d20:	60b576cf          	fnmadd.s	fa3,fa0,fa1,fa2
     d24:	001028f3          	frflags	a7
     d28:	30d7a027          	fsw	fa3,768(a5)
     d2c:	3117a223          	sw	a7,772(a5)

00000d30 <inst_97>:
     d30:	48c82507          	flw	fa0,1164(a6)
     d34:	49082587          	flw	fa1,1168(a6)
     d38:	49482607          	flw	fa2,1172(a6)
     d3c:	0021d073          	fsrmi	zero,3
     d40:	60b576cf          	fnmadd.s	fa3,fa0,fa1,fa2
     d44:	001028f3          	frflags	a7
     d48:	30d7a427          	fsw	fa3,776(a5)
     d4c:	3117a623          	sw	a7,780(a5)

00000d50 <inst_98>:
     d50:	49882507          	flw	fa0,1176(a6)
     d54:	49c82587          	flw	fa1,1180(a6)
     d58:	4a082607          	flw	fa2,1184(a6)
     d5c:	00215073          	fsrmi	zero,2
     d60:	60b576cf          	fnmadd.s	fa3,fa0,fa1,fa2
     d64:	001028f3          	frflags	a7
     d68:	30d7a827          	fsw	fa3,784(a5)
     d6c:	3117aa23          	sw	a7,788(a5)

00000d70 <inst_99>:
     d70:	4a482507          	flw	fa0,1188(a6)
     d74:	4a882587          	flw	fa1,1192(a6)
     d78:	4ac82607          	flw	fa2,1196(a6)
     d7c:	0020d073          	fsrmi	zero,1
     d80:	60b576cf          	fnmadd.s	fa3,fa0,fa1,fa2
     d84:	001028f3          	frflags	a7
     d88:	30d7ac27          	fsw	fa3,792(a5)
     d8c:	3117ae23          	sw	a7,796(a5)

00000d90 <inst_100>:
     d90:	4b082507          	flw	fa0,1200(a6)
     d94:	4b482587          	flw	fa1,1204(a6)
     d98:	4b882607          	flw	fa2,1208(a6)
     d9c:	00205073          	fsrmi	zero,0
     da0:	60b576cf          	fnmadd.s	fa3,fa0,fa1,fa2
     da4:	001028f3          	frflags	a7
     da8:	32d7a027          	fsw	fa3,800(a5)
     dac:	3317a223          	sw	a7,804(a5)

00000db0 <inst_101>:
     db0:	4bc82507          	flw	fa0,1212(a6)
     db4:	4c082587          	flw	fa1,1216(a6)
     db8:	4c482607          	flw	fa2,1220(a6)
     dbc:	00225073          	fsrmi	zero,4
     dc0:	60b576cf          	fnmadd.s	fa3,fa0,fa1,fa2
     dc4:	001028f3          	frflags	a7
     dc8:	32d7a427          	fsw	fa3,808(a5)
     dcc:	3317a623          	sw	a7,812(a5)

00000dd0 <inst_102>:
     dd0:	4c882507          	flw	fa0,1224(a6)
     dd4:	4cc82587          	flw	fa1,1228(a6)
     dd8:	4d082607          	flw	fa2,1232(a6)
     ddc:	0021d073          	fsrmi	zero,3
     de0:	60b576cf          	fnmadd.s	fa3,fa0,fa1,fa2
     de4:	001028f3          	frflags	a7
     de8:	32d7a827          	fsw	fa3,816(a5)
     dec:	3317aa23          	sw	a7,820(a5)

00000df0 <inst_103>:
     df0:	4d482507          	flw	fa0,1236(a6)
     df4:	4d882587          	flw	fa1,1240(a6)
     df8:	4dc82607          	flw	fa2,1244(a6)
     dfc:	00215073          	fsrmi	zero,2
     e00:	60b576cf          	fnmadd.s	fa3,fa0,fa1,fa2
     e04:	001028f3          	frflags	a7
     e08:	32d7ac27          	fsw	fa3,824(a5)
     e0c:	3317ae23          	sw	a7,828(a5)

00000e10 <inst_104>:
     e10:	4e082507          	flw	fa0,1248(a6)
     e14:	4e482587          	flw	fa1,1252(a6)
     e18:	4e882607          	flw	fa2,1256(a6)
     e1c:	0020d073          	fsrmi	zero,1
     e20:	60b576cf          	fnmadd.s	fa3,fa0,fa1,fa2
     e24:	001028f3          	frflags	a7
     e28:	34d7a027          	fsw	fa3,832(a5)
     e2c:	3517a223          	sw	a7,836(a5)

00000e30 <inst_105>:
     e30:	4ec82507          	flw	fa0,1260(a6)
     e34:	4f082587          	flw	fa1,1264(a6)
     e38:	4f482607          	flw	fa2,1268(a6)
     e3c:	00205073          	fsrmi	zero,0
     e40:	60b576cf          	fnmadd.s	fa3,fa0,fa1,fa2
     e44:	001028f3          	frflags	a7
     e48:	34d7a427          	fsw	fa3,840(a5)
     e4c:	3517a623          	sw	a7,844(a5)

00000e50 <inst_106>:
     e50:	4f882507          	flw	fa0,1272(a6)
     e54:	4fc82587          	flw	fa1,1276(a6)
     e58:	50082607          	flw	fa2,1280(a6)
     e5c:	00225073          	fsrmi	zero,4
     e60:	60b576cf          	fnmadd.s	fa3,fa0,fa1,fa2
     e64:	001028f3          	frflags	a7
     e68:	34d7a827          	fsw	fa3,848(a5)
     e6c:	3517aa23          	sw	a7,852(a5)

00000e70 <inst_107>:
     e70:	50482507          	flw	fa0,1284(a6)
     e74:	50882587          	flw	fa1,1288(a6)
     e78:	50c82607          	flw	fa2,1292(a6)
     e7c:	0021d073          	fsrmi	zero,3
     e80:	60b576cf          	fnmadd.s	fa3,fa0,fa1,fa2
     e84:	001028f3          	frflags	a7
     e88:	34d7ac27          	fsw	fa3,856(a5)
     e8c:	3517ae23          	sw	a7,860(a5)

00000e90 <inst_108>:
     e90:	51082507          	flw	fa0,1296(a6)
     e94:	51482587          	flw	fa1,1300(a6)
     e98:	51882607          	flw	fa2,1304(a6)
     e9c:	00215073          	fsrmi	zero,2
     ea0:	60b576cf          	fnmadd.s	fa3,fa0,fa1,fa2
     ea4:	001028f3          	frflags	a7
     ea8:	36d7a027          	fsw	fa3,864(a5)
     eac:	3717a223          	sw	a7,868(a5)

00000eb0 <inst_109>:
     eb0:	51c82507          	flw	fa0,1308(a6)
     eb4:	52082587          	flw	fa1,1312(a6)
     eb8:	52482607          	flw	fa2,1316(a6)
     ebc:	0020d073          	fsrmi	zero,1
     ec0:	60b576cf          	fnmadd.s	fa3,fa0,fa1,fa2
     ec4:	001028f3          	frflags	a7
     ec8:	36d7a427          	fsw	fa3,872(a5)
     ecc:	3717a623          	sw	a7,876(a5)

00000ed0 <inst_110>:
     ed0:	52882507          	flw	fa0,1320(a6)
     ed4:	52c82587          	flw	fa1,1324(a6)
     ed8:	53082607          	flw	fa2,1328(a6)
     edc:	00205073          	fsrmi	zero,0
     ee0:	60b576cf          	fnmadd.s	fa3,fa0,fa1,fa2
     ee4:	001028f3          	frflags	a7
     ee8:	36d7a827          	fsw	fa3,880(a5)
     eec:	3717aa23          	sw	a7,884(a5)

00000ef0 <inst_111>:
     ef0:	53482507          	flw	fa0,1332(a6)
     ef4:	53882587          	flw	fa1,1336(a6)
     ef8:	53c82607          	flw	fa2,1340(a6)
     efc:	00225073          	fsrmi	zero,4
     f00:	60b576cf          	fnmadd.s	fa3,fa0,fa1,fa2
     f04:	001028f3          	frflags	a7
     f08:	36d7ac27          	fsw	fa3,888(a5)
     f0c:	3717ae23          	sw	a7,892(a5)

00000f10 <inst_112>:
     f10:	54082507          	flw	fa0,1344(a6)
     f14:	54482587          	flw	fa1,1348(a6)
     f18:	54882607          	flw	fa2,1352(a6)
     f1c:	0021d073          	fsrmi	zero,3
     f20:	60b576cf          	fnmadd.s	fa3,fa0,fa1,fa2
     f24:	001028f3          	frflags	a7
     f28:	38d7a027          	fsw	fa3,896(a5)
     f2c:	3917a223          	sw	a7,900(a5)

00000f30 <inst_113>:
     f30:	54c82507          	flw	fa0,1356(a6)
     f34:	55082587          	flw	fa1,1360(a6)
     f38:	55482607          	flw	fa2,1364(a6)
     f3c:	00215073          	fsrmi	zero,2
     f40:	60b576cf          	fnmadd.s	fa3,fa0,fa1,fa2
     f44:	001028f3          	frflags	a7
     f48:	38d7a427          	fsw	fa3,904(a5)
     f4c:	3917a623          	sw	a7,908(a5)

00000f50 <inst_114>:
     f50:	55882507          	flw	fa0,1368(a6)
     f54:	55c82587          	flw	fa1,1372(a6)
     f58:	56082607          	flw	fa2,1376(a6)
     f5c:	0020d073          	fsrmi	zero,1
     f60:	60b576cf          	fnmadd.s	fa3,fa0,fa1,fa2
     f64:	001028f3          	frflags	a7
     f68:	38d7a827          	fsw	fa3,912(a5)
     f6c:	3917aa23          	sw	a7,916(a5)

00000f70 <inst_115>:
     f70:	56482507          	flw	fa0,1380(a6)
     f74:	56882587          	flw	fa1,1384(a6)
     f78:	56c82607          	flw	fa2,1388(a6)
     f7c:	00205073          	fsrmi	zero,0
     f80:	60b576cf          	fnmadd.s	fa3,fa0,fa1,fa2
     f84:	001028f3          	frflags	a7
     f88:	38d7ac27          	fsw	fa3,920(a5)
     f8c:	3917ae23          	sw	a7,924(a5)

00000f90 <inst_116>:
     f90:	57082507          	flw	fa0,1392(a6)
     f94:	57482587          	flw	fa1,1396(a6)
     f98:	57882607          	flw	fa2,1400(a6)
     f9c:	00225073          	fsrmi	zero,4
     fa0:	60b576cf          	fnmadd.s	fa3,fa0,fa1,fa2
     fa4:	001028f3          	frflags	a7
     fa8:	3ad7a027          	fsw	fa3,928(a5)
     fac:	3b17a223          	sw	a7,932(a5)

00000fb0 <inst_117>:
     fb0:	57c82507          	flw	fa0,1404(a6)
     fb4:	58082587          	flw	fa1,1408(a6)
     fb8:	58482607          	flw	fa2,1412(a6)
     fbc:	0021d073          	fsrmi	zero,3
     fc0:	60b576cf          	fnmadd.s	fa3,fa0,fa1,fa2
     fc4:	001028f3          	frflags	a7
     fc8:	3ad7a427          	fsw	fa3,936(a5)
     fcc:	3b17a623          	sw	a7,940(a5)

00000fd0 <inst_118>:
     fd0:	58882507          	flw	fa0,1416(a6)
     fd4:	58c82587          	flw	fa1,1420(a6)
     fd8:	59082607          	flw	fa2,1424(a6)
     fdc:	00215073          	fsrmi	zero,2
     fe0:	60b576cf          	fnmadd.s	fa3,fa0,fa1,fa2
     fe4:	001028f3          	frflags	a7
     fe8:	3ad7a827          	fsw	fa3,944(a5)
     fec:	3b17aa23          	sw	a7,948(a5)

00000ff0 <inst_119>:
     ff0:	59482507          	flw	fa0,1428(a6)
     ff4:	59882587          	flw	fa1,1432(a6)
     ff8:	59c82607          	flw	fa2,1436(a6)
     ffc:	0020d073          	fsrmi	zero,1
    1000:	60b576cf          	fnmadd.s	fa3,fa0,fa1,fa2
    1004:	001028f3          	frflags	a7
    1008:	3ad7ac27          	fsw	fa3,952(a5)
    100c:	3b17ae23          	sw	a7,956(a5)

00001010 <inst_120>:
    1010:	5a082507          	flw	fa0,1440(a6)
    1014:	5a482587          	flw	fa1,1444(a6)
    1018:	5a882607          	flw	fa2,1448(a6)
    101c:	00205073          	fsrmi	zero,0
    1020:	60b576cf          	fnmadd.s	fa3,fa0,fa1,fa2
    1024:	001028f3          	frflags	a7
    1028:	3cd7a027          	fsw	fa3,960(a5)
    102c:	3d17a223          	sw	a7,964(a5)

00001030 <inst_121>:
    1030:	5ac82507          	flw	fa0,1452(a6)
    1034:	5b082587          	flw	fa1,1456(a6)
    1038:	5b482607          	flw	fa2,1460(a6)
    103c:	00225073          	fsrmi	zero,4
    1040:	60b576cf          	fnmadd.s	fa3,fa0,fa1,fa2
    1044:	001028f3          	frflags	a7
    1048:	3cd7a427          	fsw	fa3,968(a5)
    104c:	3d17a623          	sw	a7,972(a5)

00001050 <inst_122>:
    1050:	5b882507          	flw	fa0,1464(a6)
    1054:	5bc82587          	flw	fa1,1468(a6)
    1058:	5c082607          	flw	fa2,1472(a6)
    105c:	0021d073          	fsrmi	zero,3
    1060:	60b576cf          	fnmadd.s	fa3,fa0,fa1,fa2
    1064:	001028f3          	frflags	a7
    1068:	3cd7a827          	fsw	fa3,976(a5)
    106c:	3d17aa23          	sw	a7,980(a5)

00001070 <inst_123>:
    1070:	5c482507          	flw	fa0,1476(a6)
    1074:	5c882587          	flw	fa1,1480(a6)
    1078:	5cc82607          	flw	fa2,1484(a6)
    107c:	00215073          	fsrmi	zero,2
    1080:	60b576cf          	fnmadd.s	fa3,fa0,fa1,fa2
    1084:	001028f3          	frflags	a7
    1088:	3cd7ac27          	fsw	fa3,984(a5)
    108c:	3d17ae23          	sw	a7,988(a5)

00001090 <inst_124>:
    1090:	5d082507          	flw	fa0,1488(a6)
    1094:	5d482587          	flw	fa1,1492(a6)
    1098:	5d882607          	flw	fa2,1496(a6)
    109c:	0020d073          	fsrmi	zero,1
    10a0:	60b576cf          	fnmadd.s	fa3,fa0,fa1,fa2
    10a4:	001028f3          	frflags	a7
    10a8:	3ed7a027          	fsw	fa3,992(a5)
    10ac:	3f17a223          	sw	a7,996(a5)

000010b0 <inst_125>:
    10b0:	5dc82507          	flw	fa0,1500(a6)
    10b4:	5e082587          	flw	fa1,1504(a6)
    10b8:	5e482607          	flw	fa2,1508(a6)
    10bc:	00205073          	fsrmi	zero,0
    10c0:	60b576cf          	fnmadd.s	fa3,fa0,fa1,fa2
    10c4:	001028f3          	frflags	a7
    10c8:	3ed7a427          	fsw	fa3,1000(a5)
    10cc:	3f17a623          	sw	a7,1004(a5)

000010d0 <inst_126>:
    10d0:	5e882507          	flw	fa0,1512(a6)
    10d4:	5ec82587          	flw	fa1,1516(a6)
    10d8:	5f082607          	flw	fa2,1520(a6)
    10dc:	00225073          	fsrmi	zero,4
    10e0:	60b576cf          	fnmadd.s	fa3,fa0,fa1,fa2
    10e4:	001028f3          	frflags	a7
    10e8:	3ed7a827          	fsw	fa3,1008(a5)
    10ec:	3f17aa23          	sw	a7,1012(a5)

000010f0 <inst_127>:
    10f0:	5f482507          	flw	fa0,1524(a6)
    10f4:	5f882587          	flw	fa1,1528(a6)
    10f8:	5fc82607          	flw	fa2,1532(a6)
    10fc:	0021d073          	fsrmi	zero,3
    1100:	60b576cf          	fnmadd.s	fa3,fa0,fa1,fa2
    1104:	001028f3          	frflags	a7
    1108:	3ed7ac27          	fsw	fa3,1016(a5)
    110c:	3f17ae23          	sw	a7,1020(a5)

00001110 <inst_128>:
    1110:	60082507          	flw	fa0,1536(a6)
    1114:	60482587          	flw	fa1,1540(a6)
    1118:	60882607          	flw	fa2,1544(a6)
    111c:	00215073          	fsrmi	zero,2
    1120:	60b576cf          	fnmadd.s	fa3,fa0,fa1,fa2
    1124:	001028f3          	frflags	a7
    1128:	40d7a027          	fsw	fa3,1024(a5)
    112c:	4117a223          	sw	a7,1028(a5)

00001130 <inst_129>:
    1130:	60c82507          	flw	fa0,1548(a6)
    1134:	61082587          	flw	fa1,1552(a6)
    1138:	61482607          	flw	fa2,1556(a6)
    113c:	0020d073          	fsrmi	zero,1
    1140:	60b576cf          	fnmadd.s	fa3,fa0,fa1,fa2
    1144:	001028f3          	frflags	a7
    1148:	40d7a427          	fsw	fa3,1032(a5)
    114c:	4117a623          	sw	a7,1036(a5)

00001150 <inst_130>:
    1150:	61882507          	flw	fa0,1560(a6)
    1154:	61c82587          	flw	fa1,1564(a6)
    1158:	62082607          	flw	fa2,1568(a6)
    115c:	00205073          	fsrmi	zero,0
    1160:	60b576cf          	fnmadd.s	fa3,fa0,fa1,fa2
    1164:	001028f3          	frflags	a7
    1168:	40d7a827          	fsw	fa3,1040(a5)
    116c:	4117aa23          	sw	a7,1044(a5)

00001170 <inst_131>:
    1170:	62482507          	flw	fa0,1572(a6)
    1174:	62882587          	flw	fa1,1576(a6)
    1178:	62c82607          	flw	fa2,1580(a6)
    117c:	00225073          	fsrmi	zero,4
    1180:	60b576cf          	fnmadd.s	fa3,fa0,fa1,fa2
    1184:	001028f3          	frflags	a7
    1188:	40d7ac27          	fsw	fa3,1048(a5)
    118c:	4117ae23          	sw	a7,1052(a5)

00001190 <inst_132>:
    1190:	63082507          	flw	fa0,1584(a6)
    1194:	63482587          	flw	fa1,1588(a6)
    1198:	63882607          	flw	fa2,1592(a6)
    119c:	0021d073          	fsrmi	zero,3
    11a0:	60b576cf          	fnmadd.s	fa3,fa0,fa1,fa2
    11a4:	001028f3          	frflags	a7
    11a8:	42d7a027          	fsw	fa3,1056(a5)
    11ac:	4317a223          	sw	a7,1060(a5)

000011b0 <inst_133>:
    11b0:	63c82507          	flw	fa0,1596(a6)
    11b4:	64082587          	flw	fa1,1600(a6)
    11b8:	64482607          	flw	fa2,1604(a6)
    11bc:	00215073          	fsrmi	zero,2
    11c0:	60b576cf          	fnmadd.s	fa3,fa0,fa1,fa2
    11c4:	001028f3          	frflags	a7
    11c8:	42d7a427          	fsw	fa3,1064(a5)
    11cc:	4317a623          	sw	a7,1068(a5)

000011d0 <inst_134>:
    11d0:	64882507          	flw	fa0,1608(a6)
    11d4:	64c82587          	flw	fa1,1612(a6)
    11d8:	65082607          	flw	fa2,1616(a6)
    11dc:	0020d073          	fsrmi	zero,1
    11e0:	60b576cf          	fnmadd.s	fa3,fa0,fa1,fa2
    11e4:	001028f3          	frflags	a7
    11e8:	42d7a827          	fsw	fa3,1072(a5)
    11ec:	4317aa23          	sw	a7,1076(a5)

000011f0 <inst_135>:
    11f0:	65482507          	flw	fa0,1620(a6)
    11f4:	65882587          	flw	fa1,1624(a6)
    11f8:	65c82607          	flw	fa2,1628(a6)
    11fc:	00205073          	fsrmi	zero,0
    1200:	60b576cf          	fnmadd.s	fa3,fa0,fa1,fa2
    1204:	001028f3          	frflags	a7
    1208:	42d7ac27          	fsw	fa3,1080(a5)
    120c:	4317ae23          	sw	a7,1084(a5)

00001210 <inst_136>:
    1210:	66082507          	flw	fa0,1632(a6)
    1214:	66482587          	flw	fa1,1636(a6)
    1218:	66882607          	flw	fa2,1640(a6)
    121c:	00225073          	fsrmi	zero,4
    1220:	60b576cf          	fnmadd.s	fa3,fa0,fa1,fa2
    1224:	001028f3          	frflags	a7
    1228:	44d7a027          	fsw	fa3,1088(a5)
    122c:	4517a223          	sw	a7,1092(a5)

00001230 <inst_137>:
    1230:	66c82507          	flw	fa0,1644(a6)
    1234:	67082587          	flw	fa1,1648(a6)
    1238:	67482607          	flw	fa2,1652(a6)
    123c:	0021d073          	fsrmi	zero,3
    1240:	60b576cf          	fnmadd.s	fa3,fa0,fa1,fa2
    1244:	001028f3          	frflags	a7
    1248:	44d7a427          	fsw	fa3,1096(a5)
    124c:	4517a623          	sw	a7,1100(a5)

00001250 <inst_138>:
    1250:	67882507          	flw	fa0,1656(a6)
    1254:	67c82587          	flw	fa1,1660(a6)
    1258:	68082607          	flw	fa2,1664(a6)
    125c:	00215073          	fsrmi	zero,2
    1260:	60b576cf          	fnmadd.s	fa3,fa0,fa1,fa2
    1264:	001028f3          	frflags	a7
    1268:	44d7a827          	fsw	fa3,1104(a5)
    126c:	4517aa23          	sw	a7,1108(a5)

00001270 <inst_139>:
    1270:	68482507          	flw	fa0,1668(a6)
    1274:	68882587          	flw	fa1,1672(a6)
    1278:	68c82607          	flw	fa2,1676(a6)
    127c:	0020d073          	fsrmi	zero,1
    1280:	60b576cf          	fnmadd.s	fa3,fa0,fa1,fa2
    1284:	001028f3          	frflags	a7
    1288:	44d7ac27          	fsw	fa3,1112(a5)
    128c:	4517ae23          	sw	a7,1116(a5)

00001290 <inst_140>:
    1290:	69082507          	flw	fa0,1680(a6)
    1294:	69482587          	flw	fa1,1684(a6)
    1298:	69882607          	flw	fa2,1688(a6)
    129c:	00205073          	fsrmi	zero,0
    12a0:	60b576cf          	fnmadd.s	fa3,fa0,fa1,fa2
    12a4:	001028f3          	frflags	a7
    12a8:	46d7a027          	fsw	fa3,1120(a5)
    12ac:	4717a223          	sw	a7,1124(a5)

000012b0 <inst_141>:
    12b0:	69c82507          	flw	fa0,1692(a6)
    12b4:	6a082587          	flw	fa1,1696(a6)
    12b8:	6a482607          	flw	fa2,1700(a6)
    12bc:	00225073          	fsrmi	zero,4
    12c0:	60b576cf          	fnmadd.s	fa3,fa0,fa1,fa2
    12c4:	001028f3          	frflags	a7
    12c8:	46d7a427          	fsw	fa3,1128(a5)
    12cc:	4717a623          	sw	a7,1132(a5)

000012d0 <inst_142>:
    12d0:	6a882507          	flw	fa0,1704(a6)
    12d4:	6ac82587          	flw	fa1,1708(a6)
    12d8:	6b082607          	flw	fa2,1712(a6)
    12dc:	0021d073          	fsrmi	zero,3
    12e0:	60b576cf          	fnmadd.s	fa3,fa0,fa1,fa2
    12e4:	001028f3          	frflags	a7
    12e8:	46d7a827          	fsw	fa3,1136(a5)
    12ec:	4717aa23          	sw	a7,1140(a5)

000012f0 <inst_143>:
    12f0:	6b482507          	flw	fa0,1716(a6)
    12f4:	6b882587          	flw	fa1,1720(a6)
    12f8:	6bc82607          	flw	fa2,1724(a6)
    12fc:	00215073          	fsrmi	zero,2
    1300:	60b576cf          	fnmadd.s	fa3,fa0,fa1,fa2
    1304:	001028f3          	frflags	a7
    1308:	46d7ac27          	fsw	fa3,1144(a5)
    130c:	4717ae23          	sw	a7,1148(a5)

00001310 <inst_144>:
    1310:	6c082507          	flw	fa0,1728(a6)
    1314:	6c482587          	flw	fa1,1732(a6)
    1318:	6c882607          	flw	fa2,1736(a6)
    131c:	0020d073          	fsrmi	zero,1
    1320:	60b576cf          	fnmadd.s	fa3,fa0,fa1,fa2
    1324:	001028f3          	frflags	a7
    1328:	48d7a027          	fsw	fa3,1152(a5)
    132c:	4917a223          	sw	a7,1156(a5)

00001330 <inst_145>:
    1330:	6cc82507          	flw	fa0,1740(a6)
    1334:	6d082587          	flw	fa1,1744(a6)
    1338:	6d482607          	flw	fa2,1748(a6)
    133c:	00205073          	fsrmi	zero,0
    1340:	60b576cf          	fnmadd.s	fa3,fa0,fa1,fa2
    1344:	001028f3          	frflags	a7
    1348:	48d7a427          	fsw	fa3,1160(a5)
    134c:	4917a623          	sw	a7,1164(a5)

00001350 <inst_146>:
    1350:	6d882507          	flw	fa0,1752(a6)
    1354:	6dc82587          	flw	fa1,1756(a6)
    1358:	6e082607          	flw	fa2,1760(a6)
    135c:	00225073          	fsrmi	zero,4
    1360:	60b576cf          	fnmadd.s	fa3,fa0,fa1,fa2
    1364:	001028f3          	frflags	a7
    1368:	48d7a827          	fsw	fa3,1168(a5)
    136c:	4917aa23          	sw	a7,1172(a5)

00001370 <inst_147>:
    1370:	6e482507          	flw	fa0,1764(a6)
    1374:	6e882587          	flw	fa1,1768(a6)
    1378:	6ec82607          	flw	fa2,1772(a6)
    137c:	0021d073          	fsrmi	zero,3
    1380:	60b576cf          	fnmadd.s	fa3,fa0,fa1,fa2
    1384:	001028f3          	frflags	a7
    1388:	48d7ac27          	fsw	fa3,1176(a5)
    138c:	4917ae23          	sw	a7,1180(a5)

00001390 <inst_148>:
    1390:	6f082507          	flw	fa0,1776(a6)
    1394:	6f482587          	flw	fa1,1780(a6)
    1398:	6f882607          	flw	fa2,1784(a6)
    139c:	00215073          	fsrmi	zero,2
    13a0:	60b576cf          	fnmadd.s	fa3,fa0,fa1,fa2
    13a4:	001028f3          	frflags	a7
    13a8:	4ad7a027          	fsw	fa3,1184(a5)
    13ac:	4b17a223          	sw	a7,1188(a5)

000013b0 <inst_149>:
    13b0:	6fc82507          	flw	fa0,1788(a6)
    13b4:	70082587          	flw	fa1,1792(a6)
    13b8:	70482607          	flw	fa2,1796(a6)
    13bc:	0020d073          	fsrmi	zero,1
    13c0:	60b576cf          	fnmadd.s	fa3,fa0,fa1,fa2
    13c4:	001028f3          	frflags	a7
    13c8:	4ad7a427          	fsw	fa3,1192(a5)
    13cc:	4b17a623          	sw	a7,1196(a5)

000013d0 <inst_150>:
    13d0:	70882507          	flw	fa0,1800(a6)
    13d4:	70c82587          	flw	fa1,1804(a6)
    13d8:	71082607          	flw	fa2,1808(a6)
    13dc:	00205073          	fsrmi	zero,0
    13e0:	60b576cf          	fnmadd.s	fa3,fa0,fa1,fa2
    13e4:	001028f3          	frflags	a7
    13e8:	4ad7a827          	fsw	fa3,1200(a5)
    13ec:	4b17aa23          	sw	a7,1204(a5)

000013f0 <inst_151>:
    13f0:	71482507          	flw	fa0,1812(a6)
    13f4:	71882587          	flw	fa1,1816(a6)
    13f8:	71c82607          	flw	fa2,1820(a6)
    13fc:	00225073          	fsrmi	zero,4
    1400:	60b576cf          	fnmadd.s	fa3,fa0,fa1,fa2
    1404:	001028f3          	frflags	a7
    1408:	4ad7ac27          	fsw	fa3,1208(a5)
    140c:	4b17ae23          	sw	a7,1212(a5)

00001410 <inst_152>:
    1410:	72082507          	flw	fa0,1824(a6)
    1414:	72482587          	flw	fa1,1828(a6)
    1418:	72882607          	flw	fa2,1832(a6)
    141c:	0021d073          	fsrmi	zero,3
    1420:	60b576cf          	fnmadd.s	fa3,fa0,fa1,fa2
    1424:	001028f3          	frflags	a7
    1428:	4cd7a027          	fsw	fa3,1216(a5)
    142c:	4d17a223          	sw	a7,1220(a5)

00001430 <inst_153>:
    1430:	72c82507          	flw	fa0,1836(a6)
    1434:	73082587          	flw	fa1,1840(a6)
    1438:	73482607          	flw	fa2,1844(a6)
    143c:	00215073          	fsrmi	zero,2
    1440:	60b576cf          	fnmadd.s	fa3,fa0,fa1,fa2
    1444:	001028f3          	frflags	a7
    1448:	4cd7a427          	fsw	fa3,1224(a5)
    144c:	4d17a623          	sw	a7,1228(a5)

00001450 <inst_154>:
    1450:	73882507          	flw	fa0,1848(a6)
    1454:	73c82587          	flw	fa1,1852(a6)
    1458:	74082607          	flw	fa2,1856(a6)
    145c:	0020d073          	fsrmi	zero,1
    1460:	60b576cf          	fnmadd.s	fa3,fa0,fa1,fa2
    1464:	001028f3          	frflags	a7
    1468:	4cd7a827          	fsw	fa3,1232(a5)
    146c:	4d17aa23          	sw	a7,1236(a5)

00001470 <inst_155>:
    1470:	74482507          	flw	fa0,1860(a6)
    1474:	74882587          	flw	fa1,1864(a6)
    1478:	74c82607          	flw	fa2,1868(a6)
    147c:	00205073          	fsrmi	zero,0
    1480:	60b576cf          	fnmadd.s	fa3,fa0,fa1,fa2
    1484:	001028f3          	frflags	a7
    1488:	4cd7ac27          	fsw	fa3,1240(a5)
    148c:	4d17ae23          	sw	a7,1244(a5)

00001490 <inst_156>:
    1490:	75082507          	flw	fa0,1872(a6)
    1494:	75482587          	flw	fa1,1876(a6)
    1498:	75882607          	flw	fa2,1880(a6)
    149c:	00225073          	fsrmi	zero,4
    14a0:	60b576cf          	fnmadd.s	fa3,fa0,fa1,fa2
    14a4:	001028f3          	frflags	a7
    14a8:	4ed7a027          	fsw	fa3,1248(a5)
    14ac:	4f17a223          	sw	a7,1252(a5)

000014b0 <inst_157>:
    14b0:	75c82507          	flw	fa0,1884(a6)
    14b4:	76082587          	flw	fa1,1888(a6)
    14b8:	76482607          	flw	fa2,1892(a6)
    14bc:	0021d073          	fsrmi	zero,3
    14c0:	60b576cf          	fnmadd.s	fa3,fa0,fa1,fa2
    14c4:	001028f3          	frflags	a7
    14c8:	4ed7a427          	fsw	fa3,1256(a5)
    14cc:	4f17a623          	sw	a7,1260(a5)

000014d0 <inst_158>:
    14d0:	76882507          	flw	fa0,1896(a6)
    14d4:	76c82587          	flw	fa1,1900(a6)
    14d8:	77082607          	flw	fa2,1904(a6)
    14dc:	00215073          	fsrmi	zero,2
    14e0:	60b576cf          	fnmadd.s	fa3,fa0,fa1,fa2
    14e4:	001028f3          	frflags	a7
    14e8:	4ed7a827          	fsw	fa3,1264(a5)
    14ec:	4f17aa23          	sw	a7,1268(a5)

000014f0 <inst_159>:
    14f0:	77482507          	flw	fa0,1908(a6)
    14f4:	77882587          	flw	fa1,1912(a6)
    14f8:	77c82607          	flw	fa2,1916(a6)
    14fc:	0020d073          	fsrmi	zero,1
    1500:	60b576cf          	fnmadd.s	fa3,fa0,fa1,fa2
    1504:	001028f3          	frflags	a7
    1508:	4ed7ac27          	fsw	fa3,1272(a5)
    150c:	4f17ae23          	sw	a7,1276(a5)

00001510 <inst_160>:
    1510:	78082507          	flw	fa0,1920(a6)
    1514:	78482587          	flw	fa1,1924(a6)
    1518:	78882607          	flw	fa2,1928(a6)
    151c:	00205073          	fsrmi	zero,0
    1520:	60b576cf          	fnmadd.s	fa3,fa0,fa1,fa2
    1524:	001028f3          	frflags	a7
    1528:	50d7a027          	fsw	fa3,1280(a5)
    152c:	5117a223          	sw	a7,1284(a5)

00001530 <inst_161>:
    1530:	78c82507          	flw	fa0,1932(a6)
    1534:	79082587          	flw	fa1,1936(a6)
    1538:	79482607          	flw	fa2,1940(a6)
    153c:	00225073          	fsrmi	zero,4
    1540:	60b576cf          	fnmadd.s	fa3,fa0,fa1,fa2
    1544:	001028f3          	frflags	a7
    1548:	50d7a427          	fsw	fa3,1288(a5)
    154c:	5117a623          	sw	a7,1292(a5)

00001550 <inst_162>:
    1550:	79882507          	flw	fa0,1944(a6)
    1554:	79c82587          	flw	fa1,1948(a6)
    1558:	7a082607          	flw	fa2,1952(a6)
    155c:	0021d073          	fsrmi	zero,3
    1560:	60b576cf          	fnmadd.s	fa3,fa0,fa1,fa2
    1564:	001028f3          	frflags	a7
    1568:	50d7a827          	fsw	fa3,1296(a5)
    156c:	5117aa23          	sw	a7,1300(a5)

00001570 <inst_163>:
    1570:	7a482507          	flw	fa0,1956(a6)
    1574:	7a882587          	flw	fa1,1960(a6)
    1578:	7ac82607          	flw	fa2,1964(a6)
    157c:	00215073          	fsrmi	zero,2
    1580:	60b576cf          	fnmadd.s	fa3,fa0,fa1,fa2
    1584:	001028f3          	frflags	a7
    1588:	50d7ac27          	fsw	fa3,1304(a5)
    158c:	5117ae23          	sw	a7,1308(a5)

00001590 <inst_164>:
    1590:	7b082507          	flw	fa0,1968(a6)
    1594:	7b482587          	flw	fa1,1972(a6)
    1598:	7b882607          	flw	fa2,1976(a6)
    159c:	0020d073          	fsrmi	zero,1
    15a0:	60b576cf          	fnmadd.s	fa3,fa0,fa1,fa2
    15a4:	001028f3          	frflags	a7
    15a8:	52d7a027          	fsw	fa3,1312(a5)
    15ac:	5317a223          	sw	a7,1316(a5)

000015b0 <inst_165>:
    15b0:	7bc82507          	flw	fa0,1980(a6)
    15b4:	7c082587          	flw	fa1,1984(a6)
    15b8:	7c482607          	flw	fa2,1988(a6)
    15bc:	00205073          	fsrmi	zero,0
    15c0:	60b576cf          	fnmadd.s	fa3,fa0,fa1,fa2
    15c4:	001028f3          	frflags	a7
    15c8:	52d7a427          	fsw	fa3,1320(a5)
    15cc:	5317a623          	sw	a7,1324(a5)

000015d0 <inst_166>:
    15d0:	7c882507          	flw	fa0,1992(a6)
    15d4:	7cc82587          	flw	fa1,1996(a6)
    15d8:	7d082607          	flw	fa2,2000(a6)
    15dc:	00225073          	fsrmi	zero,4
    15e0:	60b576cf          	fnmadd.s	fa3,fa0,fa1,fa2
    15e4:	001028f3          	frflags	a7
    15e8:	52d7a827          	fsw	fa3,1328(a5)
    15ec:	5317aa23          	sw	a7,1332(a5)

000015f0 <inst_167>:
    15f0:	7d482507          	flw	fa0,2004(a6)
    15f4:	7d882587          	flw	fa1,2008(a6)
    15f8:	7dc82607          	flw	fa2,2012(a6)
    15fc:	0021d073          	fsrmi	zero,3
    1600:	60b576cf          	fnmadd.s	fa3,fa0,fa1,fa2
    1604:	001028f3          	frflags	a7
    1608:	52d7ac27          	fsw	fa3,1336(a5)
    160c:	5317ae23          	sw	a7,1340(a5)

00001610 <inst_168>:
    1610:	7e082507          	flw	fa0,2016(a6)
    1614:	7e482587          	flw	fa1,2020(a6)
    1618:	7e882607          	flw	fa2,2024(a6)
    161c:	00215073          	fsrmi	zero,2
    1620:	60b576cf          	fnmadd.s	fa3,fa0,fa1,fa2
    1624:	001028f3          	frflags	a7
    1628:	54d7a027          	fsw	fa3,1344(a5)
    162c:	5517a223          	sw	a7,1348(a5)

00001630 <inst_169>:
    1630:	7ec82507          	flw	fa0,2028(a6)
    1634:	7f082587          	flw	fa1,2032(a6)
    1638:	7f482607          	flw	fa2,2036(a6)
    163c:	0020d073          	fsrmi	zero,1
    1640:	60b576cf          	fnmadd.s	fa3,fa0,fa1,fa2
    1644:	001028f3          	frflags	a7
    1648:	54d7a427          	fsw	fa3,1352(a5)
    164c:	5517a623          	sw	a7,1356(a5)
    1650:	7f880813          	add	a6,a6,2040

00001654 <inst_170>:
    1654:	00082507          	flw	fa0,0(a6)
    1658:	00482587          	flw	fa1,4(a6)
    165c:	00882607          	flw	fa2,8(a6)
    1660:	00205073          	fsrmi	zero,0
    1664:	60b576cf          	fnmadd.s	fa3,fa0,fa1,fa2
    1668:	001028f3          	frflags	a7
    166c:	54d7a827          	fsw	fa3,1360(a5)
    1670:	5517aa23          	sw	a7,1364(a5)

00001674 <inst_171>:
    1674:	00c82507          	flw	fa0,12(a6)
    1678:	01082587          	flw	fa1,16(a6)
    167c:	01482607          	flw	fa2,20(a6)
    1680:	00225073          	fsrmi	zero,4
    1684:	60b576cf          	fnmadd.s	fa3,fa0,fa1,fa2
    1688:	001028f3          	frflags	a7
    168c:	54d7ac27          	fsw	fa3,1368(a5)
    1690:	5517ae23          	sw	a7,1372(a5)

00001694 <inst_172>:
    1694:	01882507          	flw	fa0,24(a6)
    1698:	01c82587          	flw	fa1,28(a6)
    169c:	02082607          	flw	fa2,32(a6)
    16a0:	0021d073          	fsrmi	zero,3
    16a4:	60b576cf          	fnmadd.s	fa3,fa0,fa1,fa2
    16a8:	001028f3          	frflags	a7
    16ac:	56d7a027          	fsw	fa3,1376(a5)
    16b0:	5717a223          	sw	a7,1380(a5)

000016b4 <inst_173>:
    16b4:	02482507          	flw	fa0,36(a6)
    16b8:	02882587          	flw	fa1,40(a6)
    16bc:	02c82607          	flw	fa2,44(a6)
    16c0:	00215073          	fsrmi	zero,2
    16c4:	60b576cf          	fnmadd.s	fa3,fa0,fa1,fa2
    16c8:	001028f3          	frflags	a7
    16cc:	56d7a427          	fsw	fa3,1384(a5)
    16d0:	5717a623          	sw	a7,1388(a5)

000016d4 <inst_174>:
    16d4:	03082507          	flw	fa0,48(a6)
    16d8:	03482587          	flw	fa1,52(a6)
    16dc:	03882607          	flw	fa2,56(a6)
    16e0:	0020d073          	fsrmi	zero,1
    16e4:	60b576cf          	fnmadd.s	fa3,fa0,fa1,fa2
    16e8:	001028f3          	frflags	a7
    16ec:	56d7a827          	fsw	fa3,1392(a5)
    16f0:	5717aa23          	sw	a7,1396(a5)

000016f4 <inst_175>:
    16f4:	03c82507          	flw	fa0,60(a6)
    16f8:	04082587          	flw	fa1,64(a6)
    16fc:	04482607          	flw	fa2,68(a6)
    1700:	00205073          	fsrmi	zero,0
    1704:	60b576cf          	fnmadd.s	fa3,fa0,fa1,fa2
    1708:	001028f3          	frflags	a7
    170c:	56d7ac27          	fsw	fa3,1400(a5)
    1710:	5717ae23          	sw	a7,1404(a5)

00001714 <inst_176>:
    1714:	04882507          	flw	fa0,72(a6)
    1718:	04c82587          	flw	fa1,76(a6)
    171c:	05082607          	flw	fa2,80(a6)
    1720:	00225073          	fsrmi	zero,4
    1724:	60b576cf          	fnmadd.s	fa3,fa0,fa1,fa2
    1728:	001028f3          	frflags	a7
    172c:	58d7a027          	fsw	fa3,1408(a5)
    1730:	5917a223          	sw	a7,1412(a5)

00001734 <inst_177>:
    1734:	05482507          	flw	fa0,84(a6)
    1738:	05882587          	flw	fa1,88(a6)
    173c:	05c82607          	flw	fa2,92(a6)
    1740:	0021d073          	fsrmi	zero,3
    1744:	60b576cf          	fnmadd.s	fa3,fa0,fa1,fa2
    1748:	001028f3          	frflags	a7
    174c:	58d7a427          	fsw	fa3,1416(a5)
    1750:	5917a623          	sw	a7,1420(a5)

00001754 <inst_178>:
    1754:	06082507          	flw	fa0,96(a6)
    1758:	06482587          	flw	fa1,100(a6)
    175c:	06882607          	flw	fa2,104(a6)
    1760:	00215073          	fsrmi	zero,2
    1764:	60b576cf          	fnmadd.s	fa3,fa0,fa1,fa2
    1768:	001028f3          	frflags	a7
    176c:	58d7a827          	fsw	fa3,1424(a5)
    1770:	5917aa23          	sw	a7,1428(a5)

00001774 <inst_179>:
    1774:	06c82507          	flw	fa0,108(a6)
    1778:	07082587          	flw	fa1,112(a6)
    177c:	07482607          	flw	fa2,116(a6)
    1780:	0020d073          	fsrmi	zero,1
    1784:	60b576cf          	fnmadd.s	fa3,fa0,fa1,fa2
    1788:	001028f3          	frflags	a7
    178c:	58d7ac27          	fsw	fa3,1432(a5)
    1790:	5917ae23          	sw	a7,1436(a5)

00001794 <inst_180>:
    1794:	07882507          	flw	fa0,120(a6)
    1798:	07c82587          	flw	fa1,124(a6)
    179c:	08082607          	flw	fa2,128(a6)
    17a0:	00205073          	fsrmi	zero,0
    17a4:	60b576cf          	fnmadd.s	fa3,fa0,fa1,fa2
    17a8:	001028f3          	frflags	a7
    17ac:	5ad7a027          	fsw	fa3,1440(a5)
    17b0:	5b17a223          	sw	a7,1444(a5)

000017b4 <inst_181>:
    17b4:	08482507          	flw	fa0,132(a6)
    17b8:	08882587          	flw	fa1,136(a6)
    17bc:	08c82607          	flw	fa2,140(a6)
    17c0:	00225073          	fsrmi	zero,4
    17c4:	60b576cf          	fnmadd.s	fa3,fa0,fa1,fa2
    17c8:	001028f3          	frflags	a7
    17cc:	5ad7a427          	fsw	fa3,1448(a5)
    17d0:	5b17a623          	sw	a7,1452(a5)

000017d4 <inst_182>:
    17d4:	09082507          	flw	fa0,144(a6)
    17d8:	09482587          	flw	fa1,148(a6)
    17dc:	09882607          	flw	fa2,152(a6)
    17e0:	0021d073          	fsrmi	zero,3
    17e4:	60b576cf          	fnmadd.s	fa3,fa0,fa1,fa2
    17e8:	001028f3          	frflags	a7
    17ec:	5ad7a827          	fsw	fa3,1456(a5)
    17f0:	5b17aa23          	sw	a7,1460(a5)

000017f4 <inst_183>:
    17f4:	09c82507          	flw	fa0,156(a6)
    17f8:	0a082587          	flw	fa1,160(a6)
    17fc:	0a482607          	flw	fa2,164(a6)
    1800:	00215073          	fsrmi	zero,2
    1804:	60b576cf          	fnmadd.s	fa3,fa0,fa1,fa2
    1808:	001028f3          	frflags	a7
    180c:	5ad7ac27          	fsw	fa3,1464(a5)
    1810:	5b17ae23          	sw	a7,1468(a5)

00001814 <inst_184>:
    1814:	0a882507          	flw	fa0,168(a6)
    1818:	0ac82587          	flw	fa1,172(a6)
    181c:	0b082607          	flw	fa2,176(a6)
    1820:	0020d073          	fsrmi	zero,1
    1824:	60b576cf          	fnmadd.s	fa3,fa0,fa1,fa2
    1828:	001028f3          	frflags	a7
    182c:	5cd7a027          	fsw	fa3,1472(a5)
    1830:	5d17a223          	sw	a7,1476(a5)

00001834 <inst_185>:
    1834:	0b482507          	flw	fa0,180(a6)
    1838:	0b882587          	flw	fa1,184(a6)
    183c:	0bc82607          	flw	fa2,188(a6)
    1840:	00205073          	fsrmi	zero,0
    1844:	60b576cf          	fnmadd.s	fa3,fa0,fa1,fa2
    1848:	001028f3          	frflags	a7
    184c:	5cd7a427          	fsw	fa3,1480(a5)
    1850:	5d17a623          	sw	a7,1484(a5)

00001854 <inst_186>:
    1854:	0c082507          	flw	fa0,192(a6)
    1858:	0c482587          	flw	fa1,196(a6)
    185c:	0c882607          	flw	fa2,200(a6)
    1860:	00225073          	fsrmi	zero,4
    1864:	60b576cf          	fnmadd.s	fa3,fa0,fa1,fa2
    1868:	001028f3          	frflags	a7
    186c:	5cd7a827          	fsw	fa3,1488(a5)
    1870:	5d17aa23          	sw	a7,1492(a5)

00001874 <inst_187>:
    1874:	0cc82507          	flw	fa0,204(a6)
    1878:	0d082587          	flw	fa1,208(a6)
    187c:	0d482607          	flw	fa2,212(a6)
    1880:	0021d073          	fsrmi	zero,3
    1884:	60b576cf          	fnmadd.s	fa3,fa0,fa1,fa2
    1888:	001028f3          	frflags	a7
    188c:	5cd7ac27          	fsw	fa3,1496(a5)
    1890:	5d17ae23          	sw	a7,1500(a5)

00001894 <inst_188>:
    1894:	0d882507          	flw	fa0,216(a6)
    1898:	0dc82587          	flw	fa1,220(a6)
    189c:	0e082607          	flw	fa2,224(a6)
    18a0:	00215073          	fsrmi	zero,2
    18a4:	60b576cf          	fnmadd.s	fa3,fa0,fa1,fa2
    18a8:	001028f3          	frflags	a7
    18ac:	5ed7a027          	fsw	fa3,1504(a5)
    18b0:	5f17a223          	sw	a7,1508(a5)

000018b4 <inst_189>:
    18b4:	0e482507          	flw	fa0,228(a6)
    18b8:	0e882587          	flw	fa1,232(a6)
    18bc:	0ec82607          	flw	fa2,236(a6)
    18c0:	0020d073          	fsrmi	zero,1
    18c4:	60b576cf          	fnmadd.s	fa3,fa0,fa1,fa2
    18c8:	001028f3          	frflags	a7
    18cc:	5ed7a427          	fsw	fa3,1512(a5)
    18d0:	5f17a623          	sw	a7,1516(a5)

000018d4 <inst_190>:
    18d4:	0f082507          	flw	fa0,240(a6)
    18d8:	0f482587          	flw	fa1,244(a6)
    18dc:	0f882607          	flw	fa2,248(a6)
    18e0:	00205073          	fsrmi	zero,0
    18e4:	60b576cf          	fnmadd.s	fa3,fa0,fa1,fa2
    18e8:	001028f3          	frflags	a7
    18ec:	5ed7a827          	fsw	fa3,1520(a5)
    18f0:	5f17aa23          	sw	a7,1524(a5)

000018f4 <inst_191>:
    18f4:	0fc82507          	flw	fa0,252(a6)
    18f8:	10082587          	flw	fa1,256(a6)
    18fc:	10482607          	flw	fa2,260(a6)
    1900:	00225073          	fsrmi	zero,4
    1904:	60b576cf          	fnmadd.s	fa3,fa0,fa1,fa2
    1908:	001028f3          	frflags	a7
    190c:	5ed7ac27          	fsw	fa3,1528(a5)
    1910:	5f17ae23          	sw	a7,1532(a5)

00001914 <inst_192>:
    1914:	10882507          	flw	fa0,264(a6)
    1918:	10c82587          	flw	fa1,268(a6)
    191c:	11082607          	flw	fa2,272(a6)
    1920:	0021d073          	fsrmi	zero,3
    1924:	60b576cf          	fnmadd.s	fa3,fa0,fa1,fa2
    1928:	001028f3          	frflags	a7
    192c:	60d7a027          	fsw	fa3,1536(a5)
    1930:	6117a223          	sw	a7,1540(a5)

00001934 <inst_193>:
    1934:	11482507          	flw	fa0,276(a6)
    1938:	11882587          	flw	fa1,280(a6)
    193c:	11c82607          	flw	fa2,284(a6)
    1940:	00215073          	fsrmi	zero,2
    1944:	60b576cf          	fnmadd.s	fa3,fa0,fa1,fa2
    1948:	001028f3          	frflags	a7
    194c:	60d7a427          	fsw	fa3,1544(a5)
    1950:	6117a623          	sw	a7,1548(a5)

00001954 <inst_194>:
    1954:	12082507          	flw	fa0,288(a6)
    1958:	12482587          	flw	fa1,292(a6)
    195c:	12882607          	flw	fa2,296(a6)
    1960:	0020d073          	fsrmi	zero,1
    1964:	60b576cf          	fnmadd.s	fa3,fa0,fa1,fa2
    1968:	001028f3          	frflags	a7
    196c:	60d7a827          	fsw	fa3,1552(a5)
    1970:	6117aa23          	sw	a7,1556(a5)

00001974 <inst_195>:
    1974:	12c82507          	flw	fa0,300(a6)
    1978:	13082587          	flw	fa1,304(a6)
    197c:	13482607          	flw	fa2,308(a6)
    1980:	00205073          	fsrmi	zero,0
    1984:	60b576cf          	fnmadd.s	fa3,fa0,fa1,fa2
    1988:	001028f3          	frflags	a7
    198c:	60d7ac27          	fsw	fa3,1560(a5)
    1990:	6117ae23          	sw	a7,1564(a5)

00001994 <inst_196>:
    1994:	13882507          	flw	fa0,312(a6)
    1998:	13c82587          	flw	fa1,316(a6)
    199c:	14082607          	flw	fa2,320(a6)
    19a0:	00225073          	fsrmi	zero,4
    19a4:	60b576cf          	fnmadd.s	fa3,fa0,fa1,fa2
    19a8:	001028f3          	frflags	a7
    19ac:	62d7a027          	fsw	fa3,1568(a5)
    19b0:	6317a223          	sw	a7,1572(a5)

000019b4 <inst_197>:
    19b4:	14482507          	flw	fa0,324(a6)
    19b8:	14882587          	flw	fa1,328(a6)
    19bc:	14c82607          	flw	fa2,332(a6)
    19c0:	0021d073          	fsrmi	zero,3
    19c4:	60b576cf          	fnmadd.s	fa3,fa0,fa1,fa2
    19c8:	001028f3          	frflags	a7
    19cc:	62d7a427          	fsw	fa3,1576(a5)
    19d0:	6317a623          	sw	a7,1580(a5)

000019d4 <inst_198>:
    19d4:	15082507          	flw	fa0,336(a6)
    19d8:	15482587          	flw	fa1,340(a6)
    19dc:	15882607          	flw	fa2,344(a6)
    19e0:	00215073          	fsrmi	zero,2
    19e4:	60b576cf          	fnmadd.s	fa3,fa0,fa1,fa2
    19e8:	001028f3          	frflags	a7
    19ec:	62d7a827          	fsw	fa3,1584(a5)
    19f0:	6317aa23          	sw	a7,1588(a5)

000019f4 <inst_199>:
    19f4:	15c82507          	flw	fa0,348(a6)
    19f8:	16082587          	flw	fa1,352(a6)
    19fc:	16482607          	flw	fa2,356(a6)
    1a00:	0020d073          	fsrmi	zero,1
    1a04:	60b576cf          	fnmadd.s	fa3,fa0,fa1,fa2
    1a08:	001028f3          	frflags	a7
    1a0c:	62d7ac27          	fsw	fa3,1592(a5)
    1a10:	6317ae23          	sw	a7,1596(a5)

00001a14 <inst_200>:
    1a14:	16882507          	flw	fa0,360(a6)
    1a18:	16c82587          	flw	fa1,364(a6)
    1a1c:	17082607          	flw	fa2,368(a6)
    1a20:	00205073          	fsrmi	zero,0
    1a24:	60b576cf          	fnmadd.s	fa3,fa0,fa1,fa2
    1a28:	001028f3          	frflags	a7
    1a2c:	64d7a027          	fsw	fa3,1600(a5)
    1a30:	6517a223          	sw	a7,1604(a5)

00001a34 <inst_201>:
    1a34:	17482507          	flw	fa0,372(a6)
    1a38:	17882587          	flw	fa1,376(a6)
    1a3c:	17c82607          	flw	fa2,380(a6)
    1a40:	00225073          	fsrmi	zero,4
    1a44:	60b576cf          	fnmadd.s	fa3,fa0,fa1,fa2
    1a48:	001028f3          	frflags	a7
    1a4c:	64d7a427          	fsw	fa3,1608(a5)
    1a50:	6517a623          	sw	a7,1612(a5)

00001a54 <inst_202>:
    1a54:	18082507          	flw	fa0,384(a6)
    1a58:	18482587          	flw	fa1,388(a6)
    1a5c:	18882607          	flw	fa2,392(a6)
    1a60:	0021d073          	fsrmi	zero,3
    1a64:	60b576cf          	fnmadd.s	fa3,fa0,fa1,fa2
    1a68:	001028f3          	frflags	a7
    1a6c:	64d7a827          	fsw	fa3,1616(a5)
    1a70:	6517aa23          	sw	a7,1620(a5)

00001a74 <inst_203>:
    1a74:	18c82507          	flw	fa0,396(a6)
    1a78:	19082587          	flw	fa1,400(a6)
    1a7c:	19482607          	flw	fa2,404(a6)
    1a80:	00215073          	fsrmi	zero,2
    1a84:	60b576cf          	fnmadd.s	fa3,fa0,fa1,fa2
    1a88:	001028f3          	frflags	a7
    1a8c:	64d7ac27          	fsw	fa3,1624(a5)
    1a90:	6517ae23          	sw	a7,1628(a5)

00001a94 <inst_204>:
    1a94:	19882507          	flw	fa0,408(a6)
    1a98:	19c82587          	flw	fa1,412(a6)
    1a9c:	1a082607          	flw	fa2,416(a6)
    1aa0:	0020d073          	fsrmi	zero,1
    1aa4:	60b576cf          	fnmadd.s	fa3,fa0,fa1,fa2
    1aa8:	001028f3          	frflags	a7
    1aac:	66d7a027          	fsw	fa3,1632(a5)
    1ab0:	6717a223          	sw	a7,1636(a5)

00001ab4 <inst_205>:
    1ab4:	1a482507          	flw	fa0,420(a6)
    1ab8:	1a882587          	flw	fa1,424(a6)
    1abc:	1ac82607          	flw	fa2,428(a6)
    1ac0:	00205073          	fsrmi	zero,0
    1ac4:	60b576cf          	fnmadd.s	fa3,fa0,fa1,fa2
    1ac8:	001028f3          	frflags	a7
    1acc:	66d7a427          	fsw	fa3,1640(a5)
    1ad0:	6717a623          	sw	a7,1644(a5)

00001ad4 <inst_206>:
    1ad4:	1b082507          	flw	fa0,432(a6)
    1ad8:	1b482587          	flw	fa1,436(a6)
    1adc:	1b882607          	flw	fa2,440(a6)
    1ae0:	00225073          	fsrmi	zero,4
    1ae4:	60b576cf          	fnmadd.s	fa3,fa0,fa1,fa2
    1ae8:	001028f3          	frflags	a7
    1aec:	66d7a827          	fsw	fa3,1648(a5)
    1af0:	6717aa23          	sw	a7,1652(a5)

00001af4 <inst_207>:
    1af4:	1bc82507          	flw	fa0,444(a6)
    1af8:	1c082587          	flw	fa1,448(a6)
    1afc:	1c482607          	flw	fa2,452(a6)
    1b00:	0021d073          	fsrmi	zero,3
    1b04:	60b576cf          	fnmadd.s	fa3,fa0,fa1,fa2
    1b08:	001028f3          	frflags	a7
    1b0c:	66d7ac27          	fsw	fa3,1656(a5)
    1b10:	6717ae23          	sw	a7,1660(a5)

00001b14 <inst_208>:
    1b14:	1c882507          	flw	fa0,456(a6)
    1b18:	1cc82587          	flw	fa1,460(a6)
    1b1c:	1d082607          	flw	fa2,464(a6)
    1b20:	00215073          	fsrmi	zero,2
    1b24:	60b576cf          	fnmadd.s	fa3,fa0,fa1,fa2
    1b28:	001028f3          	frflags	a7
    1b2c:	68d7a027          	fsw	fa3,1664(a5)
    1b30:	6917a223          	sw	a7,1668(a5)

00001b34 <inst_209>:
    1b34:	1d482507          	flw	fa0,468(a6)
    1b38:	1d882587          	flw	fa1,472(a6)
    1b3c:	1dc82607          	flw	fa2,476(a6)
    1b40:	0020d073          	fsrmi	zero,1
    1b44:	60b576cf          	fnmadd.s	fa3,fa0,fa1,fa2
    1b48:	001028f3          	frflags	a7
    1b4c:	68d7a427          	fsw	fa3,1672(a5)
    1b50:	6917a623          	sw	a7,1676(a5)

00001b54 <inst_210>:
    1b54:	1e082507          	flw	fa0,480(a6)
    1b58:	1e482587          	flw	fa1,484(a6)
    1b5c:	1e882607          	flw	fa2,488(a6)
    1b60:	00205073          	fsrmi	zero,0
    1b64:	60b576cf          	fnmadd.s	fa3,fa0,fa1,fa2
    1b68:	001028f3          	frflags	a7
    1b6c:	68d7a827          	fsw	fa3,1680(a5)
    1b70:	6917aa23          	sw	a7,1684(a5)

00001b74 <inst_211>:
    1b74:	1ec82507          	flw	fa0,492(a6)
    1b78:	1f082587          	flw	fa1,496(a6)
    1b7c:	1f482607          	flw	fa2,500(a6)
    1b80:	00225073          	fsrmi	zero,4
    1b84:	60b576cf          	fnmadd.s	fa3,fa0,fa1,fa2
    1b88:	001028f3          	frflags	a7
    1b8c:	68d7ac27          	fsw	fa3,1688(a5)
    1b90:	6917ae23          	sw	a7,1692(a5)

00001b94 <inst_212>:
    1b94:	1f882507          	flw	fa0,504(a6)
    1b98:	1fc82587          	flw	fa1,508(a6)
    1b9c:	20082607          	flw	fa2,512(a6)
    1ba0:	0021d073          	fsrmi	zero,3
    1ba4:	60b576cf          	fnmadd.s	fa3,fa0,fa1,fa2
    1ba8:	001028f3          	frflags	a7
    1bac:	6ad7a027          	fsw	fa3,1696(a5)
    1bb0:	6b17a223          	sw	a7,1700(a5)

00001bb4 <inst_213>:
    1bb4:	20482507          	flw	fa0,516(a6)
    1bb8:	20882587          	flw	fa1,520(a6)
    1bbc:	20c82607          	flw	fa2,524(a6)
    1bc0:	00215073          	fsrmi	zero,2
    1bc4:	60b576cf          	fnmadd.s	fa3,fa0,fa1,fa2
    1bc8:	001028f3          	frflags	a7
    1bcc:	6ad7a427          	fsw	fa3,1704(a5)
    1bd0:	6b17a623          	sw	a7,1708(a5)

00001bd4 <inst_214>:
    1bd4:	21082507          	flw	fa0,528(a6)
    1bd8:	21482587          	flw	fa1,532(a6)
    1bdc:	21882607          	flw	fa2,536(a6)
    1be0:	0020d073          	fsrmi	zero,1
    1be4:	60b576cf          	fnmadd.s	fa3,fa0,fa1,fa2
    1be8:	001028f3          	frflags	a7
    1bec:	6ad7a827          	fsw	fa3,1712(a5)
    1bf0:	6b17aa23          	sw	a7,1716(a5)

00001bf4 <inst_215>:
    1bf4:	21c82507          	flw	fa0,540(a6)
    1bf8:	22082587          	flw	fa1,544(a6)
    1bfc:	22482607          	flw	fa2,548(a6)
    1c00:	00205073          	fsrmi	zero,0
    1c04:	60b576cf          	fnmadd.s	fa3,fa0,fa1,fa2
    1c08:	001028f3          	frflags	a7
    1c0c:	6ad7ac27          	fsw	fa3,1720(a5)
    1c10:	6b17ae23          	sw	a7,1724(a5)

00001c14 <inst_216>:
    1c14:	22882507          	flw	fa0,552(a6)
    1c18:	22c82587          	flw	fa1,556(a6)
    1c1c:	23082607          	flw	fa2,560(a6)
    1c20:	00225073          	fsrmi	zero,4
    1c24:	60b576cf          	fnmadd.s	fa3,fa0,fa1,fa2
    1c28:	001028f3          	frflags	a7
    1c2c:	6cd7a027          	fsw	fa3,1728(a5)
    1c30:	6d17a223          	sw	a7,1732(a5)

00001c34 <inst_217>:
    1c34:	23482507          	flw	fa0,564(a6)
    1c38:	23882587          	flw	fa1,568(a6)
    1c3c:	23c82607          	flw	fa2,572(a6)
    1c40:	0021d073          	fsrmi	zero,3
    1c44:	60b576cf          	fnmadd.s	fa3,fa0,fa1,fa2
    1c48:	001028f3          	frflags	a7
    1c4c:	6cd7a427          	fsw	fa3,1736(a5)
    1c50:	6d17a623          	sw	a7,1740(a5)

00001c54 <inst_218>:
    1c54:	24082507          	flw	fa0,576(a6)
    1c58:	24482587          	flw	fa1,580(a6)
    1c5c:	24882607          	flw	fa2,584(a6)
    1c60:	00215073          	fsrmi	zero,2
    1c64:	60b576cf          	fnmadd.s	fa3,fa0,fa1,fa2
    1c68:	001028f3          	frflags	a7
    1c6c:	6cd7a827          	fsw	fa3,1744(a5)
    1c70:	6d17aa23          	sw	a7,1748(a5)

00001c74 <inst_219>:
    1c74:	24c82507          	flw	fa0,588(a6)
    1c78:	25082587          	flw	fa1,592(a6)
    1c7c:	25482607          	flw	fa2,596(a6)
    1c80:	0020d073          	fsrmi	zero,1
    1c84:	60b576cf          	fnmadd.s	fa3,fa0,fa1,fa2
    1c88:	001028f3          	frflags	a7
    1c8c:	6cd7ac27          	fsw	fa3,1752(a5)
    1c90:	6d17ae23          	sw	a7,1756(a5)

00001c94 <inst_220>:
    1c94:	25882507          	flw	fa0,600(a6)
    1c98:	25c82587          	flw	fa1,604(a6)
    1c9c:	26082607          	flw	fa2,608(a6)
    1ca0:	00205073          	fsrmi	zero,0
    1ca4:	60b576cf          	fnmadd.s	fa3,fa0,fa1,fa2
    1ca8:	001028f3          	frflags	a7
    1cac:	6ed7a027          	fsw	fa3,1760(a5)
    1cb0:	6f17a223          	sw	a7,1764(a5)

00001cb4 <inst_221>:
    1cb4:	26482507          	flw	fa0,612(a6)
    1cb8:	26882587          	flw	fa1,616(a6)
    1cbc:	26c82607          	flw	fa2,620(a6)
    1cc0:	00225073          	fsrmi	zero,4
    1cc4:	60b576cf          	fnmadd.s	fa3,fa0,fa1,fa2
    1cc8:	001028f3          	frflags	a7
    1ccc:	6ed7a427          	fsw	fa3,1768(a5)
    1cd0:	6f17a623          	sw	a7,1772(a5)

00001cd4 <inst_222>:
    1cd4:	27082507          	flw	fa0,624(a6)
    1cd8:	27482587          	flw	fa1,628(a6)
    1cdc:	27882607          	flw	fa2,632(a6)
    1ce0:	0021d073          	fsrmi	zero,3
    1ce4:	60b576cf          	fnmadd.s	fa3,fa0,fa1,fa2
    1ce8:	001028f3          	frflags	a7
    1cec:	6ed7a827          	fsw	fa3,1776(a5)
    1cf0:	6f17aa23          	sw	a7,1780(a5)

00001cf4 <inst_223>:
    1cf4:	27c82507          	flw	fa0,636(a6)
    1cf8:	28082587          	flw	fa1,640(a6)
    1cfc:	28482607          	flw	fa2,644(a6)
    1d00:	00215073          	fsrmi	zero,2
    1d04:	60b576cf          	fnmadd.s	fa3,fa0,fa1,fa2
    1d08:	001028f3          	frflags	a7
    1d0c:	6ed7ac27          	fsw	fa3,1784(a5)
    1d10:	6f17ae23          	sw	a7,1788(a5)

00001d14 <inst_224>:
    1d14:	28882507          	flw	fa0,648(a6)
    1d18:	28c82587          	flw	fa1,652(a6)
    1d1c:	29082607          	flw	fa2,656(a6)
    1d20:	0020d073          	fsrmi	zero,1
    1d24:	60b576cf          	fnmadd.s	fa3,fa0,fa1,fa2
    1d28:	001028f3          	frflags	a7
    1d2c:	70d7a027          	fsw	fa3,1792(a5)
    1d30:	7117a223          	sw	a7,1796(a5)

00001d34 <inst_225>:
    1d34:	29482507          	flw	fa0,660(a6)
    1d38:	29882587          	flw	fa1,664(a6)
    1d3c:	29c82607          	flw	fa2,668(a6)
    1d40:	00205073          	fsrmi	zero,0
    1d44:	60b576cf          	fnmadd.s	fa3,fa0,fa1,fa2
    1d48:	001028f3          	frflags	a7
    1d4c:	70d7a427          	fsw	fa3,1800(a5)
    1d50:	7117a623          	sw	a7,1804(a5)

00001d54 <inst_226>:
    1d54:	2a082507          	flw	fa0,672(a6)
    1d58:	2a482587          	flw	fa1,676(a6)
    1d5c:	2a882607          	flw	fa2,680(a6)
    1d60:	00225073          	fsrmi	zero,4
    1d64:	60b576cf          	fnmadd.s	fa3,fa0,fa1,fa2
    1d68:	001028f3          	frflags	a7
    1d6c:	70d7a827          	fsw	fa3,1808(a5)
    1d70:	7117aa23          	sw	a7,1812(a5)

00001d74 <inst_227>:
    1d74:	2ac82507          	flw	fa0,684(a6)
    1d78:	2b082587          	flw	fa1,688(a6)
    1d7c:	2b482607          	flw	fa2,692(a6)
    1d80:	0021d073          	fsrmi	zero,3
    1d84:	60b576cf          	fnmadd.s	fa3,fa0,fa1,fa2
    1d88:	001028f3          	frflags	a7
    1d8c:	70d7ac27          	fsw	fa3,1816(a5)
    1d90:	7117ae23          	sw	a7,1820(a5)

00001d94 <inst_228>:
    1d94:	2b882507          	flw	fa0,696(a6)
    1d98:	2bc82587          	flw	fa1,700(a6)
    1d9c:	2c082607          	flw	fa2,704(a6)
    1da0:	00215073          	fsrmi	zero,2
    1da4:	60b576cf          	fnmadd.s	fa3,fa0,fa1,fa2
    1da8:	001028f3          	frflags	a7
    1dac:	72d7a027          	fsw	fa3,1824(a5)
    1db0:	7317a223          	sw	a7,1828(a5)

00001db4 <inst_229>:
    1db4:	2c482507          	flw	fa0,708(a6)
    1db8:	2c882587          	flw	fa1,712(a6)
    1dbc:	2cc82607          	flw	fa2,716(a6)
    1dc0:	0020d073          	fsrmi	zero,1
    1dc4:	60b576cf          	fnmadd.s	fa3,fa0,fa1,fa2
    1dc8:	001028f3          	frflags	a7
    1dcc:	72d7a427          	fsw	fa3,1832(a5)
    1dd0:	7317a623          	sw	a7,1836(a5)

00001dd4 <inst_230>:
    1dd4:	2d082507          	flw	fa0,720(a6)
    1dd8:	2d482587          	flw	fa1,724(a6)
    1ddc:	2d882607          	flw	fa2,728(a6)
    1de0:	00205073          	fsrmi	zero,0
    1de4:	60b576cf          	fnmadd.s	fa3,fa0,fa1,fa2
    1de8:	001028f3          	frflags	a7
    1dec:	72d7a827          	fsw	fa3,1840(a5)
    1df0:	7317aa23          	sw	a7,1844(a5)

00001df4 <inst_231>:
    1df4:	2dc82507          	flw	fa0,732(a6)
    1df8:	2e082587          	flw	fa1,736(a6)
    1dfc:	2e482607          	flw	fa2,740(a6)
    1e00:	00225073          	fsrmi	zero,4
    1e04:	60b576cf          	fnmadd.s	fa3,fa0,fa1,fa2
    1e08:	001028f3          	frflags	a7
    1e0c:	72d7ac27          	fsw	fa3,1848(a5)
    1e10:	7317ae23          	sw	a7,1852(a5)

00001e14 <inst_232>:
    1e14:	2e882507          	flw	fa0,744(a6)
    1e18:	2ec82587          	flw	fa1,748(a6)
    1e1c:	2f082607          	flw	fa2,752(a6)
    1e20:	0021d073          	fsrmi	zero,3
    1e24:	60b576cf          	fnmadd.s	fa3,fa0,fa1,fa2
    1e28:	001028f3          	frflags	a7
    1e2c:	74d7a027          	fsw	fa3,1856(a5)
    1e30:	7517a223          	sw	a7,1860(a5)

00001e34 <inst_233>:
    1e34:	2f482507          	flw	fa0,756(a6)
    1e38:	2f882587          	flw	fa1,760(a6)
    1e3c:	2fc82607          	flw	fa2,764(a6)
    1e40:	00215073          	fsrmi	zero,2
    1e44:	60b576cf          	fnmadd.s	fa3,fa0,fa1,fa2
    1e48:	001028f3          	frflags	a7
    1e4c:	74d7a427          	fsw	fa3,1864(a5)
    1e50:	7517a623          	sw	a7,1868(a5)

00001e54 <inst_234>:
    1e54:	30082507          	flw	fa0,768(a6)
    1e58:	30482587          	flw	fa1,772(a6)
    1e5c:	30882607          	flw	fa2,776(a6)
    1e60:	0020d073          	fsrmi	zero,1
    1e64:	60b576cf          	fnmadd.s	fa3,fa0,fa1,fa2
    1e68:	001028f3          	frflags	a7
    1e6c:	74d7a827          	fsw	fa3,1872(a5)
    1e70:	7517aa23          	sw	a7,1876(a5)

00001e74 <inst_235>:
    1e74:	30c82507          	flw	fa0,780(a6)
    1e78:	31082587          	flw	fa1,784(a6)
    1e7c:	31482607          	flw	fa2,788(a6)
    1e80:	00205073          	fsrmi	zero,0
    1e84:	60b576cf          	fnmadd.s	fa3,fa0,fa1,fa2
    1e88:	001028f3          	frflags	a7
    1e8c:	74d7ac27          	fsw	fa3,1880(a5)
    1e90:	7517ae23          	sw	a7,1884(a5)

00001e94 <inst_236>:
    1e94:	31882507          	flw	fa0,792(a6)
    1e98:	31c82587          	flw	fa1,796(a6)
    1e9c:	32082607          	flw	fa2,800(a6)
    1ea0:	00225073          	fsrmi	zero,4
    1ea4:	60b576cf          	fnmadd.s	fa3,fa0,fa1,fa2
    1ea8:	001028f3          	frflags	a7
    1eac:	76d7a027          	fsw	fa3,1888(a5)
    1eb0:	7717a223          	sw	a7,1892(a5)

00001eb4 <inst_237>:
    1eb4:	32482507          	flw	fa0,804(a6)
    1eb8:	32882587          	flw	fa1,808(a6)
    1ebc:	32c82607          	flw	fa2,812(a6)
    1ec0:	0021d073          	fsrmi	zero,3
    1ec4:	60b576cf          	fnmadd.s	fa3,fa0,fa1,fa2
    1ec8:	001028f3          	frflags	a7
    1ecc:	76d7a427          	fsw	fa3,1896(a5)
    1ed0:	7717a623          	sw	a7,1900(a5)

00001ed4 <inst_238>:
    1ed4:	33082507          	flw	fa0,816(a6)
    1ed8:	33482587          	flw	fa1,820(a6)
    1edc:	33882607          	flw	fa2,824(a6)
    1ee0:	00215073          	fsrmi	zero,2
    1ee4:	60b576cf          	fnmadd.s	fa3,fa0,fa1,fa2
    1ee8:	001028f3          	frflags	a7
    1eec:	76d7a827          	fsw	fa3,1904(a5)
    1ef0:	7717aa23          	sw	a7,1908(a5)

00001ef4 <inst_239>:
    1ef4:	33c82507          	flw	fa0,828(a6)
    1ef8:	34082587          	flw	fa1,832(a6)
    1efc:	34482607          	flw	fa2,836(a6)
    1f00:	0020d073          	fsrmi	zero,1
    1f04:	60b576cf          	fnmadd.s	fa3,fa0,fa1,fa2
    1f08:	001028f3          	frflags	a7
    1f0c:	76d7ac27          	fsw	fa3,1912(a5)
    1f10:	7717ae23          	sw	a7,1916(a5)

00001f14 <inst_240>:
    1f14:	34882507          	flw	fa0,840(a6)
    1f18:	34c82587          	flw	fa1,844(a6)
    1f1c:	35082607          	flw	fa2,848(a6)
    1f20:	00205073          	fsrmi	zero,0
    1f24:	60b576cf          	fnmadd.s	fa3,fa0,fa1,fa2
    1f28:	001028f3          	frflags	a7
    1f2c:	78d7a027          	fsw	fa3,1920(a5)
    1f30:	7917a223          	sw	a7,1924(a5)

00001f34 <inst_241>:
    1f34:	35482507          	flw	fa0,852(a6)
    1f38:	35882587          	flw	fa1,856(a6)
    1f3c:	35c82607          	flw	fa2,860(a6)
    1f40:	00225073          	fsrmi	zero,4
    1f44:	60b576cf          	fnmadd.s	fa3,fa0,fa1,fa2
    1f48:	001028f3          	frflags	a7
    1f4c:	78d7a427          	fsw	fa3,1928(a5)
    1f50:	7917a623          	sw	a7,1932(a5)

00001f54 <inst_242>:
    1f54:	36082507          	flw	fa0,864(a6)
    1f58:	36482587          	flw	fa1,868(a6)
    1f5c:	36882607          	flw	fa2,872(a6)
    1f60:	0021d073          	fsrmi	zero,3
    1f64:	60b576cf          	fnmadd.s	fa3,fa0,fa1,fa2
    1f68:	001028f3          	frflags	a7
    1f6c:	78d7a827          	fsw	fa3,1936(a5)
    1f70:	7917aa23          	sw	a7,1940(a5)

00001f74 <inst_243>:
    1f74:	36c82507          	flw	fa0,876(a6)
    1f78:	37082587          	flw	fa1,880(a6)
    1f7c:	37482607          	flw	fa2,884(a6)
    1f80:	00215073          	fsrmi	zero,2
    1f84:	60b576cf          	fnmadd.s	fa3,fa0,fa1,fa2
    1f88:	001028f3          	frflags	a7
    1f8c:	78d7ac27          	fsw	fa3,1944(a5)
    1f90:	7917ae23          	sw	a7,1948(a5)

00001f94 <inst_244>:
    1f94:	37882507          	flw	fa0,888(a6)
    1f98:	37c82587          	flw	fa1,892(a6)
    1f9c:	38082607          	flw	fa2,896(a6)
    1fa0:	0020d073          	fsrmi	zero,1
    1fa4:	60b576cf          	fnmadd.s	fa3,fa0,fa1,fa2
    1fa8:	001028f3          	frflags	a7
    1fac:	7ad7a027          	fsw	fa3,1952(a5)
    1fb0:	7b17a223          	sw	a7,1956(a5)

00001fb4 <inst_245>:
    1fb4:	38482507          	flw	fa0,900(a6)
    1fb8:	38882587          	flw	fa1,904(a6)
    1fbc:	38c82607          	flw	fa2,908(a6)
    1fc0:	00205073          	fsrmi	zero,0
    1fc4:	60b576cf          	fnmadd.s	fa3,fa0,fa1,fa2
    1fc8:	001028f3          	frflags	a7
    1fcc:	7ad7a427          	fsw	fa3,1960(a5)
    1fd0:	7b17a623          	sw	a7,1964(a5)

00001fd4 <inst_246>:
    1fd4:	39082507          	flw	fa0,912(a6)
    1fd8:	39482587          	flw	fa1,916(a6)
    1fdc:	39882607          	flw	fa2,920(a6)
    1fe0:	00225073          	fsrmi	zero,4
    1fe4:	60b576cf          	fnmadd.s	fa3,fa0,fa1,fa2
    1fe8:	001028f3          	frflags	a7
    1fec:	7ad7a827          	fsw	fa3,1968(a5)
    1ff0:	7b17aa23          	sw	a7,1972(a5)

00001ff4 <inst_247>:
    1ff4:	39c82507          	flw	fa0,924(a6)
    1ff8:	3a082587          	flw	fa1,928(a6)
    1ffc:	3a482607          	flw	fa2,932(a6)
    2000:	0021d073          	fsrmi	zero,3
    2004:	60b576cf          	fnmadd.s	fa3,fa0,fa1,fa2
    2008:	001028f3          	frflags	a7
    200c:	7ad7ac27          	fsw	fa3,1976(a5)
    2010:	7b17ae23          	sw	a7,1980(a5)

00002014 <inst_248>:
    2014:	3a882507          	flw	fa0,936(a6)
    2018:	3ac82587          	flw	fa1,940(a6)
    201c:	3b082607          	flw	fa2,944(a6)
    2020:	00215073          	fsrmi	zero,2
    2024:	60b576cf          	fnmadd.s	fa3,fa0,fa1,fa2
    2028:	001028f3          	frflags	a7
    202c:	7cd7a027          	fsw	fa3,1984(a5)
    2030:	7d17a223          	sw	a7,1988(a5)

00002034 <inst_249>:
    2034:	3b482507          	flw	fa0,948(a6)
    2038:	3b882587          	flw	fa1,952(a6)
    203c:	3bc82607          	flw	fa2,956(a6)
    2040:	0020d073          	fsrmi	zero,1
    2044:	60b576cf          	fnmadd.s	fa3,fa0,fa1,fa2
    2048:	001028f3          	frflags	a7
    204c:	7cd7a427          	fsw	fa3,1992(a5)
    2050:	7d17a623          	sw	a7,1996(a5)

00002054 <inst_250>:
    2054:	3c082507          	flw	fa0,960(a6)
    2058:	3c482587          	flw	fa1,964(a6)
    205c:	3c882607          	flw	fa2,968(a6)
    2060:	00205073          	fsrmi	zero,0
    2064:	60b576cf          	fnmadd.s	fa3,fa0,fa1,fa2
    2068:	001028f3          	frflags	a7
    206c:	7cd7a827          	fsw	fa3,2000(a5)
    2070:	7d17aa23          	sw	a7,2004(a5)

00002074 <inst_251>:
    2074:	3cc82507          	flw	fa0,972(a6)
    2078:	3d082587          	flw	fa1,976(a6)
    207c:	3d482607          	flw	fa2,980(a6)
    2080:	00225073          	fsrmi	zero,4
    2084:	60b576cf          	fnmadd.s	fa3,fa0,fa1,fa2
    2088:	001028f3          	frflags	a7
    208c:	7cd7ac27          	fsw	fa3,2008(a5)
    2090:	7d17ae23          	sw	a7,2012(a5)

00002094 <inst_252>:
    2094:	3d882507          	flw	fa0,984(a6)
    2098:	3dc82587          	flw	fa1,988(a6)
    209c:	3e082607          	flw	fa2,992(a6)
    20a0:	0021d073          	fsrmi	zero,3
    20a4:	60b576cf          	fnmadd.s	fa3,fa0,fa1,fa2
    20a8:	001028f3          	frflags	a7
    20ac:	7ed7a027          	fsw	fa3,2016(a5)
    20b0:	7f17a223          	sw	a7,2020(a5)

000020b4 <inst_253>:
    20b4:	3e482507          	flw	fa0,996(a6)
    20b8:	3e882587          	flw	fa1,1000(a6)
    20bc:	3ec82607          	flw	fa2,1004(a6)
    20c0:	00215073          	fsrmi	zero,2
    20c4:	60b576cf          	fnmadd.s	fa3,fa0,fa1,fa2
    20c8:	001028f3          	frflags	a7
    20cc:	7ed7a427          	fsw	fa3,2024(a5)
    20d0:	7f17a623          	sw	a7,2028(a5)
    20d4:	0000b797          	auipc	a5,0xb
    20d8:	c0c78793          	add	a5,a5,-1012 # cce0 <signature_x15_2>

000020dc <inst_254>:
    20dc:	3f082507          	flw	fa0,1008(a6)
    20e0:	3f482587          	flw	fa1,1012(a6)
    20e4:	3f882607          	flw	fa2,1016(a6)
    20e8:	0020d073          	fsrmi	zero,1
    20ec:	60b576cf          	fnmadd.s	fa3,fa0,fa1,fa2
    20f0:	001028f3          	frflags	a7
    20f4:	00d7a027          	fsw	fa3,0(a5)
    20f8:	0117a223          	sw	a7,4(a5)

000020fc <inst_255>:
    20fc:	3fc82507          	flw	fa0,1020(a6)
    2100:	40082587          	flw	fa1,1024(a6)
    2104:	40482607          	flw	fa2,1028(a6)
    2108:	00205073          	fsrmi	zero,0
    210c:	60b576cf          	fnmadd.s	fa3,fa0,fa1,fa2
    2110:	001028f3          	frflags	a7
    2114:	00d7a427          	fsw	fa3,8(a5)
    2118:	0117a623          	sw	a7,12(a5)

0000211c <inst_256>:
    211c:	40882507          	flw	fa0,1032(a6)
    2120:	40c82587          	flw	fa1,1036(a6)
    2124:	41082607          	flw	fa2,1040(a6)
    2128:	00225073          	fsrmi	zero,4
    212c:	60b576cf          	fnmadd.s	fa3,fa0,fa1,fa2
    2130:	001028f3          	frflags	a7
    2134:	00d7a827          	fsw	fa3,16(a5)
    2138:	0117aa23          	sw	a7,20(a5)

0000213c <inst_257>:
    213c:	41482507          	flw	fa0,1044(a6)
    2140:	41882587          	flw	fa1,1048(a6)
    2144:	41c82607          	flw	fa2,1052(a6)
    2148:	0021d073          	fsrmi	zero,3
    214c:	60b576cf          	fnmadd.s	fa3,fa0,fa1,fa2
    2150:	001028f3          	frflags	a7
    2154:	00d7ac27          	fsw	fa3,24(a5)
    2158:	0117ae23          	sw	a7,28(a5)

0000215c <inst_258>:
    215c:	42082507          	flw	fa0,1056(a6)
    2160:	42482587          	flw	fa1,1060(a6)
    2164:	42882607          	flw	fa2,1064(a6)
    2168:	00215073          	fsrmi	zero,2
    216c:	60b576cf          	fnmadd.s	fa3,fa0,fa1,fa2
    2170:	001028f3          	frflags	a7
    2174:	02d7a027          	fsw	fa3,32(a5)
    2178:	0317a223          	sw	a7,36(a5)

0000217c <inst_259>:
    217c:	42c82507          	flw	fa0,1068(a6)
    2180:	43082587          	flw	fa1,1072(a6)
    2184:	43482607          	flw	fa2,1076(a6)
    2188:	0020d073          	fsrmi	zero,1
    218c:	60b576cf          	fnmadd.s	fa3,fa0,fa1,fa2
    2190:	001028f3          	frflags	a7
    2194:	02d7a427          	fsw	fa3,40(a5)
    2198:	0317a623          	sw	a7,44(a5)

0000219c <inst_260>:
    219c:	43882507          	flw	fa0,1080(a6)
    21a0:	43c82587          	flw	fa1,1084(a6)
    21a4:	44082607          	flw	fa2,1088(a6)
    21a8:	00205073          	fsrmi	zero,0
    21ac:	60b576cf          	fnmadd.s	fa3,fa0,fa1,fa2
    21b0:	001028f3          	frflags	a7
    21b4:	02d7a827          	fsw	fa3,48(a5)
    21b8:	0317aa23          	sw	a7,52(a5)

000021bc <inst_261>:
    21bc:	44482507          	flw	fa0,1092(a6)
    21c0:	44882587          	flw	fa1,1096(a6)
    21c4:	44c82607          	flw	fa2,1100(a6)
    21c8:	00225073          	fsrmi	zero,4
    21cc:	60b576cf          	fnmadd.s	fa3,fa0,fa1,fa2
    21d0:	001028f3          	frflags	a7
    21d4:	02d7ac27          	fsw	fa3,56(a5)
    21d8:	0317ae23          	sw	a7,60(a5)

000021dc <inst_262>:
    21dc:	45082507          	flw	fa0,1104(a6)
    21e0:	45482587          	flw	fa1,1108(a6)
    21e4:	45882607          	flw	fa2,1112(a6)
    21e8:	0021d073          	fsrmi	zero,3
    21ec:	60b576cf          	fnmadd.s	fa3,fa0,fa1,fa2
    21f0:	001028f3          	frflags	a7
    21f4:	04d7a027          	fsw	fa3,64(a5)
    21f8:	0517a223          	sw	a7,68(a5)

000021fc <inst_263>:
    21fc:	45c82507          	flw	fa0,1116(a6)
    2200:	46082587          	flw	fa1,1120(a6)
    2204:	46482607          	flw	fa2,1124(a6)
    2208:	00215073          	fsrmi	zero,2
    220c:	60b576cf          	fnmadd.s	fa3,fa0,fa1,fa2
    2210:	001028f3          	frflags	a7
    2214:	04d7a427          	fsw	fa3,72(a5)
    2218:	0517a623          	sw	a7,76(a5)

0000221c <inst_264>:
    221c:	46882507          	flw	fa0,1128(a6)
    2220:	46c82587          	flw	fa1,1132(a6)
    2224:	47082607          	flw	fa2,1136(a6)
    2228:	0020d073          	fsrmi	zero,1
    222c:	60b576cf          	fnmadd.s	fa3,fa0,fa1,fa2
    2230:	001028f3          	frflags	a7
    2234:	04d7a827          	fsw	fa3,80(a5)
    2238:	0517aa23          	sw	a7,84(a5)

0000223c <inst_265>:
    223c:	47482507          	flw	fa0,1140(a6)
    2240:	47882587          	flw	fa1,1144(a6)
    2244:	47c82607          	flw	fa2,1148(a6)
    2248:	00205073          	fsrmi	zero,0
    224c:	60b576cf          	fnmadd.s	fa3,fa0,fa1,fa2
    2250:	001028f3          	frflags	a7
    2254:	04d7ac27          	fsw	fa3,88(a5)
    2258:	0517ae23          	sw	a7,92(a5)

0000225c <inst_266>:
    225c:	48082507          	flw	fa0,1152(a6)
    2260:	48482587          	flw	fa1,1156(a6)
    2264:	48882607          	flw	fa2,1160(a6)
    2268:	00225073          	fsrmi	zero,4
    226c:	60b576cf          	fnmadd.s	fa3,fa0,fa1,fa2
    2270:	001028f3          	frflags	a7
    2274:	06d7a027          	fsw	fa3,96(a5)
    2278:	0717a223          	sw	a7,100(a5)

0000227c <inst_267>:
    227c:	48c82507          	flw	fa0,1164(a6)
    2280:	49082587          	flw	fa1,1168(a6)
    2284:	49482607          	flw	fa2,1172(a6)
    2288:	0021d073          	fsrmi	zero,3
    228c:	60b576cf          	fnmadd.s	fa3,fa0,fa1,fa2
    2290:	001028f3          	frflags	a7
    2294:	06d7a427          	fsw	fa3,104(a5)
    2298:	0717a623          	sw	a7,108(a5)

0000229c <inst_268>:
    229c:	49882507          	flw	fa0,1176(a6)
    22a0:	49c82587          	flw	fa1,1180(a6)
    22a4:	4a082607          	flw	fa2,1184(a6)
    22a8:	00215073          	fsrmi	zero,2
    22ac:	60b576cf          	fnmadd.s	fa3,fa0,fa1,fa2
    22b0:	001028f3          	frflags	a7
    22b4:	06d7a827          	fsw	fa3,112(a5)
    22b8:	0717aa23          	sw	a7,116(a5)

000022bc <inst_269>:
    22bc:	4a482507          	flw	fa0,1188(a6)
    22c0:	4a882587          	flw	fa1,1192(a6)
    22c4:	4ac82607          	flw	fa2,1196(a6)
    22c8:	0020d073          	fsrmi	zero,1
    22cc:	60b576cf          	fnmadd.s	fa3,fa0,fa1,fa2
    22d0:	001028f3          	frflags	a7
    22d4:	06d7ac27          	fsw	fa3,120(a5)
    22d8:	0717ae23          	sw	a7,124(a5)

000022dc <inst_270>:
    22dc:	4b082507          	flw	fa0,1200(a6)
    22e0:	4b482587          	flw	fa1,1204(a6)
    22e4:	4b882607          	flw	fa2,1208(a6)
    22e8:	00205073          	fsrmi	zero,0
    22ec:	60b576cf          	fnmadd.s	fa3,fa0,fa1,fa2
    22f0:	001028f3          	frflags	a7
    22f4:	08d7a027          	fsw	fa3,128(a5)
    22f8:	0917a223          	sw	a7,132(a5)

000022fc <inst_271>:
    22fc:	4bc82507          	flw	fa0,1212(a6)
    2300:	4c082587          	flw	fa1,1216(a6)
    2304:	4c482607          	flw	fa2,1220(a6)
    2308:	00225073          	fsrmi	zero,4
    230c:	60b576cf          	fnmadd.s	fa3,fa0,fa1,fa2
    2310:	001028f3          	frflags	a7
    2314:	08d7a427          	fsw	fa3,136(a5)
    2318:	0917a623          	sw	a7,140(a5)

0000231c <inst_272>:
    231c:	4c882507          	flw	fa0,1224(a6)
    2320:	4cc82587          	flw	fa1,1228(a6)
    2324:	4d082607          	flw	fa2,1232(a6)
    2328:	0021d073          	fsrmi	zero,3
    232c:	60b576cf          	fnmadd.s	fa3,fa0,fa1,fa2
    2330:	001028f3          	frflags	a7
    2334:	08d7a827          	fsw	fa3,144(a5)
    2338:	0917aa23          	sw	a7,148(a5)

0000233c <inst_273>:
    233c:	4d482507          	flw	fa0,1236(a6)
    2340:	4d882587          	flw	fa1,1240(a6)
    2344:	4dc82607          	flw	fa2,1244(a6)
    2348:	00215073          	fsrmi	zero,2
    234c:	60b576cf          	fnmadd.s	fa3,fa0,fa1,fa2
    2350:	001028f3          	frflags	a7
    2354:	08d7ac27          	fsw	fa3,152(a5)
    2358:	0917ae23          	sw	a7,156(a5)

0000235c <inst_274>:
    235c:	4e082507          	flw	fa0,1248(a6)
    2360:	4e482587          	flw	fa1,1252(a6)
    2364:	4e882607          	flw	fa2,1256(a6)
    2368:	0020d073          	fsrmi	zero,1
    236c:	60b576cf          	fnmadd.s	fa3,fa0,fa1,fa2
    2370:	001028f3          	frflags	a7
    2374:	0ad7a027          	fsw	fa3,160(a5)
    2378:	0b17a223          	sw	a7,164(a5)

0000237c <inst_275>:
    237c:	4ec82507          	flw	fa0,1260(a6)
    2380:	4f082587          	flw	fa1,1264(a6)
    2384:	4f482607          	flw	fa2,1268(a6)
    2388:	00205073          	fsrmi	zero,0
    238c:	60b576cf          	fnmadd.s	fa3,fa0,fa1,fa2
    2390:	001028f3          	frflags	a7
    2394:	0ad7a427          	fsw	fa3,168(a5)
    2398:	0b17a623          	sw	a7,172(a5)

0000239c <inst_276>:
    239c:	4f882507          	flw	fa0,1272(a6)
    23a0:	4fc82587          	flw	fa1,1276(a6)
    23a4:	50082607          	flw	fa2,1280(a6)
    23a8:	00225073          	fsrmi	zero,4
    23ac:	60b576cf          	fnmadd.s	fa3,fa0,fa1,fa2
    23b0:	001028f3          	frflags	a7
    23b4:	0ad7a827          	fsw	fa3,176(a5)
    23b8:	0b17aa23          	sw	a7,180(a5)

000023bc <inst_277>:
    23bc:	50482507          	flw	fa0,1284(a6)
    23c0:	50882587          	flw	fa1,1288(a6)
    23c4:	50c82607          	flw	fa2,1292(a6)
    23c8:	0021d073          	fsrmi	zero,3
    23cc:	60b576cf          	fnmadd.s	fa3,fa0,fa1,fa2
    23d0:	001028f3          	frflags	a7
    23d4:	0ad7ac27          	fsw	fa3,184(a5)
    23d8:	0b17ae23          	sw	a7,188(a5)

000023dc <inst_278>:
    23dc:	51082507          	flw	fa0,1296(a6)
    23e0:	51482587          	flw	fa1,1300(a6)
    23e4:	51882607          	flw	fa2,1304(a6)
    23e8:	00215073          	fsrmi	zero,2
    23ec:	60b576cf          	fnmadd.s	fa3,fa0,fa1,fa2
    23f0:	001028f3          	frflags	a7
    23f4:	0cd7a027          	fsw	fa3,192(a5)
    23f8:	0d17a223          	sw	a7,196(a5)

000023fc <inst_279>:
    23fc:	51c82507          	flw	fa0,1308(a6)
    2400:	52082587          	flw	fa1,1312(a6)
    2404:	52482607          	flw	fa2,1316(a6)
    2408:	0020d073          	fsrmi	zero,1
    240c:	60b576cf          	fnmadd.s	fa3,fa0,fa1,fa2
    2410:	001028f3          	frflags	a7
    2414:	0cd7a427          	fsw	fa3,200(a5)
    2418:	0d17a623          	sw	a7,204(a5)

0000241c <inst_280>:
    241c:	52882507          	flw	fa0,1320(a6)
    2420:	52c82587          	flw	fa1,1324(a6)
    2424:	53082607          	flw	fa2,1328(a6)
    2428:	00205073          	fsrmi	zero,0
    242c:	60b576cf          	fnmadd.s	fa3,fa0,fa1,fa2
    2430:	001028f3          	frflags	a7
    2434:	0cd7a827          	fsw	fa3,208(a5)
    2438:	0d17aa23          	sw	a7,212(a5)

0000243c <inst_281>:
    243c:	53482507          	flw	fa0,1332(a6)
    2440:	53882587          	flw	fa1,1336(a6)
    2444:	53c82607          	flw	fa2,1340(a6)
    2448:	00225073          	fsrmi	zero,4
    244c:	60b576cf          	fnmadd.s	fa3,fa0,fa1,fa2
    2450:	001028f3          	frflags	a7
    2454:	0cd7ac27          	fsw	fa3,216(a5)
    2458:	0d17ae23          	sw	a7,220(a5)

0000245c <inst_282>:
    245c:	54082507          	flw	fa0,1344(a6)
    2460:	54482587          	flw	fa1,1348(a6)
    2464:	54882607          	flw	fa2,1352(a6)
    2468:	0021d073          	fsrmi	zero,3
    246c:	60b576cf          	fnmadd.s	fa3,fa0,fa1,fa2
    2470:	001028f3          	frflags	a7
    2474:	0ed7a027          	fsw	fa3,224(a5)
    2478:	0f17a223          	sw	a7,228(a5)

0000247c <inst_283>:
    247c:	54c82507          	flw	fa0,1356(a6)
    2480:	55082587          	flw	fa1,1360(a6)
    2484:	55482607          	flw	fa2,1364(a6)
    2488:	00215073          	fsrmi	zero,2
    248c:	60b576cf          	fnmadd.s	fa3,fa0,fa1,fa2
    2490:	001028f3          	frflags	a7
    2494:	0ed7a427          	fsw	fa3,232(a5)
    2498:	0f17a623          	sw	a7,236(a5)

0000249c <inst_284>:
    249c:	55882507          	flw	fa0,1368(a6)
    24a0:	55c82587          	flw	fa1,1372(a6)
    24a4:	56082607          	flw	fa2,1376(a6)
    24a8:	0020d073          	fsrmi	zero,1
    24ac:	60b576cf          	fnmadd.s	fa3,fa0,fa1,fa2
    24b0:	001028f3          	frflags	a7
    24b4:	0ed7a827          	fsw	fa3,240(a5)
    24b8:	0f17aa23          	sw	a7,244(a5)

000024bc <inst_285>:
    24bc:	56482507          	flw	fa0,1380(a6)
    24c0:	56882587          	flw	fa1,1384(a6)
    24c4:	56c82607          	flw	fa2,1388(a6)
    24c8:	00205073          	fsrmi	zero,0
    24cc:	60b576cf          	fnmadd.s	fa3,fa0,fa1,fa2
    24d0:	001028f3          	frflags	a7
    24d4:	0ed7ac27          	fsw	fa3,248(a5)
    24d8:	0f17ae23          	sw	a7,252(a5)

000024dc <inst_286>:
    24dc:	57082507          	flw	fa0,1392(a6)
    24e0:	57482587          	flw	fa1,1396(a6)
    24e4:	57882607          	flw	fa2,1400(a6)
    24e8:	00225073          	fsrmi	zero,4
    24ec:	60b576cf          	fnmadd.s	fa3,fa0,fa1,fa2
    24f0:	001028f3          	frflags	a7
    24f4:	10d7a027          	fsw	fa3,256(a5)
    24f8:	1117a223          	sw	a7,260(a5)

000024fc <inst_287>:
    24fc:	57c82507          	flw	fa0,1404(a6)
    2500:	58082587          	flw	fa1,1408(a6)
    2504:	58482607          	flw	fa2,1412(a6)
    2508:	0021d073          	fsrmi	zero,3
    250c:	60b576cf          	fnmadd.s	fa3,fa0,fa1,fa2
    2510:	001028f3          	frflags	a7
    2514:	10d7a427          	fsw	fa3,264(a5)
    2518:	1117a623          	sw	a7,268(a5)

0000251c <inst_288>:
    251c:	58882507          	flw	fa0,1416(a6)
    2520:	58c82587          	flw	fa1,1420(a6)
    2524:	59082607          	flw	fa2,1424(a6)
    2528:	00215073          	fsrmi	zero,2
    252c:	60b576cf          	fnmadd.s	fa3,fa0,fa1,fa2
    2530:	001028f3          	frflags	a7
    2534:	10d7a827          	fsw	fa3,272(a5)
    2538:	1117aa23          	sw	a7,276(a5)

0000253c <inst_289>:
    253c:	59482507          	flw	fa0,1428(a6)
    2540:	59882587          	flw	fa1,1432(a6)
    2544:	59c82607          	flw	fa2,1436(a6)
    2548:	0020d073          	fsrmi	zero,1
    254c:	60b576cf          	fnmadd.s	fa3,fa0,fa1,fa2
    2550:	001028f3          	frflags	a7
    2554:	10d7ac27          	fsw	fa3,280(a5)
    2558:	1117ae23          	sw	a7,284(a5)

0000255c <inst_290>:
    255c:	5a082507          	flw	fa0,1440(a6)
    2560:	5a482587          	flw	fa1,1444(a6)
    2564:	5a882607          	flw	fa2,1448(a6)
    2568:	00205073          	fsrmi	zero,0
    256c:	60b576cf          	fnmadd.s	fa3,fa0,fa1,fa2
    2570:	001028f3          	frflags	a7
    2574:	12d7a027          	fsw	fa3,288(a5)
    2578:	1317a223          	sw	a7,292(a5)

0000257c <inst_291>:
    257c:	5ac82507          	flw	fa0,1452(a6)
    2580:	5b082587          	flw	fa1,1456(a6)
    2584:	5b482607          	flw	fa2,1460(a6)
    2588:	00225073          	fsrmi	zero,4
    258c:	60b576cf          	fnmadd.s	fa3,fa0,fa1,fa2
    2590:	001028f3          	frflags	a7
    2594:	12d7a427          	fsw	fa3,296(a5)
    2598:	1317a623          	sw	a7,300(a5)

0000259c <inst_292>:
    259c:	5b882507          	flw	fa0,1464(a6)
    25a0:	5bc82587          	flw	fa1,1468(a6)
    25a4:	5c082607          	flw	fa2,1472(a6)
    25a8:	0021d073          	fsrmi	zero,3
    25ac:	60b576cf          	fnmadd.s	fa3,fa0,fa1,fa2
    25b0:	001028f3          	frflags	a7
    25b4:	12d7a827          	fsw	fa3,304(a5)
    25b8:	1317aa23          	sw	a7,308(a5)

000025bc <inst_293>:
    25bc:	5c482507          	flw	fa0,1476(a6)
    25c0:	5c882587          	flw	fa1,1480(a6)
    25c4:	5cc82607          	flw	fa2,1484(a6)
    25c8:	00215073          	fsrmi	zero,2
    25cc:	60b576cf          	fnmadd.s	fa3,fa0,fa1,fa2
    25d0:	001028f3          	frflags	a7
    25d4:	12d7ac27          	fsw	fa3,312(a5)
    25d8:	1317ae23          	sw	a7,316(a5)

000025dc <inst_294>:
    25dc:	5d082507          	flw	fa0,1488(a6)
    25e0:	5d482587          	flw	fa1,1492(a6)
    25e4:	5d882607          	flw	fa2,1496(a6)
    25e8:	0020d073          	fsrmi	zero,1
    25ec:	60b576cf          	fnmadd.s	fa3,fa0,fa1,fa2
    25f0:	001028f3          	frflags	a7
    25f4:	14d7a027          	fsw	fa3,320(a5)
    25f8:	1517a223          	sw	a7,324(a5)

000025fc <inst_295>:
    25fc:	5dc82507          	flw	fa0,1500(a6)
    2600:	5e082587          	flw	fa1,1504(a6)
    2604:	5e482607          	flw	fa2,1508(a6)
    2608:	00205073          	fsrmi	zero,0
    260c:	60b576cf          	fnmadd.s	fa3,fa0,fa1,fa2
    2610:	001028f3          	frflags	a7
    2614:	14d7a427          	fsw	fa3,328(a5)
    2618:	1517a623          	sw	a7,332(a5)

0000261c <inst_296>:
    261c:	5e882507          	flw	fa0,1512(a6)
    2620:	5ec82587          	flw	fa1,1516(a6)
    2624:	5f082607          	flw	fa2,1520(a6)
    2628:	00225073          	fsrmi	zero,4
    262c:	60b576cf          	fnmadd.s	fa3,fa0,fa1,fa2
    2630:	001028f3          	frflags	a7
    2634:	14d7a827          	fsw	fa3,336(a5)
    2638:	1517aa23          	sw	a7,340(a5)

0000263c <inst_297>:
    263c:	5f482507          	flw	fa0,1524(a6)
    2640:	5f882587          	flw	fa1,1528(a6)
    2644:	5fc82607          	flw	fa2,1532(a6)
    2648:	0021d073          	fsrmi	zero,3
    264c:	60b576cf          	fnmadd.s	fa3,fa0,fa1,fa2
    2650:	001028f3          	frflags	a7
    2654:	14d7ac27          	fsw	fa3,344(a5)
    2658:	1517ae23          	sw	a7,348(a5)

0000265c <inst_298>:
    265c:	60082507          	flw	fa0,1536(a6)
    2660:	60482587          	flw	fa1,1540(a6)
    2664:	60882607          	flw	fa2,1544(a6)
    2668:	00215073          	fsrmi	zero,2
    266c:	60b576cf          	fnmadd.s	fa3,fa0,fa1,fa2
    2670:	001028f3          	frflags	a7
    2674:	16d7a027          	fsw	fa3,352(a5)
    2678:	1717a223          	sw	a7,356(a5)

0000267c <inst_299>:
    267c:	60c82507          	flw	fa0,1548(a6)
    2680:	61082587          	flw	fa1,1552(a6)
    2684:	61482607          	flw	fa2,1556(a6)
    2688:	0020d073          	fsrmi	zero,1
    268c:	60b576cf          	fnmadd.s	fa3,fa0,fa1,fa2
    2690:	001028f3          	frflags	a7
    2694:	16d7a427          	fsw	fa3,360(a5)
    2698:	1717a623          	sw	a7,364(a5)

0000269c <inst_300>:
    269c:	61882507          	flw	fa0,1560(a6)
    26a0:	61c82587          	flw	fa1,1564(a6)
    26a4:	62082607          	flw	fa2,1568(a6)
    26a8:	00205073          	fsrmi	zero,0
    26ac:	60b576cf          	fnmadd.s	fa3,fa0,fa1,fa2
    26b0:	001028f3          	frflags	a7
    26b4:	16d7a827          	fsw	fa3,368(a5)
    26b8:	1717aa23          	sw	a7,372(a5)

000026bc <inst_301>:
    26bc:	62482507          	flw	fa0,1572(a6)
    26c0:	62882587          	flw	fa1,1576(a6)
    26c4:	62c82607          	flw	fa2,1580(a6)
    26c8:	00225073          	fsrmi	zero,4
    26cc:	60b576cf          	fnmadd.s	fa3,fa0,fa1,fa2
    26d0:	001028f3          	frflags	a7
    26d4:	16d7ac27          	fsw	fa3,376(a5)
    26d8:	1717ae23          	sw	a7,380(a5)

000026dc <inst_302>:
    26dc:	63082507          	flw	fa0,1584(a6)
    26e0:	63482587          	flw	fa1,1588(a6)
    26e4:	63882607          	flw	fa2,1592(a6)
    26e8:	0021d073          	fsrmi	zero,3
    26ec:	60b576cf          	fnmadd.s	fa3,fa0,fa1,fa2
    26f0:	001028f3          	frflags	a7
    26f4:	18d7a027          	fsw	fa3,384(a5)
    26f8:	1917a223          	sw	a7,388(a5)

000026fc <inst_303>:
    26fc:	63c82507          	flw	fa0,1596(a6)
    2700:	64082587          	flw	fa1,1600(a6)
    2704:	64482607          	flw	fa2,1604(a6)
    2708:	00215073          	fsrmi	zero,2
    270c:	60b576cf          	fnmadd.s	fa3,fa0,fa1,fa2
    2710:	001028f3          	frflags	a7
    2714:	18d7a427          	fsw	fa3,392(a5)
    2718:	1917a623          	sw	a7,396(a5)

0000271c <inst_304>:
    271c:	64882507          	flw	fa0,1608(a6)
    2720:	64c82587          	flw	fa1,1612(a6)
    2724:	65082607          	flw	fa2,1616(a6)
    2728:	0020d073          	fsrmi	zero,1
    272c:	60b576cf          	fnmadd.s	fa3,fa0,fa1,fa2
    2730:	001028f3          	frflags	a7
    2734:	18d7a827          	fsw	fa3,400(a5)
    2738:	1917aa23          	sw	a7,404(a5)

0000273c <inst_305>:
    273c:	65482507          	flw	fa0,1620(a6)
    2740:	65882587          	flw	fa1,1624(a6)
    2744:	65c82607          	flw	fa2,1628(a6)
    2748:	00205073          	fsrmi	zero,0
    274c:	60b576cf          	fnmadd.s	fa3,fa0,fa1,fa2
    2750:	001028f3          	frflags	a7
    2754:	18d7ac27          	fsw	fa3,408(a5)
    2758:	1917ae23          	sw	a7,412(a5)

0000275c <inst_306>:
    275c:	66082507          	flw	fa0,1632(a6)
    2760:	66482587          	flw	fa1,1636(a6)
    2764:	66882607          	flw	fa2,1640(a6)
    2768:	00225073          	fsrmi	zero,4
    276c:	60b576cf          	fnmadd.s	fa3,fa0,fa1,fa2
    2770:	001028f3          	frflags	a7
    2774:	1ad7a027          	fsw	fa3,416(a5)
    2778:	1b17a223          	sw	a7,420(a5)

0000277c <inst_307>:
    277c:	66c82507          	flw	fa0,1644(a6)
    2780:	67082587          	flw	fa1,1648(a6)
    2784:	67482607          	flw	fa2,1652(a6)
    2788:	0021d073          	fsrmi	zero,3
    278c:	60b576cf          	fnmadd.s	fa3,fa0,fa1,fa2
    2790:	001028f3          	frflags	a7
    2794:	1ad7a427          	fsw	fa3,424(a5)
    2798:	1b17a623          	sw	a7,428(a5)

0000279c <inst_308>:
    279c:	67882507          	flw	fa0,1656(a6)
    27a0:	67c82587          	flw	fa1,1660(a6)
    27a4:	68082607          	flw	fa2,1664(a6)
    27a8:	00215073          	fsrmi	zero,2
    27ac:	60b576cf          	fnmadd.s	fa3,fa0,fa1,fa2
    27b0:	001028f3          	frflags	a7
    27b4:	1ad7a827          	fsw	fa3,432(a5)
    27b8:	1b17aa23          	sw	a7,436(a5)

000027bc <inst_309>:
    27bc:	68482507          	flw	fa0,1668(a6)
    27c0:	68882587          	flw	fa1,1672(a6)
    27c4:	68c82607          	flw	fa2,1676(a6)
    27c8:	0020d073          	fsrmi	zero,1
    27cc:	60b576cf          	fnmadd.s	fa3,fa0,fa1,fa2
    27d0:	001028f3          	frflags	a7
    27d4:	1ad7ac27          	fsw	fa3,440(a5)
    27d8:	1b17ae23          	sw	a7,444(a5)

000027dc <inst_310>:
    27dc:	69082507          	flw	fa0,1680(a6)
    27e0:	69482587          	flw	fa1,1684(a6)
    27e4:	69882607          	flw	fa2,1688(a6)
    27e8:	00205073          	fsrmi	zero,0
    27ec:	60b576cf          	fnmadd.s	fa3,fa0,fa1,fa2
    27f0:	001028f3          	frflags	a7
    27f4:	1cd7a027          	fsw	fa3,448(a5)
    27f8:	1d17a223          	sw	a7,452(a5)

000027fc <inst_311>:
    27fc:	69c82507          	flw	fa0,1692(a6)
    2800:	6a082587          	flw	fa1,1696(a6)
    2804:	6a482607          	flw	fa2,1700(a6)
    2808:	00225073          	fsrmi	zero,4
    280c:	60b576cf          	fnmadd.s	fa3,fa0,fa1,fa2
    2810:	001028f3          	frflags	a7
    2814:	1cd7a427          	fsw	fa3,456(a5)
    2818:	1d17a623          	sw	a7,460(a5)

0000281c <inst_312>:
    281c:	6a882507          	flw	fa0,1704(a6)
    2820:	6ac82587          	flw	fa1,1708(a6)
    2824:	6b082607          	flw	fa2,1712(a6)
    2828:	0021d073          	fsrmi	zero,3
    282c:	60b576cf          	fnmadd.s	fa3,fa0,fa1,fa2
    2830:	001028f3          	frflags	a7
    2834:	1cd7a827          	fsw	fa3,464(a5)
    2838:	1d17aa23          	sw	a7,468(a5)

0000283c <inst_313>:
    283c:	6b482507          	flw	fa0,1716(a6)
    2840:	6b882587          	flw	fa1,1720(a6)
    2844:	6bc82607          	flw	fa2,1724(a6)
    2848:	00215073          	fsrmi	zero,2
    284c:	60b576cf          	fnmadd.s	fa3,fa0,fa1,fa2
    2850:	001028f3          	frflags	a7
    2854:	1cd7ac27          	fsw	fa3,472(a5)
    2858:	1d17ae23          	sw	a7,476(a5)

0000285c <inst_314>:
    285c:	6c082507          	flw	fa0,1728(a6)
    2860:	6c482587          	flw	fa1,1732(a6)
    2864:	6c882607          	flw	fa2,1736(a6)
    2868:	0020d073          	fsrmi	zero,1
    286c:	60b576cf          	fnmadd.s	fa3,fa0,fa1,fa2
    2870:	001028f3          	frflags	a7
    2874:	1ed7a027          	fsw	fa3,480(a5)
    2878:	1f17a223          	sw	a7,484(a5)

0000287c <inst_315>:
    287c:	6cc82507          	flw	fa0,1740(a6)
    2880:	6d082587          	flw	fa1,1744(a6)
    2884:	6d482607          	flw	fa2,1748(a6)
    2888:	00205073          	fsrmi	zero,0
    288c:	60b576cf          	fnmadd.s	fa3,fa0,fa1,fa2
    2890:	001028f3          	frflags	a7
    2894:	1ed7a427          	fsw	fa3,488(a5)
    2898:	1f17a623          	sw	a7,492(a5)

0000289c <inst_316>:
    289c:	6d882507          	flw	fa0,1752(a6)
    28a0:	6dc82587          	flw	fa1,1756(a6)
    28a4:	6e082607          	flw	fa2,1760(a6)
    28a8:	00225073          	fsrmi	zero,4
    28ac:	60b576cf          	fnmadd.s	fa3,fa0,fa1,fa2
    28b0:	001028f3          	frflags	a7
    28b4:	1ed7a827          	fsw	fa3,496(a5)
    28b8:	1f17aa23          	sw	a7,500(a5)

000028bc <inst_317>:
    28bc:	6e482507          	flw	fa0,1764(a6)
    28c0:	6e882587          	flw	fa1,1768(a6)
    28c4:	6ec82607          	flw	fa2,1772(a6)
    28c8:	0021d073          	fsrmi	zero,3
    28cc:	60b576cf          	fnmadd.s	fa3,fa0,fa1,fa2
    28d0:	001028f3          	frflags	a7
    28d4:	1ed7ac27          	fsw	fa3,504(a5)
    28d8:	1f17ae23          	sw	a7,508(a5)

000028dc <inst_318>:
    28dc:	6f082507          	flw	fa0,1776(a6)
    28e0:	6f482587          	flw	fa1,1780(a6)
    28e4:	6f882607          	flw	fa2,1784(a6)
    28e8:	00215073          	fsrmi	zero,2
    28ec:	60b576cf          	fnmadd.s	fa3,fa0,fa1,fa2
    28f0:	001028f3          	frflags	a7
    28f4:	20d7a027          	fsw	fa3,512(a5)
    28f8:	2117a223          	sw	a7,516(a5)

000028fc <inst_319>:
    28fc:	6fc82507          	flw	fa0,1788(a6)
    2900:	70082587          	flw	fa1,1792(a6)
    2904:	70482607          	flw	fa2,1796(a6)
    2908:	0020d073          	fsrmi	zero,1
    290c:	60b576cf          	fnmadd.s	fa3,fa0,fa1,fa2
    2910:	001028f3          	frflags	a7
    2914:	20d7a427          	fsw	fa3,520(a5)
    2918:	2117a623          	sw	a7,524(a5)

0000291c <inst_320>:
    291c:	70882507          	flw	fa0,1800(a6)
    2920:	70c82587          	flw	fa1,1804(a6)
    2924:	71082607          	flw	fa2,1808(a6)
    2928:	00205073          	fsrmi	zero,0
    292c:	60b576cf          	fnmadd.s	fa3,fa0,fa1,fa2
    2930:	001028f3          	frflags	a7
    2934:	20d7a827          	fsw	fa3,528(a5)
    2938:	2117aa23          	sw	a7,532(a5)

0000293c <inst_321>:
    293c:	71482507          	flw	fa0,1812(a6)
    2940:	71882587          	flw	fa1,1816(a6)
    2944:	71c82607          	flw	fa2,1820(a6)
    2948:	00225073          	fsrmi	zero,4
    294c:	60b576cf          	fnmadd.s	fa3,fa0,fa1,fa2
    2950:	001028f3          	frflags	a7
    2954:	20d7ac27          	fsw	fa3,536(a5)
    2958:	2117ae23          	sw	a7,540(a5)

0000295c <inst_322>:
    295c:	72082507          	flw	fa0,1824(a6)
    2960:	72482587          	flw	fa1,1828(a6)
    2964:	72882607          	flw	fa2,1832(a6)
    2968:	0021d073          	fsrmi	zero,3
    296c:	60b576cf          	fnmadd.s	fa3,fa0,fa1,fa2
    2970:	001028f3          	frflags	a7
    2974:	22d7a027          	fsw	fa3,544(a5)
    2978:	2317a223          	sw	a7,548(a5)

0000297c <inst_323>:
    297c:	72c82507          	flw	fa0,1836(a6)
    2980:	73082587          	flw	fa1,1840(a6)
    2984:	73482607          	flw	fa2,1844(a6)
    2988:	00215073          	fsrmi	zero,2
    298c:	60b576cf          	fnmadd.s	fa3,fa0,fa1,fa2
    2990:	001028f3          	frflags	a7
    2994:	22d7a427          	fsw	fa3,552(a5)
    2998:	2317a623          	sw	a7,556(a5)

0000299c <inst_324>:
    299c:	73882507          	flw	fa0,1848(a6)
    29a0:	73c82587          	flw	fa1,1852(a6)
    29a4:	74082607          	flw	fa2,1856(a6)
    29a8:	0020d073          	fsrmi	zero,1
    29ac:	60b576cf          	fnmadd.s	fa3,fa0,fa1,fa2
    29b0:	001028f3          	frflags	a7
    29b4:	22d7a827          	fsw	fa3,560(a5)
    29b8:	2317aa23          	sw	a7,564(a5)

000029bc <inst_325>:
    29bc:	74482507          	flw	fa0,1860(a6)
    29c0:	74882587          	flw	fa1,1864(a6)
    29c4:	74c82607          	flw	fa2,1868(a6)
    29c8:	00205073          	fsrmi	zero,0
    29cc:	60b576cf          	fnmadd.s	fa3,fa0,fa1,fa2
    29d0:	001028f3          	frflags	a7
    29d4:	22d7ac27          	fsw	fa3,568(a5)
    29d8:	2317ae23          	sw	a7,572(a5)

000029dc <inst_326>:
    29dc:	75082507          	flw	fa0,1872(a6)
    29e0:	75482587          	flw	fa1,1876(a6)
    29e4:	75882607          	flw	fa2,1880(a6)
    29e8:	00225073          	fsrmi	zero,4
    29ec:	60b576cf          	fnmadd.s	fa3,fa0,fa1,fa2
    29f0:	001028f3          	frflags	a7
    29f4:	24d7a027          	fsw	fa3,576(a5)
    29f8:	2517a223          	sw	a7,580(a5)

000029fc <inst_327>:
    29fc:	75c82507          	flw	fa0,1884(a6)
    2a00:	76082587          	flw	fa1,1888(a6)
    2a04:	76482607          	flw	fa2,1892(a6)
    2a08:	0021d073          	fsrmi	zero,3
    2a0c:	60b576cf          	fnmadd.s	fa3,fa0,fa1,fa2
    2a10:	001028f3          	frflags	a7
    2a14:	24d7a427          	fsw	fa3,584(a5)
    2a18:	2517a623          	sw	a7,588(a5)

00002a1c <inst_328>:
    2a1c:	76882507          	flw	fa0,1896(a6)
    2a20:	76c82587          	flw	fa1,1900(a6)
    2a24:	77082607          	flw	fa2,1904(a6)
    2a28:	00215073          	fsrmi	zero,2
    2a2c:	60b576cf          	fnmadd.s	fa3,fa0,fa1,fa2
    2a30:	001028f3          	frflags	a7
    2a34:	24d7a827          	fsw	fa3,592(a5)
    2a38:	2517aa23          	sw	a7,596(a5)

00002a3c <inst_329>:
    2a3c:	77482507          	flw	fa0,1908(a6)
    2a40:	77882587          	flw	fa1,1912(a6)
    2a44:	77c82607          	flw	fa2,1916(a6)
    2a48:	0020d073          	fsrmi	zero,1
    2a4c:	60b576cf          	fnmadd.s	fa3,fa0,fa1,fa2
    2a50:	001028f3          	frflags	a7
    2a54:	24d7ac27          	fsw	fa3,600(a5)
    2a58:	2517ae23          	sw	a7,604(a5)

00002a5c <inst_330>:
    2a5c:	78082507          	flw	fa0,1920(a6)
    2a60:	78482587          	flw	fa1,1924(a6)
    2a64:	78882607          	flw	fa2,1928(a6)
    2a68:	00205073          	fsrmi	zero,0
    2a6c:	60b576cf          	fnmadd.s	fa3,fa0,fa1,fa2
    2a70:	001028f3          	frflags	a7
    2a74:	26d7a027          	fsw	fa3,608(a5)
    2a78:	2717a223          	sw	a7,612(a5)

00002a7c <inst_331>:
    2a7c:	78c82507          	flw	fa0,1932(a6)
    2a80:	79082587          	flw	fa1,1936(a6)
    2a84:	79482607          	flw	fa2,1940(a6)
    2a88:	00225073          	fsrmi	zero,4
    2a8c:	60b576cf          	fnmadd.s	fa3,fa0,fa1,fa2
    2a90:	001028f3          	frflags	a7
    2a94:	26d7a427          	fsw	fa3,616(a5)
    2a98:	2717a623          	sw	a7,620(a5)

00002a9c <inst_332>:
    2a9c:	79882507          	flw	fa0,1944(a6)
    2aa0:	79c82587          	flw	fa1,1948(a6)
    2aa4:	7a082607          	flw	fa2,1952(a6)
    2aa8:	0021d073          	fsrmi	zero,3
    2aac:	60b576cf          	fnmadd.s	fa3,fa0,fa1,fa2
    2ab0:	001028f3          	frflags	a7
    2ab4:	26d7a827          	fsw	fa3,624(a5)
    2ab8:	2717aa23          	sw	a7,628(a5)

00002abc <inst_333>:
    2abc:	7a482507          	flw	fa0,1956(a6)
    2ac0:	7a882587          	flw	fa1,1960(a6)
    2ac4:	7ac82607          	flw	fa2,1964(a6)
    2ac8:	00215073          	fsrmi	zero,2
    2acc:	60b576cf          	fnmadd.s	fa3,fa0,fa1,fa2
    2ad0:	001028f3          	frflags	a7
    2ad4:	26d7ac27          	fsw	fa3,632(a5)
    2ad8:	2717ae23          	sw	a7,636(a5)

00002adc <inst_334>:
    2adc:	7b082507          	flw	fa0,1968(a6)
    2ae0:	7b482587          	flw	fa1,1972(a6)
    2ae4:	7b882607          	flw	fa2,1976(a6)
    2ae8:	0020d073          	fsrmi	zero,1
    2aec:	60b576cf          	fnmadd.s	fa3,fa0,fa1,fa2
    2af0:	001028f3          	frflags	a7
    2af4:	28d7a027          	fsw	fa3,640(a5)
    2af8:	2917a223          	sw	a7,644(a5)

00002afc <inst_335>:
    2afc:	7bc82507          	flw	fa0,1980(a6)
    2b00:	7c082587          	flw	fa1,1984(a6)
    2b04:	7c482607          	flw	fa2,1988(a6)
    2b08:	00205073          	fsrmi	zero,0
    2b0c:	60b576cf          	fnmadd.s	fa3,fa0,fa1,fa2
    2b10:	001028f3          	frflags	a7
    2b14:	28d7a427          	fsw	fa3,648(a5)
    2b18:	2917a623          	sw	a7,652(a5)

00002b1c <inst_336>:
    2b1c:	7c882507          	flw	fa0,1992(a6)
    2b20:	7cc82587          	flw	fa1,1996(a6)
    2b24:	7d082607          	flw	fa2,2000(a6)
    2b28:	00225073          	fsrmi	zero,4
    2b2c:	60b576cf          	fnmadd.s	fa3,fa0,fa1,fa2
    2b30:	001028f3          	frflags	a7
    2b34:	28d7a827          	fsw	fa3,656(a5)
    2b38:	2917aa23          	sw	a7,660(a5)

00002b3c <inst_337>:
    2b3c:	7d482507          	flw	fa0,2004(a6)
    2b40:	7d882587          	flw	fa1,2008(a6)
    2b44:	7dc82607          	flw	fa2,2012(a6)
    2b48:	0021d073          	fsrmi	zero,3
    2b4c:	60b576cf          	fnmadd.s	fa3,fa0,fa1,fa2
    2b50:	001028f3          	frflags	a7
    2b54:	28d7ac27          	fsw	fa3,664(a5)
    2b58:	2917ae23          	sw	a7,668(a5)

00002b5c <inst_338>:
    2b5c:	7e082507          	flw	fa0,2016(a6)
    2b60:	7e482587          	flw	fa1,2020(a6)
    2b64:	7e882607          	flw	fa2,2024(a6)
    2b68:	00215073          	fsrmi	zero,2
    2b6c:	60b576cf          	fnmadd.s	fa3,fa0,fa1,fa2
    2b70:	001028f3          	frflags	a7
    2b74:	2ad7a027          	fsw	fa3,672(a5)
    2b78:	2b17a223          	sw	a7,676(a5)

00002b7c <inst_339>:
    2b7c:	7ec82507          	flw	fa0,2028(a6)
    2b80:	7f082587          	flw	fa1,2032(a6)
    2b84:	7f482607          	flw	fa2,2036(a6)
    2b88:	0020d073          	fsrmi	zero,1
    2b8c:	60b576cf          	fnmadd.s	fa3,fa0,fa1,fa2
    2b90:	001028f3          	frflags	a7
    2b94:	2ad7a427          	fsw	fa3,680(a5)
    2b98:	2b17a623          	sw	a7,684(a5)
    2b9c:	7f880813          	add	a6,a6,2040

00002ba0 <inst_340>:
    2ba0:	00082507          	flw	fa0,0(a6)
    2ba4:	00482587          	flw	fa1,4(a6)
    2ba8:	00882607          	flw	fa2,8(a6)
    2bac:	00205073          	fsrmi	zero,0
    2bb0:	60b576cf          	fnmadd.s	fa3,fa0,fa1,fa2
    2bb4:	001028f3          	frflags	a7
    2bb8:	2ad7a827          	fsw	fa3,688(a5)
    2bbc:	2b17aa23          	sw	a7,692(a5)

00002bc0 <inst_341>:
    2bc0:	00c82507          	flw	fa0,12(a6)
    2bc4:	01082587          	flw	fa1,16(a6)
    2bc8:	01482607          	flw	fa2,20(a6)
    2bcc:	00225073          	fsrmi	zero,4
    2bd0:	60b576cf          	fnmadd.s	fa3,fa0,fa1,fa2
    2bd4:	001028f3          	frflags	a7
    2bd8:	2ad7ac27          	fsw	fa3,696(a5)
    2bdc:	2b17ae23          	sw	a7,700(a5)

00002be0 <inst_342>:
    2be0:	01882507          	flw	fa0,24(a6)
    2be4:	01c82587          	flw	fa1,28(a6)
    2be8:	02082607          	flw	fa2,32(a6)
    2bec:	0021d073          	fsrmi	zero,3
    2bf0:	60b576cf          	fnmadd.s	fa3,fa0,fa1,fa2
    2bf4:	001028f3          	frflags	a7
    2bf8:	2cd7a027          	fsw	fa3,704(a5)
    2bfc:	2d17a223          	sw	a7,708(a5)

00002c00 <inst_343>:
    2c00:	02482507          	flw	fa0,36(a6)
    2c04:	02882587          	flw	fa1,40(a6)
    2c08:	02c82607          	flw	fa2,44(a6)
    2c0c:	00215073          	fsrmi	zero,2
    2c10:	60b576cf          	fnmadd.s	fa3,fa0,fa1,fa2
    2c14:	001028f3          	frflags	a7
    2c18:	2cd7a427          	fsw	fa3,712(a5)
    2c1c:	2d17a623          	sw	a7,716(a5)

00002c20 <inst_344>:
    2c20:	03082507          	flw	fa0,48(a6)
    2c24:	03482587          	flw	fa1,52(a6)
    2c28:	03882607          	flw	fa2,56(a6)
    2c2c:	0020d073          	fsrmi	zero,1
    2c30:	60b576cf          	fnmadd.s	fa3,fa0,fa1,fa2
    2c34:	001028f3          	frflags	a7
    2c38:	2cd7a827          	fsw	fa3,720(a5)
    2c3c:	2d17aa23          	sw	a7,724(a5)

00002c40 <inst_345>:
    2c40:	03c82507          	flw	fa0,60(a6)
    2c44:	04082587          	flw	fa1,64(a6)
    2c48:	04482607          	flw	fa2,68(a6)
    2c4c:	00205073          	fsrmi	zero,0
    2c50:	60b576cf          	fnmadd.s	fa3,fa0,fa1,fa2
    2c54:	001028f3          	frflags	a7
    2c58:	2cd7ac27          	fsw	fa3,728(a5)
    2c5c:	2d17ae23          	sw	a7,732(a5)

00002c60 <inst_346>:
    2c60:	04882507          	flw	fa0,72(a6)
    2c64:	04c82587          	flw	fa1,76(a6)
    2c68:	05082607          	flw	fa2,80(a6)
    2c6c:	00225073          	fsrmi	zero,4
    2c70:	60b576cf          	fnmadd.s	fa3,fa0,fa1,fa2
    2c74:	001028f3          	frflags	a7
    2c78:	2ed7a027          	fsw	fa3,736(a5)
    2c7c:	2f17a223          	sw	a7,740(a5)

00002c80 <inst_347>:
    2c80:	05482507          	flw	fa0,84(a6)
    2c84:	05882587          	flw	fa1,88(a6)
    2c88:	05c82607          	flw	fa2,92(a6)
    2c8c:	0021d073          	fsrmi	zero,3
    2c90:	60b576cf          	fnmadd.s	fa3,fa0,fa1,fa2
    2c94:	001028f3          	frflags	a7
    2c98:	2ed7a427          	fsw	fa3,744(a5)
    2c9c:	2f17a623          	sw	a7,748(a5)

00002ca0 <inst_348>:
    2ca0:	06082507          	flw	fa0,96(a6)
    2ca4:	06482587          	flw	fa1,100(a6)
    2ca8:	06882607          	flw	fa2,104(a6)
    2cac:	00215073          	fsrmi	zero,2
    2cb0:	60b576cf          	fnmadd.s	fa3,fa0,fa1,fa2
    2cb4:	001028f3          	frflags	a7
    2cb8:	2ed7a827          	fsw	fa3,752(a5)
    2cbc:	2f17aa23          	sw	a7,756(a5)

00002cc0 <inst_349>:
    2cc0:	06c82507          	flw	fa0,108(a6)
    2cc4:	07082587          	flw	fa1,112(a6)
    2cc8:	07482607          	flw	fa2,116(a6)
    2ccc:	0020d073          	fsrmi	zero,1
    2cd0:	60b576cf          	fnmadd.s	fa3,fa0,fa1,fa2
    2cd4:	001028f3          	frflags	a7
    2cd8:	2ed7ac27          	fsw	fa3,760(a5)
    2cdc:	2f17ae23          	sw	a7,764(a5)

00002ce0 <inst_350>:
    2ce0:	07882507          	flw	fa0,120(a6)
    2ce4:	07c82587          	flw	fa1,124(a6)
    2ce8:	08082607          	flw	fa2,128(a6)
    2cec:	00205073          	fsrmi	zero,0
    2cf0:	60b576cf          	fnmadd.s	fa3,fa0,fa1,fa2
    2cf4:	001028f3          	frflags	a7
    2cf8:	30d7a027          	fsw	fa3,768(a5)
    2cfc:	3117a223          	sw	a7,772(a5)

00002d00 <inst_351>:
    2d00:	08482507          	flw	fa0,132(a6)
    2d04:	08882587          	flw	fa1,136(a6)
    2d08:	08c82607          	flw	fa2,140(a6)
    2d0c:	00225073          	fsrmi	zero,4
    2d10:	60b576cf          	fnmadd.s	fa3,fa0,fa1,fa2
    2d14:	001028f3          	frflags	a7
    2d18:	30d7a427          	fsw	fa3,776(a5)
    2d1c:	3117a623          	sw	a7,780(a5)

00002d20 <inst_352>:
    2d20:	09082507          	flw	fa0,144(a6)
    2d24:	09482587          	flw	fa1,148(a6)
    2d28:	09882607          	flw	fa2,152(a6)
    2d2c:	0021d073          	fsrmi	zero,3
    2d30:	60b576cf          	fnmadd.s	fa3,fa0,fa1,fa2
    2d34:	001028f3          	frflags	a7
    2d38:	30d7a827          	fsw	fa3,784(a5)
    2d3c:	3117aa23          	sw	a7,788(a5)

00002d40 <inst_353>:
    2d40:	09c82507          	flw	fa0,156(a6)
    2d44:	0a082587          	flw	fa1,160(a6)
    2d48:	0a482607          	flw	fa2,164(a6)
    2d4c:	00215073          	fsrmi	zero,2
    2d50:	60b576cf          	fnmadd.s	fa3,fa0,fa1,fa2
    2d54:	001028f3          	frflags	a7
    2d58:	30d7ac27          	fsw	fa3,792(a5)
    2d5c:	3117ae23          	sw	a7,796(a5)

00002d60 <inst_354>:
    2d60:	0a882507          	flw	fa0,168(a6)
    2d64:	0ac82587          	flw	fa1,172(a6)
    2d68:	0b082607          	flw	fa2,176(a6)
    2d6c:	0020d073          	fsrmi	zero,1
    2d70:	60b576cf          	fnmadd.s	fa3,fa0,fa1,fa2
    2d74:	001028f3          	frflags	a7
    2d78:	32d7a027          	fsw	fa3,800(a5)
    2d7c:	3317a223          	sw	a7,804(a5)

00002d80 <inst_355>:
    2d80:	0b482507          	flw	fa0,180(a6)
    2d84:	0b882587          	flw	fa1,184(a6)
    2d88:	0bc82607          	flw	fa2,188(a6)
    2d8c:	00205073          	fsrmi	zero,0
    2d90:	60b576cf          	fnmadd.s	fa3,fa0,fa1,fa2
    2d94:	001028f3          	frflags	a7
    2d98:	32d7a427          	fsw	fa3,808(a5)
    2d9c:	3317a623          	sw	a7,812(a5)

00002da0 <inst_356>:
    2da0:	0c082507          	flw	fa0,192(a6)
    2da4:	0c482587          	flw	fa1,196(a6)
    2da8:	0c882607          	flw	fa2,200(a6)
    2dac:	00225073          	fsrmi	zero,4
    2db0:	60b576cf          	fnmadd.s	fa3,fa0,fa1,fa2
    2db4:	001028f3          	frflags	a7
    2db8:	32d7a827          	fsw	fa3,816(a5)
    2dbc:	3317aa23          	sw	a7,820(a5)

00002dc0 <inst_357>:
    2dc0:	0cc82507          	flw	fa0,204(a6)
    2dc4:	0d082587          	flw	fa1,208(a6)
    2dc8:	0d482607          	flw	fa2,212(a6)
    2dcc:	0021d073          	fsrmi	zero,3
    2dd0:	60b576cf          	fnmadd.s	fa3,fa0,fa1,fa2
    2dd4:	001028f3          	frflags	a7
    2dd8:	32d7ac27          	fsw	fa3,824(a5)
    2ddc:	3317ae23          	sw	a7,828(a5)

00002de0 <inst_358>:
    2de0:	0d882507          	flw	fa0,216(a6)
    2de4:	0dc82587          	flw	fa1,220(a6)
    2de8:	0e082607          	flw	fa2,224(a6)
    2dec:	00215073          	fsrmi	zero,2
    2df0:	60b576cf          	fnmadd.s	fa3,fa0,fa1,fa2
    2df4:	001028f3          	frflags	a7
    2df8:	34d7a027          	fsw	fa3,832(a5)
    2dfc:	3517a223          	sw	a7,836(a5)

00002e00 <inst_359>:
    2e00:	0e482507          	flw	fa0,228(a6)
    2e04:	0e882587          	flw	fa1,232(a6)
    2e08:	0ec82607          	flw	fa2,236(a6)
    2e0c:	0020d073          	fsrmi	zero,1
    2e10:	60b576cf          	fnmadd.s	fa3,fa0,fa1,fa2
    2e14:	001028f3          	frflags	a7
    2e18:	34d7a427          	fsw	fa3,840(a5)
    2e1c:	3517a623          	sw	a7,844(a5)

00002e20 <inst_360>:
    2e20:	0f082507          	flw	fa0,240(a6)
    2e24:	0f482587          	flw	fa1,244(a6)
    2e28:	0f882607          	flw	fa2,248(a6)
    2e2c:	00205073          	fsrmi	zero,0
    2e30:	60b576cf          	fnmadd.s	fa3,fa0,fa1,fa2
    2e34:	001028f3          	frflags	a7
    2e38:	34d7a827          	fsw	fa3,848(a5)
    2e3c:	3517aa23          	sw	a7,852(a5)

00002e40 <inst_361>:
    2e40:	0fc82507          	flw	fa0,252(a6)
    2e44:	10082587          	flw	fa1,256(a6)
    2e48:	10482607          	flw	fa2,260(a6)
    2e4c:	00225073          	fsrmi	zero,4
    2e50:	60b576cf          	fnmadd.s	fa3,fa0,fa1,fa2
    2e54:	001028f3          	frflags	a7
    2e58:	34d7ac27          	fsw	fa3,856(a5)
    2e5c:	3517ae23          	sw	a7,860(a5)

00002e60 <inst_362>:
    2e60:	10882507          	flw	fa0,264(a6)
    2e64:	10c82587          	flw	fa1,268(a6)
    2e68:	11082607          	flw	fa2,272(a6)
    2e6c:	0021d073          	fsrmi	zero,3
    2e70:	60b576cf          	fnmadd.s	fa3,fa0,fa1,fa2
    2e74:	001028f3          	frflags	a7
    2e78:	36d7a027          	fsw	fa3,864(a5)
    2e7c:	3717a223          	sw	a7,868(a5)

00002e80 <inst_363>:
    2e80:	11482507          	flw	fa0,276(a6)
    2e84:	11882587          	flw	fa1,280(a6)
    2e88:	11c82607          	flw	fa2,284(a6)
    2e8c:	00215073          	fsrmi	zero,2
    2e90:	60b576cf          	fnmadd.s	fa3,fa0,fa1,fa2
    2e94:	001028f3          	frflags	a7
    2e98:	36d7a427          	fsw	fa3,872(a5)
    2e9c:	3717a623          	sw	a7,876(a5)

00002ea0 <inst_364>:
    2ea0:	12082507          	flw	fa0,288(a6)
    2ea4:	12482587          	flw	fa1,292(a6)
    2ea8:	12882607          	flw	fa2,296(a6)
    2eac:	0020d073          	fsrmi	zero,1
    2eb0:	60b576cf          	fnmadd.s	fa3,fa0,fa1,fa2
    2eb4:	001028f3          	frflags	a7
    2eb8:	36d7a827          	fsw	fa3,880(a5)
    2ebc:	3717aa23          	sw	a7,884(a5)

00002ec0 <inst_365>:
    2ec0:	12c82507          	flw	fa0,300(a6)
    2ec4:	13082587          	flw	fa1,304(a6)
    2ec8:	13482607          	flw	fa2,308(a6)
    2ecc:	00205073          	fsrmi	zero,0
    2ed0:	60b576cf          	fnmadd.s	fa3,fa0,fa1,fa2
    2ed4:	001028f3          	frflags	a7
    2ed8:	36d7ac27          	fsw	fa3,888(a5)
    2edc:	3717ae23          	sw	a7,892(a5)

00002ee0 <inst_366>:
    2ee0:	13882507          	flw	fa0,312(a6)
    2ee4:	13c82587          	flw	fa1,316(a6)
    2ee8:	14082607          	flw	fa2,320(a6)
    2eec:	00225073          	fsrmi	zero,4
    2ef0:	60b576cf          	fnmadd.s	fa3,fa0,fa1,fa2
    2ef4:	001028f3          	frflags	a7
    2ef8:	38d7a027          	fsw	fa3,896(a5)
    2efc:	3917a223          	sw	a7,900(a5)

00002f00 <inst_367>:
    2f00:	14482507          	flw	fa0,324(a6)
    2f04:	14882587          	flw	fa1,328(a6)
    2f08:	14c82607          	flw	fa2,332(a6)
    2f0c:	0021d073          	fsrmi	zero,3
    2f10:	60b576cf          	fnmadd.s	fa3,fa0,fa1,fa2
    2f14:	001028f3          	frflags	a7
    2f18:	38d7a427          	fsw	fa3,904(a5)
    2f1c:	3917a623          	sw	a7,908(a5)

00002f20 <inst_368>:
    2f20:	15082507          	flw	fa0,336(a6)
    2f24:	15482587          	flw	fa1,340(a6)
    2f28:	15882607          	flw	fa2,344(a6)
    2f2c:	00215073          	fsrmi	zero,2
    2f30:	60b576cf          	fnmadd.s	fa3,fa0,fa1,fa2
    2f34:	001028f3          	frflags	a7
    2f38:	38d7a827          	fsw	fa3,912(a5)
    2f3c:	3917aa23          	sw	a7,916(a5)

00002f40 <inst_369>:
    2f40:	15c82507          	flw	fa0,348(a6)
    2f44:	16082587          	flw	fa1,352(a6)
    2f48:	16482607          	flw	fa2,356(a6)
    2f4c:	0020d073          	fsrmi	zero,1
    2f50:	60b576cf          	fnmadd.s	fa3,fa0,fa1,fa2
    2f54:	001028f3          	frflags	a7
    2f58:	38d7ac27          	fsw	fa3,920(a5)
    2f5c:	3917ae23          	sw	a7,924(a5)

00002f60 <inst_370>:
    2f60:	16882507          	flw	fa0,360(a6)
    2f64:	16c82587          	flw	fa1,364(a6)
    2f68:	17082607          	flw	fa2,368(a6)
    2f6c:	00205073          	fsrmi	zero,0
    2f70:	60b576cf          	fnmadd.s	fa3,fa0,fa1,fa2
    2f74:	001028f3          	frflags	a7
    2f78:	3ad7a027          	fsw	fa3,928(a5)
    2f7c:	3b17a223          	sw	a7,932(a5)

00002f80 <inst_371>:
    2f80:	17482507          	flw	fa0,372(a6)
    2f84:	17882587          	flw	fa1,376(a6)
    2f88:	17c82607          	flw	fa2,380(a6)
    2f8c:	00225073          	fsrmi	zero,4
    2f90:	60b576cf          	fnmadd.s	fa3,fa0,fa1,fa2
    2f94:	001028f3          	frflags	a7
    2f98:	3ad7a427          	fsw	fa3,936(a5)
    2f9c:	3b17a623          	sw	a7,940(a5)

00002fa0 <inst_372>:
    2fa0:	18082507          	flw	fa0,384(a6)
    2fa4:	18482587          	flw	fa1,388(a6)
    2fa8:	18882607          	flw	fa2,392(a6)
    2fac:	0021d073          	fsrmi	zero,3
    2fb0:	60b576cf          	fnmadd.s	fa3,fa0,fa1,fa2
    2fb4:	001028f3          	frflags	a7
    2fb8:	3ad7a827          	fsw	fa3,944(a5)
    2fbc:	3b17aa23          	sw	a7,948(a5)

00002fc0 <inst_373>:
    2fc0:	18c82507          	flw	fa0,396(a6)
    2fc4:	19082587          	flw	fa1,400(a6)
    2fc8:	19482607          	flw	fa2,404(a6)
    2fcc:	00215073          	fsrmi	zero,2
    2fd0:	60b576cf          	fnmadd.s	fa3,fa0,fa1,fa2
    2fd4:	001028f3          	frflags	a7
    2fd8:	3ad7ac27          	fsw	fa3,952(a5)
    2fdc:	3b17ae23          	sw	a7,956(a5)

00002fe0 <inst_374>:
    2fe0:	19882507          	flw	fa0,408(a6)
    2fe4:	19c82587          	flw	fa1,412(a6)
    2fe8:	1a082607          	flw	fa2,416(a6)
    2fec:	0020d073          	fsrmi	zero,1
    2ff0:	60b576cf          	fnmadd.s	fa3,fa0,fa1,fa2
    2ff4:	001028f3          	frflags	a7
    2ff8:	3cd7a027          	fsw	fa3,960(a5)
    2ffc:	3d17a223          	sw	a7,964(a5)

00003000 <inst_375>:
    3000:	1a482507          	flw	fa0,420(a6)
    3004:	1a882587          	flw	fa1,424(a6)
    3008:	1ac82607          	flw	fa2,428(a6)
    300c:	00205073          	fsrmi	zero,0
    3010:	60b576cf          	fnmadd.s	fa3,fa0,fa1,fa2
    3014:	001028f3          	frflags	a7
    3018:	3cd7a427          	fsw	fa3,968(a5)
    301c:	3d17a623          	sw	a7,972(a5)

00003020 <inst_376>:
    3020:	1b082507          	flw	fa0,432(a6)
    3024:	1b482587          	flw	fa1,436(a6)
    3028:	1b882607          	flw	fa2,440(a6)
    302c:	00225073          	fsrmi	zero,4
    3030:	60b576cf          	fnmadd.s	fa3,fa0,fa1,fa2
    3034:	001028f3          	frflags	a7
    3038:	3cd7a827          	fsw	fa3,976(a5)
    303c:	3d17aa23          	sw	a7,980(a5)

00003040 <inst_377>:
    3040:	1bc82507          	flw	fa0,444(a6)
    3044:	1c082587          	flw	fa1,448(a6)
    3048:	1c482607          	flw	fa2,452(a6)
    304c:	0021d073          	fsrmi	zero,3
    3050:	60b576cf          	fnmadd.s	fa3,fa0,fa1,fa2
    3054:	001028f3          	frflags	a7
    3058:	3cd7ac27          	fsw	fa3,984(a5)
    305c:	3d17ae23          	sw	a7,988(a5)

00003060 <inst_378>:
    3060:	1c882507          	flw	fa0,456(a6)
    3064:	1cc82587          	flw	fa1,460(a6)
    3068:	1d082607          	flw	fa2,464(a6)
    306c:	00215073          	fsrmi	zero,2
    3070:	60b576cf          	fnmadd.s	fa3,fa0,fa1,fa2
    3074:	001028f3          	frflags	a7
    3078:	3ed7a027          	fsw	fa3,992(a5)
    307c:	3f17a223          	sw	a7,996(a5)

00003080 <inst_379>:
    3080:	1d482507          	flw	fa0,468(a6)
    3084:	1d882587          	flw	fa1,472(a6)
    3088:	1dc82607          	flw	fa2,476(a6)
    308c:	0020d073          	fsrmi	zero,1
    3090:	60b576cf          	fnmadd.s	fa3,fa0,fa1,fa2
    3094:	001028f3          	frflags	a7
    3098:	3ed7a427          	fsw	fa3,1000(a5)
    309c:	3f17a623          	sw	a7,1004(a5)

000030a0 <inst_380>:
    30a0:	1e082507          	flw	fa0,480(a6)
    30a4:	1e482587          	flw	fa1,484(a6)
    30a8:	1e882607          	flw	fa2,488(a6)
    30ac:	00205073          	fsrmi	zero,0
    30b0:	60b576cf          	fnmadd.s	fa3,fa0,fa1,fa2
    30b4:	001028f3          	frflags	a7
    30b8:	3ed7a827          	fsw	fa3,1008(a5)
    30bc:	3f17aa23          	sw	a7,1012(a5)

000030c0 <inst_381>:
    30c0:	1ec82507          	flw	fa0,492(a6)
    30c4:	1f082587          	flw	fa1,496(a6)
    30c8:	1f482607          	flw	fa2,500(a6)
    30cc:	00225073          	fsrmi	zero,4
    30d0:	60b576cf          	fnmadd.s	fa3,fa0,fa1,fa2
    30d4:	001028f3          	frflags	a7
    30d8:	3ed7ac27          	fsw	fa3,1016(a5)
    30dc:	3f17ae23          	sw	a7,1020(a5)

000030e0 <inst_382>:
    30e0:	1f882507          	flw	fa0,504(a6)
    30e4:	1fc82587          	flw	fa1,508(a6)
    30e8:	20082607          	flw	fa2,512(a6)
    30ec:	0021d073          	fsrmi	zero,3
    30f0:	60b576cf          	fnmadd.s	fa3,fa0,fa1,fa2
    30f4:	001028f3          	frflags	a7
    30f8:	40d7a027          	fsw	fa3,1024(a5)
    30fc:	4117a223          	sw	a7,1028(a5)

00003100 <inst_383>:
    3100:	20482507          	flw	fa0,516(a6)
    3104:	20882587          	flw	fa1,520(a6)
    3108:	20c82607          	flw	fa2,524(a6)
    310c:	00215073          	fsrmi	zero,2
    3110:	60b576cf          	fnmadd.s	fa3,fa0,fa1,fa2
    3114:	001028f3          	frflags	a7
    3118:	40d7a427          	fsw	fa3,1032(a5)
    311c:	4117a623          	sw	a7,1036(a5)

00003120 <inst_384>:
    3120:	21082507          	flw	fa0,528(a6)
    3124:	21482587          	flw	fa1,532(a6)
    3128:	21882607          	flw	fa2,536(a6)
    312c:	0020d073          	fsrmi	zero,1
    3130:	60b576cf          	fnmadd.s	fa3,fa0,fa1,fa2
    3134:	001028f3          	frflags	a7
    3138:	40d7a827          	fsw	fa3,1040(a5)
    313c:	4117aa23          	sw	a7,1044(a5)

00003140 <inst_385>:
    3140:	21c82507          	flw	fa0,540(a6)
    3144:	22082587          	flw	fa1,544(a6)
    3148:	22482607          	flw	fa2,548(a6)
    314c:	00205073          	fsrmi	zero,0
    3150:	60b576cf          	fnmadd.s	fa3,fa0,fa1,fa2
    3154:	001028f3          	frflags	a7
    3158:	40d7ac27          	fsw	fa3,1048(a5)
    315c:	4117ae23          	sw	a7,1052(a5)

00003160 <inst_386>:
    3160:	22882507          	flw	fa0,552(a6)
    3164:	22c82587          	flw	fa1,556(a6)
    3168:	23082607          	flw	fa2,560(a6)
    316c:	00225073          	fsrmi	zero,4
    3170:	60b576cf          	fnmadd.s	fa3,fa0,fa1,fa2
    3174:	001028f3          	frflags	a7
    3178:	42d7a027          	fsw	fa3,1056(a5)
    317c:	4317a223          	sw	a7,1060(a5)

00003180 <inst_387>:
    3180:	23482507          	flw	fa0,564(a6)
    3184:	23882587          	flw	fa1,568(a6)
    3188:	23c82607          	flw	fa2,572(a6)
    318c:	0021d073          	fsrmi	zero,3
    3190:	60b576cf          	fnmadd.s	fa3,fa0,fa1,fa2
    3194:	001028f3          	frflags	a7
    3198:	42d7a427          	fsw	fa3,1064(a5)
    319c:	4317a623          	sw	a7,1068(a5)

000031a0 <inst_388>:
    31a0:	24082507          	flw	fa0,576(a6)
    31a4:	24482587          	flw	fa1,580(a6)
    31a8:	24882607          	flw	fa2,584(a6)
    31ac:	00215073          	fsrmi	zero,2
    31b0:	60b576cf          	fnmadd.s	fa3,fa0,fa1,fa2
    31b4:	001028f3          	frflags	a7
    31b8:	42d7a827          	fsw	fa3,1072(a5)
    31bc:	4317aa23          	sw	a7,1076(a5)

000031c0 <inst_389>:
    31c0:	24c82507          	flw	fa0,588(a6)
    31c4:	25082587          	flw	fa1,592(a6)
    31c8:	25482607          	flw	fa2,596(a6)
    31cc:	0020d073          	fsrmi	zero,1
    31d0:	60b576cf          	fnmadd.s	fa3,fa0,fa1,fa2
    31d4:	001028f3          	frflags	a7
    31d8:	42d7ac27          	fsw	fa3,1080(a5)
    31dc:	4317ae23          	sw	a7,1084(a5)

000031e0 <inst_390>:
    31e0:	25882507          	flw	fa0,600(a6)
    31e4:	25c82587          	flw	fa1,604(a6)
    31e8:	26082607          	flw	fa2,608(a6)
    31ec:	00205073          	fsrmi	zero,0
    31f0:	60b576cf          	fnmadd.s	fa3,fa0,fa1,fa2
    31f4:	001028f3          	frflags	a7
    31f8:	44d7a027          	fsw	fa3,1088(a5)
    31fc:	4517a223          	sw	a7,1092(a5)

00003200 <inst_391>:
    3200:	26482507          	flw	fa0,612(a6)
    3204:	26882587          	flw	fa1,616(a6)
    3208:	26c82607          	flw	fa2,620(a6)
    320c:	00225073          	fsrmi	zero,4
    3210:	60b576cf          	fnmadd.s	fa3,fa0,fa1,fa2
    3214:	001028f3          	frflags	a7
    3218:	44d7a427          	fsw	fa3,1096(a5)
    321c:	4517a623          	sw	a7,1100(a5)

00003220 <inst_392>:
    3220:	27082507          	flw	fa0,624(a6)
    3224:	27482587          	flw	fa1,628(a6)
    3228:	27882607          	flw	fa2,632(a6)
    322c:	0021d073          	fsrmi	zero,3
    3230:	60b576cf          	fnmadd.s	fa3,fa0,fa1,fa2
    3234:	001028f3          	frflags	a7
    3238:	44d7a827          	fsw	fa3,1104(a5)
    323c:	4517aa23          	sw	a7,1108(a5)

00003240 <inst_393>:
    3240:	27c82507          	flw	fa0,636(a6)
    3244:	28082587          	flw	fa1,640(a6)
    3248:	28482607          	flw	fa2,644(a6)
    324c:	00215073          	fsrmi	zero,2
    3250:	60b576cf          	fnmadd.s	fa3,fa0,fa1,fa2
    3254:	001028f3          	frflags	a7
    3258:	44d7ac27          	fsw	fa3,1112(a5)
    325c:	4517ae23          	sw	a7,1116(a5)

00003260 <inst_394>:
    3260:	28882507          	flw	fa0,648(a6)
    3264:	28c82587          	flw	fa1,652(a6)
    3268:	29082607          	flw	fa2,656(a6)
    326c:	0020d073          	fsrmi	zero,1
    3270:	60b576cf          	fnmadd.s	fa3,fa0,fa1,fa2
    3274:	001028f3          	frflags	a7
    3278:	46d7a027          	fsw	fa3,1120(a5)
    327c:	4717a223          	sw	a7,1124(a5)

00003280 <inst_395>:
    3280:	29482507          	flw	fa0,660(a6)
    3284:	29882587          	flw	fa1,664(a6)
    3288:	29c82607          	flw	fa2,668(a6)
    328c:	00205073          	fsrmi	zero,0
    3290:	60b576cf          	fnmadd.s	fa3,fa0,fa1,fa2
    3294:	001028f3          	frflags	a7
    3298:	46d7a427          	fsw	fa3,1128(a5)
    329c:	4717a623          	sw	a7,1132(a5)

000032a0 <inst_396>:
    32a0:	2a082507          	flw	fa0,672(a6)
    32a4:	2a482587          	flw	fa1,676(a6)
    32a8:	2a882607          	flw	fa2,680(a6)
    32ac:	00225073          	fsrmi	zero,4
    32b0:	60b576cf          	fnmadd.s	fa3,fa0,fa1,fa2
    32b4:	001028f3          	frflags	a7
    32b8:	46d7a827          	fsw	fa3,1136(a5)
    32bc:	4717aa23          	sw	a7,1140(a5)

000032c0 <inst_397>:
    32c0:	2ac82507          	flw	fa0,684(a6)
    32c4:	2b082587          	flw	fa1,688(a6)
    32c8:	2b482607          	flw	fa2,692(a6)
    32cc:	0021d073          	fsrmi	zero,3
    32d0:	60b576cf          	fnmadd.s	fa3,fa0,fa1,fa2
    32d4:	001028f3          	frflags	a7
    32d8:	46d7ac27          	fsw	fa3,1144(a5)
    32dc:	4717ae23          	sw	a7,1148(a5)

000032e0 <inst_398>:
    32e0:	2b882507          	flw	fa0,696(a6)
    32e4:	2bc82587          	flw	fa1,700(a6)
    32e8:	2c082607          	flw	fa2,704(a6)
    32ec:	00215073          	fsrmi	zero,2
    32f0:	60b576cf          	fnmadd.s	fa3,fa0,fa1,fa2
    32f4:	001028f3          	frflags	a7
    32f8:	48d7a027          	fsw	fa3,1152(a5)
    32fc:	4917a223          	sw	a7,1156(a5)

00003300 <inst_399>:
    3300:	2c482507          	flw	fa0,708(a6)
    3304:	2c882587          	flw	fa1,712(a6)
    3308:	2cc82607          	flw	fa2,716(a6)
    330c:	0020d073          	fsrmi	zero,1
    3310:	60b576cf          	fnmadd.s	fa3,fa0,fa1,fa2
    3314:	001028f3          	frflags	a7
    3318:	48d7a427          	fsw	fa3,1160(a5)
    331c:	4917a623          	sw	a7,1164(a5)

00003320 <inst_400>:
    3320:	2d082507          	flw	fa0,720(a6)
    3324:	2d482587          	flw	fa1,724(a6)
    3328:	2d882607          	flw	fa2,728(a6)
    332c:	00205073          	fsrmi	zero,0
    3330:	60b576cf          	fnmadd.s	fa3,fa0,fa1,fa2
    3334:	001028f3          	frflags	a7
    3338:	48d7a827          	fsw	fa3,1168(a5)
    333c:	4917aa23          	sw	a7,1172(a5)

00003340 <inst_401>:
    3340:	2dc82507          	flw	fa0,732(a6)
    3344:	2e082587          	flw	fa1,736(a6)
    3348:	2e482607          	flw	fa2,740(a6)
    334c:	00225073          	fsrmi	zero,4
    3350:	60b576cf          	fnmadd.s	fa3,fa0,fa1,fa2
    3354:	001028f3          	frflags	a7
    3358:	48d7ac27          	fsw	fa3,1176(a5)
    335c:	4917ae23          	sw	a7,1180(a5)

00003360 <inst_402>:
    3360:	2e882507          	flw	fa0,744(a6)
    3364:	2ec82587          	flw	fa1,748(a6)
    3368:	2f082607          	flw	fa2,752(a6)
    336c:	0021d073          	fsrmi	zero,3
    3370:	60b576cf          	fnmadd.s	fa3,fa0,fa1,fa2
    3374:	001028f3          	frflags	a7
    3378:	4ad7a027          	fsw	fa3,1184(a5)
    337c:	4b17a223          	sw	a7,1188(a5)

00003380 <inst_403>:
    3380:	2f482507          	flw	fa0,756(a6)
    3384:	2f882587          	flw	fa1,760(a6)
    3388:	2fc82607          	flw	fa2,764(a6)
    338c:	00215073          	fsrmi	zero,2
    3390:	60b576cf          	fnmadd.s	fa3,fa0,fa1,fa2
    3394:	001028f3          	frflags	a7
    3398:	4ad7a427          	fsw	fa3,1192(a5)
    339c:	4b17a623          	sw	a7,1196(a5)

000033a0 <inst_404>:
    33a0:	30082507          	flw	fa0,768(a6)
    33a4:	30482587          	flw	fa1,772(a6)
    33a8:	30882607          	flw	fa2,776(a6)
    33ac:	0020d073          	fsrmi	zero,1
    33b0:	60b576cf          	fnmadd.s	fa3,fa0,fa1,fa2
    33b4:	001028f3          	frflags	a7
    33b8:	4ad7a827          	fsw	fa3,1200(a5)
    33bc:	4b17aa23          	sw	a7,1204(a5)

000033c0 <inst_405>:
    33c0:	30c82507          	flw	fa0,780(a6)
    33c4:	31082587          	flw	fa1,784(a6)
    33c8:	31482607          	flw	fa2,788(a6)
    33cc:	00205073          	fsrmi	zero,0
    33d0:	60b576cf          	fnmadd.s	fa3,fa0,fa1,fa2
    33d4:	001028f3          	frflags	a7
    33d8:	4ad7ac27          	fsw	fa3,1208(a5)
    33dc:	4b17ae23          	sw	a7,1212(a5)

000033e0 <inst_406>:
    33e0:	31882507          	flw	fa0,792(a6)
    33e4:	31c82587          	flw	fa1,796(a6)
    33e8:	32082607          	flw	fa2,800(a6)
    33ec:	00225073          	fsrmi	zero,4
    33f0:	60b576cf          	fnmadd.s	fa3,fa0,fa1,fa2
    33f4:	001028f3          	frflags	a7
    33f8:	4cd7a027          	fsw	fa3,1216(a5)
    33fc:	4d17a223          	sw	a7,1220(a5)

00003400 <inst_407>:
    3400:	32482507          	flw	fa0,804(a6)
    3404:	32882587          	flw	fa1,808(a6)
    3408:	32c82607          	flw	fa2,812(a6)
    340c:	0021d073          	fsrmi	zero,3
    3410:	60b576cf          	fnmadd.s	fa3,fa0,fa1,fa2
    3414:	001028f3          	frflags	a7
    3418:	4cd7a427          	fsw	fa3,1224(a5)
    341c:	4d17a623          	sw	a7,1228(a5)

00003420 <inst_408>:
    3420:	33082507          	flw	fa0,816(a6)
    3424:	33482587          	flw	fa1,820(a6)
    3428:	33882607          	flw	fa2,824(a6)
    342c:	00215073          	fsrmi	zero,2
    3430:	60b576cf          	fnmadd.s	fa3,fa0,fa1,fa2
    3434:	001028f3          	frflags	a7
    3438:	4cd7a827          	fsw	fa3,1232(a5)
    343c:	4d17aa23          	sw	a7,1236(a5)

00003440 <inst_409>:
    3440:	33c82507          	flw	fa0,828(a6)
    3444:	34082587          	flw	fa1,832(a6)
    3448:	34482607          	flw	fa2,836(a6)
    344c:	0020d073          	fsrmi	zero,1
    3450:	60b576cf          	fnmadd.s	fa3,fa0,fa1,fa2
    3454:	001028f3          	frflags	a7
    3458:	4cd7ac27          	fsw	fa3,1240(a5)
    345c:	4d17ae23          	sw	a7,1244(a5)

00003460 <inst_410>:
    3460:	34882507          	flw	fa0,840(a6)
    3464:	34c82587          	flw	fa1,844(a6)
    3468:	35082607          	flw	fa2,848(a6)
    346c:	00205073          	fsrmi	zero,0
    3470:	60b576cf          	fnmadd.s	fa3,fa0,fa1,fa2
    3474:	001028f3          	frflags	a7
    3478:	4ed7a027          	fsw	fa3,1248(a5)
    347c:	4f17a223          	sw	a7,1252(a5)

00003480 <inst_411>:
    3480:	35482507          	flw	fa0,852(a6)
    3484:	35882587          	flw	fa1,856(a6)
    3488:	35c82607          	flw	fa2,860(a6)
    348c:	00225073          	fsrmi	zero,4
    3490:	60b576cf          	fnmadd.s	fa3,fa0,fa1,fa2
    3494:	001028f3          	frflags	a7
    3498:	4ed7a427          	fsw	fa3,1256(a5)
    349c:	4f17a623          	sw	a7,1260(a5)

000034a0 <inst_412>:
    34a0:	36082507          	flw	fa0,864(a6)
    34a4:	36482587          	flw	fa1,868(a6)
    34a8:	36882607          	flw	fa2,872(a6)
    34ac:	0021d073          	fsrmi	zero,3
    34b0:	60b576cf          	fnmadd.s	fa3,fa0,fa1,fa2
    34b4:	001028f3          	frflags	a7
    34b8:	4ed7a827          	fsw	fa3,1264(a5)
    34bc:	4f17aa23          	sw	a7,1268(a5)

000034c0 <inst_413>:
    34c0:	36c82507          	flw	fa0,876(a6)
    34c4:	37082587          	flw	fa1,880(a6)
    34c8:	37482607          	flw	fa2,884(a6)
    34cc:	00215073          	fsrmi	zero,2
    34d0:	60b576cf          	fnmadd.s	fa3,fa0,fa1,fa2
    34d4:	001028f3          	frflags	a7
    34d8:	4ed7ac27          	fsw	fa3,1272(a5)
    34dc:	4f17ae23          	sw	a7,1276(a5)

000034e0 <inst_414>:
    34e0:	37882507          	flw	fa0,888(a6)
    34e4:	37c82587          	flw	fa1,892(a6)
    34e8:	38082607          	flw	fa2,896(a6)
    34ec:	0020d073          	fsrmi	zero,1
    34f0:	60b576cf          	fnmadd.s	fa3,fa0,fa1,fa2
    34f4:	001028f3          	frflags	a7
    34f8:	50d7a027          	fsw	fa3,1280(a5)
    34fc:	5117a223          	sw	a7,1284(a5)

00003500 <inst_415>:
    3500:	38482507          	flw	fa0,900(a6)
    3504:	38882587          	flw	fa1,904(a6)
    3508:	38c82607          	flw	fa2,908(a6)
    350c:	00205073          	fsrmi	zero,0
    3510:	60b576cf          	fnmadd.s	fa3,fa0,fa1,fa2
    3514:	001028f3          	frflags	a7
    3518:	50d7a427          	fsw	fa3,1288(a5)
    351c:	5117a623          	sw	a7,1292(a5)

00003520 <inst_416>:
    3520:	39082507          	flw	fa0,912(a6)
    3524:	39482587          	flw	fa1,916(a6)
    3528:	39882607          	flw	fa2,920(a6)
    352c:	00225073          	fsrmi	zero,4
    3530:	60b576cf          	fnmadd.s	fa3,fa0,fa1,fa2
    3534:	001028f3          	frflags	a7
    3538:	50d7a827          	fsw	fa3,1296(a5)
    353c:	5117aa23          	sw	a7,1300(a5)

00003540 <inst_417>:
    3540:	39c82507          	flw	fa0,924(a6)
    3544:	3a082587          	flw	fa1,928(a6)
    3548:	3a482607          	flw	fa2,932(a6)
    354c:	0021d073          	fsrmi	zero,3
    3550:	60b576cf          	fnmadd.s	fa3,fa0,fa1,fa2
    3554:	001028f3          	frflags	a7
    3558:	50d7ac27          	fsw	fa3,1304(a5)
    355c:	5117ae23          	sw	a7,1308(a5)

00003560 <inst_418>:
    3560:	3a882507          	flw	fa0,936(a6)
    3564:	3ac82587          	flw	fa1,940(a6)
    3568:	3b082607          	flw	fa2,944(a6)
    356c:	00215073          	fsrmi	zero,2
    3570:	60b576cf          	fnmadd.s	fa3,fa0,fa1,fa2
    3574:	001028f3          	frflags	a7
    3578:	52d7a027          	fsw	fa3,1312(a5)
    357c:	5317a223          	sw	a7,1316(a5)

00003580 <inst_419>:
    3580:	3b482507          	flw	fa0,948(a6)
    3584:	3b882587          	flw	fa1,952(a6)
    3588:	3bc82607          	flw	fa2,956(a6)
    358c:	0020d073          	fsrmi	zero,1
    3590:	60b576cf          	fnmadd.s	fa3,fa0,fa1,fa2
    3594:	001028f3          	frflags	a7
    3598:	52d7a427          	fsw	fa3,1320(a5)
    359c:	5317a623          	sw	a7,1324(a5)

000035a0 <inst_420>:
    35a0:	3c082507          	flw	fa0,960(a6)
    35a4:	3c482587          	flw	fa1,964(a6)
    35a8:	3c882607          	flw	fa2,968(a6)
    35ac:	00205073          	fsrmi	zero,0
    35b0:	60b576cf          	fnmadd.s	fa3,fa0,fa1,fa2
    35b4:	001028f3          	frflags	a7
    35b8:	52d7a827          	fsw	fa3,1328(a5)
    35bc:	5317aa23          	sw	a7,1332(a5)

000035c0 <inst_421>:
    35c0:	3cc82507          	flw	fa0,972(a6)
    35c4:	3d082587          	flw	fa1,976(a6)
    35c8:	3d482607          	flw	fa2,980(a6)
    35cc:	00225073          	fsrmi	zero,4
    35d0:	60b576cf          	fnmadd.s	fa3,fa0,fa1,fa2
    35d4:	001028f3          	frflags	a7
    35d8:	52d7ac27          	fsw	fa3,1336(a5)
    35dc:	5317ae23          	sw	a7,1340(a5)

000035e0 <inst_422>:
    35e0:	3d882507          	flw	fa0,984(a6)
    35e4:	3dc82587          	flw	fa1,988(a6)
    35e8:	3e082607          	flw	fa2,992(a6)
    35ec:	0021d073          	fsrmi	zero,3
    35f0:	60b576cf          	fnmadd.s	fa3,fa0,fa1,fa2
    35f4:	001028f3          	frflags	a7
    35f8:	54d7a027          	fsw	fa3,1344(a5)
    35fc:	5517a223          	sw	a7,1348(a5)

00003600 <inst_423>:
    3600:	3e482507          	flw	fa0,996(a6)
    3604:	3e882587          	flw	fa1,1000(a6)
    3608:	3ec82607          	flw	fa2,1004(a6)
    360c:	00215073          	fsrmi	zero,2
    3610:	60b576cf          	fnmadd.s	fa3,fa0,fa1,fa2
    3614:	001028f3          	frflags	a7
    3618:	54d7a427          	fsw	fa3,1352(a5)
    361c:	5517a623          	sw	a7,1356(a5)

00003620 <inst_424>:
    3620:	3f082507          	flw	fa0,1008(a6)
    3624:	3f482587          	flw	fa1,1012(a6)
    3628:	3f882607          	flw	fa2,1016(a6)
    362c:	0020d073          	fsrmi	zero,1
    3630:	60b576cf          	fnmadd.s	fa3,fa0,fa1,fa2
    3634:	001028f3          	frflags	a7
    3638:	54d7a827          	fsw	fa3,1360(a5)
    363c:	5517aa23          	sw	a7,1364(a5)

00003640 <inst_425>:
    3640:	3fc82507          	flw	fa0,1020(a6)
    3644:	40082587          	flw	fa1,1024(a6)
    3648:	40482607          	flw	fa2,1028(a6)
    364c:	00205073          	fsrmi	zero,0
    3650:	60b576cf          	fnmadd.s	fa3,fa0,fa1,fa2
    3654:	001028f3          	frflags	a7
    3658:	54d7ac27          	fsw	fa3,1368(a5)
    365c:	5517ae23          	sw	a7,1372(a5)

00003660 <inst_426>:
    3660:	40882507          	flw	fa0,1032(a6)
    3664:	40c82587          	flw	fa1,1036(a6)
    3668:	41082607          	flw	fa2,1040(a6)
    366c:	00225073          	fsrmi	zero,4
    3670:	60b576cf          	fnmadd.s	fa3,fa0,fa1,fa2
    3674:	001028f3          	frflags	a7
    3678:	56d7a027          	fsw	fa3,1376(a5)
    367c:	5717a223          	sw	a7,1380(a5)

00003680 <inst_427>:
    3680:	41482507          	flw	fa0,1044(a6)
    3684:	41882587          	flw	fa1,1048(a6)
    3688:	41c82607          	flw	fa2,1052(a6)
    368c:	0021d073          	fsrmi	zero,3
    3690:	60b576cf          	fnmadd.s	fa3,fa0,fa1,fa2
    3694:	001028f3          	frflags	a7
    3698:	56d7a427          	fsw	fa3,1384(a5)
    369c:	5717a623          	sw	a7,1388(a5)

000036a0 <inst_428>:
    36a0:	42082507          	flw	fa0,1056(a6)
    36a4:	42482587          	flw	fa1,1060(a6)
    36a8:	42882607          	flw	fa2,1064(a6)
    36ac:	00215073          	fsrmi	zero,2
    36b0:	60b576cf          	fnmadd.s	fa3,fa0,fa1,fa2
    36b4:	001028f3          	frflags	a7
    36b8:	56d7a827          	fsw	fa3,1392(a5)
    36bc:	5717aa23          	sw	a7,1396(a5)

000036c0 <inst_429>:
    36c0:	42c82507          	flw	fa0,1068(a6)
    36c4:	43082587          	flw	fa1,1072(a6)
    36c8:	43482607          	flw	fa2,1076(a6)
    36cc:	0020d073          	fsrmi	zero,1
    36d0:	60b576cf          	fnmadd.s	fa3,fa0,fa1,fa2
    36d4:	001028f3          	frflags	a7
    36d8:	56d7ac27          	fsw	fa3,1400(a5)
    36dc:	5717ae23          	sw	a7,1404(a5)

000036e0 <inst_430>:
    36e0:	43882507          	flw	fa0,1080(a6)
    36e4:	43c82587          	flw	fa1,1084(a6)
    36e8:	44082607          	flw	fa2,1088(a6)
    36ec:	00205073          	fsrmi	zero,0
    36f0:	60b576cf          	fnmadd.s	fa3,fa0,fa1,fa2
    36f4:	001028f3          	frflags	a7
    36f8:	58d7a027          	fsw	fa3,1408(a5)
    36fc:	5917a223          	sw	a7,1412(a5)

00003700 <inst_431>:
    3700:	44482507          	flw	fa0,1092(a6)
    3704:	44882587          	flw	fa1,1096(a6)
    3708:	44c82607          	flw	fa2,1100(a6)
    370c:	00225073          	fsrmi	zero,4
    3710:	60b576cf          	fnmadd.s	fa3,fa0,fa1,fa2
    3714:	001028f3          	frflags	a7
    3718:	58d7a427          	fsw	fa3,1416(a5)
    371c:	5917a623          	sw	a7,1420(a5)

00003720 <inst_432>:
    3720:	45082507          	flw	fa0,1104(a6)
    3724:	45482587          	flw	fa1,1108(a6)
    3728:	45882607          	flw	fa2,1112(a6)
    372c:	0021d073          	fsrmi	zero,3
    3730:	60b576cf          	fnmadd.s	fa3,fa0,fa1,fa2
    3734:	001028f3          	frflags	a7
    3738:	58d7a827          	fsw	fa3,1424(a5)
    373c:	5917aa23          	sw	a7,1428(a5)

00003740 <inst_433>:
    3740:	45c82507          	flw	fa0,1116(a6)
    3744:	46082587          	flw	fa1,1120(a6)
    3748:	46482607          	flw	fa2,1124(a6)
    374c:	00215073          	fsrmi	zero,2
    3750:	60b576cf          	fnmadd.s	fa3,fa0,fa1,fa2
    3754:	001028f3          	frflags	a7
    3758:	58d7ac27          	fsw	fa3,1432(a5)
    375c:	5917ae23          	sw	a7,1436(a5)

00003760 <inst_434>:
    3760:	46882507          	flw	fa0,1128(a6)
    3764:	46c82587          	flw	fa1,1132(a6)
    3768:	47082607          	flw	fa2,1136(a6)
    376c:	0020d073          	fsrmi	zero,1
    3770:	60b576cf          	fnmadd.s	fa3,fa0,fa1,fa2
    3774:	001028f3          	frflags	a7
    3778:	5ad7a027          	fsw	fa3,1440(a5)
    377c:	5b17a223          	sw	a7,1444(a5)

00003780 <inst_435>:
    3780:	47482507          	flw	fa0,1140(a6)
    3784:	47882587          	flw	fa1,1144(a6)
    3788:	47c82607          	flw	fa2,1148(a6)
    378c:	00205073          	fsrmi	zero,0
    3790:	60b576cf          	fnmadd.s	fa3,fa0,fa1,fa2
    3794:	001028f3          	frflags	a7
    3798:	5ad7a427          	fsw	fa3,1448(a5)
    379c:	5b17a623          	sw	a7,1452(a5)

000037a0 <inst_436>:
    37a0:	48082507          	flw	fa0,1152(a6)
    37a4:	48482587          	flw	fa1,1156(a6)
    37a8:	48882607          	flw	fa2,1160(a6)
    37ac:	00225073          	fsrmi	zero,4
    37b0:	60b576cf          	fnmadd.s	fa3,fa0,fa1,fa2
    37b4:	001028f3          	frflags	a7
    37b8:	5ad7a827          	fsw	fa3,1456(a5)
    37bc:	5b17aa23          	sw	a7,1460(a5)

000037c0 <inst_437>:
    37c0:	48c82507          	flw	fa0,1164(a6)
    37c4:	49082587          	flw	fa1,1168(a6)
    37c8:	49482607          	flw	fa2,1172(a6)
    37cc:	0021d073          	fsrmi	zero,3
    37d0:	60b576cf          	fnmadd.s	fa3,fa0,fa1,fa2
    37d4:	001028f3          	frflags	a7
    37d8:	5ad7ac27          	fsw	fa3,1464(a5)
    37dc:	5b17ae23          	sw	a7,1468(a5)

000037e0 <inst_438>:
    37e0:	49882507          	flw	fa0,1176(a6)
    37e4:	49c82587          	flw	fa1,1180(a6)
    37e8:	4a082607          	flw	fa2,1184(a6)
    37ec:	00215073          	fsrmi	zero,2
    37f0:	60b576cf          	fnmadd.s	fa3,fa0,fa1,fa2
    37f4:	001028f3          	frflags	a7
    37f8:	5cd7a027          	fsw	fa3,1472(a5)
    37fc:	5d17a223          	sw	a7,1476(a5)

00003800 <inst_439>:
    3800:	4a482507          	flw	fa0,1188(a6)
    3804:	4a882587          	flw	fa1,1192(a6)
    3808:	4ac82607          	flw	fa2,1196(a6)
    380c:	0020d073          	fsrmi	zero,1
    3810:	60b576cf          	fnmadd.s	fa3,fa0,fa1,fa2
    3814:	001028f3          	frflags	a7
    3818:	5cd7a427          	fsw	fa3,1480(a5)
    381c:	5d17a623          	sw	a7,1484(a5)

00003820 <inst_440>:
    3820:	4b082507          	flw	fa0,1200(a6)
    3824:	4b482587          	flw	fa1,1204(a6)
    3828:	4b882607          	flw	fa2,1208(a6)
    382c:	00205073          	fsrmi	zero,0
    3830:	60b576cf          	fnmadd.s	fa3,fa0,fa1,fa2
    3834:	001028f3          	frflags	a7
    3838:	5cd7a827          	fsw	fa3,1488(a5)
    383c:	5d17aa23          	sw	a7,1492(a5)

00003840 <inst_441>:
    3840:	4bc82507          	flw	fa0,1212(a6)
    3844:	4c082587          	flw	fa1,1216(a6)
    3848:	4c482607          	flw	fa2,1220(a6)
    384c:	00225073          	fsrmi	zero,4
    3850:	60b576cf          	fnmadd.s	fa3,fa0,fa1,fa2
    3854:	001028f3          	frflags	a7
    3858:	5cd7ac27          	fsw	fa3,1496(a5)
    385c:	5d17ae23          	sw	a7,1500(a5)

00003860 <inst_442>:
    3860:	4c882507          	flw	fa0,1224(a6)
    3864:	4cc82587          	flw	fa1,1228(a6)
    3868:	4d082607          	flw	fa2,1232(a6)
    386c:	0021d073          	fsrmi	zero,3
    3870:	60b576cf          	fnmadd.s	fa3,fa0,fa1,fa2
    3874:	001028f3          	frflags	a7
    3878:	5ed7a027          	fsw	fa3,1504(a5)
    387c:	5f17a223          	sw	a7,1508(a5)

00003880 <inst_443>:
    3880:	4d482507          	flw	fa0,1236(a6)
    3884:	4d882587          	flw	fa1,1240(a6)
    3888:	4dc82607          	flw	fa2,1244(a6)
    388c:	00215073          	fsrmi	zero,2
    3890:	60b576cf          	fnmadd.s	fa3,fa0,fa1,fa2
    3894:	001028f3          	frflags	a7
    3898:	5ed7a427          	fsw	fa3,1512(a5)
    389c:	5f17a623          	sw	a7,1516(a5)

000038a0 <inst_444>:
    38a0:	4e082507          	flw	fa0,1248(a6)
    38a4:	4e482587          	flw	fa1,1252(a6)
    38a8:	4e882607          	flw	fa2,1256(a6)
    38ac:	0020d073          	fsrmi	zero,1
    38b0:	60b576cf          	fnmadd.s	fa3,fa0,fa1,fa2
    38b4:	001028f3          	frflags	a7
    38b8:	5ed7a827          	fsw	fa3,1520(a5)
    38bc:	5f17aa23          	sw	a7,1524(a5)

000038c0 <inst_445>:
    38c0:	4ec82507          	flw	fa0,1260(a6)
    38c4:	4f082587          	flw	fa1,1264(a6)
    38c8:	4f482607          	flw	fa2,1268(a6)
    38cc:	00205073          	fsrmi	zero,0
    38d0:	60b576cf          	fnmadd.s	fa3,fa0,fa1,fa2
    38d4:	001028f3          	frflags	a7
    38d8:	5ed7ac27          	fsw	fa3,1528(a5)
    38dc:	5f17ae23          	sw	a7,1532(a5)

000038e0 <inst_446>:
    38e0:	4f882507          	flw	fa0,1272(a6)
    38e4:	4fc82587          	flw	fa1,1276(a6)
    38e8:	50082607          	flw	fa2,1280(a6)
    38ec:	00225073          	fsrmi	zero,4
    38f0:	60b576cf          	fnmadd.s	fa3,fa0,fa1,fa2
    38f4:	001028f3          	frflags	a7
    38f8:	60d7a027          	fsw	fa3,1536(a5)
    38fc:	6117a223          	sw	a7,1540(a5)

00003900 <inst_447>:
    3900:	50482507          	flw	fa0,1284(a6)
    3904:	50882587          	flw	fa1,1288(a6)
    3908:	50c82607          	flw	fa2,1292(a6)
    390c:	0021d073          	fsrmi	zero,3
    3910:	60b576cf          	fnmadd.s	fa3,fa0,fa1,fa2
    3914:	001028f3          	frflags	a7
    3918:	60d7a427          	fsw	fa3,1544(a5)
    391c:	6117a623          	sw	a7,1548(a5)

00003920 <inst_448>:
    3920:	51082507          	flw	fa0,1296(a6)
    3924:	51482587          	flw	fa1,1300(a6)
    3928:	51882607          	flw	fa2,1304(a6)
    392c:	00215073          	fsrmi	zero,2
    3930:	60b576cf          	fnmadd.s	fa3,fa0,fa1,fa2
    3934:	001028f3          	frflags	a7
    3938:	60d7a827          	fsw	fa3,1552(a5)
    393c:	6117aa23          	sw	a7,1556(a5)

00003940 <inst_449>:
    3940:	51c82507          	flw	fa0,1308(a6)
    3944:	52082587          	flw	fa1,1312(a6)
    3948:	52482607          	flw	fa2,1316(a6)
    394c:	0020d073          	fsrmi	zero,1
    3950:	60b576cf          	fnmadd.s	fa3,fa0,fa1,fa2
    3954:	001028f3          	frflags	a7
    3958:	60d7ac27          	fsw	fa3,1560(a5)
    395c:	6117ae23          	sw	a7,1564(a5)

00003960 <inst_450>:
    3960:	52882507          	flw	fa0,1320(a6)
    3964:	52c82587          	flw	fa1,1324(a6)
    3968:	53082607          	flw	fa2,1328(a6)
    396c:	00205073          	fsrmi	zero,0
    3970:	60b576cf          	fnmadd.s	fa3,fa0,fa1,fa2
    3974:	001028f3          	frflags	a7
    3978:	62d7a027          	fsw	fa3,1568(a5)
    397c:	6317a223          	sw	a7,1572(a5)

00003980 <inst_451>:
    3980:	53482507          	flw	fa0,1332(a6)
    3984:	53882587          	flw	fa1,1336(a6)
    3988:	53c82607          	flw	fa2,1340(a6)
    398c:	00225073          	fsrmi	zero,4
    3990:	60b576cf          	fnmadd.s	fa3,fa0,fa1,fa2
    3994:	001028f3          	frflags	a7
    3998:	62d7a427          	fsw	fa3,1576(a5)
    399c:	6317a623          	sw	a7,1580(a5)

000039a0 <inst_452>:
    39a0:	54082507          	flw	fa0,1344(a6)
    39a4:	54482587          	flw	fa1,1348(a6)
    39a8:	54882607          	flw	fa2,1352(a6)
    39ac:	0021d073          	fsrmi	zero,3
    39b0:	60b576cf          	fnmadd.s	fa3,fa0,fa1,fa2
    39b4:	001028f3          	frflags	a7
    39b8:	62d7a827          	fsw	fa3,1584(a5)
    39bc:	6317aa23          	sw	a7,1588(a5)

000039c0 <inst_453>:
    39c0:	54c82507          	flw	fa0,1356(a6)
    39c4:	55082587          	flw	fa1,1360(a6)
    39c8:	55482607          	flw	fa2,1364(a6)
    39cc:	00215073          	fsrmi	zero,2
    39d0:	60b576cf          	fnmadd.s	fa3,fa0,fa1,fa2
    39d4:	001028f3          	frflags	a7
    39d8:	62d7ac27          	fsw	fa3,1592(a5)
    39dc:	6317ae23          	sw	a7,1596(a5)

000039e0 <inst_454>:
    39e0:	55882507          	flw	fa0,1368(a6)
    39e4:	55c82587          	flw	fa1,1372(a6)
    39e8:	56082607          	flw	fa2,1376(a6)
    39ec:	0020d073          	fsrmi	zero,1
    39f0:	60b576cf          	fnmadd.s	fa3,fa0,fa1,fa2
    39f4:	001028f3          	frflags	a7
    39f8:	64d7a027          	fsw	fa3,1600(a5)
    39fc:	6517a223          	sw	a7,1604(a5)

00003a00 <inst_455>:
    3a00:	56482507          	flw	fa0,1380(a6)
    3a04:	56882587          	flw	fa1,1384(a6)
    3a08:	56c82607          	flw	fa2,1388(a6)
    3a0c:	00205073          	fsrmi	zero,0
    3a10:	60b576cf          	fnmadd.s	fa3,fa0,fa1,fa2
    3a14:	001028f3          	frflags	a7
    3a18:	64d7a427          	fsw	fa3,1608(a5)
    3a1c:	6517a623          	sw	a7,1612(a5)

00003a20 <inst_456>:
    3a20:	57082507          	flw	fa0,1392(a6)
    3a24:	57482587          	flw	fa1,1396(a6)
    3a28:	57882607          	flw	fa2,1400(a6)
    3a2c:	00225073          	fsrmi	zero,4
    3a30:	60b576cf          	fnmadd.s	fa3,fa0,fa1,fa2
    3a34:	001028f3          	frflags	a7
    3a38:	64d7a827          	fsw	fa3,1616(a5)
    3a3c:	6517aa23          	sw	a7,1620(a5)

00003a40 <inst_457>:
    3a40:	57c82507          	flw	fa0,1404(a6)
    3a44:	58082587          	flw	fa1,1408(a6)
    3a48:	58482607          	flw	fa2,1412(a6)
    3a4c:	0021d073          	fsrmi	zero,3
    3a50:	60b576cf          	fnmadd.s	fa3,fa0,fa1,fa2
    3a54:	001028f3          	frflags	a7
    3a58:	64d7ac27          	fsw	fa3,1624(a5)
    3a5c:	6517ae23          	sw	a7,1628(a5)

00003a60 <inst_458>:
    3a60:	58882507          	flw	fa0,1416(a6)
    3a64:	58c82587          	flw	fa1,1420(a6)
    3a68:	59082607          	flw	fa2,1424(a6)
    3a6c:	00215073          	fsrmi	zero,2
    3a70:	60b576cf          	fnmadd.s	fa3,fa0,fa1,fa2
    3a74:	001028f3          	frflags	a7
    3a78:	66d7a027          	fsw	fa3,1632(a5)
    3a7c:	6717a223          	sw	a7,1636(a5)

00003a80 <inst_459>:
    3a80:	59482507          	flw	fa0,1428(a6)
    3a84:	59882587          	flw	fa1,1432(a6)
    3a88:	59c82607          	flw	fa2,1436(a6)
    3a8c:	0020d073          	fsrmi	zero,1
    3a90:	60b576cf          	fnmadd.s	fa3,fa0,fa1,fa2
    3a94:	001028f3          	frflags	a7
    3a98:	66d7a427          	fsw	fa3,1640(a5)
    3a9c:	6717a623          	sw	a7,1644(a5)

00003aa0 <inst_460>:
    3aa0:	5a082507          	flw	fa0,1440(a6)
    3aa4:	5a482587          	flw	fa1,1444(a6)
    3aa8:	5a882607          	flw	fa2,1448(a6)
    3aac:	00205073          	fsrmi	zero,0
    3ab0:	60b576cf          	fnmadd.s	fa3,fa0,fa1,fa2
    3ab4:	001028f3          	frflags	a7
    3ab8:	66d7a827          	fsw	fa3,1648(a5)
    3abc:	6717aa23          	sw	a7,1652(a5)

00003ac0 <inst_461>:
    3ac0:	5ac82507          	flw	fa0,1452(a6)
    3ac4:	5b082587          	flw	fa1,1456(a6)
    3ac8:	5b482607          	flw	fa2,1460(a6)
    3acc:	00225073          	fsrmi	zero,4
    3ad0:	60b576cf          	fnmadd.s	fa3,fa0,fa1,fa2
    3ad4:	001028f3          	frflags	a7
    3ad8:	66d7ac27          	fsw	fa3,1656(a5)
    3adc:	6717ae23          	sw	a7,1660(a5)

00003ae0 <inst_462>:
    3ae0:	5b882507          	flw	fa0,1464(a6)
    3ae4:	5bc82587          	flw	fa1,1468(a6)
    3ae8:	5c082607          	flw	fa2,1472(a6)
    3aec:	0021d073          	fsrmi	zero,3
    3af0:	60b576cf          	fnmadd.s	fa3,fa0,fa1,fa2
    3af4:	001028f3          	frflags	a7
    3af8:	68d7a027          	fsw	fa3,1664(a5)
    3afc:	6917a223          	sw	a7,1668(a5)

00003b00 <inst_463>:
    3b00:	5c482507          	flw	fa0,1476(a6)
    3b04:	5c882587          	flw	fa1,1480(a6)
    3b08:	5cc82607          	flw	fa2,1484(a6)
    3b0c:	00215073          	fsrmi	zero,2
    3b10:	60b576cf          	fnmadd.s	fa3,fa0,fa1,fa2
    3b14:	001028f3          	frflags	a7
    3b18:	68d7a427          	fsw	fa3,1672(a5)
    3b1c:	6917a623          	sw	a7,1676(a5)

00003b20 <inst_464>:
    3b20:	5d082507          	flw	fa0,1488(a6)
    3b24:	5d482587          	flw	fa1,1492(a6)
    3b28:	5d882607          	flw	fa2,1496(a6)
    3b2c:	0020d073          	fsrmi	zero,1
    3b30:	60b576cf          	fnmadd.s	fa3,fa0,fa1,fa2
    3b34:	001028f3          	frflags	a7
    3b38:	68d7a827          	fsw	fa3,1680(a5)
    3b3c:	6917aa23          	sw	a7,1684(a5)

00003b40 <inst_465>:
    3b40:	5dc82507          	flw	fa0,1500(a6)
    3b44:	5e082587          	flw	fa1,1504(a6)
    3b48:	5e482607          	flw	fa2,1508(a6)
    3b4c:	00205073          	fsrmi	zero,0
    3b50:	60b576cf          	fnmadd.s	fa3,fa0,fa1,fa2
    3b54:	001028f3          	frflags	a7
    3b58:	68d7ac27          	fsw	fa3,1688(a5)
    3b5c:	6917ae23          	sw	a7,1692(a5)

00003b60 <inst_466>:
    3b60:	5e882507          	flw	fa0,1512(a6)
    3b64:	5ec82587          	flw	fa1,1516(a6)
    3b68:	5f082607          	flw	fa2,1520(a6)
    3b6c:	00225073          	fsrmi	zero,4
    3b70:	60b576cf          	fnmadd.s	fa3,fa0,fa1,fa2
    3b74:	001028f3          	frflags	a7
    3b78:	6ad7a027          	fsw	fa3,1696(a5)
    3b7c:	6b17a223          	sw	a7,1700(a5)

00003b80 <inst_467>:
    3b80:	5f482507          	flw	fa0,1524(a6)
    3b84:	5f882587          	flw	fa1,1528(a6)
    3b88:	5fc82607          	flw	fa2,1532(a6)
    3b8c:	0021d073          	fsrmi	zero,3
    3b90:	60b576cf          	fnmadd.s	fa3,fa0,fa1,fa2
    3b94:	001028f3          	frflags	a7
    3b98:	6ad7a427          	fsw	fa3,1704(a5)
    3b9c:	6b17a623          	sw	a7,1708(a5)

00003ba0 <inst_468>:
    3ba0:	60082507          	flw	fa0,1536(a6)
    3ba4:	60482587          	flw	fa1,1540(a6)
    3ba8:	60882607          	flw	fa2,1544(a6)
    3bac:	00215073          	fsrmi	zero,2
    3bb0:	60b576cf          	fnmadd.s	fa3,fa0,fa1,fa2
    3bb4:	001028f3          	frflags	a7
    3bb8:	6ad7a827          	fsw	fa3,1712(a5)
    3bbc:	6b17aa23          	sw	a7,1716(a5)

00003bc0 <inst_469>:
    3bc0:	60c82507          	flw	fa0,1548(a6)
    3bc4:	61082587          	flw	fa1,1552(a6)
    3bc8:	61482607          	flw	fa2,1556(a6)
    3bcc:	0020d073          	fsrmi	zero,1
    3bd0:	60b576cf          	fnmadd.s	fa3,fa0,fa1,fa2
    3bd4:	001028f3          	frflags	a7
    3bd8:	6ad7ac27          	fsw	fa3,1720(a5)
    3bdc:	6b17ae23          	sw	a7,1724(a5)

00003be0 <inst_470>:
    3be0:	61882507          	flw	fa0,1560(a6)
    3be4:	61c82587          	flw	fa1,1564(a6)
    3be8:	62082607          	flw	fa2,1568(a6)
    3bec:	00205073          	fsrmi	zero,0
    3bf0:	60b576cf          	fnmadd.s	fa3,fa0,fa1,fa2
    3bf4:	001028f3          	frflags	a7
    3bf8:	6cd7a027          	fsw	fa3,1728(a5)
    3bfc:	6d17a223          	sw	a7,1732(a5)

00003c00 <inst_471>:
    3c00:	62482507          	flw	fa0,1572(a6)
    3c04:	62882587          	flw	fa1,1576(a6)
    3c08:	62c82607          	flw	fa2,1580(a6)
    3c0c:	00225073          	fsrmi	zero,4
    3c10:	60b576cf          	fnmadd.s	fa3,fa0,fa1,fa2
    3c14:	001028f3          	frflags	a7
    3c18:	6cd7a427          	fsw	fa3,1736(a5)
    3c1c:	6d17a623          	sw	a7,1740(a5)

00003c20 <inst_472>:
    3c20:	63082507          	flw	fa0,1584(a6)
    3c24:	63482587          	flw	fa1,1588(a6)
    3c28:	63882607          	flw	fa2,1592(a6)
    3c2c:	0021d073          	fsrmi	zero,3
    3c30:	60b576cf          	fnmadd.s	fa3,fa0,fa1,fa2
    3c34:	001028f3          	frflags	a7
    3c38:	6cd7a827          	fsw	fa3,1744(a5)
    3c3c:	6d17aa23          	sw	a7,1748(a5)

00003c40 <inst_473>:
    3c40:	63c82507          	flw	fa0,1596(a6)
    3c44:	64082587          	flw	fa1,1600(a6)
    3c48:	64482607          	flw	fa2,1604(a6)
    3c4c:	00215073          	fsrmi	zero,2
    3c50:	60b576cf          	fnmadd.s	fa3,fa0,fa1,fa2
    3c54:	001028f3          	frflags	a7
    3c58:	6cd7ac27          	fsw	fa3,1752(a5)
    3c5c:	6d17ae23          	sw	a7,1756(a5)

00003c60 <inst_474>:
    3c60:	64882507          	flw	fa0,1608(a6)
    3c64:	64c82587          	flw	fa1,1612(a6)
    3c68:	65082607          	flw	fa2,1616(a6)
    3c6c:	0020d073          	fsrmi	zero,1
    3c70:	60b576cf          	fnmadd.s	fa3,fa0,fa1,fa2
    3c74:	001028f3          	frflags	a7
    3c78:	6ed7a027          	fsw	fa3,1760(a5)
    3c7c:	6f17a223          	sw	a7,1764(a5)

00003c80 <inst_475>:
    3c80:	65482507          	flw	fa0,1620(a6)
    3c84:	65882587          	flw	fa1,1624(a6)
    3c88:	65c82607          	flw	fa2,1628(a6)
    3c8c:	00205073          	fsrmi	zero,0
    3c90:	60b576cf          	fnmadd.s	fa3,fa0,fa1,fa2
    3c94:	001028f3          	frflags	a7
    3c98:	6ed7a427          	fsw	fa3,1768(a5)
    3c9c:	6f17a623          	sw	a7,1772(a5)

00003ca0 <inst_476>:
    3ca0:	66082507          	flw	fa0,1632(a6)
    3ca4:	66482587          	flw	fa1,1636(a6)
    3ca8:	66882607          	flw	fa2,1640(a6)
    3cac:	00225073          	fsrmi	zero,4
    3cb0:	60b576cf          	fnmadd.s	fa3,fa0,fa1,fa2
    3cb4:	001028f3          	frflags	a7
    3cb8:	6ed7a827          	fsw	fa3,1776(a5)
    3cbc:	6f17aa23          	sw	a7,1780(a5)

00003cc0 <inst_477>:
    3cc0:	66c82507          	flw	fa0,1644(a6)
    3cc4:	67082587          	flw	fa1,1648(a6)
    3cc8:	67482607          	flw	fa2,1652(a6)
    3ccc:	0021d073          	fsrmi	zero,3
    3cd0:	60b576cf          	fnmadd.s	fa3,fa0,fa1,fa2
    3cd4:	001028f3          	frflags	a7
    3cd8:	6ed7ac27          	fsw	fa3,1784(a5)
    3cdc:	6f17ae23          	sw	a7,1788(a5)

00003ce0 <inst_478>:
    3ce0:	67882507          	flw	fa0,1656(a6)
    3ce4:	67c82587          	flw	fa1,1660(a6)
    3ce8:	68082607          	flw	fa2,1664(a6)
    3cec:	00215073          	fsrmi	zero,2
    3cf0:	60b576cf          	fnmadd.s	fa3,fa0,fa1,fa2
    3cf4:	001028f3          	frflags	a7
    3cf8:	70d7a027          	fsw	fa3,1792(a5)
    3cfc:	7117a223          	sw	a7,1796(a5)

00003d00 <inst_479>:
    3d00:	68482507          	flw	fa0,1668(a6)
    3d04:	68882587          	flw	fa1,1672(a6)
    3d08:	68c82607          	flw	fa2,1676(a6)
    3d0c:	0020d073          	fsrmi	zero,1
    3d10:	60b576cf          	fnmadd.s	fa3,fa0,fa1,fa2
    3d14:	001028f3          	frflags	a7
    3d18:	70d7a427          	fsw	fa3,1800(a5)
    3d1c:	7117a623          	sw	a7,1804(a5)

00003d20 <inst_480>:
    3d20:	69082507          	flw	fa0,1680(a6)
    3d24:	69482587          	flw	fa1,1684(a6)
    3d28:	69882607          	flw	fa2,1688(a6)
    3d2c:	00205073          	fsrmi	zero,0
    3d30:	60b576cf          	fnmadd.s	fa3,fa0,fa1,fa2
    3d34:	001028f3          	frflags	a7
    3d38:	70d7a827          	fsw	fa3,1808(a5)
    3d3c:	7117aa23          	sw	a7,1812(a5)

00003d40 <inst_481>:
    3d40:	69c82507          	flw	fa0,1692(a6)
    3d44:	6a082587          	flw	fa1,1696(a6)
    3d48:	6a482607          	flw	fa2,1700(a6)
    3d4c:	00225073          	fsrmi	zero,4
    3d50:	60b576cf          	fnmadd.s	fa3,fa0,fa1,fa2
    3d54:	001028f3          	frflags	a7
    3d58:	70d7ac27          	fsw	fa3,1816(a5)
    3d5c:	7117ae23          	sw	a7,1820(a5)

00003d60 <inst_482>:
    3d60:	6a882507          	flw	fa0,1704(a6)
    3d64:	6ac82587          	flw	fa1,1708(a6)
    3d68:	6b082607          	flw	fa2,1712(a6)
    3d6c:	0021d073          	fsrmi	zero,3
    3d70:	60b576cf          	fnmadd.s	fa3,fa0,fa1,fa2
    3d74:	001028f3          	frflags	a7
    3d78:	72d7a027          	fsw	fa3,1824(a5)
    3d7c:	7317a223          	sw	a7,1828(a5)

00003d80 <inst_483>:
    3d80:	6b482507          	flw	fa0,1716(a6)
    3d84:	6b882587          	flw	fa1,1720(a6)
    3d88:	6bc82607          	flw	fa2,1724(a6)
    3d8c:	00215073          	fsrmi	zero,2
    3d90:	60b576cf          	fnmadd.s	fa3,fa0,fa1,fa2
    3d94:	001028f3          	frflags	a7
    3d98:	72d7a427          	fsw	fa3,1832(a5)
    3d9c:	7317a623          	sw	a7,1836(a5)

00003da0 <inst_484>:
    3da0:	6c082507          	flw	fa0,1728(a6)
    3da4:	6c482587          	flw	fa1,1732(a6)
    3da8:	6c882607          	flw	fa2,1736(a6)
    3dac:	0020d073          	fsrmi	zero,1
    3db0:	60b576cf          	fnmadd.s	fa3,fa0,fa1,fa2
    3db4:	001028f3          	frflags	a7
    3db8:	72d7a827          	fsw	fa3,1840(a5)
    3dbc:	7317aa23          	sw	a7,1844(a5)

00003dc0 <inst_485>:
    3dc0:	6cc82507          	flw	fa0,1740(a6)
    3dc4:	6d082587          	flw	fa1,1744(a6)
    3dc8:	6d482607          	flw	fa2,1748(a6)
    3dcc:	00205073          	fsrmi	zero,0
    3dd0:	60b576cf          	fnmadd.s	fa3,fa0,fa1,fa2
    3dd4:	001028f3          	frflags	a7
    3dd8:	72d7ac27          	fsw	fa3,1848(a5)
    3ddc:	7317ae23          	sw	a7,1852(a5)

00003de0 <inst_486>:
    3de0:	6d882507          	flw	fa0,1752(a6)
    3de4:	6dc82587          	flw	fa1,1756(a6)
    3de8:	6e082607          	flw	fa2,1760(a6)
    3dec:	00225073          	fsrmi	zero,4
    3df0:	60b576cf          	fnmadd.s	fa3,fa0,fa1,fa2
    3df4:	001028f3          	frflags	a7
    3df8:	74d7a027          	fsw	fa3,1856(a5)
    3dfc:	7517a223          	sw	a7,1860(a5)

00003e00 <inst_487>:
    3e00:	6e482507          	flw	fa0,1764(a6)
    3e04:	6e882587          	flw	fa1,1768(a6)
    3e08:	6ec82607          	flw	fa2,1772(a6)
    3e0c:	0021d073          	fsrmi	zero,3
    3e10:	60b576cf          	fnmadd.s	fa3,fa0,fa1,fa2
    3e14:	001028f3          	frflags	a7
    3e18:	74d7a427          	fsw	fa3,1864(a5)
    3e1c:	7517a623          	sw	a7,1868(a5)

00003e20 <inst_488>:
    3e20:	6f082507          	flw	fa0,1776(a6)
    3e24:	6f482587          	flw	fa1,1780(a6)
    3e28:	6f882607          	flw	fa2,1784(a6)
    3e2c:	00215073          	fsrmi	zero,2
    3e30:	60b576cf          	fnmadd.s	fa3,fa0,fa1,fa2
    3e34:	001028f3          	frflags	a7
    3e38:	74d7a827          	fsw	fa3,1872(a5)
    3e3c:	7517aa23          	sw	a7,1876(a5)

00003e40 <inst_489>:
    3e40:	6fc82507          	flw	fa0,1788(a6)
    3e44:	70082587          	flw	fa1,1792(a6)
    3e48:	70482607          	flw	fa2,1796(a6)
    3e4c:	0020d073          	fsrmi	zero,1
    3e50:	60b576cf          	fnmadd.s	fa3,fa0,fa1,fa2
    3e54:	001028f3          	frflags	a7
    3e58:	74d7ac27          	fsw	fa3,1880(a5)
    3e5c:	7517ae23          	sw	a7,1884(a5)

00003e60 <inst_490>:
    3e60:	70882507          	flw	fa0,1800(a6)
    3e64:	70c82587          	flw	fa1,1804(a6)
    3e68:	71082607          	flw	fa2,1808(a6)
    3e6c:	00205073          	fsrmi	zero,0
    3e70:	60b576cf          	fnmadd.s	fa3,fa0,fa1,fa2
    3e74:	001028f3          	frflags	a7
    3e78:	76d7a027          	fsw	fa3,1888(a5)
    3e7c:	7717a223          	sw	a7,1892(a5)

00003e80 <inst_491>:
    3e80:	71482507          	flw	fa0,1812(a6)
    3e84:	71882587          	flw	fa1,1816(a6)
    3e88:	71c82607          	flw	fa2,1820(a6)
    3e8c:	00225073          	fsrmi	zero,4
    3e90:	60b576cf          	fnmadd.s	fa3,fa0,fa1,fa2
    3e94:	001028f3          	frflags	a7
    3e98:	76d7a427          	fsw	fa3,1896(a5)
    3e9c:	7717a623          	sw	a7,1900(a5)

00003ea0 <inst_492>:
    3ea0:	72082507          	flw	fa0,1824(a6)
    3ea4:	72482587          	flw	fa1,1828(a6)
    3ea8:	72882607          	flw	fa2,1832(a6)
    3eac:	0021d073          	fsrmi	zero,3
    3eb0:	60b576cf          	fnmadd.s	fa3,fa0,fa1,fa2
    3eb4:	001028f3          	frflags	a7
    3eb8:	76d7a827          	fsw	fa3,1904(a5)
    3ebc:	7717aa23          	sw	a7,1908(a5)

00003ec0 <inst_493>:
    3ec0:	72c82507          	flw	fa0,1836(a6)
    3ec4:	73082587          	flw	fa1,1840(a6)
    3ec8:	73482607          	flw	fa2,1844(a6)
    3ecc:	00215073          	fsrmi	zero,2
    3ed0:	60b576cf          	fnmadd.s	fa3,fa0,fa1,fa2
    3ed4:	001028f3          	frflags	a7
    3ed8:	76d7ac27          	fsw	fa3,1912(a5)
    3edc:	7717ae23          	sw	a7,1916(a5)

00003ee0 <inst_494>:
    3ee0:	73882507          	flw	fa0,1848(a6)
    3ee4:	73c82587          	flw	fa1,1852(a6)
    3ee8:	74082607          	flw	fa2,1856(a6)
    3eec:	0020d073          	fsrmi	zero,1
    3ef0:	60b576cf          	fnmadd.s	fa3,fa0,fa1,fa2
    3ef4:	001028f3          	frflags	a7
    3ef8:	78d7a027          	fsw	fa3,1920(a5)
    3efc:	7917a223          	sw	a7,1924(a5)

00003f00 <inst_495>:
    3f00:	74482507          	flw	fa0,1860(a6)
    3f04:	74882587          	flw	fa1,1864(a6)
    3f08:	74c82607          	flw	fa2,1868(a6)
    3f0c:	00205073          	fsrmi	zero,0
    3f10:	60b576cf          	fnmadd.s	fa3,fa0,fa1,fa2
    3f14:	001028f3          	frflags	a7
    3f18:	78d7a427          	fsw	fa3,1928(a5)
    3f1c:	7917a623          	sw	a7,1932(a5)

00003f20 <inst_496>:
    3f20:	75082507          	flw	fa0,1872(a6)
    3f24:	75482587          	flw	fa1,1876(a6)
    3f28:	75882607          	flw	fa2,1880(a6)
    3f2c:	00225073          	fsrmi	zero,4
    3f30:	60b576cf          	fnmadd.s	fa3,fa0,fa1,fa2
    3f34:	001028f3          	frflags	a7
    3f38:	78d7a827          	fsw	fa3,1936(a5)
    3f3c:	7917aa23          	sw	a7,1940(a5)

00003f40 <inst_497>:
    3f40:	75c82507          	flw	fa0,1884(a6)
    3f44:	76082587          	flw	fa1,1888(a6)
    3f48:	76482607          	flw	fa2,1892(a6)
    3f4c:	0021d073          	fsrmi	zero,3
    3f50:	60b576cf          	fnmadd.s	fa3,fa0,fa1,fa2
    3f54:	001028f3          	frflags	a7
    3f58:	78d7ac27          	fsw	fa3,1944(a5)
    3f5c:	7917ae23          	sw	a7,1948(a5)

00003f60 <inst_498>:
    3f60:	76882507          	flw	fa0,1896(a6)
    3f64:	76c82587          	flw	fa1,1900(a6)
    3f68:	77082607          	flw	fa2,1904(a6)
    3f6c:	00215073          	fsrmi	zero,2
    3f70:	60b576cf          	fnmadd.s	fa3,fa0,fa1,fa2
    3f74:	001028f3          	frflags	a7
    3f78:	7ad7a027          	fsw	fa3,1952(a5)
    3f7c:	7b17a223          	sw	a7,1956(a5)

00003f80 <inst_499>:
    3f80:	77482507          	flw	fa0,1908(a6)
    3f84:	77882587          	flw	fa1,1912(a6)
    3f88:	77c82607          	flw	fa2,1916(a6)
    3f8c:	0020d073          	fsrmi	zero,1
    3f90:	60b576cf          	fnmadd.s	fa3,fa0,fa1,fa2
    3f94:	001028f3          	frflags	a7
    3f98:	7ad7a427          	fsw	fa3,1960(a5)
    3f9c:	7b17a623          	sw	a7,1964(a5)

00003fa0 <inst_500>:
    3fa0:	78082507          	flw	fa0,1920(a6)
    3fa4:	78482587          	flw	fa1,1924(a6)
    3fa8:	78882607          	flw	fa2,1928(a6)
    3fac:	00205073          	fsrmi	zero,0
    3fb0:	60b576cf          	fnmadd.s	fa3,fa0,fa1,fa2
    3fb4:	001028f3          	frflags	a7
    3fb8:	7ad7a827          	fsw	fa3,1968(a5)
    3fbc:	7b17aa23          	sw	a7,1972(a5)

00003fc0 <inst_501>:
    3fc0:	78c82507          	flw	fa0,1932(a6)
    3fc4:	79082587          	flw	fa1,1936(a6)
    3fc8:	79482607          	flw	fa2,1940(a6)
    3fcc:	00225073          	fsrmi	zero,4
    3fd0:	60b576cf          	fnmadd.s	fa3,fa0,fa1,fa2
    3fd4:	001028f3          	frflags	a7
    3fd8:	7ad7ac27          	fsw	fa3,1976(a5)
    3fdc:	7b17ae23          	sw	a7,1980(a5)

00003fe0 <inst_502>:
    3fe0:	79882507          	flw	fa0,1944(a6)
    3fe4:	79c82587          	flw	fa1,1948(a6)
    3fe8:	7a082607          	flw	fa2,1952(a6)
    3fec:	0021d073          	fsrmi	zero,3
    3ff0:	60b576cf          	fnmadd.s	fa3,fa0,fa1,fa2
    3ff4:	001028f3          	frflags	a7
    3ff8:	7cd7a027          	fsw	fa3,1984(a5)
    3ffc:	7d17a223          	sw	a7,1988(a5)

00004000 <inst_503>:
    4000:	7a482507          	flw	fa0,1956(a6)
    4004:	7a882587          	flw	fa1,1960(a6)
    4008:	7ac82607          	flw	fa2,1964(a6)
    400c:	00215073          	fsrmi	zero,2
    4010:	60b576cf          	fnmadd.s	fa3,fa0,fa1,fa2
    4014:	001028f3          	frflags	a7
    4018:	7cd7a427          	fsw	fa3,1992(a5)
    401c:	7d17a623          	sw	a7,1996(a5)

00004020 <inst_504>:
    4020:	7b082507          	flw	fa0,1968(a6)
    4024:	7b482587          	flw	fa1,1972(a6)
    4028:	7b882607          	flw	fa2,1976(a6)
    402c:	0020d073          	fsrmi	zero,1
    4030:	60b576cf          	fnmadd.s	fa3,fa0,fa1,fa2
    4034:	001028f3          	frflags	a7
    4038:	7cd7a827          	fsw	fa3,2000(a5)
    403c:	7d17aa23          	sw	a7,2004(a5)

00004040 <inst_505>:
    4040:	7bc82507          	flw	fa0,1980(a6)
    4044:	7c082587          	flw	fa1,1984(a6)
    4048:	7c482607          	flw	fa2,1988(a6)
    404c:	00205073          	fsrmi	zero,0
    4050:	60b576cf          	fnmadd.s	fa3,fa0,fa1,fa2
    4054:	001028f3          	frflags	a7
    4058:	7cd7ac27          	fsw	fa3,2008(a5)
    405c:	7d17ae23          	sw	a7,2012(a5)

00004060 <inst_506>:
    4060:	7c882507          	flw	fa0,1992(a6)
    4064:	7cc82587          	flw	fa1,1996(a6)
    4068:	7d082607          	flw	fa2,2000(a6)
    406c:	00225073          	fsrmi	zero,4
    4070:	60b576cf          	fnmadd.s	fa3,fa0,fa1,fa2
    4074:	001028f3          	frflags	a7
    4078:	7ed7a027          	fsw	fa3,2016(a5)
    407c:	7f17a223          	sw	a7,2020(a5)

00004080 <inst_507>:
    4080:	7d482507          	flw	fa0,2004(a6)
    4084:	7d882587          	flw	fa1,2008(a6)
    4088:	7dc82607          	flw	fa2,2012(a6)
    408c:	0021d073          	fsrmi	zero,3
    4090:	60b576cf          	fnmadd.s	fa3,fa0,fa1,fa2
    4094:	001028f3          	frflags	a7
    4098:	7ed7a427          	fsw	fa3,2024(a5)
    409c:	7f17a623          	sw	a7,2028(a5)
    40a0:	00009797          	auipc	a5,0x9
    40a4:	43078793          	add	a5,a5,1072 # d4d0 <signature_x15_3>

000040a8 <inst_508>:
    40a8:	7e082507          	flw	fa0,2016(a6)
    40ac:	7e482587          	flw	fa1,2020(a6)
    40b0:	7e882607          	flw	fa2,2024(a6)
    40b4:	00215073          	fsrmi	zero,2
    40b8:	60b576cf          	fnmadd.s	fa3,fa0,fa1,fa2
    40bc:	001028f3          	frflags	a7
    40c0:	00d7a027          	fsw	fa3,0(a5)
    40c4:	0117a223          	sw	a7,4(a5)

000040c8 <inst_509>:
    40c8:	7ec82507          	flw	fa0,2028(a6)
    40cc:	7f082587          	flw	fa1,2032(a6)
    40d0:	7f482607          	flw	fa2,2036(a6)
    40d4:	0020d073          	fsrmi	zero,1
    40d8:	60b576cf          	fnmadd.s	fa3,fa0,fa1,fa2
    40dc:	001028f3          	frflags	a7
    40e0:	00d7a427          	fsw	fa3,8(a5)
    40e4:	0117a623          	sw	a7,12(a5)
    40e8:	7f880813          	add	a6,a6,2040

000040ec <inst_510>:
    40ec:	00082507          	flw	fa0,0(a6)
    40f0:	00482587          	flw	fa1,4(a6)
    40f4:	00882607          	flw	fa2,8(a6)
    40f8:	00205073          	fsrmi	zero,0
    40fc:	60b576cf          	fnmadd.s	fa3,fa0,fa1,fa2
    4100:	001028f3          	frflags	a7
    4104:	00d7a827          	fsw	fa3,16(a5)
    4108:	0117aa23          	sw	a7,20(a5)

0000410c <inst_511>:
    410c:	00c82507          	flw	fa0,12(a6)
    4110:	01082587          	flw	fa1,16(a6)
    4114:	01482607          	flw	fa2,20(a6)
    4118:	00225073          	fsrmi	zero,4
    411c:	60b576cf          	fnmadd.s	fa3,fa0,fa1,fa2
    4120:	001028f3          	frflags	a7
    4124:	00d7ac27          	fsw	fa3,24(a5)
    4128:	0117ae23          	sw	a7,28(a5)

0000412c <inst_512>:
    412c:	01882507          	flw	fa0,24(a6)
    4130:	01c82587          	flw	fa1,28(a6)
    4134:	02082607          	flw	fa2,32(a6)
    4138:	0021d073          	fsrmi	zero,3
    413c:	60b576cf          	fnmadd.s	fa3,fa0,fa1,fa2
    4140:	001028f3          	frflags	a7
    4144:	02d7a027          	fsw	fa3,32(a5)
    4148:	0317a223          	sw	a7,36(a5)

0000414c <inst_513>:
    414c:	02482507          	flw	fa0,36(a6)
    4150:	02882587          	flw	fa1,40(a6)
    4154:	02c82607          	flw	fa2,44(a6)
    4158:	00215073          	fsrmi	zero,2
    415c:	60b576cf          	fnmadd.s	fa3,fa0,fa1,fa2
    4160:	001028f3          	frflags	a7
    4164:	02d7a427          	fsw	fa3,40(a5)
    4168:	0317a623          	sw	a7,44(a5)

0000416c <inst_514>:
    416c:	03082507          	flw	fa0,48(a6)
    4170:	03482587          	flw	fa1,52(a6)
    4174:	03882607          	flw	fa2,56(a6)
    4178:	0020d073          	fsrmi	zero,1
    417c:	60b576cf          	fnmadd.s	fa3,fa0,fa1,fa2
    4180:	001028f3          	frflags	a7
    4184:	02d7a827          	fsw	fa3,48(a5)
    4188:	0317aa23          	sw	a7,52(a5)

0000418c <inst_515>:
    418c:	03c82507          	flw	fa0,60(a6)
    4190:	04082587          	flw	fa1,64(a6)
    4194:	04482607          	flw	fa2,68(a6)
    4198:	00205073          	fsrmi	zero,0
    419c:	60b576cf          	fnmadd.s	fa3,fa0,fa1,fa2
    41a0:	001028f3          	frflags	a7
    41a4:	02d7ac27          	fsw	fa3,56(a5)
    41a8:	0317ae23          	sw	a7,60(a5)

000041ac <inst_516>:
    41ac:	04882507          	flw	fa0,72(a6)
    41b0:	04c82587          	flw	fa1,76(a6)
    41b4:	05082607          	flw	fa2,80(a6)
    41b8:	00225073          	fsrmi	zero,4
    41bc:	60b576cf          	fnmadd.s	fa3,fa0,fa1,fa2
    41c0:	001028f3          	frflags	a7
    41c4:	04d7a027          	fsw	fa3,64(a5)
    41c8:	0517a223          	sw	a7,68(a5)

000041cc <inst_517>:
    41cc:	05482507          	flw	fa0,84(a6)
    41d0:	05882587          	flw	fa1,88(a6)
    41d4:	05c82607          	flw	fa2,92(a6)
    41d8:	0021d073          	fsrmi	zero,3
    41dc:	60b576cf          	fnmadd.s	fa3,fa0,fa1,fa2
    41e0:	001028f3          	frflags	a7
    41e4:	04d7a427          	fsw	fa3,72(a5)
    41e8:	0517a623          	sw	a7,76(a5)

000041ec <inst_518>:
    41ec:	06082507          	flw	fa0,96(a6)
    41f0:	06482587          	flw	fa1,100(a6)
    41f4:	06882607          	flw	fa2,104(a6)
    41f8:	00215073          	fsrmi	zero,2
    41fc:	60b576cf          	fnmadd.s	fa3,fa0,fa1,fa2
    4200:	001028f3          	frflags	a7
    4204:	04d7a827          	fsw	fa3,80(a5)
    4208:	0517aa23          	sw	a7,84(a5)

0000420c <inst_519>:
    420c:	06c82507          	flw	fa0,108(a6)
    4210:	07082587          	flw	fa1,112(a6)
    4214:	07482607          	flw	fa2,116(a6)
    4218:	0020d073          	fsrmi	zero,1
    421c:	60b576cf          	fnmadd.s	fa3,fa0,fa1,fa2
    4220:	001028f3          	frflags	a7
    4224:	04d7ac27          	fsw	fa3,88(a5)
    4228:	0517ae23          	sw	a7,92(a5)

0000422c <inst_520>:
    422c:	07882507          	flw	fa0,120(a6)
    4230:	07c82587          	flw	fa1,124(a6)
    4234:	08082607          	flw	fa2,128(a6)
    4238:	00205073          	fsrmi	zero,0
    423c:	60b576cf          	fnmadd.s	fa3,fa0,fa1,fa2
    4240:	001028f3          	frflags	a7
    4244:	06d7a027          	fsw	fa3,96(a5)
    4248:	0717a223          	sw	a7,100(a5)

0000424c <inst_521>:
    424c:	08482507          	flw	fa0,132(a6)
    4250:	08882587          	flw	fa1,136(a6)
    4254:	08c82607          	flw	fa2,140(a6)
    4258:	00225073          	fsrmi	zero,4
    425c:	60b576cf          	fnmadd.s	fa3,fa0,fa1,fa2
    4260:	001028f3          	frflags	a7
    4264:	06d7a427          	fsw	fa3,104(a5)
    4268:	0717a623          	sw	a7,108(a5)

0000426c <inst_522>:
    426c:	09082507          	flw	fa0,144(a6)
    4270:	09482587          	flw	fa1,148(a6)
    4274:	09882607          	flw	fa2,152(a6)
    4278:	0021d073          	fsrmi	zero,3
    427c:	60b576cf          	fnmadd.s	fa3,fa0,fa1,fa2
    4280:	001028f3          	frflags	a7
    4284:	06d7a827          	fsw	fa3,112(a5)
    4288:	0717aa23          	sw	a7,116(a5)

0000428c <inst_523>:
    428c:	09c82507          	flw	fa0,156(a6)
    4290:	0a082587          	flw	fa1,160(a6)
    4294:	0a482607          	flw	fa2,164(a6)
    4298:	00215073          	fsrmi	zero,2
    429c:	60b576cf          	fnmadd.s	fa3,fa0,fa1,fa2
    42a0:	001028f3          	frflags	a7
    42a4:	06d7ac27          	fsw	fa3,120(a5)
    42a8:	0717ae23          	sw	a7,124(a5)

000042ac <inst_524>:
    42ac:	0a882507          	flw	fa0,168(a6)
    42b0:	0ac82587          	flw	fa1,172(a6)
    42b4:	0b082607          	flw	fa2,176(a6)
    42b8:	0020d073          	fsrmi	zero,1
    42bc:	60b576cf          	fnmadd.s	fa3,fa0,fa1,fa2
    42c0:	001028f3          	frflags	a7
    42c4:	08d7a027          	fsw	fa3,128(a5)
    42c8:	0917a223          	sw	a7,132(a5)

000042cc <inst_525>:
    42cc:	0b482507          	flw	fa0,180(a6)
    42d0:	0b882587          	flw	fa1,184(a6)
    42d4:	0bc82607          	flw	fa2,188(a6)
    42d8:	00205073          	fsrmi	zero,0
    42dc:	60b576cf          	fnmadd.s	fa3,fa0,fa1,fa2
    42e0:	001028f3          	frflags	a7
    42e4:	08d7a427          	fsw	fa3,136(a5)
    42e8:	0917a623          	sw	a7,140(a5)

000042ec <inst_526>:
    42ec:	0c082507          	flw	fa0,192(a6)
    42f0:	0c482587          	flw	fa1,196(a6)
    42f4:	0c882607          	flw	fa2,200(a6)
    42f8:	00225073          	fsrmi	zero,4
    42fc:	60b576cf          	fnmadd.s	fa3,fa0,fa1,fa2
    4300:	001028f3          	frflags	a7
    4304:	08d7a827          	fsw	fa3,144(a5)
    4308:	0917aa23          	sw	a7,148(a5)

0000430c <inst_527>:
    430c:	0cc82507          	flw	fa0,204(a6)
    4310:	0d082587          	flw	fa1,208(a6)
    4314:	0d482607          	flw	fa2,212(a6)
    4318:	0021d073          	fsrmi	zero,3
    431c:	60b576cf          	fnmadd.s	fa3,fa0,fa1,fa2
    4320:	001028f3          	frflags	a7
    4324:	08d7ac27          	fsw	fa3,152(a5)
    4328:	0917ae23          	sw	a7,156(a5)

0000432c <inst_528>:
    432c:	0d882507          	flw	fa0,216(a6)
    4330:	0dc82587          	flw	fa1,220(a6)
    4334:	0e082607          	flw	fa2,224(a6)
    4338:	00215073          	fsrmi	zero,2
    433c:	60b576cf          	fnmadd.s	fa3,fa0,fa1,fa2
    4340:	001028f3          	frflags	a7
    4344:	0ad7a027          	fsw	fa3,160(a5)
    4348:	0b17a223          	sw	a7,164(a5)

0000434c <inst_529>:
    434c:	0e482507          	flw	fa0,228(a6)
    4350:	0e882587          	flw	fa1,232(a6)
    4354:	0ec82607          	flw	fa2,236(a6)
    4358:	0020d073          	fsrmi	zero,1
    435c:	60b576cf          	fnmadd.s	fa3,fa0,fa1,fa2
    4360:	001028f3          	frflags	a7
    4364:	0ad7a427          	fsw	fa3,168(a5)
    4368:	0b17a623          	sw	a7,172(a5)

0000436c <inst_530>:
    436c:	0f082507          	flw	fa0,240(a6)
    4370:	0f482587          	flw	fa1,244(a6)
    4374:	0f882607          	flw	fa2,248(a6)
    4378:	00205073          	fsrmi	zero,0
    437c:	60b576cf          	fnmadd.s	fa3,fa0,fa1,fa2
    4380:	001028f3          	frflags	a7
    4384:	0ad7a827          	fsw	fa3,176(a5)
    4388:	0b17aa23          	sw	a7,180(a5)

0000438c <inst_531>:
    438c:	0fc82507          	flw	fa0,252(a6)
    4390:	10082587          	flw	fa1,256(a6)
    4394:	10482607          	flw	fa2,260(a6)
    4398:	00225073          	fsrmi	zero,4
    439c:	60b576cf          	fnmadd.s	fa3,fa0,fa1,fa2
    43a0:	001028f3          	frflags	a7
    43a4:	0ad7ac27          	fsw	fa3,184(a5)
    43a8:	0b17ae23          	sw	a7,188(a5)

000043ac <inst_532>:
    43ac:	10882507          	flw	fa0,264(a6)
    43b0:	10c82587          	flw	fa1,268(a6)
    43b4:	11082607          	flw	fa2,272(a6)
    43b8:	0021d073          	fsrmi	zero,3
    43bc:	60b576cf          	fnmadd.s	fa3,fa0,fa1,fa2
    43c0:	001028f3          	frflags	a7
    43c4:	0cd7a027          	fsw	fa3,192(a5)
    43c8:	0d17a223          	sw	a7,196(a5)

000043cc <inst_533>:
    43cc:	11482507          	flw	fa0,276(a6)
    43d0:	11882587          	flw	fa1,280(a6)
    43d4:	11c82607          	flw	fa2,284(a6)
    43d8:	00215073          	fsrmi	zero,2
    43dc:	60b576cf          	fnmadd.s	fa3,fa0,fa1,fa2
    43e0:	001028f3          	frflags	a7
    43e4:	0cd7a427          	fsw	fa3,200(a5)
    43e8:	0d17a623          	sw	a7,204(a5)

000043ec <inst_534>:
    43ec:	12082507          	flw	fa0,288(a6)
    43f0:	12482587          	flw	fa1,292(a6)
    43f4:	12882607          	flw	fa2,296(a6)
    43f8:	0020d073          	fsrmi	zero,1
    43fc:	60b576cf          	fnmadd.s	fa3,fa0,fa1,fa2
    4400:	001028f3          	frflags	a7
    4404:	0cd7a827          	fsw	fa3,208(a5)
    4408:	0d17aa23          	sw	a7,212(a5)

0000440c <inst_535>:
    440c:	12c82507          	flw	fa0,300(a6)
    4410:	13082587          	flw	fa1,304(a6)
    4414:	13482607          	flw	fa2,308(a6)
    4418:	00205073          	fsrmi	zero,0
    441c:	60b576cf          	fnmadd.s	fa3,fa0,fa1,fa2
    4420:	001028f3          	frflags	a7
    4424:	0cd7ac27          	fsw	fa3,216(a5)
    4428:	0d17ae23          	sw	a7,220(a5)

0000442c <inst_536>:
    442c:	13882507          	flw	fa0,312(a6)
    4430:	13c82587          	flw	fa1,316(a6)
    4434:	14082607          	flw	fa2,320(a6)
    4438:	00225073          	fsrmi	zero,4
    443c:	60b576cf          	fnmadd.s	fa3,fa0,fa1,fa2
    4440:	001028f3          	frflags	a7
    4444:	0ed7a027          	fsw	fa3,224(a5)
    4448:	0f17a223          	sw	a7,228(a5)

0000444c <inst_537>:
    444c:	14482507          	flw	fa0,324(a6)
    4450:	14882587          	flw	fa1,328(a6)
    4454:	14c82607          	flw	fa2,332(a6)
    4458:	0021d073          	fsrmi	zero,3
    445c:	60b576cf          	fnmadd.s	fa3,fa0,fa1,fa2
    4460:	001028f3          	frflags	a7
    4464:	0ed7a427          	fsw	fa3,232(a5)
    4468:	0f17a623          	sw	a7,236(a5)

0000446c <inst_538>:
    446c:	15082507          	flw	fa0,336(a6)
    4470:	15482587          	flw	fa1,340(a6)
    4474:	15882607          	flw	fa2,344(a6)
    4478:	00215073          	fsrmi	zero,2
    447c:	60b576cf          	fnmadd.s	fa3,fa0,fa1,fa2
    4480:	001028f3          	frflags	a7
    4484:	0ed7a827          	fsw	fa3,240(a5)
    4488:	0f17aa23          	sw	a7,244(a5)

0000448c <inst_539>:
    448c:	15c82507          	flw	fa0,348(a6)
    4490:	16082587          	flw	fa1,352(a6)
    4494:	16482607          	flw	fa2,356(a6)
    4498:	0020d073          	fsrmi	zero,1
    449c:	60b576cf          	fnmadd.s	fa3,fa0,fa1,fa2
    44a0:	001028f3          	frflags	a7
    44a4:	0ed7ac27          	fsw	fa3,248(a5)
    44a8:	0f17ae23          	sw	a7,252(a5)

000044ac <inst_540>:
    44ac:	16882507          	flw	fa0,360(a6)
    44b0:	16c82587          	flw	fa1,364(a6)
    44b4:	17082607          	flw	fa2,368(a6)
    44b8:	00205073          	fsrmi	zero,0
    44bc:	60b576cf          	fnmadd.s	fa3,fa0,fa1,fa2
    44c0:	001028f3          	frflags	a7
    44c4:	10d7a027          	fsw	fa3,256(a5)
    44c8:	1117a223          	sw	a7,260(a5)

000044cc <inst_541>:
    44cc:	17482507          	flw	fa0,372(a6)
    44d0:	17882587          	flw	fa1,376(a6)
    44d4:	17c82607          	flw	fa2,380(a6)
    44d8:	00225073          	fsrmi	zero,4
    44dc:	60b576cf          	fnmadd.s	fa3,fa0,fa1,fa2
    44e0:	001028f3          	frflags	a7
    44e4:	10d7a427          	fsw	fa3,264(a5)
    44e8:	1117a623          	sw	a7,268(a5)

000044ec <inst_542>:
    44ec:	18082507          	flw	fa0,384(a6)
    44f0:	18482587          	flw	fa1,388(a6)
    44f4:	18882607          	flw	fa2,392(a6)
    44f8:	0021d073          	fsrmi	zero,3
    44fc:	60b576cf          	fnmadd.s	fa3,fa0,fa1,fa2
    4500:	001028f3          	frflags	a7
    4504:	10d7a827          	fsw	fa3,272(a5)
    4508:	1117aa23          	sw	a7,276(a5)

0000450c <inst_543>:
    450c:	18c82507          	flw	fa0,396(a6)
    4510:	19082587          	flw	fa1,400(a6)
    4514:	19482607          	flw	fa2,404(a6)
    4518:	00215073          	fsrmi	zero,2
    451c:	60b576cf          	fnmadd.s	fa3,fa0,fa1,fa2
    4520:	001028f3          	frflags	a7
    4524:	10d7ac27          	fsw	fa3,280(a5)
    4528:	1117ae23          	sw	a7,284(a5)

0000452c <inst_544>:
    452c:	19882507          	flw	fa0,408(a6)
    4530:	19c82587          	flw	fa1,412(a6)
    4534:	1a082607          	flw	fa2,416(a6)
    4538:	0020d073          	fsrmi	zero,1
    453c:	60b576cf          	fnmadd.s	fa3,fa0,fa1,fa2
    4540:	001028f3          	frflags	a7
    4544:	12d7a027          	fsw	fa3,288(a5)
    4548:	1317a223          	sw	a7,292(a5)

0000454c <inst_545>:
    454c:	1a482507          	flw	fa0,420(a6)
    4550:	1a882587          	flw	fa1,424(a6)
    4554:	1ac82607          	flw	fa2,428(a6)
    4558:	00205073          	fsrmi	zero,0
    455c:	60b576cf          	fnmadd.s	fa3,fa0,fa1,fa2
    4560:	001028f3          	frflags	a7
    4564:	12d7a427          	fsw	fa3,296(a5)
    4568:	1317a623          	sw	a7,300(a5)

0000456c <inst_546>:
    456c:	1b082507          	flw	fa0,432(a6)
    4570:	1b482587          	flw	fa1,436(a6)
    4574:	1b882607          	flw	fa2,440(a6)
    4578:	00225073          	fsrmi	zero,4
    457c:	60b576cf          	fnmadd.s	fa3,fa0,fa1,fa2
    4580:	001028f3          	frflags	a7
    4584:	12d7a827          	fsw	fa3,304(a5)
    4588:	1317aa23          	sw	a7,308(a5)

0000458c <inst_547>:
    458c:	1bc82507          	flw	fa0,444(a6)
    4590:	1c082587          	flw	fa1,448(a6)
    4594:	1c482607          	flw	fa2,452(a6)
    4598:	0021d073          	fsrmi	zero,3
    459c:	60b576cf          	fnmadd.s	fa3,fa0,fa1,fa2
    45a0:	001028f3          	frflags	a7
    45a4:	12d7ac27          	fsw	fa3,312(a5)
    45a8:	1317ae23          	sw	a7,316(a5)

000045ac <inst_548>:
    45ac:	1c882507          	flw	fa0,456(a6)
    45b0:	1cc82587          	flw	fa1,460(a6)
    45b4:	1d082607          	flw	fa2,464(a6)
    45b8:	00215073          	fsrmi	zero,2
    45bc:	60b576cf          	fnmadd.s	fa3,fa0,fa1,fa2
    45c0:	001028f3          	frflags	a7
    45c4:	14d7a027          	fsw	fa3,320(a5)
    45c8:	1517a223          	sw	a7,324(a5)

000045cc <inst_549>:
    45cc:	1d482507          	flw	fa0,468(a6)
    45d0:	1d882587          	flw	fa1,472(a6)
    45d4:	1dc82607          	flw	fa2,476(a6)
    45d8:	0020d073          	fsrmi	zero,1
    45dc:	60b576cf          	fnmadd.s	fa3,fa0,fa1,fa2
    45e0:	001028f3          	frflags	a7
    45e4:	14d7a427          	fsw	fa3,328(a5)
    45e8:	1517a623          	sw	a7,332(a5)

000045ec <inst_550>:
    45ec:	1e082507          	flw	fa0,480(a6)
    45f0:	1e482587          	flw	fa1,484(a6)
    45f4:	1e882607          	flw	fa2,488(a6)
    45f8:	00205073          	fsrmi	zero,0
    45fc:	60b576cf          	fnmadd.s	fa3,fa0,fa1,fa2
    4600:	001028f3          	frflags	a7
    4604:	14d7a827          	fsw	fa3,336(a5)
    4608:	1517aa23          	sw	a7,340(a5)

0000460c <inst_551>:
    460c:	1ec82507          	flw	fa0,492(a6)
    4610:	1f082587          	flw	fa1,496(a6)
    4614:	1f482607          	flw	fa2,500(a6)
    4618:	00225073          	fsrmi	zero,4
    461c:	60b576cf          	fnmadd.s	fa3,fa0,fa1,fa2
    4620:	001028f3          	frflags	a7
    4624:	14d7ac27          	fsw	fa3,344(a5)
    4628:	1517ae23          	sw	a7,348(a5)

0000462c <inst_552>:
    462c:	1f882507          	flw	fa0,504(a6)
    4630:	1fc82587          	flw	fa1,508(a6)
    4634:	20082607          	flw	fa2,512(a6)
    4638:	0021d073          	fsrmi	zero,3
    463c:	60b576cf          	fnmadd.s	fa3,fa0,fa1,fa2
    4640:	001028f3          	frflags	a7
    4644:	16d7a027          	fsw	fa3,352(a5)
    4648:	1717a223          	sw	a7,356(a5)

0000464c <inst_553>:
    464c:	20482507          	flw	fa0,516(a6)
    4650:	20882587          	flw	fa1,520(a6)
    4654:	20c82607          	flw	fa2,524(a6)
    4658:	00215073          	fsrmi	zero,2
    465c:	60b576cf          	fnmadd.s	fa3,fa0,fa1,fa2
    4660:	001028f3          	frflags	a7
    4664:	16d7a427          	fsw	fa3,360(a5)
    4668:	1717a623          	sw	a7,364(a5)

0000466c <inst_554>:
    466c:	21082507          	flw	fa0,528(a6)
    4670:	21482587          	flw	fa1,532(a6)
    4674:	21882607          	flw	fa2,536(a6)
    4678:	0020d073          	fsrmi	zero,1
    467c:	60b576cf          	fnmadd.s	fa3,fa0,fa1,fa2
    4680:	001028f3          	frflags	a7
    4684:	16d7a827          	fsw	fa3,368(a5)
    4688:	1717aa23          	sw	a7,372(a5)

0000468c <inst_555>:
    468c:	21c82507          	flw	fa0,540(a6)
    4690:	22082587          	flw	fa1,544(a6)
    4694:	22482607          	flw	fa2,548(a6)
    4698:	00205073          	fsrmi	zero,0
    469c:	60b576cf          	fnmadd.s	fa3,fa0,fa1,fa2
    46a0:	001028f3          	frflags	a7
    46a4:	16d7ac27          	fsw	fa3,376(a5)
    46a8:	1717ae23          	sw	a7,380(a5)

000046ac <inst_556>:
    46ac:	22882507          	flw	fa0,552(a6)
    46b0:	22c82587          	flw	fa1,556(a6)
    46b4:	23082607          	flw	fa2,560(a6)
    46b8:	00225073          	fsrmi	zero,4
    46bc:	60b576cf          	fnmadd.s	fa3,fa0,fa1,fa2
    46c0:	001028f3          	frflags	a7
    46c4:	18d7a027          	fsw	fa3,384(a5)
    46c8:	1917a223          	sw	a7,388(a5)

000046cc <inst_557>:
    46cc:	23482507          	flw	fa0,564(a6)
    46d0:	23882587          	flw	fa1,568(a6)
    46d4:	23c82607          	flw	fa2,572(a6)
    46d8:	0021d073          	fsrmi	zero,3
    46dc:	60b576cf          	fnmadd.s	fa3,fa0,fa1,fa2
    46e0:	001028f3          	frflags	a7
    46e4:	18d7a427          	fsw	fa3,392(a5)
    46e8:	1917a623          	sw	a7,396(a5)

000046ec <inst_558>:
    46ec:	24082507          	flw	fa0,576(a6)
    46f0:	24482587          	flw	fa1,580(a6)
    46f4:	24882607          	flw	fa2,584(a6)
    46f8:	00215073          	fsrmi	zero,2
    46fc:	60b576cf          	fnmadd.s	fa3,fa0,fa1,fa2
    4700:	001028f3          	frflags	a7
    4704:	18d7a827          	fsw	fa3,400(a5)
    4708:	1917aa23          	sw	a7,404(a5)

0000470c <inst_559>:
    470c:	24c82507          	flw	fa0,588(a6)
    4710:	25082587          	flw	fa1,592(a6)
    4714:	25482607          	flw	fa2,596(a6)
    4718:	0020d073          	fsrmi	zero,1
    471c:	60b576cf          	fnmadd.s	fa3,fa0,fa1,fa2
    4720:	001028f3          	frflags	a7
    4724:	18d7ac27          	fsw	fa3,408(a5)
    4728:	1917ae23          	sw	a7,412(a5)

0000472c <inst_560>:
    472c:	25882507          	flw	fa0,600(a6)
    4730:	25c82587          	flw	fa1,604(a6)
    4734:	26082607          	flw	fa2,608(a6)
    4738:	00205073          	fsrmi	zero,0
    473c:	60b576cf          	fnmadd.s	fa3,fa0,fa1,fa2
    4740:	001028f3          	frflags	a7
    4744:	1ad7a027          	fsw	fa3,416(a5)
    4748:	1b17a223          	sw	a7,420(a5)

0000474c <inst_561>:
    474c:	26482507          	flw	fa0,612(a6)
    4750:	26882587          	flw	fa1,616(a6)
    4754:	26c82607          	flw	fa2,620(a6)
    4758:	00225073          	fsrmi	zero,4
    475c:	60b576cf          	fnmadd.s	fa3,fa0,fa1,fa2
    4760:	001028f3          	frflags	a7
    4764:	1ad7a427          	fsw	fa3,424(a5)
    4768:	1b17a623          	sw	a7,428(a5)

0000476c <inst_562>:
    476c:	27082507          	flw	fa0,624(a6)
    4770:	27482587          	flw	fa1,628(a6)
    4774:	27882607          	flw	fa2,632(a6)
    4778:	0021d073          	fsrmi	zero,3
    477c:	60b576cf          	fnmadd.s	fa3,fa0,fa1,fa2
    4780:	001028f3          	frflags	a7
    4784:	1ad7a827          	fsw	fa3,432(a5)
    4788:	1b17aa23          	sw	a7,436(a5)

0000478c <inst_563>:
    478c:	27c82507          	flw	fa0,636(a6)
    4790:	28082587          	flw	fa1,640(a6)
    4794:	28482607          	flw	fa2,644(a6)
    4798:	00215073          	fsrmi	zero,2
    479c:	60b576cf          	fnmadd.s	fa3,fa0,fa1,fa2
    47a0:	001028f3          	frflags	a7
    47a4:	1ad7ac27          	fsw	fa3,440(a5)
    47a8:	1b17ae23          	sw	a7,444(a5)

000047ac <inst_564>:
    47ac:	28882507          	flw	fa0,648(a6)
    47b0:	28c82587          	flw	fa1,652(a6)
    47b4:	29082607          	flw	fa2,656(a6)
    47b8:	0020d073          	fsrmi	zero,1
    47bc:	60b576cf          	fnmadd.s	fa3,fa0,fa1,fa2
    47c0:	001028f3          	frflags	a7
    47c4:	1cd7a027          	fsw	fa3,448(a5)
    47c8:	1d17a223          	sw	a7,452(a5)

000047cc <inst_565>:
    47cc:	29482507          	flw	fa0,660(a6)
    47d0:	29882587          	flw	fa1,664(a6)
    47d4:	29c82607          	flw	fa2,668(a6)
    47d8:	00205073          	fsrmi	zero,0
    47dc:	60b576cf          	fnmadd.s	fa3,fa0,fa1,fa2
    47e0:	001028f3          	frflags	a7
    47e4:	1cd7a427          	fsw	fa3,456(a5)
    47e8:	1d17a623          	sw	a7,460(a5)

000047ec <inst_566>:
    47ec:	2a082507          	flw	fa0,672(a6)
    47f0:	2a482587          	flw	fa1,676(a6)
    47f4:	2a882607          	flw	fa2,680(a6)
    47f8:	00225073          	fsrmi	zero,4
    47fc:	60b576cf          	fnmadd.s	fa3,fa0,fa1,fa2
    4800:	001028f3          	frflags	a7
    4804:	1cd7a827          	fsw	fa3,464(a5)
    4808:	1d17aa23          	sw	a7,468(a5)

0000480c <inst_567>:
    480c:	2ac82507          	flw	fa0,684(a6)
    4810:	2b082587          	flw	fa1,688(a6)
    4814:	2b482607          	flw	fa2,692(a6)
    4818:	0021d073          	fsrmi	zero,3
    481c:	60b576cf          	fnmadd.s	fa3,fa0,fa1,fa2
    4820:	001028f3          	frflags	a7
    4824:	1cd7ac27          	fsw	fa3,472(a5)
    4828:	1d17ae23          	sw	a7,476(a5)

0000482c <inst_568>:
    482c:	2b882507          	flw	fa0,696(a6)
    4830:	2bc82587          	flw	fa1,700(a6)
    4834:	2c082607          	flw	fa2,704(a6)
    4838:	00215073          	fsrmi	zero,2
    483c:	60b576cf          	fnmadd.s	fa3,fa0,fa1,fa2
    4840:	001028f3          	frflags	a7
    4844:	1ed7a027          	fsw	fa3,480(a5)
    4848:	1f17a223          	sw	a7,484(a5)

0000484c <inst_569>:
    484c:	2c482507          	flw	fa0,708(a6)
    4850:	2c882587          	flw	fa1,712(a6)
    4854:	2cc82607          	flw	fa2,716(a6)
    4858:	0020d073          	fsrmi	zero,1
    485c:	60b576cf          	fnmadd.s	fa3,fa0,fa1,fa2
    4860:	001028f3          	frflags	a7
    4864:	1ed7a427          	fsw	fa3,488(a5)
    4868:	1f17a623          	sw	a7,492(a5)

0000486c <inst_570>:
    486c:	2d082507          	flw	fa0,720(a6)
    4870:	2d482587          	flw	fa1,724(a6)
    4874:	2d882607          	flw	fa2,728(a6)
    4878:	00205073          	fsrmi	zero,0
    487c:	60b576cf          	fnmadd.s	fa3,fa0,fa1,fa2
    4880:	001028f3          	frflags	a7
    4884:	1ed7a827          	fsw	fa3,496(a5)
    4888:	1f17aa23          	sw	a7,500(a5)

0000488c <inst_571>:
    488c:	2dc82507          	flw	fa0,732(a6)
    4890:	2e082587          	flw	fa1,736(a6)
    4894:	2e482607          	flw	fa2,740(a6)
    4898:	00225073          	fsrmi	zero,4
    489c:	60b576cf          	fnmadd.s	fa3,fa0,fa1,fa2
    48a0:	001028f3          	frflags	a7
    48a4:	1ed7ac27          	fsw	fa3,504(a5)
    48a8:	1f17ae23          	sw	a7,508(a5)

000048ac <inst_572>:
    48ac:	2e882507          	flw	fa0,744(a6)
    48b0:	2ec82587          	flw	fa1,748(a6)
    48b4:	2f082607          	flw	fa2,752(a6)
    48b8:	0021d073          	fsrmi	zero,3
    48bc:	60b576cf          	fnmadd.s	fa3,fa0,fa1,fa2
    48c0:	001028f3          	frflags	a7
    48c4:	20d7a027          	fsw	fa3,512(a5)
    48c8:	2117a223          	sw	a7,516(a5)

000048cc <inst_573>:
    48cc:	2f482507          	flw	fa0,756(a6)
    48d0:	2f882587          	flw	fa1,760(a6)
    48d4:	2fc82607          	flw	fa2,764(a6)
    48d8:	00215073          	fsrmi	zero,2
    48dc:	60b576cf          	fnmadd.s	fa3,fa0,fa1,fa2
    48e0:	001028f3          	frflags	a7
    48e4:	20d7a427          	fsw	fa3,520(a5)
    48e8:	2117a623          	sw	a7,524(a5)

000048ec <inst_574>:
    48ec:	30082507          	flw	fa0,768(a6)
    48f0:	30482587          	flw	fa1,772(a6)
    48f4:	30882607          	flw	fa2,776(a6)
    48f8:	0020d073          	fsrmi	zero,1
    48fc:	60b576cf          	fnmadd.s	fa3,fa0,fa1,fa2
    4900:	001028f3          	frflags	a7
    4904:	20d7a827          	fsw	fa3,528(a5)
    4908:	2117aa23          	sw	a7,532(a5)

0000490c <inst_575>:
    490c:	30c82507          	flw	fa0,780(a6)
    4910:	31082587          	flw	fa1,784(a6)
    4914:	31482607          	flw	fa2,788(a6)
    4918:	00205073          	fsrmi	zero,0
    491c:	60b576cf          	fnmadd.s	fa3,fa0,fa1,fa2
    4920:	001028f3          	frflags	a7
    4924:	20d7ac27          	fsw	fa3,536(a5)
    4928:	2117ae23          	sw	a7,540(a5)

0000492c <inst_576>:
    492c:	31882507          	flw	fa0,792(a6)
    4930:	31c82587          	flw	fa1,796(a6)
    4934:	32082607          	flw	fa2,800(a6)
    4938:	00225073          	fsrmi	zero,4
    493c:	60b576cf          	fnmadd.s	fa3,fa0,fa1,fa2
    4940:	001028f3          	frflags	a7
    4944:	22d7a027          	fsw	fa3,544(a5)
    4948:	2317a223          	sw	a7,548(a5)

0000494c <inst_577>:
    494c:	32482507          	flw	fa0,804(a6)
    4950:	32882587          	flw	fa1,808(a6)
    4954:	32c82607          	flw	fa2,812(a6)
    4958:	0021d073          	fsrmi	zero,3
    495c:	60b576cf          	fnmadd.s	fa3,fa0,fa1,fa2
    4960:	001028f3          	frflags	a7
    4964:	22d7a427          	fsw	fa3,552(a5)
    4968:	2317a623          	sw	a7,556(a5)

0000496c <inst_578>:
    496c:	33082507          	flw	fa0,816(a6)
    4970:	33482587          	flw	fa1,820(a6)
    4974:	33882607          	flw	fa2,824(a6)
    4978:	00215073          	fsrmi	zero,2
    497c:	60b576cf          	fnmadd.s	fa3,fa0,fa1,fa2
    4980:	001028f3          	frflags	a7
    4984:	22d7a827          	fsw	fa3,560(a5)
    4988:	2317aa23          	sw	a7,564(a5)

0000498c <inst_579>:
    498c:	33c82507          	flw	fa0,828(a6)
    4990:	34082587          	flw	fa1,832(a6)
    4994:	34482607          	flw	fa2,836(a6)
    4998:	0020d073          	fsrmi	zero,1
    499c:	60b576cf          	fnmadd.s	fa3,fa0,fa1,fa2
    49a0:	001028f3          	frflags	a7
    49a4:	22d7ac27          	fsw	fa3,568(a5)
    49a8:	2317ae23          	sw	a7,572(a5)

000049ac <inst_580>:
    49ac:	34882507          	flw	fa0,840(a6)
    49b0:	34c82587          	flw	fa1,844(a6)
    49b4:	35082607          	flw	fa2,848(a6)
    49b8:	00205073          	fsrmi	zero,0
    49bc:	60b576cf          	fnmadd.s	fa3,fa0,fa1,fa2
    49c0:	001028f3          	frflags	a7
    49c4:	24d7a027          	fsw	fa3,576(a5)
    49c8:	2517a223          	sw	a7,580(a5)

000049cc <inst_581>:
    49cc:	35482507          	flw	fa0,852(a6)
    49d0:	35882587          	flw	fa1,856(a6)
    49d4:	35c82607          	flw	fa2,860(a6)
    49d8:	00225073          	fsrmi	zero,4
    49dc:	60b576cf          	fnmadd.s	fa3,fa0,fa1,fa2
    49e0:	001028f3          	frflags	a7
    49e4:	24d7a427          	fsw	fa3,584(a5)
    49e8:	2517a623          	sw	a7,588(a5)

000049ec <inst_582>:
    49ec:	36082507          	flw	fa0,864(a6)
    49f0:	36482587          	flw	fa1,868(a6)
    49f4:	36882607          	flw	fa2,872(a6)
    49f8:	0021d073          	fsrmi	zero,3
    49fc:	60b576cf          	fnmadd.s	fa3,fa0,fa1,fa2
    4a00:	001028f3          	frflags	a7
    4a04:	24d7a827          	fsw	fa3,592(a5)
    4a08:	2517aa23          	sw	a7,596(a5)

00004a0c <inst_583>:
    4a0c:	36c82507          	flw	fa0,876(a6)
    4a10:	37082587          	flw	fa1,880(a6)
    4a14:	37482607          	flw	fa2,884(a6)
    4a18:	00215073          	fsrmi	zero,2
    4a1c:	60b576cf          	fnmadd.s	fa3,fa0,fa1,fa2
    4a20:	001028f3          	frflags	a7
    4a24:	24d7ac27          	fsw	fa3,600(a5)
    4a28:	2517ae23          	sw	a7,604(a5)

00004a2c <inst_584>:
    4a2c:	37882507          	flw	fa0,888(a6)
    4a30:	37c82587          	flw	fa1,892(a6)
    4a34:	38082607          	flw	fa2,896(a6)
    4a38:	0020d073          	fsrmi	zero,1
    4a3c:	60b576cf          	fnmadd.s	fa3,fa0,fa1,fa2
    4a40:	001028f3          	frflags	a7
    4a44:	26d7a027          	fsw	fa3,608(a5)
    4a48:	2717a223          	sw	a7,612(a5)

00004a4c <inst_585>:
    4a4c:	38482507          	flw	fa0,900(a6)
    4a50:	38882587          	flw	fa1,904(a6)
    4a54:	38c82607          	flw	fa2,908(a6)
    4a58:	00205073          	fsrmi	zero,0
    4a5c:	60b576cf          	fnmadd.s	fa3,fa0,fa1,fa2
    4a60:	001028f3          	frflags	a7
    4a64:	26d7a427          	fsw	fa3,616(a5)
    4a68:	2717a623          	sw	a7,620(a5)

00004a6c <inst_586>:
    4a6c:	39082507          	flw	fa0,912(a6)
    4a70:	39482587          	flw	fa1,916(a6)
    4a74:	39882607          	flw	fa2,920(a6)
    4a78:	00225073          	fsrmi	zero,4
    4a7c:	60b576cf          	fnmadd.s	fa3,fa0,fa1,fa2
    4a80:	001028f3          	frflags	a7
    4a84:	26d7a827          	fsw	fa3,624(a5)
    4a88:	2717aa23          	sw	a7,628(a5)

00004a8c <inst_587>:
    4a8c:	39c82507          	flw	fa0,924(a6)
    4a90:	3a082587          	flw	fa1,928(a6)
    4a94:	3a482607          	flw	fa2,932(a6)
    4a98:	0021d073          	fsrmi	zero,3
    4a9c:	60b576cf          	fnmadd.s	fa3,fa0,fa1,fa2
    4aa0:	001028f3          	frflags	a7
    4aa4:	26d7ac27          	fsw	fa3,632(a5)
    4aa8:	2717ae23          	sw	a7,636(a5)

00004aac <inst_588>:
    4aac:	3a882507          	flw	fa0,936(a6)
    4ab0:	3ac82587          	flw	fa1,940(a6)
    4ab4:	3b082607          	flw	fa2,944(a6)
    4ab8:	00215073          	fsrmi	zero,2
    4abc:	60b576cf          	fnmadd.s	fa3,fa0,fa1,fa2
    4ac0:	001028f3          	frflags	a7
    4ac4:	28d7a027          	fsw	fa3,640(a5)
    4ac8:	2917a223          	sw	a7,644(a5)

00004acc <inst_589>:
    4acc:	3b482507          	flw	fa0,948(a6)
    4ad0:	3b882587          	flw	fa1,952(a6)
    4ad4:	3bc82607          	flw	fa2,956(a6)
    4ad8:	0020d073          	fsrmi	zero,1
    4adc:	60b576cf          	fnmadd.s	fa3,fa0,fa1,fa2
    4ae0:	001028f3          	frflags	a7
    4ae4:	28d7a427          	fsw	fa3,648(a5)
    4ae8:	2917a623          	sw	a7,652(a5)

00004aec <inst_590>:
    4aec:	3c082507          	flw	fa0,960(a6)
    4af0:	3c482587          	flw	fa1,964(a6)
    4af4:	3c882607          	flw	fa2,968(a6)
    4af8:	00205073          	fsrmi	zero,0
    4afc:	60b576cf          	fnmadd.s	fa3,fa0,fa1,fa2
    4b00:	001028f3          	frflags	a7
    4b04:	28d7a827          	fsw	fa3,656(a5)
    4b08:	2917aa23          	sw	a7,660(a5)

00004b0c <inst_591>:
    4b0c:	3cc82507          	flw	fa0,972(a6)
    4b10:	3d082587          	flw	fa1,976(a6)
    4b14:	3d482607          	flw	fa2,980(a6)
    4b18:	00225073          	fsrmi	zero,4
    4b1c:	60b576cf          	fnmadd.s	fa3,fa0,fa1,fa2
    4b20:	001028f3          	frflags	a7
    4b24:	28d7ac27          	fsw	fa3,664(a5)
    4b28:	2917ae23          	sw	a7,668(a5)

00004b2c <inst_592>:
    4b2c:	3d882507          	flw	fa0,984(a6)
    4b30:	3dc82587          	flw	fa1,988(a6)
    4b34:	3e082607          	flw	fa2,992(a6)
    4b38:	0021d073          	fsrmi	zero,3
    4b3c:	60b576cf          	fnmadd.s	fa3,fa0,fa1,fa2
    4b40:	001028f3          	frflags	a7
    4b44:	2ad7a027          	fsw	fa3,672(a5)
    4b48:	2b17a223          	sw	a7,676(a5)

00004b4c <inst_593>:
    4b4c:	3e482507          	flw	fa0,996(a6)
    4b50:	3e882587          	flw	fa1,1000(a6)
    4b54:	3ec82607          	flw	fa2,1004(a6)
    4b58:	00215073          	fsrmi	zero,2
    4b5c:	60b576cf          	fnmadd.s	fa3,fa0,fa1,fa2
    4b60:	001028f3          	frflags	a7
    4b64:	2ad7a427          	fsw	fa3,680(a5)
    4b68:	2b17a623          	sw	a7,684(a5)

00004b6c <inst_594>:
    4b6c:	3f082507          	flw	fa0,1008(a6)
    4b70:	3f482587          	flw	fa1,1012(a6)
    4b74:	3f882607          	flw	fa2,1016(a6)
    4b78:	0020d073          	fsrmi	zero,1
    4b7c:	60b576cf          	fnmadd.s	fa3,fa0,fa1,fa2
    4b80:	001028f3          	frflags	a7
    4b84:	2ad7a827          	fsw	fa3,688(a5)
    4b88:	2b17aa23          	sw	a7,692(a5)

00004b8c <inst_595>:
    4b8c:	3fc82507          	flw	fa0,1020(a6)
    4b90:	40082587          	flw	fa1,1024(a6)
    4b94:	40482607          	flw	fa2,1028(a6)
    4b98:	00205073          	fsrmi	zero,0
    4b9c:	60b576cf          	fnmadd.s	fa3,fa0,fa1,fa2
    4ba0:	001028f3          	frflags	a7
    4ba4:	2ad7ac27          	fsw	fa3,696(a5)
    4ba8:	2b17ae23          	sw	a7,700(a5)

00004bac <inst_596>:
    4bac:	40882507          	flw	fa0,1032(a6)
    4bb0:	40c82587          	flw	fa1,1036(a6)
    4bb4:	41082607          	flw	fa2,1040(a6)
    4bb8:	00225073          	fsrmi	zero,4
    4bbc:	60b576cf          	fnmadd.s	fa3,fa0,fa1,fa2
    4bc0:	001028f3          	frflags	a7
    4bc4:	2cd7a027          	fsw	fa3,704(a5)
    4bc8:	2d17a223          	sw	a7,708(a5)

00004bcc <inst_597>:
    4bcc:	41482507          	flw	fa0,1044(a6)
    4bd0:	41882587          	flw	fa1,1048(a6)
    4bd4:	41c82607          	flw	fa2,1052(a6)
    4bd8:	0021d073          	fsrmi	zero,3
    4bdc:	60b576cf          	fnmadd.s	fa3,fa0,fa1,fa2
    4be0:	001028f3          	frflags	a7
    4be4:	2cd7a427          	fsw	fa3,712(a5)
    4be8:	2d17a623          	sw	a7,716(a5)

00004bec <inst_598>:
    4bec:	42082507          	flw	fa0,1056(a6)
    4bf0:	42482587          	flw	fa1,1060(a6)
    4bf4:	42882607          	flw	fa2,1064(a6)
    4bf8:	00215073          	fsrmi	zero,2
    4bfc:	60b576cf          	fnmadd.s	fa3,fa0,fa1,fa2
    4c00:	001028f3          	frflags	a7
    4c04:	2cd7a827          	fsw	fa3,720(a5)
    4c08:	2d17aa23          	sw	a7,724(a5)

00004c0c <inst_599>:
    4c0c:	42c82507          	flw	fa0,1068(a6)
    4c10:	43082587          	flw	fa1,1072(a6)
    4c14:	43482607          	flw	fa2,1076(a6)
    4c18:	0020d073          	fsrmi	zero,1
    4c1c:	60b576cf          	fnmadd.s	fa3,fa0,fa1,fa2
    4c20:	001028f3          	frflags	a7
    4c24:	2cd7ac27          	fsw	fa3,728(a5)
    4c28:	2d17ae23          	sw	a7,732(a5)

00004c2c <inst_600>:
    4c2c:	43882507          	flw	fa0,1080(a6)
    4c30:	43c82587          	flw	fa1,1084(a6)
    4c34:	44082607          	flw	fa2,1088(a6)
    4c38:	00205073          	fsrmi	zero,0
    4c3c:	60b576cf          	fnmadd.s	fa3,fa0,fa1,fa2
    4c40:	001028f3          	frflags	a7
    4c44:	2ed7a027          	fsw	fa3,736(a5)
    4c48:	2f17a223          	sw	a7,740(a5)

00004c4c <inst_601>:
    4c4c:	44482507          	flw	fa0,1092(a6)
    4c50:	44882587          	flw	fa1,1096(a6)
    4c54:	44c82607          	flw	fa2,1100(a6)
    4c58:	00225073          	fsrmi	zero,4
    4c5c:	60b576cf          	fnmadd.s	fa3,fa0,fa1,fa2
    4c60:	001028f3          	frflags	a7
    4c64:	2ed7a427          	fsw	fa3,744(a5)
    4c68:	2f17a623          	sw	a7,748(a5)

00004c6c <inst_602>:
    4c6c:	45082507          	flw	fa0,1104(a6)
    4c70:	45482587          	flw	fa1,1108(a6)
    4c74:	45882607          	flw	fa2,1112(a6)
    4c78:	0021d073          	fsrmi	zero,3
    4c7c:	60b576cf          	fnmadd.s	fa3,fa0,fa1,fa2
    4c80:	001028f3          	frflags	a7
    4c84:	2ed7a827          	fsw	fa3,752(a5)
    4c88:	2f17aa23          	sw	a7,756(a5)

00004c8c <inst_603>:
    4c8c:	45c82507          	flw	fa0,1116(a6)
    4c90:	46082587          	flw	fa1,1120(a6)
    4c94:	46482607          	flw	fa2,1124(a6)
    4c98:	00215073          	fsrmi	zero,2
    4c9c:	60b576cf          	fnmadd.s	fa3,fa0,fa1,fa2
    4ca0:	001028f3          	frflags	a7
    4ca4:	2ed7ac27          	fsw	fa3,760(a5)
    4ca8:	2f17ae23          	sw	a7,764(a5)

00004cac <inst_604>:
    4cac:	46882507          	flw	fa0,1128(a6)
    4cb0:	46c82587          	flw	fa1,1132(a6)
    4cb4:	47082607          	flw	fa2,1136(a6)
    4cb8:	0020d073          	fsrmi	zero,1
    4cbc:	60b576cf          	fnmadd.s	fa3,fa0,fa1,fa2
    4cc0:	001028f3          	frflags	a7
    4cc4:	30d7a027          	fsw	fa3,768(a5)
    4cc8:	3117a223          	sw	a7,772(a5)

00004ccc <inst_605>:
    4ccc:	47482507          	flw	fa0,1140(a6)
    4cd0:	47882587          	flw	fa1,1144(a6)
    4cd4:	47c82607          	flw	fa2,1148(a6)
    4cd8:	00205073          	fsrmi	zero,0
    4cdc:	60b576cf          	fnmadd.s	fa3,fa0,fa1,fa2
    4ce0:	001028f3          	frflags	a7
    4ce4:	30d7a427          	fsw	fa3,776(a5)
    4ce8:	3117a623          	sw	a7,780(a5)

00004cec <inst_606>:
    4cec:	48082507          	flw	fa0,1152(a6)
    4cf0:	48482587          	flw	fa1,1156(a6)
    4cf4:	48882607          	flw	fa2,1160(a6)
    4cf8:	00225073          	fsrmi	zero,4
    4cfc:	60b576cf          	fnmadd.s	fa3,fa0,fa1,fa2
    4d00:	001028f3          	frflags	a7
    4d04:	30d7a827          	fsw	fa3,784(a5)
    4d08:	3117aa23          	sw	a7,788(a5)

00004d0c <inst_607>:
    4d0c:	48c82507          	flw	fa0,1164(a6)
    4d10:	49082587          	flw	fa1,1168(a6)
    4d14:	49482607          	flw	fa2,1172(a6)
    4d18:	0021d073          	fsrmi	zero,3
    4d1c:	60b576cf          	fnmadd.s	fa3,fa0,fa1,fa2
    4d20:	001028f3          	frflags	a7
    4d24:	30d7ac27          	fsw	fa3,792(a5)
    4d28:	3117ae23          	sw	a7,796(a5)

00004d2c <inst_608>:
    4d2c:	49882507          	flw	fa0,1176(a6)
    4d30:	49c82587          	flw	fa1,1180(a6)
    4d34:	4a082607          	flw	fa2,1184(a6)
    4d38:	00215073          	fsrmi	zero,2
    4d3c:	60b576cf          	fnmadd.s	fa3,fa0,fa1,fa2
    4d40:	001028f3          	frflags	a7
    4d44:	32d7a027          	fsw	fa3,800(a5)
    4d48:	3317a223          	sw	a7,804(a5)

00004d4c <inst_609>:
    4d4c:	4a482507          	flw	fa0,1188(a6)
    4d50:	4a882587          	flw	fa1,1192(a6)
    4d54:	4ac82607          	flw	fa2,1196(a6)
    4d58:	0020d073          	fsrmi	zero,1
    4d5c:	60b576cf          	fnmadd.s	fa3,fa0,fa1,fa2
    4d60:	001028f3          	frflags	a7
    4d64:	32d7a427          	fsw	fa3,808(a5)
    4d68:	3317a623          	sw	a7,812(a5)

00004d6c <inst_610>:
    4d6c:	4b082507          	flw	fa0,1200(a6)
    4d70:	4b482587          	flw	fa1,1204(a6)
    4d74:	4b882607          	flw	fa2,1208(a6)
    4d78:	00205073          	fsrmi	zero,0
    4d7c:	60b576cf          	fnmadd.s	fa3,fa0,fa1,fa2
    4d80:	001028f3          	frflags	a7
    4d84:	32d7a827          	fsw	fa3,816(a5)
    4d88:	3317aa23          	sw	a7,820(a5)

00004d8c <inst_611>:
    4d8c:	4bc82507          	flw	fa0,1212(a6)
    4d90:	4c082587          	flw	fa1,1216(a6)
    4d94:	4c482607          	flw	fa2,1220(a6)
    4d98:	00225073          	fsrmi	zero,4
    4d9c:	60b576cf          	fnmadd.s	fa3,fa0,fa1,fa2
    4da0:	001028f3          	frflags	a7
    4da4:	32d7ac27          	fsw	fa3,824(a5)
    4da8:	3317ae23          	sw	a7,828(a5)

00004dac <inst_612>:
    4dac:	4c882507          	flw	fa0,1224(a6)
    4db0:	4cc82587          	flw	fa1,1228(a6)
    4db4:	4d082607          	flw	fa2,1232(a6)
    4db8:	0021d073          	fsrmi	zero,3
    4dbc:	60b576cf          	fnmadd.s	fa3,fa0,fa1,fa2
    4dc0:	001028f3          	frflags	a7
    4dc4:	34d7a027          	fsw	fa3,832(a5)
    4dc8:	3517a223          	sw	a7,836(a5)

00004dcc <inst_613>:
    4dcc:	4d482507          	flw	fa0,1236(a6)
    4dd0:	4d882587          	flw	fa1,1240(a6)
    4dd4:	4dc82607          	flw	fa2,1244(a6)
    4dd8:	00215073          	fsrmi	zero,2
    4ddc:	60b576cf          	fnmadd.s	fa3,fa0,fa1,fa2
    4de0:	001028f3          	frflags	a7
    4de4:	34d7a427          	fsw	fa3,840(a5)
    4de8:	3517a623          	sw	a7,844(a5)

00004dec <inst_614>:
    4dec:	4e082507          	flw	fa0,1248(a6)
    4df0:	4e482587          	flw	fa1,1252(a6)
    4df4:	4e882607          	flw	fa2,1256(a6)
    4df8:	0020d073          	fsrmi	zero,1
    4dfc:	60b576cf          	fnmadd.s	fa3,fa0,fa1,fa2
    4e00:	001028f3          	frflags	a7
    4e04:	34d7a827          	fsw	fa3,848(a5)
    4e08:	3517aa23          	sw	a7,852(a5)

00004e0c <inst_615>:
    4e0c:	4ec82507          	flw	fa0,1260(a6)
    4e10:	4f082587          	flw	fa1,1264(a6)
    4e14:	4f482607          	flw	fa2,1268(a6)
    4e18:	00205073          	fsrmi	zero,0
    4e1c:	60b576cf          	fnmadd.s	fa3,fa0,fa1,fa2
    4e20:	001028f3          	frflags	a7
    4e24:	34d7ac27          	fsw	fa3,856(a5)
    4e28:	3517ae23          	sw	a7,860(a5)

00004e2c <inst_616>:
    4e2c:	4f882507          	flw	fa0,1272(a6)
    4e30:	4fc82587          	flw	fa1,1276(a6)
    4e34:	50082607          	flw	fa2,1280(a6)
    4e38:	00225073          	fsrmi	zero,4
    4e3c:	60b576cf          	fnmadd.s	fa3,fa0,fa1,fa2
    4e40:	001028f3          	frflags	a7
    4e44:	36d7a027          	fsw	fa3,864(a5)
    4e48:	3717a223          	sw	a7,868(a5)

00004e4c <inst_617>:
    4e4c:	50482507          	flw	fa0,1284(a6)
    4e50:	50882587          	flw	fa1,1288(a6)
    4e54:	50c82607          	flw	fa2,1292(a6)
    4e58:	0021d073          	fsrmi	zero,3
    4e5c:	60b576cf          	fnmadd.s	fa3,fa0,fa1,fa2
    4e60:	001028f3          	frflags	a7
    4e64:	36d7a427          	fsw	fa3,872(a5)
    4e68:	3717a623          	sw	a7,876(a5)

00004e6c <inst_618>:
    4e6c:	51082507          	flw	fa0,1296(a6)
    4e70:	51482587          	flw	fa1,1300(a6)
    4e74:	51882607          	flw	fa2,1304(a6)
    4e78:	00215073          	fsrmi	zero,2
    4e7c:	60b576cf          	fnmadd.s	fa3,fa0,fa1,fa2
    4e80:	001028f3          	frflags	a7
    4e84:	36d7a827          	fsw	fa3,880(a5)
    4e88:	3717aa23          	sw	a7,884(a5)

00004e8c <inst_619>:
    4e8c:	51c82507          	flw	fa0,1308(a6)
    4e90:	52082587          	flw	fa1,1312(a6)
    4e94:	52482607          	flw	fa2,1316(a6)
    4e98:	0020d073          	fsrmi	zero,1
    4e9c:	60b576cf          	fnmadd.s	fa3,fa0,fa1,fa2
    4ea0:	001028f3          	frflags	a7
    4ea4:	36d7ac27          	fsw	fa3,888(a5)
    4ea8:	3717ae23          	sw	a7,892(a5)

00004eac <inst_620>:
    4eac:	52882507          	flw	fa0,1320(a6)
    4eb0:	52c82587          	flw	fa1,1324(a6)
    4eb4:	53082607          	flw	fa2,1328(a6)
    4eb8:	00205073          	fsrmi	zero,0
    4ebc:	60b576cf          	fnmadd.s	fa3,fa0,fa1,fa2
    4ec0:	001028f3          	frflags	a7
    4ec4:	38d7a027          	fsw	fa3,896(a5)
    4ec8:	3917a223          	sw	a7,900(a5)

00004ecc <inst_621>:
    4ecc:	53482507          	flw	fa0,1332(a6)
    4ed0:	53882587          	flw	fa1,1336(a6)
    4ed4:	53c82607          	flw	fa2,1340(a6)
    4ed8:	00225073          	fsrmi	zero,4
    4edc:	60b576cf          	fnmadd.s	fa3,fa0,fa1,fa2
    4ee0:	001028f3          	frflags	a7
    4ee4:	38d7a427          	fsw	fa3,904(a5)
    4ee8:	3917a623          	sw	a7,908(a5)

00004eec <inst_622>:
    4eec:	54082507          	flw	fa0,1344(a6)
    4ef0:	54482587          	flw	fa1,1348(a6)
    4ef4:	54882607          	flw	fa2,1352(a6)
    4ef8:	0021d073          	fsrmi	zero,3
    4efc:	60b576cf          	fnmadd.s	fa3,fa0,fa1,fa2
    4f00:	001028f3          	frflags	a7
    4f04:	38d7a827          	fsw	fa3,912(a5)
    4f08:	3917aa23          	sw	a7,916(a5)

00004f0c <inst_623>:
    4f0c:	54c82507          	flw	fa0,1356(a6)
    4f10:	55082587          	flw	fa1,1360(a6)
    4f14:	55482607          	flw	fa2,1364(a6)
    4f18:	00215073          	fsrmi	zero,2
    4f1c:	60b576cf          	fnmadd.s	fa3,fa0,fa1,fa2
    4f20:	001028f3          	frflags	a7
    4f24:	38d7ac27          	fsw	fa3,920(a5)
    4f28:	3917ae23          	sw	a7,924(a5)

00004f2c <inst_624>:
    4f2c:	55882507          	flw	fa0,1368(a6)
    4f30:	55c82587          	flw	fa1,1372(a6)
    4f34:	56082607          	flw	fa2,1376(a6)
    4f38:	0020d073          	fsrmi	zero,1
    4f3c:	60b576cf          	fnmadd.s	fa3,fa0,fa1,fa2
    4f40:	001028f3          	frflags	a7
    4f44:	3ad7a027          	fsw	fa3,928(a5)
    4f48:	3b17a223          	sw	a7,932(a5)

00004f4c <inst_625>:
    4f4c:	56482507          	flw	fa0,1380(a6)
    4f50:	56882587          	flw	fa1,1384(a6)
    4f54:	56c82607          	flw	fa2,1388(a6)
    4f58:	00205073          	fsrmi	zero,0
    4f5c:	60b576cf          	fnmadd.s	fa3,fa0,fa1,fa2
    4f60:	001028f3          	frflags	a7
    4f64:	3ad7a427          	fsw	fa3,936(a5)
    4f68:	3b17a623          	sw	a7,940(a5)

00004f6c <inst_626>:
    4f6c:	57082507          	flw	fa0,1392(a6)
    4f70:	57482587          	flw	fa1,1396(a6)
    4f74:	57882607          	flw	fa2,1400(a6)
    4f78:	00225073          	fsrmi	zero,4
    4f7c:	60b576cf          	fnmadd.s	fa3,fa0,fa1,fa2
    4f80:	001028f3          	frflags	a7
    4f84:	3ad7a827          	fsw	fa3,944(a5)
    4f88:	3b17aa23          	sw	a7,948(a5)

00004f8c <inst_627>:
    4f8c:	57c82507          	flw	fa0,1404(a6)
    4f90:	58082587          	flw	fa1,1408(a6)
    4f94:	58482607          	flw	fa2,1412(a6)
    4f98:	0021d073          	fsrmi	zero,3
    4f9c:	60b576cf          	fnmadd.s	fa3,fa0,fa1,fa2
    4fa0:	001028f3          	frflags	a7
    4fa4:	3ad7ac27          	fsw	fa3,952(a5)
    4fa8:	3b17ae23          	sw	a7,956(a5)

00004fac <inst_628>:
    4fac:	58882507          	flw	fa0,1416(a6)
    4fb0:	58c82587          	flw	fa1,1420(a6)
    4fb4:	59082607          	flw	fa2,1424(a6)
    4fb8:	00215073          	fsrmi	zero,2
    4fbc:	60b576cf          	fnmadd.s	fa3,fa0,fa1,fa2
    4fc0:	001028f3          	frflags	a7
    4fc4:	3cd7a027          	fsw	fa3,960(a5)
    4fc8:	3d17a223          	sw	a7,964(a5)

00004fcc <inst_629>:
    4fcc:	59482507          	flw	fa0,1428(a6)
    4fd0:	59882587          	flw	fa1,1432(a6)
    4fd4:	59c82607          	flw	fa2,1436(a6)
    4fd8:	0020d073          	fsrmi	zero,1
    4fdc:	60b576cf          	fnmadd.s	fa3,fa0,fa1,fa2
    4fe0:	001028f3          	frflags	a7
    4fe4:	3cd7a427          	fsw	fa3,968(a5)
    4fe8:	3d17a623          	sw	a7,972(a5)

00004fec <inst_630>:
    4fec:	5a082507          	flw	fa0,1440(a6)
    4ff0:	5a482587          	flw	fa1,1444(a6)
    4ff4:	5a882607          	flw	fa2,1448(a6)
    4ff8:	00205073          	fsrmi	zero,0
    4ffc:	60b576cf          	fnmadd.s	fa3,fa0,fa1,fa2
    5000:	001028f3          	frflags	a7
    5004:	3cd7a827          	fsw	fa3,976(a5)
    5008:	3d17aa23          	sw	a7,980(a5)

0000500c <inst_631>:
    500c:	5ac82507          	flw	fa0,1452(a6)
    5010:	5b082587          	flw	fa1,1456(a6)
    5014:	5b482607          	flw	fa2,1460(a6)
    5018:	00225073          	fsrmi	zero,4
    501c:	60b576cf          	fnmadd.s	fa3,fa0,fa1,fa2
    5020:	001028f3          	frflags	a7
    5024:	3cd7ac27          	fsw	fa3,984(a5)
    5028:	3d17ae23          	sw	a7,988(a5)

0000502c <inst_632>:
    502c:	5b882507          	flw	fa0,1464(a6)
    5030:	5bc82587          	flw	fa1,1468(a6)
    5034:	5c082607          	flw	fa2,1472(a6)
    5038:	0021d073          	fsrmi	zero,3
    503c:	60b576cf          	fnmadd.s	fa3,fa0,fa1,fa2
    5040:	001028f3          	frflags	a7
    5044:	3ed7a027          	fsw	fa3,992(a5)
    5048:	3f17a223          	sw	a7,996(a5)

0000504c <inst_633>:
    504c:	5c482507          	flw	fa0,1476(a6)
    5050:	5c882587          	flw	fa1,1480(a6)
    5054:	5cc82607          	flw	fa2,1484(a6)
    5058:	00215073          	fsrmi	zero,2
    505c:	60b576cf          	fnmadd.s	fa3,fa0,fa1,fa2
    5060:	001028f3          	frflags	a7
    5064:	3ed7a427          	fsw	fa3,1000(a5)
    5068:	3f17a623          	sw	a7,1004(a5)

0000506c <inst_634>:
    506c:	5d082507          	flw	fa0,1488(a6)
    5070:	5d482587          	flw	fa1,1492(a6)
    5074:	5d882607          	flw	fa2,1496(a6)
    5078:	0020d073          	fsrmi	zero,1
    507c:	60b576cf          	fnmadd.s	fa3,fa0,fa1,fa2
    5080:	001028f3          	frflags	a7
    5084:	3ed7a827          	fsw	fa3,1008(a5)
    5088:	3f17aa23          	sw	a7,1012(a5)

0000508c <inst_635>:
    508c:	5dc82507          	flw	fa0,1500(a6)
    5090:	5e082587          	flw	fa1,1504(a6)
    5094:	5e482607          	flw	fa2,1508(a6)
    5098:	00205073          	fsrmi	zero,0
    509c:	60b576cf          	fnmadd.s	fa3,fa0,fa1,fa2
    50a0:	001028f3          	frflags	a7
    50a4:	3ed7ac27          	fsw	fa3,1016(a5)
    50a8:	3f17ae23          	sw	a7,1020(a5)

000050ac <inst_636>:
    50ac:	5e882507          	flw	fa0,1512(a6)
    50b0:	5ec82587          	flw	fa1,1516(a6)
    50b4:	5f082607          	flw	fa2,1520(a6)
    50b8:	00225073          	fsrmi	zero,4
    50bc:	60b576cf          	fnmadd.s	fa3,fa0,fa1,fa2
    50c0:	001028f3          	frflags	a7
    50c4:	40d7a027          	fsw	fa3,1024(a5)
    50c8:	4117a223          	sw	a7,1028(a5)

000050cc <inst_637>:
    50cc:	5f482507          	flw	fa0,1524(a6)
    50d0:	5f882587          	flw	fa1,1528(a6)
    50d4:	5fc82607          	flw	fa2,1532(a6)
    50d8:	0021d073          	fsrmi	zero,3
    50dc:	60b576cf          	fnmadd.s	fa3,fa0,fa1,fa2
    50e0:	001028f3          	frflags	a7
    50e4:	40d7a427          	fsw	fa3,1032(a5)
    50e8:	4117a623          	sw	a7,1036(a5)

000050ec <inst_638>:
    50ec:	60082507          	flw	fa0,1536(a6)
    50f0:	60482587          	flw	fa1,1540(a6)
    50f4:	60882607          	flw	fa2,1544(a6)
    50f8:	00215073          	fsrmi	zero,2
    50fc:	60b576cf          	fnmadd.s	fa3,fa0,fa1,fa2
    5100:	001028f3          	frflags	a7
    5104:	40d7a827          	fsw	fa3,1040(a5)
    5108:	4117aa23          	sw	a7,1044(a5)

0000510c <inst_639>:
    510c:	60c82507          	flw	fa0,1548(a6)
    5110:	61082587          	flw	fa1,1552(a6)
    5114:	61482607          	flw	fa2,1556(a6)
    5118:	0020d073          	fsrmi	zero,1
    511c:	60b576cf          	fnmadd.s	fa3,fa0,fa1,fa2
    5120:	001028f3          	frflags	a7
    5124:	40d7ac27          	fsw	fa3,1048(a5)
    5128:	4117ae23          	sw	a7,1052(a5)

0000512c <inst_640>:
    512c:	61882507          	flw	fa0,1560(a6)
    5130:	61c82587          	flw	fa1,1564(a6)
    5134:	62082607          	flw	fa2,1568(a6)
    5138:	00205073          	fsrmi	zero,0
    513c:	60b576cf          	fnmadd.s	fa3,fa0,fa1,fa2
    5140:	001028f3          	frflags	a7
    5144:	42d7a027          	fsw	fa3,1056(a5)
    5148:	4317a223          	sw	a7,1060(a5)

0000514c <inst_641>:
    514c:	62482507          	flw	fa0,1572(a6)
