
/home/alejandro/Escritorio/test_riscv2.5/riscv-compliance/work/rv32i_m/F/fnmsub_b7-01.elf:     formato del fichero elf32-littleriscv


Desensamblado de la sección .text.init:

00000000 <rvtest_entry_point>:
       0:	feedc0b7          	lui	ra,0xfeedc
       4:	ead08093          	add	ra,ra,-339 # feedbead <_end+0xfeed916d>
       8:	ff76e137          	lui	sp,0xff76e
       c:	f5610113          	add	sp,sp,-170 # ff76df56 <_end+0xff76b216>
      10:	7fbb71b7          	lui	gp,0x7fbb7
      14:	fab18193          	add	gp,gp,-85 # 7fbb6fab <_end+0x7fbb426b>
      18:	bfddb237          	lui	tp,0xbfddb
      1c:	7d520213          	add	tp,tp,2005 # bfddb7d5 <_end+0xbfdd8a95>
      20:	00000297          	auipc	t0,0x0
      24:	0d828293          	add	t0,t0,216 # f8 <rvtest_code_begin>
      28:	00002317          	auipc	t1,0x2
      2c:	fd830313          	add	t1,t1,-40 # 2000 <rvtest_data_begin>
      30:	b7fbb3b7          	lui	t2,0xb7fbb
      34:	6fa38393          	add	t2,t2,1786 # b7fbb6fa <_end+0xb7fb89ba>
      38:	5bfde437          	lui	s0,0x5bfde
      3c:	b7d40413          	add	s0,s0,-1155 # 5bfddb7d <_end+0x5bfdae3d>
      40:	adfef4b7          	lui	s1,0xadfef
      44:	dbe48493          	add	s1,s1,-578 # adfeedbe <_end+0xadfec07e>
      48:	56ff7537          	lui	a0,0x56ff7
      4c:	6df50513          	add	a0,a0,1759 # 56ff76df <_end+0x56ff499f>
      50:	ab7fc5b7          	lui	a1,0xab7fc
      54:	b6f58593          	add	a1,a1,-1169 # ab7fbb6f <_end+0xab7f8e2f>
      58:	d5bfe637          	lui	a2,0xd5bfe
      5c:	db760613          	add	a2,a2,-585 # d5bfddb7 <_end+0xd5bfb077>
      60:	eadff6b7          	lui	a3,0xeadff
      64:	edb68693          	add	a3,a3,-293 # eadfeedb <_end+0xeadfc19b>
      68:	f56ff737          	lui	a4,0xf56ff
      6c:	76d70713          	add	a4,a4,1901 # f56ff76d <_end+0xf56fca2d>
      70:	fab807b7          	lui	a5,0xfab80
      74:	bb678793          	add	a5,a5,-1098 # fab7fbb6 <_end+0xfab7ce76>
      78:	7d5c0837          	lui	a6,0x7d5c0
      7c:	ddb80813          	add	a6,a6,-549 # 7d5bfddb <_end+0x7d5bd09b>
      80:	beae08b7          	lui	a7,0xbeae0
      84:	eed88893          	add	a7,a7,-275 # beadfeed <_end+0xbeadd1ad>
      88:	df570937          	lui	s2,0xdf570
      8c:	f7690913          	add	s2,s2,-138 # df56ff76 <_end+0xdf56d236>
      90:	6fab89b7          	lui	s3,0x6fab8
      94:	fbb98993          	add	s3,s3,-69 # 6fab7fbb <_end+0x6fab527b>
      98:	b7d5ca37          	lui	s4,0xb7d5c
      9c:	fdda0a13          	add	s4,s4,-35 # b7d5bfdd <_end+0xb7d5929d>
      a0:	dbeaeab7          	lui	s5,0xdbeae
      a4:	feea8a93          	add	s5,s5,-18 # dbeadfee <_end+0xdbeab2ae>
      a8:	6df57b37          	lui	s6,0x6df57
      ac:	ff7b0b13          	add	s6,s6,-9 # 6df56ff7 <_end+0x6df542b7>
      b0:	b6fabbb7          	lui	s7,0xb6fab
      b4:	7fbb8b93          	add	s7,s7,2043 # b6fab7fb <_end+0xb6fa8abb>
      b8:	db7d6c37          	lui	s8,0xdb7d6
      bc:	bfdc0c13          	add	s8,s8,-1027 # db7d5bfd <_end+0xdb7d2ebd>
      c0:	edbebcb7          	lui	s9,0xedbeb
      c4:	dfec8c93          	add	s9,s9,-514 # edbeadfe <_end+0xedbe80be>
      c8:	76df5d37          	lui	s10,0x76df5
      cc:	6ffd0d13          	add	s10,s10,1791 # 76df56ff <_end+0x76df29bf>
      d0:	bb6fbdb7          	lui	s11,0xbb6fb
      d4:	b7fd8d93          	add	s11,s11,-1153 # bb6fab7f <_end+0xbb6f7e3f>
      d8:	ddb7de37          	lui	t3,0xddb7d
      dc:	5bfe0e13          	add	t3,t3,1471 # ddb7d5bf <_end+0xddb7a87f>
      e0:	eedbfeb7          	lui	t4,0xeedbf
      e4:	adfe8e93          	add	t4,t4,-1313 # eedbeadf <_end+0xeedbbd9f>
      e8:	f76dff37          	lui	t5,0xf76df
      ec:	56ff0f13          	add	t5,t5,1391 # f76df56f <_end+0xf76dc82f>
      f0:	fbb70fb7          	lui	t6,0xfbb70
      f4:	ab7f8f93          	add	t6,t6,-1353 # fbb6fab7 <_end+0xfbb6cd77>

000000f8 <rvtest_code_begin>:
      f8:	00002537          	lui	a0,0x2
      fc:	30052073          	csrs	mstatus,a0
     100:	00002817          	auipc	a6,0x2
     104:	f0480813          	add	a6,a6,-252 # 2004 <test_fp>
     108:	00002797          	auipc	a5,0x2
     10c:	6e878793          	add	a5,a5,1768 # 27f0 <data_begin>

00000110 <inst_0>:
     110:	00082a07          	flw	fs4,0(a6)
     114:	00482707          	flw	fa4,4(a6)
     118:	00882d07          	flw	fs10,8(a6)
     11c:	0021d073          	fsrmi	zero,3
     120:	d0ea7a4b          	fnmsub.s	fs4,fs4,fa4,fs10
     124:	001028f3          	frflags	a7
     128:	0147a027          	fsw	fs4,0(a5)
     12c:	0117a223          	sw	a7,4(a5)

00000130 <inst_1>:
     130:	00c82787          	flw	fa5,12(a6)
     134:	01082207          	flw	ft4,16(a6)
     138:	01482007          	flw	ft0,20(a6)
     13c:	0021d073          	fsrmi	zero,3
     140:	0047f04b          	fnmsub.s	ft0,fa5,ft4,ft0
     144:	001028f3          	frflags	a7
     148:	0007a427          	fsw	ft0,8(a5)
     14c:	0117a623          	sw	a7,12(a5)

00000150 <inst_2>:
     150:	01882607          	flw	fa2,24(a6)
     154:	01c82007          	flw	ft0,28(a6)
     158:	02082a07          	flw	fs4,32(a6)
     15c:	0021d073          	fsrmi	zero,3
     160:	a00676cb          	fnmsub.s	fa3,fa2,ft0,fs4
     164:	001028f3          	frflags	a7
     168:	00d7a827          	fsw	fa3,16(a5)
     16c:	0117aa23          	sw	a7,20(a5)

00000170 <inst_3>:
     170:	02482d87          	flw	fs11,36(a6)
     174:	02882d87          	flw	fs11,40(a6)
     178:	02c82487          	flw	fs1,44(a6)
     17c:	0021d073          	fsrmi	zero,3
     180:	49bdffcb          	fnmsub.s	ft11,fs11,fs11,fs1
     184:	001028f3          	frflags	a7
     188:	01f7ac27          	fsw	ft11,24(a5)
     18c:	0117ae23          	sw	a7,28(a5)

00000190 <inst_4>:
     190:	03082187          	flw	ft3,48(a6)
     194:	03482187          	flw	ft3,52(a6)
     198:	03882187          	flw	ft3,56(a6)
     19c:	0021d073          	fsrmi	zero,3
     1a0:	1831f1cb          	fnmsub.s	ft3,ft3,ft3,ft3
     1a4:	001028f3          	frflags	a7
     1a8:	0237a027          	fsw	ft3,32(a5)
     1ac:	0317a223          	sw	a7,36(a5)

000001b0 <inst_5>:
     1b0:	03c82387          	flw	ft7,60(a6)
     1b4:	04082587          	flw	fa1,64(a6)
     1b8:	04482587          	flw	fa1,68(a6)
     1bc:	0021d073          	fsrmi	zero,3
     1c0:	58b3f5cb          	fnmsub.s	fa1,ft7,fa1,fa1
     1c4:	001028f3          	frflags	a7
     1c8:	02b7a427          	fsw	fa1,40(a5)
     1cc:	0317a623          	sw	a7,44(a5)

000001d0 <inst_6>:
     1d0:	04882d07          	flw	fs10,72(a6)
     1d4:	04c82d07          	flw	fs10,76(a6)
     1d8:	05082707          	flw	fa4,80(a6)
     1dc:	0021d073          	fsrmi	zero,3
     1e0:	71ad7d4b          	fnmsub.s	fs10,fs10,fs10,fa4
     1e4:	001028f3          	frflags	a7
     1e8:	03a7a827          	fsw	fs10,48(a5)
     1ec:	0317aa23          	sw	a7,52(a5)

000001f0 <inst_7>:
     1f0:	05482807          	flw	fa6,84(a6)
     1f4:	05882507          	flw	fa0,88(a6)
     1f8:	05c82807          	flw	fa6,92(a6)
     1fc:	0021d073          	fsrmi	zero,3
     200:	80a87f4b          	fnmsub.s	ft10,fa6,fa0,fa6
     204:	001028f3          	frflags	a7
     208:	03e7ac27          	fsw	ft10,56(a5)
     20c:	0317ae23          	sw	a7,60(a5)

00000210 <inst_8>:
     210:	06082e07          	flw	ft8,96(a6)
     214:	06482b07          	flw	fs6,100(a6)
     218:	06882b07          	flw	fs6,104(a6)
     21c:	0021d073          	fsrmi	zero,3
     220:	b16e794b          	fnmsub.s	fs2,ft8,fs6,fs6
     224:	001028f3          	frflags	a7
     228:	0527a027          	fsw	fs2,64(a5)
     22c:	0517a223          	sw	a7,68(a5)

00000230 <inst_9>:
     230:	06c82f07          	flw	ft10,108(a6)
     234:	07082f07          	flw	ft10,112(a6)
     238:	07482f07          	flw	ft10,116(a6)
     23c:	0021d073          	fsrmi	zero,3
     240:	f1ef72cb          	fnmsub.s	ft5,ft10,ft10,ft10
     244:	001028f3          	frflags	a7
     248:	0457a427          	fsw	ft5,72(a5)
     24c:	0517a623          	sw	a7,76(a5)

00000250 <inst_10>:
     250:	07882c07          	flw	fs8,120(a6)
     254:	07c82a87          	flw	fs5,124(a6)
     258:	08082c07          	flw	fs8,128(a6)
     25c:	0021d073          	fsrmi	zero,3
     260:	c15c7c4b          	fnmsub.s	fs8,fs8,fs5,fs8
     264:	001028f3          	frflags	a7
     268:	0587a827          	fsw	fs8,80(a5)
     26c:	0517aa23          	sw	a7,84(a5)

00000270 <inst_11>:
     270:	08482287          	flw	ft5,132(a6)
     274:	08882807          	flw	fa6,136(a6)
     278:	08c82b87          	flw	fs7,140(a6)
     27c:	0021d073          	fsrmi	zero,3
     280:	b902f84b          	fnmsub.s	fa6,ft5,fa6,fs7
     284:	001028f3          	frflags	a7
     288:	0507ac27          	fsw	fa6,88(a5)
     28c:	0517ae23          	sw	a7,92(a5)

00000290 <inst_12>:
     290:	09082507          	flw	fa0,144(a6)
     294:	09482087          	flw	ft1,148(a6)
     298:	09882907          	flw	fs2,152(a6)
     29c:	0021d073          	fsrmi	zero,3
     2a0:	9015724b          	fnmsub.s	ft4,fa0,ft1,fs2
     2a4:	001028f3          	frflags	a7
     2a8:	0647a027          	fsw	ft4,96(a5)
     2ac:	0717a223          	sw	a7,100(a5)

000002b0 <inst_13>:
     2b0:	09c82107          	flw	ft2,156(a6)
     2b4:	0a082287          	flw	ft5,160(a6)
     2b8:	0a482407          	flw	fs0,164(a6)
     2bc:	0021d073          	fsrmi	zero,3
     2c0:	40517bcb          	fnmsub.s	fs7,ft2,ft5,fs0
     2c4:	001028f3          	frflags	a7
     2c8:	0777a427          	fsw	fs7,104(a5)
     2cc:	0717a623          	sw	a7,108(a5)

000002d0 <inst_14>:
     2d0:	0a882707          	flw	fa4,168(a6)
     2d4:	0ac82487          	flw	fs1,172(a6)
     2d8:	0b082607          	flw	fa2,176(a6)
     2dc:	0021d073          	fsrmi	zero,3
     2e0:	60977b4b          	fnmsub.s	fs6,fa4,fs1,fa2
     2e4:	001028f3          	frflags	a7
     2e8:	0767a827          	fsw	fs6,112(a5)
     2ec:	0717aa23          	sw	a7,116(a5)

000002f0 <inst_15>:
     2f0:	0b482687          	flw	fa3,180(a6)
     2f4:	0b882b87          	flw	fs7,184(a6)
     2f8:	0bc82287          	flw	ft5,188(a6)
     2fc:	0021d073          	fsrmi	zero,3
     300:	2976f74b          	fnmsub.s	fa4,fa3,fs7,ft5
     304:	001028f3          	frflags	a7
     308:	06e7ac27          	fsw	fa4,120(a5)
     30c:	0717ae23          	sw	a7,124(a5)

00000310 <inst_16>:
     310:	0c082f87          	flw	ft11,192(a6)
     314:	0c482e87          	flw	ft9,196(a6)
     318:	0c882087          	flw	ft1,200(a6)
     31c:	0021d073          	fsrmi	zero,3
     320:	09dff3cb          	fnmsub.s	ft7,ft11,ft9,ft1
     324:	001028f3          	frflags	a7
     328:	0877a027          	fsw	ft7,128(a5)
     32c:	0917a223          	sw	a7,132(a5)

00000330 <inst_17>:
     330:	0cc82987          	flw	fs3,204(a6)
     334:	0d082907          	flw	fs2,208(a6)
     338:	0d482a87          	flw	fs5,212(a6)
     33c:	0021d073          	fsrmi	zero,3
     340:	a929f0cb          	fnmsub.s	ft1,fs3,fs2,fs5
     344:	001028f3          	frflags	a7
     348:	0817a427          	fsw	ft1,136(a5)
     34c:	0917a623          	sw	a7,140(a5)

00000350 <inst_18>:
     350:	0d882407          	flw	fs0,216(a6)
     354:	0dc82787          	flw	fa5,220(a6)
     358:	0e082f87          	flw	ft11,224(a6)
     35c:	0021d073          	fsrmi	zero,3
     360:	f8f47ecb          	fnmsub.s	ft9,fs0,fa5,ft11
     364:	001028f3          	frflags	a7
     368:	09d7a827          	fsw	ft9,144(a5)
     36c:	0917aa23          	sw	a7,148(a5)

00000370 <inst_19>:
     370:	0e482007          	flw	ft0,228(a6)
     374:	0e882e07          	flw	ft8,232(a6)
     378:	0ec82e87          	flw	ft9,236(a6)
     37c:	0021d073          	fsrmi	zero,3
     380:	e9c07acb          	fnmsub.s	fs5,ft0,ft8,ft9
     384:	001028f3          	frflags	a7
     388:	0957ac27          	fsw	fs5,152(a5)
     38c:	0917ae23          	sw	a7,156(a5)

00000390 <inst_20>:
     390:	0f082087          	flw	ft1,240(a6)
     394:	0f482a07          	flw	fs4,244(a6)
     398:	0f882887          	flw	fa7,248(a6)
     39c:	0021d073          	fsrmi	zero,3
     3a0:	8940fccb          	fnmsub.s	fs9,ft1,fs4,fa7
     3a4:	001028f3          	frflags	a7
     3a8:	0b97a027          	fsw	fs9,160(a5)
     3ac:	0b17a223          	sw	a7,164(a5)

000003b0 <inst_21>:
     3b0:	0fc82487          	flw	fs1,252(a6)
     3b4:	10082987          	flw	fs3,256(a6)
     3b8:	10482507          	flw	fa0,260(a6)
     3bc:	0021d073          	fsrmi	zero,3
     3c0:	5134f7cb          	fnmsub.s	fa5,fs1,fs3,fa0
     3c4:	001028f3          	frflags	a7
     3c8:	0af7a427          	fsw	fa5,168(a5)
     3cc:	0b17a623          	sw	a7,172(a5)

000003d0 <inst_22>:
     3d0:	10882207          	flw	ft4,264(a6)
     3d4:	10c82f87          	flw	ft11,268(a6)
     3d8:	11082387          	flw	ft7,272(a6)
     3dc:	0021d073          	fsrmi	zero,3
     3e0:	39f2734b          	fnmsub.s	ft6,ft4,ft11,ft7
     3e4:	001028f3          	frflags	a7
     3e8:	0a67a827          	fsw	ft6,176(a5)
     3ec:	0b17aa23          	sw	a7,180(a5)

000003f0 <inst_23>:
     3f0:	11482887          	flw	fa7,276(a6)
     3f4:	11882307          	flw	ft6,280(a6)
     3f8:	11c82787          	flw	fa5,284(a6)
     3fc:	0021d073          	fsrmi	zero,3
     400:	7868f54b          	fnmsub.s	fa0,fa7,ft6,fa5
     404:	001028f3          	frflags	a7
     408:	0aa7ac27          	fsw	fa0,184(a5)
     40c:	0b17ae23          	sw	a7,188(a5)

00000410 <inst_24>:
     410:	12082b87          	flw	fs7,288(a6)
     414:	12482887          	flw	fa7,292(a6)
     418:	12882687          	flw	fa3,296(a6)
     41c:	0021d073          	fsrmi	zero,3
     420:	691bf64b          	fnmsub.s	fa2,fs7,fa7,fa3
     424:	001028f3          	frflags	a7
     428:	0cc7a027          	fsw	fa2,192(a5)
     42c:	0d17a223          	sw	a7,196(a5)

00000430 <inst_25>:
     430:	12c82a87          	flw	fs5,300(a6)
     434:	13082387          	flw	ft7,304(a6)
     438:	13482107          	flw	ft2,308(a6)
     43c:	0021d073          	fsrmi	zero,3
     440:	107af9cb          	fnmsub.s	fs3,fs5,ft7,ft2
     444:	001028f3          	frflags	a7
     448:	0d37a427          	fsw	fs3,200(a5)
     44c:	0d17a623          	sw	a7,204(a5)

00000450 <inst_26>:
     450:	13882b07          	flw	fs6,312(a6)
     454:	13c82c07          	flw	fs8,316(a6)
     458:	14082207          	flw	ft4,320(a6)
     45c:	0021d073          	fsrmi	zero,3
     460:	218b78cb          	fnmsub.s	fa7,fs6,fs8,ft4
     464:	001028f3          	frflags	a7
     468:	0d17a827          	fsw	fa7,208(a5)
     46c:	0d17aa23          	sw	a7,212(a5)

00000470 <inst_27>:
     470:	14482587          	flw	fa1,324(a6)
     474:	14882c87          	flw	fs9,328(a6)
     478:	14c82e07          	flw	ft8,332(a6)
     47c:	0021d073          	fsrmi	zero,3
     480:	e195f4cb          	fnmsub.s	fs1,fa1,fs9,ft8
     484:	001028f3          	frflags	a7
     488:	0c97ac27          	fsw	fs1,216(a5)
     48c:	0d17ae23          	sw	a7,220(a5)

00000490 <inst_28>:
     490:	15082907          	flw	fs2,336(a6)
     494:	15482607          	flw	fa2,340(a6)
     498:	15882d87          	flw	fs11,344(a6)
     49c:	0021d073          	fsrmi	zero,3
     4a0:	d8c9714b          	fnmsub.s	ft2,fs2,fa2,fs11
     4a4:	001028f3          	frflags	a7
     4a8:	0e27a027          	fsw	ft2,224(a5)
     4ac:	0f17a223          	sw	a7,228(a5)

000004b0 <inst_29>:
     4b0:	15c82e87          	flw	ft9,348(a6)
     4b4:	16082107          	flw	ft2,352(a6)
     4b8:	16482987          	flw	fs3,356(a6)
     4bc:	0021d073          	fsrmi	zero,3
     4c0:	982efe4b          	fnmsub.s	ft8,ft9,ft2,fs3
     4c4:	001028f3          	frflags	a7
     4c8:	0fc7a427          	fsw	ft8,232(a5)
     4cc:	0f17a623          	sw	a7,236(a5)

000004d0 <inst_30>:
     4d0:	16882c87          	flw	fs9,360(a6)
     4d4:	16c82407          	flw	fs0,364(a6)
     4d8:	17082307          	flw	ft6,368(a6)
     4dc:	0021d073          	fsrmi	zero,3
     4e0:	308cfdcb          	fnmsub.s	fs11,fs9,fs0,ft6
     4e4:	001028f3          	frflags	a7
     4e8:	0fb7a827          	fsw	fs11,240(a5)
     4ec:	0f17aa23          	sw	a7,244(a5)

000004f0 <inst_31>:
     4f0:	17482307          	flw	ft6,372(a6)
     4f4:	17882687          	flw	fa3,376(a6)
     4f8:	17c82c87          	flw	fs9,380(a6)
     4fc:	0021d073          	fsrmi	zero,3
     500:	c8d3744b          	fnmsub.s	fs0,ft6,fa3,fs9
     504:	001028f3          	frflags	a7
     508:	0e87ac27          	fsw	fs0,248(a5)
     50c:	0f17ae23          	sw	a7,252(a5)

00000510 <inst_32>:
     510:	18082507          	flw	fa0,384(a6)
     514:	18482587          	flw	fa1,388(a6)
     518:	18882607          	flw	fa2,392(a6)
     51c:	0021d073          	fsrmi	zero,3
     520:	60b576cb          	fnmsub.s	fa3,fa0,fa1,fa2
     524:	001028f3          	frflags	a7
     528:	10d7a027          	fsw	fa3,256(a5)
     52c:	1117a223          	sw	a7,260(a5)

00000530 <inst_33>:
     530:	18c82507          	flw	fa0,396(a6)
     534:	19082587          	flw	fa1,400(a6)
     538:	19482607          	flw	fa2,404(a6)
     53c:	0021d073          	fsrmi	zero,3
     540:	60b576cb          	fnmsub.s	fa3,fa0,fa1,fa2
     544:	001028f3          	frflags	a7
     548:	10d7a427          	fsw	fa3,264(a5)
     54c:	1117a623          	sw	a7,268(a5)

00000550 <inst_34>:
     550:	19882507          	flw	fa0,408(a6)
     554:	19c82587          	flw	fa1,412(a6)
     558:	1a082607          	flw	fa2,416(a6)
     55c:	0021d073          	fsrmi	zero,3
     560:	60b576cb          	fnmsub.s	fa3,fa0,fa1,fa2
     564:	001028f3          	frflags	a7
     568:	10d7a827          	fsw	fa3,272(a5)
     56c:	1117aa23          	sw	a7,276(a5)

00000570 <inst_35>:
     570:	1a482507          	flw	fa0,420(a6)
     574:	1a882587          	flw	fa1,424(a6)
     578:	1ac82607          	flw	fa2,428(a6)
     57c:	0021d073          	fsrmi	zero,3
     580:	60b576cb          	fnmsub.s	fa3,fa0,fa1,fa2
     584:	001028f3          	frflags	a7
     588:	10d7ac27          	fsw	fa3,280(a5)
     58c:	1117ae23          	sw	a7,284(a5)

00000590 <inst_36>:
     590:	1b082507          	flw	fa0,432(a6)
     594:	1b482587          	flw	fa1,436(a6)
     598:	1b882607          	flw	fa2,440(a6)
     59c:	0021d073          	fsrmi	zero,3
     5a0:	60b576cb          	fnmsub.s	fa3,fa0,fa1,fa2
     5a4:	001028f3          	frflags	a7
     5a8:	12d7a027          	fsw	fa3,288(a5)
     5ac:	1317a223          	sw	a7,292(a5)

000005b0 <inst_37>:
     5b0:	1bc82507          	flw	fa0,444(a6)
     5b4:	1c082587          	flw	fa1,448(a6)
     5b8:	1c482607          	flw	fa2,452(a6)
     5bc:	0021d073          	fsrmi	zero,3
     5c0:	60b576cb          	fnmsub.s	fa3,fa0,fa1,fa2
     5c4:	001028f3          	frflags	a7
     5c8:	12d7a427          	fsw	fa3,296(a5)
     5cc:	1317a623          	sw	a7,300(a5)

000005d0 <inst_38>:
     5d0:	1c882507          	flw	fa0,456(a6)
     5d4:	1cc82587          	flw	fa1,460(a6)
     5d8:	1d082607          	flw	fa2,464(a6)
     5dc:	0021d073          	fsrmi	zero,3
     5e0:	60b576cb          	fnmsub.s	fa3,fa0,fa1,fa2
     5e4:	001028f3          	frflags	a7
     5e8:	12d7a827          	fsw	fa3,304(a5)
     5ec:	1317aa23          	sw	a7,308(a5)

000005f0 <inst_39>:
     5f0:	1d482507          	flw	fa0,468(a6)
     5f4:	1d882587          	flw	fa1,472(a6)
     5f8:	1dc82607          	flw	fa2,476(a6)
     5fc:	0021d073          	fsrmi	zero,3
     600:	60b576cb          	fnmsub.s	fa3,fa0,fa1,fa2
     604:	001028f3          	frflags	a7
     608:	12d7ac27          	fsw	fa3,312(a5)
     60c:	1317ae23          	sw	a7,316(a5)

00000610 <inst_40>:
     610:	1e082507          	flw	fa0,480(a6)
     614:	1e482587          	flw	fa1,484(a6)
     618:	1e882607          	flw	fa2,488(a6)
     61c:	0021d073          	fsrmi	zero,3
     620:	60b576cb          	fnmsub.s	fa3,fa0,fa1,fa2
     624:	001028f3          	frflags	a7
     628:	14d7a027          	fsw	fa3,320(a5)
     62c:	1517a223          	sw	a7,324(a5)

00000630 <inst_41>:
     630:	1ec82507          	flw	fa0,492(a6)
     634:	1f082587          	flw	fa1,496(a6)
     638:	1f482607          	flw	fa2,500(a6)
     63c:	0021d073          	fsrmi	zero,3
     640:	60b576cb          	fnmsub.s	fa3,fa0,fa1,fa2
     644:	001028f3          	frflags	a7
     648:	14d7a427          	fsw	fa3,328(a5)
     64c:	1517a623          	sw	a7,332(a5)

00000650 <inst_42>:
     650:	1f882507          	flw	fa0,504(a6)
     654:	1fc82587          	flw	fa1,508(a6)
     658:	20082607          	flw	fa2,512(a6)
     65c:	0021d073          	fsrmi	zero,3
     660:	60b576cb          	fnmsub.s	fa3,fa0,fa1,fa2
     664:	001028f3          	frflags	a7
     668:	14d7a827          	fsw	fa3,336(a5)
     66c:	1517aa23          	sw	a7,340(a5)

00000670 <inst_43>:
     670:	20482507          	flw	fa0,516(a6)
     674:	20882587          	flw	fa1,520(a6)
     678:	20c82607          	flw	fa2,524(a6)
     67c:	0021d073          	fsrmi	zero,3
     680:	60b576cb          	fnmsub.s	fa3,fa0,fa1,fa2
     684:	001028f3          	frflags	a7
     688:	14d7ac27          	fsw	fa3,344(a5)
     68c:	1517ae23          	sw	a7,348(a5)

00000690 <inst_44>:
     690:	21082507          	flw	fa0,528(a6)
     694:	21482587          	flw	fa1,532(a6)
     698:	21882607          	flw	fa2,536(a6)
     69c:	0021d073          	fsrmi	zero,3
     6a0:	60b576cb          	fnmsub.s	fa3,fa0,fa1,fa2
     6a4:	001028f3          	frflags	a7
     6a8:	16d7a027          	fsw	fa3,352(a5)
     6ac:	1717a223          	sw	a7,356(a5)

000006b0 <inst_45>:
     6b0:	21c82507          	flw	fa0,540(a6)
     6b4:	22082587          	flw	fa1,544(a6)
     6b8:	22482607          	flw	fa2,548(a6)
     6bc:	0021d073          	fsrmi	zero,3
     6c0:	60b576cb          	fnmsub.s	fa3,fa0,fa1,fa2
     6c4:	001028f3          	frflags	a7
     6c8:	16d7a427          	fsw	fa3,360(a5)
     6cc:	1717a623          	sw	a7,364(a5)

000006d0 <inst_46>:
     6d0:	22882507          	flw	fa0,552(a6)
     6d4:	22c82587          	flw	fa1,556(a6)
     6d8:	23082607          	flw	fa2,560(a6)
     6dc:	0021d073          	fsrmi	zero,3
     6e0:	60b576cb          	fnmsub.s	fa3,fa0,fa1,fa2
     6e4:	001028f3          	frflags	a7
     6e8:	16d7a827          	fsw	fa3,368(a5)
     6ec:	1717aa23          	sw	a7,372(a5)

000006f0 <inst_47>:
     6f0:	23482507          	flw	fa0,564(a6)
     6f4:	23882587          	flw	fa1,568(a6)
     6f8:	23c82607          	flw	fa2,572(a6)
     6fc:	0021d073          	fsrmi	zero,3
     700:	60b576cb          	fnmsub.s	fa3,fa0,fa1,fa2
     704:	001028f3          	frflags	a7
     708:	16d7ac27          	fsw	fa3,376(a5)
     70c:	1717ae23          	sw	a7,380(a5)

00000710 <inst_48>:
     710:	24082507          	flw	fa0,576(a6)
     714:	24482587          	flw	fa1,580(a6)
     718:	24882607          	flw	fa2,584(a6)
     71c:	0021d073          	fsrmi	zero,3
     720:	60b576cb          	fnmsub.s	fa3,fa0,fa1,fa2
     724:	001028f3          	frflags	a7
     728:	18d7a027          	fsw	fa3,384(a5)
     72c:	1917a223          	sw	a7,388(a5)

00000730 <inst_49>:
     730:	24c82507          	flw	fa0,588(a6)
     734:	25082587          	flw	fa1,592(a6)
     738:	25482607          	flw	fa2,596(a6)
     73c:	0021d073          	fsrmi	zero,3
     740:	60b576cb          	fnmsub.s	fa3,fa0,fa1,fa2
     744:	001028f3          	frflags	a7
     748:	18d7a427          	fsw	fa3,392(a5)
     74c:	1917a623          	sw	a7,396(a5)

00000750 <inst_50>:
     750:	25882507          	flw	fa0,600(a6)
     754:	25c82587          	flw	fa1,604(a6)
     758:	26082607          	flw	fa2,608(a6)
     75c:	0021d073          	fsrmi	zero,3
     760:	60b576cb          	fnmsub.s	fa3,fa0,fa1,fa2
     764:	001028f3          	frflags	a7
     768:	18d7a827          	fsw	fa3,400(a5)
     76c:	1917aa23          	sw	a7,404(a5)

00000770 <inst_51>:
     770:	26482507          	flw	fa0,612(a6)
     774:	26882587          	flw	fa1,616(a6)
     778:	26c82607          	flw	fa2,620(a6)
     77c:	0021d073          	fsrmi	zero,3
     780:	60b576cb          	fnmsub.s	fa3,fa0,fa1,fa2
     784:	001028f3          	frflags	a7
     788:	18d7ac27          	fsw	fa3,408(a5)
     78c:	1917ae23          	sw	a7,412(a5)

00000790 <inst_52>:
     790:	27082507          	flw	fa0,624(a6)
     794:	27482587          	flw	fa1,628(a6)
     798:	27882607          	flw	fa2,632(a6)
     79c:	0021d073          	fsrmi	zero,3
     7a0:	60b576cb          	fnmsub.s	fa3,fa0,fa1,fa2
     7a4:	001028f3          	frflags	a7
     7a8:	1ad7a027          	fsw	fa3,416(a5)
     7ac:	1b17a223          	sw	a7,420(a5)

000007b0 <inst_53>:
     7b0:	27c82507          	flw	fa0,636(a6)
     7b4:	28082587          	flw	fa1,640(a6)
     7b8:	28482607          	flw	fa2,644(a6)
     7bc:	0021d073          	fsrmi	zero,3
     7c0:	60b576cb          	fnmsub.s	fa3,fa0,fa1,fa2
     7c4:	001028f3          	frflags	a7
     7c8:	1ad7a427          	fsw	fa3,424(a5)
     7cc:	1b17a623          	sw	a7,428(a5)

000007d0 <inst_54>:
     7d0:	28882507          	flw	fa0,648(a6)
     7d4:	28c82587          	flw	fa1,652(a6)
     7d8:	29082607          	flw	fa2,656(a6)
     7dc:	0021d073          	fsrmi	zero,3
     7e0:	60b576cb          	fnmsub.s	fa3,fa0,fa1,fa2
     7e4:	001028f3          	frflags	a7
     7e8:	1ad7a827          	fsw	fa3,432(a5)
     7ec:	1b17aa23          	sw	a7,436(a5)

000007f0 <inst_55>:
     7f0:	29482507          	flw	fa0,660(a6)
     7f4:	29882587          	flw	fa1,664(a6)
     7f8:	29c82607          	flw	fa2,668(a6)
     7fc:	0021d073          	fsrmi	zero,3
     800:	60b576cb          	fnmsub.s	fa3,fa0,fa1,fa2
     804:	001028f3          	frflags	a7
     808:	1ad7ac27          	fsw	fa3,440(a5)
     80c:	1b17ae23          	sw	a7,444(a5)

00000810 <inst_56>:
     810:	2a082507          	flw	fa0,672(a6)
     814:	2a482587          	flw	fa1,676(a6)
     818:	2a882607          	flw	fa2,680(a6)
     81c:	0021d073          	fsrmi	zero,3
     820:	60b576cb          	fnmsub.s	fa3,fa0,fa1,fa2
     824:	001028f3          	frflags	a7
     828:	1cd7a027          	fsw	fa3,448(a5)
     82c:	1d17a223          	sw	a7,452(a5)

00000830 <inst_57>:
     830:	2ac82507          	flw	fa0,684(a6)
     834:	2b082587          	flw	fa1,688(a6)
     838:	2b482607          	flw	fa2,692(a6)
     83c:	0021d073          	fsrmi	zero,3
     840:	60b576cb          	fnmsub.s	fa3,fa0,fa1,fa2
     844:	001028f3          	frflags	a7
     848:	1cd7a427          	fsw	fa3,456(a5)
     84c:	1d17a623          	sw	a7,460(a5)

00000850 <inst_58>:
     850:	2b882507          	flw	fa0,696(a6)
     854:	2bc82587          	flw	fa1,700(a6)
     858:	2c082607          	flw	fa2,704(a6)
     85c:	0021d073          	fsrmi	zero,3
     860:	60b576cb          	fnmsub.s	fa3,fa0,fa1,fa2
     864:	001028f3          	frflags	a7
     868:	1cd7a827          	fsw	fa3,464(a5)
     86c:	1d17aa23          	sw	a7,468(a5)

00000870 <inst_59>:
     870:	2c482507          	flw	fa0,708(a6)
     874:	2c882587          	flw	fa1,712(a6)
     878:	2cc82607          	flw	fa2,716(a6)
     87c:	0021d073          	fsrmi	zero,3
     880:	60b576cb          	fnmsub.s	fa3,fa0,fa1,fa2
     884:	001028f3          	frflags	a7
     888:	1cd7ac27          	fsw	fa3,472(a5)
     88c:	1d17ae23          	sw	a7,476(a5)

00000890 <inst_60>:
     890:	2d082507          	flw	fa0,720(a6)
     894:	2d482587          	flw	fa1,724(a6)
     898:	2d882607          	flw	fa2,728(a6)
     89c:	0021d073          	fsrmi	zero,3
     8a0:	60b576cb          	fnmsub.s	fa3,fa0,fa1,fa2
     8a4:	001028f3          	frflags	a7
     8a8:	1ed7a027          	fsw	fa3,480(a5)
     8ac:	1f17a223          	sw	a7,484(a5)

000008b0 <inst_61>:
     8b0:	2dc82507          	flw	fa0,732(a6)
     8b4:	2e082587          	flw	fa1,736(a6)
     8b8:	2e482607          	flw	fa2,740(a6)
     8bc:	0021d073          	fsrmi	zero,3
     8c0:	60b576cb          	fnmsub.s	fa3,fa0,fa1,fa2
     8c4:	001028f3          	frflags	a7
     8c8:	1ed7a427          	fsw	fa3,488(a5)
     8cc:	1f17a623          	sw	a7,492(a5)

000008d0 <inst_62>:
     8d0:	2e882507          	flw	fa0,744(a6)
     8d4:	2ec82587          	flw	fa1,748(a6)
     8d8:	2f082607          	flw	fa2,752(a6)
     8dc:	0021d073          	fsrmi	zero,3
     8e0:	60b576cb          	fnmsub.s	fa3,fa0,fa1,fa2
     8e4:	001028f3          	frflags	a7
     8e8:	1ed7a827          	fsw	fa3,496(a5)
     8ec:	1f17aa23          	sw	a7,500(a5)

000008f0 <inst_63>:
     8f0:	2f482507          	flw	fa0,756(a6)
     8f4:	2f882587          	flw	fa1,760(a6)
     8f8:	2fc82607          	flw	fa2,764(a6)
     8fc:	0021d073          	fsrmi	zero,3
     900:	60b576cb          	fnmsub.s	fa3,fa0,fa1,fa2
     904:	001028f3          	frflags	a7
     908:	1ed7ac27          	fsw	fa3,504(a5)
     90c:	1f17ae23          	sw	a7,508(a5)

00000910 <inst_64>:
     910:	30082507          	flw	fa0,768(a6)
     914:	30482587          	flw	fa1,772(a6)
     918:	30882607          	flw	fa2,776(a6)
     91c:	0021d073          	fsrmi	zero,3
     920:	60b576cb          	fnmsub.s	fa3,fa0,fa1,fa2
     924:	001028f3          	frflags	a7
     928:	20d7a027          	fsw	fa3,512(a5)
     92c:	2117a223          	sw	a7,516(a5)

00000930 <inst_65>:
     930:	30c82507          	flw	fa0,780(a6)
     934:	31082587          	flw	fa1,784(a6)
     938:	31482607          	flw	fa2,788(a6)
     93c:	0021d073          	fsrmi	zero,3
     940:	60b576cb          	fnmsub.s	fa3,fa0,fa1,fa2
     944:	001028f3          	frflags	a7
     948:	20d7a427          	fsw	fa3,520(a5)
     94c:	2117a623          	sw	a7,524(a5)

00000950 <inst_66>:
     950:	31882507          	flw	fa0,792(a6)
     954:	31c82587          	flw	fa1,796(a6)
     958:	32082607          	flw	fa2,800(a6)
     95c:	0021d073          	fsrmi	zero,3
     960:	60b576cb          	fnmsub.s	fa3,fa0,fa1,fa2
     964:	001028f3          	frflags	a7
     968:	20d7a827          	fsw	fa3,528(a5)
     96c:	2117aa23          	sw	a7,532(a5)

00000970 <inst_67>:
     970:	32482507          	flw	fa0,804(a6)
     974:	32882587          	flw	fa1,808(a6)
     978:	32c82607          	flw	fa2,812(a6)
     97c:	0021d073          	fsrmi	zero,3
     980:	60b576cb          	fnmsub.s	fa3,fa0,fa1,fa2
     984:	001028f3          	frflags	a7
     988:	20d7ac27          	fsw	fa3,536(a5)
     98c:	2117ae23          	sw	a7,540(a5)

00000990 <inst_68>:
     990:	33082507          	flw	fa0,816(a6)
     994:	33482587          	flw	fa1,820(a6)
     998:	33882607          	flw	fa2,824(a6)
     99c:	0021d073          	fsrmi	zero,3
     9a0:	60b576cb          	fnmsub.s	fa3,fa0,fa1,fa2
     9a4:	001028f3          	frflags	a7
     9a8:	22d7a027          	fsw	fa3,544(a5)
     9ac:	2317a223          	sw	a7,548(a5)

000009b0 <inst_69>:
     9b0:	33c82507          	flw	fa0,828(a6)
     9b4:	34082587          	flw	fa1,832(a6)
     9b8:	34482607          	flw	fa2,836(a6)
     9bc:	0021d073          	fsrmi	zero,3
     9c0:	60b576cb          	fnmsub.s	fa3,fa0,fa1,fa2
     9c4:	001028f3          	frflags	a7
     9c8:	22d7a427          	fsw	fa3,552(a5)
     9cc:	2317a623          	sw	a7,556(a5)

000009d0 <inst_70>:
     9d0:	34882507          	flw	fa0,840(a6)
     9d4:	34c82587          	flw	fa1,844(a6)
     9d8:	35082607          	flw	fa2,848(a6)
     9dc:	0021d073          	fsrmi	zero,3
     9e0:	60b576cb          	fnmsub.s	fa3,fa0,fa1,fa2
     9e4:	001028f3          	frflags	a7
     9e8:	22d7a827          	fsw	fa3,560(a5)
     9ec:	2317aa23          	sw	a7,564(a5)

000009f0 <inst_71>:
     9f0:	35482507          	flw	fa0,852(a6)
     9f4:	35882587          	flw	fa1,856(a6)
     9f8:	35c82607          	flw	fa2,860(a6)
     9fc:	0021d073          	fsrmi	zero,3
     a00:	60b576cb          	fnmsub.s	fa3,fa0,fa1,fa2
     a04:	001028f3          	frflags	a7
     a08:	22d7ac27          	fsw	fa3,568(a5)
     a0c:	2317ae23          	sw	a7,572(a5)

00000a10 <inst_72>:
     a10:	36082507          	flw	fa0,864(a6)
     a14:	36482587          	flw	fa1,868(a6)
     a18:	36882607          	flw	fa2,872(a6)
     a1c:	0021d073          	fsrmi	zero,3
     a20:	60b576cb          	fnmsub.s	fa3,fa0,fa1,fa2
     a24:	001028f3          	frflags	a7
     a28:	24d7a027          	fsw	fa3,576(a5)
     a2c:	2517a223          	sw	a7,580(a5)

00000a30 <inst_73>:
     a30:	36c82507          	flw	fa0,876(a6)
     a34:	37082587          	flw	fa1,880(a6)
     a38:	37482607          	flw	fa2,884(a6)
     a3c:	0021d073          	fsrmi	zero,3
     a40:	60b576cb          	fnmsub.s	fa3,fa0,fa1,fa2
     a44:	001028f3          	frflags	a7
     a48:	24d7a427          	fsw	fa3,584(a5)
     a4c:	2517a623          	sw	a7,588(a5)

00000a50 <inst_74>:
     a50:	37882507          	flw	fa0,888(a6)
     a54:	37c82587          	flw	fa1,892(a6)
     a58:	38082607          	flw	fa2,896(a6)
     a5c:	0021d073          	fsrmi	zero,3
     a60:	60b576cb          	fnmsub.s	fa3,fa0,fa1,fa2
     a64:	001028f3          	frflags	a7
     a68:	24d7a827          	fsw	fa3,592(a5)
     a6c:	2517aa23          	sw	a7,596(a5)

00000a70 <inst_75>:
     a70:	38482507          	flw	fa0,900(a6)
     a74:	38882587          	flw	fa1,904(a6)
     a78:	38c82607          	flw	fa2,908(a6)
     a7c:	0021d073          	fsrmi	zero,3
     a80:	60b576cb          	fnmsub.s	fa3,fa0,fa1,fa2
     a84:	001028f3          	frflags	a7
     a88:	24d7ac27          	fsw	fa3,600(a5)
     a8c:	2517ae23          	sw	a7,604(a5)

00000a90 <inst_76>:
     a90:	39082507          	flw	fa0,912(a6)
     a94:	39482587          	flw	fa1,916(a6)
     a98:	39882607          	flw	fa2,920(a6)
     a9c:	0021d073          	fsrmi	zero,3
     aa0:	60b576cb          	fnmsub.s	fa3,fa0,fa1,fa2
     aa4:	001028f3          	frflags	a7
     aa8:	26d7a027          	fsw	fa3,608(a5)
     aac:	2717a223          	sw	a7,612(a5)

00000ab0 <inst_77>:
     ab0:	39c82507          	flw	fa0,924(a6)
     ab4:	3a082587          	flw	fa1,928(a6)
     ab8:	3a482607          	flw	fa2,932(a6)
     abc:	0021d073          	fsrmi	zero,3
     ac0:	60b576cb          	fnmsub.s	fa3,fa0,fa1,fa2
     ac4:	001028f3          	frflags	a7
     ac8:	26d7a427          	fsw	fa3,616(a5)
     acc:	2717a623          	sw	a7,620(a5)

00000ad0 <inst_78>:
     ad0:	3a882507          	flw	fa0,936(a6)
     ad4:	3ac82587          	flw	fa1,940(a6)
     ad8:	3b082607          	flw	fa2,944(a6)
     adc:	0021d073          	fsrmi	zero,3
     ae0:	60b576cb          	fnmsub.s	fa3,fa0,fa1,fa2
     ae4:	001028f3          	frflags	a7
     ae8:	26d7a827          	fsw	fa3,624(a5)
     aec:	2717aa23          	sw	a7,628(a5)

00000af0 <inst_79>:
     af0:	3b482507          	flw	fa0,948(a6)
     af4:	3b882587          	flw	fa1,952(a6)
     af8:	3bc82607          	flw	fa2,956(a6)
     afc:	0021d073          	fsrmi	zero,3
     b00:	60b576cb          	fnmsub.s	fa3,fa0,fa1,fa2
     b04:	001028f3          	frflags	a7
     b08:	26d7ac27          	fsw	fa3,632(a5)
     b0c:	2717ae23          	sw	a7,636(a5)

00000b10 <inst_80>:
     b10:	3c082507          	flw	fa0,960(a6)
     b14:	3c482587          	flw	fa1,964(a6)
     b18:	3c882607          	flw	fa2,968(a6)
     b1c:	0021d073          	fsrmi	zero,3
     b20:	60b576cb          	fnmsub.s	fa3,fa0,fa1,fa2
     b24:	001028f3          	frflags	a7
     b28:	28d7a027          	fsw	fa3,640(a5)
     b2c:	2917a223          	sw	a7,644(a5)

00000b30 <inst_81>:
     b30:	3cc82507          	flw	fa0,972(a6)
     b34:	3d082587          	flw	fa1,976(a6)
     b38:	3d482607          	flw	fa2,980(a6)
     b3c:	0021d073          	fsrmi	zero,3
     b40:	60b576cb          	fnmsub.s	fa3,fa0,fa1,fa2
     b44:	001028f3          	frflags	a7
     b48:	28d7a427          	fsw	fa3,648(a5)
     b4c:	2917a623          	sw	a7,652(a5)

00000b50 <inst_82>:
     b50:	3d882507          	flw	fa0,984(a6)
     b54:	3dc82587          	flw	fa1,988(a6)
     b58:	3e082607          	flw	fa2,992(a6)
     b5c:	0021d073          	fsrmi	zero,3
     b60:	60b576cb          	fnmsub.s	fa3,fa0,fa1,fa2
     b64:	001028f3          	frflags	a7
     b68:	28d7a827          	fsw	fa3,656(a5)
     b6c:	2917aa23          	sw	a7,660(a5)

00000b70 <inst_83>:
     b70:	3e482507          	flw	fa0,996(a6)
     b74:	3e882587          	flw	fa1,1000(a6)
     b78:	3ec82607          	flw	fa2,1004(a6)
     b7c:	0021d073          	fsrmi	zero,3
     b80:	60b576cb          	fnmsub.s	fa3,fa0,fa1,fa2
     b84:	001028f3          	frflags	a7
     b88:	28d7ac27          	fsw	fa3,664(a5)
     b8c:	2917ae23          	sw	a7,668(a5)

00000b90 <inst_84>:
     b90:	3f082507          	flw	fa0,1008(a6)
     b94:	3f482587          	flw	fa1,1012(a6)
     b98:	3f882607          	flw	fa2,1016(a6)
     b9c:	0021d073          	fsrmi	zero,3
     ba0:	60b576cb          	fnmsub.s	fa3,fa0,fa1,fa2
     ba4:	001028f3          	frflags	a7
     ba8:	2ad7a027          	fsw	fa3,672(a5)
     bac:	2b17a223          	sw	a7,676(a5)

00000bb0 <inst_85>:
     bb0:	3fc82507          	flw	fa0,1020(a6)
     bb4:	40082587          	flw	fa1,1024(a6)
     bb8:	40482607          	flw	fa2,1028(a6)
     bbc:	0021d073          	fsrmi	zero,3
     bc0:	60b576cb          	fnmsub.s	fa3,fa0,fa1,fa2
     bc4:	001028f3          	frflags	a7
     bc8:	2ad7a427          	fsw	fa3,680(a5)
     bcc:	2b17a623          	sw	a7,684(a5)

00000bd0 <inst_86>:
     bd0:	40882507          	flw	fa0,1032(a6)
     bd4:	40c82587          	flw	fa1,1036(a6)
     bd8:	41082607          	flw	fa2,1040(a6)
     bdc:	0021d073          	fsrmi	zero,3
     be0:	60b576cb          	fnmsub.s	fa3,fa0,fa1,fa2
     be4:	001028f3          	frflags	a7
     be8:	2ad7a827          	fsw	fa3,688(a5)
     bec:	2b17aa23          	sw	a7,692(a5)

00000bf0 <inst_87>:
     bf0:	41482507          	flw	fa0,1044(a6)
     bf4:	41882587          	flw	fa1,1048(a6)
     bf8:	41c82607          	flw	fa2,1052(a6)
     bfc:	0021d073          	fsrmi	zero,3
     c00:	60b576cb          	fnmsub.s	fa3,fa0,fa1,fa2
     c04:	001028f3          	frflags	a7
     c08:	2ad7ac27          	fsw	fa3,696(a5)
     c0c:	2b17ae23          	sw	a7,700(a5)

00000c10 <inst_88>:
     c10:	42082507          	flw	fa0,1056(a6)
     c14:	42482587          	flw	fa1,1060(a6)
     c18:	42882607          	flw	fa2,1064(a6)
     c1c:	0021d073          	fsrmi	zero,3
     c20:	60b576cb          	fnmsub.s	fa3,fa0,fa1,fa2
     c24:	001028f3          	frflags	a7
     c28:	2cd7a027          	fsw	fa3,704(a5)
     c2c:	2d17a223          	sw	a7,708(a5)

00000c30 <inst_89>:
     c30:	42c82507          	flw	fa0,1068(a6)
     c34:	43082587          	flw	fa1,1072(a6)
     c38:	43482607          	flw	fa2,1076(a6)
     c3c:	0021d073          	fsrmi	zero,3
     c40:	60b576cb          	fnmsub.s	fa3,fa0,fa1,fa2
     c44:	001028f3          	frflags	a7
     c48:	2cd7a427          	fsw	fa3,712(a5)
     c4c:	2d17a623          	sw	a7,716(a5)

00000c50 <inst_90>:
     c50:	43882507          	flw	fa0,1080(a6)
     c54:	43c82587          	flw	fa1,1084(a6)
     c58:	44082607          	flw	fa2,1088(a6)
     c5c:	0021d073          	fsrmi	zero,3
     c60:	60b576cb          	fnmsub.s	fa3,fa0,fa1,fa2
     c64:	001028f3          	frflags	a7
     c68:	2cd7a827          	fsw	fa3,720(a5)
     c6c:	2d17aa23          	sw	a7,724(a5)

00000c70 <inst_91>:
     c70:	44482507          	flw	fa0,1092(a6)
     c74:	44882587          	flw	fa1,1096(a6)
     c78:	44c82607          	flw	fa2,1100(a6)
     c7c:	0021d073          	fsrmi	zero,3
     c80:	60b576cb          	fnmsub.s	fa3,fa0,fa1,fa2
     c84:	001028f3          	frflags	a7
     c88:	2cd7ac27          	fsw	fa3,728(a5)
     c8c:	2d17ae23          	sw	a7,732(a5)

00000c90 <inst_92>:
     c90:	45082507          	flw	fa0,1104(a6)
     c94:	45482587          	flw	fa1,1108(a6)
     c98:	45882607          	flw	fa2,1112(a6)
     c9c:	0021d073          	fsrmi	zero,3
     ca0:	60b576cb          	fnmsub.s	fa3,fa0,fa1,fa2
     ca4:	001028f3          	frflags	a7
     ca8:	2ed7a027          	fsw	fa3,736(a5)
     cac:	2f17a223          	sw	a7,740(a5)

00000cb0 <inst_93>:
     cb0:	45c82507          	flw	fa0,1116(a6)
     cb4:	46082587          	flw	fa1,1120(a6)
     cb8:	46482607          	flw	fa2,1124(a6)
     cbc:	0021d073          	fsrmi	zero,3
     cc0:	60b576cb          	fnmsub.s	fa3,fa0,fa1,fa2
     cc4:	001028f3          	frflags	a7
     cc8:	2ed7a427          	fsw	fa3,744(a5)
     ccc:	2f17a623          	sw	a7,748(a5)

00000cd0 <inst_94>:
     cd0:	46882507          	flw	fa0,1128(a6)
     cd4:	46c82587          	flw	fa1,1132(a6)
     cd8:	47082607          	flw	fa2,1136(a6)
     cdc:	0021d073          	fsrmi	zero,3
     ce0:	60b576cb          	fnmsub.s	fa3,fa0,fa1,fa2
     ce4:	001028f3          	frflags	a7
     ce8:	2ed7a827          	fsw	fa3,752(a5)
     cec:	2f17aa23          	sw	a7,756(a5)

00000cf0 <inst_95>:
     cf0:	47482507          	flw	fa0,1140(a6)
     cf4:	47882587          	flw	fa1,1144(a6)
     cf8:	47c82607          	flw	fa2,1148(a6)
     cfc:	0021d073          	fsrmi	zero,3
     d00:	60b576cb          	fnmsub.s	fa3,fa0,fa1,fa2
     d04:	001028f3          	frflags	a7
     d08:	2ed7ac27          	fsw	fa3,760(a5)
     d0c:	2f17ae23          	sw	a7,764(a5)

00000d10 <inst_96>:
     d10:	48082507          	flw	fa0,1152(a6)
     d14:	48482587          	flw	fa1,1156(a6)
     d18:	48882607          	flw	fa2,1160(a6)
     d1c:	0021d073          	fsrmi	zero,3
     d20:	60b576cb          	fnmsub.s	fa3,fa0,fa1,fa2
     d24:	001028f3          	frflags	a7
     d28:	30d7a027          	fsw	fa3,768(a5)
     d2c:	3117a223          	sw	a7,772(a5)

00000d30 <inst_97>:
     d30:	48c82507          	flw	fa0,1164(a6)
     d34:	49082587          	flw	fa1,1168(a6)
     d38:	49482607          	flw	fa2,1172(a6)
     d3c:	0021d073          	fsrmi	zero,3
     d40:	60b576cb          	fnmsub.s	fa3,fa0,fa1,fa2
     d44:	001028f3          	frflags	a7
     d48:	30d7a427          	fsw	fa3,776(a5)
     d4c:	3117a623          	sw	a7,780(a5)

00000d50 <inst_98>:
     d50:	49882507          	flw	fa0,1176(a6)
     d54:	49c82587          	flw	fa1,1180(a6)
     d58:	4a082607          	flw	fa2,1184(a6)
     d5c:	0021d073          	fsrmi	zero,3
     d60:	60b576cb          	fnmsub.s	fa3,fa0,fa1,fa2
     d64:	001028f3          	frflags	a7
     d68:	30d7a827          	fsw	fa3,784(a5)
     d6c:	3117aa23          	sw	a7,788(a5)

00000d70 <inst_99>:
     d70:	4a482507          	flw	fa0,1188(a6)
     d74:	4a882587          	flw	fa1,1192(a6)
     d78:	4ac82607          	flw	fa2,1196(a6)
     d7c:	0021d073          	fsrmi	zero,3
     d80:	60b576cb          	fnmsub.s	fa3,fa0,fa1,fa2
     d84:	001028f3          	frflags	a7
     d88:	30d7ac27          	fsw	fa3,792(a5)
     d8c:	3117ae23          	sw	a7,796(a5)

00000d90 <inst_100>:
     d90:	4b082507          	flw	fa0,1200(a6)
     d94:	4b482587          	flw	fa1,1204(a6)
     d98:	4b882607          	flw	fa2,1208(a6)
     d9c:	0021d073          	fsrmi	zero,3
     da0:	60b576cb          	fnmsub.s	fa3,fa0,fa1,fa2
     da4:	001028f3          	frflags	a7
     da8:	32d7a027          	fsw	fa3,800(a5)
     dac:	3317a223          	sw	a7,804(a5)

00000db0 <inst_101>:
     db0:	4bc82507          	flw	fa0,1212(a6)
     db4:	4c082587          	flw	fa1,1216(a6)
     db8:	4c482607          	flw	fa2,1220(a6)
     dbc:	0021d073          	fsrmi	zero,3
     dc0:	60b576cb          	fnmsub.s	fa3,fa0,fa1,fa2
     dc4:	001028f3          	frflags	a7
     dc8:	32d7a427          	fsw	fa3,808(a5)
     dcc:	3317a623          	sw	a7,812(a5)

00000dd0 <inst_102>:
     dd0:	4c882507          	flw	fa0,1224(a6)
     dd4:	4cc82587          	flw	fa1,1228(a6)
     dd8:	4d082607          	flw	fa2,1232(a6)
     ddc:	0021d073          	fsrmi	zero,3
     de0:	60b576cb          	fnmsub.s	fa3,fa0,fa1,fa2
     de4:	001028f3          	frflags	a7
     de8:	32d7a827          	fsw	fa3,816(a5)
     dec:	3317aa23          	sw	a7,820(a5)

00000df0 <inst_103>:
     df0:	4d482507          	flw	fa0,1236(a6)
     df4:	4d882587          	flw	fa1,1240(a6)
     df8:	4dc82607          	flw	fa2,1244(a6)
     dfc:	0021d073          	fsrmi	zero,3
     e00:	60b576cb          	fnmsub.s	fa3,fa0,fa1,fa2
     e04:	001028f3          	frflags	a7
     e08:	32d7ac27          	fsw	fa3,824(a5)
     e0c:	3317ae23          	sw	a7,828(a5)

00000e10 <inst_104>:
     e10:	4e082507          	flw	fa0,1248(a6)
     e14:	4e482587          	flw	fa1,1252(a6)
     e18:	4e882607          	flw	fa2,1256(a6)
     e1c:	0021d073          	fsrmi	zero,3
     e20:	60b576cb          	fnmsub.s	fa3,fa0,fa1,fa2
     e24:	001028f3          	frflags	a7
     e28:	34d7a027          	fsw	fa3,832(a5)
     e2c:	3517a223          	sw	a7,836(a5)

00000e30 <inst_105>:
     e30:	4ec82507          	flw	fa0,1260(a6)
     e34:	4f082587          	flw	fa1,1264(a6)
     e38:	4f482607          	flw	fa2,1268(a6)
     e3c:	0021d073          	fsrmi	zero,3
     e40:	60b576cb          	fnmsub.s	fa3,fa0,fa1,fa2
     e44:	001028f3          	frflags	a7
     e48:	34d7a427          	fsw	fa3,840(a5)
     e4c:	3517a623          	sw	a7,844(a5)

00000e50 <inst_106>:
     e50:	4f882507          	flw	fa0,1272(a6)
     e54:	4fc82587          	flw	fa1,1276(a6)
     e58:	50082607          	flw	fa2,1280(a6)
     e5c:	0021d073          	fsrmi	zero,3
     e60:	60b576cb          	fnmsub.s	fa3,fa0,fa1,fa2
     e64:	001028f3          	frflags	a7
     e68:	34d7a827          	fsw	fa3,848(a5)
     e6c:	3517aa23          	sw	a7,852(a5)

00000e70 <inst_107>:
     e70:	50482507          	flw	fa0,1284(a6)
     e74:	50882587          	flw	fa1,1288(a6)
     e78:	50c82607          	flw	fa2,1292(a6)
     e7c:	0021d073          	fsrmi	zero,3
     e80:	60b576cb          	fnmsub.s	fa3,fa0,fa1,fa2
     e84:	001028f3          	frflags	a7
     e88:	34d7ac27          	fsw	fa3,856(a5)
     e8c:	3517ae23          	sw	a7,860(a5)

00000e90 <inst_108>:
     e90:	51082507          	flw	fa0,1296(a6)
     e94:	51482587          	flw	fa1,1300(a6)
     e98:	51882607          	flw	fa2,1304(a6)
     e9c:	0021d073          	fsrmi	zero,3
     ea0:	60b576cb          	fnmsub.s	fa3,fa0,fa1,fa2
     ea4:	001028f3          	frflags	a7
     ea8:	36d7a027          	fsw	fa3,864(a5)
     eac:	3717a223          	sw	a7,868(a5)

00000eb0 <inst_109>:
     eb0:	51c82507          	flw	fa0,1308(a6)
     eb4:	52082587          	flw	fa1,1312(a6)
     eb8:	52482607          	flw	fa2,1316(a6)
     ebc:	0021d073          	fsrmi	zero,3
     ec0:	60b576cb          	fnmsub.s	fa3,fa0,fa1,fa2
     ec4:	001028f3          	frflags	a7
     ec8:	36d7a427          	fsw	fa3,872(a5)
     ecc:	3717a623          	sw	a7,876(a5)

00000ed0 <inst_110>:
     ed0:	52882507          	flw	fa0,1320(a6)
     ed4:	52c82587          	flw	fa1,1324(a6)
     ed8:	53082607          	flw	fa2,1328(a6)
     edc:	0021d073          	fsrmi	zero,3
     ee0:	60b576cb          	fnmsub.s	fa3,fa0,fa1,fa2
     ee4:	001028f3          	frflags	a7
     ee8:	36d7a827          	fsw	fa3,880(a5)
     eec:	3717aa23          	sw	a7,884(a5)

00000ef0 <inst_111>:
     ef0:	53482507          	flw	fa0,1332(a6)
     ef4:	53882587          	flw	fa1,1336(a6)
     ef8:	53c82607          	flw	fa2,1340(a6)
     efc:	0021d073          	fsrmi	zero,3
     f00:	60b576cb          	fnmsub.s	fa3,fa0,fa1,fa2
     f04:	001028f3          	frflags	a7
     f08:	36d7ac27          	fsw	fa3,888(a5)
     f0c:	3717ae23          	sw	a7,892(a5)

00000f10 <inst_112>:
     f10:	54082507          	flw	fa0,1344(a6)
     f14:	54482587          	flw	fa1,1348(a6)
     f18:	54882607          	flw	fa2,1352(a6)
     f1c:	0021d073          	fsrmi	zero,3
     f20:	60b576cb          	fnmsub.s	fa3,fa0,fa1,fa2
     f24:	001028f3          	frflags	a7
     f28:	38d7a027          	fsw	fa3,896(a5)
     f2c:	3917a223          	sw	a7,900(a5)

00000f30 <inst_113>:
     f30:	54c82507          	flw	fa0,1356(a6)
     f34:	55082587          	flw	fa1,1360(a6)
     f38:	55482607          	flw	fa2,1364(a6)
     f3c:	0021d073          	fsrmi	zero,3
     f40:	60b576cb          	fnmsub.s	fa3,fa0,fa1,fa2
     f44:	001028f3          	frflags	a7
     f48:	38d7a427          	fsw	fa3,904(a5)
     f4c:	3917a623          	sw	a7,908(a5)

00000f50 <inst_114>:
     f50:	55882507          	flw	fa0,1368(a6)
     f54:	55c82587          	flw	fa1,1372(a6)
     f58:	56082607          	flw	fa2,1376(a6)
     f5c:	0021d073          	fsrmi	zero,3
     f60:	60b576cb          	fnmsub.s	fa3,fa0,fa1,fa2
     f64:	001028f3          	frflags	a7
     f68:	38d7a827          	fsw	fa3,912(a5)
     f6c:	3917aa23          	sw	a7,916(a5)

00000f70 <inst_115>:
     f70:	56482507          	flw	fa0,1380(a6)
     f74:	56882587          	flw	fa1,1384(a6)
     f78:	56c82607          	flw	fa2,1388(a6)
     f7c:	0021d073          	fsrmi	zero,3
     f80:	60b576cb          	fnmsub.s	fa3,fa0,fa1,fa2
     f84:	001028f3          	frflags	a7
     f88:	38d7ac27          	fsw	fa3,920(a5)
     f8c:	3917ae23          	sw	a7,924(a5)

00000f90 <inst_116>:
     f90:	57082507          	flw	fa0,1392(a6)
     f94:	57482587          	flw	fa1,1396(a6)
     f98:	57882607          	flw	fa2,1400(a6)
     f9c:	0021d073          	fsrmi	zero,3
     fa0:	60b576cb          	fnmsub.s	fa3,fa0,fa1,fa2
     fa4:	001028f3          	frflags	a7
     fa8:	3ad7a027          	fsw	fa3,928(a5)
     fac:	3b17a223          	sw	a7,932(a5)

00000fb0 <inst_117>:
     fb0:	57c82507          	flw	fa0,1404(a6)
     fb4:	58082587          	flw	fa1,1408(a6)
     fb8:	58482607          	flw	fa2,1412(a6)
     fbc:	0021d073          	fsrmi	zero,3
     fc0:	60b576cb          	fnmsub.s	fa3,fa0,fa1,fa2
     fc4:	001028f3          	frflags	a7
     fc8:	3ad7a427          	fsw	fa3,936(a5)
     fcc:	3b17a623          	sw	a7,940(a5)

00000fd0 <inst_118>:
     fd0:	58882507          	flw	fa0,1416(a6)
     fd4:	58c82587          	flw	fa1,1420(a6)
     fd8:	59082607          	flw	fa2,1424(a6)
     fdc:	0021d073          	fsrmi	zero,3
     fe0:	60b576cb          	fnmsub.s	fa3,fa0,fa1,fa2
     fe4:	001028f3          	frflags	a7
     fe8:	3ad7a827          	fsw	fa3,944(a5)
     fec:	3b17aa23          	sw	a7,948(a5)

00000ff0 <inst_119>:
     ff0:	59482507          	flw	fa0,1428(a6)
     ff4:	59882587          	flw	fa1,1432(a6)
     ff8:	59c82607          	flw	fa2,1436(a6)
     ffc:	0021d073          	fsrmi	zero,3
    1000:	60b576cb          	fnmsub.s	fa3,fa0,fa1,fa2
    1004:	001028f3          	frflags	a7
    1008:	3ad7ac27          	fsw	fa3,952(a5)
    100c:	3b17ae23          	sw	a7,956(a5)

00001010 <inst_120>:
    1010:	5a082507          	flw	fa0,1440(a6)
    1014:	5a482587          	flw	fa1,1444(a6)
    1018:	5a882607          	flw	fa2,1448(a6)
    101c:	0021d073          	fsrmi	zero,3
    1020:	60b576cb          	fnmsub.s	fa3,fa0,fa1,fa2
    1024:	001028f3          	frflags	a7
    1028:	3cd7a027          	fsw	fa3,960(a5)
    102c:	3d17a223          	sw	a7,964(a5)

00001030 <inst_121>:
    1030:	5ac82507          	flw	fa0,1452(a6)
    1034:	5b082587          	flw	fa1,1456(a6)
    1038:	5b482607          	flw	fa2,1460(a6)
    103c:	0021d073          	fsrmi	zero,3
    1040:	60b576cb          	fnmsub.s	fa3,fa0,fa1,fa2
    1044:	001028f3          	frflags	a7
    1048:	3cd7a427          	fsw	fa3,968(a5)
    104c:	3d17a623          	sw	a7,972(a5)

00001050 <inst_122>:
    1050:	5b882507          	flw	fa0,1464(a6)
    1054:	5bc82587          	flw	fa1,1468(a6)
    1058:	5c082607          	flw	fa2,1472(a6)
    105c:	0021d073          	fsrmi	zero,3
    1060:	60b576cb          	fnmsub.s	fa3,fa0,fa1,fa2
    1064:	001028f3          	frflags	a7
    1068:	3cd7a827          	fsw	fa3,976(a5)
    106c:	3d17aa23          	sw	a7,980(a5)

00001070 <inst_123>:
    1070:	5c482507          	flw	fa0,1476(a6)
    1074:	5c882587          	flw	fa1,1480(a6)
    1078:	5cc82607          	flw	fa2,1484(a6)
    107c:	0021d073          	fsrmi	zero,3
    1080:	60b576cb          	fnmsub.s	fa3,fa0,fa1,fa2
    1084:	001028f3          	frflags	a7
    1088:	3cd7ac27          	fsw	fa3,984(a5)
    108c:	3d17ae23          	sw	a7,988(a5)

00001090 <inst_124>:
    1090:	5d082507          	flw	fa0,1488(a6)
    1094:	5d482587          	flw	fa1,1492(a6)
    1098:	5d882607          	flw	fa2,1496(a6)
    109c:	0021d073          	fsrmi	zero,3
    10a0:	60b576cb          	fnmsub.s	fa3,fa0,fa1,fa2
    10a4:	001028f3          	frflags	a7
    10a8:	3ed7a027          	fsw	fa3,992(a5)
    10ac:	3f17a223          	sw	a7,996(a5)

000010b0 <inst_125>:
    10b0:	5dc82507          	flw	fa0,1500(a6)
    10b4:	5e082587          	flw	fa1,1504(a6)
    10b8:	5e482607          	flw	fa2,1508(a6)
    10bc:	0021d073          	fsrmi	zero,3
    10c0:	60b576cb          	fnmsub.s	fa3,fa0,fa1,fa2
    10c4:	001028f3          	frflags	a7
    10c8:	3ed7a427          	fsw	fa3,1000(a5)
    10cc:	3f17a623          	sw	a7,1004(a5)

000010d0 <inst_126>:
    10d0:	5e882507          	flw	fa0,1512(a6)
    10d4:	5ec82587          	flw	fa1,1516(a6)
    10d8:	5f082607          	flw	fa2,1520(a6)
    10dc:	0021d073          	fsrmi	zero,3
    10e0:	60b576cb          	fnmsub.s	fa3,fa0,fa1,fa2
    10e4:	001028f3          	frflags	a7
    10e8:	3ed7a827          	fsw	fa3,1008(a5)
    10ec:	3f17aa23          	sw	a7,1012(a5)

000010f0 <inst_127>:
    10f0:	5f482507          	flw	fa0,1524(a6)
    10f4:	5f882587          	flw	fa1,1528(a6)
    10f8:	5fc82607          	flw	fa2,1532(a6)
    10fc:	0021d073          	fsrmi	zero,3
    1100:	60b576cb          	fnmsub.s	fa3,fa0,fa1,fa2
    1104:	001028f3          	frflags	a7
    1108:	3ed7ac27          	fsw	fa3,1016(a5)
    110c:	3f17ae23          	sw	a7,1020(a5)

00001110 <inst_128>:
    1110:	60082507          	flw	fa0,1536(a6)
    1114:	60482587          	flw	fa1,1540(a6)
    1118:	60882607          	flw	fa2,1544(a6)
    111c:	0021d073          	fsrmi	zero,3
    1120:	60b576cb          	fnmsub.s	fa3,fa0,fa1,fa2
    1124:	001028f3          	frflags	a7
    1128:	40d7a027          	fsw	fa3,1024(a5)
    112c:	4117a223          	sw	a7,1028(a5)

00001130 <inst_129>:
    1130:	60c82507          	flw	fa0,1548(a6)
    1134:	61082587          	flw	fa1,1552(a6)
    1138:	61482607          	flw	fa2,1556(a6)
    113c:	0021d073          	fsrmi	zero,3
    1140:	60b576cb          	fnmsub.s	fa3,fa0,fa1,fa2
    1144:	001028f3          	frflags	a7
    1148:	40d7a427          	fsw	fa3,1032(a5)
    114c:	4117a623          	sw	a7,1036(a5)

00001150 <inst_130>:
    1150:	61882507          	flw	fa0,1560(a6)
    1154:	61c82587          	flw	fa1,1564(a6)
    1158:	62082607          	flw	fa2,1568(a6)
    115c:	0021d073          	fsrmi	zero,3
    1160:	60b576cb          	fnmsub.s	fa3,fa0,fa1,fa2
    1164:	001028f3          	frflags	a7
    1168:	40d7a827          	fsw	fa3,1040(a5)
    116c:	4117aa23          	sw	a7,1044(a5)

00001170 <inst_131>:
    1170:	62482507          	flw	fa0,1572(a6)
    1174:	62882587          	flw	fa1,1576(a6)
    1178:	62c82607          	flw	fa2,1580(a6)
    117c:	0021d073          	fsrmi	zero,3
    1180:	60b576cb          	fnmsub.s	fa3,fa0,fa1,fa2
    1184:	001028f3          	frflags	a7
    1188:	40d7ac27          	fsw	fa3,1048(a5)
    118c:	4117ae23          	sw	a7,1052(a5)

00001190 <inst_132>:
    1190:	63082507          	flw	fa0,1584(a6)
    1194:	63482587          	flw	fa1,1588(a6)
    1198:	63882607          	flw	fa2,1592(a6)
    119c:	0021d073          	fsrmi	zero,3
    11a0:	60b576cb          	fnmsub.s	fa3,fa0,fa1,fa2
    11a4:	001028f3          	frflags	a7
    11a8:	42d7a027          	fsw	fa3,1056(a5)
    11ac:	4317a223          	sw	a7,1060(a5)

000011b0 <inst_133>:
    11b0:	63c82507          	flw	fa0,1596(a6)
    11b4:	64082587          	flw	fa1,1600(a6)
    11b8:	64482607          	flw	fa2,1604(a6)
    11bc:	0021d073          	fsrmi	zero,3
    11c0:	60b576cb          	fnmsub.s	fa3,fa0,fa1,fa2
    11c4:	001028f3          	frflags	a7
    11c8:	42d7a427          	fsw	fa3,1064(a5)
    11cc:	4317a623          	sw	a7,1068(a5)

000011d0 <inst_134>:
    11d0:	64882507          	flw	fa0,1608(a6)
    11d4:	64c82587          	flw	fa1,1612(a6)
    11d8:	65082607          	flw	fa2,1616(a6)
    11dc:	0021d073          	fsrmi	zero,3
    11e0:	60b576cb          	fnmsub.s	fa3,fa0,fa1,fa2
    11e4:	001028f3          	frflags	a7
    11e8:	42d7a827          	fsw	fa3,1072(a5)
    11ec:	4317aa23          	sw	a7,1076(a5)

000011f0 <inst_135>:
    11f0:	65482507          	flw	fa0,1620(a6)
    11f4:	65882587          	flw	fa1,1624(a6)
    11f8:	65c82607          	flw	fa2,1628(a6)
    11fc:	0021d073          	fsrmi	zero,3
    1200:	60b576cb          	fnmsub.s	fa3,fa0,fa1,fa2
    1204:	001028f3          	frflags	a7
    1208:	42d7ac27          	fsw	fa3,1080(a5)
    120c:	4317ae23          	sw	a7,1084(a5)

00001210 <inst_136>:
    1210:	66082507          	flw	fa0,1632(a6)
    1214:	66482587          	flw	fa1,1636(a6)
    1218:	66882607          	flw	fa2,1640(a6)
    121c:	0021d073          	fsrmi	zero,3
    1220:	60b576cb          	fnmsub.s	fa3,fa0,fa1,fa2
    1224:	001028f3          	frflags	a7
    1228:	44d7a027          	fsw	fa3,1088(a5)
    122c:	4517a223          	sw	a7,1092(a5)

00001230 <inst_137>:
    1230:	66c82507          	flw	fa0,1644(a6)
    1234:	67082587          	flw	fa1,1648(a6)
    1238:	67482607          	flw	fa2,1652(a6)
    123c:	0021d073          	fsrmi	zero,3
    1240:	60b576cb          	fnmsub.s	fa3,fa0,fa1,fa2
    1244:	001028f3          	frflags	a7
    1248:	44d7a427          	fsw	fa3,1096(a5)
    124c:	4517a623          	sw	a7,1100(a5)

00001250 <inst_138>:
    1250:	67882507          	flw	fa0,1656(a6)
    1254:	67c82587          	flw	fa1,1660(a6)
    1258:	68082607          	flw	fa2,1664(a6)
    125c:	0021d073          	fsrmi	zero,3
    1260:	60b576cb          	fnmsub.s	fa3,fa0,fa1,fa2
    1264:	001028f3          	frflags	a7
    1268:	44d7a827          	fsw	fa3,1104(a5)
    126c:	4517aa23          	sw	a7,1108(a5)

00001270 <inst_139>:
    1270:	68482507          	flw	fa0,1668(a6)
    1274:	68882587          	flw	fa1,1672(a6)
    1278:	68c82607          	flw	fa2,1676(a6)
    127c:	0021d073          	fsrmi	zero,3
    1280:	60b576cb          	fnmsub.s	fa3,fa0,fa1,fa2
    1284:	001028f3          	frflags	a7
    1288:	44d7ac27          	fsw	fa3,1112(a5)
    128c:	4517ae23          	sw	a7,1116(a5)

00001290 <inst_140>:
    1290:	69082507          	flw	fa0,1680(a6)
    1294:	69482587          	flw	fa1,1684(a6)
    1298:	69882607          	flw	fa2,1688(a6)
    129c:	0021d073          	fsrmi	zero,3
    12a0:	60b576cb          	fnmsub.s	fa3,fa0,fa1,fa2
    12a4:	001028f3          	frflags	a7
    12a8:	46d7a027          	fsw	fa3,1120(a5)
    12ac:	4717a223          	sw	a7,1124(a5)

000012b0 <inst_141>:
    12b0:	69c82507          	flw	fa0,1692(a6)
    12b4:	6a082587          	flw	fa1,1696(a6)
    12b8:	6a482607          	flw	fa2,1700(a6)
    12bc:	0021d073          	fsrmi	zero,3
    12c0:	60b576cb          	fnmsub.s	fa3,fa0,fa1,fa2
    12c4:	001028f3          	frflags	a7
    12c8:	46d7a427          	fsw	fa3,1128(a5)
    12cc:	4717a623          	sw	a7,1132(a5)

000012d0 <inst_142>:
    12d0:	6a882507          	flw	fa0,1704(a6)
    12d4:	6ac82587          	flw	fa1,1708(a6)
    12d8:	6b082607          	flw	fa2,1712(a6)
    12dc:	0021d073          	fsrmi	zero,3
    12e0:	60b576cb          	fnmsub.s	fa3,fa0,fa1,fa2
    12e4:	001028f3          	frflags	a7
    12e8:	46d7a827          	fsw	fa3,1136(a5)
    12ec:	4717aa23          	sw	a7,1140(a5)

000012f0 <inst_143>:
    12f0:	6b482507          	flw	fa0,1716(a6)
    12f4:	6b882587          	flw	fa1,1720(a6)
    12f8:	6bc82607          	flw	fa2,1724(a6)
    12fc:	0021d073          	fsrmi	zero,3
    1300:	60b576cb          	fnmsub.s	fa3,fa0,fa1,fa2
    1304:	001028f3          	frflags	a7
    1308:	46d7ac27          	fsw	fa3,1144(a5)
    130c:	4717ae23          	sw	a7,1148(a5)

00001310 <inst_144>:
    1310:	6c082507          	flw	fa0,1728(a6)
    1314:	6c482587          	flw	fa1,1732(a6)
    1318:	6c882607          	flw	fa2,1736(a6)
    131c:	0021d073          	fsrmi	zero,3
    1320:	60b576cb          	fnmsub.s	fa3,fa0,fa1,fa2
    1324:	001028f3          	frflags	a7
    1328:	48d7a027          	fsw	fa3,1152(a5)
    132c:	4917a223          	sw	a7,1156(a5)

00001330 <inst_145>:
    1330:	6cc82507          	flw	fa0,1740(a6)
    1334:	6d082587          	flw	fa1,1744(a6)
    1338:	6d482607          	flw	fa2,1748(a6)
    133c:	0021d073          	fsrmi	zero,3
    1340:	60b576cb          	fnmsub.s	fa3,fa0,fa1,fa2
    1344:	001028f3          	frflags	a7
    1348:	48d7a427          	fsw	fa3,1160(a5)
    134c:	4917a623          	sw	a7,1164(a5)

00001350 <inst_146>:
    1350:	6d882507          	flw	fa0,1752(a6)
    1354:	6dc82587          	flw	fa1,1756(a6)
    1358:	6e082607          	flw	fa2,1760(a6)
    135c:	0021d073          	fsrmi	zero,3
    1360:	60b576cb          	fnmsub.s	fa3,fa0,fa1,fa2
    1364:	001028f3          	frflags	a7
    1368:	48d7a827          	fsw	fa3,1168(a5)
    136c:	4917aa23          	sw	a7,1172(a5)

00001370 <inst_147>:
    1370:	6e482507          	flw	fa0,1764(a6)
    1374:	6e882587          	flw	fa1,1768(a6)
    1378:	6ec82607          	flw	fa2,1772(a6)
    137c:	0021d073          	fsrmi	zero,3
    1380:	60b576cb          	fnmsub.s	fa3,fa0,fa1,fa2
    1384:	001028f3          	frflags	a7
    1388:	48d7ac27          	fsw	fa3,1176(a5)
    138c:	4917ae23          	sw	a7,1180(a5)

00001390 <inst_148>:
    1390:	6f082507          	flw	fa0,1776(a6)
    1394:	6f482587          	flw	fa1,1780(a6)
    1398:	6f882607          	flw	fa2,1784(a6)
    139c:	0021d073          	fsrmi	zero,3
    13a0:	60b576cb          	fnmsub.s	fa3,fa0,fa1,fa2
    13a4:	001028f3          	frflags	a7
    13a8:	4ad7a027          	fsw	fa3,1184(a5)
    13ac:	4b17a223          	sw	a7,1188(a5)

000013b0 <inst_149>:
    13b0:	6fc82507          	flw	fa0,1788(a6)
    13b4:	70082587          	flw	fa1,1792(a6)
    13b8:	70482607          	flw	fa2,1796(a6)
    13bc:	0021d073          	fsrmi	zero,3
    13c0:	60b576cb          	fnmsub.s	fa3,fa0,fa1,fa2
    13c4:	001028f3          	frflags	a7
    13c8:	4ad7a427          	fsw	fa3,1192(a5)
    13cc:	4b17a623          	sw	a7,1196(a5)

000013d0 <inst_150>:
    13d0:	70882507          	flw	fa0,1800(a6)
    13d4:	70c82587          	flw	fa1,1804(a6)
    13d8:	71082607          	flw	fa2,1808(a6)
    13dc:	0021d073          	fsrmi	zero,3
    13e0:	60b576cb          	fnmsub.s	fa3,fa0,fa1,fa2
    13e4:	001028f3          	frflags	a7
    13e8:	4ad7a827          	fsw	fa3,1200(a5)
    13ec:	4b17aa23          	sw	a7,1204(a5)

000013f0 <inst_151>:
    13f0:	71482507          	flw	fa0,1812(a6)
    13f4:	71882587          	flw	fa1,1816(a6)
    13f8:	71c82607          	flw	fa2,1820(a6)
    13fc:	0021d073          	fsrmi	zero,3
    1400:	60b576cb          	fnmsub.s	fa3,fa0,fa1,fa2
    1404:	001028f3          	frflags	a7
    1408:	4ad7ac27          	fsw	fa3,1208(a5)
    140c:	4b17ae23          	sw	a7,1212(a5)

00001410 <inst_152>:
    1410:	72082507          	flw	fa0,1824(a6)
    1414:	72482587          	flw	fa1,1828(a6)
    1418:	72882607          	flw	fa2,1832(a6)
    141c:	0021d073          	fsrmi	zero,3
    1420:	60b576cb          	fnmsub.s	fa3,fa0,fa1,fa2
    1424:	001028f3          	frflags	a7
    1428:	4cd7a027          	fsw	fa3,1216(a5)
    142c:	4d17a223          	sw	a7,1220(a5)

00001430 <inst_153>:
    1430:	72c82507          	flw	fa0,1836(a6)
    1434:	73082587          	flw	fa1,1840(a6)
    1438:	73482607          	flw	fa2,1844(a6)
    143c:	0021d073          	fsrmi	zero,3
    1440:	60b576cb          	fnmsub.s	fa3,fa0,fa1,fa2
    1444:	001028f3          	frflags	a7
    1448:	4cd7a427          	fsw	fa3,1224(a5)
    144c:	4d17a623          	sw	a7,1228(a5)

00001450 <inst_154>:
    1450:	73882507          	flw	fa0,1848(a6)
    1454:	73c82587          	flw	fa1,1852(a6)
    1458:	74082607          	flw	fa2,1856(a6)
    145c:	0021d073          	fsrmi	zero,3
    1460:	60b576cb          	fnmsub.s	fa3,fa0,fa1,fa2
    1464:	001028f3          	frflags	a7
    1468:	4cd7a827          	fsw	fa3,1232(a5)
    146c:	4d17aa23          	sw	a7,1236(a5)

00001470 <inst_155>:
    1470:	74482507          	flw	fa0,1860(a6)
    1474:	74882587          	flw	fa1,1864(a6)
    1478:	74c82607          	flw	fa2,1868(a6)
    147c:	0021d073          	fsrmi	zero,3
    1480:	60b576cb          	fnmsub.s	fa3,fa0,fa1,fa2
    1484:	001028f3          	frflags	a7
    1488:	4cd7ac27          	fsw	fa3,1240(a5)
    148c:	4d17ae23          	sw	a7,1244(a5)

00001490 <inst_156>:
    1490:	75082507          	flw	fa0,1872(a6)
    1494:	75482587          	flw	fa1,1876(a6)
    1498:	75882607          	flw	fa2,1880(a6)
    149c:	0021d073          	fsrmi	zero,3
    14a0:	60b576cb          	fnmsub.s	fa3,fa0,fa1,fa2
    14a4:	001028f3          	frflags	a7
    14a8:	4ed7a027          	fsw	fa3,1248(a5)
    14ac:	4f17a223          	sw	a7,1252(a5)

000014b0 <inst_157>:
    14b0:	75c82507          	flw	fa0,1884(a6)
    14b4:	76082587          	flw	fa1,1888(a6)
    14b8:	76482607          	flw	fa2,1892(a6)
    14bc:	0021d073          	fsrmi	zero,3
    14c0:	60b576cb          	fnmsub.s	fa3,fa0,fa1,fa2
    14c4:	001028f3          	frflags	a7
    14c8:	4ed7a427          	fsw	fa3,1256(a5)
    14cc:	4f17a623          	sw	a7,1260(a5)

000014d0 <inst_158>:
    14d0:	76882507          	flw	fa0,1896(a6)
    14d4:	76c82587          	flw	fa1,1900(a6)
    14d8:	77082607          	flw	fa2,1904(a6)
    14dc:	0021d073          	fsrmi	zero,3
    14e0:	60b576cb          	fnmsub.s	fa3,fa0,fa1,fa2
    14e4:	001028f3          	frflags	a7
    14e8:	4ed7a827          	fsw	fa3,1264(a5)
    14ec:	4f17aa23          	sw	a7,1268(a5)

000014f0 <inst_159>:
    14f0:	77482507          	flw	fa0,1908(a6)
    14f4:	77882587          	flw	fa1,1912(a6)
    14f8:	77c82607          	flw	fa2,1916(a6)
    14fc:	0021d073          	fsrmi	zero,3
    1500:	60b576cb          	fnmsub.s	fa3,fa0,fa1,fa2
    1504:	001028f3          	frflags	a7
    1508:	4ed7ac27          	fsw	fa3,1272(a5)
    150c:	4f17ae23          	sw	a7,1276(a5)

00001510 <inst_160>:
    1510:	78082507          	flw	fa0,1920(a6)
    1514:	78482587          	flw	fa1,1924(a6)
    1518:	78882607          	flw	fa2,1928(a6)
    151c:	0021d073          	fsrmi	zero,3
    1520:	60b576cb          	fnmsub.s	fa3,fa0,fa1,fa2
    1524:	001028f3          	frflags	a7
    1528:	50d7a027          	fsw	fa3,1280(a5)
    152c:	5117a223          	sw	a7,1284(a5)

00001530 <inst_161>:
    1530:	78c82507          	flw	fa0,1932(a6)
    1534:	79082587          	flw	fa1,1936(a6)
    1538:	79482607          	flw	fa2,1940(a6)
    153c:	0021d073          	fsrmi	zero,3
    1540:	60b576cb          	fnmsub.s	fa3,fa0,fa1,fa2
    1544:	001028f3          	frflags	a7
    1548:	50d7a427          	fsw	fa3,1288(a5)
    154c:	5117a623          	sw	a7,1292(a5)

00001550 <inst_162>:
    1550:	79882507          	flw	fa0,1944(a6)
    1554:	79c82587          	flw	fa1,1948(a6)
    1558:	7a082607          	flw	fa2,1952(a6)
    155c:	0021d073          	fsrmi	zero,3
    1560:	60b576cb          	fnmsub.s	fa3,fa0,fa1,fa2
    1564:	001028f3          	frflags	a7
    1568:	50d7a827          	fsw	fa3,1296(a5)
    156c:	5117aa23          	sw	a7,1300(a5)

00001570 <inst_163>:
    1570:	7a482507          	flw	fa0,1956(a6)
    1574:	7a882587          	flw	fa1,1960(a6)
    1578:	7ac82607          	flw	fa2,1964(a6)
    157c:	0021d073          	fsrmi	zero,3
    1580:	60b576cb          	fnmsub.s	fa3,fa0,fa1,fa2
    1584:	001028f3          	frflags	a7
    1588:	50d7ac27          	fsw	fa3,1304(a5)
    158c:	5117ae23          	sw	a7,1308(a5)

00001590 <inst_164>:
    1590:	7b082507          	flw	fa0,1968(a6)
    1594:	7b482587          	flw	fa1,1972(a6)
    1598:	7b882607          	flw	fa2,1976(a6)
    159c:	0021d073          	fsrmi	zero,3
    15a0:	60b576cb          	fnmsub.s	fa3,fa0,fa1,fa2
    15a4:	001028f3          	frflags	a7
    15a8:	52d7a027          	fsw	fa3,1312(a5)
    15ac:	5317a223          	sw	a7,1316(a5)

000015b0 <inst_165>:
    15b0:	7bc82507          	flw	fa0,1980(a6)
    15b4:	7c082587          	flw	fa1,1984(a6)
    15b8:	7c482607          	flw	fa2,1988(a6)
    15bc:	0021d073          	fsrmi	zero,3
    15c0:	60b576cb          	fnmsub.s	fa3,fa0,fa1,fa2
    15c4:	001028f3          	frflags	a7
    15c8:	52d7a427          	fsw	fa3,1320(a5)
    15cc:	5317a623          	sw	a7,1324(a5)

000015d0 <inst_166>:
    15d0:	7c882507          	flw	fa0,1992(a6)
    15d4:	7cc82587          	flw	fa1,1996(a6)
    15d8:	7d082607          	flw	fa2,2000(a6)
    15dc:	0021d073          	fsrmi	zero,3
    15e0:	60b576cb          	fnmsub.s	fa3,fa0,fa1,fa2
    15e4:	001028f3          	frflags	a7
    15e8:	52d7a827          	fsw	fa3,1328(a5)
    15ec:	5317aa23          	sw	a7,1332(a5)

000015f0 <inst_167>:
    15f0:	7d482507          	flw	fa0,2004(a6)
    15f4:	7d882587          	flw	fa1,2008(a6)
    15f8:	7dc82607          	flw	fa2,2012(a6)
    15fc:	0021d073          	fsrmi	zero,3
    1600:	60b576cb          	fnmsub.s	fa3,fa0,fa1,fa2
    1604:	001028f3          	frflags	a7
    1608:	52d7ac27          	fsw	fa3,1336(a5)
    160c:	5317ae23          	sw	a7,1340(a5)

00001610 <inst_168>:
    1610:	7e082507          	flw	fa0,2016(a6)
    1614:	7e482587          	flw	fa1,2020(a6)
    1618:	7e882607          	flw	fa2,2024(a6)
    161c:	0021d073          	fsrmi	zero,3
    1620:	60b576cb          	fnmsub.s	fa3,fa0,fa1,fa2
    1624:	001028f3          	frflags	a7
    1628:	54d7a027          	fsw	fa3,1344(a5)
    162c:	5517a223          	sw	a7,1348(a5)

00001630 <rvtest_code_end>:
    1630:	00001517          	auipc	a0,0x1
    1634:	1c050513          	add	a0,a0,448 # 27f0 <data_begin>
    1638:	00001597          	auipc	a1,0x1
    163c:	70858593          	add	a1,a1,1800 # 2d40 <_end>
    1640:	80001637          	lui	a2,0x80001
    1644:	00860613          	add	a2,a2,8 # 80001008 <_end+0x7fffe2c8>

00001648 <compliance_halt_loop>:
    1648:	06b50063          	beq	a0,a1,16a8 <compliance_halt_break>
    164c:	00450693          	add	a3,a0,4

00001650 <compliance_halt_loop2>:
    1650:	fff68693          	add	a3,a3,-1
    1654:	00068703          	lb	a4,0(a3)
    1658:	40475793          	sra	a5,a4,0x4
    165c:	00f7f793          	and	a5,a5,15
    1660:	00a00813          	li	a6,10
    1664:	0107c463          	blt	a5,a6,166c <notLetter>
    1668:	02778793          	add	a5,a5,39

0000166c <notLetter>:
    166c:	03078793          	add	a5,a5,48
    1670:	00f60023          	sb	a5,0(a2)
    1674:	40075793          	sra	a5,a4,0x0
    1678:	00f7f793          	and	a5,a5,15
    167c:	00a00813          	li	a6,10
    1680:	0107c463          	blt	a5,a6,1688 <notLetter2>
    1684:	02778793          	add	a5,a5,39

00001688 <notLetter2>:
    1688:	03078793          	add	a5,a5,48
    168c:	00f60023          	sb	a5,0(a2)
    1690:	fcd510e3          	bne	a0,a3,1650 <compliance_halt_loop2>
    1694:	00450513          	add	a0,a0,4
    1698:	00a00713          	li	a4,10
    169c:	00e60023          	sb	a4,0(a2)
    16a0:	fa9ff06f          	j	1648 <compliance_halt_loop>
    16a4:	0040006f          	j	16a8 <compliance_halt_break>

000016a8 <compliance_halt_break>:
    16a8:	80001537          	lui	a0,0x80001
    16ac:	00950513          	add	a0,a0,9 # 80001009 <_end+0x7fffe2c9>
    16b0:	00d50023          	sb	a3,0(a0)
    16b4:	0000                	.2byte	0x0
	...

Desensamblado de la sección .data:

00002000 <rvtest_data_begin>:
    2000:	cafe                	.2byte	0xcafe
    2002:	babe                	.2byte	0xbabe

00002004 <test_fp>:
    2004:	7e2e1c2f          	.4byte	0x7e2e1c2f
    2008:	d476                	.2byte	0xd476
    200a:	c2b9c087          	.4byte	0xc2b9c087
    200e:	7f38                	.2byte	0x7f38
    2010:	7eeea107          	flw	ft2,2030(t4)
    2014:	02b1                	.2byte	0x2b1
    2016:	be6c                	.2byte	0xbe6c
    2018:	fef4                	.2byte	0xfef4
    201a:	43e07ddb          	.4byte	0x43e07ddb
    201e:	7e85                	.2byte	0x7e85
    2020:	c000e517          	auipc	a0,0xc000e
    2024:	3264                	.2byte	0x3264
    2026:	7f06                	.2byte	0x7f06
    2028:	a689                	.2byte	0xa689
    202a:	7e8e                	.2byte	0x7e8e
    202c:	a689                	.2byte	0xa689
    202e:	7e8e                	.2byte	0x7e8e
    2030:	644c                	.2byte	0x644c
    2032:	7f35                	.2byte	0x7f35
    2034:	5320                	.2byte	0x5320
    2036:	53207e97          	auipc	t4,0x53207
    203a:	53207e97          	auipc	t4,0x53207
    203e:	9da97e97          	auipc	t4,0x9da97
    2042:	7ef8                	.2byte	0x7ef8
    2044:	8a7d                	.2byte	0x8a7d
    2046:	be44                	.2byte	0xbe44
    2048:	8a7d                	.2byte	0x8a7d
    204a:	be44                	.2byte	0xbe44
    204c:	3609                	.2byte	0x3609
    204e:	36097f13          	and	t5,s2,864
    2052:	60207f13          	and	t5,zero,1538
    2056:	7f1e                	.2byte	0x7f1e
    2058:	090d                	.2byte	0x90d
    205a:	ee257e27          	.4byte	0xee257e27
    205e:	c01a                	.2byte	0xc01a
    2060:	090d                	.2byte	0x90d
    2062:	dfb87e27          	.4byte	0xdfb87e27
    2066:	050d7f33          	.4byte	0x50d7f33
    206a:	be9e                	.2byte	0xbe9e
    206c:	050d                	.2byte	0x50d
    206e:	be9e                	.2byte	0xbe9e
    2070:	8a7e                	.2byte	0x8a7e
    2072:	7f3a                	.2byte	0x7f3a
    2074:	8a7e                	.2byte	0x8a7e
    2076:	7f3a                	.2byte	0x7f3a
    2078:	8a7e                	.2byte	0x8a7e
    207a:	7f3a                	.2byte	0x7f3a
    207c:	dd6a                	.2byte	0xdd6a
    207e:	7f20                	.2byte	0x7f20
    2080:	c1e6                	.2byte	0xc1e6
    2082:	bf18                	.2byte	0xbf18
    2084:	dd6a                	.2byte	0xdd6a
    2086:	7f20                	.2byte	0x7f20
    2088:	bc41                	.2byte	0xbc41
    208a:	7eb6                	.2byte	0x7eb6
    208c:	be89993b          	.4byte	0xbe89993b
    2090:	7040                	.2byte	0x7040
    2092:	7dc4                	.2byte	0x7dc4
    2094:	2bf9                	.2byte	0x2bf9
    2096:	7e6d                	.2byte	0x7e6d
    2098:	f386                	.2byte	0xf386
    209a:	c00c                	.2byte	0xc00c
    209c:	95a9                	.2byte	0x95a9
    209e:	7f02                	.2byte	0x7f02
    20a0:	0c6a                	.2byte	0xc6a
    20a2:	7f22                	.2byte	0x7f22
    20a4:	25e5                	.2byte	0x25e5
    20a6:	bf20                	.2byte	0xbf20
    20a8:	7ecabf7f 7ebc0477 	.byte	0x7f, 0xbf, 0xca, 0x7e, 0x77, 0x04, 0xbc, 0x7e, 0xb4, 0xa5, 0x3f, 0xbf, 0x08, 0xc1, 0x8c, 0x7e
    20b0:	bf3fa5b4 7e8cc108 
    20b8:	e2ff 7f04 dcee bfb5 	.byte	0xff, 0xe2, 0x04, 0x7f, 0xee, 0xdc, 0xb5, 0xbf, 0x5b, 0xce, 0x3c, 0x7f, 0x73, 0x23, 0x2c, 0x7f, 0x5d, 0xbb, 0x83, 0xbf, 0x42, 0x28
    20c0:	ce5b 7f3c 2373 7f2c 
    20c8:	bb5d bf83 2842 
    20ce:	7f31                	.2byte	0x7f31
    20d0:	cf6c                	.2byte	0xcf6c
    20d2:	17e37f33          	.4byte	0x17e37f33
    20d6:	bf1e                	.2byte	0xbf1e
    20d8:	1598                	.2byte	0x1598
    20da:	7ede                	.2byte	0x7ede
    20dc:	af59                	.2byte	0xaf59
    20de:	06ce7eeb          	.4byte	0x6ce7eeb
    20e2:	bf2d                	.2byte	0xbf2d
    20e4:	7e9f4bc3          	.4byte	0x7e9f4bc3
    20e8:	6406                	.2byte	0x6406
    20ea:	7f2a                	.2byte	0x7f2a
    20ec:	bf28ea23          	.4byte	0xbf28ea23
    20f0:	daf6                	.2byte	0xdaf6
    20f2:	7ee0                	.2byte	0x7ee0
    20f4:	7f125073          	csrw	0x7f1,4
    20f8:	bda3864f          	.4byte	0xbda3864f
    20fc:	ebfa                	.2byte	0xebfa
    20fe:	7d3a                	.2byte	0x7d3a
    2100:	9a88                	.2byte	0x9a88
    2102:	7e9c                	.2byte	0x7e9c
    2104:	bed41f4f          	.4byte	0xbed41f4f
    2108:	c320                	.2byte	0xc320
    210a:	7e01                	.2byte	0x7e01
    210c:	7dcbc1b7          	lui	gp,0x7dcbc
    2110:	afc1                	.2byte	0xafc1
    2112:	c01d                	.2byte	0xc01d
    2114:	0361                	.2byte	0x361
    2116:	7e147e7b          	.4byte	0x7e147e7b
    211a:	07dc7f3f cc96bf6f 	.8byte	0xcc96bf6f07dc7f3f
    2122:	7f32                	.2byte	0x7f32
    2124:	215c                	.2byte	0x215c
    2126:	7ed8                	.2byte	0x7ed8
    2128:	bfd4e017          	auipc	zero,0xbfd4e
    212c:	b8d2                	.2byte	0xb8d2
    212e:	57237f33          	.4byte	0x57237f33
    2132:	7f0d                	.2byte	0x7f0d
    2134:	bf26896f          	jal	s2,fff6a526 <_end+0xfff677e6>
    2138:	e4c4                	.2byte	0xe4c4
    213a:	f3fb7eb7          	lui	t4,0xf3fb7
    213e:	7e7a                	.2byte	0x7e7a
    2140:	baf4                	.2byte	0xbaf4
    2142:	c02c                	.2byte	0xc02c
    2144:	5332                	.2byte	0x5332
    2146:	7f29                	.2byte	0x7f29
    2148:	6a36                	.2byte	0x6a36
    214a:	7f1e                	.2byte	0x7f1e
    214c:	9764                	.2byte	0x9764
    214e:	bf2d                	.2byte	0xbf2d
    2150:	7ed6d6eb          	.4byte	0x7ed6d6eb
    2154:	7298                	.2byte	0x7298
    2156:	7ed5                	.2byte	0x7ed5
    2158:	85e0                	.2byte	0x85e0
    215a:	bfa9                	.2byte	0xbfa9
    215c:	5846                	.2byte	0x5846
    215e:	7f0d                	.2byte	0x7f0d
    2160:	7072                	.2byte	0x7072
    2162:	f63b7da7          	.4byte	0xf63b7da7
    2166:	beee                	.2byte	0xbeee
    2168:	7d1c4b97          	auipc	s7,0x7d1c4
    216c:	b179                	.2byte	0xb179
    216e:	ba677e07          	.4byte	0xba677e07
    2172:	e2c9c087          	.4byte	0xe2c9c087
    2176:	f59a7f0f          	.4byte	0xf59a7f0f
    217a:	7e2a                	.2byte	0x7e2a
    217c:	91e9                	.2byte	0x91e9
    217e:	bfa8                	.2byte	0xbfa8
    2180:	253d                	.2byte	0x253d
    2182:	7e61                	.2byte	0x7e61
    2184:	7f162ed7          	.4byte	0x7f162ed7
    2188:	9e84                	.2byte	0x9e84
    218a:	be02                	.2byte	0xbe02
    218c:	4190                	.2byte	0x4190
    218e:	7d99                	.2byte	0x7d99
    2190:	7cfe                	.2byte	0x7cfe
    2192:	7e95                	.2byte	0x7e95
    2194:	bf8dc9a3          	.4byte	0xbf8dc9a3
    2198:	972e                	.2byte	0x972e
    219a:	7ea5                	.2byte	0x7ea5
    219c:	5b75                	.2byte	0x5b75
    219e:	7df5                	.2byte	0x7df5
    21a0:	4428                	.2byte	0x4428
    21a2:	bfcc                	.2byte	0xbfcc
    21a4:	c635                	.2byte	0xc635
    21a6:	81707e43          	fmadd.s	ft8,ft0,fs7,fa6
    21aa:	7f0a                	.2byte	0x7f0a
    21ac:	0672                	.2byte	0x672
    21ae:	a65fbef7          	.4byte	0xa65fbef7
    21b2:	7e85                	.2byte	0x7e85
    21b4:	b364                	.2byte	0xb364
    21b6:	75177ec7          	.4byte	0x75177ec7
    21ba:	be60                	.2byte	0xbe60
    21bc:	7daf184f          	.4byte	0x7daf184f
    21c0:	46d5                	.2byte	0x46d5
    21c2:	7e89                	.2byte	0x7e89
    21c4:	03fc                	.2byte	0x3fc
    21c6:	bf6a                	.2byte	0xbf6a
    21c8:	f9c4                	.2byte	0xf9c4
    21ca:	7e7a                	.2byte	0x7e7a
    21cc:	37d6                	.2byte	0x37d6
    21ce:	7e75                	.2byte	0x7e75
    21d0:	ccdf bf6d c8ef      	.byte	0xdf, 0xcc, 0x6d, 0xbf, 0xef, 0xc8
    21d6:	252f7e63          	bgeu	t5,s2,2432 <test_fp+0x42e>
    21da:	da487f0b          	.4byte	0xda487f0b
    21de:	4c95bf53          	.4byte	0x4c95bf53
    21e2:	7ee6                	.2byte	0x7ee6
    21e4:	0fb5                	.2byte	0xfb5
    21e6:	7f1f c8f4 bf7b      	.byte	0x1f, 0x7f, 0xf4, 0xc8, 0x7b, 0xbf
    21ec:	7142                	.2byte	0x7142
    21ee:	7f1c                	.2byte	0x7f1c
    21f0:	7efaffa3          	.4byte	0x7efaffa3
    21f4:	7139                	.2byte	0x7139
    21f6:	a3cfbf0f          	.4byte	0xa3cfbf0f
    21fa:	7e8c                	.2byte	0x7e8c
    21fc:	99a4                	.2byte	0x99a4
    21fe:	7f30                	.2byte	0x7f30
    2200:	195a                	.2byte	0x195a
    2202:	f0eebf6f          	jal	t5,fffed910 <_end+0xfffeabd0>
    2206:	7f24                	.2byte	0x7f24
    2208:	b2ba                	.2byte	0xb2ba
    220a:	7e75                	.2byte	0x7e75
    220c:	d04c                	.2byte	0xd04c
    220e:	d75cbdf7          	.4byte	0xd75cbdf7
    2212:	7ced                	.2byte	0x7ced
    2214:	14fd                	.2byte	0x14fd
    2216:	7f26                	.2byte	0x7f26
    2218:	2b5a                	.2byte	0x2b5a
    221a:	bf41                	.2byte	0xbf41
    221c:	a3e6                	.2byte	0xa3e6
    221e:	7efa                	.2byte	0x7efa
    2220:	6204                	.2byte	0x6204
    2222:	7d8e                	.2byte	0x7d8e
    2224:	9284                	.2byte	0x9284
    2226:	c0d1                	.2byte	0xc0d1
    2228:	7ee91f07          	.4byte	0x7ee91f07
    222c:	7f2dd7a3          	.4byte	0x7f2dd7a3
    2230:	bf82cfaf          	.4byte	0xbf82cfaf
    2234:	7f31a913          	slti	s2,gp,2035
    2238:	ac5f 7eb1 529b      	.byte	0x5f, 0xac, 0xb1, 0x7e, 0x9b, 0x52
    223e:	bff0                	.2byte	0xbff0
    2240:	caee                	.2byte	0xcaee
    2242:	7f26                	.2byte	0x7f26
    2244:	870c                	.2byte	0x870c
    2246:	1d717f03          	.4byte	0x1d717f03
    224a:	be02                	.2byte	0xbe02
    224c:	b36a                	.2byte	0xb36a
    224e:	7d85                	.2byte	0x7d85
    2250:	21f9                	.2byte	0x21f9
    2252:	7dd2                	.2byte	0x7dd2
    2254:	c065                	.2byte	0xc065
    2256:	c08e                	.2byte	0xc08e
    2258:	5989                	.2byte	0x5989
    225a:	7eea                	.2byte	0x7eea
    225c:	ba02                	.2byte	0xba02
    225e:	7f30                	.2byte	0x7f30
    2260:	acdd                	.2byte	0xacdd
    2262:	bf5a                	.2byte	0xbf5a
    2264:	7f16f5bb          	.4byte	0x7f16f5bb
    2268:	ce5c                	.2byte	0xce5c
    226a:	7f15                	.2byte	0x7f15
    226c:	ead4                	.2byte	0xead4
    226e:	bfa2                	.2byte	0xbfa2
    2270:	ac02                	.2byte	0xac02
    2272:	7f3e                	.2byte	0x7f3e
    2274:	7e94f81b          	.4byte	0x7e94f81b
    2278:	bfd8038b          	.4byte	0xbfd8038b
    227c:	66cd                	.2byte	0x66cd
    227e:	e8397efb          	.4byte	0xe8397efb
    2282:	7f15                	.2byte	0x7f15
    2284:	bf8213cf          	.4byte	0xbf8213cf
    2288:	570d                	.2byte	0x570d
    228a:	7f18                	.2byte	0x7f18
    228c:	4ea2                	.2byte	0x4ea2
    228e:	7f1f 0bb6 bee3      	.byte	0x1f, 0x7f, 0xb6, 0x0b, 0xe3, 0xbe
    2294:	4a04                	.2byte	0x4a04
    2296:	7e8d                	.2byte	0x7e8d
    2298:	25fe                	.2byte	0x25fe
    229a:	7f1c                	.2byte	0x7f1c
    229c:	bf3bcbbf 7ee51810 	.8byte	0x7ee51810bf3bcbbf
    22a4:	7f8a                	.2byte	0x7f8a
    22a6:	31ba7f0f          	.4byte	0x31ba7f0f
    22aa:	ec23beab          	.4byte	0xec23beab
    22ae:	5d947e3f 85827f39 	.8byte	0x85827f395d947e3f
    22b6:	bf51                	.2byte	0xbf51
    22b8:	b612                	.2byte	0xb612
    22ba:	21df7f17          	auipc	t5,0x21df7
    22be:	7e9e                	.2byte	0x7e9e
    22c0:	bf60a463          	.4byte	0xbf60a463
    22c4:	c32e                	.2byte	0xc32e
    22c6:	7e8a                	.2byte	0x7e8a
    22c8:	fd1e                	.2byte	0xfd1e
    22ca:	7e54                	.2byte	0x7e54
    22cc:	c04d0497          	auipc	s1,0xc04d0
    22d0:	7f2a9283          	lh	t0,2034(s5)
    22d4:	7f1a693b          	.4byte	0x7f1a693b
    22d8:	8215                	.2byte	0x8215
    22da:	bf20                	.2byte	0xbf20
    22dc:	7ec1a077          	.4byte	0x7ec1a077
    22e0:	7e526383          	.4byte	0x7e526383
    22e4:	4582                	.2byte	0x4582
    22e6:	bf88                	.2byte	0xbf88
    22e8:	7e5ffbfb          	.4byte	0x7e5ffbfb
    22ec:	c6fa                	.2byte	0xc6fa
    22ee:	be6e7db3          	.4byte	0xbe6e7db3
    22f2:	c0e2                	.2byte	0xc0e2
    22f4:	7f1f3b63          	.4byte	0x7f1f3b63
    22f8:	7e5009d7          	.4byte	0x7e5009d7
    22fc:	bfc65633          	.4byte	0xbfc65633
    2300:	2daa                	.2byte	0x2daa
    2302:	7ea1                	.2byte	0x7ea1
    2304:	7d52d2c7          	.4byte	0x7d52d2c7
    2308:	ec85                	.2byte	0xec85
    230a:	c12a                	.2byte	0xc12a
    230c:	c2c0                	.2byte	0xc2c0
    230e:	7f0c                	.2byte	0x7f0c
    2310:	7f20eedb          	.4byte	0x7f20eedb
    2314:	389c                	.2byte	0x389c
    2316:	bea4                	.2byte	0xbea4
    2318:	7935                	.2byte	0x7935
    231a:	7e4e                	.2byte	0x7e4e
    231c:	2348                	.2byte	0x2348
    231e:	7ebc                	.2byte	0x7ebc
    2320:	2fcd                	.2byte	0x2fcd
    2322:	bf8a                	.2byte	0xbf8a
    2324:	1c4d                	.2byte	0x1c4d
    2326:	140c7ecb          	.4byte	0x140c7ecb
    232a:	15957e8b          	.4byte	0x15957e8b
    232e:	291abf97          	auipc	t6,0x291ab
    2332:	7ea4                	.2byte	0x7ea4
    2334:	9df6                	.2byte	0x9df6
    2336:	7f1d                	.2byte	0x7f1d
    2338:	a571                	.2byte	0xa571
    233a:	bf3c                	.2byte	0xbf3c
    233c:	4bbc                	.2byte	0x4bbc
    233e:	7ee8                	.2byte	0x7ee8
    2340:	b8ad                	.2byte	0xb8ad
    2342:	1c147f33          	.4byte	0x1c147f33
    2346:	c845bf47          	fmsub.s	ft10,fa1,ft4,fs9,rup
    234a:	c9537f0b          	.4byte	0xc9537f0b
    234e:	7f21                	.2byte	0x7f21
    2350:	e858                	.2byte	0xe858
    2352:	64a1bf4f          	.4byte	0x64a1bf4f
    2356:	19b27f03          	.4byte	0x19b27f03
    235a:	7e5f 0f39 c007      	.byte	0x5f, 0x7e, 0x39, 0x0f, 0x07, 0xc0
    2360:	7eeb67a3          	.4byte	0x7eeb67a3
    2364:	7f22a277          	.4byte	0x7f22a277
    2368:	9501                	.2byte	0x9501
    236a:	bebc                	.2byte	0xbebc
    236c:	9bf2                	.2byte	0x9bf2
    236e:	11bf7e6f          	jal	t3,f9c88 <_end+0xf6f48>
    2372:	7e8e                	.2byte	0x7e8e
    2374:	d24d                	.2byte	0xd24d
    2376:	c025                	.2byte	0xc025
    2378:	0c4c                	.2byte	0xc4c
    237a:	7f38                	.2byte	0x7f38
    237c:	60a9                	.2byte	0x60a9
    237e:	7f22                	.2byte	0x7f22
    2380:	be6d0137          	lui	sp,0xbe6d0
    2384:	5442                	.2byte	0x5442
    2386:	7e16                	.2byte	0x7e16
    2388:	7f166373          	csrrs	t1,0x7f1,12
    238c:	bec15f53          	.4byte	0xbec15f53
    2390:	31f4                	.2byte	0x31f4
    2392:	0b057e63          	bgeu	a0,a6,244e <test_fp+0x44a>
    2396:	7ef0                	.2byte	0x7ef0
    2398:	bfc3f817          	auipc	a6,0xbfc3f
    239c:	c106                	.2byte	0xc106
    239e:	4aea7f37          	lui	t5,0x4aea7
    23a2:	66c27f23          	.4byte	0x66c27f23
    23a6:	3fd0bf1b          	.4byte	0x3fd0bf1b
    23aa:	7ec6                	.2byte	0x7ec6
    23ac:	cb1e                	.2byte	0xcb1e
    23ae:	7e8d                	.2byte	0x7e8d
    23b0:	2b7a                	.2byte	0x2b7a
    23b2:	c0d2c023          	.4byte	0xc0d2c023
    23b6:	7f34                	.2byte	0x7f34
    23b8:	2d92                	.2byte	0x2d92
    23ba:	7ed2                	.2byte	0x7ed2
    23bc:	6f26                	.2byte	0x6f26
    23be:	bfe4                	.2byte	0xbfe4
    23c0:	7f3b8bd7          	.4byte	0x7f3b8bd7
    23c4:	c6f2                	.2byte	0xc6f2
    23c6:	a2407e2b          	.4byte	0xa2407e2b
    23ca:	bfa9                	.2byte	0xbfa9
    23cc:	a66a                	.2byte	0xa66a
    23ce:	18687e63          	bgeu	a6,t1,256a <test_fp+0x566>
    23d2:	7f32                	.2byte	0x7f32
    23d4:	78f4                	.2byte	0x78f4
    23d6:	7e09bf87          	.4byte	0x7e09bf87
    23da:	7f3c                	.2byte	0x7f3c
    23dc:	7fda                	.2byte	0x7fda
    23de:	7f2e                	.2byte	0x7f2e
    23e0:	bf515d9b          	.4byte	0xbf515d9b
    23e4:	b630                	.2byte	0xb630
    23e6:	7f0e                	.2byte	0x7f0e
    23e8:	7ba44bd3          	.4byte	0x7ba44bd3
    23ec:	c2b7709b          	.4byte	0xc2b7709b
    23f0:	74f1                	.2byte	0x74f1
    23f2:	d6ae7eeb          	.4byte	0xd6ae7eeb
    23f6:	7f0e                	.2byte	0x7f0e
    23f8:	bf5ebb57          	.4byte	0xbf5ebb57
    23fc:	8d65                	.2byte	0x8d65
    23fe:	7ef8                	.2byte	0x7ef8
    2400:	34a2                	.2byte	0x34a2
    2402:	7e30                	.2byte	0x7e30
    2404:	a75c                	.2byte	0xa75c
    2406:	c012                	.2byte	0xc012
    2408:	e26c                	.2byte	0xe26c
    240a:	7ec9                	.2byte	0x7ec9
    240c:	648d                	.2byte	0x648d
    240e:	b4407f07          	.4byte	0xb4407f07
    2412:	be91                	.2byte	0xbe91
    2414:	1e91                	.2byte	0x1e91
    2416:	7e1a                	.2byte	0x7e1a
    2418:	14c8                	.2byte	0x14c8
    241a:	7f11                	.2byte	0x7f11
    241c:	bf2a450f          	.4byte	0xbf2a450f
    2420:	fde0                	.2byte	0xfde0
    2422:	7ec0                	.2byte	0x7ec0
    2424:	5d14                	.2byte	0x5d14
    2426:	e6e47d8f          	.4byte	0xe6e47d8f
    242a:	c125                	.2byte	0xc125
    242c:	d098                	.2byte	0xd098
    242e:	7f39                	.2byte	0x7f39
    2430:	d04c                	.2byte	0xd04c
    2432:	04d27e8b          	.4byte	0x4d27e8b
    2436:	bf98                	.2byte	0xbf98
    2438:	0c9f 7ea6 d2b2      	.byte	0x9f, 0x0c, 0xa6, 0x7e, 0xb2, 0xd2
    243e:	7eea                	.2byte	0x7eea
    2440:	7e4a                	.2byte	0x7e4a
    2442:	f61fbd17          	auipc	s10,0xf61fb
    2446:	7c8a                	.2byte	0x7c8a
    2448:	3a21                	.2byte	0x3a21
    244a:	0fde7f0b          	.4byte	0xfde7f0b
    244e:	bf7a                	.2byte	0xbf7a
    2450:	ff65                	.2byte	0xff65
    2452:	59587f07          	.4byte	0x59587f07
    2456:	42da7eab          	.4byte	0x42da7eab
    245a:	be78                	.2byte	0xbe78
    245c:	2b4d                	.2byte	0x2b4d
    245e:	7da6                	.2byte	0x7da6
    2460:	7e2d32f7          	.4byte	0x7e2d32f7
    2464:	337c                	.2byte	0x337c
    2466:	bf60                	.2byte	0xbf60
    2468:	af6d                	.2byte	0xaf6d
    246a:	337c7e17          	auipc	t3,0x337c7
    246e:	94aa7e97          	auipc	t4,0x94aa7
    2472:	bf6a                	.2byte	0xbf6a
    2474:	8cde                	.2byte	0x8cde
    2476:	7e8a                	.2byte	0x7e8a
    2478:	7f095fbb          	.4byte	0x7f095fbb
    247c:	bf28a10b          	.4byte	0xbf28a10b
    2480:	fa7d                	.2byte	0xfa7d
    2482:	7eb4                	.2byte	0x7eb4
    2484:	c2ff 7ea8 4f40 bfd3 	.byte	0xff, 0xc2, 0xa8, 0x7e, 0x40, 0x4f, 0xd3, 0xbf, 0xf7, 0x4c, 0x0b, 0x7f, 0x28, 0xd5, 0xad, 0x7e, 0xf9, 0x04
    248c:	4cf7 7f0b d528 7ead 
    2494:	04f9 
    2496:	3ae4be8f          	.4byte	0x3ae4be8f
    249a:	7dc2                	.2byte	0x7dc2
    249c:	6d02                	.2byte	0x6d02
    249e:	4bfd7dbb          	.4byte	0x4bfd7dbb
    24a2:	c098                	.2byte	0xc098
    24a4:	7edf00b7          	lui	ra,0x7edf0
    24a8:	b43e                	.2byte	0xb43e
    24aa:	7eb5                	.2byte	0x7eb5
    24ac:	3191                	.2byte	0x3191
    24ae:	5787bea7          	.4byte	0x5787bea7
    24b2:	7ded                	.2byte	0x7ded
    24b4:	7969                	.2byte	0x7969
    24b6:	7ee8                	.2byte	0x7ee8
    24b8:	3fce                	.2byte	0x3fce
    24ba:	bf52                	.2byte	0xbf52
    24bc:	ed89                	.2byte	0xed89
    24be:	7ebe                	.2byte	0x7ebe
    24c0:	7ea98b8f          	.4byte	0x7ea98b8f
    24c4:	51e0                	.2byte	0x51e0
    24c6:	be41                	.2byte	0xbe41
    24c8:	0870                	.2byte	0x870
    24ca:	7d80                	.2byte	0x7d80
    24cc:	7e088c83          	lb	s9,2016(a7)
    24d0:	8e76                	.2byte	0x8e76
    24d2:	c0ae                	.2byte	0xc0ae
    24d4:	36fc                	.2byte	0x36fc
    24d6:	7f3a                	.2byte	0x7f3a
    24d8:	2b14                	.2byte	0x2b14
    24da:	7f3e                	.2byte	0x7f3e
    24dc:	e986                	.2byte	0xe986
    24de:	bf15                	.2byte	0xbf15
    24e0:	7edeb917          	auipc	s2,0x7edeb
    24e4:	4fae                	.2byte	0x4fae
    24e6:	7f39                	.2byte	0x7f39
    24e8:	6ae5                	.2byte	0x6ae5
    24ea:	bf49                	.2byte	0xbf49
    24ec:	ccf0                	.2byte	0xccf0
    24ee:	7f11                	.2byte	0x7f11
    24f0:	08ce                	.2byte	0x8ce
    24f2:	7f28                	.2byte	0x7f28
    24f4:	03ba                	.2byte	0x3ba
    24f6:	7f8fbd1b          	.4byte	0x7f8fbd1b
    24fa:	73437ccb          	.4byte	0x73437ccb
    24fe:	7f20                	.2byte	0x7f20
    2500:	b64e                	.2byte	0xb64e
    2502:	be80                	.2byte	0xbe80
    2504:	57c9                	.2byte	0x57c9
    2506:	7e21                	.2byte	0x7e21
    2508:	45d0                	.2byte	0x45d0
    250a:	7f39                	.2byte	0x7f39
    250c:	af30                	.2byte	0xaf30
    250e:	840fbb47          	.4byte	0x840fbb47
    2512:	7b10                	.2byte	0x7b10
    2514:	cce4                	.2byte	0xcce4
    2516:	7f0e                	.2byte	0x7f0e
    2518:	ef4d                	.2byte	0xef4d
    251a:	bef1                	.2byte	0xbef1
    251c:	f460                	.2byte	0xf460
    251e:	7e86                	.2byte	0x7e86
    2520:	5a12                	.2byte	0x5a12
    2522:	7e94                	.2byte	0x7e94
    2524:	11a6                	.2byte	0x11a6
    2526:	bfbe                	.2byte	0xbfbe
    2528:	4a28                	.2byte	0x4a28
    252a:	7edc                	.2byte	0x7edc
    252c:	2f82                	.2byte	0x2f82
    252e:	7c50                	.2byte	0x7c50
    2530:	c1049553          	.4byte	0xc1049553
    2534:	a3de                	.2byte	0xa3de
    2536:	2c797dd7          	.4byte	0x2c797dd7
    253a:	7f3c                	.2byte	0x7f3c
    253c:	97ce                	.2byte	0x97ce
    253e:	74b0bd83          	.4byte	0x74b0bd83
    2542:	7d41                	.2byte	0x7d41
    2544:	e3fa                	.2byte	0xe3fa
    2546:	7ec1                	.2byte	0x7ec1
    2548:	bfb38693          	add	a3,t2,-1029
    254c:	f854                	.2byte	0xf854
    254e:	4d8c7f07          	.4byte	0x4d8c7f07
    2552:	7e8a                	.2byte	0x7e8a
    2554:	8696                	.2byte	0x8696
    2556:	140fc00f          	.4byte	0x140fc00f
    255a:	9eb47f1b          	.4byte	0x9eb47f1b
    255e:	7e587da3          	.4byte	0x7e587da3
    2562:	c09c                	.2byte	0xc09c
    2564:	0aed                	.2byte	0xaed
    2566:	7ec8                	.2byte	0x7ec8
    2568:	1772                	.2byte	0x1772
    256a:	7d92                	.2byte	0x7d92
    256c:	bf6578e7          	.4byte	0xbf6578e7
    2570:	f3f8                	.2byte	0xf3f8
    2572:	7d82                	.2byte	0x7d82
    2574:	fcc2                	.2byte	0xfcc2
    2576:	7ee1                	.2byte	0x7ee1
    2578:	34ce                	.2byte	0x34ce
    257a:	c16fbefb          	.4byte	0xc16fbefb
    257e:	7e5d                	.2byte	0x7e5d
    2580:	48d4                	.2byte	0x48d4
    2582:	e0a27eab          	.4byte	0xe0a27eab
    2586:	7f4abf6f          	jal	t5,add7a <_end+0xab03a>
    258a:	7ea0                	.2byte	0x7ea0
    258c:	7e31f5db          	.4byte	0x7e31f5db
    2590:	bfe28967          	jalr	s2,-1026(t0)
    2594:	7a90                	.2byte	0x7a90
    2596:	7e9d                	.2byte	0x7e9d
    2598:	ae3a                	.2byte	0xae3a
    259a:	7e02                	.2byte	0x7e02
    259c:	d78d                	.2byte	0xd78d
    259e:	45f0c023          	.4byte	0x45f0c023
    25a2:	bec87ea7          	.4byte	0xbec87ea7
    25a6:	7f12                	.2byte	0x7f12
    25a8:	fb22                	.2byte	0xfb22
    25aa:	bee4                	.2byte	0xbee4
    25ac:	41df 7e83 6f32      	.byte	0xdf, 0x41, 0x83, 0x7e, 0x32, 0x6f
    25b2:	7e66                	.2byte	0x7e66
    25b4:	bd34700f          	.4byte	0xbd34700f
    25b8:	6b0e                	.2byte	0x6b0e
    25ba:	7c22                	.2byte	0x7c22
    25bc:	fd1d                	.2byte	0xfd1d
    25be:	7e1a                	.2byte	0x7e1a
    25c0:	c07312ff 7f1329c3 	.byte	0xff, 0x12, 0x73, 0xc0, 0xc3, 0x29, 0x13, 0x7f, 0x66, 0xa8, 0xfe, 0x7e
    25c8:	7efea866 
    25cc:	2825                	.2byte	0x2825
    25ce:	bfbc                	.2byte	0xbfbc
    25d0:	7f3b2b9b          	.4byte	0x7f3b2b9b
    25d4:	2a54                	.2byte	0x2a54
    25d6:	7e98                	.2byte	0x7e98
    25d8:	bed6b7cf          	.4byte	0xbed6b7cf
    25dc:	4148                	.2byte	0x4148
    25de:	7dff                	.2byte	0x7dff
    25e0:	7f2b296b          	.4byte	0x7f2b296b
    25e4:	4e1c                	.2byte	0x4e1c
    25e6:	be49                	.2byte	0xbe49
    25e8:	97be                	.2byte	0x97be
    25ea:	7e06                	.2byte	0x7e06
    25ec:	bd56                	.2byte	0xbd56
    25ee:	7e90                	.2byte	0x7e90
    25f0:	a990                	.2byte	0xa990
    25f2:	c00d                	.2byte	0xc00d
    25f4:	304e                	.2byte	0x304e
    25f6:	7f20                	.2byte	0x7f20
    25f8:	ef54                	.2byte	0xef54
    25fa:	7e4c                	.2byte	0x7e4c
    25fc:	1960                	.2byte	0x1960
    25fe:	9618bfcb          	.4byte	0x9618bfcb
    2602:	7ea2                	.2byte	0x7ea2
    2604:	6d0d                	.2byte	0x6d0d
    2606:	7c12                	.2byte	0x7c12
    2608:	6e32                	.2byte	0x6e32
    260a:	c1e6                	.2byte	0xc1e6
    260c:	cd01                	.2byte	0xcd01
    260e:	ecea7e83          	.4byte	0xecea7e83
    2612:	7e28                	.2byte	0x7e28
    2614:	ed2e                	.2byte	0xed2e
    2616:	bf8d                	.2byte	0xbf8d
    2618:	4dfe                	.2byte	0x4dfe
    261a:	d9247e3b          	.4byte	0xd9247e3b
    261e:	7ec2                	.2byte	0x7ec2
    2620:	e83a                	.2byte	0xe83a
    2622:	bfb0                	.2byte	0xbfb0
    2624:	a60a                	.2byte	0xa60a
    2626:	7f06                	.2byte	0x7f06
    2628:	67a0                	.2byte	0x67a0
    262a:	57e57d5b          	.4byte	0x57e57d5b
    262e:	c14a                	.2byte	0xc14a
    2630:	6b19                	.2byte	0x6b19
    2632:	7f2d                	.2byte	0x7f2d
    2634:	074e                	.2byte	0x74e
    2636:	d5a97ecb          	.4byte	0xd5a97ecb
    263a:	bf76                	.2byte	0xbf76
    263c:	c279                	.2byte	0xc279
    263e:	cb347ec3          	.4byte	0xcb347ec3
    2642:	7de07e17          	auipc	t3,0x7de07
    2646:	bf42                	.2byte	0xbf42
    2648:	a542                	.2byte	0xa542
    264a:	7de6                	.2byte	0x7de6
    264c:	f35d                	.2byte	0xf35d
    264e:	7f21                	.2byte	0x7f21
    2650:	d959                	.2byte	0xd959
    2652:	bf18                	.2byte	0xbf18
    2654:	63ff 7ec1 cfd9 7f06 	.byte	0xff, 0x63, 0xc1, 0x7e, 0xd9, 0xcf, 0x06, 0x7f, 0xf6, 0x2e, 0xad, 0xbf, 0x62, 0x66, 0x36, 0x7f, 0x5d, 0xf0, 0x95, 0x7d, 0x2e, 0x40
    265c:	2ef6 bfad 6662 7f36 
    2664:	f05d 7d95 402e 
    266a:	c0e2                	.2byte	0xc0e2
    266c:	83c9                	.2byte	0x83c9
    266e:	7f04                	.2byte	0x7f04
    2670:	529d                	.2byte	0x529d
    2672:	32e87dcf          	.4byte	0x32e87dcf
    2676:	c0b5                	.2byte	0xc0b5
    2678:	bea4                	.2byte	0xbea4
    267a:	7f12                	.2byte	0x7f12
    267c:	f8b6                	.2byte	0xf8b6
    267e:	7e88                	.2byte	0x7e88
    2680:	8c50                	.2byte	0x8c50
    2682:	c01d                	.2byte	0xc01d
    2684:	9736                	.2byte	0x9736
    2686:	7f28                	.2byte	0x7f28
    2688:	24ed                	.2byte	0x24ed
    268a:	7f29                	.2byte	0x7f29
    268c:	0466                	.2byte	0x466
    268e:	bea6                	.2byte	0xbea6
    2690:	61b5                	.2byte	0x61b5
    2692:	52417e5b          	.4byte	0x52417e5b
    2696:	7ede                	.2byte	0x7ede
    2698:	bfa12887          	flw	fa7,-1030(sp) # be6cfbfa <_end+0xbe6cceba>
    269c:	f4ed                	.2byte	0xf4ed
    269e:	e13e7f0b          	.4byte	0xe13e7f0b
    26a2:	7e14                	.2byte	0x7e14
    26a4:	2a84                	.2byte	0x2a84
    26a6:	c09c                	.2byte	0xc09c
    26a8:	a3f8                	.2byte	0xa3f8
    26aa:	7f35                	.2byte	0x7f35
    26ac:	a451                	.2byte	0xa451
    26ae:	7f35                	.2byte	0x7f35
    26b0:	3b82                	.2byte	0x3b82
    26b2:	bf04                	.2byte	0xbf04
    26b4:	a5e6                	.2byte	0xa5e6
    26b6:	52ec7ebb          	.4byte	0x52ec7ebb
    26ba:	7dda                	.2byte	0x7dda
    26bc:	e1c6                	.2byte	0xe1c6
    26be:	c160bee7          	.4byte	0xc160bee7
    26c2:	7d45                	.2byte	0x7d45
    26c4:	1061                	.2byte	0x1061
    26c6:	7f2d                	.2byte	0x7f2d
    26c8:	299a                	.2byte	0x299a
    26ca:	bf25                	.2byte	0xbf25
    26cc:	4f5d                	.2byte	0x4f5d
    26ce:	7edf 1227 7ebf      	.byte	0xdf, 0x7e, 0x27, 0x12, 0xbf, 0x7e
    26d4:	bfa7232f          	.4byte	0xbfa7232f
    26d8:	7e34                	.2byte	0x7e34
    26da:	7ef9                	.2byte	0x7ef9
    26dc:	f5dd                	.2byte	0xf5dd
    26de:	7e81                	.2byte	0x7e81
    26e0:	ba3e                	.2byte	0xba3e
    26e2:	c002                	.2byte	0xc002
    26e4:	bacd                	.2byte	0xbacd
    26e6:	7f04                	.2byte	0x7f04
    26e8:	d8c5                	.2byte	0xd8c5
    26ea:	7e90                	.2byte	0x7e90
    26ec:	bfe03fc7          	.4byte	0xbfe03fc7
    26f0:	c386                	.2byte	0xc386
    26f2:	7efd                	.2byte	0x7efd
    26f4:	cef4                	.2byte	0xcef4
    26f6:	7d41                	.2byte	0x7d41
    26f8:	4815                	.2byte	0x4815
    26fa:	c11d                	.2byte	0xc11d
    26fc:	24fd                	.2byte	0x24fd
    26fe:	7eee                	.2byte	0x7eee
    2700:	6afe                	.2byte	0x6afe
    2702:	7e46                	.2byte	0x7e46
    2704:	c075a3a7          	fsw	ft7,-1017(a1)
    2708:	633d                	.2byte	0x633d
    270a:	7f3e                	.2byte	0x7f3e
    270c:	90a0                	.2byte	0x90a0
    270e:	7e91                	.2byte	0x7e91
    2710:	9c78                	.2byte	0x9c78
    2712:	be99                	.2byte	0xbe99
    2714:	b0d1                	.2byte	0xb0d1
    2716:	7dae                	.2byte	0x7dae
    2718:	8afc                	.2byte	0x8afc
    271a:	7e9c                	.2byte	0x7e9c
    271c:	9df0                	.2byte	0x9df0
    271e:	c00d                	.2byte	0xc00d
    2720:	7f2d3243          	.4byte	0x7f2d3243
    2724:	a735                	.2byte	0xa735
    2726:	7c75                	.2byte	0x7c75
    2728:	81bc                	.2byte	0x81bc
    272a:	c155                	.2byte	0xc155
    272c:	e09d                	.2byte	0xe09d
    272e:	7e4c                	.2byte	0x7e4c
    2730:	92a2                	.2byte	0x92a2
    2732:	7d89                	.2byte	0x7d89
    2734:	5676                	.2byte	0x5676
    2736:	da3dc027          	.4byte	0xda3dc027
    273a:	a21e7e33          	.4byte	0xa21e7e33
    273e:	41057e13          	and	t3,a0,1040
    2742:	c08a                	.2byte	0xc08a
    2744:	7f1f75c7          	.4byte	0x7f1f75c7
    2748:	00ba                	.2byte	0xba
    274a:	7eae                	.2byte	0x7eae
    274c:	d260                	.2byte	0xd260
    274e:	12c6bf8b          	.4byte	0x12c6bf8b
    2752:	7ebe                	.2byte	0x7ebe
    2754:	7ef67a3b          	.4byte	0x7ef67a3b
    2758:	1e70                	.2byte	0x1e70
    275a:	4eafbf37          	lui	t5,0x4eafb
    275e:	7eb0                	.2byte	0x7eb0
    2760:	d529                	.2byte	0xd529
    2762:	9c367f3f d13fbe56 	.8byte	0xd13fbe569c367f3f
    276a:	7e20                	.2byte	0x7e20
    276c:	d835                	.2byte	0xd835
    276e:	7d82                	.2byte	0x7d82
    2770:	c039e73f 7e3e08e0 	.8byte	0x7e3e08e0c039e73f
    2778:	0b54                	.2byte	0xb54
    277a:	7dc2                	.2byte	0x7dc2
    277c:	8842                	.2byte	0x8842
    277e:	c0b2                	.2byte	0xc0b2
    2780:	5328                	.2byte	0x5328
    2782:	a1077f07          	.4byte	0xa1077f07
    2786:	7eee                	.2byte	0x7eee
    2788:	02b1                	.2byte	0x2b1
    278a:	be6c                	.2byte	0xbe6c
    278c:	fef4                	.2byte	0xfef4
    278e:	a6897ddb          	.4byte	0xa6897ddb
    2792:	7e8e                	.2byte	0x7e8e
    2794:	c022c32f          	.4byte	0xc022c32f
    2798:	644c                	.2byte	0x644c
    279a:	7f35                	.2byte	0x7f35
    279c:	5320                	.2byte	0x5320
    279e:	a3127e97          	auipc	t4,0xa3127
    27a2:	bdb5                	.2byte	0xbdb5
    27a4:	bc56                	.2byte	0xbc56
    27a6:	7cd6                	.2byte	0x7cd6
    27a8:	9da9                	.2byte	0x9da9
    27aa:	7ef8                	.2byte	0x7ef8
    27ac:	8a7d                	.2byte	0x8a7d
    27ae:	be44                	.2byte	0xbe44
    27b0:	df34                	.2byte	0xdf34
    27b2:	7dbe                	.2byte	0x7dbe
    27b4:	3609                	.2byte	0x3609
    27b6:	b51b7f13          	and	t5,s6,-1199
    27ba:	bf89                	.2byte	0xbf89
    27bc:	6020                	.2byte	0x6020
    27be:	7f1e                	.2byte	0x7f1e
    27c0:	090d                	.2byte	0x90d
    27c2:	ee257e27          	.4byte	0xee257e27
    27c6:	c01a                	.2byte	0xc01a
    27c8:	2da9                	.2byte	0x2da9
    27ca:	7eca                	.2byte	0x7eca
    27cc:	dfb8                	.2byte	0xdfb8
    27ce:	050d7f33          	.4byte	0x50d7f33
    27d2:	be9e                	.2byte	0xbe9e
    27d4:	0f41                	.2byte	0xf41
    27d6:	7e5e                	.2byte	0x7e5e
    27d8:	8a7e                	.2byte	0x8a7e
    27da:	7f3a                	.2byte	0x7f3a
    27dc:	9d85                	.2byte	0x9d85
    27de:	bf0c                	.2byte	0xbf0c
    27e0:	ed0a                	.2byte	0xed0a
    27e2:	7ecc                	.2byte	0x7ecc
    27e4:	dd6a                	.2byte	0xdd6a
    27e6:	7f20                	.2byte	0x7f20
    27e8:	c1e6                	.2byte	0xc1e6
    27ea:	bf18                	.2byte	0xbf18
    27ec:	fa9e                	.2byte	0xfa9e
    27ee:	  	.8byte	0xbeefdeadbeef7ebf

000027f0 <data_begin>:
    27f0:	deadbeef          	jal	t4,fffdddda <_end+0xfffdb09a>
    27f4:	deadbeef          	jal	t4,fffdddde <_end+0xfffdb09e>
    27f8:	deadbeef          	jal	t4,fffddde2 <_end+0xfffdb0a2>
    27fc:	deadbeef          	jal	t4,fffddde6 <_end+0xfffdb0a6>
    2800:	deadbeef          	jal	t4,fffdddea <_end+0xfffdb0aa>
    2804:	deadbeef          	jal	t4,fffdddee <_end+0xfffdb0ae>
    2808:	deadbeef          	jal	t4,fffdddf2 <_end+0xfffdb0b2>
    280c:	deadbeef          	jal	t4,fffdddf6 <_end+0xfffdb0b6>
    2810:	deadbeef          	jal	t4,fffdddfa <_end+0xfffdb0ba>
    2814:	deadbeef          	jal	t4,fffdddfe <_end+0xfffdb0be>
    2818:	deadbeef          	jal	t4,fffdde02 <_end+0xfffdb0c2>
    281c:	deadbeef          	jal	t4,fffdde06 <_end+0xfffdb0c6>
    2820:	deadbeef          	jal	t4,fffdde0a <_end+0xfffdb0ca>
    2824:	deadbeef          	jal	t4,fffdde0e <_end+0xfffdb0ce>
    2828:	deadbeef          	jal	t4,fffdde12 <_end+0xfffdb0d2>
    282c:	deadbeef          	jal	t4,fffdde16 <_end+0xfffdb0d6>
    2830:	deadbeef          	jal	t4,fffdde1a <_end+0xfffdb0da>
    2834:	deadbeef          	jal	t4,fffdde1e <_end+0xfffdb0de>
    2838:	deadbeef          	jal	t4,fffdde22 <_end+0xfffdb0e2>
    283c:	deadbeef          	jal	t4,fffdde26 <_end+0xfffdb0e6>
    2840:	deadbeef          	jal	t4,fffdde2a <_end+0xfffdb0ea>
    2844:	deadbeef          	jal	t4,fffdde2e <_end+0xfffdb0ee>
    2848:	deadbeef          	jal	t4,fffdde32 <_end+0xfffdb0f2>
    284c:	deadbeef          	jal	t4,fffdde36 <_end+0xfffdb0f6>
    2850:	deadbeef          	jal	t4,fffdde3a <_end+0xfffdb0fa>
    2854:	deadbeef          	jal	t4,fffdde3e <_end+0xfffdb0fe>
    2858:	deadbeef          	jal	t4,fffdde42 <_end+0xfffdb102>
    285c:	deadbeef          	jal	t4,fffdde46 <_end+0xfffdb106>
    2860:	deadbeef          	jal	t4,fffdde4a <_end+0xfffdb10a>
    2864:	deadbeef          	jal	t4,fffdde4e <_end+0xfffdb10e>
    2868:	deadbeef          	jal	t4,fffdde52 <_end+0xfffdb112>
    286c:	deadbeef          	jal	t4,fffdde56 <_end+0xfffdb116>
    2870:	deadbeef          	jal	t4,fffdde5a <_end+0xfffdb11a>
    2874:	deadbeef          	jal	t4,fffdde5e <_end+0xfffdb11e>
    2878:	deadbeef          	jal	t4,fffdde62 <_end+0xfffdb122>
    287c:	deadbeef          	jal	t4,fffdde66 <_end+0xfffdb126>
    2880:	deadbeef          	jal	t4,fffdde6a <_end+0xfffdb12a>
    2884:	deadbeef          	jal	t4,fffdde6e <_end+0xfffdb12e>
    2888:	deadbeef          	jal	t4,fffdde72 <_end+0xfffdb132>
    288c:	deadbeef          	jal	t4,fffdde76 <_end+0xfffdb136>
    2890:	deadbeef          	jal	t4,fffdde7a <_end+0xfffdb13a>
    2894:	deadbeef          	jal	t4,fffdde7e <_end+0xfffdb13e>
    2898:	deadbeef          	jal	t4,fffdde82 <_end+0xfffdb142>
    289c:	deadbeef          	jal	t4,fffdde86 <_end+0xfffdb146>
    28a0:	deadbeef          	jal	t4,fffdde8a <_end+0xfffdb14a>
    28a4:	deadbeef          	jal	t4,fffdde8e <_end+0xfffdb14e>
    28a8:	deadbeef          	jal	t4,fffdde92 <_end+0xfffdb152>
    28ac:	deadbeef          	jal	t4,fffdde96 <_end+0xfffdb156>
    28b0:	deadbeef          	jal	t4,fffdde9a <_end+0xfffdb15a>
    28b4:	deadbeef          	jal	t4,fffdde9e <_end+0xfffdb15e>
    28b8:	deadbeef          	jal	t4,fffddea2 <_end+0xfffdb162>
    28bc:	deadbeef          	jal	t4,fffddea6 <_end+0xfffdb166>
    28c0:	deadbeef          	jal	t4,fffddeaa <_end+0xfffdb16a>
    28c4:	deadbeef          	jal	t4,fffddeae <_end+0xfffdb16e>
    28c8:	deadbeef          	jal	t4,fffddeb2 <_end+0xfffdb172>
    28cc:	deadbeef          	jal	t4,fffddeb6 <_end+0xfffdb176>
    28d0:	deadbeef          	jal	t4,fffddeba <_end+0xfffdb17a>
    28d4:	deadbeef          	jal	t4,fffddebe <_end+0xfffdb17e>
    28d8:	deadbeef          	jal	t4,fffddec2 <_end+0xfffdb182>
    28dc:	deadbeef          	jal	t4,fffddec6 <_end+0xfffdb186>
    28e0:	deadbeef          	jal	t4,fffddeca <_end+0xfffdb18a>
    28e4:	deadbeef          	jal	t4,fffddece <_end+0xfffdb18e>
    28e8:	deadbeef          	jal	t4,fffdded2 <_end+0xfffdb192>
    28ec:	deadbeef          	jal	t4,fffdded6 <_end+0xfffdb196>
    28f0:	deadbeef          	jal	t4,fffddeda <_end+0xfffdb19a>
    28f4:	deadbeef          	jal	t4,fffddede <_end+0xfffdb19e>
    28f8:	deadbeef          	jal	t4,fffddee2 <_end+0xfffdb1a2>
    28fc:	deadbeef          	jal	t4,fffddee6 <_end+0xfffdb1a6>
    2900:	deadbeef          	jal	t4,fffddeea <_end+0xfffdb1aa>
    2904:	deadbeef          	jal	t4,fffddeee <_end+0xfffdb1ae>
    2908:	deadbeef          	jal	t4,fffddef2 <_end+0xfffdb1b2>
    290c:	deadbeef          	jal	t4,fffddef6 <_end+0xfffdb1b6>
    2910:	deadbeef          	jal	t4,fffddefa <_end+0xfffdb1ba>
    2914:	deadbeef          	jal	t4,fffddefe <_end+0xfffdb1be>
    2918:	deadbeef          	jal	t4,fffddf02 <_end+0xfffdb1c2>
    291c:	deadbeef          	jal	t4,fffddf06 <_end+0xfffdb1c6>
    2920:	deadbeef          	jal	t4,fffddf0a <_end+0xfffdb1ca>
    2924:	deadbeef          	jal	t4,fffddf0e <_end+0xfffdb1ce>
    2928:	deadbeef          	jal	t4,fffddf12 <_end+0xfffdb1d2>
    292c:	deadbeef          	jal	t4,fffddf16 <_end+0xfffdb1d6>
    2930:	deadbeef          	jal	t4,fffddf1a <_end+0xfffdb1da>
    2934:	deadbeef          	jal	t4,fffddf1e <_end+0xfffdb1de>
    2938:	deadbeef          	jal	t4,fffddf22 <_end+0xfffdb1e2>
    293c:	deadbeef          	jal	t4,fffddf26 <_end+0xfffdb1e6>
    2940:	deadbeef          	jal	t4,fffddf2a <_end+0xfffdb1ea>
    2944:	deadbeef          	jal	t4,fffddf2e <_end+0xfffdb1ee>
    2948:	deadbeef          	jal	t4,fffddf32 <_end+0xfffdb1f2>
    294c:	deadbeef          	jal	t4,fffddf36 <_end+0xfffdb1f6>
    2950:	deadbeef          	jal	t4,fffddf3a <_end+0xfffdb1fa>
    2954:	deadbeef          	jal	t4,fffddf3e <_end+0xfffdb1fe>
    2958:	deadbeef          	jal	t4,fffddf42 <_end+0xfffdb202>
    295c:	deadbeef          	jal	t4,fffddf46 <_end+0xfffdb206>
    2960:	deadbeef          	jal	t4,fffddf4a <_end+0xfffdb20a>
    2964:	deadbeef          	jal	t4,fffddf4e <_end+0xfffdb20e>
    2968:	deadbeef          	jal	t4,fffddf52 <_end+0xfffdb212>
    296c:	deadbeef          	jal	t4,fffddf56 <_end+0xfffdb216>
    2970:	deadbeef          	jal	t4,fffddf5a <_end+0xfffdb21a>
    2974:	deadbeef          	jal	t4,fffddf5e <_end+0xfffdb21e>
    2978:	deadbeef          	jal	t4,fffddf62 <_end+0xfffdb222>
    297c:	deadbeef          	jal	t4,fffddf66 <_end+0xfffdb226>
    2980:	deadbeef          	jal	t4,fffddf6a <_end+0xfffdb22a>
    2984:	deadbeef          	jal	t4,fffddf6e <_end+0xfffdb22e>
    2988:	deadbeef          	jal	t4,fffddf72 <_end+0xfffdb232>
    298c:	deadbeef          	jal	t4,fffddf76 <_end+0xfffdb236>
    2990:	deadbeef          	jal	t4,fffddf7a <_end+0xfffdb23a>
    2994:	deadbeef          	jal	t4,fffddf7e <_end+0xfffdb23e>
    2998:	deadbeef          	jal	t4,fffddf82 <_end+0xfffdb242>
    299c:	deadbeef          	jal	t4,fffddf86 <_end+0xfffdb246>
    29a0:	deadbeef          	jal	t4,fffddf8a <_end+0xfffdb24a>
    29a4:	deadbeef          	jal	t4,fffddf8e <_end+0xfffdb24e>
    29a8:	deadbeef          	jal	t4,fffddf92 <_end+0xfffdb252>
    29ac:	deadbeef          	jal	t4,fffddf96 <_end+0xfffdb256>
    29b0:	deadbeef          	jal	t4,fffddf9a <_end+0xfffdb25a>
    29b4:	deadbeef          	jal	t4,fffddf9e <_end+0xfffdb25e>
    29b8:	deadbeef          	jal	t4,fffddfa2 <_end+0xfffdb262>
    29bc:	deadbeef          	jal	t4,fffddfa6 <_end+0xfffdb266>
    29c0:	deadbeef          	jal	t4,fffddfaa <_end+0xfffdb26a>
    29c4:	deadbeef          	jal	t4,fffddfae <_end+0xfffdb26e>
    29c8:	deadbeef          	jal	t4,fffddfb2 <_end+0xfffdb272>
    29cc:	deadbeef          	jal	t4,fffddfb6 <_end+0xfffdb276>
    29d0:	deadbeef          	jal	t4,fffddfba <_end+0xfffdb27a>
    29d4:	deadbeef          	jal	t4,fffddfbe <_end+0xfffdb27e>
    29d8:	deadbeef          	jal	t4,fffddfc2 <_end+0xfffdb282>
    29dc:	deadbeef          	jal	t4,fffddfc6 <_end+0xfffdb286>
    29e0:	deadbeef          	jal	t4,fffddfca <_end+0xfffdb28a>
    29e4:	deadbeef          	jal	t4,fffddfce <_end+0xfffdb28e>
    29e8:	deadbeef          	jal	t4,fffddfd2 <_end+0xfffdb292>
    29ec:	deadbeef          	jal	t4,fffddfd6 <_end+0xfffdb296>
    29f0:	deadbeef          	jal	t4,fffddfda <_end+0xfffdb29a>
    29f4:	deadbeef          	jal	t4,fffddfde <_end+0xfffdb29e>
    29f8:	deadbeef          	jal	t4,fffddfe2 <_end+0xfffdb2a2>
    29fc:	deadbeef          	jal	t4,fffddfe6 <_end+0xfffdb2a6>
    2a00:	deadbeef          	jal	t4,fffddfea <_end+0xfffdb2aa>
    2a04:	deadbeef          	jal	t4,fffddfee <_end+0xfffdb2ae>
    2a08:	deadbeef          	jal	t4,fffddff2 <_end+0xfffdb2b2>
    2a0c:	deadbeef          	jal	t4,fffddff6 <_end+0xfffdb2b6>
    2a10:	deadbeef          	jal	t4,fffddffa <_end+0xfffdb2ba>
    2a14:	deadbeef          	jal	t4,fffddffe <_end+0xfffdb2be>
    2a18:	deadbeef          	jal	t4,fffde002 <_end+0xfffdb2c2>
    2a1c:	deadbeef          	jal	t4,fffde006 <_end+0xfffdb2c6>
    2a20:	deadbeef          	jal	t4,fffde00a <_end+0xfffdb2ca>
    2a24:	deadbeef          	jal	t4,fffde00e <_end+0xfffdb2ce>
    2a28:	deadbeef          	jal	t4,fffde012 <_end+0xfffdb2d2>
    2a2c:	deadbeef          	jal	t4,fffde016 <_end+0xfffdb2d6>
    2a30:	deadbeef          	jal	t4,fffde01a <_end+0xfffdb2da>
    2a34:	deadbeef          	jal	t4,fffde01e <_end+0xfffdb2de>
    2a38:	deadbeef          	jal	t4,fffde022 <_end+0xfffdb2e2>
    2a3c:	deadbeef          	jal	t4,fffde026 <_end+0xfffdb2e6>
    2a40:	deadbeef          	jal	t4,fffde02a <_end+0xfffdb2ea>
    2a44:	deadbeef          	jal	t4,fffde02e <_end+0xfffdb2ee>
    2a48:	deadbeef          	jal	t4,fffde032 <_end+0xfffdb2f2>
    2a4c:	deadbeef          	jal	t4,fffde036 <_end+0xfffdb2f6>
    2a50:	deadbeef          	jal	t4,fffde03a <_end+0xfffdb2fa>
    2a54:	deadbeef          	jal	t4,fffde03e <_end+0xfffdb2fe>
    2a58:	deadbeef          	jal	t4,fffde042 <_end+0xfffdb302>
    2a5c:	deadbeef          	jal	t4,fffde046 <_end+0xfffdb306>
    2a60:	deadbeef          	jal	t4,fffde04a <_end+0xfffdb30a>
    2a64:	deadbeef          	jal	t4,fffde04e <_end+0xfffdb30e>
    2a68:	deadbeef          	jal	t4,fffde052 <_end+0xfffdb312>
    2a6c:	deadbeef          	jal	t4,fffde056 <_end+0xfffdb316>
    2a70:	deadbeef          	jal	t4,fffde05a <_end+0xfffdb31a>
    2a74:	deadbeef          	jal	t4,fffde05e <_end+0xfffdb31e>
    2a78:	deadbeef          	jal	t4,fffde062 <_end+0xfffdb322>
    2a7c:	deadbeef          	jal	t4,fffde066 <_end+0xfffdb326>
    2a80:	deadbeef          	jal	t4,fffde06a <_end+0xfffdb32a>
    2a84:	deadbeef          	jal	t4,fffde06e <_end+0xfffdb32e>
    2a88:	deadbeef          	jal	t4,fffde072 <_end+0xfffdb332>
    2a8c:	deadbeef          	jal	t4,fffde076 <_end+0xfffdb336>
    2a90:	deadbeef          	jal	t4,fffde07a <_end+0xfffdb33a>
    2a94:	deadbeef          	jal	t4,fffde07e <_end+0xfffdb33e>
    2a98:	deadbeef          	jal	t4,fffde082 <_end+0xfffdb342>
    2a9c:	deadbeef          	jal	t4,fffde086 <_end+0xfffdb346>
    2aa0:	deadbeef          	jal	t4,fffde08a <_end+0xfffdb34a>
    2aa4:	deadbeef          	jal	t4,fffde08e <_end+0xfffdb34e>
    2aa8:	deadbeef          	jal	t4,fffde092 <_end+0xfffdb352>
    2aac:	deadbeef          	jal	t4,fffde096 <_end+0xfffdb356>
    2ab0:	deadbeef          	jal	t4,fffde09a <_end+0xfffdb35a>
    2ab4:	deadbeef          	jal	t4,fffde09e <_end+0xfffdb35e>
    2ab8:	deadbeef          	jal	t4,fffde0a2 <_end+0xfffdb362>
    2abc:	deadbeef          	jal	t4,fffde0a6 <_end+0xfffdb366>
    2ac0:	deadbeef          	jal	t4,fffde0aa <_end+0xfffdb36a>
    2ac4:	deadbeef          	jal	t4,fffde0ae <_end+0xfffdb36e>
    2ac8:	deadbeef          	jal	t4,fffde0b2 <_end+0xfffdb372>
    2acc:	deadbeef          	jal	t4,fffde0b6 <_end+0xfffdb376>
    2ad0:	deadbeef          	jal	t4,fffde0ba <_end+0xfffdb37a>
    2ad4:	deadbeef          	jal	t4,fffde0be <_end+0xfffdb37e>
    2ad8:	deadbeef          	jal	t4,fffde0c2 <_end+0xfffdb382>
    2adc:	deadbeef          	jal	t4,fffde0c6 <_end+0xfffdb386>
    2ae0:	deadbeef          	jal	t4,fffde0ca <_end+0xfffdb38a>
    2ae4:	deadbeef          	jal	t4,fffde0ce <_end+0xfffdb38e>
    2ae8:	deadbeef          	jal	t4,fffde0d2 <_end+0xfffdb392>
    2aec:	deadbeef          	jal	t4,fffde0d6 <_end+0xfffdb396>
    2af0:	deadbeef          	jal	t4,fffde0da <_end+0xfffdb39a>
    2af4:	deadbeef          	jal	t4,fffde0de <_end+0xfffdb39e>
    2af8:	deadbeef          	jal	t4,fffde0e2 <_end+0xfffdb3a2>
    2afc:	deadbeef          	jal	t4,fffde0e6 <_end+0xfffdb3a6>
    2b00:	deadbeef          	jal	t4,fffde0ea <_end+0xfffdb3aa>
    2b04:	deadbeef          	jal	t4,fffde0ee <_end+0xfffdb3ae>
    2b08:	deadbeef          	jal	t4,fffde0f2 <_end+0xfffdb3b2>
    2b0c:	deadbeef          	jal	t4,fffde0f6 <_end+0xfffdb3b6>
    2b10:	deadbeef          	jal	t4,fffde0fa <_end+0xfffdb3ba>
    2b14:	deadbeef          	jal	t4,fffde0fe <_end+0xfffdb3be>
    2b18:	deadbeef          	jal	t4,fffde102 <_end+0xfffdb3c2>
    2b1c:	deadbeef          	jal	t4,fffde106 <_end+0xfffdb3c6>
    2b20:	deadbeef          	jal	t4,fffde10a <_end+0xfffdb3ca>
    2b24:	deadbeef          	jal	t4,fffde10e <_end+0xfffdb3ce>
    2b28:	deadbeef          	jal	t4,fffde112 <_end+0xfffdb3d2>
    2b2c:	deadbeef          	jal	t4,fffde116 <_end+0xfffdb3d6>
    2b30:	deadbeef          	jal	t4,fffde11a <_end+0xfffdb3da>
    2b34:	deadbeef          	jal	t4,fffde11e <_end+0xfffdb3de>
    2b38:	deadbeef          	jal	t4,fffde122 <_end+0xfffdb3e2>
    2b3c:	deadbeef          	jal	t4,fffde126 <_end+0xfffdb3e6>
    2b40:	deadbeef          	jal	t4,fffde12a <_end+0xfffdb3ea>
    2b44:	deadbeef          	jal	t4,fffde12e <_end+0xfffdb3ee>
    2b48:	deadbeef          	jal	t4,fffde132 <_end+0xfffdb3f2>
    2b4c:	deadbeef          	jal	t4,fffde136 <_end+0xfffdb3f6>
    2b50:	deadbeef          	jal	t4,fffde13a <_end+0xfffdb3fa>
    2b54:	deadbeef          	jal	t4,fffde13e <_end+0xfffdb3fe>
    2b58:	deadbeef          	jal	t4,fffde142 <_end+0xfffdb402>
    2b5c:	deadbeef          	jal	t4,fffde146 <_end+0xfffdb406>
    2b60:	deadbeef          	jal	t4,fffde14a <_end+0xfffdb40a>
    2b64:	deadbeef          	jal	t4,fffde14e <_end+0xfffdb40e>
    2b68:	deadbeef          	jal	t4,fffde152 <_end+0xfffdb412>
    2b6c:	deadbeef          	jal	t4,fffde156 <_end+0xfffdb416>
    2b70:	deadbeef          	jal	t4,fffde15a <_end+0xfffdb41a>
    2b74:	deadbeef          	jal	t4,fffde15e <_end+0xfffdb41e>
    2b78:	deadbeef          	jal	t4,fffde162 <_end+0xfffdb422>
    2b7c:	deadbeef          	jal	t4,fffde166 <_end+0xfffdb426>
    2b80:	deadbeef          	jal	t4,fffde16a <_end+0xfffdb42a>
    2b84:	deadbeef          	jal	t4,fffde16e <_end+0xfffdb42e>
    2b88:	deadbeef          	jal	t4,fffde172 <_end+0xfffdb432>
    2b8c:	deadbeef          	jal	t4,fffde176 <_end+0xfffdb436>
    2b90:	deadbeef          	jal	t4,fffde17a <_end+0xfffdb43a>
    2b94:	deadbeef          	jal	t4,fffde17e <_end+0xfffdb43e>
    2b98:	deadbeef          	jal	t4,fffde182 <_end+0xfffdb442>
    2b9c:	deadbeef          	jal	t4,fffde186 <_end+0xfffdb446>
    2ba0:	deadbeef          	jal	t4,fffde18a <_end+0xfffdb44a>
    2ba4:	deadbeef          	jal	t4,fffde18e <_end+0xfffdb44e>
    2ba8:	deadbeef          	jal	t4,fffde192 <_end+0xfffdb452>
    2bac:	deadbeef          	jal	t4,fffde196 <_end+0xfffdb456>
    2bb0:	deadbeef          	jal	t4,fffde19a <_end+0xfffdb45a>
    2bb4:	deadbeef          	jal	t4,fffde19e <_end+0xfffdb45e>
    2bb8:	deadbeef          	jal	t4,fffde1a2 <_end+0xfffdb462>
    2bbc:	deadbeef          	jal	t4,fffde1a6 <_end+0xfffdb466>
    2bc0:	deadbeef          	jal	t4,fffde1aa <_end+0xfffdb46a>
    2bc4:	deadbeef          	jal	t4,fffde1ae <_end+0xfffdb46e>
    2bc8:	deadbeef          	jal	t4,fffde1b2 <_end+0xfffdb472>
    2bcc:	deadbeef          	jal	t4,fffde1b6 <_end+0xfffdb476>
    2bd0:	deadbeef          	jal	t4,fffde1ba <_end+0xfffdb47a>
    2bd4:	deadbeef          	jal	t4,fffde1be <_end+0xfffdb47e>
    2bd8:	deadbeef          	jal	t4,fffde1c2 <_end+0xfffdb482>
    2bdc:	deadbeef          	jal	t4,fffde1c6 <_end+0xfffdb486>
    2be0:	deadbeef          	jal	t4,fffde1ca <_end+0xfffdb48a>
    2be4:	deadbeef          	jal	t4,fffde1ce <_end+0xfffdb48e>
    2be8:	deadbeef          	jal	t4,fffde1d2 <_end+0xfffdb492>
    2bec:	deadbeef          	jal	t4,fffde1d6 <_end+0xfffdb496>
    2bf0:	deadbeef          	jal	t4,fffde1da <_end+0xfffdb49a>
    2bf4:	deadbeef          	jal	t4,fffde1de <_end+0xfffdb49e>
    2bf8:	deadbeef          	jal	t4,fffde1e2 <_end+0xfffdb4a2>
    2bfc:	deadbeef          	jal	t4,fffde1e6 <_end+0xfffdb4a6>
    2c00:	deadbeef          	jal	t4,fffde1ea <_end+0xfffdb4aa>
    2c04:	deadbeef          	jal	t4,fffde1ee <_end+0xfffdb4ae>
    2c08:	deadbeef          	jal	t4,fffde1f2 <_end+0xfffdb4b2>
    2c0c:	deadbeef          	jal	t4,fffde1f6 <_end+0xfffdb4b6>
    2c10:	deadbeef          	jal	t4,fffde1fa <_end+0xfffdb4ba>
    2c14:	deadbeef          	jal	t4,fffde1fe <_end+0xfffdb4be>
    2c18:	deadbeef          	jal	t4,fffde202 <_end+0xfffdb4c2>
    2c1c:	deadbeef          	jal	t4,fffde206 <_end+0xfffdb4c6>
    2c20:	deadbeef          	jal	t4,fffde20a <_end+0xfffdb4ca>
    2c24:	deadbeef          	jal	t4,fffde20e <_end+0xfffdb4ce>
    2c28:	deadbeef          	jal	t4,fffde212 <_end+0xfffdb4d2>
    2c2c:	deadbeef          	jal	t4,fffde216 <_end+0xfffdb4d6>
    2c30:	deadbeef          	jal	t4,fffde21a <_end+0xfffdb4da>
    2c34:	deadbeef          	jal	t4,fffde21e <_end+0xfffdb4de>
    2c38:	deadbeef          	jal	t4,fffde222 <_end+0xfffdb4e2>
    2c3c:	deadbeef          	jal	t4,fffde226 <_end+0xfffdb4e6>
    2c40:	deadbeef          	jal	t4,fffde22a <_end+0xfffdb4ea>
    2c44:	deadbeef          	jal	t4,fffde22e <_end+0xfffdb4ee>
    2c48:	deadbeef          	jal	t4,fffde232 <_end+0xfffdb4f2>
    2c4c:	deadbeef          	jal	t4,fffde236 <_end+0xfffdb4f6>
    2c50:	deadbeef          	jal	t4,fffde23a <_end+0xfffdb4fa>
    2c54:	deadbeef          	jal	t4,fffde23e <_end+0xfffdb4fe>
    2c58:	deadbeef          	jal	t4,fffde242 <_end+0xfffdb502>
    2c5c:	deadbeef          	jal	t4,fffde246 <_end+0xfffdb506>
    2c60:	deadbeef          	jal	t4,fffde24a <_end+0xfffdb50a>
    2c64:	deadbeef          	jal	t4,fffde24e <_end+0xfffdb50e>
    2c68:	deadbeef          	jal	t4,fffde252 <_end+0xfffdb512>
    2c6c:	deadbeef          	jal	t4,fffde256 <_end+0xfffdb516>
    2c70:	deadbeef          	jal	t4,fffde25a <_end+0xfffdb51a>
    2c74:	deadbeef          	jal	t4,fffde25e <_end+0xfffdb51e>
    2c78:	deadbeef          	jal	t4,fffde262 <_end+0xfffdb522>
    2c7c:	deadbeef          	jal	t4,fffde266 <_end+0xfffdb526>
    2c80:	deadbeef          	jal	t4,fffde26a <_end+0xfffdb52a>
    2c84:	deadbeef          	jal	t4,fffde26e <_end+0xfffdb52e>
    2c88:	deadbeef          	jal	t4,fffde272 <_end+0xfffdb532>
    2c8c:	deadbeef          	jal	t4,fffde276 <_end+0xfffdb536>
    2c90:	deadbeef          	jal	t4,fffde27a <_end+0xfffdb53a>
    2c94:	deadbeef          	jal	t4,fffde27e <_end+0xfffdb53e>
    2c98:	deadbeef          	jal	t4,fffde282 <_end+0xfffdb542>
    2c9c:	deadbeef          	jal	t4,fffde286 <_end+0xfffdb546>
    2ca0:	deadbeef          	jal	t4,fffde28a <_end+0xfffdb54a>
    2ca4:	deadbeef          	jal	t4,fffde28e <_end+0xfffdb54e>
    2ca8:	deadbeef          	jal	t4,fffde292 <_end+0xfffdb552>
    2cac:	deadbeef          	jal	t4,fffde296 <_end+0xfffdb556>
    2cb0:	deadbeef          	jal	t4,fffde29a <_end+0xfffdb55a>
    2cb4:	deadbeef          	jal	t4,fffde29e <_end+0xfffdb55e>
    2cb8:	deadbeef          	jal	t4,fffde2a2 <_end+0xfffdb562>
    2cbc:	deadbeef          	jal	t4,fffde2a6 <_end+0xfffdb566>
    2cc0:	deadbeef          	jal	t4,fffde2aa <_end+0xfffdb56a>
    2cc4:	deadbeef          	jal	t4,fffde2ae <_end+0xfffdb56e>
    2cc8:	deadbeef          	jal	t4,fffde2b2 <_end+0xfffdb572>
    2ccc:	deadbeef          	jal	t4,fffde2b6 <_end+0xfffdb576>
    2cd0:	deadbeef          	jal	t4,fffde2ba <_end+0xfffdb57a>
    2cd4:	deadbeef          	jal	t4,fffde2be <_end+0xfffdb57e>
    2cd8:	deadbeef          	jal	t4,fffde2c2 <_end+0xfffdb582>
    2cdc:	deadbeef          	jal	t4,fffde2c6 <_end+0xfffdb586>
    2ce0:	deadbeef          	jal	t4,fffde2ca <_end+0xfffdb58a>
    2ce4:	deadbeef          	jal	t4,fffde2ce <_end+0xfffdb58e>
    2ce8:	deadbeef          	jal	t4,fffde2d2 <_end+0xfffdb592>
    2cec:	deadbeef          	jal	t4,fffde2d6 <_end+0xfffdb596>
    2cf0:	deadbeef          	jal	t4,fffde2da <_end+0xfffdb59a>
    2cf4:	deadbeef          	jal	t4,fffde2de <_end+0xfffdb59e>
    2cf8:	deadbeef          	jal	t4,fffde2e2 <_end+0xfffdb5a2>
    2cfc:	deadbeef          	jal	t4,fffde2e6 <_end+0xfffdb5a6>
    2d00:	deadbeef          	jal	t4,fffde2ea <_end+0xfffdb5aa>
    2d04:	deadbeef          	jal	t4,fffde2ee <_end+0xfffdb5ae>
    2d08:	deadbeef          	jal	t4,fffde2f2 <_end+0xfffdb5b2>
    2d0c:	deadbeef          	jal	t4,fffde2f6 <_end+0xfffdb5b6>
    2d10:	deadbeef          	jal	t4,fffde2fa <_end+0xfffdb5ba>
    2d14:	deadbeef          	jal	t4,fffde2fe <_end+0xfffdb5be>
    2d18:	deadbeef          	jal	t4,fffde302 <_end+0xfffdb5c2>
    2d1c:	deadbeef          	jal	t4,fffde306 <_end+0xfffdb5c6>
    2d20:	deadbeef          	jal	t4,fffde30a <_end+0xfffdb5ca>
    2d24:	deadbeef          	jal	t4,fffde30e <_end+0xfffdb5ce>
    2d28:	deadbeef          	jal	t4,fffde312 <_end+0xfffdb5d2>
    2d2c:	deadbeef          	jal	t4,fffde316 <_end+0xfffdb5d6>
    2d30:	deadbeef          	jal	t4,fffde31a <_end+0xfffdb5da>
    2d34:	deadbeef          	jal	t4,fffde31e <_end+0xfffdb5de>
	...

Desensamblado de la sección .riscv.attributes:

00000000 <.riscv.attributes>:
   0:	2241                	.2byte	0x2241
   2:	0000                	.2byte	0x0
   4:	7200                	.2byte	0x7200
   6:	7369                	.2byte	0x7369
   8:	01007663          	bgeu	zero,a6,14 <rvtest_entry_point+0x14>
   c:	0018                	.2byte	0x18
   e:	0000                	.2byte	0x0
  10:	7205                	.2byte	0x7205
  12:	3376                	.2byte	0x3376
  14:	6932                	.2byte	0x6932
  16:	7032                	.2byte	0x7032
  18:	5f30                	.2byte	0x5f30
  1a:	3266                	.2byte	0x3266
  1c:	3070                	.2byte	0x3070
  1e:	0800                	.2byte	0x800
  20:	0a01                	.2byte	0xa01
  22:	0b              	Address 0x22 is out of bounds.

