
/home/alejandro/Escritorio/test_riscv2.5/riscv-compliance/work/rv32i_m/F/fnmsub_b14-01.elf:     formato del fichero elf32-littleriscv


Desensamblado de la sección .text.init:

00000000 <rvtest_entry_point>:
   0:	feedc0b7          	lui	ra,0xfeedc
   4:	ead08093          	add	ra,ra,-339 # feedbead <_end+0xfeeda84d>
   8:	ff76e137          	lui	sp,0xff76e
   c:	f5610113          	add	sp,sp,-170 # ff76df56 <_end+0xff76c8f6>
  10:	7fbb71b7          	lui	gp,0x7fbb7
  14:	fab18193          	add	gp,gp,-85 # 7fbb6fab <_end+0x7fbb594b>
  18:	bfddb237          	lui	tp,0xbfddb
  1c:	7d520213          	add	tp,tp,2005 # bfddb7d5 <_end+0xbfdda175>
  20:	00000297          	auipc	t0,0x0
  24:	0d828293          	add	t0,t0,216 # f8 <rvtest_code_begin>
  28:	00001317          	auipc	t1,0x1
  2c:	fd830313          	add	t1,t1,-40 # 1000 <rvtest_data_begin>
  30:	b7fbb3b7          	lui	t2,0xb7fbb
  34:	6fa38393          	add	t2,t2,1786 # b7fbb6fa <_end+0xb7fba09a>
  38:	5bfde437          	lui	s0,0x5bfde
  3c:	b7d40413          	add	s0,s0,-1155 # 5bfddb7d <_end+0x5bfdc51d>
  40:	adfef4b7          	lui	s1,0xadfef
  44:	dbe48493          	add	s1,s1,-578 # adfeedbe <_end+0xadfed75e>
  48:	56ff7537          	lui	a0,0x56ff7
  4c:	6df50513          	add	a0,a0,1759 # 56ff76df <_end+0x56ff607f>
  50:	ab7fc5b7          	lui	a1,0xab7fc
  54:	b6f58593          	add	a1,a1,-1169 # ab7fbb6f <_end+0xab7fa50f>
  58:	d5bfe637          	lui	a2,0xd5bfe
  5c:	db760613          	add	a2,a2,-585 # d5bfddb7 <_end+0xd5bfc757>
  60:	eadff6b7          	lui	a3,0xeadff
  64:	edb68693          	add	a3,a3,-293 # eadfeedb <_end+0xeadfd87b>
  68:	f56ff737          	lui	a4,0xf56ff
  6c:	76d70713          	add	a4,a4,1901 # f56ff76d <_end+0xf56fe10d>
  70:	fab807b7          	lui	a5,0xfab80
  74:	bb678793          	add	a5,a5,-1098 # fab7fbb6 <_end+0xfab7e556>
  78:	7d5c0837          	lui	a6,0x7d5c0
  7c:	ddb80813          	add	a6,a6,-549 # 7d5bfddb <_end+0x7d5be77b>
  80:	beae08b7          	lui	a7,0xbeae0
  84:	eed88893          	add	a7,a7,-275 # beadfeed <_end+0xbeade88d>
  88:	df570937          	lui	s2,0xdf570
  8c:	f7690913          	add	s2,s2,-138 # df56ff76 <_end+0xdf56e916>
  90:	6fab89b7          	lui	s3,0x6fab8
  94:	fbb98993          	add	s3,s3,-69 # 6fab7fbb <_end+0x6fab695b>
  98:	b7d5ca37          	lui	s4,0xb7d5c
  9c:	fdda0a13          	add	s4,s4,-35 # b7d5bfdd <_end+0xb7d5a97d>
  a0:	dbeaeab7          	lui	s5,0xdbeae
  a4:	feea8a93          	add	s5,s5,-18 # dbeadfee <_end+0xdbeac98e>
  a8:	6df57b37          	lui	s6,0x6df57
  ac:	ff7b0b13          	add	s6,s6,-9 # 6df56ff7 <_end+0x6df55997>
  b0:	b6fabbb7          	lui	s7,0xb6fab
  b4:	7fbb8b93          	add	s7,s7,2043 # b6fab7fb <_end+0xb6faa19b>
  b8:	db7d6c37          	lui	s8,0xdb7d6
  bc:	bfdc0c13          	add	s8,s8,-1027 # db7d5bfd <_end+0xdb7d459d>
  c0:	edbebcb7          	lui	s9,0xedbeb
  c4:	dfec8c93          	add	s9,s9,-514 # edbeadfe <_end+0xedbe979e>
  c8:	76df5d37          	lui	s10,0x76df5
  cc:	6ffd0d13          	add	s10,s10,1791 # 76df56ff <_end+0x76df409f>
  d0:	bb6fbdb7          	lui	s11,0xbb6fb
  d4:	b7fd8d93          	add	s11,s11,-1153 # bb6fab7f <_end+0xbb6f951f>
  d8:	ddb7de37          	lui	t3,0xddb7d
  dc:	5bfe0e13          	add	t3,t3,1471 # ddb7d5bf <_end+0xddb7bf5f>
  e0:	eedbfeb7          	lui	t4,0xeedbf
  e4:	adfe8e93          	add	t4,t4,-1313 # eedbeadf <_end+0xeedbd47f>
  e8:	f76dff37          	lui	t5,0xf76df
  ec:	56ff0f13          	add	t5,t5,1391 # f76df56f <_end+0xf76ddf0f>
  f0:	fbb70fb7          	lui	t6,0xfbb70
  f4:	ab7f8f93          	add	t6,t6,-1353 # fbb6fab7 <_end+0xfbb6e457>

000000f8 <rvtest_code_begin>:
  f8:	00002537          	lui	a0,0x2
  fc:	30052073          	csrs	mstatus,a0
 100:	00001817          	auipc	a6,0x1
 104:	f0480813          	add	a6,a6,-252 # 1004 <test_fp>
 108:	00001797          	auipc	a5,0x1
 10c:	2c878793          	add	a5,a5,712 # 13d0 <data_begin>

00000110 <inst_0>:
 110:	00082087          	flw	ft1,0(a6)
 114:	00482e87          	flw	ft9,4(a6)
 118:	00882007          	flw	ft0,8(a6)
 11c:	00205073          	fsrmi	zero,0
 120:	01d0f0cb          	fnmsub.s	ft1,ft1,ft9,ft0
 124:	001028f3          	frflags	a7
 128:	0017a027          	fsw	ft1,0(a5)
 12c:	0117a223          	sw	a7,4(a5)

00000130 <inst_1>:
 130:	00c82d87          	flw	fs11,12(a6)
 134:	01082307          	flw	ft6,16(a6)
 138:	01482107          	flw	ft2,20(a6)
 13c:	00205073          	fsrmi	zero,0
 140:	106df14b          	fnmsub.s	ft2,fs11,ft6,ft2
 144:	001028f3          	frflags	a7
 148:	0027a427          	fsw	ft2,8(a5)
 14c:	0117a623          	sw	a7,12(a5)

00000150 <inst_2>:
 150:	01882c87          	flw	fs9,24(a6)
 154:	01c82407          	flw	fs0,28(a6)
 158:	02082587          	flw	fa1,32(a6)
 15c:	00205073          	fsrmi	zero,0
 160:	588cf94b          	fnmsub.s	fs2,fs9,fs0,fa1
 164:	001028f3          	frflags	a7
 168:	0127a827          	fsw	fs2,16(a5)
 16c:	0117aa23          	sw	a7,20(a5)

00000170 <inst_3>:
 170:	02482907          	flw	fs2,36(a6)
 174:	02882907          	flw	fs2,40(a6)
 178:	02c82d07          	flw	fs10,44(a6)
 17c:	00205073          	fsrmi	zero,0
 180:	d1297ecb          	fnmsub.s	ft9,fs2,fs2,fs10
 184:	001028f3          	frflags	a7
 188:	01d7ac27          	fsw	ft9,24(a5)
 18c:	0117ae23          	sw	a7,28(a5)

00000190 <inst_4>:
 190:	03082387          	flw	ft7,48(a6)
 194:	03482387          	flw	ft7,52(a6)
 198:	03882387          	flw	ft7,56(a6)
 19c:	00205073          	fsrmi	zero,0
 1a0:	3873f3cb          	fnmsub.s	ft7,ft7,ft7,ft7
 1a4:	001028f3          	frflags	a7
 1a8:	0277a027          	fsw	ft7,32(a5)
 1ac:	0317a223          	sw	a7,36(a5)

000001b0 <inst_5>:
 1b0:	03c82487          	flw	fs1,60(a6)
 1b4:	04082507          	flw	fa0,64(a6)
 1b8:	04482507          	flw	fa0,68(a6)
 1bc:	00205073          	fsrmi	zero,0
 1c0:	50a4f54b          	fnmsub.s	fa0,fs1,fa0,fa0
 1c4:	001028f3          	frflags	a7
 1c8:	02a7a427          	fsw	fa0,40(a5)
 1cc:	0317a623          	sw	a7,44(a5)

000001d0 <inst_6>:
 1d0:	04882f87          	flw	ft11,72(a6)
 1d4:	04c82f87          	flw	ft11,76(a6)
 1d8:	05082707          	flw	fa4,80(a6)
 1dc:	00205073          	fsrmi	zero,0
 1e0:	71ffffcb          	fnmsub.s	ft11,ft11,ft11,fa4
 1e4:	001028f3          	frflags	a7
 1e8:	03f7a827          	fsw	ft11,48(a5)
 1ec:	0317aa23          	sw	a7,52(a5)

000001f0 <inst_7>:
 1f0:	05482307          	flw	ft6,84(a6)
 1f4:	05882f07          	flw	ft10,88(a6)
 1f8:	05c82307          	flw	ft6,92(a6)
 1fc:	00205073          	fsrmi	zero,0
 200:	31e3784b          	fnmsub.s	fa6,ft6,ft10,ft6
 204:	001028f3          	frflags	a7
 208:	0307ac27          	fsw	fa6,56(a5)
 20c:	0317ae23          	sw	a7,60(a5)

00000210 <inst_8>:
 210:	06082007          	flw	ft0,96(a6)
 214:	06482a87          	flw	fs5,100(a6)
 218:	06882a87          	flw	fs5,104(a6)
 21c:	00205073          	fsrmi	zero,0
 220:	a95075cb          	fnmsub.s	fa1,ft0,fs5,fs5
 224:	001028f3          	frflags	a7
 228:	04b7a027          	fsw	fa1,64(a5)
 22c:	0517a223          	sw	a7,68(a5)

00000230 <inst_9>:
 230:	06c82187          	flw	ft3,108(a6)
 234:	07082187          	flw	ft3,112(a6)
 238:	07482187          	flw	ft3,116(a6)
 23c:	00205073          	fsrmi	zero,0
 240:	1831fc4b          	fnmsub.s	fs8,ft3,ft3,ft3
 244:	001028f3          	frflags	a7
 248:	0587a427          	fsw	fs8,72(a5)
 24c:	0517a623          	sw	a7,76(a5)

00000250 <inst_10>:
 250:	07882e07          	flw	ft8,120(a6)
 254:	07c82207          	flw	ft4,124(a6)
 258:	08082e07          	flw	ft8,128(a6)
 25c:	00205073          	fsrmi	zero,0
 260:	e04e7e4b          	fnmsub.s	ft8,ft8,ft4,ft8
 264:	001028f3          	frflags	a7
 268:	05c7a827          	fsw	ft8,80(a5)
 26c:	0517aa23          	sw	a7,84(a5)

00000270 <inst_11>:
 270:	08482a87          	flw	fs5,132(a6)
 274:	08882687          	flw	fa3,136(a6)
 278:	08c82907          	flw	fs2,140(a6)
 27c:	00205073          	fsrmi	zero,0
 280:	90daf6cb          	fnmsub.s	fa3,fs5,fa3,fs2
 284:	001028f3          	frflags	a7
 288:	04d7ac27          	fsw	fa3,88(a5)
 28c:	0517ae23          	sw	a7,92(a5)

00000290 <inst_12>:
 290:	09082f07          	flw	ft10,144(a6)
 294:	09482b07          	flw	fs6,148(a6)
 298:	09882607          	flw	fa2,152(a6)
 29c:	00205073          	fsrmi	zero,0
 2a0:	616f71cb          	fnmsub.s	ft3,ft10,fs6,fa2
 2a4:	001028f3          	frflags	a7
 2a8:	0637a027          	fsw	ft3,96(a5)
 2ac:	0717a223          	sw	a7,100(a5)

000002b0 <inst_13>:
 2b0:	09c82107          	flw	ft2,156(a6)
 2b4:	0a082587          	flw	fa1,160(a6)
 2b8:	0a482e87          	flw	ft9,164(a6)
 2bc:	00205073          	fsrmi	zero,0
 2c0:	e8b1704b          	fnmsub.s	ft0,ft2,fa1,ft9
 2c4:	001028f3          	frflags	a7
 2c8:	0607a427          	fsw	ft0,104(a5)
 2cc:	0717a623          	sw	a7,108(a5)

000002d0 <inst_14>:
 2d0:	0a882e87          	flw	ft9,168(a6)
 2d4:	0ac82c07          	flw	fs8,172(a6)
 2d8:	0b082d87          	flw	fs11,176(a6)
 2dc:	00205073          	fsrmi	zero,0
 2e0:	d98ef24b          	fnmsub.s	ft4,ft9,fs8,fs11
 2e4:	001028f3          	frflags	a7
 2e8:	0647a827          	fsw	ft4,112(a5)
 2ec:	0717aa23          	sw	a7,116(a5)

000002f0 <inst_15>:
 2f0:	0b482587          	flw	fa1,180(a6)
 2f4:	0b882d87          	flw	fs11,184(a6)
 2f8:	0bc82887          	flw	fa7,188(a6)
 2fc:	00205073          	fsrmi	zero,0
 300:	89b5f4cb          	fnmsub.s	fs1,fa1,fs11,fa7
 304:	001028f3          	frflags	a7
 308:	0697ac27          	fsw	fs1,120(a5)
 30c:	0717ae23          	sw	a7,124(a5)

00000310 <inst_16>:
 310:	0c082287          	flw	ft5,192(a6)
 314:	0c482787          	flw	fa5,196(a6)
 318:	0c882a07          	flw	fs4,200(a6)
 31c:	00205073          	fsrmi	zero,0
 320:	a0f2f64b          	fnmsub.s	fa2,ft5,fa5,fs4
 324:	001028f3          	frflags	a7
 328:	08c7a027          	fsw	fa2,128(a5)
 32c:	0917a223          	sw	a7,132(a5)

00000330 <inst_17>:
 330:	0cc82207          	flw	ft4,204(a6)
 334:	0d082c87          	flw	fs9,208(a6)
 338:	0d482b87          	flw	fs7,212(a6)
 33c:	00205073          	fsrmi	zero,0
 340:	b992744b          	fnmsub.s	fs0,ft4,fs9,fs7
 344:	001028f3          	frflags	a7
 348:	0887a427          	fsw	fs0,136(a5)
 34c:	0917a623          	sw	a7,140(a5)

00000350 <inst_18>:
 350:	0d882607          	flw	fa2,216(a6)
 354:	0dc82487          	flw	fs1,220(a6)
 358:	0e082787          	flw	fa5,224(a6)
 35c:	00205073          	fsrmi	zero,0
 360:	78967ccb          	fnmsub.s	fs9,fa2,fs1,fa5
 364:	001028f3          	frflags	a7
 368:	0997a827          	fsw	fs9,144(a5)
 36c:	0917aa23          	sw	a7,148(a5)

00000370 <inst_19>:
 370:	0e482987          	flw	fs3,228(a6)
 374:	0e882607          	flw	fa2,232(a6)
 378:	0ec82087          	flw	ft1,236(a6)
 37c:	00205073          	fsrmi	zero,0
 380:	08c9fa4b          	fnmsub.s	fs4,fs3,fa2,ft1
 384:	001028f3          	frflags	a7
 388:	0947ac27          	fsw	fs4,152(a5)
 38c:	0917ae23          	sw	a7,156(a5)

00000390 <inst_20>:
 390:	0f082c07          	flw	fs8,240(a6)
 394:	0f482287          	flw	ft5,244(a6)
 398:	0f882687          	flw	fa3,248(a6)
 39c:	00205073          	fsrmi	zero,0
 3a0:	685c7b4b          	fnmsub.s	fs6,fs8,ft5,fa3
 3a4:	001028f3          	frflags	a7
 3a8:	0b67a027          	fsw	fs6,160(a5)
 3ac:	0b17a223          	sw	a7,164(a5)

000003b0 <inst_21>:
 3b0:	0fc82887          	flw	fa7,252(a6)
 3b4:	10082007          	flw	ft0,256(a6)
 3b8:	10482c87          	flw	fs9,260(a6)
 3bc:	00205073          	fsrmi	zero,0
 3c0:	c808facb          	fnmsub.s	fs5,fa7,ft0,fs9
 3c4:	001028f3          	frflags	a7
 3c8:	0b57a427          	fsw	fs5,168(a5)
 3cc:	0b17a623          	sw	a7,172(a5)

000003d0 <inst_22>:
 3d0:	10882b07          	flw	fs6,264(a6)
 3d4:	10c82107          	flw	ft2,268(a6)
 3d8:	11082487          	flw	fs1,272(a6)
 3dc:	00205073          	fsrmi	zero,0
 3e0:	482b774b          	fnmsub.s	fa4,fs6,ft2,fs1
 3e4:	001028f3          	frflags	a7
 3e8:	0ae7a827          	fsw	fa4,176(a5)
 3ec:	0b17aa23          	sw	a7,180(a5)

000003f0 <inst_23>:
 3f0:	11482787          	flw	fa5,276(a6)
 3f4:	11882d07          	flw	fs10,280(a6)
 3f8:	11c82f87          	flw	ft11,284(a6)
 3fc:	00205073          	fsrmi	zero,0
 400:	f9a7fdcb          	fnmsub.s	fs11,fa5,fs10,ft11
 404:	001028f3          	frflags	a7
 408:	0bb7ac27          	fsw	fs11,184(a5)
 40c:	0b17ae23          	sw	a7,188(a5)

00000410 <inst_24>:
 410:	12082707          	flw	fa4,288(a6)
 414:	12482a07          	flw	fs4,292(a6)
 418:	12882207          	flw	ft4,296(a6)
 41c:	00205073          	fsrmi	zero,0
 420:	2147734b          	fnmsub.s	ft6,fa4,fs4,ft4
 424:	001028f3          	frflags	a7
 428:	0c67a027          	fsw	ft6,192(a5)
 42c:	0d17a223          	sw	a7,196(a5)

00000430 <inst_25>:
 430:	12c82b87          	flw	fs7,300(a6)
 434:	13082e07          	flw	ft8,304(a6)
 438:	13482807          	flw	fa6,308(a6)
 43c:	00205073          	fsrmi	zero,0
 440:	81cbfd4b          	fnmsub.s	fs10,fs7,ft8,fa6
 444:	001028f3          	frflags	a7
 448:	0da7a427          	fsw	fs10,200(a5)
 44c:	0d17a623          	sw	a7,204(a5)

00000450 <inst_26>:
 450:	13882d07          	flw	fs10,312(a6)
 454:	13c82707          	flw	fa4,316(a6)
 458:	14082987          	flw	fs3,320(a6)
 45c:	00205073          	fsrmi	zero,0
 460:	98ed7bcb          	fnmsub.s	fs7,fs10,fa4,fs3
 464:	001028f3          	frflags	a7
 468:	0d77a827          	fsw	fs7,208(a5)
 46c:	0d17aa23          	sw	a7,212(a5)

00000470 <inst_27>:
 470:	14482407          	flw	fs0,324(a6)
 474:	14882987          	flw	fs3,328(a6)
 478:	14c82b07          	flw	fs6,332(a6)
 47c:	00205073          	fsrmi	zero,0
 480:	b1347f4b          	fnmsub.s	ft10,fs0,fs3,fs6
 484:	001028f3          	frflags	a7
 488:	0de7ac27          	fsw	ft10,216(a5)
 48c:	0d17ae23          	sw	a7,220(a5)

00000490 <inst_28>:
 490:	15082687          	flw	fa3,336(a6)
 494:	15482807          	flw	fa6,340(a6)
 498:	15882407          	flw	fs0,344(a6)
 49c:	00205073          	fsrmi	zero,0
 4a0:	4106f7cb          	fnmsub.s	fa5,fa3,fa6,fs0
 4a4:	001028f3          	frflags	a7
 4a8:	0ef7a027          	fsw	fa5,224(a5)
 4ac:	0f17a223          	sw	a7,228(a5)

000004b0 <inst_29>:
 4b0:	15c82507          	flw	fa0,348(a6)
 4b4:	16082887          	flw	fa7,352(a6)
 4b8:	16482c07          	flw	fs8,356(a6)
 4bc:	00205073          	fsrmi	zero,0
 4c0:	c11572cb          	fnmsub.s	ft5,fa0,fa7,fs8
 4c4:	001028f3          	frflags	a7
 4c8:	0e57a427          	fsw	ft5,232(a5)
 4cc:	0f17a623          	sw	a7,236(a5)

000004d0 <inst_30>:
 4d0:	16882807          	flw	fa6,360(a6)
 4d4:	16c82087          	flw	ft1,364(a6)
 4d8:	17082f07          	flw	ft10,368(a6)
 4dc:	00205073          	fsrmi	zero,0
 4e0:	f01878cb          	fnmsub.s	fa7,fa6,ft1,ft10
 4e4:	001028f3          	frflags	a7
 4e8:	0f17a827          	fsw	fa7,240(a5)
 4ec:	0f17aa23          	sw	a7,244(a5)

000004f0 <inst_31>:
 4f0:	17482a07          	flw	fs4,372(a6)
 4f4:	17882b87          	flw	fs7,376(a6)
 4f8:	17c82287          	flw	ft5,380(a6)
 4fc:	00205073          	fsrmi	zero,0
 500:	297a79cb          	fnmsub.s	fs3,fs4,fs7,ft5
 504:	001028f3          	frflags	a7
 508:	0f37ac27          	fsw	fs3,248(a5)
 50c:	0f17ae23          	sw	a7,252(a5)

00000510 <inst_32>:
 510:	18082507          	flw	fa0,384(a6)
 514:	18482587          	flw	fa1,388(a6)
 518:	18882607          	flw	fa2,392(a6)
 51c:	00205073          	fsrmi	zero,0
 520:	60b576cb          	fnmsub.s	fa3,fa0,fa1,fa2
 524:	001028f3          	frflags	a7
 528:	10d7a027          	fsw	fa3,256(a5)
 52c:	1117a223          	sw	a7,260(a5)

00000530 <inst_33>:
 530:	18c82507          	flw	fa0,396(a6)
 534:	19082587          	flw	fa1,400(a6)
 538:	19482607          	flw	fa2,404(a6)
 53c:	00205073          	fsrmi	zero,0
 540:	60b576cb          	fnmsub.s	fa3,fa0,fa1,fa2
 544:	001028f3          	frflags	a7
 548:	10d7a427          	fsw	fa3,264(a5)
 54c:	1117a623          	sw	a7,268(a5)

00000550 <inst_34>:
 550:	19882507          	flw	fa0,408(a6)
 554:	19c82587          	flw	fa1,412(a6)
 558:	1a082607          	flw	fa2,416(a6)
 55c:	00205073          	fsrmi	zero,0
 560:	60b576cb          	fnmsub.s	fa3,fa0,fa1,fa2
 564:	001028f3          	frflags	a7
 568:	10d7a827          	fsw	fa3,272(a5)
 56c:	1117aa23          	sw	a7,276(a5)

00000570 <inst_35>:
 570:	1a482507          	flw	fa0,420(a6)
 574:	1a882587          	flw	fa1,424(a6)
 578:	1ac82607          	flw	fa2,428(a6)
 57c:	00205073          	fsrmi	zero,0
 580:	60b576cb          	fnmsub.s	fa3,fa0,fa1,fa2
 584:	001028f3          	frflags	a7
 588:	10d7ac27          	fsw	fa3,280(a5)
 58c:	1117ae23          	sw	a7,284(a5)

00000590 <inst_36>:
 590:	1b082507          	flw	fa0,432(a6)
 594:	1b482587          	flw	fa1,436(a6)
 598:	1b882607          	flw	fa2,440(a6)
 59c:	00205073          	fsrmi	zero,0
 5a0:	60b576cb          	fnmsub.s	fa3,fa0,fa1,fa2
 5a4:	001028f3          	frflags	a7
 5a8:	12d7a027          	fsw	fa3,288(a5)
 5ac:	1317a223          	sw	a7,292(a5)

000005b0 <inst_37>:
 5b0:	1bc82507          	flw	fa0,444(a6)
 5b4:	1c082587          	flw	fa1,448(a6)
 5b8:	1c482607          	flw	fa2,452(a6)
 5bc:	00205073          	fsrmi	zero,0
 5c0:	60b576cb          	fnmsub.s	fa3,fa0,fa1,fa2
 5c4:	001028f3          	frflags	a7
 5c8:	12d7a427          	fsw	fa3,296(a5)
 5cc:	1317a623          	sw	a7,300(a5)

000005d0 <inst_38>:
 5d0:	1c882507          	flw	fa0,456(a6)
 5d4:	1cc82587          	flw	fa1,460(a6)
 5d8:	1d082607          	flw	fa2,464(a6)
 5dc:	00205073          	fsrmi	zero,0
 5e0:	60b576cb          	fnmsub.s	fa3,fa0,fa1,fa2
 5e4:	001028f3          	frflags	a7
 5e8:	12d7a827          	fsw	fa3,304(a5)
 5ec:	1317aa23          	sw	a7,308(a5)

000005f0 <inst_39>:
 5f0:	1d482507          	flw	fa0,468(a6)
 5f4:	1d882587          	flw	fa1,472(a6)
 5f8:	1dc82607          	flw	fa2,476(a6)
 5fc:	00205073          	fsrmi	zero,0
 600:	60b576cb          	fnmsub.s	fa3,fa0,fa1,fa2
 604:	001028f3          	frflags	a7
 608:	12d7ac27          	fsw	fa3,312(a5)
 60c:	1317ae23          	sw	a7,316(a5)

00000610 <inst_40>:
 610:	1e082507          	flw	fa0,480(a6)
 614:	1e482587          	flw	fa1,484(a6)
 618:	1e882607          	flw	fa2,488(a6)
 61c:	00205073          	fsrmi	zero,0
 620:	60b576cb          	fnmsub.s	fa3,fa0,fa1,fa2
 624:	001028f3          	frflags	a7
 628:	14d7a027          	fsw	fa3,320(a5)
 62c:	1517a223          	sw	a7,324(a5)

00000630 <inst_41>:
 630:	1ec82507          	flw	fa0,492(a6)
 634:	1f082587          	flw	fa1,496(a6)
 638:	1f482607          	flw	fa2,500(a6)
 63c:	00205073          	fsrmi	zero,0
 640:	60b576cb          	fnmsub.s	fa3,fa0,fa1,fa2
 644:	001028f3          	frflags	a7
 648:	14d7a427          	fsw	fa3,328(a5)
 64c:	1517a623          	sw	a7,332(a5)

00000650 <inst_42>:
 650:	1f882507          	flw	fa0,504(a6)
 654:	1fc82587          	flw	fa1,508(a6)
 658:	20082607          	flw	fa2,512(a6)
 65c:	00205073          	fsrmi	zero,0
 660:	60b576cb          	fnmsub.s	fa3,fa0,fa1,fa2
 664:	001028f3          	frflags	a7
 668:	14d7a827          	fsw	fa3,336(a5)
 66c:	1517aa23          	sw	a7,340(a5)

00000670 <inst_43>:
 670:	20482507          	flw	fa0,516(a6)
 674:	20882587          	flw	fa1,520(a6)
 678:	20c82607          	flw	fa2,524(a6)
 67c:	00205073          	fsrmi	zero,0
 680:	60b576cb          	fnmsub.s	fa3,fa0,fa1,fa2
 684:	001028f3          	frflags	a7
 688:	14d7ac27          	fsw	fa3,344(a5)
 68c:	1517ae23          	sw	a7,348(a5)

00000690 <inst_44>:
 690:	21082507          	flw	fa0,528(a6)
 694:	21482587          	flw	fa1,532(a6)
 698:	21882607          	flw	fa2,536(a6)
 69c:	00205073          	fsrmi	zero,0
 6a0:	60b576cb          	fnmsub.s	fa3,fa0,fa1,fa2
 6a4:	001028f3          	frflags	a7
 6a8:	16d7a027          	fsw	fa3,352(a5)
 6ac:	1717a223          	sw	a7,356(a5)

000006b0 <inst_45>:
 6b0:	21c82507          	flw	fa0,540(a6)
 6b4:	22082587          	flw	fa1,544(a6)
 6b8:	22482607          	flw	fa2,548(a6)
 6bc:	00205073          	fsrmi	zero,0
 6c0:	60b576cb          	fnmsub.s	fa3,fa0,fa1,fa2
 6c4:	001028f3          	frflags	a7
 6c8:	16d7a427          	fsw	fa3,360(a5)
 6cc:	1717a623          	sw	a7,364(a5)

000006d0 <inst_46>:
 6d0:	22882507          	flw	fa0,552(a6)
 6d4:	22c82587          	flw	fa1,556(a6)
 6d8:	23082607          	flw	fa2,560(a6)
 6dc:	00205073          	fsrmi	zero,0
 6e0:	60b576cb          	fnmsub.s	fa3,fa0,fa1,fa2
 6e4:	001028f3          	frflags	a7
 6e8:	16d7a827          	fsw	fa3,368(a5)
 6ec:	1717aa23          	sw	a7,372(a5)

000006f0 <inst_47>:
 6f0:	23482507          	flw	fa0,564(a6)
 6f4:	23882587          	flw	fa1,568(a6)
 6f8:	23c82607          	flw	fa2,572(a6)
 6fc:	00205073          	fsrmi	zero,0
 700:	60b576cb          	fnmsub.s	fa3,fa0,fa1,fa2
 704:	001028f3          	frflags	a7
 708:	16d7ac27          	fsw	fa3,376(a5)
 70c:	1717ae23          	sw	a7,380(a5)

00000710 <inst_48>:
 710:	24082507          	flw	fa0,576(a6)
 714:	24482587          	flw	fa1,580(a6)
 718:	24882607          	flw	fa2,584(a6)
 71c:	00205073          	fsrmi	zero,0
 720:	60b576cb          	fnmsub.s	fa3,fa0,fa1,fa2
 724:	001028f3          	frflags	a7
 728:	18d7a027          	fsw	fa3,384(a5)
 72c:	1917a223          	sw	a7,388(a5)

00000730 <inst_49>:
 730:	24c82507          	flw	fa0,588(a6)
 734:	25082587          	flw	fa1,592(a6)
 738:	25482607          	flw	fa2,596(a6)
 73c:	00205073          	fsrmi	zero,0
 740:	60b576cb          	fnmsub.s	fa3,fa0,fa1,fa2
 744:	001028f3          	frflags	a7
 748:	18d7a427          	fsw	fa3,392(a5)
 74c:	1917a623          	sw	a7,396(a5)

00000750 <inst_50>:
 750:	25882507          	flw	fa0,600(a6)
 754:	25c82587          	flw	fa1,604(a6)
 758:	26082607          	flw	fa2,608(a6)
 75c:	00205073          	fsrmi	zero,0
 760:	60b576cb          	fnmsub.s	fa3,fa0,fa1,fa2
 764:	001028f3          	frflags	a7
 768:	18d7a827          	fsw	fa3,400(a5)
 76c:	1917aa23          	sw	a7,404(a5)

00000770 <inst_51>:
 770:	26482507          	flw	fa0,612(a6)
 774:	26882587          	flw	fa1,616(a6)
 778:	26c82607          	flw	fa2,620(a6)
 77c:	00205073          	fsrmi	zero,0
 780:	60b576cb          	fnmsub.s	fa3,fa0,fa1,fa2
 784:	001028f3          	frflags	a7
 788:	18d7ac27          	fsw	fa3,408(a5)
 78c:	1917ae23          	sw	a7,412(a5)

00000790 <inst_52>:
 790:	27082507          	flw	fa0,624(a6)
 794:	27482587          	flw	fa1,628(a6)
 798:	27882607          	flw	fa2,632(a6)
 79c:	00205073          	fsrmi	zero,0
 7a0:	60b576cb          	fnmsub.s	fa3,fa0,fa1,fa2
 7a4:	001028f3          	frflags	a7
 7a8:	1ad7a027          	fsw	fa3,416(a5)
 7ac:	1b17a223          	sw	a7,420(a5)

000007b0 <inst_53>:
 7b0:	27c82507          	flw	fa0,636(a6)
 7b4:	28082587          	flw	fa1,640(a6)
 7b8:	28482607          	flw	fa2,644(a6)
 7bc:	00205073          	fsrmi	zero,0
 7c0:	60b576cb          	fnmsub.s	fa3,fa0,fa1,fa2
 7c4:	001028f3          	frflags	a7
 7c8:	1ad7a427          	fsw	fa3,424(a5)
 7cc:	1b17a623          	sw	a7,428(a5)

000007d0 <inst_54>:
 7d0:	28882507          	flw	fa0,648(a6)
 7d4:	28c82587          	flw	fa1,652(a6)
 7d8:	29082607          	flw	fa2,656(a6)
 7dc:	00205073          	fsrmi	zero,0
 7e0:	60b576cb          	fnmsub.s	fa3,fa0,fa1,fa2
 7e4:	001028f3          	frflags	a7
 7e8:	1ad7a827          	fsw	fa3,432(a5)
 7ec:	1b17aa23          	sw	a7,436(a5)

000007f0 <inst_55>:
 7f0:	29482507          	flw	fa0,660(a6)
 7f4:	29882587          	flw	fa1,664(a6)
 7f8:	29c82607          	flw	fa2,668(a6)
 7fc:	00205073          	fsrmi	zero,0
 800:	60b576cb          	fnmsub.s	fa3,fa0,fa1,fa2
 804:	001028f3          	frflags	a7
 808:	1ad7ac27          	fsw	fa3,440(a5)
 80c:	1b17ae23          	sw	a7,444(a5)

00000810 <inst_56>:
 810:	2a082507          	flw	fa0,672(a6)
 814:	2a482587          	flw	fa1,676(a6)
 818:	2a882607          	flw	fa2,680(a6)
 81c:	00205073          	fsrmi	zero,0
 820:	60b576cb          	fnmsub.s	fa3,fa0,fa1,fa2
 824:	001028f3          	frflags	a7
 828:	1cd7a027          	fsw	fa3,448(a5)
 82c:	1d17a223          	sw	a7,452(a5)

00000830 <inst_57>:
 830:	2ac82507          	flw	fa0,684(a6)
 834:	2b082587          	flw	fa1,688(a6)
 838:	2b482607          	flw	fa2,692(a6)
 83c:	00205073          	fsrmi	zero,0
 840:	60b576cb          	fnmsub.s	fa3,fa0,fa1,fa2
 844:	001028f3          	frflags	a7
 848:	1cd7a427          	fsw	fa3,456(a5)
 84c:	1d17a623          	sw	a7,460(a5)

00000850 <inst_58>:
 850:	2b882507          	flw	fa0,696(a6)
 854:	2bc82587          	flw	fa1,700(a6)
 858:	2c082607          	flw	fa2,704(a6)
 85c:	00205073          	fsrmi	zero,0
 860:	60b576cb          	fnmsub.s	fa3,fa0,fa1,fa2
 864:	001028f3          	frflags	a7
 868:	1cd7a827          	fsw	fa3,464(a5)
 86c:	1d17aa23          	sw	a7,468(a5)

00000870 <inst_59>:
 870:	2c482507          	flw	fa0,708(a6)
 874:	2c882587          	flw	fa1,712(a6)
 878:	2cc82607          	flw	fa2,716(a6)
 87c:	00205073          	fsrmi	zero,0
 880:	60b576cb          	fnmsub.s	fa3,fa0,fa1,fa2
 884:	001028f3          	frflags	a7
 888:	1cd7ac27          	fsw	fa3,472(a5)
 88c:	1d17ae23          	sw	a7,476(a5)

00000890 <inst_60>:
 890:	2d082507          	flw	fa0,720(a6)
 894:	2d482587          	flw	fa1,724(a6)
 898:	2d882607          	flw	fa2,728(a6)
 89c:	00205073          	fsrmi	zero,0
 8a0:	60b576cb          	fnmsub.s	fa3,fa0,fa1,fa2
 8a4:	001028f3          	frflags	a7
 8a8:	1ed7a027          	fsw	fa3,480(a5)
 8ac:	1f17a223          	sw	a7,484(a5)

000008b0 <inst_61>:
 8b0:	2dc82507          	flw	fa0,732(a6)
 8b4:	2e082587          	flw	fa1,736(a6)
 8b8:	2e482607          	flw	fa2,740(a6)
 8bc:	00205073          	fsrmi	zero,0
 8c0:	60b576cb          	fnmsub.s	fa3,fa0,fa1,fa2
 8c4:	001028f3          	frflags	a7
 8c8:	1ed7a427          	fsw	fa3,488(a5)
 8cc:	1f17a623          	sw	a7,492(a5)

000008d0 <inst_62>:
 8d0:	2e882507          	flw	fa0,744(a6)
 8d4:	2ec82587          	flw	fa1,748(a6)
 8d8:	2f082607          	flw	fa2,752(a6)
 8dc:	00205073          	fsrmi	zero,0
 8e0:	60b576cb          	fnmsub.s	fa3,fa0,fa1,fa2
 8e4:	001028f3          	frflags	a7
 8e8:	1ed7a827          	fsw	fa3,496(a5)
 8ec:	1f17aa23          	sw	a7,500(a5)

000008f0 <inst_63>:
 8f0:	2f482507          	flw	fa0,756(a6)
 8f4:	2f882587          	flw	fa1,760(a6)
 8f8:	2fc82607          	flw	fa2,764(a6)
 8fc:	00205073          	fsrmi	zero,0
 900:	60b576cb          	fnmsub.s	fa3,fa0,fa1,fa2
 904:	001028f3          	frflags	a7
 908:	1ed7ac27          	fsw	fa3,504(a5)
 90c:	1f17ae23          	sw	a7,508(a5)

00000910 <inst_64>:
 910:	30082507          	flw	fa0,768(a6)
 914:	30482587          	flw	fa1,772(a6)
 918:	30882607          	flw	fa2,776(a6)
 91c:	00205073          	fsrmi	zero,0
 920:	60b576cb          	fnmsub.s	fa3,fa0,fa1,fa2
 924:	001028f3          	frflags	a7
 928:	20d7a027          	fsw	fa3,512(a5)
 92c:	2117a223          	sw	a7,516(a5)

00000930 <inst_65>:
 930:	30c82507          	flw	fa0,780(a6)
 934:	31082587          	flw	fa1,784(a6)
 938:	31482607          	flw	fa2,788(a6)
 93c:	00205073          	fsrmi	zero,0
 940:	60b576cb          	fnmsub.s	fa3,fa0,fa1,fa2
 944:	001028f3          	frflags	a7
 948:	20d7a427          	fsw	fa3,520(a5)
 94c:	2117a623          	sw	a7,524(a5)

00000950 <inst_66>:
 950:	31882507          	flw	fa0,792(a6)
 954:	31c82587          	flw	fa1,796(a6)
 958:	32082607          	flw	fa2,800(a6)
 95c:	00205073          	fsrmi	zero,0
 960:	60b576cb          	fnmsub.s	fa3,fa0,fa1,fa2
 964:	001028f3          	frflags	a7
 968:	20d7a827          	fsw	fa3,528(a5)
 96c:	2117aa23          	sw	a7,532(a5)

00000970 <inst_67>:
 970:	32482507          	flw	fa0,804(a6)
 974:	32882587          	flw	fa1,808(a6)
 978:	32c82607          	flw	fa2,812(a6)
 97c:	00205073          	fsrmi	zero,0
 980:	60b576cb          	fnmsub.s	fa3,fa0,fa1,fa2
 984:	001028f3          	frflags	a7
 988:	20d7ac27          	fsw	fa3,536(a5)
 98c:	2117ae23          	sw	a7,540(a5)

00000990 <inst_68>:
 990:	33082507          	flw	fa0,816(a6)
 994:	33482587          	flw	fa1,820(a6)
 998:	33882607          	flw	fa2,824(a6)
 99c:	00205073          	fsrmi	zero,0
 9a0:	60b576cb          	fnmsub.s	fa3,fa0,fa1,fa2
 9a4:	001028f3          	frflags	a7
 9a8:	22d7a027          	fsw	fa3,544(a5)
 9ac:	2317a223          	sw	a7,548(a5)

000009b0 <inst_69>:
 9b0:	33c82507          	flw	fa0,828(a6)
 9b4:	34082587          	flw	fa1,832(a6)
 9b8:	34482607          	flw	fa2,836(a6)
 9bc:	00205073          	fsrmi	zero,0
 9c0:	60b576cb          	fnmsub.s	fa3,fa0,fa1,fa2
 9c4:	001028f3          	frflags	a7
 9c8:	22d7a427          	fsw	fa3,552(a5)
 9cc:	2317a623          	sw	a7,556(a5)

000009d0 <inst_70>:
 9d0:	34882507          	flw	fa0,840(a6)
 9d4:	34c82587          	flw	fa1,844(a6)
 9d8:	35082607          	flw	fa2,848(a6)
 9dc:	00205073          	fsrmi	zero,0
 9e0:	60b576cb          	fnmsub.s	fa3,fa0,fa1,fa2
 9e4:	001028f3          	frflags	a7
 9e8:	22d7a827          	fsw	fa3,560(a5)
 9ec:	2317aa23          	sw	a7,564(a5)

000009f0 <inst_71>:
 9f0:	35482507          	flw	fa0,852(a6)
 9f4:	35882587          	flw	fa1,856(a6)
 9f8:	35c82607          	flw	fa2,860(a6)
 9fc:	00205073          	fsrmi	zero,0
 a00:	60b576cb          	fnmsub.s	fa3,fa0,fa1,fa2
 a04:	001028f3          	frflags	a7
 a08:	22d7ac27          	fsw	fa3,568(a5)
 a0c:	2317ae23          	sw	a7,572(a5)

00000a10 <inst_72>:
 a10:	36082507          	flw	fa0,864(a6)
 a14:	36482587          	flw	fa1,868(a6)
 a18:	36882607          	flw	fa2,872(a6)
 a1c:	00205073          	fsrmi	zero,0
 a20:	60b576cb          	fnmsub.s	fa3,fa0,fa1,fa2
 a24:	001028f3          	frflags	a7
 a28:	24d7a027          	fsw	fa3,576(a5)
 a2c:	2517a223          	sw	a7,580(a5)

00000a30 <inst_73>:
 a30:	36c82507          	flw	fa0,876(a6)
 a34:	37082587          	flw	fa1,880(a6)
 a38:	37482607          	flw	fa2,884(a6)
 a3c:	00205073          	fsrmi	zero,0
 a40:	60b576cb          	fnmsub.s	fa3,fa0,fa1,fa2
 a44:	001028f3          	frflags	a7
 a48:	24d7a427          	fsw	fa3,584(a5)
 a4c:	2517a623          	sw	a7,588(a5)

00000a50 <inst_74>:
 a50:	37882507          	flw	fa0,888(a6)
 a54:	37c82587          	flw	fa1,892(a6)
 a58:	38082607          	flw	fa2,896(a6)
 a5c:	00205073          	fsrmi	zero,0
 a60:	60b576cb          	fnmsub.s	fa3,fa0,fa1,fa2
 a64:	001028f3          	frflags	a7
 a68:	24d7a827          	fsw	fa3,592(a5)
 a6c:	2517aa23          	sw	a7,596(a5)

00000a70 <inst_75>:
 a70:	38482507          	flw	fa0,900(a6)
 a74:	38882587          	flw	fa1,904(a6)
 a78:	38c82607          	flw	fa2,908(a6)
 a7c:	00205073          	fsrmi	zero,0
 a80:	60b576cb          	fnmsub.s	fa3,fa0,fa1,fa2
 a84:	001028f3          	frflags	a7
 a88:	24d7ac27          	fsw	fa3,600(a5)
 a8c:	2517ae23          	sw	a7,604(a5)

00000a90 <inst_76>:
 a90:	39082507          	flw	fa0,912(a6)
 a94:	39482587          	flw	fa1,916(a6)
 a98:	39882607          	flw	fa2,920(a6)
 a9c:	00205073          	fsrmi	zero,0
 aa0:	60b576cb          	fnmsub.s	fa3,fa0,fa1,fa2
 aa4:	001028f3          	frflags	a7
 aa8:	26d7a027          	fsw	fa3,608(a5)
 aac:	2717a223          	sw	a7,612(a5)

00000ab0 <inst_77>:
 ab0:	39c82507          	flw	fa0,924(a6)
 ab4:	3a082587          	flw	fa1,928(a6)
 ab8:	3a482607          	flw	fa2,932(a6)
 abc:	00205073          	fsrmi	zero,0
 ac0:	60b576cb          	fnmsub.s	fa3,fa0,fa1,fa2
 ac4:	001028f3          	frflags	a7
 ac8:	26d7a427          	fsw	fa3,616(a5)
 acc:	2717a623          	sw	a7,620(a5)

00000ad0 <inst_78>:
 ad0:	3a882507          	flw	fa0,936(a6)
 ad4:	3ac82587          	flw	fa1,940(a6)
 ad8:	3b082607          	flw	fa2,944(a6)
 adc:	00205073          	fsrmi	zero,0
 ae0:	60b576cb          	fnmsub.s	fa3,fa0,fa1,fa2
 ae4:	001028f3          	frflags	a7
 ae8:	26d7a827          	fsw	fa3,624(a5)
 aec:	2717aa23          	sw	a7,628(a5)

00000af0 <inst_79>:
 af0:	3b482507          	flw	fa0,948(a6)
 af4:	3b882587          	flw	fa1,952(a6)
 af8:	3bc82607          	flw	fa2,956(a6)
 afc:	00205073          	fsrmi	zero,0
 b00:	60b576cb          	fnmsub.s	fa3,fa0,fa1,fa2
 b04:	001028f3          	frflags	a7
 b08:	26d7ac27          	fsw	fa3,632(a5)
 b0c:	2717ae23          	sw	a7,636(a5)

00000b10 <inst_80>:
 b10:	3c082507          	flw	fa0,960(a6)
 b14:	3c482587          	flw	fa1,964(a6)
 b18:	3c882607          	flw	fa2,968(a6)
 b1c:	00205073          	fsrmi	zero,0
 b20:	60b576cb          	fnmsub.s	fa3,fa0,fa1,fa2
 b24:	001028f3          	frflags	a7
 b28:	28d7a027          	fsw	fa3,640(a5)
 b2c:	2917a223          	sw	a7,644(a5)

00000b30 <rvtest_code_end>:
 b30:	00001517          	auipc	a0,0x1
 b34:	8a050513          	add	a0,a0,-1888 # 13d0 <data_begin>
 b38:	00001597          	auipc	a1,0x1
 b3c:	b2858593          	add	a1,a1,-1240 # 1660 <_end>
 b40:	80001637          	lui	a2,0x80001
 b44:	00860613          	add	a2,a2,8 # 80001008 <_end+0x7ffff9a8>

00000b48 <compliance_halt_loop>:
 b48:	06b50063          	beq	a0,a1,ba8 <compliance_halt_break>
 b4c:	00450693          	add	a3,a0,4

00000b50 <compliance_halt_loop2>:
 b50:	fff68693          	add	a3,a3,-1
 b54:	00068703          	lb	a4,0(a3)
 b58:	40475793          	sra	a5,a4,0x4
 b5c:	00f7f793          	and	a5,a5,15
 b60:	00a00813          	li	a6,10
 b64:	0107c463          	blt	a5,a6,b6c <notLetter>
 b68:	02778793          	add	a5,a5,39

00000b6c <notLetter>:
 b6c:	03078793          	add	a5,a5,48
 b70:	00f60023          	sb	a5,0(a2)
 b74:	40075793          	sra	a5,a4,0x0
 b78:	00f7f793          	and	a5,a5,15
 b7c:	00a00813          	li	a6,10
 b80:	0107c463          	blt	a5,a6,b88 <notLetter2>
 b84:	02778793          	add	a5,a5,39

00000b88 <notLetter2>:
 b88:	03078793          	add	a5,a5,48
 b8c:	00f60023          	sb	a5,0(a2)
 b90:	fcd510e3          	bne	a0,a3,b50 <compliance_halt_loop2>
 b94:	00450513          	add	a0,a0,4
 b98:	00a00713          	li	a4,10
 b9c:	00e60023          	sb	a4,0(a2)
 ba0:	fa9ff06f          	j	b48 <compliance_halt_loop>
 ba4:	0040006f          	j	ba8 <compliance_halt_break>

00000ba8 <compliance_halt_break>:
 ba8:	80001537          	lui	a0,0x80001
 bac:	00950513          	add	a0,a0,9 # 80001009 <_end+0x7ffff9a9>
 bb0:	00d50023          	sb	a3,0(a0)
 bb4:	0000                	.2byte	0x0
	...

Desensamblado de la sección .data:

00001000 <rvtest_data_begin>:
    1000:	cafe                	.2byte	0xcafe
    1002:	babe                	.2byte	0xbabe

00001004 <test_fp>:
    1004:	7e36c1bf 7ed0fbe8 	.8byte	0x7ed0fbe87e36c1bf
    100c:	112a                	.2byte	0x112a
    100e:	c1bf2817          	auipc	a6,0xc1bf2
    1012:	7e36                	.2byte	0x7e36
    1014:	fbe8                	.2byte	0xfbe8
    1016:	7ed0                	.2byte	0x7ed0
    1018:	112a                	.2byte	0x112a
    101a:	c1bf7617          	auipc	a2,0xc1bf7
    101e:	7e36                	.2byte	0x7e36
    1020:	fbe8                	.2byte	0xfbe8
    1022:	7ed0                	.2byte	0x7ed0
    1024:	112a                	.2byte	0x112a
    1026:	c1bf5797          	auipc	a5,0xc1bf5
    102a:	7e36                	.2byte	0x7e36
    102c:	7e36c1bf 5717112a 	.8byte	0x5717112a7e36c1bf
    1034:	7e36c1bf 7e36c1bf 	.8byte	0x7e36c1bf7e36c1bf
    103c:	7e36c1bf 7e36c1bf 	.8byte	0x7e36c1bf7e36c1bf
    1044:	fbe8                	.2byte	0xfbe8
    1046:	7ed0                	.2byte	0x7ed0
    1048:	fbe8                	.2byte	0xfbe8
    104a:	7ed0                	.2byte	0x7ed0
    104c:	7e36c1bf 7e36c1bf 	.8byte	0x7e36c1bf7e36c1bf
    1054:	112a                	.2byte	0x112a
    1056:	c1bf5597          	auipc	a1,0xc1bf5
    105a:	7e36                	.2byte	0x7e36
    105c:	fbe8                	.2byte	0xfbe8
    105e:	7ed0                	.2byte	0x7ed0
    1060:	7e36c1bf 7e36c1bf 	.8byte	0x7e36c1bf7e36c1bf
    1068:	fbe8                	.2byte	0xfbe8
    106a:	7ed0                	.2byte	0x7ed0
    106c:	fbe8                	.2byte	0xfbe8
    106e:	7ed0                	.2byte	0x7ed0
    1070:	7e36c1bf 7e36c1bf 	.8byte	0x7e36c1bf7e36c1bf
    1078:	7e36c1bf 7e36c1bf 	.8byte	0x7e36c1bf7e36c1bf
    1080:	fbe8                	.2byte	0xfbe8
    1082:	7ed0                	.2byte	0x7ed0
    1084:	7e36c1bf 7e36c1bf 	.8byte	0x7e36c1bf7e36c1bf
    108c:	fbe8                	.2byte	0xfbe8
    108e:	7ed0                	.2byte	0x7ed0
    1090:	112a                	.2byte	0x112a
    1092:	c1bf5317          	auipc	t1,0xc1bf5
    1096:	7e36                	.2byte	0x7e36
    1098:	fbe8                	.2byte	0xfbe8
    109a:	7ed0                	.2byte	0x7ed0
    109c:	112a                	.2byte	0x112a
    109e:	c1bf5297          	auipc	t0,0xc1bf5
    10a2:	7e36                	.2byte	0x7e36
    10a4:	fbe8                	.2byte	0xfbe8
    10a6:	7ed0                	.2byte	0x7ed0
    10a8:	112a                	.2byte	0x112a
    10aa:	c1bf5217          	auipc	tp,0xc1bf5
    10ae:	7e36                	.2byte	0x7e36
    10b0:	fbe8                	.2byte	0xfbe8
    10b2:	7ed0                	.2byte	0x7ed0
    10b4:	112a                	.2byte	0x112a
    10b6:	c1bf5197          	auipc	gp,0xc1bf5
    10ba:	7e36                	.2byte	0x7e36
    10bc:	fbe8                	.2byte	0xfbe8
    10be:	7ed0                	.2byte	0x7ed0
    10c0:	112a                	.2byte	0x112a
    10c2:	c1bf5117          	auipc	sp,0xc1bf5
    10c6:	7e36                	.2byte	0x7e36
    10c8:	fbe8                	.2byte	0xfbe8
    10ca:	7ed0                	.2byte	0x7ed0
    10cc:	112a                	.2byte	0x112a
    10ce:	c1bf5097          	auipc	ra,0xc1bf5
    10d2:	7e36                	.2byte	0x7e36
    10d4:	fbe8                	.2byte	0xfbe8
    10d6:	7ed0                	.2byte	0x7ed0
    10d8:	112a                	.2byte	0x112a
    10da:	c1bf5017          	auipc	zero,0xc1bf5
    10de:	7e36                	.2byte	0x7e36
    10e0:	fbe8                	.2byte	0xfbe8
    10e2:	7ed0                	.2byte	0x7ed0
    10e4:	112a                	.2byte	0x112a
    10e6:	c1bf4f97          	auipc	t6,0xc1bf4
    10ea:	7e36                	.2byte	0x7e36
    10ec:	fbe8                	.2byte	0xfbe8
    10ee:	7ed0                	.2byte	0x7ed0
    10f0:	112a                	.2byte	0x112a
    10f2:	c1bf4f17          	auipc	t5,0xc1bf4
    10f6:	7e36                	.2byte	0x7e36
    10f8:	fbe8                	.2byte	0xfbe8
    10fa:	7ed0                	.2byte	0x7ed0
    10fc:	112a                	.2byte	0x112a
    10fe:	c1bf4e97          	auipc	t4,0xc1bf4
    1102:	7e36                	.2byte	0x7e36
    1104:	fbe8                	.2byte	0xfbe8
    1106:	7ed0                	.2byte	0x7ed0
    1108:	112a                	.2byte	0x112a
    110a:	c1bf4e17          	auipc	t3,0xc1bf4
    110e:	7e36                	.2byte	0x7e36
    1110:	fbe8                	.2byte	0xfbe8
    1112:	7ed0                	.2byte	0x7ed0
    1114:	112a                	.2byte	0x112a
    1116:	c1bf4d97          	auipc	s11,0xc1bf4
    111a:	7e36                	.2byte	0x7e36
    111c:	fbe8                	.2byte	0xfbe8
    111e:	7ed0                	.2byte	0x7ed0
    1120:	112a                	.2byte	0x112a
    1122:	c1bf4d17          	auipc	s10,0xc1bf4
    1126:	7e36                	.2byte	0x7e36
    1128:	fbe8                	.2byte	0xfbe8
    112a:	7ed0                	.2byte	0x7ed0
    112c:	112a                	.2byte	0x112a
    112e:	c1bf4c97          	auipc	s9,0xc1bf4
    1132:	7e36                	.2byte	0x7e36
    1134:	fbe8                	.2byte	0xfbe8
    1136:	7ed0                	.2byte	0x7ed0
    1138:	112a                	.2byte	0x112a
    113a:	c1bf4c17          	auipc	s8,0xc1bf4
    113e:	7e36                	.2byte	0x7e36
    1140:	fbe8                	.2byte	0xfbe8
    1142:	7ed0                	.2byte	0x7ed0
    1144:	112a                	.2byte	0x112a
    1146:	c1bf4b97          	auipc	s7,0xc1bf4
    114a:	7e36                	.2byte	0x7e36
    114c:	fbe8                	.2byte	0xfbe8
    114e:	7ed0                	.2byte	0x7ed0
    1150:	112a                	.2byte	0x112a
    1152:	c1bf4b17          	auipc	s6,0xc1bf4
    1156:	7e36                	.2byte	0x7e36
    1158:	fbe8                	.2byte	0xfbe8
    115a:	7ed0                	.2byte	0x7ed0
    115c:	112a                	.2byte	0x112a
    115e:	c1bf4a97          	auipc	s5,0xc1bf4
    1162:	7e36                	.2byte	0x7e36
    1164:	fbe8                	.2byte	0xfbe8
    1166:	7ed0                	.2byte	0x7ed0
    1168:	112a                	.2byte	0x112a
    116a:	c1bf4a17          	auipc	s4,0xc1bf4
    116e:	7e36                	.2byte	0x7e36
    1170:	fbe8                	.2byte	0xfbe8
    1172:	7ed0                	.2byte	0x7ed0
    1174:	112a                	.2byte	0x112a
    1176:	c1bf4997          	auipc	s3,0xc1bf4
    117a:	7e36                	.2byte	0x7e36
    117c:	fbe8                	.2byte	0xfbe8
    117e:	7ed0                	.2byte	0x7ed0
    1180:	112a                	.2byte	0x112a
    1182:	c1bf4917          	auipc	s2,0xc1bf4
    1186:	7e36                	.2byte	0x7e36
    1188:	fbe8                	.2byte	0xfbe8
    118a:	7ed0                	.2byte	0x7ed0
    118c:	112a                	.2byte	0x112a
    118e:	c1bf4897          	auipc	a7,0xc1bf4
    1192:	7e36                	.2byte	0x7e36
    1194:	fbe8                	.2byte	0xfbe8
    1196:	7ed0                	.2byte	0x7ed0
    1198:	112a                	.2byte	0x112a
    119a:	c1bf4817          	auipc	a6,0xc1bf4
    119e:	7e36                	.2byte	0x7e36
    11a0:	fbe8                	.2byte	0xfbe8
    11a2:	7ed0                	.2byte	0x7ed0
    11a4:	112a                	.2byte	0x112a
    11a6:	c1bf4797          	auipc	a5,0xc1bf4
    11aa:	7e36                	.2byte	0x7e36
    11ac:	fbe8                	.2byte	0xfbe8
    11ae:	7ed0                	.2byte	0x7ed0
    11b0:	112a                	.2byte	0x112a
    11b2:	c1bf4717          	auipc	a4,0xc1bf4
    11b6:	7e36                	.2byte	0x7e36
    11b8:	fbe8                	.2byte	0xfbe8
    11ba:	7ed0                	.2byte	0x7ed0
    11bc:	112a                	.2byte	0x112a
    11be:	c1bf4697          	auipc	a3,0xc1bf4
    11c2:	7e36                	.2byte	0x7e36
    11c4:	fbe8                	.2byte	0xfbe8
    11c6:	7ed0                	.2byte	0x7ed0
    11c8:	112a                	.2byte	0x112a
    11ca:	c1bf4617          	auipc	a2,0xc1bf4
    11ce:	7e36                	.2byte	0x7e36
    11d0:	fbe8                	.2byte	0xfbe8
    11d2:	7ed0                	.2byte	0x7ed0
    11d4:	112a                	.2byte	0x112a
    11d6:	c1bf4597          	auipc	a1,0xc1bf4
    11da:	7e36                	.2byte	0x7e36
    11dc:	fbe8                	.2byte	0xfbe8
    11de:	7ed0                	.2byte	0x7ed0
    11e0:	112a                	.2byte	0x112a
    11e2:	c1bf4517          	auipc	a0,0xc1bf4
    11e6:	7e36                	.2byte	0x7e36
    11e8:	fbe8                	.2byte	0xfbe8
    11ea:	7ed0                	.2byte	0x7ed0
    11ec:	112a                	.2byte	0x112a
    11ee:	c1bf4497          	auipc	s1,0xc1bf4
    11f2:	7e36                	.2byte	0x7e36
    11f4:	fbe8                	.2byte	0xfbe8
    11f6:	7ed0                	.2byte	0x7ed0
    11f8:	112a                	.2byte	0x112a
    11fa:	c1bf4417          	auipc	s0,0xc1bf4
    11fe:	7e36                	.2byte	0x7e36
    1200:	fbe8                	.2byte	0xfbe8
    1202:	7ed0                	.2byte	0x7ed0
    1204:	112a                	.2byte	0x112a
    1206:	c1bf4397          	auipc	t2,0xc1bf4
    120a:	7e36                	.2byte	0x7e36
    120c:	fbe8                	.2byte	0xfbe8
    120e:	7ed0                	.2byte	0x7ed0
    1210:	112a                	.2byte	0x112a
    1212:	c1bf4317          	auipc	t1,0xc1bf4
    1216:	7e36                	.2byte	0x7e36
    1218:	fbe8                	.2byte	0xfbe8
    121a:	7ed0                	.2byte	0x7ed0
    121c:	112a                	.2byte	0x112a
    121e:	c1bf4297          	auipc	t0,0xc1bf4
    1222:	7e36                	.2byte	0x7e36
    1224:	fbe8                	.2byte	0xfbe8
    1226:	7ed0                	.2byte	0x7ed0
    1228:	112a                	.2byte	0x112a
    122a:	c1bf4217          	auipc	tp,0xc1bf4
    122e:	7e36                	.2byte	0x7e36
    1230:	fbe8                	.2byte	0xfbe8
    1232:	7ed0                	.2byte	0x7ed0
    1234:	112a                	.2byte	0x112a
    1236:	c1bf4197          	auipc	gp,0xc1bf4
    123a:	7e36                	.2byte	0x7e36
    123c:	fbe8                	.2byte	0xfbe8
    123e:	7ed0                	.2byte	0x7ed0
    1240:	112a                	.2byte	0x112a
    1242:	c1bf4117          	auipc	sp,0xc1bf4
    1246:	7e36                	.2byte	0x7e36
    1248:	fbe8                	.2byte	0xfbe8
    124a:	7ed0                	.2byte	0x7ed0
    124c:	112a                	.2byte	0x112a
    124e:	c1bf4097          	auipc	ra,0xc1bf4
    1252:	7e36                	.2byte	0x7e36
    1254:	fbe8                	.2byte	0xfbe8
    1256:	7ed0                	.2byte	0x7ed0
    1258:	112a                	.2byte	0x112a
    125a:	c1bf4017          	auipc	zero,0xc1bf4
    125e:	7e36                	.2byte	0x7e36
    1260:	fbe8                	.2byte	0xfbe8
    1262:	7ed0                	.2byte	0x7ed0
    1264:	112a                	.2byte	0x112a
    1266:	c1bf3f97          	auipc	t6,0xc1bf3
    126a:	7e36                	.2byte	0x7e36
    126c:	fbe8                	.2byte	0xfbe8
    126e:	7ed0                	.2byte	0x7ed0
    1270:	112a                	.2byte	0x112a
    1272:	c1bf3f17          	auipc	t5,0xc1bf3
    1276:	7e36                	.2byte	0x7e36
    1278:	fbe8                	.2byte	0xfbe8
    127a:	7ed0                	.2byte	0x7ed0
    127c:	112a                	.2byte	0x112a
    127e:	c1bf3e97          	auipc	t4,0xc1bf3
    1282:	7e36                	.2byte	0x7e36
    1284:	fbe8                	.2byte	0xfbe8
    1286:	7ed0                	.2byte	0x7ed0
    1288:	112a                	.2byte	0x112a
    128a:	c1bf3e17          	auipc	t3,0xc1bf3
    128e:	7e36                	.2byte	0x7e36
    1290:	fbe8                	.2byte	0xfbe8
    1292:	7ed0                	.2byte	0x7ed0
    1294:	112a                	.2byte	0x112a
    1296:	c1bf3d97          	auipc	s11,0xc1bf3
    129a:	7e36                	.2byte	0x7e36
    129c:	fbe8                	.2byte	0xfbe8
    129e:	7ed0                	.2byte	0x7ed0
    12a0:	112a                	.2byte	0x112a
    12a2:	c1bf3d17          	auipc	s10,0xc1bf3
    12a6:	7e36                	.2byte	0x7e36
    12a8:	fbe8                	.2byte	0xfbe8
    12aa:	7ed0                	.2byte	0x7ed0
    12ac:	112a                	.2byte	0x112a
    12ae:	c1bf3c97          	auipc	s9,0xc1bf3
    12b2:	7e36                	.2byte	0x7e36
    12b4:	fbe8                	.2byte	0xfbe8
    12b6:	7ed0                	.2byte	0x7ed0
    12b8:	112a                	.2byte	0x112a
    12ba:	c1bf3c17          	auipc	s8,0xc1bf3
    12be:	7e36                	.2byte	0x7e36
    12c0:	fbe8                	.2byte	0xfbe8
    12c2:	7ed0                	.2byte	0x7ed0
    12c4:	112a                	.2byte	0x112a
    12c6:	c1bf3b97          	auipc	s7,0xc1bf3
    12ca:	7e36                	.2byte	0x7e36
    12cc:	fbe8                	.2byte	0xfbe8
    12ce:	7ed0                	.2byte	0x7ed0
    12d0:	112a                	.2byte	0x112a
    12d2:	c1bf3b17          	auipc	s6,0xc1bf3
    12d6:	7e36                	.2byte	0x7e36
    12d8:	fbe8                	.2byte	0xfbe8
    12da:	7ed0                	.2byte	0x7ed0
    12dc:	112a                	.2byte	0x112a
    12de:	c1bf3a97          	auipc	s5,0xc1bf3
    12e2:	7e36                	.2byte	0x7e36
    12e4:	fbe8                	.2byte	0xfbe8
    12e6:	7ed0                	.2byte	0x7ed0
    12e8:	112a                	.2byte	0x112a
    12ea:	c1bf3a17          	auipc	s4,0xc1bf3
    12ee:	7e36                	.2byte	0x7e36
    12f0:	fbe8                	.2byte	0xfbe8
    12f2:	7ed0                	.2byte	0x7ed0
    12f4:	112a                	.2byte	0x112a
    12f6:	c1bf3997          	auipc	s3,0xc1bf3
    12fa:	7e36                	.2byte	0x7e36
    12fc:	fbe8                	.2byte	0xfbe8
    12fe:	7ed0                	.2byte	0x7ed0
    1300:	112a                	.2byte	0x112a
    1302:	c1bf3917          	auipc	s2,0xc1bf3
    1306:	7e36                	.2byte	0x7e36
    1308:	fbe8                	.2byte	0xfbe8
    130a:	7ed0                	.2byte	0x7ed0
    130c:	112a                	.2byte	0x112a
    130e:	c1bf3897          	auipc	a7,0xc1bf3
    1312:	7e36                	.2byte	0x7e36
    1314:	fbe8                	.2byte	0xfbe8
    1316:	7ed0                	.2byte	0x7ed0
    1318:	112a                	.2byte	0x112a
    131a:	c1bf3817          	auipc	a6,0xc1bf3
    131e:	7e36                	.2byte	0x7e36
    1320:	fbe8                	.2byte	0xfbe8
    1322:	7ed0                	.2byte	0x7ed0
    1324:	112a                	.2byte	0x112a
    1326:	c1bf3797          	auipc	a5,0xc1bf3
    132a:	7e36                	.2byte	0x7e36
    132c:	fbe8                	.2byte	0xfbe8
    132e:	7ed0                	.2byte	0x7ed0
    1330:	112a                	.2byte	0x112a
    1332:	c1bf3717          	auipc	a4,0xc1bf3
    1336:	7e36                	.2byte	0x7e36
    1338:	fbe8                	.2byte	0xfbe8
    133a:	7ed0                	.2byte	0x7ed0
    133c:	112a                	.2byte	0x112a
    133e:	c1bf3697          	auipc	a3,0xc1bf3
    1342:	7e36                	.2byte	0x7e36
    1344:	fbe8                	.2byte	0xfbe8
    1346:	7ed0                	.2byte	0x7ed0
    1348:	112a                	.2byte	0x112a
    134a:	c1bf3617          	auipc	a2,0xc1bf3
    134e:	7e36                	.2byte	0x7e36
    1350:	fbe8                	.2byte	0xfbe8
    1352:	7ed0                	.2byte	0x7ed0
    1354:	112a                	.2byte	0x112a
    1356:	c1bf3597          	auipc	a1,0xc1bf3
    135a:	7e36                	.2byte	0x7e36
    135c:	fbe8                	.2byte	0xfbe8
    135e:	7ed0                	.2byte	0x7ed0
    1360:	112a                	.2byte	0x112a
    1362:	c1bf3517          	auipc	a0,0xc1bf3
    1366:	7e36                	.2byte	0x7e36
    1368:	fbe8                	.2byte	0xfbe8
    136a:	7ed0                	.2byte	0x7ed0
    136c:	112a                	.2byte	0x112a
    136e:	c1bf3497          	auipc	s1,0xc1bf3
    1372:	7e36                	.2byte	0x7e36
    1374:	fbe8                	.2byte	0xfbe8
    1376:	7ed0                	.2byte	0x7ed0
    1378:	112a                	.2byte	0x112a
    137a:	c1bf5717          	auipc	a4,0xc1bf5
    137e:	7e36                	.2byte	0x7e36
    1380:	fbe8                	.2byte	0xfbe8
    1382:	7ed0                	.2byte	0x7ed0
    1384:	112a                	.2byte	0x112a
    1386:	c1bf5697          	auipc	a3,0xc1bf5
    138a:	7e36                	.2byte	0x7e36
    138c:	fbe8                	.2byte	0xfbe8
    138e:	7ed0                	.2byte	0x7ed0
    1390:	112a                	.2byte	0x112a
    1392:	c1bf5617          	auipc	a2,0xc1bf5
    1396:	7e36                	.2byte	0x7e36
    1398:	fbe8                	.2byte	0xfbe8
    139a:	7ed0                	.2byte	0x7ed0
    139c:	112a                	.2byte	0x112a
    139e:	c1bf5597          	auipc	a1,0xc1bf5
    13a2:	7e36                	.2byte	0x7e36
    13a4:	fbe8                	.2byte	0xfbe8
    13a6:	7ed0                	.2byte	0x7ed0
    13a8:	112a                	.2byte	0x112a
    13aa:	c1bf5517          	auipc	a0,0xc1bf5
    13ae:	7e36                	.2byte	0x7e36
    13b0:	fbe8                	.2byte	0xfbe8
    13b2:	7ed0                	.2byte	0x7ed0
    13b4:	112a                	.2byte	0x112a
    13b6:	c1bf5497          	auipc	s1,0xc1bf5
    13ba:	7e36                	.2byte	0x7e36
    13bc:	fbe8                	.2byte	0xfbe8
    13be:	7ed0                	.2byte	0x7ed0
    13c0:	112a                	.2byte	0x112a
    13c2:	c1bf5417          	auipc	s0,0xc1bf5
    13c6:	7e36                	.2byte	0x7e36
    13c8:	fbe8                	.2byte	0xfbe8
    13ca:	7ed0                	.2byte	0x7ed0
    13cc:	112a                	.2byte	0x112a
    13ce:	          	auipc	t2,0xbeef5

000013d0 <data_begin>:
    13d0:	deadbeef          	jal	t4,fffdc9ba <_end+0xfffdb35a>
    13d4:	deadbeef          	jal	t4,fffdc9be <_end+0xfffdb35e>
    13d8:	deadbeef          	jal	t4,fffdc9c2 <_end+0xfffdb362>
    13dc:	deadbeef          	jal	t4,fffdc9c6 <_end+0xfffdb366>
    13e0:	deadbeef          	jal	t4,fffdc9ca <_end+0xfffdb36a>
    13e4:	deadbeef          	jal	t4,fffdc9ce <_end+0xfffdb36e>
    13e8:	deadbeef          	jal	t4,fffdc9d2 <_end+0xfffdb372>
    13ec:	deadbeef          	jal	t4,fffdc9d6 <_end+0xfffdb376>
    13f0:	deadbeef          	jal	t4,fffdc9da <_end+0xfffdb37a>
    13f4:	deadbeef          	jal	t4,fffdc9de <_end+0xfffdb37e>
    13f8:	deadbeef          	jal	t4,fffdc9e2 <_end+0xfffdb382>
    13fc:	deadbeef          	jal	t4,fffdc9e6 <_end+0xfffdb386>
    1400:	deadbeef          	jal	t4,fffdc9ea <_end+0xfffdb38a>
    1404:	deadbeef          	jal	t4,fffdc9ee <_end+0xfffdb38e>
    1408:	deadbeef          	jal	t4,fffdc9f2 <_end+0xfffdb392>
    140c:	deadbeef          	jal	t4,fffdc9f6 <_end+0xfffdb396>
    1410:	deadbeef          	jal	t4,fffdc9fa <_end+0xfffdb39a>
    1414:	deadbeef          	jal	t4,fffdc9fe <_end+0xfffdb39e>
    1418:	deadbeef          	jal	t4,fffdca02 <_end+0xfffdb3a2>
    141c:	deadbeef          	jal	t4,fffdca06 <_end+0xfffdb3a6>
    1420:	deadbeef          	jal	t4,fffdca0a <_end+0xfffdb3aa>
    1424:	deadbeef          	jal	t4,fffdca0e <_end+0xfffdb3ae>
    1428:	deadbeef          	jal	t4,fffdca12 <_end+0xfffdb3b2>
    142c:	deadbeef          	jal	t4,fffdca16 <_end+0xfffdb3b6>
    1430:	deadbeef          	jal	t4,fffdca1a <_end+0xfffdb3ba>
    1434:	deadbeef          	jal	t4,fffdca1e <_end+0xfffdb3be>
    1438:	deadbeef          	jal	t4,fffdca22 <_end+0xfffdb3c2>
    143c:	deadbeef          	jal	t4,fffdca26 <_end+0xfffdb3c6>
    1440:	deadbeef          	jal	t4,fffdca2a <_end+0xfffdb3ca>
    1444:	deadbeef          	jal	t4,fffdca2e <_end+0xfffdb3ce>
    1448:	deadbeef          	jal	t4,fffdca32 <_end+0xfffdb3d2>
    144c:	deadbeef          	jal	t4,fffdca36 <_end+0xfffdb3d6>
    1450:	deadbeef          	jal	t4,fffdca3a <_end+0xfffdb3da>
    1454:	deadbeef          	jal	t4,fffdca3e <_end+0xfffdb3de>
    1458:	deadbeef          	jal	t4,fffdca42 <_end+0xfffdb3e2>
    145c:	deadbeef          	jal	t4,fffdca46 <_end+0xfffdb3e6>
    1460:	deadbeef          	jal	t4,fffdca4a <_end+0xfffdb3ea>
    1464:	deadbeef          	jal	t4,fffdca4e <_end+0xfffdb3ee>
    1468:	deadbeef          	jal	t4,fffdca52 <_end+0xfffdb3f2>
    146c:	deadbeef          	jal	t4,fffdca56 <_end+0xfffdb3f6>
    1470:	deadbeef          	jal	t4,fffdca5a <_end+0xfffdb3fa>
    1474:	deadbeef          	jal	t4,fffdca5e <_end+0xfffdb3fe>
    1478:	deadbeef          	jal	t4,fffdca62 <_end+0xfffdb402>
    147c:	deadbeef          	jal	t4,fffdca66 <_end+0xfffdb406>
    1480:	deadbeef          	jal	t4,fffdca6a <_end+0xfffdb40a>
    1484:	deadbeef          	jal	t4,fffdca6e <_end+0xfffdb40e>
    1488:	deadbeef          	jal	t4,fffdca72 <_end+0xfffdb412>
    148c:	deadbeef          	jal	t4,fffdca76 <_end+0xfffdb416>
    1490:	deadbeef          	jal	t4,fffdca7a <_end+0xfffdb41a>
    1494:	deadbeef          	jal	t4,fffdca7e <_end+0xfffdb41e>
    1498:	deadbeef          	jal	t4,fffdca82 <_end+0xfffdb422>
    149c:	deadbeef          	jal	t4,fffdca86 <_end+0xfffdb426>
    14a0:	deadbeef          	jal	t4,fffdca8a <_end+0xfffdb42a>
    14a4:	deadbeef          	jal	t4,fffdca8e <_end+0xfffdb42e>
    14a8:	deadbeef          	jal	t4,fffdca92 <_end+0xfffdb432>
    14ac:	deadbeef          	jal	t4,fffdca96 <_end+0xfffdb436>
    14b0:	deadbeef          	jal	t4,fffdca9a <_end+0xfffdb43a>
    14b4:	deadbeef          	jal	t4,fffdca9e <_end+0xfffdb43e>
    14b8:	deadbeef          	jal	t4,fffdcaa2 <_end+0xfffdb442>
    14bc:	deadbeef          	jal	t4,fffdcaa6 <_end+0xfffdb446>
    14c0:	deadbeef          	jal	t4,fffdcaaa <_end+0xfffdb44a>
    14c4:	deadbeef          	jal	t4,fffdcaae <_end+0xfffdb44e>
    14c8:	deadbeef          	jal	t4,fffdcab2 <_end+0xfffdb452>
    14cc:	deadbeef          	jal	t4,fffdcab6 <_end+0xfffdb456>
    14d0:	deadbeef          	jal	t4,fffdcaba <_end+0xfffdb45a>
    14d4:	deadbeef          	jal	t4,fffdcabe <_end+0xfffdb45e>
    14d8:	deadbeef          	jal	t4,fffdcac2 <_end+0xfffdb462>
    14dc:	deadbeef          	jal	t4,fffdcac6 <_end+0xfffdb466>
    14e0:	deadbeef          	jal	t4,fffdcaca <_end+0xfffdb46a>
    14e4:	deadbeef          	jal	t4,fffdcace <_end+0xfffdb46e>
    14e8:	deadbeef          	jal	t4,fffdcad2 <_end+0xfffdb472>
    14ec:	deadbeef          	jal	t4,fffdcad6 <_end+0xfffdb476>
    14f0:	deadbeef          	jal	t4,fffdcada <_end+0xfffdb47a>
    14f4:	deadbeef          	jal	t4,fffdcade <_end+0xfffdb47e>
    14f8:	deadbeef          	jal	t4,fffdcae2 <_end+0xfffdb482>
    14fc:	deadbeef          	jal	t4,fffdcae6 <_end+0xfffdb486>
    1500:	deadbeef          	jal	t4,fffdcaea <_end+0xfffdb48a>
    1504:	deadbeef          	jal	t4,fffdcaee <_end+0xfffdb48e>
    1508:	deadbeef          	jal	t4,fffdcaf2 <_end+0xfffdb492>
    150c:	deadbeef          	jal	t4,fffdcaf6 <_end+0xfffdb496>
    1510:	deadbeef          	jal	t4,fffdcafa <_end+0xfffdb49a>
    1514:	deadbeef          	jal	t4,fffdcafe <_end+0xfffdb49e>
    1518:	deadbeef          	jal	t4,fffdcb02 <_end+0xfffdb4a2>
    151c:	deadbeef          	jal	t4,fffdcb06 <_end+0xfffdb4a6>
    1520:	deadbeef          	jal	t4,fffdcb0a <_end+0xfffdb4aa>
    1524:	deadbeef          	jal	t4,fffdcb0e <_end+0xfffdb4ae>
    1528:	deadbeef          	jal	t4,fffdcb12 <_end+0xfffdb4b2>
    152c:	deadbeef          	jal	t4,fffdcb16 <_end+0xfffdb4b6>
    1530:	deadbeef          	jal	t4,fffdcb1a <_end+0xfffdb4ba>
    1534:	deadbeef          	jal	t4,fffdcb1e <_end+0xfffdb4be>
    1538:	deadbeef          	jal	t4,fffdcb22 <_end+0xfffdb4c2>
    153c:	deadbeef          	jal	t4,fffdcb26 <_end+0xfffdb4c6>
    1540:	deadbeef          	jal	t4,fffdcb2a <_end+0xfffdb4ca>
    1544:	deadbeef          	jal	t4,fffdcb2e <_end+0xfffdb4ce>
    1548:	deadbeef          	jal	t4,fffdcb32 <_end+0xfffdb4d2>
    154c:	deadbeef          	jal	t4,fffdcb36 <_end+0xfffdb4d6>
    1550:	deadbeef          	jal	t4,fffdcb3a <_end+0xfffdb4da>
    1554:	deadbeef          	jal	t4,fffdcb3e <_end+0xfffdb4de>
    1558:	deadbeef          	jal	t4,fffdcb42 <_end+0xfffdb4e2>
    155c:	deadbeef          	jal	t4,fffdcb46 <_end+0xfffdb4e6>
    1560:	deadbeef          	jal	t4,fffdcb4a <_end+0xfffdb4ea>
    1564:	deadbeef          	jal	t4,fffdcb4e <_end+0xfffdb4ee>
    1568:	deadbeef          	jal	t4,fffdcb52 <_end+0xfffdb4f2>
    156c:	deadbeef          	jal	t4,fffdcb56 <_end+0xfffdb4f6>
    1570:	deadbeef          	jal	t4,fffdcb5a <_end+0xfffdb4fa>
    1574:	deadbeef          	jal	t4,fffdcb5e <_end+0xfffdb4fe>
    1578:	deadbeef          	jal	t4,fffdcb62 <_end+0xfffdb502>
    157c:	deadbeef          	jal	t4,fffdcb66 <_end+0xfffdb506>
    1580:	deadbeef          	jal	t4,fffdcb6a <_end+0xfffdb50a>
    1584:	deadbeef          	jal	t4,fffdcb6e <_end+0xfffdb50e>
    1588:	deadbeef          	jal	t4,fffdcb72 <_end+0xfffdb512>
    158c:	deadbeef          	jal	t4,fffdcb76 <_end+0xfffdb516>
    1590:	deadbeef          	jal	t4,fffdcb7a <_end+0xfffdb51a>
    1594:	deadbeef          	jal	t4,fffdcb7e <_end+0xfffdb51e>
    1598:	deadbeef          	jal	t4,fffdcb82 <_end+0xfffdb522>
    159c:	deadbeef          	jal	t4,fffdcb86 <_end+0xfffdb526>
    15a0:	deadbeef          	jal	t4,fffdcb8a <_end+0xfffdb52a>
    15a4:	deadbeef          	jal	t4,fffdcb8e <_end+0xfffdb52e>
    15a8:	deadbeef          	jal	t4,fffdcb92 <_end+0xfffdb532>
    15ac:	deadbeef          	jal	t4,fffdcb96 <_end+0xfffdb536>
    15b0:	deadbeef          	jal	t4,fffdcb9a <_end+0xfffdb53a>
    15b4:	deadbeef          	jal	t4,fffdcb9e <_end+0xfffdb53e>
    15b8:	deadbeef          	jal	t4,fffdcba2 <_end+0xfffdb542>
    15bc:	deadbeef          	jal	t4,fffdcba6 <_end+0xfffdb546>
    15c0:	deadbeef          	jal	t4,fffdcbaa <_end+0xfffdb54a>
    15c4:	deadbeef          	jal	t4,fffdcbae <_end+0xfffdb54e>
    15c8:	deadbeef          	jal	t4,fffdcbb2 <_end+0xfffdb552>
    15cc:	deadbeef          	jal	t4,fffdcbb6 <_end+0xfffdb556>
    15d0:	deadbeef          	jal	t4,fffdcbba <_end+0xfffdb55a>
    15d4:	deadbeef          	jal	t4,fffdcbbe <_end+0xfffdb55e>
    15d8:	deadbeef          	jal	t4,fffdcbc2 <_end+0xfffdb562>
    15dc:	deadbeef          	jal	t4,fffdcbc6 <_end+0xfffdb566>
    15e0:	deadbeef          	jal	t4,fffdcbca <_end+0xfffdb56a>
    15e4:	deadbeef          	jal	t4,fffdcbce <_end+0xfffdb56e>
    15e8:	deadbeef          	jal	t4,fffdcbd2 <_end+0xfffdb572>
    15ec:	deadbeef          	jal	t4,fffdcbd6 <_end+0xfffdb576>
    15f0:	deadbeef          	jal	t4,fffdcbda <_end+0xfffdb57a>
    15f4:	deadbeef          	jal	t4,fffdcbde <_end+0xfffdb57e>
    15f8:	deadbeef          	jal	t4,fffdcbe2 <_end+0xfffdb582>
    15fc:	deadbeef          	jal	t4,fffdcbe6 <_end+0xfffdb586>
    1600:	deadbeef          	jal	t4,fffdcbea <_end+0xfffdb58a>
    1604:	deadbeef          	jal	t4,fffdcbee <_end+0xfffdb58e>
    1608:	deadbeef          	jal	t4,fffdcbf2 <_end+0xfffdb592>
    160c:	deadbeef          	jal	t4,fffdcbf6 <_end+0xfffdb596>
    1610:	deadbeef          	jal	t4,fffdcbfa <_end+0xfffdb59a>
    1614:	deadbeef          	jal	t4,fffdcbfe <_end+0xfffdb59e>
    1618:	deadbeef          	jal	t4,fffdcc02 <_end+0xfffdb5a2>
    161c:	deadbeef          	jal	t4,fffdcc06 <_end+0xfffdb5a6>
    1620:	deadbeef          	jal	t4,fffdcc0a <_end+0xfffdb5aa>
    1624:	deadbeef          	jal	t4,fffdcc0e <_end+0xfffdb5ae>
    1628:	deadbeef          	jal	t4,fffdcc12 <_end+0xfffdb5b2>
    162c:	deadbeef          	jal	t4,fffdcc16 <_end+0xfffdb5b6>
    1630:	deadbeef          	jal	t4,fffdcc1a <_end+0xfffdb5ba>
    1634:	deadbeef          	jal	t4,fffdcc1e <_end+0xfffdb5be>
    1638:	deadbeef          	jal	t4,fffdcc22 <_end+0xfffdb5c2>
    163c:	deadbeef          	jal	t4,fffdcc26 <_end+0xfffdb5c6>
    1640:	deadbeef          	jal	t4,fffdcc2a <_end+0xfffdb5ca>
    1644:	deadbeef          	jal	t4,fffdcc2e <_end+0xfffdb5ce>
    1648:	deadbeef          	jal	t4,fffdcc32 <_end+0xfffdb5d2>
    164c:	deadbeef          	jal	t4,fffdcc36 <_end+0xfffdb5d6>
    1650:	deadbeef          	jal	t4,fffdcc3a <_end+0xfffdb5da>
    1654:	deadbeef          	jal	t4,fffdcc3e <_end+0xfffdb5de>
	...

Desensamblado de la sección .riscv.attributes:

00000000 <.riscv.attributes>:
   0:	2241                	.2byte	0x2241
   2:	0000                	.2byte	0x0
   4:	7200                	.2byte	0x7200
   6:	7369                	.2byte	0x7369
   8:	01007663          	bgeu	zero,a6,14 <rvtest_entry_point+0x14>
   c:	0018                	.2byte	0x18
   e:	0000                	.2byte	0x0
  10:	7205                	.2byte	0x7205
  12:	3376                	.2byte	0x3376
  14:	6932                	.2byte	0x6932
  16:	7032                	.2byte	0x7032
  18:	5f30                	.2byte	0x5f30
  1a:	3266                	.2byte	0x3266
  1c:	3070                	.2byte	0x3070
  1e:	0800                	.2byte	0x800
  20:	0a01                	.2byte	0xa01
  22:	0b              	Address 0x22 is out of bounds.

