
/home/alejandro/Escritorio/test_riscv2.5/riscv-compliance/work/rv32i_m/F/fnmsub_b6-01.elf:     formato del fichero elf32-littleriscv


Desensamblado de la sección .text.init:

00000000 <rvtest_entry_point>:
       0:	feedc0b7          	lui	ra,0xfeedc
       4:	ead08093          	add	ra,ra,-339 # feedbead <_end+0xfeed92fd>
       8:	ff76e137          	lui	sp,0xff76e
       c:	f5610113          	add	sp,sp,-170 # ff76df56 <_end+0xff76b3a6>
      10:	7fbb71b7          	lui	gp,0x7fbb7
      14:	fab18193          	add	gp,gp,-85 # 7fbb6fab <_end+0x7fbb43fb>
      18:	bfddb237          	lui	tp,0xbfddb
      1c:	7d520213          	add	tp,tp,2005 # bfddb7d5 <_end+0xbfdd8c25>
      20:	00000297          	auipc	t0,0x0
      24:	0d828293          	add	t0,t0,216 # f8 <rvtest_code_begin>
      28:	00002317          	auipc	t1,0x2
      2c:	fd830313          	add	t1,t1,-40 # 2000 <rvtest_data_begin>
      30:	b7fbb3b7          	lui	t2,0xb7fbb
      34:	6fa38393          	add	t2,t2,1786 # b7fbb6fa <_end+0xb7fb8b4a>
      38:	5bfde437          	lui	s0,0x5bfde
      3c:	b7d40413          	add	s0,s0,-1155 # 5bfddb7d <_end+0x5bfdafcd>
      40:	adfef4b7          	lui	s1,0xadfef
      44:	dbe48493          	add	s1,s1,-578 # adfeedbe <_end+0xadfec20e>
      48:	56ff7537          	lui	a0,0x56ff7
      4c:	6df50513          	add	a0,a0,1759 # 56ff76df <_end+0x56ff4b2f>
      50:	ab7fc5b7          	lui	a1,0xab7fc
      54:	b6f58593          	add	a1,a1,-1169 # ab7fbb6f <_end+0xab7f8fbf>
      58:	d5bfe637          	lui	a2,0xd5bfe
      5c:	db760613          	add	a2,a2,-585 # d5bfddb7 <_end+0xd5bfb207>
      60:	eadff6b7          	lui	a3,0xeadff
      64:	edb68693          	add	a3,a3,-293 # eadfeedb <_end+0xeadfc32b>
      68:	f56ff737          	lui	a4,0xf56ff
      6c:	76d70713          	add	a4,a4,1901 # f56ff76d <_end+0xf56fcbbd>
      70:	fab807b7          	lui	a5,0xfab80
      74:	bb678793          	add	a5,a5,-1098 # fab7fbb6 <_end+0xfab7d006>
      78:	7d5c0837          	lui	a6,0x7d5c0
      7c:	ddb80813          	add	a6,a6,-549 # 7d5bfddb <_end+0x7d5bd22b>
      80:	beae08b7          	lui	a7,0xbeae0
      84:	eed88893          	add	a7,a7,-275 # beadfeed <_end+0xbeadd33d>
      88:	df570937          	lui	s2,0xdf570
      8c:	f7690913          	add	s2,s2,-138 # df56ff76 <_end+0xdf56d3c6>
      90:	6fab89b7          	lui	s3,0x6fab8
      94:	fbb98993          	add	s3,s3,-69 # 6fab7fbb <_end+0x6fab540b>
      98:	b7d5ca37          	lui	s4,0xb7d5c
      9c:	fdda0a13          	add	s4,s4,-35 # b7d5bfdd <_end+0xb7d5942d>
      a0:	dbeaeab7          	lui	s5,0xdbeae
      a4:	feea8a93          	add	s5,s5,-18 # dbeadfee <_end+0xdbeab43e>
      a8:	6df57b37          	lui	s6,0x6df57
      ac:	ff7b0b13          	add	s6,s6,-9 # 6df56ff7 <_end+0x6df54447>
      b0:	b6fabbb7          	lui	s7,0xb6fab
      b4:	7fbb8b93          	add	s7,s7,2043 # b6fab7fb <_end+0xb6fa8c4b>
      b8:	db7d6c37          	lui	s8,0xdb7d6
      bc:	bfdc0c13          	add	s8,s8,-1027 # db7d5bfd <_end+0xdb7d304d>
      c0:	edbebcb7          	lui	s9,0xedbeb
      c4:	dfec8c93          	add	s9,s9,-514 # edbeadfe <_end+0xedbe824e>
      c8:	76df5d37          	lui	s10,0x76df5
      cc:	6ffd0d13          	add	s10,s10,1791 # 76df56ff <_end+0x76df2b4f>
      d0:	bb6fbdb7          	lui	s11,0xbb6fb
      d4:	b7fd8d93          	add	s11,s11,-1153 # bb6fab7f <_end+0xbb6f7fcf>
      d8:	ddb7de37          	lui	t3,0xddb7d
      dc:	5bfe0e13          	add	t3,t3,1471 # ddb7d5bf <_end+0xddb7aa0f>
      e0:	eedbfeb7          	lui	t4,0xeedbf
      e4:	adfe8e93          	add	t4,t4,-1313 # eedbeadf <_end+0xeedbbf2f>
      e8:	f76dff37          	lui	t5,0xf76df
      ec:	56ff0f13          	add	t5,t5,1391 # f76df56f <_end+0xf76dc9bf>
      f0:	fbb70fb7          	lui	t6,0xfbb70
      f4:	ab7f8f93          	add	t6,t6,-1353 # fbb6fab7 <_end+0xfbb6cf07>

000000f8 <rvtest_code_begin>:
      f8:	00002537          	lui	a0,0x2
      fc:	30052073          	csrs	mstatus,a0
     100:	00002817          	auipc	a6,0x2
     104:	f0480813          	add	a6,a6,-252 # 2004 <test_fp>
     108:	00002797          	auipc	a5,0x2
     10c:	5f878793          	add	a5,a5,1528 # 2700 <data_begin>

00000110 <inst_0>:
     110:	00082a07          	flw	fs4,0(a6)
     114:	00482487          	flw	fs1,4(a6)
     118:	00882607          	flw	fa2,8(a6)
     11c:	00205073          	fsrmi	zero,0
     120:	609a7a4b          	fnmsub.s	fs4,fs4,fs1,fa2
     124:	001028f3          	frflags	a7
     128:	0147a027          	fsw	fs4,0(a5)
     12c:	0117a223          	sw	a7,4(a5)

00000130 <inst_1>:
     130:	00c82607          	flw	fa2,12(a6)
     134:	01082887          	flw	fa7,16(a6)
     138:	01482507          	flw	fa0,20(a6)
     13c:	00225073          	fsrmi	zero,4
     140:	5116754b          	fnmsub.s	fa0,fa2,fa7,fa0
     144:	001028f3          	frflags	a7
     148:	00a7a427          	fsw	fa0,8(a5)
     14c:	0117a623          	sw	a7,12(a5)

00000150 <inst_2>:
     150:	01882207          	flw	ft4,24(a6)
     154:	01c82187          	flw	ft3,28(a6)
     158:	02082a07          	flw	fs4,32(a6)
     15c:	0021d073          	fsrmi	zero,3
     160:	a032774b          	fnmsub.s	fa4,ft4,ft3,fs4
     164:	001028f3          	frflags	a7
     168:	00e7a827          	fsw	fa4,16(a5)
     16c:	0117aa23          	sw	a7,20(a5)

00000170 <inst_3>:
     170:	02482b07          	flw	fs6,36(a6)
     174:	02882b07          	flw	fs6,40(a6)
     178:	02c82a87          	flw	fs5,44(a6)
     17c:	00215073          	fsrmi	zero,2
     180:	a96b7ccb          	fnmsub.s	fs9,fs6,fs6,fs5
     184:	001028f3          	frflags	a7
     188:	0197ac27          	fsw	fs9,24(a5)
     18c:	0117ae23          	sw	a7,28(a5)

00000190 <inst_4>:
     190:	03082407          	flw	fs0,48(a6)
     194:	03482407          	flw	fs0,52(a6)
     198:	03882407          	flw	fs0,56(a6)
     19c:	0020d073          	fsrmi	zero,1
     1a0:	4084744b          	fnmsub.s	fs0,fs0,fs0,fs0
     1a4:	001028f3          	frflags	a7
     1a8:	0287a027          	fsw	fs0,32(a5)
     1ac:	0317a223          	sw	a7,36(a5)

000001b0 <inst_5>:
     1b0:	03c82987          	flw	fs3,60(a6)
     1b4:	04082e87          	flw	ft9,64(a6)
     1b8:	04482e87          	flw	ft9,68(a6)
     1bc:	00205073          	fsrmi	zero,0
     1c0:	e9d9fecb          	fnmsub.s	ft9,fs3,ft9,ft9
     1c4:	001028f3          	frflags	a7
     1c8:	03d7a427          	fsw	ft9,40(a5)
     1cc:	0317a623          	sw	a7,44(a5)

000001d0 <inst_6>:
     1d0:	04882687          	flw	fa3,72(a6)
     1d4:	04c82687          	flw	fa3,76(a6)
     1d8:	05082487          	flw	fs1,80(a6)
     1dc:	00225073          	fsrmi	zero,4
     1e0:	48d6f6cb          	fnmsub.s	fa3,fa3,fa3,fs1
     1e4:	001028f3          	frflags	a7
     1e8:	02d7a827          	fsw	fa3,48(a5)
     1ec:	0317aa23          	sw	a7,52(a5)

000001f0 <inst_7>:
     1f0:	05482c07          	flw	fs8,84(a6)
     1f4:	05882a07          	flw	fs4,88(a6)
     1f8:	05c82c07          	flw	fs8,92(a6)
     1fc:	0021d073          	fsrmi	zero,3
     200:	c14c7f4b          	fnmsub.s	ft10,fs8,fs4,fs8
     204:	001028f3          	frflags	a7
     208:	03e7ac27          	fsw	ft10,56(a5)
     20c:	0317ae23          	sw	a7,60(a5)

00000210 <inst_8>:
     210:	06082487          	flw	fs1,96(a6)
     214:	06482287          	flw	ft5,100(a6)
     218:	06882287          	flw	ft5,104(a6)
     21c:	00215073          	fsrmi	zero,2
     220:	2854fdcb          	fnmsub.s	fs11,fs1,ft5,ft5
     224:	001028f3          	frflags	a7
     228:	05b7a027          	fsw	fs11,64(a5)
     22c:	0517a223          	sw	a7,68(a5)

00000230 <inst_9>:
     230:	06c82b87          	flw	fs7,108(a6)
     234:	07082b87          	flw	fs7,112(a6)
     238:	07482b87          	flw	fs7,116(a6)
     23c:	0020d073          	fsrmi	zero,1
     240:	b97bf5cb          	fnmsub.s	fa1,fs7,fs7,fs7
     244:	001028f3          	frflags	a7
     248:	04b7a427          	fsw	fa1,72(a5)
     24c:	0517a623          	sw	a7,76(a5)

00000250 <inst_10>:
     250:	07882787          	flw	fa5,120(a6)
     254:	07c82d07          	flw	fs10,124(a6)
     258:	08082787          	flw	fa5,128(a6)
     25c:	00205073          	fsrmi	zero,0
     260:	79a7f7cb          	fnmsub.s	fa5,fa5,fs10,fa5
     264:	001028f3          	frflags	a7
     268:	04f7a827          	fsw	fa5,80(a5)
     26c:	0517aa23          	sw	a7,84(a5)

00000270 <inst_11>:
     270:	08482387          	flw	ft7,132(a6)
     274:	08882007          	flw	ft0,136(a6)
     278:	08c82207          	flw	ft4,140(a6)
     27c:	00225073          	fsrmi	zero,4
     280:	2003f04b          	fnmsub.s	ft0,ft7,ft0,ft4
     284:	001028f3          	frflags	a7
     288:	0407ac27          	fsw	ft0,88(a5)
     28c:	0517ae23          	sw	a7,92(a5)

00000290 <inst_12>:
     290:	09082707          	flw	fa4,144(a6)
     294:	09482787          	flw	fa5,148(a6)
     298:	09882e07          	flw	ft8,152(a6)
     29c:	0021d073          	fsrmi	zero,3
     2a0:	e0f7794b          	fnmsub.s	fs2,fa4,fa5,ft8
     2a4:	001028f3          	frflags	a7
     2a8:	0727a027          	fsw	fs2,96(a5)
     2ac:	0717a223          	sw	a7,100(a5)

000002b0 <inst_13>:
     2b0:	09c82d07          	flw	fs10,156(a6)
     2b4:	0a082107          	flw	ft2,160(a6)
     2b8:	0a482f07          	flw	ft10,164(a6)
     2bc:	00215073          	fsrmi	zero,2
     2c0:	f02d78cb          	fnmsub.s	fa7,fs10,ft2,ft10
     2c4:	001028f3          	frflags	a7
     2c8:	0717a427          	fsw	fa7,104(a5)
     2cc:	0717a623          	sw	a7,108(a5)

000002d0 <inst_14>:
     2d0:	0a882907          	flw	fs2,168(a6)
     2d4:	0ac82f87          	flw	ft11,172(a6)
     2d8:	0b082707          	flw	fa4,176(a6)
     2dc:	0020d073          	fsrmi	zero,1
     2e0:	71f97c4b          	fnmsub.s	fs8,fs2,ft11,fa4
     2e4:	001028f3          	frflags	a7
     2e8:	0787a827          	fsw	fs8,112(a5)
     2ec:	0717aa23          	sw	a7,116(a5)

000002f0 <inst_15>:
     2f0:	0b482d87          	flw	fs11,180(a6)
     2f4:	0b882607          	flw	fa2,184(a6)
     2f8:	0bc82007          	flw	ft0,188(a6)
     2fc:	00205073          	fsrmi	zero,0
     300:	00cdfbcb          	fnmsub.s	fs7,fs11,fa2,ft0
     304:	001028f3          	frflags	a7
     308:	0777ac27          	fsw	fs7,120(a5)
     30c:	0717ae23          	sw	a7,124(a5)

00000310 <inst_16>:
     310:	0c082e07          	flw	ft8,192(a6)
     314:	0c482387          	flw	ft7,196(a6)
     318:	0c882307          	flw	ft6,200(a6)
     31c:	00225073          	fsrmi	zero,4
     320:	307e714b          	fnmsub.s	ft2,ft8,ft7,ft6
     324:	001028f3          	frflags	a7
     328:	0827a027          	fsw	ft2,128(a5)
     32c:	0917a223          	sw	a7,132(a5)

00000330 <inst_17>:
     330:	0cc82e87          	flw	ft9,204(a6)
     334:	0d082987          	flw	fs3,208(a6)
     338:	0d482b07          	flw	fs6,212(a6)
     33c:	0021d073          	fsrmi	zero,3
     340:	b13ef3cb          	fnmsub.s	ft7,ft9,fs3,fs6
     344:	001028f3          	frflags	a7
     348:	0877a427          	fsw	ft7,136(a5)
     34c:	0917a623          	sw	a7,140(a5)

00000350 <inst_18>:
     350:	0d882107          	flw	ft2,216(a6)
     354:	0dc82807          	flw	fa6,220(a6)
     358:	0e082f87          	flw	ft11,224(a6)
     35c:	00215073          	fsrmi	zero,2
     360:	f901724b          	fnmsub.s	ft4,ft2,fa6,ft11
     364:	001028f3          	frflags	a7
     368:	0847a827          	fsw	ft4,144(a5)
     36c:	0917aa23          	sw	a7,148(a5)

00000370 <inst_19>:
     370:	0e482087          	flw	ft1,228(a6)
     374:	0e882587          	flw	fa1,232(a6)
     378:	0ec82807          	flw	fa6,236(a6)
     37c:	0020d073          	fsrmi	zero,1
     380:	80b0f4cb          	fnmsub.s	fs1,ft1,fa1,fa6
     384:	001028f3          	frflags	a7
     388:	0897ac27          	fsw	fs1,152(a5)
     38c:	0917ae23          	sw	a7,156(a5)

00000390 <inst_20>:
     390:	0f082587          	flw	fa1,240(a6)
     394:	0f482d87          	flw	fs11,244(a6)
     398:	0f882187          	flw	ft3,248(a6)
     39c:	00205073          	fsrmi	zero,0
     3a0:	19b5facb          	fnmsub.s	fs5,fa1,fs11,ft3
     3a4:	001028f3          	frflags	a7
     3a8:	0b57a027          	fsw	fs5,160(a5)
     3ac:	0b17a223          	sw	a7,164(a5)

000003b0 <inst_21>:
     3b0:	0fc82887          	flw	fa7,252(a6)
     3b4:	10082a87          	flw	fs5,256(a6)
     3b8:	10482587          	flw	fa1,260(a6)
     3bc:	00225073          	fsrmi	zero,4
     3c0:	5958f0cb          	fnmsub.s	ft1,fa7,fs5,fa1
     3c4:	001028f3          	frflags	a7
     3c8:	0a17a427          	fsw	ft1,168(a5)
     3cc:	0b17a623          	sw	a7,172(a5)

000003d0 <inst_22>:
     3d0:	10882807          	flw	fa6,264(a6)
     3d4:	10c82707          	flw	fa4,268(a6)
     3d8:	11082d87          	flw	fs11,272(a6)
     3dc:	0021d073          	fsrmi	zero,3
     3e0:	d8e87e4b          	fnmsub.s	ft8,fa6,fa4,fs11
     3e4:	001028f3          	frflags	a7
     3e8:	0bc7a827          	fsw	ft8,176(a5)
     3ec:	0b17aa23          	sw	a7,180(a5)

000003f0 <inst_23>:
     3f0:	11482f87          	flw	ft11,276(a6)
     3f4:	11882c87          	flw	fs9,280(a6)
     3f8:	11c82887          	flw	fa7,284(a6)
     3fc:	00215073          	fsrmi	zero,2
     400:	899ff34b          	fnmsub.s	ft6,ft11,fs9,fa7
     404:	001028f3          	frflags	a7
     408:	0a67ac27          	fsw	ft6,184(a5)
     40c:	0b17ae23          	sw	a7,188(a5)

00000410 <inst_24>:
     410:	12082307          	flw	ft6,288(a6)
     414:	12482507          	flw	fa0,292(a6)
     418:	12882107          	flw	ft2,296(a6)
     41c:	0020d073          	fsrmi	zero,1
     420:	10a37d4b          	fnmsub.s	fs10,ft6,fa0,ft2
     424:	001028f3          	frflags	a7
     428:	0da7a027          	fsw	fs10,192(a5)
     42c:	0d17a223          	sw	a7,196(a5)

00000430 <inst_25>:
     430:	12c82f07          	flw	ft10,300(a6)
     434:	13082c07          	flw	fs8,304(a6)
     438:	13482d07          	flw	fs10,308(a6)
     43c:	00205073          	fsrmi	zero,0
     440:	d18f7b4b          	fnmsub.s	fs6,ft10,fs8,fs10
     444:	001028f3          	frflags	a7
     448:	0d67a427          	fsw	fs6,200(a5)
     44c:	0d17a623          	sw	a7,204(a5)

00000450 <inst_26>:
     450:	13882a87          	flw	fs5,312(a6)
     454:	13c82307          	flw	ft6,316(a6)
     458:	14082087          	flw	ft1,320(a6)
     45c:	00225073          	fsrmi	zero,4
     460:	086af9cb          	fnmsub.s	fs3,fs5,ft6,ft1
     464:	001028f3          	frflags	a7
     468:	0d37a827          	fsw	fs3,208(a5)
     46c:	0d17aa23          	sw	a7,212(a5)

00000470 <inst_27>:
     470:	14482507          	flw	fa0,324(a6)
     474:	14882f07          	flw	ft10,328(a6)
     478:	14c82687          	flw	fa3,332(a6)
     47c:	0021d073          	fsrmi	zero,3
     480:	69e5764b          	fnmsub.s	fa2,fa0,ft10,fa3
     484:	001028f3          	frflags	a7
     488:	0cc7ac27          	fsw	fa2,216(a5)
     48c:	0d17ae23          	sw	a7,220(a5)

00000490 <inst_28>:
     490:	15082287          	flw	ft5,336(a6)
     494:	15482e07          	flw	ft8,340(a6)
     498:	15882387          	flw	ft7,344(a6)
     49c:	00215073          	fsrmi	zero,2
     4a0:	39c2f1cb          	fnmsub.s	ft3,ft5,ft8,ft7
     4a4:	001028f3          	frflags	a7
     4a8:	0e37a027          	fsw	ft3,224(a5)
     4ac:	0f17a223          	sw	a7,228(a5)

000004b0 <inst_29>:
     4b0:	15c82007          	flw	ft0,348(a6)
     4b4:	16082907          	flw	fs2,352(a6)
     4b8:	16482c87          	flw	fs9,356(a6)
     4bc:	0020d073          	fsrmi	zero,1
     4c0:	c92072cb          	fnmsub.s	ft5,ft0,fs2,fs9
     4c4:	001028f3          	frflags	a7
     4c8:	0e57a427          	fsw	ft5,232(a5)
     4cc:	0f17a623          	sw	a7,236(a5)

000004d0 <inst_30>:
     4d0:	16882187          	flw	ft3,360(a6)
     4d4:	16c82087          	flw	ft1,364(a6)
     4d8:	17082907          	flw	fs2,368(a6)
     4dc:	00205073          	fsrmi	zero,0
     4e0:	9011f84b          	fnmsub.s	fa6,ft3,ft1,fs2
     4e4:	001028f3          	frflags	a7
     4e8:	0f07a827          	fsw	fa6,240(a5)
     4ec:	0f17aa23          	sw	a7,244(a5)

000004f0 <inst_31>:
     4f0:	17482c87          	flw	fs9,372(a6)
     4f4:	17882207          	flw	ft4,376(a6)
     4f8:	17c82987          	flw	fs3,380(a6)
     4fc:	00225073          	fsrmi	zero,4
     500:	984cffcb          	fnmsub.s	ft11,fs9,ft4,fs3
     504:	001028f3          	frflags	a7
     508:	0ff7ac27          	fsw	ft11,248(a5)
     50c:	0f17ae23          	sw	a7,252(a5)

00000510 <inst_32>:
     510:	18082507          	flw	fa0,384(a6)
     514:	18482587          	flw	fa1,388(a6)
     518:	18882607          	flw	fa2,392(a6)
     51c:	0021d073          	fsrmi	zero,3
     520:	60b576cb          	fnmsub.s	fa3,fa0,fa1,fa2
     524:	001028f3          	frflags	a7
     528:	10d7a027          	fsw	fa3,256(a5)
     52c:	1117a223          	sw	a7,260(a5)

00000530 <inst_33>:
     530:	18c82507          	flw	fa0,396(a6)
     534:	19082587          	flw	fa1,400(a6)
     538:	19482607          	flw	fa2,404(a6)
     53c:	00215073          	fsrmi	zero,2
     540:	60b576cb          	fnmsub.s	fa3,fa0,fa1,fa2
     544:	001028f3          	frflags	a7
     548:	10d7a427          	fsw	fa3,264(a5)
     54c:	1117a623          	sw	a7,268(a5)

00000550 <inst_34>:
     550:	19882507          	flw	fa0,408(a6)
     554:	19c82587          	flw	fa1,412(a6)
     558:	1a082607          	flw	fa2,416(a6)
     55c:	0020d073          	fsrmi	zero,1
     560:	60b576cb          	fnmsub.s	fa3,fa0,fa1,fa2
     564:	001028f3          	frflags	a7
     568:	10d7a827          	fsw	fa3,272(a5)
     56c:	1117aa23          	sw	a7,276(a5)

00000570 <inst_35>:
     570:	1a482507          	flw	fa0,420(a6)
     574:	1a882587          	flw	fa1,424(a6)
     578:	1ac82607          	flw	fa2,428(a6)
     57c:	00205073          	fsrmi	zero,0
     580:	60b576cb          	fnmsub.s	fa3,fa0,fa1,fa2
     584:	001028f3          	frflags	a7
     588:	10d7ac27          	fsw	fa3,280(a5)
     58c:	1117ae23          	sw	a7,284(a5)

00000590 <inst_36>:
     590:	1b082507          	flw	fa0,432(a6)
     594:	1b482587          	flw	fa1,436(a6)
     598:	1b882607          	flw	fa2,440(a6)
     59c:	00225073          	fsrmi	zero,4
     5a0:	60b576cb          	fnmsub.s	fa3,fa0,fa1,fa2
     5a4:	001028f3          	frflags	a7
     5a8:	12d7a027          	fsw	fa3,288(a5)
     5ac:	1317a223          	sw	a7,292(a5)

000005b0 <inst_37>:
     5b0:	1bc82507          	flw	fa0,444(a6)
     5b4:	1c082587          	flw	fa1,448(a6)
     5b8:	1c482607          	flw	fa2,452(a6)
     5bc:	0021d073          	fsrmi	zero,3
     5c0:	60b576cb          	fnmsub.s	fa3,fa0,fa1,fa2
     5c4:	001028f3          	frflags	a7
     5c8:	12d7a427          	fsw	fa3,296(a5)
     5cc:	1317a623          	sw	a7,300(a5)

000005d0 <inst_38>:
     5d0:	1c882507          	flw	fa0,456(a6)
     5d4:	1cc82587          	flw	fa1,460(a6)
     5d8:	1d082607          	flw	fa2,464(a6)
     5dc:	00215073          	fsrmi	zero,2
     5e0:	60b576cb          	fnmsub.s	fa3,fa0,fa1,fa2
     5e4:	001028f3          	frflags	a7
     5e8:	12d7a827          	fsw	fa3,304(a5)
     5ec:	1317aa23          	sw	a7,308(a5)

000005f0 <inst_39>:
     5f0:	1d482507          	flw	fa0,468(a6)
     5f4:	1d882587          	flw	fa1,472(a6)
     5f8:	1dc82607          	flw	fa2,476(a6)
     5fc:	0020d073          	fsrmi	zero,1
     600:	60b576cb          	fnmsub.s	fa3,fa0,fa1,fa2
     604:	001028f3          	frflags	a7
     608:	12d7ac27          	fsw	fa3,312(a5)
     60c:	1317ae23          	sw	a7,316(a5)

00000610 <inst_40>:
     610:	1e082507          	flw	fa0,480(a6)
     614:	1e482587          	flw	fa1,484(a6)
     618:	1e882607          	flw	fa2,488(a6)
     61c:	00205073          	fsrmi	zero,0
     620:	60b576cb          	fnmsub.s	fa3,fa0,fa1,fa2
     624:	001028f3          	frflags	a7
     628:	14d7a027          	fsw	fa3,320(a5)
     62c:	1517a223          	sw	a7,324(a5)

00000630 <inst_41>:
     630:	1ec82507          	flw	fa0,492(a6)
     634:	1f082587          	flw	fa1,496(a6)
     638:	1f482607          	flw	fa2,500(a6)
     63c:	00225073          	fsrmi	zero,4
     640:	60b576cb          	fnmsub.s	fa3,fa0,fa1,fa2
     644:	001028f3          	frflags	a7
     648:	14d7a427          	fsw	fa3,328(a5)
     64c:	1517a623          	sw	a7,332(a5)

00000650 <inst_42>:
     650:	1f882507          	flw	fa0,504(a6)
     654:	1fc82587          	flw	fa1,508(a6)
     658:	20082607          	flw	fa2,512(a6)
     65c:	0021d073          	fsrmi	zero,3
     660:	60b576cb          	fnmsub.s	fa3,fa0,fa1,fa2
     664:	001028f3          	frflags	a7
     668:	14d7a827          	fsw	fa3,336(a5)
     66c:	1517aa23          	sw	a7,340(a5)

00000670 <inst_43>:
     670:	20482507          	flw	fa0,516(a6)
     674:	20882587          	flw	fa1,520(a6)
     678:	20c82607          	flw	fa2,524(a6)
     67c:	00215073          	fsrmi	zero,2
     680:	60b576cb          	fnmsub.s	fa3,fa0,fa1,fa2
     684:	001028f3          	frflags	a7
     688:	14d7ac27          	fsw	fa3,344(a5)
     68c:	1517ae23          	sw	a7,348(a5)

00000690 <inst_44>:
     690:	21082507          	flw	fa0,528(a6)
     694:	21482587          	flw	fa1,532(a6)
     698:	21882607          	flw	fa2,536(a6)
     69c:	0020d073          	fsrmi	zero,1
     6a0:	60b576cb          	fnmsub.s	fa3,fa0,fa1,fa2
     6a4:	001028f3          	frflags	a7
     6a8:	16d7a027          	fsw	fa3,352(a5)
     6ac:	1717a223          	sw	a7,356(a5)

000006b0 <inst_45>:
     6b0:	21c82507          	flw	fa0,540(a6)
     6b4:	22082587          	flw	fa1,544(a6)
     6b8:	22482607          	flw	fa2,548(a6)
     6bc:	00205073          	fsrmi	zero,0
     6c0:	60b576cb          	fnmsub.s	fa3,fa0,fa1,fa2
     6c4:	001028f3          	frflags	a7
     6c8:	16d7a427          	fsw	fa3,360(a5)
     6cc:	1717a623          	sw	a7,364(a5)

000006d0 <inst_46>:
     6d0:	22882507          	flw	fa0,552(a6)
     6d4:	22c82587          	flw	fa1,556(a6)
     6d8:	23082607          	flw	fa2,560(a6)
     6dc:	00225073          	fsrmi	zero,4
     6e0:	60b576cb          	fnmsub.s	fa3,fa0,fa1,fa2
     6e4:	001028f3          	frflags	a7
     6e8:	16d7a827          	fsw	fa3,368(a5)
     6ec:	1717aa23          	sw	a7,372(a5)

000006f0 <inst_47>:
     6f0:	23482507          	flw	fa0,564(a6)
     6f4:	23882587          	flw	fa1,568(a6)
     6f8:	23c82607          	flw	fa2,572(a6)
     6fc:	0021d073          	fsrmi	zero,3
     700:	60b576cb          	fnmsub.s	fa3,fa0,fa1,fa2
     704:	001028f3          	frflags	a7
     708:	16d7ac27          	fsw	fa3,376(a5)
     70c:	1717ae23          	sw	a7,380(a5)

00000710 <inst_48>:
     710:	24082507          	flw	fa0,576(a6)
     714:	24482587          	flw	fa1,580(a6)
     718:	24882607          	flw	fa2,584(a6)
     71c:	00215073          	fsrmi	zero,2
     720:	60b576cb          	fnmsub.s	fa3,fa0,fa1,fa2
     724:	001028f3          	frflags	a7
     728:	18d7a027          	fsw	fa3,384(a5)
     72c:	1917a223          	sw	a7,388(a5)

00000730 <inst_49>:
     730:	24c82507          	flw	fa0,588(a6)
     734:	25082587          	flw	fa1,592(a6)
     738:	25482607          	flw	fa2,596(a6)
     73c:	0020d073          	fsrmi	zero,1
     740:	60b576cb          	fnmsub.s	fa3,fa0,fa1,fa2
     744:	001028f3          	frflags	a7
     748:	18d7a427          	fsw	fa3,392(a5)
     74c:	1917a623          	sw	a7,396(a5)

00000750 <inst_50>:
     750:	25882507          	flw	fa0,600(a6)
     754:	25c82587          	flw	fa1,604(a6)
     758:	26082607          	flw	fa2,608(a6)
     75c:	00205073          	fsrmi	zero,0
     760:	60b576cb          	fnmsub.s	fa3,fa0,fa1,fa2
     764:	001028f3          	frflags	a7
     768:	18d7a827          	fsw	fa3,400(a5)
     76c:	1917aa23          	sw	a7,404(a5)

00000770 <inst_51>:
     770:	26482507          	flw	fa0,612(a6)
     774:	26882587          	flw	fa1,616(a6)
     778:	26c82607          	flw	fa2,620(a6)
     77c:	00225073          	fsrmi	zero,4
     780:	60b576cb          	fnmsub.s	fa3,fa0,fa1,fa2
     784:	001028f3          	frflags	a7
     788:	18d7ac27          	fsw	fa3,408(a5)
     78c:	1917ae23          	sw	a7,412(a5)

00000790 <inst_52>:
     790:	27082507          	flw	fa0,624(a6)
     794:	27482587          	flw	fa1,628(a6)
     798:	27882607          	flw	fa2,632(a6)
     79c:	0021d073          	fsrmi	zero,3
     7a0:	60b576cb          	fnmsub.s	fa3,fa0,fa1,fa2
     7a4:	001028f3          	frflags	a7
     7a8:	1ad7a027          	fsw	fa3,416(a5)
     7ac:	1b17a223          	sw	a7,420(a5)

000007b0 <inst_53>:
     7b0:	27c82507          	flw	fa0,636(a6)
     7b4:	28082587          	flw	fa1,640(a6)
     7b8:	28482607          	flw	fa2,644(a6)
     7bc:	00215073          	fsrmi	zero,2
     7c0:	60b576cb          	fnmsub.s	fa3,fa0,fa1,fa2
     7c4:	001028f3          	frflags	a7
     7c8:	1ad7a427          	fsw	fa3,424(a5)
     7cc:	1b17a623          	sw	a7,428(a5)

000007d0 <inst_54>:
     7d0:	28882507          	flw	fa0,648(a6)
     7d4:	28c82587          	flw	fa1,652(a6)
     7d8:	29082607          	flw	fa2,656(a6)
     7dc:	0020d073          	fsrmi	zero,1
     7e0:	60b576cb          	fnmsub.s	fa3,fa0,fa1,fa2
     7e4:	001028f3          	frflags	a7
     7e8:	1ad7a827          	fsw	fa3,432(a5)
     7ec:	1b17aa23          	sw	a7,436(a5)

000007f0 <inst_55>:
     7f0:	29482507          	flw	fa0,660(a6)
     7f4:	29882587          	flw	fa1,664(a6)
     7f8:	29c82607          	flw	fa2,668(a6)
     7fc:	00205073          	fsrmi	zero,0
     800:	60b576cb          	fnmsub.s	fa3,fa0,fa1,fa2
     804:	001028f3          	frflags	a7
     808:	1ad7ac27          	fsw	fa3,440(a5)
     80c:	1b17ae23          	sw	a7,444(a5)

00000810 <inst_56>:
     810:	2a082507          	flw	fa0,672(a6)
     814:	2a482587          	flw	fa1,676(a6)
     818:	2a882607          	flw	fa2,680(a6)
     81c:	00225073          	fsrmi	zero,4
     820:	60b576cb          	fnmsub.s	fa3,fa0,fa1,fa2
     824:	001028f3          	frflags	a7
     828:	1cd7a027          	fsw	fa3,448(a5)
     82c:	1d17a223          	sw	a7,452(a5)

00000830 <inst_57>:
     830:	2ac82507          	flw	fa0,684(a6)
     834:	2b082587          	flw	fa1,688(a6)
     838:	2b482607          	flw	fa2,692(a6)
     83c:	0021d073          	fsrmi	zero,3
     840:	60b576cb          	fnmsub.s	fa3,fa0,fa1,fa2
     844:	001028f3          	frflags	a7
     848:	1cd7a427          	fsw	fa3,456(a5)
     84c:	1d17a623          	sw	a7,460(a5)

00000850 <inst_58>:
     850:	2b882507          	flw	fa0,696(a6)
     854:	2bc82587          	flw	fa1,700(a6)
     858:	2c082607          	flw	fa2,704(a6)
     85c:	00215073          	fsrmi	zero,2
     860:	60b576cb          	fnmsub.s	fa3,fa0,fa1,fa2
     864:	001028f3          	frflags	a7
     868:	1cd7a827          	fsw	fa3,464(a5)
     86c:	1d17aa23          	sw	a7,468(a5)

00000870 <inst_59>:
     870:	2c482507          	flw	fa0,708(a6)
     874:	2c882587          	flw	fa1,712(a6)
     878:	2cc82607          	flw	fa2,716(a6)
     87c:	0020d073          	fsrmi	zero,1
     880:	60b576cb          	fnmsub.s	fa3,fa0,fa1,fa2
     884:	001028f3          	frflags	a7
     888:	1cd7ac27          	fsw	fa3,472(a5)
     88c:	1d17ae23          	sw	a7,476(a5)

00000890 <inst_60>:
     890:	2d082507          	flw	fa0,720(a6)
     894:	2d482587          	flw	fa1,724(a6)
     898:	2d882607          	flw	fa2,728(a6)
     89c:	00205073          	fsrmi	zero,0
     8a0:	60b576cb          	fnmsub.s	fa3,fa0,fa1,fa2
     8a4:	001028f3          	frflags	a7
     8a8:	1ed7a027          	fsw	fa3,480(a5)
     8ac:	1f17a223          	sw	a7,484(a5)

000008b0 <inst_61>:
     8b0:	2dc82507          	flw	fa0,732(a6)
     8b4:	2e082587          	flw	fa1,736(a6)
     8b8:	2e482607          	flw	fa2,740(a6)
     8bc:	00225073          	fsrmi	zero,4
     8c0:	60b576cb          	fnmsub.s	fa3,fa0,fa1,fa2
     8c4:	001028f3          	frflags	a7
     8c8:	1ed7a427          	fsw	fa3,488(a5)
     8cc:	1f17a623          	sw	a7,492(a5)

000008d0 <inst_62>:
     8d0:	2e882507          	flw	fa0,744(a6)
     8d4:	2ec82587          	flw	fa1,748(a6)
     8d8:	2f082607          	flw	fa2,752(a6)
     8dc:	0021d073          	fsrmi	zero,3
     8e0:	60b576cb          	fnmsub.s	fa3,fa0,fa1,fa2
     8e4:	001028f3          	frflags	a7
     8e8:	1ed7a827          	fsw	fa3,496(a5)
     8ec:	1f17aa23          	sw	a7,500(a5)

000008f0 <inst_63>:
     8f0:	2f482507          	flw	fa0,756(a6)
     8f4:	2f882587          	flw	fa1,760(a6)
     8f8:	2fc82607          	flw	fa2,764(a6)
     8fc:	00215073          	fsrmi	zero,2
     900:	60b576cb          	fnmsub.s	fa3,fa0,fa1,fa2
     904:	001028f3          	frflags	a7
     908:	1ed7ac27          	fsw	fa3,504(a5)
     90c:	1f17ae23          	sw	a7,508(a5)

00000910 <inst_64>:
     910:	30082507          	flw	fa0,768(a6)
     914:	30482587          	flw	fa1,772(a6)
     918:	30882607          	flw	fa2,776(a6)
     91c:	0020d073          	fsrmi	zero,1
     920:	60b576cb          	fnmsub.s	fa3,fa0,fa1,fa2
     924:	001028f3          	frflags	a7
     928:	20d7a027          	fsw	fa3,512(a5)
     92c:	2117a223          	sw	a7,516(a5)

00000930 <inst_65>:
     930:	30c82507          	flw	fa0,780(a6)
     934:	31082587          	flw	fa1,784(a6)
     938:	31482607          	flw	fa2,788(a6)
     93c:	00205073          	fsrmi	zero,0
     940:	60b576cb          	fnmsub.s	fa3,fa0,fa1,fa2
     944:	001028f3          	frflags	a7
     948:	20d7a427          	fsw	fa3,520(a5)
     94c:	2117a623          	sw	a7,524(a5)

00000950 <inst_66>:
     950:	31882507          	flw	fa0,792(a6)
     954:	31c82587          	flw	fa1,796(a6)
     958:	32082607          	flw	fa2,800(a6)
     95c:	00225073          	fsrmi	zero,4
     960:	60b576cb          	fnmsub.s	fa3,fa0,fa1,fa2
     964:	001028f3          	frflags	a7
     968:	20d7a827          	fsw	fa3,528(a5)
     96c:	2117aa23          	sw	a7,532(a5)

00000970 <inst_67>:
     970:	32482507          	flw	fa0,804(a6)
     974:	32882587          	flw	fa1,808(a6)
     978:	32c82607          	flw	fa2,812(a6)
     97c:	0021d073          	fsrmi	zero,3
     980:	60b576cb          	fnmsub.s	fa3,fa0,fa1,fa2
     984:	001028f3          	frflags	a7
     988:	20d7ac27          	fsw	fa3,536(a5)
     98c:	2117ae23          	sw	a7,540(a5)

00000990 <inst_68>:
     990:	33082507          	flw	fa0,816(a6)
     994:	33482587          	flw	fa1,820(a6)
     998:	33882607          	flw	fa2,824(a6)
     99c:	00215073          	fsrmi	zero,2
     9a0:	60b576cb          	fnmsub.s	fa3,fa0,fa1,fa2
     9a4:	001028f3          	frflags	a7
     9a8:	22d7a027          	fsw	fa3,544(a5)
     9ac:	2317a223          	sw	a7,548(a5)

000009b0 <inst_69>:
     9b0:	33c82507          	flw	fa0,828(a6)
     9b4:	34082587          	flw	fa1,832(a6)
     9b8:	34482607          	flw	fa2,836(a6)
     9bc:	0020d073          	fsrmi	zero,1
     9c0:	60b576cb          	fnmsub.s	fa3,fa0,fa1,fa2
     9c4:	001028f3          	frflags	a7
     9c8:	22d7a427          	fsw	fa3,552(a5)
     9cc:	2317a623          	sw	a7,556(a5)

000009d0 <inst_70>:
     9d0:	34882507          	flw	fa0,840(a6)
     9d4:	34c82587          	flw	fa1,844(a6)
     9d8:	35082607          	flw	fa2,848(a6)
     9dc:	00205073          	fsrmi	zero,0
     9e0:	60b576cb          	fnmsub.s	fa3,fa0,fa1,fa2
     9e4:	001028f3          	frflags	a7
     9e8:	22d7a827          	fsw	fa3,560(a5)
     9ec:	2317aa23          	sw	a7,564(a5)

000009f0 <inst_71>:
     9f0:	35482507          	flw	fa0,852(a6)
     9f4:	35882587          	flw	fa1,856(a6)
     9f8:	35c82607          	flw	fa2,860(a6)
     9fc:	00225073          	fsrmi	zero,4
     a00:	60b576cb          	fnmsub.s	fa3,fa0,fa1,fa2
     a04:	001028f3          	frflags	a7
     a08:	22d7ac27          	fsw	fa3,568(a5)
     a0c:	2317ae23          	sw	a7,572(a5)

00000a10 <inst_72>:
     a10:	36082507          	flw	fa0,864(a6)
     a14:	36482587          	flw	fa1,868(a6)
     a18:	36882607          	flw	fa2,872(a6)
     a1c:	0021d073          	fsrmi	zero,3
     a20:	60b576cb          	fnmsub.s	fa3,fa0,fa1,fa2
     a24:	001028f3          	frflags	a7
     a28:	24d7a027          	fsw	fa3,576(a5)
     a2c:	2517a223          	sw	a7,580(a5)

00000a30 <inst_73>:
     a30:	36c82507          	flw	fa0,876(a6)
     a34:	37082587          	flw	fa1,880(a6)
     a38:	37482607          	flw	fa2,884(a6)
     a3c:	00215073          	fsrmi	zero,2
     a40:	60b576cb          	fnmsub.s	fa3,fa0,fa1,fa2
     a44:	001028f3          	frflags	a7
     a48:	24d7a427          	fsw	fa3,584(a5)
     a4c:	2517a623          	sw	a7,588(a5)

00000a50 <inst_74>:
     a50:	37882507          	flw	fa0,888(a6)
     a54:	37c82587          	flw	fa1,892(a6)
     a58:	38082607          	flw	fa2,896(a6)
     a5c:	0020d073          	fsrmi	zero,1
     a60:	60b576cb          	fnmsub.s	fa3,fa0,fa1,fa2
     a64:	001028f3          	frflags	a7
     a68:	24d7a827          	fsw	fa3,592(a5)
     a6c:	2517aa23          	sw	a7,596(a5)

00000a70 <inst_75>:
     a70:	38482507          	flw	fa0,900(a6)
     a74:	38882587          	flw	fa1,904(a6)
     a78:	38c82607          	flw	fa2,908(a6)
     a7c:	00205073          	fsrmi	zero,0
     a80:	60b576cb          	fnmsub.s	fa3,fa0,fa1,fa2
     a84:	001028f3          	frflags	a7
     a88:	24d7ac27          	fsw	fa3,600(a5)
     a8c:	2517ae23          	sw	a7,604(a5)

00000a90 <inst_76>:
     a90:	39082507          	flw	fa0,912(a6)
     a94:	39482587          	flw	fa1,916(a6)
     a98:	39882607          	flw	fa2,920(a6)
     a9c:	00225073          	fsrmi	zero,4
     aa0:	60b576cb          	fnmsub.s	fa3,fa0,fa1,fa2
     aa4:	001028f3          	frflags	a7
     aa8:	26d7a027          	fsw	fa3,608(a5)
     aac:	2717a223          	sw	a7,612(a5)

00000ab0 <inst_77>:
     ab0:	39c82507          	flw	fa0,924(a6)
     ab4:	3a082587          	flw	fa1,928(a6)
     ab8:	3a482607          	flw	fa2,932(a6)
     abc:	0021d073          	fsrmi	zero,3
     ac0:	60b576cb          	fnmsub.s	fa3,fa0,fa1,fa2
     ac4:	001028f3          	frflags	a7
     ac8:	26d7a427          	fsw	fa3,616(a5)
     acc:	2717a623          	sw	a7,620(a5)

00000ad0 <inst_78>:
     ad0:	3a882507          	flw	fa0,936(a6)
     ad4:	3ac82587          	flw	fa1,940(a6)
     ad8:	3b082607          	flw	fa2,944(a6)
     adc:	00215073          	fsrmi	zero,2
     ae0:	60b576cb          	fnmsub.s	fa3,fa0,fa1,fa2
     ae4:	001028f3          	frflags	a7
     ae8:	26d7a827          	fsw	fa3,624(a5)
     aec:	2717aa23          	sw	a7,628(a5)

00000af0 <inst_79>:
     af0:	3b482507          	flw	fa0,948(a6)
     af4:	3b882587          	flw	fa1,952(a6)
     af8:	3bc82607          	flw	fa2,956(a6)
     afc:	0020d073          	fsrmi	zero,1
     b00:	60b576cb          	fnmsub.s	fa3,fa0,fa1,fa2
     b04:	001028f3          	frflags	a7
     b08:	26d7ac27          	fsw	fa3,632(a5)
     b0c:	2717ae23          	sw	a7,636(a5)

00000b10 <inst_80>:
     b10:	3c082507          	flw	fa0,960(a6)
     b14:	3c482587          	flw	fa1,964(a6)
     b18:	3c882607          	flw	fa2,968(a6)
     b1c:	00205073          	fsrmi	zero,0
     b20:	60b576cb          	fnmsub.s	fa3,fa0,fa1,fa2
     b24:	001028f3          	frflags	a7
     b28:	28d7a027          	fsw	fa3,640(a5)
     b2c:	2917a223          	sw	a7,644(a5)

00000b30 <inst_81>:
     b30:	3cc82507          	flw	fa0,972(a6)
     b34:	3d082587          	flw	fa1,976(a6)
     b38:	3d482607          	flw	fa2,980(a6)
     b3c:	00225073          	fsrmi	zero,4
     b40:	60b576cb          	fnmsub.s	fa3,fa0,fa1,fa2
     b44:	001028f3          	frflags	a7
     b48:	28d7a427          	fsw	fa3,648(a5)
     b4c:	2917a623          	sw	a7,652(a5)

00000b50 <inst_82>:
     b50:	3d882507          	flw	fa0,984(a6)
     b54:	3dc82587          	flw	fa1,988(a6)
     b58:	3e082607          	flw	fa2,992(a6)
     b5c:	0021d073          	fsrmi	zero,3
     b60:	60b576cb          	fnmsub.s	fa3,fa0,fa1,fa2
     b64:	001028f3          	frflags	a7
     b68:	28d7a827          	fsw	fa3,656(a5)
     b6c:	2917aa23          	sw	a7,660(a5)

00000b70 <inst_83>:
     b70:	3e482507          	flw	fa0,996(a6)
     b74:	3e882587          	flw	fa1,1000(a6)
     b78:	3ec82607          	flw	fa2,1004(a6)
     b7c:	00215073          	fsrmi	zero,2
     b80:	60b576cb          	fnmsub.s	fa3,fa0,fa1,fa2
     b84:	001028f3          	frflags	a7
     b88:	28d7ac27          	fsw	fa3,664(a5)
     b8c:	2917ae23          	sw	a7,668(a5)

00000b90 <inst_84>:
     b90:	3f082507          	flw	fa0,1008(a6)
     b94:	3f482587          	flw	fa1,1012(a6)
     b98:	3f882607          	flw	fa2,1016(a6)
     b9c:	0020d073          	fsrmi	zero,1
     ba0:	60b576cb          	fnmsub.s	fa3,fa0,fa1,fa2
     ba4:	001028f3          	frflags	a7
     ba8:	2ad7a027          	fsw	fa3,672(a5)
     bac:	2b17a223          	sw	a7,676(a5)

00000bb0 <inst_85>:
     bb0:	3fc82507          	flw	fa0,1020(a6)
     bb4:	40082587          	flw	fa1,1024(a6)
     bb8:	40482607          	flw	fa2,1028(a6)
     bbc:	00205073          	fsrmi	zero,0
     bc0:	60b576cb          	fnmsub.s	fa3,fa0,fa1,fa2
     bc4:	001028f3          	frflags	a7
     bc8:	2ad7a427          	fsw	fa3,680(a5)
     bcc:	2b17a623          	sw	a7,684(a5)

00000bd0 <inst_86>:
     bd0:	40882507          	flw	fa0,1032(a6)
     bd4:	40c82587          	flw	fa1,1036(a6)
     bd8:	41082607          	flw	fa2,1040(a6)
     bdc:	00225073          	fsrmi	zero,4
     be0:	60b576cb          	fnmsub.s	fa3,fa0,fa1,fa2
     be4:	001028f3          	frflags	a7
     be8:	2ad7a827          	fsw	fa3,688(a5)
     bec:	2b17aa23          	sw	a7,692(a5)

00000bf0 <inst_87>:
     bf0:	41482507          	flw	fa0,1044(a6)
     bf4:	41882587          	flw	fa1,1048(a6)
     bf8:	41c82607          	flw	fa2,1052(a6)
     bfc:	0021d073          	fsrmi	zero,3
     c00:	60b576cb          	fnmsub.s	fa3,fa0,fa1,fa2
     c04:	001028f3          	frflags	a7
     c08:	2ad7ac27          	fsw	fa3,696(a5)
     c0c:	2b17ae23          	sw	a7,700(a5)

00000c10 <inst_88>:
     c10:	42082507          	flw	fa0,1056(a6)
     c14:	42482587          	flw	fa1,1060(a6)
     c18:	42882607          	flw	fa2,1064(a6)
     c1c:	00215073          	fsrmi	zero,2
     c20:	60b576cb          	fnmsub.s	fa3,fa0,fa1,fa2
     c24:	001028f3          	frflags	a7
     c28:	2cd7a027          	fsw	fa3,704(a5)
     c2c:	2d17a223          	sw	a7,708(a5)

00000c30 <inst_89>:
     c30:	42c82507          	flw	fa0,1068(a6)
     c34:	43082587          	flw	fa1,1072(a6)
     c38:	43482607          	flw	fa2,1076(a6)
     c3c:	0020d073          	fsrmi	zero,1
     c40:	60b576cb          	fnmsub.s	fa3,fa0,fa1,fa2
     c44:	001028f3          	frflags	a7
     c48:	2cd7a427          	fsw	fa3,712(a5)
     c4c:	2d17a623          	sw	a7,716(a5)

00000c50 <inst_90>:
     c50:	43882507          	flw	fa0,1080(a6)
     c54:	43c82587          	flw	fa1,1084(a6)
     c58:	44082607          	flw	fa2,1088(a6)
     c5c:	00205073          	fsrmi	zero,0
     c60:	60b576cb          	fnmsub.s	fa3,fa0,fa1,fa2
     c64:	001028f3          	frflags	a7
     c68:	2cd7a827          	fsw	fa3,720(a5)
     c6c:	2d17aa23          	sw	a7,724(a5)

00000c70 <inst_91>:
     c70:	44482507          	flw	fa0,1092(a6)
     c74:	44882587          	flw	fa1,1096(a6)
     c78:	44c82607          	flw	fa2,1100(a6)
     c7c:	00225073          	fsrmi	zero,4
     c80:	60b576cb          	fnmsub.s	fa3,fa0,fa1,fa2
     c84:	001028f3          	frflags	a7
     c88:	2cd7ac27          	fsw	fa3,728(a5)
     c8c:	2d17ae23          	sw	a7,732(a5)

00000c90 <inst_92>:
     c90:	45082507          	flw	fa0,1104(a6)
     c94:	45482587          	flw	fa1,1108(a6)
     c98:	45882607          	flw	fa2,1112(a6)
     c9c:	0021d073          	fsrmi	zero,3
     ca0:	60b576cb          	fnmsub.s	fa3,fa0,fa1,fa2
     ca4:	001028f3          	frflags	a7
     ca8:	2ed7a027          	fsw	fa3,736(a5)
     cac:	2f17a223          	sw	a7,740(a5)

00000cb0 <inst_93>:
     cb0:	45c82507          	flw	fa0,1116(a6)
     cb4:	46082587          	flw	fa1,1120(a6)
     cb8:	46482607          	flw	fa2,1124(a6)
     cbc:	00215073          	fsrmi	zero,2
     cc0:	60b576cb          	fnmsub.s	fa3,fa0,fa1,fa2
     cc4:	001028f3          	frflags	a7
     cc8:	2ed7a427          	fsw	fa3,744(a5)
     ccc:	2f17a623          	sw	a7,748(a5)

00000cd0 <inst_94>:
     cd0:	46882507          	flw	fa0,1128(a6)
     cd4:	46c82587          	flw	fa1,1132(a6)
     cd8:	47082607          	flw	fa2,1136(a6)
     cdc:	0020d073          	fsrmi	zero,1
     ce0:	60b576cb          	fnmsub.s	fa3,fa0,fa1,fa2
     ce4:	001028f3          	frflags	a7
     ce8:	2ed7a827          	fsw	fa3,752(a5)
     cec:	2f17aa23          	sw	a7,756(a5)

00000cf0 <inst_95>:
     cf0:	47482507          	flw	fa0,1140(a6)
     cf4:	47882587          	flw	fa1,1144(a6)
     cf8:	47c82607          	flw	fa2,1148(a6)
     cfc:	00205073          	fsrmi	zero,0
     d00:	60b576cb          	fnmsub.s	fa3,fa0,fa1,fa2
     d04:	001028f3          	frflags	a7
     d08:	2ed7ac27          	fsw	fa3,760(a5)
     d0c:	2f17ae23          	sw	a7,764(a5)

00000d10 <inst_96>:
     d10:	48082507          	flw	fa0,1152(a6)
     d14:	48482587          	flw	fa1,1156(a6)
     d18:	48882607          	flw	fa2,1160(a6)
     d1c:	00225073          	fsrmi	zero,4
     d20:	60b576cb          	fnmsub.s	fa3,fa0,fa1,fa2
     d24:	001028f3          	frflags	a7
     d28:	30d7a027          	fsw	fa3,768(a5)
     d2c:	3117a223          	sw	a7,772(a5)

00000d30 <inst_97>:
     d30:	48c82507          	flw	fa0,1164(a6)
     d34:	49082587          	flw	fa1,1168(a6)
     d38:	49482607          	flw	fa2,1172(a6)
     d3c:	0021d073          	fsrmi	zero,3
     d40:	60b576cb          	fnmsub.s	fa3,fa0,fa1,fa2
     d44:	001028f3          	frflags	a7
     d48:	30d7a427          	fsw	fa3,776(a5)
     d4c:	3117a623          	sw	a7,780(a5)

00000d50 <inst_98>:
     d50:	49882507          	flw	fa0,1176(a6)
     d54:	49c82587          	flw	fa1,1180(a6)
     d58:	4a082607          	flw	fa2,1184(a6)
     d5c:	00215073          	fsrmi	zero,2
     d60:	60b576cb          	fnmsub.s	fa3,fa0,fa1,fa2
     d64:	001028f3          	frflags	a7
     d68:	30d7a827          	fsw	fa3,784(a5)
     d6c:	3117aa23          	sw	a7,788(a5)

00000d70 <inst_99>:
     d70:	4a482507          	flw	fa0,1188(a6)
     d74:	4a882587          	flw	fa1,1192(a6)
     d78:	4ac82607          	flw	fa2,1196(a6)
     d7c:	0020d073          	fsrmi	zero,1
     d80:	60b576cb          	fnmsub.s	fa3,fa0,fa1,fa2
     d84:	001028f3          	frflags	a7
     d88:	30d7ac27          	fsw	fa3,792(a5)
     d8c:	3117ae23          	sw	a7,796(a5)

00000d90 <inst_100>:
     d90:	4b082507          	flw	fa0,1200(a6)
     d94:	4b482587          	flw	fa1,1204(a6)
     d98:	4b882607          	flw	fa2,1208(a6)
     d9c:	00205073          	fsrmi	zero,0
     da0:	60b576cb          	fnmsub.s	fa3,fa0,fa1,fa2
     da4:	001028f3          	frflags	a7
     da8:	32d7a027          	fsw	fa3,800(a5)
     dac:	3317a223          	sw	a7,804(a5)

00000db0 <inst_101>:
     db0:	4bc82507          	flw	fa0,1212(a6)
     db4:	4c082587          	flw	fa1,1216(a6)
     db8:	4c482607          	flw	fa2,1220(a6)
     dbc:	00225073          	fsrmi	zero,4
     dc0:	60b576cb          	fnmsub.s	fa3,fa0,fa1,fa2
     dc4:	001028f3          	frflags	a7
     dc8:	32d7a427          	fsw	fa3,808(a5)
     dcc:	3317a623          	sw	a7,812(a5)

00000dd0 <inst_102>:
     dd0:	4c882507          	flw	fa0,1224(a6)
     dd4:	4cc82587          	flw	fa1,1228(a6)
     dd8:	4d082607          	flw	fa2,1232(a6)
     ddc:	0021d073          	fsrmi	zero,3
     de0:	60b576cb          	fnmsub.s	fa3,fa0,fa1,fa2
     de4:	001028f3          	frflags	a7
     de8:	32d7a827          	fsw	fa3,816(a5)
     dec:	3317aa23          	sw	a7,820(a5)

00000df0 <inst_103>:
     df0:	4d482507          	flw	fa0,1236(a6)
     df4:	4d882587          	flw	fa1,1240(a6)
     df8:	4dc82607          	flw	fa2,1244(a6)
     dfc:	00215073          	fsrmi	zero,2
     e00:	60b576cb          	fnmsub.s	fa3,fa0,fa1,fa2
     e04:	001028f3          	frflags	a7
     e08:	32d7ac27          	fsw	fa3,824(a5)
     e0c:	3317ae23          	sw	a7,828(a5)

00000e10 <inst_104>:
     e10:	4e082507          	flw	fa0,1248(a6)
     e14:	4e482587          	flw	fa1,1252(a6)
     e18:	4e882607          	flw	fa2,1256(a6)
     e1c:	0020d073          	fsrmi	zero,1
     e20:	60b576cb          	fnmsub.s	fa3,fa0,fa1,fa2
     e24:	001028f3          	frflags	a7
     e28:	34d7a027          	fsw	fa3,832(a5)
     e2c:	3517a223          	sw	a7,836(a5)

00000e30 <inst_105>:
     e30:	4ec82507          	flw	fa0,1260(a6)
     e34:	4f082587          	flw	fa1,1264(a6)
     e38:	4f482607          	flw	fa2,1268(a6)
     e3c:	00205073          	fsrmi	zero,0
     e40:	60b576cb          	fnmsub.s	fa3,fa0,fa1,fa2
     e44:	001028f3          	frflags	a7
     e48:	34d7a427          	fsw	fa3,840(a5)
     e4c:	3517a623          	sw	a7,844(a5)

00000e50 <inst_106>:
     e50:	4f882507          	flw	fa0,1272(a6)
     e54:	4fc82587          	flw	fa1,1276(a6)
     e58:	50082607          	flw	fa2,1280(a6)
     e5c:	00225073          	fsrmi	zero,4
     e60:	60b576cb          	fnmsub.s	fa3,fa0,fa1,fa2
     e64:	001028f3          	frflags	a7
     e68:	34d7a827          	fsw	fa3,848(a5)
     e6c:	3517aa23          	sw	a7,852(a5)

00000e70 <inst_107>:
     e70:	50482507          	flw	fa0,1284(a6)
     e74:	50882587          	flw	fa1,1288(a6)
     e78:	50c82607          	flw	fa2,1292(a6)
     e7c:	0021d073          	fsrmi	zero,3
     e80:	60b576cb          	fnmsub.s	fa3,fa0,fa1,fa2
     e84:	001028f3          	frflags	a7
     e88:	34d7ac27          	fsw	fa3,856(a5)
     e8c:	3517ae23          	sw	a7,860(a5)

00000e90 <inst_108>:
     e90:	51082507          	flw	fa0,1296(a6)
     e94:	51482587          	flw	fa1,1300(a6)
     e98:	51882607          	flw	fa2,1304(a6)
     e9c:	00215073          	fsrmi	zero,2
     ea0:	60b576cb          	fnmsub.s	fa3,fa0,fa1,fa2
     ea4:	001028f3          	frflags	a7
     ea8:	36d7a027          	fsw	fa3,864(a5)
     eac:	3717a223          	sw	a7,868(a5)

00000eb0 <inst_109>:
     eb0:	51c82507          	flw	fa0,1308(a6)
     eb4:	52082587          	flw	fa1,1312(a6)
     eb8:	52482607          	flw	fa2,1316(a6)
     ebc:	0020d073          	fsrmi	zero,1
     ec0:	60b576cb          	fnmsub.s	fa3,fa0,fa1,fa2
     ec4:	001028f3          	frflags	a7
     ec8:	36d7a427          	fsw	fa3,872(a5)
     ecc:	3717a623          	sw	a7,876(a5)

00000ed0 <inst_110>:
     ed0:	52882507          	flw	fa0,1320(a6)
     ed4:	52c82587          	flw	fa1,1324(a6)
     ed8:	53082607          	flw	fa2,1328(a6)
     edc:	00205073          	fsrmi	zero,0
     ee0:	60b576cb          	fnmsub.s	fa3,fa0,fa1,fa2
     ee4:	001028f3          	frflags	a7
     ee8:	36d7a827          	fsw	fa3,880(a5)
     eec:	3717aa23          	sw	a7,884(a5)

00000ef0 <inst_111>:
     ef0:	53482507          	flw	fa0,1332(a6)
     ef4:	53882587          	flw	fa1,1336(a6)
     ef8:	53c82607          	flw	fa2,1340(a6)
     efc:	00225073          	fsrmi	zero,4
     f00:	60b576cb          	fnmsub.s	fa3,fa0,fa1,fa2
     f04:	001028f3          	frflags	a7
     f08:	36d7ac27          	fsw	fa3,888(a5)
     f0c:	3717ae23          	sw	a7,892(a5)

00000f10 <inst_112>:
     f10:	54082507          	flw	fa0,1344(a6)
     f14:	54482587          	flw	fa1,1348(a6)
     f18:	54882607          	flw	fa2,1352(a6)
     f1c:	0021d073          	fsrmi	zero,3
     f20:	60b576cb          	fnmsub.s	fa3,fa0,fa1,fa2
     f24:	001028f3          	frflags	a7
     f28:	38d7a027          	fsw	fa3,896(a5)
     f2c:	3917a223          	sw	a7,900(a5)

00000f30 <inst_113>:
     f30:	54c82507          	flw	fa0,1356(a6)
     f34:	55082587          	flw	fa1,1360(a6)
     f38:	55482607          	flw	fa2,1364(a6)
     f3c:	00215073          	fsrmi	zero,2
     f40:	60b576cb          	fnmsub.s	fa3,fa0,fa1,fa2
     f44:	001028f3          	frflags	a7
     f48:	38d7a427          	fsw	fa3,904(a5)
     f4c:	3917a623          	sw	a7,908(a5)

00000f50 <inst_114>:
     f50:	55882507          	flw	fa0,1368(a6)
     f54:	55c82587          	flw	fa1,1372(a6)
     f58:	56082607          	flw	fa2,1376(a6)
     f5c:	0020d073          	fsrmi	zero,1
     f60:	60b576cb          	fnmsub.s	fa3,fa0,fa1,fa2
     f64:	001028f3          	frflags	a7
     f68:	38d7a827          	fsw	fa3,912(a5)
     f6c:	3917aa23          	sw	a7,916(a5)

00000f70 <inst_115>:
     f70:	56482507          	flw	fa0,1380(a6)
     f74:	56882587          	flw	fa1,1384(a6)
     f78:	56c82607          	flw	fa2,1388(a6)
     f7c:	00205073          	fsrmi	zero,0
     f80:	60b576cb          	fnmsub.s	fa3,fa0,fa1,fa2
     f84:	001028f3          	frflags	a7
     f88:	38d7ac27          	fsw	fa3,920(a5)
     f8c:	3917ae23          	sw	a7,924(a5)

00000f90 <inst_116>:
     f90:	57082507          	flw	fa0,1392(a6)
     f94:	57482587          	flw	fa1,1396(a6)
     f98:	57882607          	flw	fa2,1400(a6)
     f9c:	00225073          	fsrmi	zero,4
     fa0:	60b576cb          	fnmsub.s	fa3,fa0,fa1,fa2
     fa4:	001028f3          	frflags	a7
     fa8:	3ad7a027          	fsw	fa3,928(a5)
     fac:	3b17a223          	sw	a7,932(a5)

00000fb0 <inst_117>:
     fb0:	57c82507          	flw	fa0,1404(a6)
     fb4:	58082587          	flw	fa1,1408(a6)
     fb8:	58482607          	flw	fa2,1412(a6)
     fbc:	0021d073          	fsrmi	zero,3
     fc0:	60b576cb          	fnmsub.s	fa3,fa0,fa1,fa2
     fc4:	001028f3          	frflags	a7
     fc8:	3ad7a427          	fsw	fa3,936(a5)
     fcc:	3b17a623          	sw	a7,940(a5)

00000fd0 <inst_118>:
     fd0:	58882507          	flw	fa0,1416(a6)
     fd4:	58c82587          	flw	fa1,1420(a6)
     fd8:	59082607          	flw	fa2,1424(a6)
     fdc:	00215073          	fsrmi	zero,2
     fe0:	60b576cb          	fnmsub.s	fa3,fa0,fa1,fa2
     fe4:	001028f3          	frflags	a7
     fe8:	3ad7a827          	fsw	fa3,944(a5)
     fec:	3b17aa23          	sw	a7,948(a5)

00000ff0 <inst_119>:
     ff0:	59482507          	flw	fa0,1428(a6)
     ff4:	59882587          	flw	fa1,1432(a6)
     ff8:	59c82607          	flw	fa2,1436(a6)
     ffc:	0020d073          	fsrmi	zero,1
    1000:	60b576cb          	fnmsub.s	fa3,fa0,fa1,fa2
    1004:	001028f3          	frflags	a7
    1008:	3ad7ac27          	fsw	fa3,952(a5)
    100c:	3b17ae23          	sw	a7,956(a5)

00001010 <inst_120>:
    1010:	5a082507          	flw	fa0,1440(a6)
    1014:	5a482587          	flw	fa1,1444(a6)
    1018:	5a882607          	flw	fa2,1448(a6)
    101c:	00205073          	fsrmi	zero,0
    1020:	60b576cb          	fnmsub.s	fa3,fa0,fa1,fa2
    1024:	001028f3          	frflags	a7
    1028:	3cd7a027          	fsw	fa3,960(a5)
    102c:	3d17a223          	sw	a7,964(a5)

00001030 <inst_121>:
    1030:	5ac82507          	flw	fa0,1452(a6)
    1034:	5b082587          	flw	fa1,1456(a6)
    1038:	5b482607          	flw	fa2,1460(a6)
    103c:	00225073          	fsrmi	zero,4
    1040:	60b576cb          	fnmsub.s	fa3,fa0,fa1,fa2
    1044:	001028f3          	frflags	a7
    1048:	3cd7a427          	fsw	fa3,968(a5)
    104c:	3d17a623          	sw	a7,972(a5)

00001050 <inst_122>:
    1050:	5b882507          	flw	fa0,1464(a6)
    1054:	5bc82587          	flw	fa1,1468(a6)
    1058:	5c082607          	flw	fa2,1472(a6)
    105c:	0021d073          	fsrmi	zero,3
    1060:	60b576cb          	fnmsub.s	fa3,fa0,fa1,fa2
    1064:	001028f3          	frflags	a7
    1068:	3cd7a827          	fsw	fa3,976(a5)
    106c:	3d17aa23          	sw	a7,980(a5)

00001070 <inst_123>:
    1070:	5c482507          	flw	fa0,1476(a6)
    1074:	5c882587          	flw	fa1,1480(a6)
    1078:	5cc82607          	flw	fa2,1484(a6)
    107c:	00215073          	fsrmi	zero,2
    1080:	60b576cb          	fnmsub.s	fa3,fa0,fa1,fa2
    1084:	001028f3          	frflags	a7
    1088:	3cd7ac27          	fsw	fa3,984(a5)
    108c:	3d17ae23          	sw	a7,988(a5)

00001090 <inst_124>:
    1090:	5d082507          	flw	fa0,1488(a6)
    1094:	5d482587          	flw	fa1,1492(a6)
    1098:	5d882607          	flw	fa2,1496(a6)
    109c:	0020d073          	fsrmi	zero,1
    10a0:	60b576cb          	fnmsub.s	fa3,fa0,fa1,fa2
    10a4:	001028f3          	frflags	a7
    10a8:	3ed7a027          	fsw	fa3,992(a5)
    10ac:	3f17a223          	sw	a7,996(a5)

000010b0 <inst_125>:
    10b0:	5dc82507          	flw	fa0,1500(a6)
    10b4:	5e082587          	flw	fa1,1504(a6)
    10b8:	5e482607          	flw	fa2,1508(a6)
    10bc:	00205073          	fsrmi	zero,0
    10c0:	60b576cb          	fnmsub.s	fa3,fa0,fa1,fa2
    10c4:	001028f3          	frflags	a7
    10c8:	3ed7a427          	fsw	fa3,1000(a5)
    10cc:	3f17a623          	sw	a7,1004(a5)

000010d0 <inst_126>:
    10d0:	5e882507          	flw	fa0,1512(a6)
    10d4:	5ec82587          	flw	fa1,1516(a6)
    10d8:	5f082607          	flw	fa2,1520(a6)
    10dc:	00225073          	fsrmi	zero,4
    10e0:	60b576cb          	fnmsub.s	fa3,fa0,fa1,fa2
    10e4:	001028f3          	frflags	a7
    10e8:	3ed7a827          	fsw	fa3,1008(a5)
    10ec:	3f17aa23          	sw	a7,1012(a5)

000010f0 <inst_127>:
    10f0:	5f482507          	flw	fa0,1524(a6)
    10f4:	5f882587          	flw	fa1,1528(a6)
    10f8:	5fc82607          	flw	fa2,1532(a6)
    10fc:	0021d073          	fsrmi	zero,3
    1100:	60b576cb          	fnmsub.s	fa3,fa0,fa1,fa2
    1104:	001028f3          	frflags	a7
    1108:	3ed7ac27          	fsw	fa3,1016(a5)
    110c:	3f17ae23          	sw	a7,1020(a5)

00001110 <inst_128>:
    1110:	60082507          	flw	fa0,1536(a6)
    1114:	60482587          	flw	fa1,1540(a6)
    1118:	60882607          	flw	fa2,1544(a6)
    111c:	00215073          	fsrmi	zero,2
    1120:	60b576cb          	fnmsub.s	fa3,fa0,fa1,fa2
    1124:	001028f3          	frflags	a7
    1128:	40d7a027          	fsw	fa3,1024(a5)
    112c:	4117a223          	sw	a7,1028(a5)

00001130 <inst_129>:
    1130:	60c82507          	flw	fa0,1548(a6)
    1134:	61082587          	flw	fa1,1552(a6)
    1138:	61482607          	flw	fa2,1556(a6)
    113c:	0020d073          	fsrmi	zero,1
    1140:	60b576cb          	fnmsub.s	fa3,fa0,fa1,fa2
    1144:	001028f3          	frflags	a7
    1148:	40d7a427          	fsw	fa3,1032(a5)
    114c:	4117a623          	sw	a7,1036(a5)

00001150 <inst_130>:
    1150:	61882507          	flw	fa0,1560(a6)
    1154:	61c82587          	flw	fa1,1564(a6)
    1158:	62082607          	flw	fa2,1568(a6)
    115c:	00205073          	fsrmi	zero,0
    1160:	60b576cb          	fnmsub.s	fa3,fa0,fa1,fa2
    1164:	001028f3          	frflags	a7
    1168:	40d7a827          	fsw	fa3,1040(a5)
    116c:	4117aa23          	sw	a7,1044(a5)

00001170 <inst_131>:
    1170:	62482507          	flw	fa0,1572(a6)
    1174:	62882587          	flw	fa1,1576(a6)
    1178:	62c82607          	flw	fa2,1580(a6)
    117c:	00225073          	fsrmi	zero,4
    1180:	60b576cb          	fnmsub.s	fa3,fa0,fa1,fa2
    1184:	001028f3          	frflags	a7
    1188:	40d7ac27          	fsw	fa3,1048(a5)
    118c:	4117ae23          	sw	a7,1052(a5)

00001190 <inst_132>:
    1190:	63082507          	flw	fa0,1584(a6)
    1194:	63482587          	flw	fa1,1588(a6)
    1198:	63882607          	flw	fa2,1592(a6)
    119c:	0021d073          	fsrmi	zero,3
    11a0:	60b576cb          	fnmsub.s	fa3,fa0,fa1,fa2
    11a4:	001028f3          	frflags	a7
    11a8:	42d7a027          	fsw	fa3,1056(a5)
    11ac:	4317a223          	sw	a7,1060(a5)

000011b0 <inst_133>:
    11b0:	63c82507          	flw	fa0,1596(a6)
    11b4:	64082587          	flw	fa1,1600(a6)
    11b8:	64482607          	flw	fa2,1604(a6)
    11bc:	00215073          	fsrmi	zero,2
    11c0:	60b576cb          	fnmsub.s	fa3,fa0,fa1,fa2
    11c4:	001028f3          	frflags	a7
    11c8:	42d7a427          	fsw	fa3,1064(a5)
    11cc:	4317a623          	sw	a7,1068(a5)

000011d0 <inst_134>:
    11d0:	64882507          	flw	fa0,1608(a6)
    11d4:	64c82587          	flw	fa1,1612(a6)
    11d8:	65082607          	flw	fa2,1616(a6)
    11dc:	0020d073          	fsrmi	zero,1
    11e0:	60b576cb          	fnmsub.s	fa3,fa0,fa1,fa2
    11e4:	001028f3          	frflags	a7
    11e8:	42d7a827          	fsw	fa3,1072(a5)
    11ec:	4317aa23          	sw	a7,1076(a5)

000011f0 <inst_135>:
    11f0:	65482507          	flw	fa0,1620(a6)
    11f4:	65882587          	flw	fa1,1624(a6)
    11f8:	65c82607          	flw	fa2,1628(a6)
    11fc:	00205073          	fsrmi	zero,0
    1200:	60b576cb          	fnmsub.s	fa3,fa0,fa1,fa2
    1204:	001028f3          	frflags	a7
    1208:	42d7ac27          	fsw	fa3,1080(a5)
    120c:	4317ae23          	sw	a7,1084(a5)

00001210 <inst_136>:
    1210:	66082507          	flw	fa0,1632(a6)
    1214:	66482587          	flw	fa1,1636(a6)
    1218:	66882607          	flw	fa2,1640(a6)
    121c:	00225073          	fsrmi	zero,4
    1220:	60b576cb          	fnmsub.s	fa3,fa0,fa1,fa2
    1224:	001028f3          	frflags	a7
    1228:	44d7a027          	fsw	fa3,1088(a5)
    122c:	4517a223          	sw	a7,1092(a5)

00001230 <inst_137>:
    1230:	66c82507          	flw	fa0,1644(a6)
    1234:	67082587          	flw	fa1,1648(a6)
    1238:	67482607          	flw	fa2,1652(a6)
    123c:	0021d073          	fsrmi	zero,3
    1240:	60b576cb          	fnmsub.s	fa3,fa0,fa1,fa2
    1244:	001028f3          	frflags	a7
    1248:	44d7a427          	fsw	fa3,1096(a5)
    124c:	4517a623          	sw	a7,1100(a5)

00001250 <inst_138>:
    1250:	67882507          	flw	fa0,1656(a6)
    1254:	67c82587          	flw	fa1,1660(a6)
    1258:	68082607          	flw	fa2,1664(a6)
    125c:	00215073          	fsrmi	zero,2
    1260:	60b576cb          	fnmsub.s	fa3,fa0,fa1,fa2
    1264:	001028f3          	frflags	a7
    1268:	44d7a827          	fsw	fa3,1104(a5)
    126c:	4517aa23          	sw	a7,1108(a5)

00001270 <inst_139>:
    1270:	68482507          	flw	fa0,1668(a6)
    1274:	68882587          	flw	fa1,1672(a6)
    1278:	68c82607          	flw	fa2,1676(a6)
    127c:	0020d073          	fsrmi	zero,1
    1280:	60b576cb          	fnmsub.s	fa3,fa0,fa1,fa2
    1284:	001028f3          	frflags	a7
    1288:	44d7ac27          	fsw	fa3,1112(a5)
    128c:	4517ae23          	sw	a7,1116(a5)

00001290 <inst_140>:
    1290:	69082507          	flw	fa0,1680(a6)
    1294:	69482587          	flw	fa1,1684(a6)
    1298:	69882607          	flw	fa2,1688(a6)
    129c:	00215073          	fsrmi	zero,2
    12a0:	60b576cb          	fnmsub.s	fa3,fa0,fa1,fa2
    12a4:	001028f3          	frflags	a7
    12a8:	46d7a027          	fsw	fa3,1120(a5)
    12ac:	4717a223          	sw	a7,1124(a5)

000012b0 <inst_141>:
    12b0:	69c82507          	flw	fa0,1692(a6)
    12b4:	6a082587          	flw	fa1,1696(a6)
    12b8:	6a482607          	flw	fa2,1700(a6)
    12bc:	0020d073          	fsrmi	zero,1
    12c0:	60b576cb          	fnmsub.s	fa3,fa0,fa1,fa2
    12c4:	001028f3          	frflags	a7
    12c8:	46d7a427          	fsw	fa3,1128(a5)
    12cc:	4717a623          	sw	a7,1132(a5)

000012d0 <inst_142>:
    12d0:	6a882507          	flw	fa0,1704(a6)
    12d4:	6ac82587          	flw	fa1,1708(a6)
    12d8:	6b082607          	flw	fa2,1712(a6)
    12dc:	00205073          	fsrmi	zero,0
    12e0:	60b576cb          	fnmsub.s	fa3,fa0,fa1,fa2
    12e4:	001028f3          	frflags	a7
    12e8:	46d7a827          	fsw	fa3,1136(a5)
    12ec:	4717aa23          	sw	a7,1140(a5)

000012f0 <inst_143>:
    12f0:	6b482507          	flw	fa0,1716(a6)
    12f4:	6b882587          	flw	fa1,1720(a6)
    12f8:	6bc82607          	flw	fa2,1724(a6)
    12fc:	00225073          	fsrmi	zero,4
    1300:	60b576cb          	fnmsub.s	fa3,fa0,fa1,fa2
    1304:	001028f3          	frflags	a7
    1308:	46d7ac27          	fsw	fa3,1144(a5)
    130c:	4717ae23          	sw	a7,1148(a5)

00001310 <inst_144>:
    1310:	6c082507          	flw	fa0,1728(a6)
    1314:	6c482587          	flw	fa1,1732(a6)
    1318:	6c882607          	flw	fa2,1736(a6)
    131c:	0021d073          	fsrmi	zero,3
    1320:	60b576cb          	fnmsub.s	fa3,fa0,fa1,fa2
    1324:	001028f3          	frflags	a7
    1328:	48d7a027          	fsw	fa3,1152(a5)
    132c:	4917a223          	sw	a7,1156(a5)

00001330 <inst_145>:
    1330:	6cc82507          	flw	fa0,1740(a6)
    1334:	6d082587          	flw	fa1,1744(a6)
    1338:	6d482607          	flw	fa2,1748(a6)
    133c:	00215073          	fsrmi	zero,2
    1340:	60b576cb          	fnmsub.s	fa3,fa0,fa1,fa2
    1344:	001028f3          	frflags	a7
    1348:	48d7a427          	fsw	fa3,1160(a5)
    134c:	4917a623          	sw	a7,1164(a5)

00001350 <inst_146>:
    1350:	6d882507          	flw	fa0,1752(a6)
    1354:	6dc82587          	flw	fa1,1756(a6)
    1358:	6e082607          	flw	fa2,1760(a6)
    135c:	0020d073          	fsrmi	zero,1
    1360:	60b576cb          	fnmsub.s	fa3,fa0,fa1,fa2
    1364:	001028f3          	frflags	a7
    1368:	48d7a827          	fsw	fa3,1168(a5)
    136c:	4917aa23          	sw	a7,1172(a5)

00001370 <inst_147>:
    1370:	6e482507          	flw	fa0,1764(a6)
    1374:	6e882587          	flw	fa1,1768(a6)
    1378:	6ec82607          	flw	fa2,1772(a6)
    137c:	00205073          	fsrmi	zero,0
    1380:	60b576cb          	fnmsub.s	fa3,fa0,fa1,fa2
    1384:	001028f3          	frflags	a7
    1388:	48d7ac27          	fsw	fa3,1176(a5)
    138c:	4917ae23          	sw	a7,1180(a5)

00001390 <inst_148>:
    1390:	6f082507          	flw	fa0,1776(a6)
    1394:	6f482587          	flw	fa1,1780(a6)
    1398:	6f882607          	flw	fa2,1784(a6)
    139c:	00225073          	fsrmi	zero,4
    13a0:	60b576cb          	fnmsub.s	fa3,fa0,fa1,fa2
    13a4:	001028f3          	frflags	a7
    13a8:	4ad7a027          	fsw	fa3,1184(a5)
    13ac:	4b17a223          	sw	a7,1188(a5)

000013b0 <rvtest_code_end>:
    13b0:	00001517          	auipc	a0,0x1
    13b4:	35050513          	add	a0,a0,848 # 2700 <data_begin>
    13b8:	00001597          	auipc	a1,0x1
    13bc:	7f858593          	add	a1,a1,2040 # 2bb0 <_end>
    13c0:	80001637          	lui	a2,0x80001
    13c4:	00860613          	add	a2,a2,8 # 80001008 <_end+0x7fffe458>

000013c8 <compliance_halt_loop>:
    13c8:	06b50063          	beq	a0,a1,1428 <compliance_halt_break>
    13cc:	00450693          	add	a3,a0,4

000013d0 <compliance_halt_loop2>:
    13d0:	fff68693          	add	a3,a3,-1
    13d4:	00068703          	lb	a4,0(a3)
    13d8:	40475793          	sra	a5,a4,0x4
    13dc:	00f7f793          	and	a5,a5,15
    13e0:	00a00813          	li	a6,10
    13e4:	0107c463          	blt	a5,a6,13ec <notLetter>
    13e8:	02778793          	add	a5,a5,39

000013ec <notLetter>:
    13ec:	03078793          	add	a5,a5,48
    13f0:	00f60023          	sb	a5,0(a2)
    13f4:	40075793          	sra	a5,a4,0x0
    13f8:	00f7f793          	and	a5,a5,15
    13fc:	00a00813          	li	a6,10
    1400:	0107c463          	blt	a5,a6,1408 <notLetter2>
    1404:	02778793          	add	a5,a5,39

00001408 <notLetter2>:
    1408:	03078793          	add	a5,a5,48
    140c:	00f60023          	sb	a5,0(a2)
    1410:	fcd510e3          	bne	a0,a3,13d0 <compliance_halt_loop2>
    1414:	00450513          	add	a0,a0,4
    1418:	00a00713          	li	a4,10
    141c:	00e60023          	sb	a4,0(a2)
    1420:	fa9ff06f          	j	13c8 <compliance_halt_loop>
    1424:	0040006f          	j	1428 <compliance_halt_break>

00001428 <compliance_halt_break>:
    1428:	80001537          	lui	a0,0x80001
    142c:	00950513          	add	a0,a0,9 # 80001009 <_end+0x7fffe459>
    1430:	00d50023          	sb	a3,0(a0)
    1434:	0000                	.2byte	0x0
	...

Desensamblado de la sección .data:

00002000 <rvtest_data_begin>:
    2000:	cafe                	.2byte	0xcafe
    2002:	babe                	.2byte	0xbabe

00002004 <test_fp>:
    2004:	1c5e                	.2byte	0x1c5e
    2006:	0d70                	.2byte	0xd70
    2008:	8f25                	.2byte	0x8f25
    200a:	bf9f a7e1 0d95      	.byte	0x9f, 0xbf, 0xe1, 0xa7, 0x95, 0x0d
    2010:	380d                	.2byte	0x380d
    2012:	0d9e                	.2byte	0xd9e
    2014:	bcc01917          	auipc	s2,0xbcc01
    2018:	0aed7317          	auipc	t1,0xaed7
    201c:	380d                	.2byte	0x380d
    201e:	0d9e                	.2byte	0xd9e
    2020:	bcc01917          	auipc	s2,0xbcc01
    2024:	0aed7317          	auipc	t1,0xaed7
    2028:	380d                	.2byte	0x380d
    202a:	0d9e                	.2byte	0xd9e
    202c:	380d                	.2byte	0x380d
    202e:	0d9e                	.2byte	0xd9e
    2030:	0aed7317          	auipc	t1,0xaed7
    2034:	380d                	.2byte	0x380d
    2036:	0d9e                	.2byte	0xd9e
    2038:	380d                	.2byte	0x380d
    203a:	0d9e                	.2byte	0xd9e
    203c:	380d                	.2byte	0x380d
    203e:	0d9e                	.2byte	0xd9e
    2040:	380d                	.2byte	0x380d
    2042:	0d9e                	.2byte	0xd9e
    2044:	bcc01917          	auipc	s2,0xbcc01
    2048:	bcc01917          	auipc	s2,0xbcc01
    204c:	ad9f 0d64 ad9f      	.byte	0x9f, 0xad, 0x64, 0x0d, 0x9f, 0xad
    2052:	0d64                	.2byte	0xd64
    2054:	fb9d                	.2byte	0xfb9d
    2056:	ad9f0b93          	add	s7,t5,-1319
    205a:	0d64                	.2byte	0xd64
    205c:	a9d6                	.2byte	0xa9d6
    205e:	bda5                	.2byte	0xbda5
    2060:	ad9f 0d64 ad9f      	.byte	0x9f, 0xad, 0x64, 0x0d, 0x9f, 0xad
    2066:	0d64                	.2byte	0xd64
    2068:	a9d6                	.2byte	0xa9d6
    206a:	bda5                	.2byte	0xbda5
    206c:	a9d6                	.2byte	0xa9d6
    206e:	bda5                	.2byte	0xbda5
    2070:	ad9f 0d64 ad9f      	.byte	0x9f, 0xad, 0x64, 0x0d, 0x9f, 0xad
    2076:	0d64                	.2byte	0xd64
    2078:	ad9f 0d64 ad9f      	.byte	0x9f, 0xad, 0x64, 0x0d, 0x9f, 0xad
    207e:	0d64                	.2byte	0xd64
    2080:	a9d6                	.2byte	0xa9d6
    2082:	bda5                	.2byte	0xbda5
    2084:	ad9f 0d64 f621      	.byte	0x9f, 0xad, 0x64, 0x0d, 0x21, 0xf6
    208a:	0ccc                	.2byte	0xccc
    208c:	0d36                	.2byte	0xd36
    208e:	2a0fbfc3          	.4byte	0x2a0fbfc3
    2092:	0d1c                	.2byte	0xd1c
    2094:	f621                	.2byte	0xf621
    2096:	0ccc                	.2byte	0xccc
    2098:	0d36                	.2byte	0xd36
    209a:	2a0fbfc3          	.4byte	0x2a0fbfc3
    209e:	0d1c                	.2byte	0xd1c
    20a0:	f621                	.2byte	0xf621
    20a2:	0ccc                	.2byte	0xccc
    20a4:	0d36                	.2byte	0xd36
    20a6:	2a0fbfc3          	.4byte	0x2a0fbfc3
    20aa:	0d1c                	.2byte	0xd1c
    20ac:	f621                	.2byte	0xf621
    20ae:	0ccc                	.2byte	0xccc
    20b0:	0d36                	.2byte	0xd36
    20b2:	2a0fbfc3          	.4byte	0x2a0fbfc3
    20b6:	0d1c                	.2byte	0xd1c
    20b8:	f621                	.2byte	0xf621
    20ba:	0ccc                	.2byte	0xccc
    20bc:	0d36                	.2byte	0xd36
    20be:	2a0fbfc3          	.4byte	0x2a0fbfc3
    20c2:	0d1c                	.2byte	0xd1c
    20c4:	cfe9                	.2byte	0xcfe9
    20c6:	0d84                	.2byte	0xd84
    20c8:	5ba8                	.2byte	0x5ba8
    20ca:	bf16                	.2byte	0xbf16
    20cc:	0d1c02bf 0d84cfe9 	.8byte	0xd84cfe90d1c02bf
    20d4:	5ba8                	.2byte	0x5ba8
    20d6:	bf16                	.2byte	0xbf16
    20d8:	0d1c02bf 0d84cfe9 	.8byte	0xd84cfe90d1c02bf
    20e0:	5ba8                	.2byte	0x5ba8
    20e2:	bf16                	.2byte	0xbf16
    20e4:	0d1c02bf 0d84cfe9 	.8byte	0xd84cfe90d1c02bf
    20ec:	5ba8                	.2byte	0x5ba8
    20ee:	bf16                	.2byte	0xbf16
    20f0:	0d1c02bf 0d84cfe9 	.8byte	0xd84cfe90d1c02bf
    20f8:	5ba8                	.2byte	0x5ba8
    20fa:	bf16                	.2byte	0xbf16
    20fc:	0d1c02bf 0cdb4ebe 	.8byte	0xcdb4ebe0d1c02bf
    2104:	bf6ad52b          	.4byte	0xbf6ad52b
    2108:	2c98                	.2byte	0x2c98
    210a:	0cc9                	.2byte	0xcc9
    210c:	4ebe                	.2byte	0x4ebe
    210e:	d52b0cdb          	.4byte	0xd52b0cdb
    2112:	bf6a                	.2byte	0xbf6a
    2114:	2c98                	.2byte	0x2c98
    2116:	0cc9                	.2byte	0xcc9
    2118:	4ebe                	.2byte	0x4ebe
    211a:	d52b0cdb          	.4byte	0xd52b0cdb
    211e:	bf6a                	.2byte	0xbf6a
    2120:	2c98                	.2byte	0x2c98
    2122:	0cc9                	.2byte	0xcc9
    2124:	4ebe                	.2byte	0x4ebe
    2126:	d52b0cdb          	.4byte	0xd52b0cdb
    212a:	bf6a                	.2byte	0xbf6a
    212c:	2c98                	.2byte	0x2c98
    212e:	0cc9                	.2byte	0xcc9
    2130:	4ebe                	.2byte	0x4ebe
    2132:	d52b0cdb          	.4byte	0xd52b0cdb
    2136:	bf6a                	.2byte	0xbf6a
    2138:	2c98                	.2byte	0x2c98
    213a:	0cc9                	.2byte	0xcc9
    213c:	877e                	.2byte	0x877e
    213e:	098c                	.2byte	0x98c
    2140:	c3486327          	.4byte	0xc3486327
    2144:	0092                	.2byte	0x92
    2146:	0d5c                	.2byte	0xd5c
    2148:	877e                	.2byte	0x877e
    214a:	098c                	.2byte	0x98c
    214c:	c3486327          	.4byte	0xc3486327
    2150:	0092                	.2byte	0x92
    2152:	0d5c                	.2byte	0xd5c
    2154:	877e                	.2byte	0x877e
    2156:	098c                	.2byte	0x98c
    2158:	c3486327          	.4byte	0xc3486327
    215c:	0092                	.2byte	0x92
    215e:	0d5c                	.2byte	0xd5c
    2160:	877e                	.2byte	0x877e
    2162:	098c                	.2byte	0x98c
    2164:	c3486327          	.4byte	0xc3486327
    2168:	0092                	.2byte	0x92
    216a:	0d5c                	.2byte	0xd5c
    216c:	877e                	.2byte	0x877e
    216e:	098c                	.2byte	0x98c
    2170:	c3486327          	.4byte	0xc3486327
    2174:	0092                	.2byte	0x92
    2176:	0d5c                	.2byte	0xd5c
    2178:	97de                	.2byte	0x97de
    217a:	154c0cc3          	.4byte	0x154c0cc3
    217e:	c000                	.2byte	0xc000
    2180:	0d43b86b          	.4byte	0xd43b86b
    2184:	97de                	.2byte	0x97de
    2186:	154c0cc3          	.4byte	0x154c0cc3
    218a:	c000                	.2byte	0xc000
    218c:	0d43b86b          	.4byte	0xd43b86b
    2190:	97de                	.2byte	0x97de
    2192:	154c0cc3          	.4byte	0x154c0cc3
    2196:	c000                	.2byte	0xc000
    2198:	0d43b86b          	.4byte	0xd43b86b
    219c:	97de                	.2byte	0x97de
    219e:	154c0cc3          	.4byte	0x154c0cc3
    21a2:	c000                	.2byte	0xc000
    21a4:	0d43b86b          	.4byte	0xd43b86b
    21a8:	97de                	.2byte	0x97de
    21aa:	154c0cc3          	.4byte	0x154c0cc3
    21ae:	c000                	.2byte	0xc000
    21b0:	0d43b86b          	.4byte	0xd43b86b
    21b4:	0c3d21c3          	.4byte	0xc3d21c3
    21b8:	bee4e70b          	.4byte	0xbee4e70b
    21bc:	0ba91cc3          	.4byte	0xba91cc3
    21c0:	0c3d21c3          	.4byte	0xc3d21c3
    21c4:	bee4e70b          	.4byte	0xbee4e70b
    21c8:	0ba91cc3          	.4byte	0xba91cc3
    21cc:	0c3d21c3          	.4byte	0xc3d21c3
    21d0:	bee4e70b          	.4byte	0xbee4e70b
    21d4:	0ba91cc3          	.4byte	0xba91cc3
    21d8:	0c3d21c3          	.4byte	0xc3d21c3
    21dc:	bee4e70b          	.4byte	0xbee4e70b
    21e0:	0ba91cc3          	.4byte	0xba91cc3
    21e4:	0c3d21c3          	.4byte	0xc3d21c3
    21e8:	bee4e70b          	.4byte	0xbee4e70b
    21ec:	0ba91cc3          	.4byte	0xba91cc3
    21f0:	6cf8                	.2byte	0x6cf8
    21f2:	0cea                	.2byte	0xcea
    21f4:	3fb1                	.2byte	0x3fb1
    21f6:	6c5bbeeb          	.4byte	0x6c5bbeeb
    21fa:	6cf80c57          	.4byte	0x6cf80c57
    21fe:	0cea                	.2byte	0xcea
    2200:	3fb1                	.2byte	0x3fb1
    2202:	6c5bbeeb          	.4byte	0x6c5bbeeb
    2206:	6cf80c57          	.4byte	0x6cf80c57
    220a:	0cea                	.2byte	0xcea
    220c:	3fb1                	.2byte	0x3fb1
    220e:	6c5bbeeb          	.4byte	0x6c5bbeeb
    2212:	6cf80c57          	.4byte	0x6cf80c57
    2216:	0cea                	.2byte	0xcea
    2218:	3fb1                	.2byte	0x3fb1
    221a:	6c5bbeeb          	.4byte	0x6c5bbeeb
    221e:	6cf80c57          	.4byte	0x6cf80c57
    2222:	0cea                	.2byte	0xcea
    2224:	3fb1                	.2byte	0x3fb1
    2226:	6c5bbeeb          	.4byte	0x6c5bbeeb
    222a:	04930c57          	.4byte	0x4930c57
    222e:	0d91                	.2byte	0xd91
    2230:	2afd                	.2byte	0x2afd
    2232:	ecd2beab          	.4byte	0xecd2beab
    2236:	0cc1                	.2byte	0xcc1
    2238:	0d910493          	add	s1,sp,217
    223c:	2afd                	.2byte	0x2afd
    223e:	ecd2beab          	.4byte	0xecd2beab
    2242:	0cc1                	.2byte	0xcc1
    2244:	0d910493          	add	s1,sp,217
    2248:	2afd                	.2byte	0x2afd
    224a:	ecd2beab          	.4byte	0xecd2beab
    224e:	0cc1                	.2byte	0xcc1
    2250:	0d910493          	add	s1,sp,217
    2254:	2afd                	.2byte	0x2afd
    2256:	ecd2beab          	.4byte	0xecd2beab
    225a:	0cc1                	.2byte	0xcc1
    225c:	0d910493          	add	s1,sp,217
    2260:	2afd                	.2byte	0x2afd
    2262:	ecd2beab          	.4byte	0xecd2beab
    2266:	0cc1                	.2byte	0xcc1
    2268:	2049                	.2byte	0x2049
    226a:	0d60                	.2byte	0xd60
    226c:	2355                	.2byte	0x2355
    226e:	d582bfb3          	.4byte	0xd582bfb3
    2272:	0d9c                	.2byte	0xd9c
    2274:	2049                	.2byte	0x2049
    2276:	0d60                	.2byte	0xd60
    2278:	2355                	.2byte	0x2355
    227a:	d582bfb3          	.4byte	0xd582bfb3
    227e:	0d9c                	.2byte	0xd9c
    2280:	2049                	.2byte	0x2049
    2282:	0d60                	.2byte	0xd60
    2284:	2355                	.2byte	0x2355
    2286:	d582bfb3          	.4byte	0xd582bfb3
    228a:	0d9c                	.2byte	0xd9c
    228c:	2049                	.2byte	0x2049
    228e:	0d60                	.2byte	0xd60
    2290:	2355                	.2byte	0x2355
    2292:	d582bfb3          	.4byte	0xd582bfb3
    2296:	0d9c                	.2byte	0xd9c
    2298:	2049                	.2byte	0x2049
    229a:	0d60                	.2byte	0xd60
    229c:	2355                	.2byte	0x2355
    229e:	d582bfb3          	.4byte	0xd582bfb3
    22a2:	0d9c                	.2byte	0xd9c
    22a4:	e8d5                	.2byte	0xe8d5
    22a6:	0c84                	.2byte	0xc84
    22a8:	0ace                	.2byte	0xace
    22aa:	ae9dc093          	xor	ra,s11,-1303
    22ae:	0d98                	.2byte	0xd98
    22b0:	e8d5                	.2byte	0xe8d5
    22b2:	0c84                	.2byte	0xc84
    22b4:	0ace                	.2byte	0xace
    22b6:	ae9dc093          	xor	ra,s11,-1303
    22ba:	0d98                	.2byte	0xd98
    22bc:	e8d5                	.2byte	0xe8d5
    22be:	0c84                	.2byte	0xc84
    22c0:	0ace                	.2byte	0xace
    22c2:	ae9dc093          	xor	ra,s11,-1303
    22c6:	0d98                	.2byte	0xd98
    22c8:	e8d5                	.2byte	0xe8d5
    22ca:	0c84                	.2byte	0xc84
    22cc:	0ace                	.2byte	0xace
    22ce:	ae9dc093          	xor	ra,s11,-1303
    22d2:	0d98                	.2byte	0xd98
    22d4:	e8d5                	.2byte	0xe8d5
    22d6:	0c84                	.2byte	0xc84
    22d8:	0ace                	.2byte	0xace
    22da:	ae9dc093          	xor	ra,s11,-1303
    22de:	0d98                	.2byte	0xd98
    22e0:	fcee                	.2byte	0xfcee
    22e2:	0d2e                	.2byte	0xd2e
    22e4:	e6fd                	.2byte	0xe6fd
    22e6:	bfa0                	.2byte	0xbfa0
    22e8:	0d5bf7f3          	csrrc	a5,0xd5,23
    22ec:	fcee                	.2byte	0xfcee
    22ee:	0d2e                	.2byte	0xd2e
    22f0:	e6fd                	.2byte	0xe6fd
    22f2:	bfa0                	.2byte	0xbfa0
    22f4:	0d5bf7f3          	csrrc	a5,0xd5,23
    22f8:	fcee                	.2byte	0xfcee
    22fa:	0d2e                	.2byte	0xd2e
    22fc:	e6fd                	.2byte	0xe6fd
    22fe:	bfa0                	.2byte	0xbfa0
    2300:	0d5bf7f3          	csrrc	a5,0xd5,23
    2304:	fcee                	.2byte	0xfcee
    2306:	0d2e                	.2byte	0xd2e
    2308:	e6fd                	.2byte	0xe6fd
    230a:	bfa0                	.2byte	0xbfa0
    230c:	0d5bf7f3          	csrrc	a5,0xd5,23
    2310:	fcee                	.2byte	0xfcee
    2312:	0d2e                	.2byte	0xd2e
    2314:	e6fd                	.2byte	0xe6fd
    2316:	bfa0                	.2byte	0xbfa0
    2318:	0d5bf7f3          	csrrc	a5,0xd5,23
    231c:	c510                	.2byte	0xc510
    231e:	b2a70cbb          	.4byte	0xb2a70cbb
    2322:	c054                	.2byte	0xc054
    2324:	0d9c023b          	.4byte	0xd9c023b
    2328:	c510                	.2byte	0xc510
    232a:	b2a70cbb          	.4byte	0xb2a70cbb
    232e:	c054                	.2byte	0xc054
    2330:	0d9c023b          	.4byte	0xd9c023b
    2334:	c510                	.2byte	0xc510
    2336:	b2a70cbb          	.4byte	0xb2a70cbb
    233a:	c054                	.2byte	0xc054
    233c:	0d9c023b          	.4byte	0xd9c023b
    2340:	c510                	.2byte	0xc510
    2342:	b2a70cbb          	.4byte	0xb2a70cbb
    2346:	c054                	.2byte	0xc054
    2348:	0d9c023b          	.4byte	0xd9c023b
    234c:	c510                	.2byte	0xc510
    234e:	b2a70cbb          	.4byte	0xb2a70cbb
    2352:	c054                	.2byte	0xc054
    2354:	0d9c023b          	.4byte	0xd9c023b
    2358:	682d                	.2byte	0x682d
    235a:	0d9f 5528 bf63      	.byte	0x9f, 0x0d, 0x28, 0x55, 0x63, 0xbf
    2360:	8e66                	.2byte	0x8e66
    2362:	0d8d                	.2byte	0xd8d
    2364:	682d                	.2byte	0x682d
    2366:	0d9f 5528 bf63      	.byte	0x9f, 0x0d, 0x28, 0x55, 0x63, 0xbf
    236c:	8e66                	.2byte	0x8e66
    236e:	0d8d                	.2byte	0xd8d
    2370:	682d                	.2byte	0x682d
    2372:	0d9f 5528 bf63      	.byte	0x9f, 0x0d, 0x28, 0x55, 0x63, 0xbf
    2378:	8e66                	.2byte	0x8e66
    237a:	0d8d                	.2byte	0xd8d
    237c:	682d                	.2byte	0x682d
    237e:	0d9f 5528 bf63      	.byte	0x9f, 0x0d, 0x28, 0x55, 0x63, 0xbf
    2384:	8e66                	.2byte	0x8e66
    2386:	0d8d                	.2byte	0xd8d
    2388:	682d                	.2byte	0x682d
    238a:	0d9f 5528 bf63      	.byte	0x9f, 0x0d, 0x28, 0x55, 0x63, 0xbf
    2390:	8e66                	.2byte	0x8e66
    2392:	0d8d                	.2byte	0xd8d
    2394:	f1e9                	.2byte	0xf1e9
    2396:	ae890c87          	.4byte	0xae890c87
    239a:	daf3bf83          	.4byte	0xdaf3bf83
    239e:	f1e90c8b          	.4byte	0xf1e90c8b
    23a2:	ae890c87          	.4byte	0xae890c87
    23a6:	daf3bf83          	.4byte	0xdaf3bf83
    23aa:	f1e90c8b          	.4byte	0xf1e90c8b
    23ae:	ae890c87          	.4byte	0xae890c87
    23b2:	daf3bf83          	.4byte	0xdaf3bf83
    23b6:	f1e90c8b          	.4byte	0xf1e90c8b
    23ba:	ae890c87          	.4byte	0xae890c87
    23be:	daf3bf83          	.4byte	0xdaf3bf83
    23c2:	f1e90c8b          	.4byte	0xf1e90c8b
    23c6:	ae890c87          	.4byte	0xae890c87
    23ca:	daf3bf83          	.4byte	0xdaf3bf83
    23ce:	73240c8b          	.4byte	0x73240c8b
    23d2:	7c340913          	add	s2,s0,1987
    23d6:	c3f5                	.2byte	0xc3f5
    23d8:	64bc                	.2byte	0x64bc
    23da:	0d8d                	.2byte	0xd8d
    23dc:	7324                	.2byte	0x7324
    23de:	7c340913          	add	s2,s0,1987
    23e2:	c3f5                	.2byte	0xc3f5
    23e4:	64bc                	.2byte	0x64bc
    23e6:	0d8d                	.2byte	0xd8d
    23e8:	7324                	.2byte	0x7324
    23ea:	7c340913          	add	s2,s0,1987
    23ee:	c3f5                	.2byte	0xc3f5
    23f0:	64bc                	.2byte	0x64bc
    23f2:	0d8d                	.2byte	0xd8d
    23f4:	7324                	.2byte	0x7324
    23f6:	7c340913          	add	s2,s0,1987
    23fa:	c3f5                	.2byte	0xc3f5
    23fc:	64bc                	.2byte	0x64bc
    23fe:	0d8d                	.2byte	0xd8d
    2400:	7324                	.2byte	0x7324
    2402:	7c340913          	add	s2,s0,1987
    2406:	c3f5                	.2byte	0xc3f5
    2408:	64bc                	.2byte	0x64bc
    240a:	0d8d                	.2byte	0xd8d
    240c:	5ff2                	.2byte	0x5ff2
    240e:	0d48                	.2byte	0xd48
    2410:	1f16                	.2byte	0x1f16
    2412:	be52                	.2byte	0xbe52
    2414:	770a                	.2byte	0x770a
    2416:	0c24                	.2byte	0xc24
    2418:	5ff2                	.2byte	0x5ff2
    241a:	0d48                	.2byte	0xd48
    241c:	1f16                	.2byte	0x1f16
    241e:	be52                	.2byte	0xbe52
    2420:	770a                	.2byte	0x770a
    2422:	0c24                	.2byte	0xc24
    2424:	5ff2                	.2byte	0x5ff2
    2426:	0d48                	.2byte	0xd48
    2428:	1f16                	.2byte	0x1f16
    242a:	be52                	.2byte	0xbe52
    242c:	770a                	.2byte	0x770a
    242e:	0c24                	.2byte	0xc24
    2430:	5ff2                	.2byte	0x5ff2
    2432:	0d48                	.2byte	0xd48
    2434:	1f16                	.2byte	0x1f16
    2436:	be52                	.2byte	0xbe52
    2438:	770a                	.2byte	0x770a
    243a:	0c24                	.2byte	0xc24
    243c:	5ff2                	.2byte	0x5ff2
    243e:	0d48                	.2byte	0xd48
    2440:	1f16                	.2byte	0x1f16
    2442:	be52                	.2byte	0xbe52
    2444:	770a                	.2byte	0x770a
    2446:	0c24                	.2byte	0xc24
    2448:	5830                	.2byte	0x5830
    244a:	0d81                	.2byte	0xd81
    244c:	420c                	.2byte	0x420c
    244e:	be32                	.2byte	0xbe32
    2450:	2162                	.2byte	0x2162
    2452:	0c34                	.2byte	0xc34
    2454:	5830                	.2byte	0x5830
    2456:	0d81                	.2byte	0xd81
    2458:	420c                	.2byte	0x420c
    245a:	be32                	.2byte	0xbe32
    245c:	2162                	.2byte	0x2162
    245e:	0c34                	.2byte	0xc34
    2460:	5830                	.2byte	0x5830
    2462:	0d81                	.2byte	0xd81
    2464:	420c                	.2byte	0x420c
    2466:	be32                	.2byte	0xbe32
    2468:	2162                	.2byte	0x2162
    246a:	0c34                	.2byte	0xc34
    246c:	5830                	.2byte	0x5830
    246e:	0d81                	.2byte	0xd81
    2470:	420c                	.2byte	0x420c
    2472:	be32                	.2byte	0xbe32
    2474:	2162                	.2byte	0x2162
    2476:	0c34                	.2byte	0xc34
    2478:	5830                	.2byte	0x5830
    247a:	0d81                	.2byte	0xd81
    247c:	420c                	.2byte	0x420c
    247e:	be32                	.2byte	0xbe32
    2480:	2162                	.2byte	0x2162
    2482:	0c34                	.2byte	0xc34
    2484:	0d787dfb          	.4byte	0xd787dfb
    2488:	7010                	.2byte	0x7010
    248a:	be55                	.2byte	0xbe55
    248c:	2d98                	.2byte	0x2d98
    248e:	7dfb0c4f          	.4byte	0x7dfb0c4f
    2492:	0d78                	.2byte	0xd78
    2494:	7010                	.2byte	0x7010
    2496:	be55                	.2byte	0xbe55
    2498:	2d98                	.2byte	0x2d98
    249a:	7dfb0c4f          	.4byte	0x7dfb0c4f
    249e:	0d78                	.2byte	0xd78
    24a0:	7010                	.2byte	0x7010
    24a2:	be55                	.2byte	0xbe55
    24a4:	2d98                	.2byte	0x2d98
    24a6:	7dfb0c4f          	.4byte	0x7dfb0c4f
    24aa:	0d78                	.2byte	0xd78
    24ac:	7010                	.2byte	0x7010
    24ae:	be55                	.2byte	0xbe55
    24b0:	2d98                	.2byte	0x2d98
    24b2:	7dfb0c4f          	.4byte	0x7dfb0c4f
    24b6:	0d78                	.2byte	0xd78
    24b8:	7010                	.2byte	0x7010
    24ba:	be55                	.2byte	0xbe55
    24bc:	2d98                	.2byte	0x2d98
    24be:	64f90c4f          	.4byte	0x64f90c4f
    24c2:	0cb5                	.2byte	0xcb5
    24c4:	d69a                	.2byte	0xd69a
    24c6:	c051                	.2byte	0xc051
    24c8:	af7f 0d94 64f9 0cb5 	.byte	0x7f, 0xaf, 0x94, 0x0d, 0xf9, 0x64, 0xb5, 0x0c, 0x9a, 0xd6, 0x51, 0xc0, 0x7f, 0xaf
    24d0:	d69a c051 af7f 
    24d6:	0d94                	.2byte	0xd94
    24d8:	64f9                	.2byte	0x64f9
    24da:	0cb5                	.2byte	0xcb5
    24dc:	d69a                	.2byte	0xd69a
    24de:	c051                	.2byte	0xc051
    24e0:	af7f 0d94 64f9 0cb5 	.byte	0x7f, 0xaf, 0x94, 0x0d, 0xf9, 0x64, 0xb5, 0x0c, 0x9a, 0xd6, 0x51, 0xc0, 0x7f, 0xaf
    24e8:	d69a c051 af7f 
    24ee:	0d94                	.2byte	0xd94
    24f0:	64f9                	.2byte	0x64f9
    24f2:	0cb5                	.2byte	0xcb5
    24f4:	d69a                	.2byte	0xd69a
    24f6:	c051                	.2byte	0xc051
    24f8:	af7f 0d94 2f7e 0a88 	.byte	0x7f, 0xaf, 0x94, 0x0d, 0x7e, 0x2f, 0x88, 0x0a, 0xfb, 0x35, 0x84, 0xc1, 0x6a, 0xaa
    2500:	35fb c184 aa6a 
    2506:	0c8c                	.2byte	0xc8c
    2508:	2f7e                	.2byte	0x2f7e
    250a:	0a88                	.2byte	0xa88
    250c:	c18435fb          	.4byte	0xc18435fb
    2510:	aa6a                	.2byte	0xaa6a
    2512:	0c8c                	.2byte	0xc8c
    2514:	2f7e                	.2byte	0x2f7e
    2516:	0a88                	.2byte	0xa88
    2518:	c18435fb          	.4byte	0xc18435fb
    251c:	aa6a                	.2byte	0xaa6a
    251e:	0c8c                	.2byte	0xc8c
    2520:	2f7e                	.2byte	0x2f7e
    2522:	0a88                	.2byte	0xa88
    2524:	c18435fb          	.4byte	0xc18435fb
    2528:	aa6a                	.2byte	0xaa6a
    252a:	0c8c                	.2byte	0xc8c
    252c:	2f7e                	.2byte	0x2f7e
    252e:	0a88                	.2byte	0xa88
    2530:	c18435fb          	.4byte	0xc18435fb
    2534:	aa6a                	.2byte	0xaa6a
    2536:	0c8c                	.2byte	0xc8c
    2538:	75e2                	.2byte	0x75e2
    253a:	0d30                	.2byte	0xd30
    253c:	1ab8                	.2byte	0x1ab8
    253e:	412bbf87          	.4byte	0x412bbf87
    2542:	0d3a                	.2byte	0xd3a
    2544:	75e2                	.2byte	0x75e2
    2546:	0d30                	.2byte	0xd30
    2548:	1ab8                	.2byte	0x1ab8
    254a:	412bbf87          	.4byte	0x412bbf87
    254e:	0d3a                	.2byte	0xd3a
    2550:	75e2                	.2byte	0x75e2
    2552:	0d30                	.2byte	0xd30
    2554:	1ab8                	.2byte	0x1ab8
    2556:	412bbf87          	.4byte	0x412bbf87
    255a:	0d3a                	.2byte	0xd3a
    255c:	75e2                	.2byte	0x75e2
    255e:	0d30                	.2byte	0xd30
    2560:	1ab8                	.2byte	0x1ab8
    2562:	412bbf87          	.4byte	0x412bbf87
    2566:	0d3a                	.2byte	0xd3a
    2568:	75e2                	.2byte	0x75e2
    256a:	0d30                	.2byte	0xd30
    256c:	1ab8                	.2byte	0x1ab8
    256e:	412bbf87          	.4byte	0x412bbf87
    2572:	0d3a                	.2byte	0xd3a
    2574:	0d1838bb          	.4byte	0xd1838bb
    2578:	91ee                	.2byte	0x91ee
    257a:	bf06                	.2byte	0xbf06
    257c:	08f0                	.2byte	0x8f0
    257e:	0ca0                	.2byte	0xca0
    2580:	0d1838bb          	.4byte	0xd1838bb
    2584:	91ee                	.2byte	0x91ee
    2586:	bf06                	.2byte	0xbf06
    2588:	08f0                	.2byte	0x8f0
    258a:	0ca0                	.2byte	0xca0
    258c:	0d1838bb          	.4byte	0xd1838bb
    2590:	91ee                	.2byte	0x91ee
    2592:	bf06                	.2byte	0xbf06
    2594:	08f0                	.2byte	0x8f0
    2596:	0ca0                	.2byte	0xca0
    2598:	0d1838bb          	.4byte	0xd1838bb
    259c:	91ee                	.2byte	0x91ee
    259e:	bf06                	.2byte	0xbf06
    25a0:	08f0                	.2byte	0x8f0
    25a2:	0ca0                	.2byte	0xca0
    25a4:	0d1838bb          	.4byte	0xd1838bb
    25a8:	91ee                	.2byte	0x91ee
    25aa:	bf06                	.2byte	0xbf06
    25ac:	08f0                	.2byte	0x8f0
    25ae:	0ca0                	.2byte	0xca0
    25b0:	2df1                	.2byte	0x2df1
    25b2:	0d92                	.2byte	0xd92
    25b4:	be00acab          	.4byte	0xbe00acab
    25b8:	f322                	.2byte	0xf322
    25ba:	0c12                	.2byte	0xc12
    25bc:	2df1                	.2byte	0x2df1
    25be:	0d92                	.2byte	0xd92
    25c0:	be00acab          	.4byte	0xbe00acab
    25c4:	f322                	.2byte	0xf322
    25c6:	0c12                	.2byte	0xc12
    25c8:	2df1                	.2byte	0x2df1
    25ca:	0d92                	.2byte	0xd92
    25cc:	be00acab          	.4byte	0xbe00acab
    25d0:	f322                	.2byte	0xf322
    25d2:	0c12                	.2byte	0xc12
    25d4:	2df1                	.2byte	0x2df1
    25d6:	0d92                	.2byte	0xd92
    25d8:	be00acab          	.4byte	0xbe00acab
    25dc:	f322                	.2byte	0xf322
    25de:	0c12                	.2byte	0xc12
    25e0:	2df1                	.2byte	0x2df1
    25e2:	0d92                	.2byte	0xd92
    25e4:	be00acab          	.4byte	0xbe00acab
    25e8:	f322                	.2byte	0xf322
    25ea:	0c12                	.2byte	0xc12
    25ec:	1181                	.2byte	0x1181
    25ee:	0d99                	.2byte	0xd99
    25f0:	1cf4                	.2byte	0x1cf4
    25f2:	bf30                	.2byte	0xbf30
    25f4:	9ab2                	.2byte	0x9ab2
    25f6:	0d52                	.2byte	0xd52
    25f8:	1181                	.2byte	0x1181
    25fa:	0d99                	.2byte	0xd99
    25fc:	1cf4                	.2byte	0x1cf4
    25fe:	bf30                	.2byte	0xbf30
    2600:	9ab2                	.2byte	0x9ab2
    2602:	0d52                	.2byte	0xd52
    2604:	1181                	.2byte	0x1181
    2606:	0d99                	.2byte	0xd99
    2608:	1cf4                	.2byte	0x1cf4
    260a:	bf30                	.2byte	0xbf30
    260c:	9ab2                	.2byte	0x9ab2
    260e:	0d52                	.2byte	0xd52
    2610:	1181                	.2byte	0x1181
    2612:	0d99                	.2byte	0xd99
    2614:	1cf4                	.2byte	0x1cf4
    2616:	bf30                	.2byte	0xbf30
    2618:	9ab2                	.2byte	0x9ab2
    261a:	0d52                	.2byte	0xd52
    261c:	1181                	.2byte	0x1181
    261e:	0d99                	.2byte	0xd99
    2620:	1cf4                	.2byte	0x1cf4
    2622:	bf30                	.2byte	0xbf30
    2624:	9ab2                	.2byte	0x9ab2
    2626:	0d52                	.2byte	0xd52
    2628:	0b169a8f          	.4byte	0xb169a8f
    262c:	6caa                	.2byte	0x6caa
    262e:	c180                	.2byte	0xc180
    2630:	1a6a                	.2byte	0x1a6a
    2632:	9a8f0d17          	auipc	s10,0x9a8f0
    2636:	0b16                	.2byte	0xb16
    2638:	6caa                	.2byte	0x6caa
    263a:	c180                	.2byte	0xc180
    263c:	1a6a                	.2byte	0x1a6a
    263e:	9a8f0d17          	auipc	s10,0x9a8f0
    2642:	0b16                	.2byte	0xb16
    2644:	6caa                	.2byte	0x6caa
    2646:	c180                	.2byte	0xc180
    2648:	1a6a                	.2byte	0x1a6a
    264a:	9a8f0d17          	auipc	s10,0x9a8f0
    264e:	0b16                	.2byte	0xb16
    2650:	6caa                	.2byte	0x6caa
    2652:	c180                	.2byte	0xc180
    2654:	1a6a                	.2byte	0x1a6a
    2656:	9a8f0d17          	auipc	s10,0x9a8f0
    265a:	0b16                	.2byte	0xb16
    265c:	6caa                	.2byte	0x6caa
    265e:	c180                	.2byte	0xc180
    2660:	1a6a                	.2byte	0x1a6a
    2662:	1c5e0d17          	auipc	s10,0x1c5e0
    2666:	0d70                	.2byte	0xd70
    2668:	8f25                	.2byte	0x8f25
    266a:	bf9f a7e1 0d95      	.byte	0x9f, 0xbf, 0xe1, 0xa7, 0x95, 0x0d
    2670:	1c5e                	.2byte	0x1c5e
    2672:	0d70                	.2byte	0xd70
    2674:	8f25                	.2byte	0x8f25
    2676:	bf9f a7e1 0d95      	.byte	0x9f, 0xbf, 0xe1, 0xa7, 0x95, 0x0d
    267c:	1c5e                	.2byte	0x1c5e
    267e:	0d70                	.2byte	0xd70
    2680:	8f25                	.2byte	0x8f25
    2682:	bf9f a7e1 0d95      	.byte	0x9f, 0xbf, 0xe1, 0xa7, 0x95, 0x0d
    2688:	1c5e                	.2byte	0x1c5e
    268a:	0d70                	.2byte	0xd70
    268c:	8f25                	.2byte	0x8f25
    268e:	bf9f a7e1 0d95      	.byte	0x9f, 0xbf, 0xe1, 0xa7, 0x95, 0x0d
    2694:	380d                	.2byte	0x380d
    2696:	0d9e                	.2byte	0xd9e
    2698:	bcc01917          	auipc	s2,0xbcc01
    269c:	0aed7317          	auipc	t1,0xaed7
    26a0:	380d                	.2byte	0x380d
    26a2:	0d9e                	.2byte	0xd9e
    26a4:	bcc01917          	auipc	s2,0xbcc01
    26a8:	0aed7317          	auipc	t1,0xaed7
    26ac:	380d                	.2byte	0x380d
    26ae:	0d9e                	.2byte	0xd9e
    26b0:	bcc01917          	auipc	s2,0xbcc01
    26b4:	0aed7317          	auipc	t1,0xaed7
    26b8:	ad9f 0d64 a9d6      	.byte	0x9f, 0xad, 0x64, 0x0d, 0xd6, 0xa9
    26be:	bda5                	.2byte	0xbda5
    26c0:	fb9d                	.2byte	0xfb9d
    26c2:	ad9f0b93          	add	s7,t5,-1319
    26c6:	0d64                	.2byte	0xd64
    26c8:	a9d6                	.2byte	0xa9d6
    26ca:	bda5                	.2byte	0xbda5
    26cc:	fb9d                	.2byte	0xfb9d
    26ce:	ad9f0b93          	add	s7,t5,-1319
    26d2:	0d64                	.2byte	0xd64
    26d4:	a9d6                	.2byte	0xa9d6
    26d6:	bda5                	.2byte	0xbda5
    26d8:	fb9d                	.2byte	0xfb9d
    26da:	ad9f0b93          	add	s7,t5,-1319
    26de:	0d64                	.2byte	0xd64
    26e0:	a9d6                	.2byte	0xa9d6
    26e2:	bda5                	.2byte	0xbda5
    26e4:	fb9d                	.2byte	0xfb9d
    26e6:	ad9f0b93          	add	s7,t5,-1319
    26ea:	0d64                	.2byte	0xd64
    26ec:	a9d6                	.2byte	0xa9d6
    26ee:	bda5                	.2byte	0xbda5
    26f0:	fb9d                	.2byte	0xfb9d
    26f2:	f6210b93          	add	s7,sp,-158
    26f6:	0ccc                	.2byte	0xccc
    26f8:	0d36                	.2byte	0xd36
    26fa:	2a0fbfc3          	.4byte	0x2a0fbfc3
    26fe:	0d1c                	.2byte	0xd1c

00002700 <data_begin>:
    2700:	deadbeef          	jal	t4,fffddcea <_end+0xfffdb13a>
    2704:	deadbeef          	jal	t4,fffddcee <_end+0xfffdb13e>
    2708:	deadbeef          	jal	t4,fffddcf2 <_end+0xfffdb142>
    270c:	deadbeef          	jal	t4,fffddcf6 <_end+0xfffdb146>
    2710:	deadbeef          	jal	t4,fffddcfa <_end+0xfffdb14a>
    2714:	deadbeef          	jal	t4,fffddcfe <_end+0xfffdb14e>
    2718:	deadbeef          	jal	t4,fffddd02 <_end+0xfffdb152>
    271c:	deadbeef          	jal	t4,fffddd06 <_end+0xfffdb156>
    2720:	deadbeef          	jal	t4,fffddd0a <_end+0xfffdb15a>
    2724:	deadbeef          	jal	t4,fffddd0e <_end+0xfffdb15e>
    2728:	deadbeef          	jal	t4,fffddd12 <_end+0xfffdb162>
    272c:	deadbeef          	jal	t4,fffddd16 <_end+0xfffdb166>
    2730:	deadbeef          	jal	t4,fffddd1a <_end+0xfffdb16a>
    2734:	deadbeef          	jal	t4,fffddd1e <_end+0xfffdb16e>
    2738:	deadbeef          	jal	t4,fffddd22 <_end+0xfffdb172>
    273c:	deadbeef          	jal	t4,fffddd26 <_end+0xfffdb176>
    2740:	deadbeef          	jal	t4,fffddd2a <_end+0xfffdb17a>
    2744:	deadbeef          	jal	t4,fffddd2e <_end+0xfffdb17e>
    2748:	deadbeef          	jal	t4,fffddd32 <_end+0xfffdb182>
    274c:	deadbeef          	jal	t4,fffddd36 <_end+0xfffdb186>
    2750:	deadbeef          	jal	t4,fffddd3a <_end+0xfffdb18a>
    2754:	deadbeef          	jal	t4,fffddd3e <_end+0xfffdb18e>
    2758:	deadbeef          	jal	t4,fffddd42 <_end+0xfffdb192>
    275c:	deadbeef          	jal	t4,fffddd46 <_end+0xfffdb196>
    2760:	deadbeef          	jal	t4,fffddd4a <_end+0xfffdb19a>
    2764:	deadbeef          	jal	t4,fffddd4e <_end+0xfffdb19e>
    2768:	deadbeef          	jal	t4,fffddd52 <_end+0xfffdb1a2>
    276c:	deadbeef          	jal	t4,fffddd56 <_end+0xfffdb1a6>
    2770:	deadbeef          	jal	t4,fffddd5a <_end+0xfffdb1aa>
    2774:	deadbeef          	jal	t4,fffddd5e <_end+0xfffdb1ae>
    2778:	deadbeef          	jal	t4,fffddd62 <_end+0xfffdb1b2>
    277c:	deadbeef          	jal	t4,fffddd66 <_end+0xfffdb1b6>
    2780:	deadbeef          	jal	t4,fffddd6a <_end+0xfffdb1ba>
    2784:	deadbeef          	jal	t4,fffddd6e <_end+0xfffdb1be>
    2788:	deadbeef          	jal	t4,fffddd72 <_end+0xfffdb1c2>
    278c:	deadbeef          	jal	t4,fffddd76 <_end+0xfffdb1c6>
    2790:	deadbeef          	jal	t4,fffddd7a <_end+0xfffdb1ca>
    2794:	deadbeef          	jal	t4,fffddd7e <_end+0xfffdb1ce>
    2798:	deadbeef          	jal	t4,fffddd82 <_end+0xfffdb1d2>
    279c:	deadbeef          	jal	t4,fffddd86 <_end+0xfffdb1d6>
    27a0:	deadbeef          	jal	t4,fffddd8a <_end+0xfffdb1da>
    27a4:	deadbeef          	jal	t4,fffddd8e <_end+0xfffdb1de>
    27a8:	deadbeef          	jal	t4,fffddd92 <_end+0xfffdb1e2>
    27ac:	deadbeef          	jal	t4,fffddd96 <_end+0xfffdb1e6>
    27b0:	deadbeef          	jal	t4,fffddd9a <_end+0xfffdb1ea>
    27b4:	deadbeef          	jal	t4,fffddd9e <_end+0xfffdb1ee>
    27b8:	deadbeef          	jal	t4,fffddda2 <_end+0xfffdb1f2>
    27bc:	deadbeef          	jal	t4,fffddda6 <_end+0xfffdb1f6>
    27c0:	deadbeef          	jal	t4,fffdddaa <_end+0xfffdb1fa>
    27c4:	deadbeef          	jal	t4,fffdddae <_end+0xfffdb1fe>
    27c8:	deadbeef          	jal	t4,fffdddb2 <_end+0xfffdb202>
    27cc:	deadbeef          	jal	t4,fffdddb6 <_end+0xfffdb206>
    27d0:	deadbeef          	jal	t4,fffdddba <_end+0xfffdb20a>
    27d4:	deadbeef          	jal	t4,fffdddbe <_end+0xfffdb20e>
    27d8:	deadbeef          	jal	t4,fffdddc2 <_end+0xfffdb212>
    27dc:	deadbeef          	jal	t4,fffdddc6 <_end+0xfffdb216>
    27e0:	deadbeef          	jal	t4,fffdddca <_end+0xfffdb21a>
    27e4:	deadbeef          	jal	t4,fffdddce <_end+0xfffdb21e>
    27e8:	deadbeef          	jal	t4,fffdddd2 <_end+0xfffdb222>
    27ec:	deadbeef          	jal	t4,fffdddd6 <_end+0xfffdb226>
    27f0:	deadbeef          	jal	t4,fffdddda <_end+0xfffdb22a>
    27f4:	deadbeef          	jal	t4,fffdddde <_end+0xfffdb22e>
    27f8:	deadbeef          	jal	t4,fffddde2 <_end+0xfffdb232>
    27fc:	deadbeef          	jal	t4,fffddde6 <_end+0xfffdb236>
    2800:	deadbeef          	jal	t4,fffdddea <_end+0xfffdb23a>
    2804:	deadbeef          	jal	t4,fffdddee <_end+0xfffdb23e>
    2808:	deadbeef          	jal	t4,fffdddf2 <_end+0xfffdb242>
    280c:	deadbeef          	jal	t4,fffdddf6 <_end+0xfffdb246>
    2810:	deadbeef          	jal	t4,fffdddfa <_end+0xfffdb24a>
    2814:	deadbeef          	jal	t4,fffdddfe <_end+0xfffdb24e>
    2818:	deadbeef          	jal	t4,fffdde02 <_end+0xfffdb252>
    281c:	deadbeef          	jal	t4,fffdde06 <_end+0xfffdb256>
    2820:	deadbeef          	jal	t4,fffdde0a <_end+0xfffdb25a>
    2824:	deadbeef          	jal	t4,fffdde0e <_end+0xfffdb25e>
    2828:	deadbeef          	jal	t4,fffdde12 <_end+0xfffdb262>
    282c:	deadbeef          	jal	t4,fffdde16 <_end+0xfffdb266>
    2830:	deadbeef          	jal	t4,fffdde1a <_end+0xfffdb26a>
    2834:	deadbeef          	jal	t4,fffdde1e <_end+0xfffdb26e>
    2838:	deadbeef          	jal	t4,fffdde22 <_end+0xfffdb272>
    283c:	deadbeef          	jal	t4,fffdde26 <_end+0xfffdb276>
    2840:	deadbeef          	jal	t4,fffdde2a <_end+0xfffdb27a>
    2844:	deadbeef          	jal	t4,fffdde2e <_end+0xfffdb27e>
    2848:	deadbeef          	jal	t4,fffdde32 <_end+0xfffdb282>
    284c:	deadbeef          	jal	t4,fffdde36 <_end+0xfffdb286>
    2850:	deadbeef          	jal	t4,fffdde3a <_end+0xfffdb28a>
    2854:	deadbeef          	jal	t4,fffdde3e <_end+0xfffdb28e>
    2858:	deadbeef          	jal	t4,fffdde42 <_end+0xfffdb292>
    285c:	deadbeef          	jal	t4,fffdde46 <_end+0xfffdb296>
    2860:	deadbeef          	jal	t4,fffdde4a <_end+0xfffdb29a>
    2864:	deadbeef          	jal	t4,fffdde4e <_end+0xfffdb29e>
    2868:	deadbeef          	jal	t4,fffdde52 <_end+0xfffdb2a2>
    286c:	deadbeef          	jal	t4,fffdde56 <_end+0xfffdb2a6>
    2870:	deadbeef          	jal	t4,fffdde5a <_end+0xfffdb2aa>
    2874:	deadbeef          	jal	t4,fffdde5e <_end+0xfffdb2ae>
    2878:	deadbeef          	jal	t4,fffdde62 <_end+0xfffdb2b2>
    287c:	deadbeef          	jal	t4,fffdde66 <_end+0xfffdb2b6>
    2880:	deadbeef          	jal	t4,fffdde6a <_end+0xfffdb2ba>
    2884:	deadbeef          	jal	t4,fffdde6e <_end+0xfffdb2be>
    2888:	deadbeef          	jal	t4,fffdde72 <_end+0xfffdb2c2>
    288c:	deadbeef          	jal	t4,fffdde76 <_end+0xfffdb2c6>
    2890:	deadbeef          	jal	t4,fffdde7a <_end+0xfffdb2ca>
    2894:	deadbeef          	jal	t4,fffdde7e <_end+0xfffdb2ce>
    2898:	deadbeef          	jal	t4,fffdde82 <_end+0xfffdb2d2>
    289c:	deadbeef          	jal	t4,fffdde86 <_end+0xfffdb2d6>
    28a0:	deadbeef          	jal	t4,fffdde8a <_end+0xfffdb2da>
    28a4:	deadbeef          	jal	t4,fffdde8e <_end+0xfffdb2de>
    28a8:	deadbeef          	jal	t4,fffdde92 <_end+0xfffdb2e2>
    28ac:	deadbeef          	jal	t4,fffdde96 <_end+0xfffdb2e6>
    28b0:	deadbeef          	jal	t4,fffdde9a <_end+0xfffdb2ea>
    28b4:	deadbeef          	jal	t4,fffdde9e <_end+0xfffdb2ee>
    28b8:	deadbeef          	jal	t4,fffddea2 <_end+0xfffdb2f2>
    28bc:	deadbeef          	jal	t4,fffddea6 <_end+0xfffdb2f6>
    28c0:	deadbeef          	jal	t4,fffddeaa <_end+0xfffdb2fa>
    28c4:	deadbeef          	jal	t4,fffddeae <_end+0xfffdb2fe>
    28c8:	deadbeef          	jal	t4,fffddeb2 <_end+0xfffdb302>
    28cc:	deadbeef          	jal	t4,fffddeb6 <_end+0xfffdb306>
    28d0:	deadbeef          	jal	t4,fffddeba <_end+0xfffdb30a>
    28d4:	deadbeef          	jal	t4,fffddebe <_end+0xfffdb30e>
    28d8:	deadbeef          	jal	t4,fffddec2 <_end+0xfffdb312>
    28dc:	deadbeef          	jal	t4,fffddec6 <_end+0xfffdb316>
    28e0:	deadbeef          	jal	t4,fffddeca <_end+0xfffdb31a>
    28e4:	deadbeef          	jal	t4,fffddece <_end+0xfffdb31e>
    28e8:	deadbeef          	jal	t4,fffdded2 <_end+0xfffdb322>
    28ec:	deadbeef          	jal	t4,fffdded6 <_end+0xfffdb326>
    28f0:	deadbeef          	jal	t4,fffddeda <_end+0xfffdb32a>
    28f4:	deadbeef          	jal	t4,fffddede <_end+0xfffdb32e>
    28f8:	deadbeef          	jal	t4,fffddee2 <_end+0xfffdb332>
    28fc:	deadbeef          	jal	t4,fffddee6 <_end+0xfffdb336>
    2900:	deadbeef          	jal	t4,fffddeea <_end+0xfffdb33a>
    2904:	deadbeef          	jal	t4,fffddeee <_end+0xfffdb33e>
    2908:	deadbeef          	jal	t4,fffddef2 <_end+0xfffdb342>
    290c:	deadbeef          	jal	t4,fffddef6 <_end+0xfffdb346>
    2910:	deadbeef          	jal	t4,fffddefa <_end+0xfffdb34a>
    2914:	deadbeef          	jal	t4,fffddefe <_end+0xfffdb34e>
    2918:	deadbeef          	jal	t4,fffddf02 <_end+0xfffdb352>
    291c:	deadbeef          	jal	t4,fffddf06 <_end+0xfffdb356>
    2920:	deadbeef          	jal	t4,fffddf0a <_end+0xfffdb35a>
    2924:	deadbeef          	jal	t4,fffddf0e <_end+0xfffdb35e>
    2928:	deadbeef          	jal	t4,fffddf12 <_end+0xfffdb362>
    292c:	deadbeef          	jal	t4,fffddf16 <_end+0xfffdb366>
    2930:	deadbeef          	jal	t4,fffddf1a <_end+0xfffdb36a>
    2934:	deadbeef          	jal	t4,fffddf1e <_end+0xfffdb36e>
    2938:	deadbeef          	jal	t4,fffddf22 <_end+0xfffdb372>
    293c:	deadbeef          	jal	t4,fffddf26 <_end+0xfffdb376>
    2940:	deadbeef          	jal	t4,fffddf2a <_end+0xfffdb37a>
    2944:	deadbeef          	jal	t4,fffddf2e <_end+0xfffdb37e>
    2948:	deadbeef          	jal	t4,fffddf32 <_end+0xfffdb382>
    294c:	deadbeef          	jal	t4,fffddf36 <_end+0xfffdb386>
    2950:	deadbeef          	jal	t4,fffddf3a <_end+0xfffdb38a>
    2954:	deadbeef          	jal	t4,fffddf3e <_end+0xfffdb38e>
    2958:	deadbeef          	jal	t4,fffddf42 <_end+0xfffdb392>
    295c:	deadbeef          	jal	t4,fffddf46 <_end+0xfffdb396>
    2960:	deadbeef          	jal	t4,fffddf4a <_end+0xfffdb39a>
    2964:	deadbeef          	jal	t4,fffddf4e <_end+0xfffdb39e>
    2968:	deadbeef          	jal	t4,fffddf52 <_end+0xfffdb3a2>
    296c:	deadbeef          	jal	t4,fffddf56 <_end+0xfffdb3a6>
    2970:	deadbeef          	jal	t4,fffddf5a <_end+0xfffdb3aa>
    2974:	deadbeef          	jal	t4,fffddf5e <_end+0xfffdb3ae>
    2978:	deadbeef          	jal	t4,fffddf62 <_end+0xfffdb3b2>
    297c:	deadbeef          	jal	t4,fffddf66 <_end+0xfffdb3b6>
    2980:	deadbeef          	jal	t4,fffddf6a <_end+0xfffdb3ba>
    2984:	deadbeef          	jal	t4,fffddf6e <_end+0xfffdb3be>
    2988:	deadbeef          	jal	t4,fffddf72 <_end+0xfffdb3c2>
    298c:	deadbeef          	jal	t4,fffddf76 <_end+0xfffdb3c6>
    2990:	deadbeef          	jal	t4,fffddf7a <_end+0xfffdb3ca>
    2994:	deadbeef          	jal	t4,fffddf7e <_end+0xfffdb3ce>
    2998:	deadbeef          	jal	t4,fffddf82 <_end+0xfffdb3d2>
    299c:	deadbeef          	jal	t4,fffddf86 <_end+0xfffdb3d6>
    29a0:	deadbeef          	jal	t4,fffddf8a <_end+0xfffdb3da>
    29a4:	deadbeef          	jal	t4,fffddf8e <_end+0xfffdb3de>
    29a8:	deadbeef          	jal	t4,fffddf92 <_end+0xfffdb3e2>
    29ac:	deadbeef          	jal	t4,fffddf96 <_end+0xfffdb3e6>
    29b0:	deadbeef          	jal	t4,fffddf9a <_end+0xfffdb3ea>
    29b4:	deadbeef          	jal	t4,fffddf9e <_end+0xfffdb3ee>
    29b8:	deadbeef          	jal	t4,fffddfa2 <_end+0xfffdb3f2>
    29bc:	deadbeef          	jal	t4,fffddfa6 <_end+0xfffdb3f6>
    29c0:	deadbeef          	jal	t4,fffddfaa <_end+0xfffdb3fa>
    29c4:	deadbeef          	jal	t4,fffddfae <_end+0xfffdb3fe>
    29c8:	deadbeef          	jal	t4,fffddfb2 <_end+0xfffdb402>
    29cc:	deadbeef          	jal	t4,fffddfb6 <_end+0xfffdb406>
    29d0:	deadbeef          	jal	t4,fffddfba <_end+0xfffdb40a>
    29d4:	deadbeef          	jal	t4,fffddfbe <_end+0xfffdb40e>
    29d8:	deadbeef          	jal	t4,fffddfc2 <_end+0xfffdb412>
    29dc:	deadbeef          	jal	t4,fffddfc6 <_end+0xfffdb416>
    29e0:	deadbeef          	jal	t4,fffddfca <_end+0xfffdb41a>
    29e4:	deadbeef          	jal	t4,fffddfce <_end+0xfffdb41e>
    29e8:	deadbeef          	jal	t4,fffddfd2 <_end+0xfffdb422>
    29ec:	deadbeef          	jal	t4,fffddfd6 <_end+0xfffdb426>
    29f0:	deadbeef          	jal	t4,fffddfda <_end+0xfffdb42a>
    29f4:	deadbeef          	jal	t4,fffddfde <_end+0xfffdb42e>
    29f8:	deadbeef          	jal	t4,fffddfe2 <_end+0xfffdb432>
    29fc:	deadbeef          	jal	t4,fffddfe6 <_end+0xfffdb436>
    2a00:	deadbeef          	jal	t4,fffddfea <_end+0xfffdb43a>
    2a04:	deadbeef          	jal	t4,fffddfee <_end+0xfffdb43e>
    2a08:	deadbeef          	jal	t4,fffddff2 <_end+0xfffdb442>
    2a0c:	deadbeef          	jal	t4,fffddff6 <_end+0xfffdb446>
    2a10:	deadbeef          	jal	t4,fffddffa <_end+0xfffdb44a>
    2a14:	deadbeef          	jal	t4,fffddffe <_end+0xfffdb44e>
    2a18:	deadbeef          	jal	t4,fffde002 <_end+0xfffdb452>
    2a1c:	deadbeef          	jal	t4,fffde006 <_end+0xfffdb456>
    2a20:	deadbeef          	jal	t4,fffde00a <_end+0xfffdb45a>
    2a24:	deadbeef          	jal	t4,fffde00e <_end+0xfffdb45e>
    2a28:	deadbeef          	jal	t4,fffde012 <_end+0xfffdb462>
    2a2c:	deadbeef          	jal	t4,fffde016 <_end+0xfffdb466>
    2a30:	deadbeef          	jal	t4,fffde01a <_end+0xfffdb46a>
    2a34:	deadbeef          	jal	t4,fffde01e <_end+0xfffdb46e>
    2a38:	deadbeef          	jal	t4,fffde022 <_end+0xfffdb472>
    2a3c:	deadbeef          	jal	t4,fffde026 <_end+0xfffdb476>
    2a40:	deadbeef          	jal	t4,fffde02a <_end+0xfffdb47a>
    2a44:	deadbeef          	jal	t4,fffde02e <_end+0xfffdb47e>
    2a48:	deadbeef          	jal	t4,fffde032 <_end+0xfffdb482>
    2a4c:	deadbeef          	jal	t4,fffde036 <_end+0xfffdb486>
    2a50:	deadbeef          	jal	t4,fffde03a <_end+0xfffdb48a>
    2a54:	deadbeef          	jal	t4,fffde03e <_end+0xfffdb48e>
    2a58:	deadbeef          	jal	t4,fffde042 <_end+0xfffdb492>
    2a5c:	deadbeef          	jal	t4,fffde046 <_end+0xfffdb496>
    2a60:	deadbeef          	jal	t4,fffde04a <_end+0xfffdb49a>
    2a64:	deadbeef          	jal	t4,fffde04e <_end+0xfffdb49e>
    2a68:	deadbeef          	jal	t4,fffde052 <_end+0xfffdb4a2>
    2a6c:	deadbeef          	jal	t4,fffde056 <_end+0xfffdb4a6>
    2a70:	deadbeef          	jal	t4,fffde05a <_end+0xfffdb4aa>
    2a74:	deadbeef          	jal	t4,fffde05e <_end+0xfffdb4ae>
    2a78:	deadbeef          	jal	t4,fffde062 <_end+0xfffdb4b2>
    2a7c:	deadbeef          	jal	t4,fffde066 <_end+0xfffdb4b6>
    2a80:	deadbeef          	jal	t4,fffde06a <_end+0xfffdb4ba>
    2a84:	deadbeef          	jal	t4,fffde06e <_end+0xfffdb4be>
    2a88:	deadbeef          	jal	t4,fffde072 <_end+0xfffdb4c2>
    2a8c:	deadbeef          	jal	t4,fffde076 <_end+0xfffdb4c6>
    2a90:	deadbeef          	jal	t4,fffde07a <_end+0xfffdb4ca>
    2a94:	deadbeef          	jal	t4,fffde07e <_end+0xfffdb4ce>
    2a98:	deadbeef          	jal	t4,fffde082 <_end+0xfffdb4d2>
    2a9c:	deadbeef          	jal	t4,fffde086 <_end+0xfffdb4d6>
    2aa0:	deadbeef          	jal	t4,fffde08a <_end+0xfffdb4da>
    2aa4:	deadbeef          	jal	t4,fffde08e <_end+0xfffdb4de>
    2aa8:	deadbeef          	jal	t4,fffde092 <_end+0xfffdb4e2>
    2aac:	deadbeef          	jal	t4,fffde096 <_end+0xfffdb4e6>
    2ab0:	deadbeef          	jal	t4,fffde09a <_end+0xfffdb4ea>
    2ab4:	deadbeef          	jal	t4,fffde09e <_end+0xfffdb4ee>
    2ab8:	deadbeef          	jal	t4,fffde0a2 <_end+0xfffdb4f2>
    2abc:	deadbeef          	jal	t4,fffde0a6 <_end+0xfffdb4f6>
    2ac0:	deadbeef          	jal	t4,fffde0aa <_end+0xfffdb4fa>
    2ac4:	deadbeef          	jal	t4,fffde0ae <_end+0xfffdb4fe>
    2ac8:	deadbeef          	jal	t4,fffde0b2 <_end+0xfffdb502>
    2acc:	deadbeef          	jal	t4,fffde0b6 <_end+0xfffdb506>
    2ad0:	deadbeef          	jal	t4,fffde0ba <_end+0xfffdb50a>
    2ad4:	deadbeef          	jal	t4,fffde0be <_end+0xfffdb50e>
    2ad8:	deadbeef          	jal	t4,fffde0c2 <_end+0xfffdb512>
    2adc:	deadbeef          	jal	t4,fffde0c6 <_end+0xfffdb516>
    2ae0:	deadbeef          	jal	t4,fffde0ca <_end+0xfffdb51a>
    2ae4:	deadbeef          	jal	t4,fffde0ce <_end+0xfffdb51e>
    2ae8:	deadbeef          	jal	t4,fffde0d2 <_end+0xfffdb522>
    2aec:	deadbeef          	jal	t4,fffde0d6 <_end+0xfffdb526>
    2af0:	deadbeef          	jal	t4,fffde0da <_end+0xfffdb52a>
    2af4:	deadbeef          	jal	t4,fffde0de <_end+0xfffdb52e>
    2af8:	deadbeef          	jal	t4,fffde0e2 <_end+0xfffdb532>
    2afc:	deadbeef          	jal	t4,fffde0e6 <_end+0xfffdb536>
    2b00:	deadbeef          	jal	t4,fffde0ea <_end+0xfffdb53a>
    2b04:	deadbeef          	jal	t4,fffde0ee <_end+0xfffdb53e>
    2b08:	deadbeef          	jal	t4,fffde0f2 <_end+0xfffdb542>
    2b0c:	deadbeef          	jal	t4,fffde0f6 <_end+0xfffdb546>
    2b10:	deadbeef          	jal	t4,fffde0fa <_end+0xfffdb54a>
    2b14:	deadbeef          	jal	t4,fffde0fe <_end+0xfffdb54e>
    2b18:	deadbeef          	jal	t4,fffde102 <_end+0xfffdb552>
    2b1c:	deadbeef          	jal	t4,fffde106 <_end+0xfffdb556>
    2b20:	deadbeef          	jal	t4,fffde10a <_end+0xfffdb55a>
    2b24:	deadbeef          	jal	t4,fffde10e <_end+0xfffdb55e>
    2b28:	deadbeef          	jal	t4,fffde112 <_end+0xfffdb562>
    2b2c:	deadbeef          	jal	t4,fffde116 <_end+0xfffdb566>
    2b30:	deadbeef          	jal	t4,fffde11a <_end+0xfffdb56a>
    2b34:	deadbeef          	jal	t4,fffde11e <_end+0xfffdb56e>
    2b38:	deadbeef          	jal	t4,fffde122 <_end+0xfffdb572>
    2b3c:	deadbeef          	jal	t4,fffde126 <_end+0xfffdb576>
    2b40:	deadbeef          	jal	t4,fffde12a <_end+0xfffdb57a>
    2b44:	deadbeef          	jal	t4,fffde12e <_end+0xfffdb57e>
    2b48:	deadbeef          	jal	t4,fffde132 <_end+0xfffdb582>
    2b4c:	deadbeef          	jal	t4,fffde136 <_end+0xfffdb586>
    2b50:	deadbeef          	jal	t4,fffde13a <_end+0xfffdb58a>
    2b54:	deadbeef          	jal	t4,fffde13e <_end+0xfffdb58e>
    2b58:	deadbeef          	jal	t4,fffde142 <_end+0xfffdb592>
    2b5c:	deadbeef          	jal	t4,fffde146 <_end+0xfffdb596>
    2b60:	deadbeef          	jal	t4,fffde14a <_end+0xfffdb59a>
    2b64:	deadbeef          	jal	t4,fffde14e <_end+0xfffdb59e>
    2b68:	deadbeef          	jal	t4,fffde152 <_end+0xfffdb5a2>
    2b6c:	deadbeef          	jal	t4,fffde156 <_end+0xfffdb5a6>
    2b70:	deadbeef          	jal	t4,fffde15a <_end+0xfffdb5aa>
    2b74:	deadbeef          	jal	t4,fffde15e <_end+0xfffdb5ae>
    2b78:	deadbeef          	jal	t4,fffde162 <_end+0xfffdb5b2>
    2b7c:	deadbeef          	jal	t4,fffde166 <_end+0xfffdb5b6>
    2b80:	deadbeef          	jal	t4,fffde16a <_end+0xfffdb5ba>
    2b84:	deadbeef          	jal	t4,fffde16e <_end+0xfffdb5be>
    2b88:	deadbeef          	jal	t4,fffde172 <_end+0xfffdb5c2>
    2b8c:	deadbeef          	jal	t4,fffde176 <_end+0xfffdb5c6>
    2b90:	deadbeef          	jal	t4,fffde17a <_end+0xfffdb5ca>
    2b94:	deadbeef          	jal	t4,fffde17e <_end+0xfffdb5ce>
    2b98:	deadbeef          	jal	t4,fffde182 <_end+0xfffdb5d2>
    2b9c:	deadbeef          	jal	t4,fffde186 <_end+0xfffdb5d6>
    2ba0:	deadbeef          	jal	t4,fffde18a <_end+0xfffdb5da>
    2ba4:	deadbeef          	jal	t4,fffde18e <_end+0xfffdb5de>
	...

Desensamblado de la sección .riscv.attributes:

00000000 <.riscv.attributes>:
   0:	2241                	.2byte	0x2241
   2:	0000                	.2byte	0x0
   4:	7200                	.2byte	0x7200
   6:	7369                	.2byte	0x7369
   8:	01007663          	bgeu	zero,a6,14 <rvtest_entry_point+0x14>
   c:	0018                	.2byte	0x18
   e:	0000                	.2byte	0x0
  10:	7205                	.2byte	0x7205
  12:	3376                	.2byte	0x3376
  14:	6932                	.2byte	0x6932
  16:	7032                	.2byte	0x7032
  18:	5f30                	.2byte	0x5f30
  1a:	3266                	.2byte	0x3266
  1c:	3070                	.2byte	0x3070
  1e:	0800                	.2byte	0x800
  20:	0a01                	.2byte	0xa01
  22:	0b              	Address 0x22 is out of bounds.

