
/home/alejandro/Escritorio/test_riscv2.5/riscv-compliance/work/rv32i_m/F/fsqrt_b9-01.elf:     formato del fichero elf32-littleriscv


Desensamblado de la sección .text.init:

00000000 <rvtest_entry_point>:
       0:	feedc0b7          	lui	ra,0xfeedc
       4:	ead08093          	add	ra,ra,-339 # feedbead <_end+0xfeed958d>
       8:	ff76e137          	lui	sp,0xff76e
       c:	f5610113          	add	sp,sp,-170 # ff76df56 <_end+0xff76b636>
      10:	7fbb71b7          	lui	gp,0x7fbb7
      14:	fab18193          	add	gp,gp,-85 # 7fbb6fab <_end+0x7fbb468b>
      18:	bfddb237          	lui	tp,0xbfddb
      1c:	7d520213          	add	tp,tp,2005 # bfddb7d5 <_end+0xbfdd8eb5>
      20:	00000297          	auipc	t0,0x0
      24:	0d828293          	add	t0,t0,216 # f8 <rvtest_code_begin>
      28:	00002317          	auipc	t1,0x2
      2c:	fd830313          	add	t1,t1,-40 # 2000 <rvtest_data_begin>
      30:	b7fbb3b7          	lui	t2,0xb7fbb
      34:	6fa38393          	add	t2,t2,1786 # b7fbb6fa <_end+0xb7fb8dda>
      38:	5bfde437          	lui	s0,0x5bfde
      3c:	b7d40413          	add	s0,s0,-1155 # 5bfddb7d <_end+0x5bfdb25d>
      40:	adfef4b7          	lui	s1,0xadfef
      44:	dbe48493          	add	s1,s1,-578 # adfeedbe <_end+0xadfec49e>
      48:	56ff7537          	lui	a0,0x56ff7
      4c:	6df50513          	add	a0,a0,1759 # 56ff76df <_end+0x56ff4dbf>
      50:	ab7fc5b7          	lui	a1,0xab7fc
      54:	b6f58593          	add	a1,a1,-1169 # ab7fbb6f <_end+0xab7f924f>
      58:	d5bfe637          	lui	a2,0xd5bfe
      5c:	db760613          	add	a2,a2,-585 # d5bfddb7 <_end+0xd5bfb497>
      60:	eadff6b7          	lui	a3,0xeadff
      64:	edb68693          	add	a3,a3,-293 # eadfeedb <_end+0xeadfc5bb>
      68:	f56ff737          	lui	a4,0xf56ff
      6c:	76d70713          	add	a4,a4,1901 # f56ff76d <_end+0xf56fce4d>
      70:	fab807b7          	lui	a5,0xfab80
      74:	bb678793          	add	a5,a5,-1098 # fab7fbb6 <_end+0xfab7d296>
      78:	7d5c0837          	lui	a6,0x7d5c0
      7c:	ddb80813          	add	a6,a6,-549 # 7d5bfddb <_end+0x7d5bd4bb>
      80:	beae08b7          	lui	a7,0xbeae0
      84:	eed88893          	add	a7,a7,-275 # beadfeed <_end+0xbeadd5cd>
      88:	df570937          	lui	s2,0xdf570
      8c:	f7690913          	add	s2,s2,-138 # df56ff76 <_end+0xdf56d656>
      90:	6fab89b7          	lui	s3,0x6fab8
      94:	fbb98993          	add	s3,s3,-69 # 6fab7fbb <_end+0x6fab569b>
      98:	b7d5ca37          	lui	s4,0xb7d5c
      9c:	fdda0a13          	add	s4,s4,-35 # b7d5bfdd <_end+0xb7d596bd>
      a0:	dbeaeab7          	lui	s5,0xdbeae
      a4:	feea8a93          	add	s5,s5,-18 # dbeadfee <_end+0xdbeab6ce>
      a8:	6df57b37          	lui	s6,0x6df57
      ac:	ff7b0b13          	add	s6,s6,-9 # 6df56ff7 <_end+0x6df546d7>
      b0:	b6fabbb7          	lui	s7,0xb6fab
      b4:	7fbb8b93          	add	s7,s7,2043 # b6fab7fb <_end+0xb6fa8edb>
      b8:	db7d6c37          	lui	s8,0xdb7d6
      bc:	bfdc0c13          	add	s8,s8,-1027 # db7d5bfd <_end+0xdb7d32dd>
      c0:	edbebcb7          	lui	s9,0xedbeb
      c4:	dfec8c93          	add	s9,s9,-514 # edbeadfe <_end+0xedbe84de>
      c8:	76df5d37          	lui	s10,0x76df5
      cc:	6ffd0d13          	add	s10,s10,1791 # 76df56ff <_end+0x76df2ddf>
      d0:	bb6fbdb7          	lui	s11,0xbb6fb
      d4:	b7fd8d93          	add	s11,s11,-1153 # bb6fab7f <_end+0xbb6f825f>
      d8:	ddb7de37          	lui	t3,0xddb7d
      dc:	5bfe0e13          	add	t3,t3,1471 # ddb7d5bf <_end+0xddb7ac9f>
      e0:	eedbfeb7          	lui	t4,0xeedbf
      e4:	adfe8e93          	add	t4,t4,-1313 # eedbeadf <_end+0xeedbc1bf>
      e8:	f76dff37          	lui	t5,0xf76df
      ec:	56ff0f13          	add	t5,t5,1391 # f76df56f <_end+0xf76dcc4f>
      f0:	fbb70fb7          	lui	t6,0xfbb70
      f4:	ab7f8f93          	add	t6,t6,-1353 # fbb6fab7 <_end+0xfbb6d197>

000000f8 <rvtest_code_begin>:
      f8:	00002537          	lui	a0,0x2
      fc:	30052073          	csrs	mstatus,a0
     100:	00002817          	auipc	a6,0x2
     104:	f0480813          	add	a6,a6,-252 # 2004 <test_fp>
     108:	00002797          	auipc	a5,0x2
     10c:	20878793          	add	a5,a5,520 # 2310 <data_begin>

00000110 <inst_0>:
     110:	00082a07          	flw	fs4,0(a6)
     114:	00205073          	fsrmi	zero,0
     118:	580a7a53          	fsqrt.s	fs4,fs4
     11c:	001028f3          	frflags	a7
     120:	0147a027          	fsw	fs4,0(a5)
     124:	0117a223          	sw	a7,4(a5)

00000128 <inst_1>:
     128:	00482807          	flw	fa6,4(a6)
     12c:	00205073          	fsrmi	zero,0
     130:	580873d3          	fsqrt.s	ft7,fa6
     134:	001028f3          	frflags	a7
     138:	0077a427          	fsw	ft7,8(a5)
     13c:	0117a623          	sw	a7,12(a5)

00000140 <inst_2>:
     140:	00882207          	flw	ft4,8(a6)
     144:	00205073          	fsrmi	zero,0
     148:	580271d3          	fsqrt.s	ft3,ft4
     14c:	001028f3          	frflags	a7
     150:	0037a827          	fsw	ft3,16(a5)
     154:	0117aa23          	sw	a7,20(a5)

00000158 <inst_3>:
     158:	00c82487          	flw	fs1,12(a6)
     15c:	00205073          	fsrmi	zero,0
     160:	5804fd53          	fsqrt.s	fs10,fs1
     164:	001028f3          	frflags	a7
     168:	01a7ac27          	fsw	fs10,24(a5)
     16c:	0117ae23          	sw	a7,28(a5)

00000170 <inst_4>:
     170:	01082307          	flw	ft6,16(a6)
     174:	00205073          	fsrmi	zero,0
     178:	580377d3          	fsqrt.s	fa5,ft6
     17c:	001028f3          	frflags	a7
     180:	02f7a027          	fsw	fa5,32(a5)
     184:	0317a223          	sw	a7,36(a5)

00000188 <inst_5>:
     188:	01482287          	flw	ft5,20(a6)
     18c:	00205073          	fsrmi	zero,0
     190:	5802fe53          	fsqrt.s	ft8,ft5
     194:	001028f3          	frflags	a7
     198:	03c7a427          	fsw	ft8,40(a5)
     19c:	0317a623          	sw	a7,44(a5)

000001a0 <inst_6>:
     1a0:	01882b87          	flw	fs7,24(a6)
     1a4:	00205073          	fsrmi	zero,0
     1a8:	580bfad3          	fsqrt.s	fs5,fs7
     1ac:	001028f3          	frflags	a7
     1b0:	0357a827          	fsw	fs5,48(a5)
     1b4:	0317aa23          	sw	a7,52(a5)

000001b8 <inst_7>:
     1b8:	01c82a87          	flw	fs5,28(a6)
     1bc:	00205073          	fsrmi	zero,0
     1c0:	580afcd3          	fsqrt.s	fs9,fs5
     1c4:	001028f3          	frflags	a7
     1c8:	0397ac27          	fsw	fs9,56(a5)
     1cc:	0317ae23          	sw	a7,60(a5)

000001d0 <inst_8>:
     1d0:	02082507          	flw	fa0,32(a6)
     1d4:	00205073          	fsrmi	zero,0
     1d8:	58057453          	fsqrt.s	fs0,fa0
     1dc:	001028f3          	frflags	a7
     1e0:	0487a027          	fsw	fs0,64(a5)
     1e4:	0517a223          	sw	a7,68(a5)

000001e8 <inst_9>:
     1e8:	02482107          	flw	ft2,36(a6)
     1ec:	00205073          	fsrmi	zero,0
     1f0:	580172d3          	fsqrt.s	ft5,ft2
     1f4:	001028f3          	frflags	a7
     1f8:	0457a427          	fsw	ft5,72(a5)
     1fc:	0517a623          	sw	a7,76(a5)

00000200 <inst_10>:
     200:	02882007          	flw	ft0,40(a6)
     204:	00205073          	fsrmi	zero,0
     208:	58007253          	fsqrt.s	ft4,ft0
     20c:	001028f3          	frflags	a7
     210:	0447a827          	fsw	ft4,80(a5)
     214:	0517aa23          	sw	a7,84(a5)

00000218 <inst_11>:
     218:	02c82b07          	flw	fs6,44(a6)
     21c:	00205073          	fsrmi	zero,0
     220:	580b7853          	fsqrt.s	fa6,fs6
     224:	001028f3          	frflags	a7
     228:	0507ac27          	fsw	fa6,88(a5)
     22c:	0517ae23          	sw	a7,92(a5)

00000230 <inst_12>:
     230:	03082987          	flw	fs3,48(a6)
     234:	00205073          	fsrmi	zero,0
     238:	5809fb53          	fsqrt.s	fs6,fs3
     23c:	001028f3          	frflags	a7
     240:	0767a027          	fsw	fs6,96(a5)
     244:	0717a223          	sw	a7,100(a5)

00000248 <inst_13>:
     248:	03482087          	flw	ft1,52(a6)
     24c:	00205073          	fsrmi	zero,0
     250:	5800f153          	fsqrt.s	ft2,ft1
     254:	001028f3          	frflags	a7
     258:	0627a427          	fsw	ft2,104(a5)
     25c:	0717a623          	sw	a7,108(a5)

00000260 <inst_14>:
     260:	03882787          	flw	fa5,56(a6)
     264:	00205073          	fsrmi	zero,0
     268:	5807f953          	fsqrt.s	fs2,fa5
     26c:	001028f3          	frflags	a7
     270:	0727a827          	fsw	fs2,112(a5)
     274:	0717aa23          	sw	a7,116(a5)

00000278 <inst_15>:
     278:	03c82407          	flw	fs0,60(a6)
     27c:	00205073          	fsrmi	zero,0
     280:	58047053          	fsqrt.s	ft0,fs0
     284:	001028f3          	frflags	a7
     288:	0607ac27          	fsw	ft0,120(a5)
     28c:	0717ae23          	sw	a7,124(a5)

00000290 <inst_16>:
     290:	04082707          	flw	fa4,64(a6)
     294:	00205073          	fsrmi	zero,0
     298:	58077553          	fsqrt.s	fa0,fa4
     29c:	001028f3          	frflags	a7
     2a0:	08a7a027          	fsw	fa0,128(a5)
     2a4:	0917a223          	sw	a7,132(a5)

000002a8 <inst_17>:
     2a8:	04482907          	flw	fs2,68(a6)
     2ac:	00205073          	fsrmi	zero,0
     2b0:	580975d3          	fsqrt.s	fa1,fs2
     2b4:	001028f3          	frflags	a7
     2b8:	08b7a427          	fsw	fa1,136(a5)
     2bc:	0917a623          	sw	a7,140(a5)

000002c0 <inst_18>:
     2c0:	04882607          	flw	fa2,72(a6)
     2c4:	00205073          	fsrmi	zero,0
     2c8:	58067ed3          	fsqrt.s	ft9,fa2
     2cc:	001028f3          	frflags	a7
     2d0:	09d7a827          	fsw	ft9,144(a5)
     2d4:	0917aa23          	sw	a7,148(a5)

000002d8 <inst_19>:
     2d8:	04c82d07          	flw	fs10,76(a6)
     2dc:	00205073          	fsrmi	zero,0
     2e0:	580d76d3          	fsqrt.s	fa3,fs10
     2e4:	001028f3          	frflags	a7
     2e8:	08d7ac27          	fsw	fa3,152(a5)
     2ec:	0917ae23          	sw	a7,156(a5)

000002f0 <inst_20>:
     2f0:	05082387          	flw	ft7,80(a6)
     2f4:	00205073          	fsrmi	zero,0
     2f8:	5803f9d3          	fsqrt.s	fs3,ft7
     2fc:	001028f3          	frflags	a7
     300:	0b37a027          	fsw	fs3,160(a5)
     304:	0b17a223          	sw	a7,164(a5)

00000308 <inst_21>:
     308:	05482187          	flw	ft3,84(a6)
     30c:	00205073          	fsrmi	zero,0
     310:	5801ff53          	fsqrt.s	ft10,ft3
     314:	001028f3          	frflags	a7
     318:	0be7a427          	fsw	ft10,168(a5)
     31c:	0b17a623          	sw	a7,172(a5)

00000320 <inst_22>:
     320:	05882587          	flw	fa1,88(a6)
     324:	00205073          	fsrmi	zero,0
     328:	5805f353          	fsqrt.s	ft6,fa1
     32c:	001028f3          	frflags	a7
     330:	0a67a827          	fsw	ft6,176(a5)
     334:	0b17aa23          	sw	a7,180(a5)

00000338 <inst_23>:
     338:	05c82f07          	flw	ft10,92(a6)
     33c:	00205073          	fsrmi	zero,0
     340:	580f74d3          	fsqrt.s	fs1,ft10
     344:	001028f3          	frflags	a7
     348:	0a97ac27          	fsw	fs1,184(a5)
     34c:	0b17ae23          	sw	a7,188(a5)

00000350 <inst_24>:
     350:	06082e07          	flw	ft8,96(a6)
     354:	00205073          	fsrmi	zero,0
     358:	580e7dd3          	fsqrt.s	fs11,ft8
     35c:	001028f3          	frflags	a7
     360:	0db7a027          	fsw	fs11,192(a5)
     364:	0d17a223          	sw	a7,196(a5)

00000368 <inst_25>:
     368:	06482887          	flw	fa7,100(a6)
     36c:	00205073          	fsrmi	zero,0
     370:	5808fbd3          	fsqrt.s	fs7,fa7
     374:	001028f3          	frflags	a7
     378:	0d77a427          	fsw	fs7,200(a5)
     37c:	0d17a623          	sw	a7,204(a5)

00000380 <inst_26>:
     380:	06882f87          	flw	ft11,104(a6)
     384:	00205073          	fsrmi	zero,0
     388:	580ff753          	fsqrt.s	fa4,ft11
     38c:	001028f3          	frflags	a7
     390:	0ce7a827          	fsw	fa4,208(a5)
     394:	0d17aa23          	sw	a7,212(a5)

00000398 <inst_27>:
     398:	06c82c87          	flw	fs9,108(a6)
     39c:	00205073          	fsrmi	zero,0
     3a0:	580cfc53          	fsqrt.s	fs8,fs9
     3a4:	001028f3          	frflags	a7
     3a8:	0d87ac27          	fsw	fs8,216(a5)
     3ac:	0d17ae23          	sw	a7,220(a5)

000003b0 <inst_28>:
     3b0:	07082c07          	flw	fs8,112(a6)
     3b4:	00205073          	fsrmi	zero,0
     3b8:	580c7653          	fsqrt.s	fa2,fs8
     3bc:	001028f3          	frflags	a7
     3c0:	0ec7a027          	fsw	fa2,224(a5)
     3c4:	0f17a223          	sw	a7,228(a5)

000003c8 <inst_29>:
     3c8:	07482d87          	flw	fs11,116(a6)
     3cc:	00205073          	fsrmi	zero,0
     3d0:	580dffd3          	fsqrt.s	ft11,fs11
     3d4:	001028f3          	frflags	a7
     3d8:	0ff7a427          	fsw	ft11,232(a5)
     3dc:	0f17a623          	sw	a7,236(a5)

000003e0 <inst_30>:
     3e0:	07882e87          	flw	ft9,120(a6)
     3e4:	00205073          	fsrmi	zero,0
     3e8:	580ef0d3          	fsqrt.s	ft1,ft9
     3ec:	001028f3          	frflags	a7
     3f0:	0e17a827          	fsw	ft1,240(a5)
     3f4:	0f17aa23          	sw	a7,244(a5)

000003f8 <inst_31>:
     3f8:	07c82687          	flw	fa3,124(a6)
     3fc:	00205073          	fsrmi	zero,0
     400:	5806f8d3          	fsqrt.s	fa7,fa3
     404:	001028f3          	frflags	a7
     408:	0f17ac27          	fsw	fa7,248(a5)
     40c:	0f17ae23          	sw	a7,252(a5)

00000410 <inst_32>:
     410:	08082507          	flw	fa0,128(a6)
     414:	00205073          	fsrmi	zero,0
     418:	580575d3          	fsqrt.s	fa1,fa0
     41c:	001028f3          	frflags	a7
     420:	10b7a027          	fsw	fa1,256(a5)
     424:	1117a223          	sw	a7,260(a5)

00000428 <inst_33>:
     428:	08482507          	flw	fa0,132(a6)
     42c:	00205073          	fsrmi	zero,0
     430:	580575d3          	fsqrt.s	fa1,fa0
     434:	001028f3          	frflags	a7
     438:	10b7a427          	fsw	fa1,264(a5)
     43c:	1117a623          	sw	a7,268(a5)

00000440 <inst_34>:
     440:	08882507          	flw	fa0,136(a6)
     444:	00205073          	fsrmi	zero,0
     448:	580575d3          	fsqrt.s	fa1,fa0
     44c:	001028f3          	frflags	a7
     450:	10b7a827          	fsw	fa1,272(a5)
     454:	1117aa23          	sw	a7,276(a5)

00000458 <inst_35>:
     458:	08c82507          	flw	fa0,140(a6)
     45c:	00205073          	fsrmi	zero,0
     460:	580575d3          	fsqrt.s	fa1,fa0
     464:	001028f3          	frflags	a7
     468:	10b7ac27          	fsw	fa1,280(a5)
     46c:	1117ae23          	sw	a7,284(a5)

00000470 <inst_36>:
     470:	09082507          	flw	fa0,144(a6)
     474:	00205073          	fsrmi	zero,0
     478:	580575d3          	fsqrt.s	fa1,fa0
     47c:	001028f3          	frflags	a7
     480:	12b7a027          	fsw	fa1,288(a5)
     484:	1317a223          	sw	a7,292(a5)

00000488 <inst_37>:
     488:	09482507          	flw	fa0,148(a6)
     48c:	00205073          	fsrmi	zero,0
     490:	580575d3          	fsqrt.s	fa1,fa0
     494:	001028f3          	frflags	a7
     498:	12b7a427          	fsw	fa1,296(a5)
     49c:	1317a623          	sw	a7,300(a5)

000004a0 <inst_38>:
     4a0:	09882507          	flw	fa0,152(a6)
     4a4:	00205073          	fsrmi	zero,0
     4a8:	580575d3          	fsqrt.s	fa1,fa0
     4ac:	001028f3          	frflags	a7
     4b0:	12b7a827          	fsw	fa1,304(a5)
     4b4:	1317aa23          	sw	a7,308(a5)

000004b8 <inst_39>:
     4b8:	09c82507          	flw	fa0,156(a6)
     4bc:	00205073          	fsrmi	zero,0
     4c0:	580575d3          	fsqrt.s	fa1,fa0
     4c4:	001028f3          	frflags	a7
     4c8:	12b7ac27          	fsw	fa1,312(a5)
     4cc:	1317ae23          	sw	a7,316(a5)

000004d0 <inst_40>:
     4d0:	0a082507          	flw	fa0,160(a6)
     4d4:	00205073          	fsrmi	zero,0
     4d8:	580575d3          	fsqrt.s	fa1,fa0
     4dc:	001028f3          	frflags	a7
     4e0:	14b7a027          	fsw	fa1,320(a5)
     4e4:	1517a223          	sw	a7,324(a5)

000004e8 <inst_41>:
     4e8:	0a482507          	flw	fa0,164(a6)
     4ec:	00205073          	fsrmi	zero,0
     4f0:	580575d3          	fsqrt.s	fa1,fa0
     4f4:	001028f3          	frflags	a7
     4f8:	14b7a427          	fsw	fa1,328(a5)
     4fc:	1517a623          	sw	a7,332(a5)

00000500 <inst_42>:
     500:	0a882507          	flw	fa0,168(a6)
     504:	00205073          	fsrmi	zero,0
     508:	580575d3          	fsqrt.s	fa1,fa0
     50c:	001028f3          	frflags	a7
     510:	14b7a827          	fsw	fa1,336(a5)
     514:	1517aa23          	sw	a7,340(a5)

00000518 <inst_43>:
     518:	0ac82507          	flw	fa0,172(a6)
     51c:	00205073          	fsrmi	zero,0
     520:	580575d3          	fsqrt.s	fa1,fa0
     524:	001028f3          	frflags	a7
     528:	14b7ac27          	fsw	fa1,344(a5)
     52c:	1517ae23          	sw	a7,348(a5)

00000530 <inst_44>:
     530:	0b082507          	flw	fa0,176(a6)
     534:	00205073          	fsrmi	zero,0
     538:	580575d3          	fsqrt.s	fa1,fa0
     53c:	001028f3          	frflags	a7
     540:	16b7a027          	fsw	fa1,352(a5)
     544:	1717a223          	sw	a7,356(a5)

00000548 <inst_45>:
     548:	0b482507          	flw	fa0,180(a6)
     54c:	00205073          	fsrmi	zero,0
     550:	580575d3          	fsqrt.s	fa1,fa0
     554:	001028f3          	frflags	a7
     558:	16b7a427          	fsw	fa1,360(a5)
     55c:	1717a623          	sw	a7,364(a5)

00000560 <inst_46>:
     560:	0b882507          	flw	fa0,184(a6)
     564:	00205073          	fsrmi	zero,0
     568:	580575d3          	fsqrt.s	fa1,fa0
     56c:	001028f3          	frflags	a7
     570:	16b7a827          	fsw	fa1,368(a5)
     574:	1717aa23          	sw	a7,372(a5)

00000578 <inst_47>:
     578:	0bc82507          	flw	fa0,188(a6)
     57c:	00205073          	fsrmi	zero,0
     580:	580575d3          	fsqrt.s	fa1,fa0
     584:	001028f3          	frflags	a7
     588:	16b7ac27          	fsw	fa1,376(a5)
     58c:	1717ae23          	sw	a7,380(a5)

00000590 <inst_48>:
     590:	0c082507          	flw	fa0,192(a6)
     594:	00205073          	fsrmi	zero,0
     598:	580575d3          	fsqrt.s	fa1,fa0
     59c:	001028f3          	frflags	a7
     5a0:	18b7a027          	fsw	fa1,384(a5)
     5a4:	1917a223          	sw	a7,388(a5)

000005a8 <inst_49>:
     5a8:	0c482507          	flw	fa0,196(a6)
     5ac:	00205073          	fsrmi	zero,0
     5b0:	580575d3          	fsqrt.s	fa1,fa0
     5b4:	001028f3          	frflags	a7
     5b8:	18b7a427          	fsw	fa1,392(a5)
     5bc:	1917a623          	sw	a7,396(a5)

000005c0 <inst_50>:
     5c0:	0c882507          	flw	fa0,200(a6)
     5c4:	00205073          	fsrmi	zero,0
     5c8:	580575d3          	fsqrt.s	fa1,fa0
     5cc:	001028f3          	frflags	a7
     5d0:	18b7a827          	fsw	fa1,400(a5)
     5d4:	1917aa23          	sw	a7,404(a5)

000005d8 <inst_51>:
     5d8:	0cc82507          	flw	fa0,204(a6)
     5dc:	00205073          	fsrmi	zero,0
     5e0:	580575d3          	fsqrt.s	fa1,fa0
     5e4:	001028f3          	frflags	a7
     5e8:	18b7ac27          	fsw	fa1,408(a5)
     5ec:	1917ae23          	sw	a7,412(a5)

000005f0 <inst_52>:
     5f0:	0d082507          	flw	fa0,208(a6)
     5f4:	00205073          	fsrmi	zero,0
     5f8:	580575d3          	fsqrt.s	fa1,fa0
     5fc:	001028f3          	frflags	a7
     600:	1ab7a027          	fsw	fa1,416(a5)
     604:	1b17a223          	sw	a7,420(a5)

00000608 <inst_53>:
     608:	0d482507          	flw	fa0,212(a6)
     60c:	00205073          	fsrmi	zero,0
     610:	580575d3          	fsqrt.s	fa1,fa0
     614:	001028f3          	frflags	a7
     618:	1ab7a427          	fsw	fa1,424(a5)
     61c:	1b17a623          	sw	a7,428(a5)

00000620 <inst_54>:
     620:	0d882507          	flw	fa0,216(a6)
     624:	00205073          	fsrmi	zero,0
     628:	580575d3          	fsqrt.s	fa1,fa0
     62c:	001028f3          	frflags	a7
     630:	1ab7a827          	fsw	fa1,432(a5)
     634:	1b17aa23          	sw	a7,436(a5)

00000638 <inst_55>:
     638:	0dc82507          	flw	fa0,220(a6)
     63c:	00205073          	fsrmi	zero,0
     640:	580575d3          	fsqrt.s	fa1,fa0
     644:	001028f3          	frflags	a7
     648:	1ab7ac27          	fsw	fa1,440(a5)
     64c:	1b17ae23          	sw	a7,444(a5)

00000650 <inst_56>:
     650:	0e082507          	flw	fa0,224(a6)
     654:	00205073          	fsrmi	zero,0
     658:	580575d3          	fsqrt.s	fa1,fa0
     65c:	001028f3          	frflags	a7
     660:	1cb7a027          	fsw	fa1,448(a5)
     664:	1d17a223          	sw	a7,452(a5)

00000668 <inst_57>:
     668:	0e482507          	flw	fa0,228(a6)
     66c:	00205073          	fsrmi	zero,0
     670:	580575d3          	fsqrt.s	fa1,fa0
     674:	001028f3          	frflags	a7
     678:	1cb7a427          	fsw	fa1,456(a5)
     67c:	1d17a623          	sw	a7,460(a5)

00000680 <inst_58>:
     680:	0e882507          	flw	fa0,232(a6)
     684:	00205073          	fsrmi	zero,0
     688:	580575d3          	fsqrt.s	fa1,fa0
     68c:	001028f3          	frflags	a7
     690:	1cb7a827          	fsw	fa1,464(a5)
     694:	1d17aa23          	sw	a7,468(a5)

00000698 <inst_59>:
     698:	0ec82507          	flw	fa0,236(a6)
     69c:	00205073          	fsrmi	zero,0
     6a0:	580575d3          	fsqrt.s	fa1,fa0
     6a4:	001028f3          	frflags	a7
     6a8:	1cb7ac27          	fsw	fa1,472(a5)
     6ac:	1d17ae23          	sw	a7,476(a5)

000006b0 <inst_60>:
     6b0:	0f082507          	flw	fa0,240(a6)
     6b4:	00205073          	fsrmi	zero,0
     6b8:	580575d3          	fsqrt.s	fa1,fa0
     6bc:	001028f3          	frflags	a7
     6c0:	1eb7a027          	fsw	fa1,480(a5)
     6c4:	1f17a223          	sw	a7,484(a5)

000006c8 <inst_61>:
     6c8:	0f482507          	flw	fa0,244(a6)
     6cc:	00205073          	fsrmi	zero,0
     6d0:	580575d3          	fsqrt.s	fa1,fa0
     6d4:	001028f3          	frflags	a7
     6d8:	1eb7a427          	fsw	fa1,488(a5)
     6dc:	1f17a623          	sw	a7,492(a5)

000006e0 <inst_62>:
     6e0:	0f882507          	flw	fa0,248(a6)
     6e4:	00205073          	fsrmi	zero,0
     6e8:	580575d3          	fsqrt.s	fa1,fa0
     6ec:	001028f3          	frflags	a7
     6f0:	1eb7a827          	fsw	fa1,496(a5)
     6f4:	1f17aa23          	sw	a7,500(a5)

000006f8 <inst_63>:
     6f8:	0fc82507          	flw	fa0,252(a6)
     6fc:	00205073          	fsrmi	zero,0
     700:	580575d3          	fsqrt.s	fa1,fa0
     704:	001028f3          	frflags	a7
     708:	1eb7ac27          	fsw	fa1,504(a5)
     70c:	1f17ae23          	sw	a7,508(a5)

00000710 <inst_64>:
     710:	10082507          	flw	fa0,256(a6)
     714:	00205073          	fsrmi	zero,0
     718:	580575d3          	fsqrt.s	fa1,fa0
     71c:	001028f3          	frflags	a7
     720:	20b7a027          	fsw	fa1,512(a5)
     724:	2117a223          	sw	a7,516(a5)

00000728 <inst_65>:
     728:	10482507          	flw	fa0,260(a6)
     72c:	00205073          	fsrmi	zero,0
     730:	580575d3          	fsqrt.s	fa1,fa0
     734:	001028f3          	frflags	a7
     738:	20b7a427          	fsw	fa1,520(a5)
     73c:	2117a623          	sw	a7,524(a5)

00000740 <inst_66>:
     740:	10882507          	flw	fa0,264(a6)
     744:	00205073          	fsrmi	zero,0
     748:	580575d3          	fsqrt.s	fa1,fa0
     74c:	001028f3          	frflags	a7
     750:	20b7a827          	fsw	fa1,528(a5)
     754:	2117aa23          	sw	a7,532(a5)

00000758 <inst_67>:
     758:	10c82507          	flw	fa0,268(a6)
     75c:	00205073          	fsrmi	zero,0
     760:	580575d3          	fsqrt.s	fa1,fa0
     764:	001028f3          	frflags	a7
     768:	20b7ac27          	fsw	fa1,536(a5)
     76c:	2117ae23          	sw	a7,540(a5)

00000770 <inst_68>:
     770:	11082507          	flw	fa0,272(a6)
     774:	00205073          	fsrmi	zero,0
     778:	580575d3          	fsqrt.s	fa1,fa0
     77c:	001028f3          	frflags	a7
     780:	22b7a027          	fsw	fa1,544(a5)
     784:	2317a223          	sw	a7,548(a5)

00000788 <inst_69>:
     788:	11482507          	flw	fa0,276(a6)
     78c:	00205073          	fsrmi	zero,0
     790:	580575d3          	fsqrt.s	fa1,fa0
     794:	001028f3          	frflags	a7
     798:	22b7a427          	fsw	fa1,552(a5)
     79c:	2317a623          	sw	a7,556(a5)

000007a0 <inst_70>:
     7a0:	11882507          	flw	fa0,280(a6)
     7a4:	00205073          	fsrmi	zero,0
     7a8:	580575d3          	fsqrt.s	fa1,fa0
     7ac:	001028f3          	frflags	a7
     7b0:	22b7a827          	fsw	fa1,560(a5)
     7b4:	2317aa23          	sw	a7,564(a5)

000007b8 <inst_71>:
     7b8:	11c82507          	flw	fa0,284(a6)
     7bc:	00205073          	fsrmi	zero,0
     7c0:	580575d3          	fsqrt.s	fa1,fa0
     7c4:	001028f3          	frflags	a7
     7c8:	22b7ac27          	fsw	fa1,568(a5)
     7cc:	2317ae23          	sw	a7,572(a5)

000007d0 <inst_72>:
     7d0:	12082507          	flw	fa0,288(a6)
     7d4:	00205073          	fsrmi	zero,0
     7d8:	580575d3          	fsqrt.s	fa1,fa0
     7dc:	001028f3          	frflags	a7
     7e0:	24b7a027          	fsw	fa1,576(a5)
     7e4:	2517a223          	sw	a7,580(a5)

000007e8 <inst_73>:
     7e8:	12482507          	flw	fa0,292(a6)
     7ec:	00205073          	fsrmi	zero,0
     7f0:	580575d3          	fsqrt.s	fa1,fa0
     7f4:	001028f3          	frflags	a7
     7f8:	24b7a427          	fsw	fa1,584(a5)
     7fc:	2517a623          	sw	a7,588(a5)

00000800 <inst_74>:
     800:	12882507          	flw	fa0,296(a6)
     804:	00205073          	fsrmi	zero,0
     808:	580575d3          	fsqrt.s	fa1,fa0
     80c:	001028f3          	frflags	a7
     810:	24b7a827          	fsw	fa1,592(a5)
     814:	2517aa23          	sw	a7,596(a5)

00000818 <inst_75>:
     818:	12c82507          	flw	fa0,300(a6)
     81c:	00205073          	fsrmi	zero,0
     820:	580575d3          	fsqrt.s	fa1,fa0
     824:	001028f3          	frflags	a7
     828:	24b7ac27          	fsw	fa1,600(a5)
     82c:	2517ae23          	sw	a7,604(a5)

00000830 <inst_76>:
     830:	13082507          	flw	fa0,304(a6)
     834:	00205073          	fsrmi	zero,0
     838:	580575d3          	fsqrt.s	fa1,fa0
     83c:	001028f3          	frflags	a7
     840:	26b7a027          	fsw	fa1,608(a5)
     844:	2717a223          	sw	a7,612(a5)

00000848 <inst_77>:
     848:	13482507          	flw	fa0,308(a6)
     84c:	00205073          	fsrmi	zero,0
     850:	580575d3          	fsqrt.s	fa1,fa0
     854:	001028f3          	frflags	a7
     858:	26b7a427          	fsw	fa1,616(a5)
     85c:	2717a623          	sw	a7,620(a5)

00000860 <inst_78>:
     860:	13882507          	flw	fa0,312(a6)
     864:	00205073          	fsrmi	zero,0
     868:	580575d3          	fsqrt.s	fa1,fa0
     86c:	001028f3          	frflags	a7
     870:	26b7a827          	fsw	fa1,624(a5)
     874:	2717aa23          	sw	a7,628(a5)

00000878 <inst_79>:
     878:	13c82507          	flw	fa0,316(a6)
     87c:	00205073          	fsrmi	zero,0
     880:	580575d3          	fsqrt.s	fa1,fa0
     884:	001028f3          	frflags	a7
     888:	26b7ac27          	fsw	fa1,632(a5)
     88c:	2717ae23          	sw	a7,636(a5)

00000890 <inst_80>:
     890:	14082507          	flw	fa0,320(a6)
     894:	00205073          	fsrmi	zero,0
     898:	580575d3          	fsqrt.s	fa1,fa0
     89c:	001028f3          	frflags	a7
     8a0:	28b7a027          	fsw	fa1,640(a5)
     8a4:	2917a223          	sw	a7,644(a5)

000008a8 <inst_81>:
     8a8:	14482507          	flw	fa0,324(a6)
     8ac:	00205073          	fsrmi	zero,0
     8b0:	580575d3          	fsqrt.s	fa1,fa0
     8b4:	001028f3          	frflags	a7
     8b8:	28b7a427          	fsw	fa1,648(a5)
     8bc:	2917a623          	sw	a7,652(a5)

000008c0 <inst_82>:
     8c0:	14882507          	flw	fa0,328(a6)
     8c4:	00205073          	fsrmi	zero,0
     8c8:	580575d3          	fsqrt.s	fa1,fa0
     8cc:	001028f3          	frflags	a7
     8d0:	28b7a827          	fsw	fa1,656(a5)
     8d4:	2917aa23          	sw	a7,660(a5)

000008d8 <inst_83>:
     8d8:	14c82507          	flw	fa0,332(a6)
     8dc:	00205073          	fsrmi	zero,0
     8e0:	580575d3          	fsqrt.s	fa1,fa0
     8e4:	001028f3          	frflags	a7
     8e8:	28b7ac27          	fsw	fa1,664(a5)
     8ec:	2917ae23          	sw	a7,668(a5)

000008f0 <inst_84>:
     8f0:	15082507          	flw	fa0,336(a6)
     8f4:	00205073          	fsrmi	zero,0
     8f8:	580575d3          	fsqrt.s	fa1,fa0
     8fc:	001028f3          	frflags	a7
     900:	2ab7a027          	fsw	fa1,672(a5)
     904:	2b17a223          	sw	a7,676(a5)

00000908 <inst_85>:
     908:	15482507          	flw	fa0,340(a6)
     90c:	00205073          	fsrmi	zero,0
     910:	580575d3          	fsqrt.s	fa1,fa0
     914:	001028f3          	frflags	a7
     918:	2ab7a427          	fsw	fa1,680(a5)
     91c:	2b17a623          	sw	a7,684(a5)

00000920 <inst_86>:
     920:	15882507          	flw	fa0,344(a6)
     924:	00205073          	fsrmi	zero,0
     928:	580575d3          	fsqrt.s	fa1,fa0
     92c:	001028f3          	frflags	a7
     930:	2ab7a827          	fsw	fa1,688(a5)
     934:	2b17aa23          	sw	a7,692(a5)

00000938 <inst_87>:
     938:	15c82507          	flw	fa0,348(a6)
     93c:	00205073          	fsrmi	zero,0
     940:	580575d3          	fsqrt.s	fa1,fa0
     944:	001028f3          	frflags	a7
     948:	2ab7ac27          	fsw	fa1,696(a5)
     94c:	2b17ae23          	sw	a7,700(a5)

00000950 <inst_88>:
     950:	16082507          	flw	fa0,352(a6)
     954:	00205073          	fsrmi	zero,0
     958:	580575d3          	fsqrt.s	fa1,fa0
     95c:	001028f3          	frflags	a7
     960:	2cb7a027          	fsw	fa1,704(a5)
     964:	2d17a223          	sw	a7,708(a5)

00000968 <inst_89>:
     968:	16482507          	flw	fa0,356(a6)
     96c:	00205073          	fsrmi	zero,0
     970:	580575d3          	fsqrt.s	fa1,fa0
     974:	001028f3          	frflags	a7
     978:	2cb7a427          	fsw	fa1,712(a5)
     97c:	2d17a623          	sw	a7,716(a5)

00000980 <inst_90>:
     980:	16882507          	flw	fa0,360(a6)
     984:	00205073          	fsrmi	zero,0
     988:	580575d3          	fsqrt.s	fa1,fa0
     98c:	001028f3          	frflags	a7
     990:	2cb7a827          	fsw	fa1,720(a5)
     994:	2d17aa23          	sw	a7,724(a5)

00000998 <inst_91>:
     998:	16c82507          	flw	fa0,364(a6)
     99c:	00205073          	fsrmi	zero,0
     9a0:	580575d3          	fsqrt.s	fa1,fa0
     9a4:	001028f3          	frflags	a7
     9a8:	2cb7ac27          	fsw	fa1,728(a5)
     9ac:	2d17ae23          	sw	a7,732(a5)

000009b0 <inst_92>:
     9b0:	17082507          	flw	fa0,368(a6)
     9b4:	00205073          	fsrmi	zero,0
     9b8:	580575d3          	fsqrt.s	fa1,fa0
     9bc:	001028f3          	frflags	a7
     9c0:	2eb7a027          	fsw	fa1,736(a5)
     9c4:	2f17a223          	sw	a7,740(a5)

000009c8 <inst_93>:
     9c8:	17482507          	flw	fa0,372(a6)
     9cc:	00205073          	fsrmi	zero,0
     9d0:	580575d3          	fsqrt.s	fa1,fa0
     9d4:	001028f3          	frflags	a7
     9d8:	2eb7a427          	fsw	fa1,744(a5)
     9dc:	2f17a623          	sw	a7,748(a5)

000009e0 <inst_94>:
     9e0:	17882507          	flw	fa0,376(a6)
     9e4:	00205073          	fsrmi	zero,0
     9e8:	580575d3          	fsqrt.s	fa1,fa0
     9ec:	001028f3          	frflags	a7
     9f0:	2eb7a827          	fsw	fa1,752(a5)
     9f4:	2f17aa23          	sw	a7,756(a5)

000009f8 <inst_95>:
     9f8:	17c82507          	flw	fa0,380(a6)
     9fc:	00205073          	fsrmi	zero,0
     a00:	580575d3          	fsqrt.s	fa1,fa0
     a04:	001028f3          	frflags	a7
     a08:	2eb7ac27          	fsw	fa1,760(a5)
     a0c:	2f17ae23          	sw	a7,764(a5)

00000a10 <inst_96>:
     a10:	18082507          	flw	fa0,384(a6)
     a14:	00205073          	fsrmi	zero,0
     a18:	580575d3          	fsqrt.s	fa1,fa0
     a1c:	001028f3          	frflags	a7
     a20:	30b7a027          	fsw	fa1,768(a5)
     a24:	3117a223          	sw	a7,772(a5)

00000a28 <inst_97>:
     a28:	18482507          	flw	fa0,388(a6)
     a2c:	00205073          	fsrmi	zero,0
     a30:	580575d3          	fsqrt.s	fa1,fa0
     a34:	001028f3          	frflags	a7
     a38:	30b7a427          	fsw	fa1,776(a5)
     a3c:	3117a623          	sw	a7,780(a5)

00000a40 <inst_98>:
     a40:	18882507          	flw	fa0,392(a6)
     a44:	00205073          	fsrmi	zero,0
     a48:	580575d3          	fsqrt.s	fa1,fa0
     a4c:	001028f3          	frflags	a7
     a50:	30b7a827          	fsw	fa1,784(a5)
     a54:	3117aa23          	sw	a7,788(a5)

00000a58 <inst_99>:
     a58:	18c82507          	flw	fa0,396(a6)
     a5c:	00205073          	fsrmi	zero,0
     a60:	580575d3          	fsqrt.s	fa1,fa0
     a64:	001028f3          	frflags	a7
     a68:	30b7ac27          	fsw	fa1,792(a5)
     a6c:	3117ae23          	sw	a7,796(a5)

00000a70 <inst_100>:
     a70:	19082507          	flw	fa0,400(a6)
     a74:	00205073          	fsrmi	zero,0
     a78:	580575d3          	fsqrt.s	fa1,fa0
     a7c:	001028f3          	frflags	a7
     a80:	32b7a027          	fsw	fa1,800(a5)
     a84:	3317a223          	sw	a7,804(a5)

00000a88 <inst_101>:
     a88:	19482507          	flw	fa0,404(a6)
     a8c:	00205073          	fsrmi	zero,0
     a90:	580575d3          	fsqrt.s	fa1,fa0
     a94:	001028f3          	frflags	a7
     a98:	32b7a427          	fsw	fa1,808(a5)
     a9c:	3317a623          	sw	a7,812(a5)

00000aa0 <inst_102>:
     aa0:	19882507          	flw	fa0,408(a6)
     aa4:	00205073          	fsrmi	zero,0
     aa8:	580575d3          	fsqrt.s	fa1,fa0
     aac:	001028f3          	frflags	a7
     ab0:	32b7a827          	fsw	fa1,816(a5)
     ab4:	3317aa23          	sw	a7,820(a5)

00000ab8 <inst_103>:
     ab8:	19c82507          	flw	fa0,412(a6)
     abc:	00205073          	fsrmi	zero,0
     ac0:	580575d3          	fsqrt.s	fa1,fa0
     ac4:	001028f3          	frflags	a7
     ac8:	32b7ac27          	fsw	fa1,824(a5)
     acc:	3317ae23          	sw	a7,828(a5)

00000ad0 <inst_104>:
     ad0:	1a082507          	flw	fa0,416(a6)
     ad4:	00205073          	fsrmi	zero,0
     ad8:	580575d3          	fsqrt.s	fa1,fa0
     adc:	001028f3          	frflags	a7
     ae0:	34b7a027          	fsw	fa1,832(a5)
     ae4:	3517a223          	sw	a7,836(a5)

00000ae8 <inst_105>:
     ae8:	1a482507          	flw	fa0,420(a6)
     aec:	00205073          	fsrmi	zero,0
     af0:	580575d3          	fsqrt.s	fa1,fa0
     af4:	001028f3          	frflags	a7
     af8:	34b7a427          	fsw	fa1,840(a5)
     afc:	3517a623          	sw	a7,844(a5)

00000b00 <inst_106>:
     b00:	1a882507          	flw	fa0,424(a6)
     b04:	00205073          	fsrmi	zero,0
     b08:	580575d3          	fsqrt.s	fa1,fa0
     b0c:	001028f3          	frflags	a7
     b10:	34b7a827          	fsw	fa1,848(a5)
     b14:	3517aa23          	sw	a7,852(a5)

00000b18 <inst_107>:
     b18:	1ac82507          	flw	fa0,428(a6)
     b1c:	00205073          	fsrmi	zero,0
     b20:	580575d3          	fsqrt.s	fa1,fa0
     b24:	001028f3          	frflags	a7
     b28:	34b7ac27          	fsw	fa1,856(a5)
     b2c:	3517ae23          	sw	a7,860(a5)

00000b30 <inst_108>:
     b30:	1b082507          	flw	fa0,432(a6)
     b34:	00205073          	fsrmi	zero,0
     b38:	580575d3          	fsqrt.s	fa1,fa0
     b3c:	001028f3          	frflags	a7
     b40:	36b7a027          	fsw	fa1,864(a5)
     b44:	3717a223          	sw	a7,868(a5)

00000b48 <inst_109>:
     b48:	1b482507          	flw	fa0,436(a6)
     b4c:	00205073          	fsrmi	zero,0
     b50:	580575d3          	fsqrt.s	fa1,fa0
     b54:	001028f3          	frflags	a7
     b58:	36b7a427          	fsw	fa1,872(a5)
     b5c:	3717a623          	sw	a7,876(a5)

00000b60 <inst_110>:
     b60:	1b882507          	flw	fa0,440(a6)
     b64:	00205073          	fsrmi	zero,0
     b68:	580575d3          	fsqrt.s	fa1,fa0
     b6c:	001028f3          	frflags	a7
     b70:	36b7a827          	fsw	fa1,880(a5)
     b74:	3717aa23          	sw	a7,884(a5)

00000b78 <inst_111>:
     b78:	1bc82507          	flw	fa0,444(a6)
     b7c:	00205073          	fsrmi	zero,0
     b80:	580575d3          	fsqrt.s	fa1,fa0
     b84:	001028f3          	frflags	a7
     b88:	36b7ac27          	fsw	fa1,888(a5)
     b8c:	3717ae23          	sw	a7,892(a5)

00000b90 <inst_112>:
     b90:	1c082507          	flw	fa0,448(a6)
     b94:	00205073          	fsrmi	zero,0
     b98:	580575d3          	fsqrt.s	fa1,fa0
     b9c:	001028f3          	frflags	a7
     ba0:	38b7a027          	fsw	fa1,896(a5)
     ba4:	3917a223          	sw	a7,900(a5)

00000ba8 <inst_113>:
     ba8:	1c482507          	flw	fa0,452(a6)
     bac:	00205073          	fsrmi	zero,0
     bb0:	580575d3          	fsqrt.s	fa1,fa0
     bb4:	001028f3          	frflags	a7
     bb8:	38b7a427          	fsw	fa1,904(a5)
     bbc:	3917a623          	sw	a7,908(a5)

00000bc0 <inst_114>:
     bc0:	1c882507          	flw	fa0,456(a6)
     bc4:	00205073          	fsrmi	zero,0
     bc8:	580575d3          	fsqrt.s	fa1,fa0
     bcc:	001028f3          	frflags	a7
     bd0:	38b7a827          	fsw	fa1,912(a5)
     bd4:	3917aa23          	sw	a7,916(a5)

00000bd8 <inst_115>:
     bd8:	1cc82507          	flw	fa0,460(a6)
     bdc:	00205073          	fsrmi	zero,0
     be0:	580575d3          	fsqrt.s	fa1,fa0
     be4:	001028f3          	frflags	a7
     be8:	38b7ac27          	fsw	fa1,920(a5)
     bec:	3917ae23          	sw	a7,924(a5)

00000bf0 <inst_116>:
     bf0:	1d082507          	flw	fa0,464(a6)
     bf4:	00205073          	fsrmi	zero,0
     bf8:	580575d3          	fsqrt.s	fa1,fa0
     bfc:	001028f3          	frflags	a7
     c00:	3ab7a027          	fsw	fa1,928(a5)
     c04:	3b17a223          	sw	a7,932(a5)

00000c08 <inst_117>:
     c08:	1d482507          	flw	fa0,468(a6)
     c0c:	00205073          	fsrmi	zero,0
     c10:	580575d3          	fsqrt.s	fa1,fa0
     c14:	001028f3          	frflags	a7
     c18:	3ab7a427          	fsw	fa1,936(a5)
     c1c:	3b17a623          	sw	a7,940(a5)

00000c20 <inst_118>:
     c20:	1d882507          	flw	fa0,472(a6)
     c24:	00205073          	fsrmi	zero,0
     c28:	580575d3          	fsqrt.s	fa1,fa0
     c2c:	001028f3          	frflags	a7
     c30:	3ab7a827          	fsw	fa1,944(a5)
     c34:	3b17aa23          	sw	a7,948(a5)

00000c38 <inst_119>:
     c38:	1dc82507          	flw	fa0,476(a6)
     c3c:	00205073          	fsrmi	zero,0
     c40:	580575d3          	fsqrt.s	fa1,fa0
     c44:	001028f3          	frflags	a7
     c48:	3ab7ac27          	fsw	fa1,952(a5)
     c4c:	3b17ae23          	sw	a7,956(a5)

00000c50 <inst_120>:
     c50:	1e082507          	flw	fa0,480(a6)
     c54:	00205073          	fsrmi	zero,0
     c58:	580575d3          	fsqrt.s	fa1,fa0
     c5c:	001028f3          	frflags	a7
     c60:	3cb7a027          	fsw	fa1,960(a5)
     c64:	3d17a223          	sw	a7,964(a5)

00000c68 <inst_121>:
     c68:	1e482507          	flw	fa0,484(a6)
     c6c:	00205073          	fsrmi	zero,0
     c70:	580575d3          	fsqrt.s	fa1,fa0
     c74:	001028f3          	frflags	a7
     c78:	3cb7a427          	fsw	fa1,968(a5)
     c7c:	3d17a623          	sw	a7,972(a5)

00000c80 <inst_122>:
     c80:	1e882507          	flw	fa0,488(a6)
     c84:	00205073          	fsrmi	zero,0
     c88:	580575d3          	fsqrt.s	fa1,fa0
     c8c:	001028f3          	frflags	a7
     c90:	3cb7a827          	fsw	fa1,976(a5)
     c94:	3d17aa23          	sw	a7,980(a5)

00000c98 <inst_123>:
     c98:	1ec82507          	flw	fa0,492(a6)
     c9c:	00205073          	fsrmi	zero,0
     ca0:	580575d3          	fsqrt.s	fa1,fa0
     ca4:	001028f3          	frflags	a7
     ca8:	3cb7ac27          	fsw	fa1,984(a5)
     cac:	3d17ae23          	sw	a7,988(a5)

00000cb0 <inst_124>:
     cb0:	1f082507          	flw	fa0,496(a6)
     cb4:	00205073          	fsrmi	zero,0
     cb8:	580575d3          	fsqrt.s	fa1,fa0
     cbc:	001028f3          	frflags	a7
     cc0:	3eb7a027          	fsw	fa1,992(a5)
     cc4:	3f17a223          	sw	a7,996(a5)

00000cc8 <inst_125>:
     cc8:	1f482507          	flw	fa0,500(a6)
     ccc:	00205073          	fsrmi	zero,0
     cd0:	580575d3          	fsqrt.s	fa1,fa0
     cd4:	001028f3          	frflags	a7
     cd8:	3eb7a427          	fsw	fa1,1000(a5)
     cdc:	3f17a623          	sw	a7,1004(a5)

00000ce0 <inst_126>:
     ce0:	1f882507          	flw	fa0,504(a6)
     ce4:	00205073          	fsrmi	zero,0
     ce8:	580575d3          	fsqrt.s	fa1,fa0
     cec:	001028f3          	frflags	a7
     cf0:	3eb7a827          	fsw	fa1,1008(a5)
     cf4:	3f17aa23          	sw	a7,1012(a5)

00000cf8 <inst_127>:
     cf8:	1fc82507          	flw	fa0,508(a6)
     cfc:	00205073          	fsrmi	zero,0
     d00:	580575d3          	fsqrt.s	fa1,fa0
     d04:	001028f3          	frflags	a7
     d08:	3eb7ac27          	fsw	fa1,1016(a5)
     d0c:	3f17ae23          	sw	a7,1020(a5)

00000d10 <inst_128>:
     d10:	20082507          	flw	fa0,512(a6)
     d14:	00205073          	fsrmi	zero,0
     d18:	580575d3          	fsqrt.s	fa1,fa0
     d1c:	001028f3          	frflags	a7
     d20:	40b7a027          	fsw	fa1,1024(a5)
     d24:	4117a223          	sw	a7,1028(a5)

00000d28 <inst_129>:
     d28:	20482507          	flw	fa0,516(a6)
     d2c:	00205073          	fsrmi	zero,0
     d30:	580575d3          	fsqrt.s	fa1,fa0
     d34:	001028f3          	frflags	a7
     d38:	40b7a427          	fsw	fa1,1032(a5)
     d3c:	4117a623          	sw	a7,1036(a5)

00000d40 <inst_130>:
     d40:	20882507          	flw	fa0,520(a6)
     d44:	00205073          	fsrmi	zero,0
     d48:	580575d3          	fsqrt.s	fa1,fa0
     d4c:	001028f3          	frflags	a7
     d50:	40b7a827          	fsw	fa1,1040(a5)
     d54:	4117aa23          	sw	a7,1044(a5)

00000d58 <inst_131>:
     d58:	20c82507          	flw	fa0,524(a6)
     d5c:	00205073          	fsrmi	zero,0
     d60:	580575d3          	fsqrt.s	fa1,fa0
     d64:	001028f3          	frflags	a7
     d68:	40b7ac27          	fsw	fa1,1048(a5)
     d6c:	4117ae23          	sw	a7,1052(a5)

00000d70 <inst_132>:
     d70:	21082507          	flw	fa0,528(a6)
     d74:	00205073          	fsrmi	zero,0
     d78:	580575d3          	fsqrt.s	fa1,fa0
     d7c:	001028f3          	frflags	a7
     d80:	42b7a027          	fsw	fa1,1056(a5)
     d84:	4317a223          	sw	a7,1060(a5)

00000d88 <inst_133>:
     d88:	21482507          	flw	fa0,532(a6)
     d8c:	00205073          	fsrmi	zero,0
     d90:	580575d3          	fsqrt.s	fa1,fa0
     d94:	001028f3          	frflags	a7
     d98:	42b7a427          	fsw	fa1,1064(a5)
     d9c:	4317a623          	sw	a7,1068(a5)

00000da0 <inst_134>:
     da0:	21882507          	flw	fa0,536(a6)
     da4:	00205073          	fsrmi	zero,0
     da8:	580575d3          	fsqrt.s	fa1,fa0
     dac:	001028f3          	frflags	a7
     db0:	42b7a827          	fsw	fa1,1072(a5)
     db4:	4317aa23          	sw	a7,1076(a5)

00000db8 <inst_135>:
     db8:	21c82507          	flw	fa0,540(a6)
     dbc:	00205073          	fsrmi	zero,0
     dc0:	580575d3          	fsqrt.s	fa1,fa0
     dc4:	001028f3          	frflags	a7
     dc8:	42b7ac27          	fsw	fa1,1080(a5)
     dcc:	4317ae23          	sw	a7,1084(a5)

00000dd0 <inst_136>:
     dd0:	22082507          	flw	fa0,544(a6)
     dd4:	00205073          	fsrmi	zero,0
     dd8:	580575d3          	fsqrt.s	fa1,fa0
     ddc:	001028f3          	frflags	a7
     de0:	44b7a027          	fsw	fa1,1088(a5)
     de4:	4517a223          	sw	a7,1092(a5)

00000de8 <inst_137>:
     de8:	22482507          	flw	fa0,548(a6)
     dec:	00205073          	fsrmi	zero,0
     df0:	580575d3          	fsqrt.s	fa1,fa0
     df4:	001028f3          	frflags	a7
     df8:	44b7a427          	fsw	fa1,1096(a5)
     dfc:	4517a623          	sw	a7,1100(a5)

00000e00 <inst_138>:
     e00:	22882507          	flw	fa0,552(a6)
     e04:	00205073          	fsrmi	zero,0
     e08:	580575d3          	fsqrt.s	fa1,fa0
     e0c:	001028f3          	frflags	a7
     e10:	44b7a827          	fsw	fa1,1104(a5)
     e14:	4517aa23          	sw	a7,1108(a5)

00000e18 <inst_139>:
     e18:	22c82507          	flw	fa0,556(a6)
     e1c:	00205073          	fsrmi	zero,0
     e20:	580575d3          	fsqrt.s	fa1,fa0
     e24:	001028f3          	frflags	a7
     e28:	44b7ac27          	fsw	fa1,1112(a5)
     e2c:	4517ae23          	sw	a7,1116(a5)

00000e30 <inst_140>:
     e30:	23082507          	flw	fa0,560(a6)
     e34:	00205073          	fsrmi	zero,0
     e38:	580575d3          	fsqrt.s	fa1,fa0
     e3c:	001028f3          	frflags	a7
     e40:	46b7a027          	fsw	fa1,1120(a5)
     e44:	4717a223          	sw	a7,1124(a5)

00000e48 <inst_141>:
     e48:	23482507          	flw	fa0,564(a6)
     e4c:	00205073          	fsrmi	zero,0
     e50:	580575d3          	fsqrt.s	fa1,fa0
     e54:	001028f3          	frflags	a7
     e58:	46b7a427          	fsw	fa1,1128(a5)
     e5c:	4717a623          	sw	a7,1132(a5)

00000e60 <inst_142>:
     e60:	23882507          	flw	fa0,568(a6)
     e64:	00205073          	fsrmi	zero,0
     e68:	580575d3          	fsqrt.s	fa1,fa0
     e6c:	001028f3          	frflags	a7
     e70:	46b7a827          	fsw	fa1,1136(a5)
     e74:	4717aa23          	sw	a7,1140(a5)

00000e78 <inst_143>:
     e78:	23c82507          	flw	fa0,572(a6)
     e7c:	00205073          	fsrmi	zero,0
     e80:	580575d3          	fsqrt.s	fa1,fa0
     e84:	001028f3          	frflags	a7
     e88:	46b7ac27          	fsw	fa1,1144(a5)
     e8c:	4717ae23          	sw	a7,1148(a5)

00000e90 <inst_144>:
     e90:	24082507          	flw	fa0,576(a6)
     e94:	00205073          	fsrmi	zero,0
     e98:	580575d3          	fsqrt.s	fa1,fa0
     e9c:	001028f3          	frflags	a7
     ea0:	48b7a027          	fsw	fa1,1152(a5)
     ea4:	4917a223          	sw	a7,1156(a5)

00000ea8 <inst_145>:
     ea8:	24482507          	flw	fa0,580(a6)
     eac:	00205073          	fsrmi	zero,0
     eb0:	580575d3          	fsqrt.s	fa1,fa0
     eb4:	001028f3          	frflags	a7
     eb8:	48b7a427          	fsw	fa1,1160(a5)
     ebc:	4917a623          	sw	a7,1164(a5)

00000ec0 <inst_146>:
     ec0:	24882507          	flw	fa0,584(a6)
     ec4:	00205073          	fsrmi	zero,0
     ec8:	580575d3          	fsqrt.s	fa1,fa0
     ecc:	001028f3          	frflags	a7
     ed0:	48b7a827          	fsw	fa1,1168(a5)
     ed4:	4917aa23          	sw	a7,1172(a5)

00000ed8 <inst_147>:
     ed8:	24c82507          	flw	fa0,588(a6)
     edc:	00205073          	fsrmi	zero,0
     ee0:	580575d3          	fsqrt.s	fa1,fa0
     ee4:	001028f3          	frflags	a7
     ee8:	48b7ac27          	fsw	fa1,1176(a5)
     eec:	4917ae23          	sw	a7,1180(a5)

00000ef0 <inst_148>:
     ef0:	25082507          	flw	fa0,592(a6)
     ef4:	00205073          	fsrmi	zero,0
     ef8:	580575d3          	fsqrt.s	fa1,fa0
     efc:	001028f3          	frflags	a7
     f00:	4ab7a027          	fsw	fa1,1184(a5)
     f04:	4b17a223          	sw	a7,1188(a5)

00000f08 <inst_149>:
     f08:	25482507          	flw	fa0,596(a6)
     f0c:	00205073          	fsrmi	zero,0
     f10:	580575d3          	fsqrt.s	fa1,fa0
     f14:	001028f3          	frflags	a7
     f18:	4ab7a427          	fsw	fa1,1192(a5)
     f1c:	4b17a623          	sw	a7,1196(a5)

00000f20 <inst_150>:
     f20:	25882507          	flw	fa0,600(a6)
     f24:	00205073          	fsrmi	zero,0
     f28:	580575d3          	fsqrt.s	fa1,fa0
     f2c:	001028f3          	frflags	a7
     f30:	4ab7a827          	fsw	fa1,1200(a5)
     f34:	4b17aa23          	sw	a7,1204(a5)

00000f38 <inst_151>:
     f38:	25c82507          	flw	fa0,604(a6)
     f3c:	00205073          	fsrmi	zero,0
     f40:	580575d3          	fsqrt.s	fa1,fa0
     f44:	001028f3          	frflags	a7
     f48:	4ab7ac27          	fsw	fa1,1208(a5)
     f4c:	4b17ae23          	sw	a7,1212(a5)

00000f50 <inst_152>:
     f50:	26082507          	flw	fa0,608(a6)
     f54:	00205073          	fsrmi	zero,0
     f58:	580575d3          	fsqrt.s	fa1,fa0
     f5c:	001028f3          	frflags	a7
     f60:	4cb7a027          	fsw	fa1,1216(a5)
     f64:	4d17a223          	sw	a7,1220(a5)

00000f68 <inst_153>:
     f68:	26482507          	flw	fa0,612(a6)
     f6c:	00205073          	fsrmi	zero,0
     f70:	580575d3          	fsqrt.s	fa1,fa0
     f74:	001028f3          	frflags	a7
     f78:	4cb7a427          	fsw	fa1,1224(a5)
     f7c:	4d17a623          	sw	a7,1228(a5)

00000f80 <inst_154>:
     f80:	26882507          	flw	fa0,616(a6)
     f84:	00205073          	fsrmi	zero,0
     f88:	580575d3          	fsqrt.s	fa1,fa0
     f8c:	001028f3          	frflags	a7
     f90:	4cb7a827          	fsw	fa1,1232(a5)
     f94:	4d17aa23          	sw	a7,1236(a5)

00000f98 <inst_155>:
     f98:	26c82507          	flw	fa0,620(a6)
     f9c:	00205073          	fsrmi	zero,0
     fa0:	580575d3          	fsqrt.s	fa1,fa0
     fa4:	001028f3          	frflags	a7
     fa8:	4cb7ac27          	fsw	fa1,1240(a5)
     fac:	4d17ae23          	sw	a7,1244(a5)

00000fb0 <inst_156>:
     fb0:	27082507          	flw	fa0,624(a6)
     fb4:	00205073          	fsrmi	zero,0
     fb8:	580575d3          	fsqrt.s	fa1,fa0
     fbc:	001028f3          	frflags	a7
     fc0:	4eb7a027          	fsw	fa1,1248(a5)
     fc4:	4f17a223          	sw	a7,1252(a5)

00000fc8 <inst_157>:
     fc8:	27482507          	flw	fa0,628(a6)
     fcc:	00205073          	fsrmi	zero,0
     fd0:	580575d3          	fsqrt.s	fa1,fa0
     fd4:	001028f3          	frflags	a7
     fd8:	4eb7a427          	fsw	fa1,1256(a5)
     fdc:	4f17a623          	sw	a7,1260(a5)

00000fe0 <inst_158>:
     fe0:	27882507          	flw	fa0,632(a6)
     fe4:	00205073          	fsrmi	zero,0
     fe8:	580575d3          	fsqrt.s	fa1,fa0
     fec:	001028f3          	frflags	a7
     ff0:	4eb7a827          	fsw	fa1,1264(a5)
     ff4:	4f17aa23          	sw	a7,1268(a5)

00000ff8 <inst_159>:
     ff8:	27c82507          	flw	fa0,636(a6)
     ffc:	00205073          	fsrmi	zero,0
    1000:	580575d3          	fsqrt.s	fa1,fa0
    1004:	001028f3          	frflags	a7
    1008:	4eb7ac27          	fsw	fa1,1272(a5)
    100c:	4f17ae23          	sw	a7,1276(a5)

00001010 <inst_160>:
    1010:	28082507          	flw	fa0,640(a6)
    1014:	00205073          	fsrmi	zero,0
    1018:	580575d3          	fsqrt.s	fa1,fa0
    101c:	001028f3          	frflags	a7
    1020:	50b7a027          	fsw	fa1,1280(a5)
    1024:	5117a223          	sw	a7,1284(a5)

00001028 <inst_161>:
    1028:	28482507          	flw	fa0,644(a6)
    102c:	00205073          	fsrmi	zero,0
    1030:	580575d3          	fsqrt.s	fa1,fa0
    1034:	001028f3          	frflags	a7
    1038:	50b7a427          	fsw	fa1,1288(a5)
    103c:	5117a623          	sw	a7,1292(a5)

00001040 <inst_162>:
    1040:	28882507          	flw	fa0,648(a6)
    1044:	00205073          	fsrmi	zero,0
    1048:	580575d3          	fsqrt.s	fa1,fa0
    104c:	001028f3          	frflags	a7
    1050:	50b7a827          	fsw	fa1,1296(a5)
    1054:	5117aa23          	sw	a7,1300(a5)

00001058 <inst_163>:
    1058:	28c82507          	flw	fa0,652(a6)
    105c:	00205073          	fsrmi	zero,0
    1060:	580575d3          	fsqrt.s	fa1,fa0
    1064:	001028f3          	frflags	a7
    1068:	50b7ac27          	fsw	fa1,1304(a5)
    106c:	5117ae23          	sw	a7,1308(a5)

00001070 <inst_164>:
    1070:	29082507          	flw	fa0,656(a6)
    1074:	00205073          	fsrmi	zero,0
    1078:	580575d3          	fsqrt.s	fa1,fa0
    107c:	001028f3          	frflags	a7
    1080:	52b7a027          	fsw	fa1,1312(a5)
    1084:	5317a223          	sw	a7,1316(a5)

00001088 <inst_165>:
    1088:	29482507          	flw	fa0,660(a6)
    108c:	00205073          	fsrmi	zero,0
    1090:	580575d3          	fsqrt.s	fa1,fa0
    1094:	001028f3          	frflags	a7
    1098:	52b7a427          	fsw	fa1,1320(a5)
    109c:	5317a623          	sw	a7,1324(a5)

000010a0 <inst_166>:
    10a0:	29882507          	flw	fa0,664(a6)
    10a4:	00205073          	fsrmi	zero,0
    10a8:	580575d3          	fsqrt.s	fa1,fa0
    10ac:	001028f3          	frflags	a7
    10b0:	52b7a827          	fsw	fa1,1328(a5)
    10b4:	5317aa23          	sw	a7,1332(a5)

000010b8 <inst_167>:
    10b8:	29c82507          	flw	fa0,668(a6)
    10bc:	00205073          	fsrmi	zero,0
    10c0:	580575d3          	fsqrt.s	fa1,fa0
    10c4:	001028f3          	frflags	a7
    10c8:	52b7ac27          	fsw	fa1,1336(a5)
    10cc:	5317ae23          	sw	a7,1340(a5)

000010d0 <inst_168>:
    10d0:	2a082507          	flw	fa0,672(a6)
    10d4:	00205073          	fsrmi	zero,0
    10d8:	580575d3          	fsqrt.s	fa1,fa0
    10dc:	001028f3          	frflags	a7
    10e0:	54b7a027          	fsw	fa1,1344(a5)
    10e4:	5517a223          	sw	a7,1348(a5)

000010e8 <inst_169>:
    10e8:	2a482507          	flw	fa0,676(a6)
    10ec:	00205073          	fsrmi	zero,0
    10f0:	580575d3          	fsqrt.s	fa1,fa0
    10f4:	001028f3          	frflags	a7
    10f8:	54b7a427          	fsw	fa1,1352(a5)
    10fc:	5517a623          	sw	a7,1356(a5)

00001100 <inst_170>:
    1100:	2a882507          	flw	fa0,680(a6)
    1104:	00205073          	fsrmi	zero,0
    1108:	580575d3          	fsqrt.s	fa1,fa0
    110c:	001028f3          	frflags	a7
    1110:	54b7a827          	fsw	fa1,1360(a5)
    1114:	5517aa23          	sw	a7,1364(a5)

00001118 <inst_171>:
    1118:	2ac82507          	flw	fa0,684(a6)
    111c:	00205073          	fsrmi	zero,0
    1120:	580575d3          	fsqrt.s	fa1,fa0
    1124:	001028f3          	frflags	a7
    1128:	54b7ac27          	fsw	fa1,1368(a5)
    112c:	5517ae23          	sw	a7,1372(a5)

00001130 <inst_172>:
    1130:	2b082507          	flw	fa0,688(a6)
    1134:	00205073          	fsrmi	zero,0
    1138:	580575d3          	fsqrt.s	fa1,fa0
    113c:	001028f3          	frflags	a7
    1140:	56b7a027          	fsw	fa1,1376(a5)
    1144:	5717a223          	sw	a7,1380(a5)

00001148 <inst_173>:
    1148:	2b482507          	flw	fa0,692(a6)
    114c:	00205073          	fsrmi	zero,0
    1150:	580575d3          	fsqrt.s	fa1,fa0
    1154:	001028f3          	frflags	a7
    1158:	56b7a427          	fsw	fa1,1384(a5)
    115c:	5717a623          	sw	a7,1388(a5)

00001160 <inst_174>:
    1160:	2b882507          	flw	fa0,696(a6)
    1164:	00205073          	fsrmi	zero,0
    1168:	580575d3          	fsqrt.s	fa1,fa0
    116c:	001028f3          	frflags	a7
    1170:	56b7a827          	fsw	fa1,1392(a5)
    1174:	5717aa23          	sw	a7,1396(a5)

00001178 <inst_175>:
    1178:	2bc82507          	flw	fa0,700(a6)
    117c:	00205073          	fsrmi	zero,0
    1180:	580575d3          	fsqrt.s	fa1,fa0
    1184:	001028f3          	frflags	a7
    1188:	56b7ac27          	fsw	fa1,1400(a5)
    118c:	5717ae23          	sw	a7,1404(a5)

00001190 <inst_176>:
    1190:	2c082507          	flw	fa0,704(a6)
    1194:	00205073          	fsrmi	zero,0
    1198:	580575d3          	fsqrt.s	fa1,fa0
    119c:	001028f3          	frflags	a7
    11a0:	58b7a027          	fsw	fa1,1408(a5)
    11a4:	5917a223          	sw	a7,1412(a5)

000011a8 <inst_177>:
    11a8:	2c482507          	flw	fa0,708(a6)
    11ac:	00205073          	fsrmi	zero,0
    11b0:	580575d3          	fsqrt.s	fa1,fa0
    11b4:	001028f3          	frflags	a7
    11b8:	58b7a427          	fsw	fa1,1416(a5)
    11bc:	5917a623          	sw	a7,1420(a5)

000011c0 <inst_178>:
    11c0:	2c882507          	flw	fa0,712(a6)
    11c4:	00205073          	fsrmi	zero,0
    11c8:	580575d3          	fsqrt.s	fa1,fa0
    11cc:	001028f3          	frflags	a7
    11d0:	58b7a827          	fsw	fa1,1424(a5)
    11d4:	5917aa23          	sw	a7,1428(a5)

000011d8 <inst_179>:
    11d8:	2cc82507          	flw	fa0,716(a6)
    11dc:	00205073          	fsrmi	zero,0
    11e0:	580575d3          	fsqrt.s	fa1,fa0
    11e4:	001028f3          	frflags	a7
    11e8:	58b7ac27          	fsw	fa1,1432(a5)
    11ec:	5917ae23          	sw	a7,1436(a5)

000011f0 <inst_180>:
    11f0:	2d082507          	flw	fa0,720(a6)
    11f4:	00205073          	fsrmi	zero,0
    11f8:	580575d3          	fsqrt.s	fa1,fa0
    11fc:	001028f3          	frflags	a7
    1200:	5ab7a027          	fsw	fa1,1440(a5)
    1204:	5b17a223          	sw	a7,1444(a5)

00001208 <inst_181>:
    1208:	2d482507          	flw	fa0,724(a6)
    120c:	00205073          	fsrmi	zero,0
    1210:	580575d3          	fsqrt.s	fa1,fa0
    1214:	001028f3          	frflags	a7
    1218:	5ab7a427          	fsw	fa1,1448(a5)
    121c:	5b17a623          	sw	a7,1452(a5)

00001220 <inst_182>:
    1220:	2d882507          	flw	fa0,728(a6)
    1224:	00205073          	fsrmi	zero,0
    1228:	580575d3          	fsqrt.s	fa1,fa0
    122c:	001028f3          	frflags	a7
    1230:	5ab7a827          	fsw	fa1,1456(a5)
    1234:	5b17aa23          	sw	a7,1460(a5)

00001238 <inst_183>:
    1238:	2dc82507          	flw	fa0,732(a6)
    123c:	00205073          	fsrmi	zero,0
    1240:	580575d3          	fsqrt.s	fa1,fa0
    1244:	001028f3          	frflags	a7
    1248:	5ab7ac27          	fsw	fa1,1464(a5)
    124c:	5b17ae23          	sw	a7,1468(a5)

00001250 <inst_184>:
    1250:	2e082507          	flw	fa0,736(a6)
    1254:	00205073          	fsrmi	zero,0
    1258:	580575d3          	fsqrt.s	fa1,fa0
    125c:	001028f3          	frflags	a7
    1260:	5cb7a027          	fsw	fa1,1472(a5)
    1264:	5d17a223          	sw	a7,1476(a5)

00001268 <inst_185>:
    1268:	2e482507          	flw	fa0,740(a6)
    126c:	00205073          	fsrmi	zero,0
    1270:	580575d3          	fsqrt.s	fa1,fa0
    1274:	001028f3          	frflags	a7
    1278:	5cb7a427          	fsw	fa1,1480(a5)
    127c:	5d17a623          	sw	a7,1484(a5)

00001280 <inst_186>:
    1280:	2e882507          	flw	fa0,744(a6)
    1284:	00205073          	fsrmi	zero,0
    1288:	580575d3          	fsqrt.s	fa1,fa0
    128c:	001028f3          	frflags	a7
    1290:	5cb7a827          	fsw	fa1,1488(a5)
    1294:	5d17aa23          	sw	a7,1492(a5)

00001298 <inst_187>:
    1298:	2ec82507          	flw	fa0,748(a6)
    129c:	00205073          	fsrmi	zero,0
    12a0:	580575d3          	fsqrt.s	fa1,fa0
    12a4:	001028f3          	frflags	a7
    12a8:	5cb7ac27          	fsw	fa1,1496(a5)
    12ac:	5d17ae23          	sw	a7,1500(a5)

000012b0 <inst_188>:
    12b0:	2f082507          	flw	fa0,752(a6)
    12b4:	00205073          	fsrmi	zero,0
    12b8:	580575d3          	fsqrt.s	fa1,fa0
    12bc:	001028f3          	frflags	a7
    12c0:	5eb7a027          	fsw	fa1,1504(a5)
    12c4:	5f17a223          	sw	a7,1508(a5)

000012c8 <inst_189>:
    12c8:	2f482507          	flw	fa0,756(a6)
    12cc:	00205073          	fsrmi	zero,0
    12d0:	580575d3          	fsqrt.s	fa1,fa0
    12d4:	001028f3          	frflags	a7
    12d8:	5eb7a427          	fsw	fa1,1512(a5)
    12dc:	5f17a623          	sw	a7,1516(a5)

000012e0 <inst_190>:
    12e0:	2f882507          	flw	fa0,760(a6)
    12e4:	00205073          	fsrmi	zero,0
    12e8:	580575d3          	fsqrt.s	fa1,fa0
    12ec:	001028f3          	frflags	a7
    12f0:	5eb7a827          	fsw	fa1,1520(a5)
    12f4:	5f17aa23          	sw	a7,1524(a5)

000012f8 <inst_191>:
    12f8:	2fc82507          	flw	fa0,764(a6)
    12fc:	00205073          	fsrmi	zero,0
    1300:	580575d3          	fsqrt.s	fa1,fa0
    1304:	001028f3          	frflags	a7
    1308:	5eb7ac27          	fsw	fa1,1528(a5)
    130c:	5f17ae23          	sw	a7,1532(a5)

00001310 <inst_192>:
    1310:	30082507          	flw	fa0,768(a6)
    1314:	00205073          	fsrmi	zero,0
    1318:	580575d3          	fsqrt.s	fa1,fa0
    131c:	001028f3          	frflags	a7
    1320:	60b7a027          	fsw	fa1,1536(a5)
    1324:	6117a223          	sw	a7,1540(a5)

00001328 <inst_193>:
    1328:	30482507          	flw	fa0,772(a6)
    132c:	00205073          	fsrmi	zero,0
    1330:	580575d3          	fsqrt.s	fa1,fa0
    1334:	001028f3          	frflags	a7
    1338:	60b7a427          	fsw	fa1,1544(a5)
    133c:	6117a623          	sw	a7,1548(a5)

00001340 <rvtest_code_end>:
    1340:	00001517          	auipc	a0,0x1
    1344:	fd050513          	add	a0,a0,-48 # 2310 <data_begin>
    1348:	00001597          	auipc	a1,0x1
    134c:	5d858593          	add	a1,a1,1496 # 2920 <_end>
    1350:	80001637          	lui	a2,0x80001
    1354:	00860613          	add	a2,a2,8 # 80001008 <_end+0x7fffe6e8>

00001358 <compliance_halt_loop>:
    1358:	06b50063          	beq	a0,a1,13b8 <compliance_halt_break>
    135c:	00450693          	add	a3,a0,4

00001360 <compliance_halt_loop2>:
    1360:	fff68693          	add	a3,a3,-1
    1364:	00068703          	lb	a4,0(a3)
    1368:	40475793          	sra	a5,a4,0x4
    136c:	00f7f793          	and	a5,a5,15
    1370:	00a00813          	li	a6,10
    1374:	0107c463          	blt	a5,a6,137c <notLetter>
    1378:	02778793          	add	a5,a5,39

0000137c <notLetter>:
    137c:	03078793          	add	a5,a5,48
    1380:	00f60023          	sb	a5,0(a2)
    1384:	40075793          	sra	a5,a4,0x0
    1388:	00f7f793          	and	a5,a5,15
    138c:	00a00813          	li	a6,10
    1390:	0107c463          	blt	a5,a6,1398 <notLetter2>
    1394:	02778793          	add	a5,a5,39

00001398 <notLetter2>:
    1398:	03078793          	add	a5,a5,48
    139c:	00f60023          	sb	a5,0(a2)
    13a0:	fcd510e3          	bne	a0,a3,1360 <compliance_halt_loop2>
    13a4:	00450513          	add	a0,a0,4
    13a8:	00a00713          	li	a4,10
    13ac:	00e60023          	sb	a4,0(a2)
    13b0:	fa9ff06f          	j	1358 <compliance_halt_loop>
    13b4:	0040006f          	j	13b8 <compliance_halt_break>

000013b8 <compliance_halt_break>:
    13b8:	80001537          	lui	a0,0x80001
    13bc:	00950513          	add	a0,a0,9 # 80001009 <_end+0x7fffe6e9>
    13c0:	00d50023          	sb	a3,0(a0)
	...

Desensamblado de la sección .data:

00002000 <rvtest_data_begin>:
    2000:	cafe                	.2byte	0xcafe
    2002:	babe                	.2byte	0xbabe

00002004 <test_fp>:
    2004:	0000                	.2byte	0x0
    2006:	0000                	.2byte	0x0
    2008:	cccc                	.2byte	0xcccc
    200a:	7f4c                	.2byte	0x7f4c
    200c:	7f333333          	.4byte	0x7f333333
    2010:	6db6                	.2byte	0x6db6
    2012:	92497f5b          	.4byte	0x92497f5b
    2016:	7f24                	.2byte	0x7f24
    2018:	4444                	.2byte	0x4444
    201a:	7f44                	.2byte	0x7f44
    201c:	7f3bbbbb          	.4byte	0x7f3bbbbb
    2020:	6666                	.2byte	0x6666
    2022:	7f66                	.2byte	0x7f66
    2024:	9999                	.2byte	0x9999
    2026:	7f19                	.2byte	0x7f19
    2028:	7f6db6db          	.4byte	0x7f6db6db
    202c:	db6d                	.2byte	0xdb6d
    202e:	7f36                	.2byte	0x7f36
    2030:	0001                	.2byte	0x1
    2032:	7f00                	.2byte	0x7f00
    2034:	fffe                	.2byte	0xfffe
    2036:	7f7f                	.2byte	0x7f7f
    2038:	7f000003          	lb	zero,2032(zero) # 7f0 <inst_73+0x8>
    203c:	fffc                	.2byte	0xfffc
    203e:	7f7f                	.2byte	0x7f7f
    2040:	7f000007          	.4byte	0x7f000007
    2044:	fff8                	.2byte	0xfff8
    2046:	7f7f                	.2byte	0x7f7f
    2048:	7f00000f          	.4byte	0x7f00000f
    204c:	fff0                	.2byte	0xfff0
    204e:	7f7f                	.2byte	0x7f7f
    2050:	001f 7f00 ffe0      	.byte	0x1f, 0x00, 0x00, 0x7f, 0xe0, 0xff
    2056:	7f7f                	.2byte	0x7f7f
    2058:	7f00003f 7f7fffc0 	.8byte	0x7f7fffc07f00003f
    2060:	007f 7f00 ff80 7f7f 	.byte	0x7f, 0x00, 0x00, 0x7f, 0x80, 0xff, 0x7f, 0x7f, 0xff, 0x00
    2068:	00ff 
    206a:	7f00                	.2byte	0x7f00
    206c:	ff00                	.2byte	0xff00
    206e:	7f7f                	.2byte	0x7f7f
    2070:	01ff 7f00 fe00 7f7f 	.byte	0xff, 0x01, 0x00, 0x7f, 0x00, 0xfe, 0x7f, 0x7f, 0xff, 0x03
    2078:	03ff 
    207a:	7f00                	.2byte	0x7f00
    207c:	fc00                	.2byte	0xfc00
    207e:	7f7f                	.2byte	0x7f7f
    2080:	07ff 7f00 f800 7f7f 	.byte	0xff, 0x07, 0x00, 0x7f, 0x00, 0xf8, 0x7f, 0x7f, 0xff, 0x0f
    2088:	0fff 
    208a:	7f00                	.2byte	0x7f00
    208c:	f000                	.2byte	0xf000
    208e:	7f7f                	.2byte	0x7f7f
    2090:	7f001fff 7f7fe000 	.byte	0xff, 0x1f, 0x00, 0x7f, 0x00, 0xe0, 0x7f, 0x7f, 0xff, 0x3f, 0x00, 0x7f
    2098:	7f003fff 
    209c:	c000                	.2byte	0xc000
    209e:	7f7f                	.2byte	0x7f7f
    20a0:	7fff                	.2byte	0x7fff
    20a2:	7f00                	.2byte	0x7f00
    20a4:	8000                	.2byte	0x8000
    20a6:	7f7f                	.2byte	0x7f7f
    20a8:	ffff                	.2byte	0xffff
    20aa:	7f00                	.2byte	0x7f00
    20ac:	0000                	.2byte	0x0
    20ae:	7f7f                	.2byte	0x7f7f
    20b0:	ffff                	.2byte	0xffff
    20b2:	7f01                	.2byte	0x7f01
    20b4:	0000                	.2byte	0x0
    20b6:	7f7e                	.2byte	0x7f7e
    20b8:	ffff                	.2byte	0xffff
    20ba:	00007f03          	.4byte	0x7f03
    20be:	7f7c                	.2byte	0x7f7c
    20c0:	ffff                	.2byte	0xffff
    20c2:	00007f07          	.4byte	0x7f07
    20c6:	7f78                	.2byte	0x7f78
    20c8:	ffff                	.2byte	0xffff
    20ca:	00007f0f          	.4byte	0x7f0f
    20ce:	7f70                	.2byte	0x7f70
    20d0:	ffff                	.2byte	0xffff
    20d2:	7f1f 0000 7f60      	.byte	0x1f, 0x7f, 0x00, 0x00, 0x60, 0x7f
    20d8:	ffff                	.2byte	0xffff
    20da:	00007f3f ffff7f40 	.8byte	0xffff7f4000007f3f
    20e2:	7f7f                	.2byte	0x7f7f
    20e4:	0000                	.2byte	0x0
    20e6:	7f00                	.2byte	0x7f00
    20e8:	0001                	.2byte	0x1
    20ea:	0080                	.2byte	0x80
    20ec:	0000                	.2byte	0x0
    20ee:	0080                	.2byte	0x80
    20f0:	fffe                	.2byte	0xfffe
    20f2:	00ff 0003 0080 fffc 	.byte	0xff, 0x00, 0x03, 0x00, 0x80, 0x00, 0xfc, 0xff, 0xff, 0x00
    20fa:	00ff 
    20fc:	00800007          	.4byte	0x800007
    2100:	fff8                	.2byte	0xfff8
    2102:	00ff 000f 0080 fff0 	.byte	0xff, 0x00, 0x0f, 0x00, 0x80, 0x00, 0xf0, 0xff, 0xff, 0x00
    210a:	00ff 
    210c:	001f 0080 ffe0      	.byte	0x1f, 0x00, 0x80, 0x00, 0xe0, 0xff
    2112:	00ff 003f 0080 ffc0 	.byte	0xff, 0x00, 0x3f, 0x00, 0x80, 0x00, 0xc0, 0xff, 0xff, 0x00
    211a:	00ff 
    211c:	007f 0080 ff80 00ff 	.byte	0x7f, 0x00, 0x80, 0x00, 0x80, 0xff, 0xff, 0x00, 0xff, 0x00
    2124:	00ff 
    2126:	0080                	.2byte	0x80
    2128:	ff00                	.2byte	0xff00
    212a:	00ff 01ff 0080 fe00 	.byte	0xff, 0x00, 0xff, 0x01, 0x80, 0x00, 0x00, 0xfe, 0xff, 0x00
    2132:	00ff 
    2134:	03ff 0080 fc00 00ff 	.byte	0xff, 0x03, 0x80, 0x00, 0x00, 0xfc, 0xff, 0x00, 0xff, 0x07
    213c:	07ff 
    213e:	0080                	.2byte	0x80
    2140:	f800                	.2byte	0xf800
    2142:	00ff 0fff 0080 f000 	.byte	0xff, 0x00, 0xff, 0x0f, 0x80, 0x00, 0x00, 0xf0, 0xff, 0x00
    214a:	00ff 
    214c:	00801fff 00ffe000 	.byte	0xff, 0x1f, 0x80, 0x00, 0x00, 0xe0, 0xff, 0x00, 0xff, 0x3f, 0x80, 0x00
    2154:	00803fff 
    2158:	c000                	.2byte	0xc000
    215a:	00ff 7fff 0080 8000 	.byte	0xff, 0x00, 0xff, 0x7f, 0x80, 0x00, 0x00, 0x80, 0xff, 0x00
    2162:	00ff 
    2164:	ffff                	.2byte	0xffff
    2166:	0080                	.2byte	0x80
    2168:	0000                	.2byte	0x0
    216a:	00ff ffff 0081 0000 	.byte	0xff, 0x00, 0xff, 0xff, 0x81, 0x00, 0x00, 0x00, 0xfe, 0x00
    2172:	00fe 
    2174:	ffff                	.2byte	0xffff
    2176:	00000083          	lb	ra,0(zero) # 0 <rvtest_entry_point>
    217a:	00fc                	.2byte	0xfc
    217c:	ffff                	.2byte	0xffff
    217e:	00000087          	.4byte	0x87
    2182:	00f8                	.2byte	0xf8
    2184:	ffff                	.2byte	0xffff
    2186:	0000008f          	.4byte	0x8f
    218a:	00f0                	.2byte	0xf0
    218c:	ffff                	.2byte	0xffff
    218e:	009f 0000 00e0      	.byte	0x9f, 0x00, 0x00, 0x00, 0xe0, 0x00
    2194:	ffff                	.2byte	0xffff
    2196:	000000bf ffff00c0 	.8byte	0xffff00c0000000bf
    219e:	00ff 0001 0000 fffe 	.byte	0xff, 0x00, 0x01, 0x00, 0x00, 0x00, 0xfe, 0xff, 0x7f, 0x00
    21a6:	007f 
    21a8:	00000003          	lb	zero,0(zero) # 0 <rvtest_entry_point>
    21ac:	fffc                	.2byte	0xfffc
    21ae:	007f 0007 0000 fff8 	.byte	0x7f, 0x00, 0x07, 0x00, 0x00, 0x00, 0xf8, 0xff, 0x7f, 0x00
    21b6:	007f 
    21b8:	0000000f          	fence	unknown,unknown
    21bc:	fff0                	.2byte	0xfff0
    21be:	007f 001f 0000 ffe0 	.byte	0x7f, 0x00, 0x1f, 0x00, 0x00, 0x00, 0xe0, 0xff, 0x7f, 0x00
    21c6:	007f 
    21c8:	0000003f 007fffc0 	.8byte	0x7fffc00000003f
    21d0:	007f 0000 ff80 007f 	.byte	0x7f, 0x00, 0x00, 0x00, 0x80, 0xff, 0x7f, 0x00, 0xff, 0x00
    21d8:	00ff 
    21da:	0000                	.2byte	0x0
    21dc:	ff00                	.2byte	0xff00
    21de:	007f 01ff 0000 fe00 	.byte	0x7f, 0x00, 0xff, 0x01, 0x00, 0x00, 0x00, 0xfe, 0x7f, 0x00
    21e6:	007f 
    21e8:	03ff 0000 fc00 007f 	.byte	0xff, 0x03, 0x00, 0x00, 0x00, 0xfc, 0x7f, 0x00, 0xff, 0x07
    21f0:	07ff 
    21f2:	0000                	.2byte	0x0
    21f4:	f800                	.2byte	0xf800
    21f6:	007f 0fff 0000 f000 	.byte	0x7f, 0x00, 0xff, 0x0f, 0x00, 0x00, 0x00, 0xf0, 0x7f, 0x00
    21fe:	007f 
    2200:	00001fff 007fe000 	.byte	0xff, 0x1f, 0x00, 0x00, 0x00, 0xe0, 0x7f, 0x00, 0xff, 0x3f, 0x00, 0x00
    2208:	00003fff 
    220c:	c000                	.2byte	0xc000
    220e:	007f 7fff 0000 8000 	.byte	0x7f, 0x00, 0xff, 0x7f, 0x00, 0x00, 0x00, 0x80, 0x7f, 0x00
    2216:	007f 
    2218:	ffff                	.2byte	0xffff
    221a:	0000                	.2byte	0x0
    221c:	0000                	.2byte	0x0
    221e:	007f ffff 0001 0000 	.byte	0x7f, 0x00, 0xff, 0xff, 0x01, 0x00, 0x00, 0x00, 0x7e, 0x00
    2226:	007e 
    2228:	ffff                	.2byte	0xffff
    222a:	00000003          	lb	zero,0(zero) # 0 <rvtest_entry_point>
    222e:	007c                	.2byte	0x7c
    2230:	ffff                	.2byte	0xffff
    2232:	00000007          	.4byte	0x7
    2236:	0078                	.2byte	0x78
    2238:	ffff                	.2byte	0xffff
    223a:	0000000f          	fence	unknown,unknown
    223e:	0070                	.2byte	0x70
    2240:	ffff                	.2byte	0xffff
    2242:	001f 0000 0060      	.byte	0x1f, 0x00, 0x00, 0x00, 0x60, 0x00
    2248:	ffff                	.2byte	0xffff
    224a:	0000003f ffff0040 	.8byte	0xffff00400000003f
    2252:	007f 0001 3f80 0000 	.byte	0x7f, 0x00, 0x01, 0x00, 0x80, 0x3f, 0x00, 0x00, 0x80, 0x3f
    225a:	3f80 
    225c:	fffe                	.2byte	0xfffe
    225e:	00033fff fffc3f80 	.byte	0xff, 0x3f, 0x03, 0x00, 0x80, 0x3f, 0xfc, 0xff, 0xff, 0x3f, 0x07, 0x00, 0x80, 0x3f, 0xf8, 0xff
    2266:	00073fff fff83f80 
    226e:	000f3fff fff03f80 	.byte	0xff, 0x3f, 0x0f, 0x00, 0x80, 0x3f, 0xf0, 0xff, 0xff, 0x3f, 0x1f, 0x00, 0x80, 0x3f, 0xe0, 0xff
    2276:	001f3fff ffe03f80 
    227e:	003f3fff ffc03f80 	.byte	0xff, 0x3f, 0x3f, 0x00, 0x80, 0x3f, 0xc0, 0xff, 0xff, 0x3f, 0x7f, 0x00, 0x80, 0x3f, 0x80, 0xff
    2286:	007f3fff ff803f80 
    228e:	00ff3fff ff003f80 	.byte	0xff, 0x3f, 0xff, 0x00, 0x80, 0x3f, 0x00, 0xff, 0xff, 0x3f, 0xff, 0x01, 0x80, 0x3f, 0x00, 0xfe
    2296:	01ff3fff fe003f80 
    229e:	03ff3fff fc003f80 	.byte	0xff, 0x3f, 0xff, 0x03, 0x80, 0x3f, 0x00, 0xfc, 0xff, 0x3f, 0xff, 0x07, 0x80, 0x3f, 0x00, 0xf8
    22a6:	07ff3fff f8003f80 
    22ae:	0fff3fff f0003f80 	.byte	0xff, 0x3f, 0xff, 0x0f, 0x80, 0x3f, 0x00, 0xf0, 0xff, 0x3f, 0xff, 0x1f, 0x80, 0x3f, 0x00, 0xe0
    22b6:	1fff3fff e0003f80 
    22be:	3fff3fff c0003f80 	.byte	0xff, 0x3f, 0xff, 0x3f, 0x80, 0x3f, 0x00, 0xc0, 0xff, 0x3f, 0xff, 0x7f, 0x80, 0x3f, 0x00, 0x80
    22c6:	7fff3fff 80003f80 
    22ce:	ffff3fff 00003f80 	.byte	0xff, 0x3f, 0xff, 0xff, 0x80, 0x3f, 0x00, 0x00, 0xff, 0x3f, 0xff, 0xff, 0x81, 0x3f, 0x00, 0x00
    22d6:	ffff3fff 00003f81 
    22de:	3ffe                	.2byte	0x3ffe
    22e0:	ffff                	.2byte	0xffff
    22e2:	00003f83          	.4byte	0x3f83
    22e6:	3ffc                	.2byte	0x3ffc
    22e8:	ffff                	.2byte	0xffff
    22ea:	00003f87          	.4byte	0x3f87
    22ee:	3ff8                	.2byte	0x3ff8
    22f0:	ffff                	.2byte	0xffff
    22f2:	00003f8f          	.4byte	0x3f8f
    22f6:	3ff0                	.2byte	0x3ff0
    22f8:	ffff                	.2byte	0xffff
    22fa:	3f9f 0000 3fe0      	.byte	0x9f, 0x3f, 0x00, 0x00, 0xe0, 0x3f
    2300:	ffff                	.2byte	0xffff
    2302:	00003fbf ffff3fc0 	.8byte	0xffff3fc000003fbf
    230a:	  	.byte	0xff, 0x3f, 0x00, 0x00, 0x00, 0x00, 0xef, 0xbe, 0xad, 0xde, 0xef, 0xbe, 0xad, 0xde, 0xef, 0xbe
    2312:	  

0000230c <rvtest_data_end>:
    230c:	0000                	.2byte	0x0
	...

00002310 <data_begin>:
    2310:	deadbeef          	jal	t4,fffdd8fa <_end+0xfffdafda>
    2314:	deadbeef          	jal	t4,fffdd8fe <_end+0xfffdafde>
    2318:	deadbeef          	jal	t4,fffdd902 <_end+0xfffdafe2>
    231c:	deadbeef          	jal	t4,fffdd906 <_end+0xfffdafe6>
    2320:	deadbeef          	jal	t4,fffdd90a <_end+0xfffdafea>
    2324:	deadbeef          	jal	t4,fffdd90e <_end+0xfffdafee>
    2328:	deadbeef          	jal	t4,fffdd912 <_end+0xfffdaff2>
    232c:	deadbeef          	jal	t4,fffdd916 <_end+0xfffdaff6>
    2330:	deadbeef          	jal	t4,fffdd91a <_end+0xfffdaffa>
    2334:	deadbeef          	jal	t4,fffdd91e <_end+0xfffdaffe>
    2338:	deadbeef          	jal	t4,fffdd922 <_end+0xfffdb002>
    233c:	deadbeef          	jal	t4,fffdd926 <_end+0xfffdb006>
    2340:	deadbeef          	jal	t4,fffdd92a <_end+0xfffdb00a>
    2344:	deadbeef          	jal	t4,fffdd92e <_end+0xfffdb00e>
    2348:	deadbeef          	jal	t4,fffdd932 <_end+0xfffdb012>
    234c:	deadbeef          	jal	t4,fffdd936 <_end+0xfffdb016>
    2350:	deadbeef          	jal	t4,fffdd93a <_end+0xfffdb01a>
    2354:	deadbeef          	jal	t4,fffdd93e <_end+0xfffdb01e>
    2358:	deadbeef          	jal	t4,fffdd942 <_end+0xfffdb022>
    235c:	deadbeef          	jal	t4,fffdd946 <_end+0xfffdb026>
    2360:	deadbeef          	jal	t4,fffdd94a <_end+0xfffdb02a>
    2364:	deadbeef          	jal	t4,fffdd94e <_end+0xfffdb02e>
    2368:	deadbeef          	jal	t4,fffdd952 <_end+0xfffdb032>
    236c:	deadbeef          	jal	t4,fffdd956 <_end+0xfffdb036>
    2370:	deadbeef          	jal	t4,fffdd95a <_end+0xfffdb03a>
    2374:	deadbeef          	jal	t4,fffdd95e <_end+0xfffdb03e>
    2378:	deadbeef          	jal	t4,fffdd962 <_end+0xfffdb042>
    237c:	deadbeef          	jal	t4,fffdd966 <_end+0xfffdb046>
    2380:	deadbeef          	jal	t4,fffdd96a <_end+0xfffdb04a>
    2384:	deadbeef          	jal	t4,fffdd96e <_end+0xfffdb04e>
    2388:	deadbeef          	jal	t4,fffdd972 <_end+0xfffdb052>
    238c:	deadbeef          	jal	t4,fffdd976 <_end+0xfffdb056>
    2390:	deadbeef          	jal	t4,fffdd97a <_end+0xfffdb05a>
    2394:	deadbeef          	jal	t4,fffdd97e <_end+0xfffdb05e>
    2398:	deadbeef          	jal	t4,fffdd982 <_end+0xfffdb062>
    239c:	deadbeef          	jal	t4,fffdd986 <_end+0xfffdb066>
    23a0:	deadbeef          	jal	t4,fffdd98a <_end+0xfffdb06a>
    23a4:	deadbeef          	jal	t4,fffdd98e <_end+0xfffdb06e>
    23a8:	deadbeef          	jal	t4,fffdd992 <_end+0xfffdb072>
    23ac:	deadbeef          	jal	t4,fffdd996 <_end+0xfffdb076>
    23b0:	deadbeef          	jal	t4,fffdd99a <_end+0xfffdb07a>
    23b4:	deadbeef          	jal	t4,fffdd99e <_end+0xfffdb07e>
    23b8:	deadbeef          	jal	t4,fffdd9a2 <_end+0xfffdb082>
    23bc:	deadbeef          	jal	t4,fffdd9a6 <_end+0xfffdb086>
    23c0:	deadbeef          	jal	t4,fffdd9aa <_end+0xfffdb08a>
    23c4:	deadbeef          	jal	t4,fffdd9ae <_end+0xfffdb08e>
    23c8:	deadbeef          	jal	t4,fffdd9b2 <_end+0xfffdb092>
    23cc:	deadbeef          	jal	t4,fffdd9b6 <_end+0xfffdb096>
    23d0:	deadbeef          	jal	t4,fffdd9ba <_end+0xfffdb09a>
    23d4:	deadbeef          	jal	t4,fffdd9be <_end+0xfffdb09e>
    23d8:	deadbeef          	jal	t4,fffdd9c2 <_end+0xfffdb0a2>
    23dc:	deadbeef          	jal	t4,fffdd9c6 <_end+0xfffdb0a6>
    23e0:	deadbeef          	jal	t4,fffdd9ca <_end+0xfffdb0aa>
    23e4:	deadbeef          	jal	t4,fffdd9ce <_end+0xfffdb0ae>
    23e8:	deadbeef          	jal	t4,fffdd9d2 <_end+0xfffdb0b2>
    23ec:	deadbeef          	jal	t4,fffdd9d6 <_end+0xfffdb0b6>
    23f0:	deadbeef          	jal	t4,fffdd9da <_end+0xfffdb0ba>
    23f4:	deadbeef          	jal	t4,fffdd9de <_end+0xfffdb0be>
    23f8:	deadbeef          	jal	t4,fffdd9e2 <_end+0xfffdb0c2>
    23fc:	deadbeef          	jal	t4,fffdd9e6 <_end+0xfffdb0c6>
    2400:	deadbeef          	jal	t4,fffdd9ea <_end+0xfffdb0ca>
    2404:	deadbeef          	jal	t4,fffdd9ee <_end+0xfffdb0ce>
    2408:	deadbeef          	jal	t4,fffdd9f2 <_end+0xfffdb0d2>
    240c:	deadbeef          	jal	t4,fffdd9f6 <_end+0xfffdb0d6>
    2410:	deadbeef          	jal	t4,fffdd9fa <_end+0xfffdb0da>
    2414:	deadbeef          	jal	t4,fffdd9fe <_end+0xfffdb0de>
    2418:	deadbeef          	jal	t4,fffdda02 <_end+0xfffdb0e2>
    241c:	deadbeef          	jal	t4,fffdda06 <_end+0xfffdb0e6>
    2420:	deadbeef          	jal	t4,fffdda0a <_end+0xfffdb0ea>
    2424:	deadbeef          	jal	t4,fffdda0e <_end+0xfffdb0ee>
    2428:	deadbeef          	jal	t4,fffdda12 <_end+0xfffdb0f2>
    242c:	deadbeef          	jal	t4,fffdda16 <_end+0xfffdb0f6>
    2430:	deadbeef          	jal	t4,fffdda1a <_end+0xfffdb0fa>
    2434:	deadbeef          	jal	t4,fffdda1e <_end+0xfffdb0fe>
    2438:	deadbeef          	jal	t4,fffdda22 <_end+0xfffdb102>
    243c:	deadbeef          	jal	t4,fffdda26 <_end+0xfffdb106>
    2440:	deadbeef          	jal	t4,fffdda2a <_end+0xfffdb10a>
    2444:	deadbeef          	jal	t4,fffdda2e <_end+0xfffdb10e>
    2448:	deadbeef          	jal	t4,fffdda32 <_end+0xfffdb112>
    244c:	deadbeef          	jal	t4,fffdda36 <_end+0xfffdb116>
    2450:	deadbeef          	jal	t4,fffdda3a <_end+0xfffdb11a>
    2454:	deadbeef          	jal	t4,fffdda3e <_end+0xfffdb11e>
    2458:	deadbeef          	jal	t4,fffdda42 <_end+0xfffdb122>
    245c:	deadbeef          	jal	t4,fffdda46 <_end+0xfffdb126>
    2460:	deadbeef          	jal	t4,fffdda4a <_end+0xfffdb12a>
    2464:	deadbeef          	jal	t4,fffdda4e <_end+0xfffdb12e>
    2468:	deadbeef          	jal	t4,fffdda52 <_end+0xfffdb132>
    246c:	deadbeef          	jal	t4,fffdda56 <_end+0xfffdb136>
    2470:	deadbeef          	jal	t4,fffdda5a <_end+0xfffdb13a>
    2474:	deadbeef          	jal	t4,fffdda5e <_end+0xfffdb13e>
    2478:	deadbeef          	jal	t4,fffdda62 <_end+0xfffdb142>
    247c:	deadbeef          	jal	t4,fffdda66 <_end+0xfffdb146>
    2480:	deadbeef          	jal	t4,fffdda6a <_end+0xfffdb14a>
    2484:	deadbeef          	jal	t4,fffdda6e <_end+0xfffdb14e>
    2488:	deadbeef          	jal	t4,fffdda72 <_end+0xfffdb152>
    248c:	deadbeef          	jal	t4,fffdda76 <_end+0xfffdb156>
    2490:	deadbeef          	jal	t4,fffdda7a <_end+0xfffdb15a>
    2494:	deadbeef          	jal	t4,fffdda7e <_end+0xfffdb15e>
    2498:	deadbeef          	jal	t4,fffdda82 <_end+0xfffdb162>
    249c:	deadbeef          	jal	t4,fffdda86 <_end+0xfffdb166>
    24a0:	deadbeef          	jal	t4,fffdda8a <_end+0xfffdb16a>
    24a4:	deadbeef          	jal	t4,fffdda8e <_end+0xfffdb16e>
    24a8:	deadbeef          	jal	t4,fffdda92 <_end+0xfffdb172>
    24ac:	deadbeef          	jal	t4,fffdda96 <_end+0xfffdb176>
    24b0:	deadbeef          	jal	t4,fffdda9a <_end+0xfffdb17a>
    24b4:	deadbeef          	jal	t4,fffdda9e <_end+0xfffdb17e>
    24b8:	deadbeef          	jal	t4,fffddaa2 <_end+0xfffdb182>
    24bc:	deadbeef          	jal	t4,fffddaa6 <_end+0xfffdb186>
    24c0:	deadbeef          	jal	t4,fffddaaa <_end+0xfffdb18a>
    24c4:	deadbeef          	jal	t4,fffddaae <_end+0xfffdb18e>
    24c8:	deadbeef          	jal	t4,fffddab2 <_end+0xfffdb192>
    24cc:	deadbeef          	jal	t4,fffddab6 <_end+0xfffdb196>
    24d0:	deadbeef          	jal	t4,fffddaba <_end+0xfffdb19a>
    24d4:	deadbeef          	jal	t4,fffddabe <_end+0xfffdb19e>
    24d8:	deadbeef          	jal	t4,fffddac2 <_end+0xfffdb1a2>
    24dc:	deadbeef          	jal	t4,fffddac6 <_end+0xfffdb1a6>
    24e0:	deadbeef          	jal	t4,fffddaca <_end+0xfffdb1aa>
    24e4:	deadbeef          	jal	t4,fffddace <_end+0xfffdb1ae>
    24e8:	deadbeef          	jal	t4,fffddad2 <_end+0xfffdb1b2>
    24ec:	deadbeef          	jal	t4,fffddad6 <_end+0xfffdb1b6>
    24f0:	deadbeef          	jal	t4,fffddada <_end+0xfffdb1ba>
    24f4:	deadbeef          	jal	t4,fffddade <_end+0xfffdb1be>
    24f8:	deadbeef          	jal	t4,fffddae2 <_end+0xfffdb1c2>
    24fc:	deadbeef          	jal	t4,fffddae6 <_end+0xfffdb1c6>
    2500:	deadbeef          	jal	t4,fffddaea <_end+0xfffdb1ca>
    2504:	deadbeef          	jal	t4,fffddaee <_end+0xfffdb1ce>
    2508:	deadbeef          	jal	t4,fffddaf2 <_end+0xfffdb1d2>
    250c:	deadbeef          	jal	t4,fffddaf6 <_end+0xfffdb1d6>
    2510:	deadbeef          	jal	t4,fffddafa <_end+0xfffdb1da>
    2514:	deadbeef          	jal	t4,fffddafe <_end+0xfffdb1de>
    2518:	deadbeef          	jal	t4,fffddb02 <_end+0xfffdb1e2>
    251c:	deadbeef          	jal	t4,fffddb06 <_end+0xfffdb1e6>
    2520:	deadbeef          	jal	t4,fffddb0a <_end+0xfffdb1ea>
    2524:	deadbeef          	jal	t4,fffddb0e <_end+0xfffdb1ee>
    2528:	deadbeef          	jal	t4,fffddb12 <_end+0xfffdb1f2>
    252c:	deadbeef          	jal	t4,fffddb16 <_end+0xfffdb1f6>
    2530:	deadbeef          	jal	t4,fffddb1a <_end+0xfffdb1fa>
    2534:	deadbeef          	jal	t4,fffddb1e <_end+0xfffdb1fe>
    2538:	deadbeef          	jal	t4,fffddb22 <_end+0xfffdb202>
    253c:	deadbeef          	jal	t4,fffddb26 <_end+0xfffdb206>
    2540:	deadbeef          	jal	t4,fffddb2a <_end+0xfffdb20a>
    2544:	deadbeef          	jal	t4,fffddb2e <_end+0xfffdb20e>
    2548:	deadbeef          	jal	t4,fffddb32 <_end+0xfffdb212>
    254c:	deadbeef          	jal	t4,fffddb36 <_end+0xfffdb216>
    2550:	deadbeef          	jal	t4,fffddb3a <_end+0xfffdb21a>
    2554:	deadbeef          	jal	t4,fffddb3e <_end+0xfffdb21e>
    2558:	deadbeef          	jal	t4,fffddb42 <_end+0xfffdb222>
    255c:	deadbeef          	jal	t4,fffddb46 <_end+0xfffdb226>
    2560:	deadbeef          	jal	t4,fffddb4a <_end+0xfffdb22a>
    2564:	deadbeef          	jal	t4,fffddb4e <_end+0xfffdb22e>
    2568:	deadbeef          	jal	t4,fffddb52 <_end+0xfffdb232>
    256c:	deadbeef          	jal	t4,fffddb56 <_end+0xfffdb236>
    2570:	deadbeef          	jal	t4,fffddb5a <_end+0xfffdb23a>
    2574:	deadbeef          	jal	t4,fffddb5e <_end+0xfffdb23e>
    2578:	deadbeef          	jal	t4,fffddb62 <_end+0xfffdb242>
    257c:	deadbeef          	jal	t4,fffddb66 <_end+0xfffdb246>
    2580:	deadbeef          	jal	t4,fffddb6a <_end+0xfffdb24a>
    2584:	deadbeef          	jal	t4,fffddb6e <_end+0xfffdb24e>
    2588:	deadbeef          	jal	t4,fffddb72 <_end+0xfffdb252>
    258c:	deadbeef          	jal	t4,fffddb76 <_end+0xfffdb256>
    2590:	deadbeef          	jal	t4,fffddb7a <_end+0xfffdb25a>
    2594:	deadbeef          	jal	t4,fffddb7e <_end+0xfffdb25e>
    2598:	deadbeef          	jal	t4,fffddb82 <_end+0xfffdb262>
    259c:	deadbeef          	jal	t4,fffddb86 <_end+0xfffdb266>
    25a0:	deadbeef          	jal	t4,fffddb8a <_end+0xfffdb26a>
    25a4:	deadbeef          	jal	t4,fffddb8e <_end+0xfffdb26e>
    25a8:	deadbeef          	jal	t4,fffddb92 <_end+0xfffdb272>
    25ac:	deadbeef          	jal	t4,fffddb96 <_end+0xfffdb276>
    25b0:	deadbeef          	jal	t4,fffddb9a <_end+0xfffdb27a>
    25b4:	deadbeef          	jal	t4,fffddb9e <_end+0xfffdb27e>
    25b8:	deadbeef          	jal	t4,fffddba2 <_end+0xfffdb282>
    25bc:	deadbeef          	jal	t4,fffddba6 <_end+0xfffdb286>
    25c0:	deadbeef          	jal	t4,fffddbaa <_end+0xfffdb28a>
    25c4:	deadbeef          	jal	t4,fffddbae <_end+0xfffdb28e>
    25c8:	deadbeef          	jal	t4,fffddbb2 <_end+0xfffdb292>
    25cc:	deadbeef          	jal	t4,fffddbb6 <_end+0xfffdb296>
    25d0:	deadbeef          	jal	t4,fffddbba <_end+0xfffdb29a>
    25d4:	deadbeef          	jal	t4,fffddbbe <_end+0xfffdb29e>
    25d8:	deadbeef          	jal	t4,fffddbc2 <_end+0xfffdb2a2>
    25dc:	deadbeef          	jal	t4,fffddbc6 <_end+0xfffdb2a6>
    25e0:	deadbeef          	jal	t4,fffddbca <_end+0xfffdb2aa>
    25e4:	deadbeef          	jal	t4,fffddbce <_end+0xfffdb2ae>
    25e8:	deadbeef          	jal	t4,fffddbd2 <_end+0xfffdb2b2>
    25ec:	deadbeef          	jal	t4,fffddbd6 <_end+0xfffdb2b6>
    25f0:	deadbeef          	jal	t4,fffddbda <_end+0xfffdb2ba>
    25f4:	deadbeef          	jal	t4,fffddbde <_end+0xfffdb2be>
    25f8:	deadbeef          	jal	t4,fffddbe2 <_end+0xfffdb2c2>
    25fc:	deadbeef          	jal	t4,fffddbe6 <_end+0xfffdb2c6>
    2600:	deadbeef          	jal	t4,fffddbea <_end+0xfffdb2ca>
    2604:	deadbeef          	jal	t4,fffddbee <_end+0xfffdb2ce>
    2608:	deadbeef          	jal	t4,fffddbf2 <_end+0xfffdb2d2>
    260c:	deadbeef          	jal	t4,fffddbf6 <_end+0xfffdb2d6>
    2610:	deadbeef          	jal	t4,fffddbfa <_end+0xfffdb2da>
    2614:	deadbeef          	jal	t4,fffddbfe <_end+0xfffdb2de>
    2618:	deadbeef          	jal	t4,fffddc02 <_end+0xfffdb2e2>
    261c:	deadbeef          	jal	t4,fffddc06 <_end+0xfffdb2e6>
    2620:	deadbeef          	jal	t4,fffddc0a <_end+0xfffdb2ea>
    2624:	deadbeef          	jal	t4,fffddc0e <_end+0xfffdb2ee>
    2628:	deadbeef          	jal	t4,fffddc12 <_end+0xfffdb2f2>
    262c:	deadbeef          	jal	t4,fffddc16 <_end+0xfffdb2f6>
    2630:	deadbeef          	jal	t4,fffddc1a <_end+0xfffdb2fa>
    2634:	deadbeef          	jal	t4,fffddc1e <_end+0xfffdb2fe>
    2638:	deadbeef          	jal	t4,fffddc22 <_end+0xfffdb302>
    263c:	deadbeef          	jal	t4,fffddc26 <_end+0xfffdb306>
    2640:	deadbeef          	jal	t4,fffddc2a <_end+0xfffdb30a>
    2644:	deadbeef          	jal	t4,fffddc2e <_end+0xfffdb30e>
    2648:	deadbeef          	jal	t4,fffddc32 <_end+0xfffdb312>
    264c:	deadbeef          	jal	t4,fffddc36 <_end+0xfffdb316>
    2650:	deadbeef          	jal	t4,fffddc3a <_end+0xfffdb31a>
    2654:	deadbeef          	jal	t4,fffddc3e <_end+0xfffdb31e>
    2658:	deadbeef          	jal	t4,fffddc42 <_end+0xfffdb322>
    265c:	deadbeef          	jal	t4,fffddc46 <_end+0xfffdb326>
    2660:	deadbeef          	jal	t4,fffddc4a <_end+0xfffdb32a>
    2664:	deadbeef          	jal	t4,fffddc4e <_end+0xfffdb32e>
    2668:	deadbeef          	jal	t4,fffddc52 <_end+0xfffdb332>
    266c:	deadbeef          	jal	t4,fffddc56 <_end+0xfffdb336>
    2670:	deadbeef          	jal	t4,fffddc5a <_end+0xfffdb33a>
    2674:	deadbeef          	jal	t4,fffddc5e <_end+0xfffdb33e>
    2678:	deadbeef          	jal	t4,fffddc62 <_end+0xfffdb342>
    267c:	deadbeef          	jal	t4,fffddc66 <_end+0xfffdb346>
    2680:	deadbeef          	jal	t4,fffddc6a <_end+0xfffdb34a>
    2684:	deadbeef          	jal	t4,fffddc6e <_end+0xfffdb34e>
    2688:	deadbeef          	jal	t4,fffddc72 <_end+0xfffdb352>
    268c:	deadbeef          	jal	t4,fffddc76 <_end+0xfffdb356>
    2690:	deadbeef          	jal	t4,fffddc7a <_end+0xfffdb35a>
    2694:	deadbeef          	jal	t4,fffddc7e <_end+0xfffdb35e>
    2698:	deadbeef          	jal	t4,fffddc82 <_end+0xfffdb362>
    269c:	deadbeef          	jal	t4,fffddc86 <_end+0xfffdb366>
    26a0:	deadbeef          	jal	t4,fffddc8a <_end+0xfffdb36a>
    26a4:	deadbeef          	jal	t4,fffddc8e <_end+0xfffdb36e>
    26a8:	deadbeef          	jal	t4,fffddc92 <_end+0xfffdb372>
    26ac:	deadbeef          	jal	t4,fffddc96 <_end+0xfffdb376>
    26b0:	deadbeef          	jal	t4,fffddc9a <_end+0xfffdb37a>
    26b4:	deadbeef          	jal	t4,fffddc9e <_end+0xfffdb37e>
    26b8:	deadbeef          	jal	t4,fffddca2 <_end+0xfffdb382>
    26bc:	deadbeef          	jal	t4,fffddca6 <_end+0xfffdb386>
    26c0:	deadbeef          	jal	t4,fffddcaa <_end+0xfffdb38a>
    26c4:	deadbeef          	jal	t4,fffddcae <_end+0xfffdb38e>
    26c8:	deadbeef          	jal	t4,fffddcb2 <_end+0xfffdb392>
    26cc:	deadbeef          	jal	t4,fffddcb6 <_end+0xfffdb396>
    26d0:	deadbeef          	jal	t4,fffddcba <_end+0xfffdb39a>
    26d4:	deadbeef          	jal	t4,fffddcbe <_end+0xfffdb39e>
    26d8:	deadbeef          	jal	t4,fffddcc2 <_end+0xfffdb3a2>
    26dc:	deadbeef          	jal	t4,fffddcc6 <_end+0xfffdb3a6>
    26e0:	deadbeef          	jal	t4,fffddcca <_end+0xfffdb3aa>
    26e4:	deadbeef          	jal	t4,fffddcce <_end+0xfffdb3ae>
    26e8:	deadbeef          	jal	t4,fffddcd2 <_end+0xfffdb3b2>
    26ec:	deadbeef          	jal	t4,fffddcd6 <_end+0xfffdb3b6>
    26f0:	deadbeef          	jal	t4,fffddcda <_end+0xfffdb3ba>
    26f4:	deadbeef          	jal	t4,fffddcde <_end+0xfffdb3be>
    26f8:	deadbeef          	jal	t4,fffddce2 <_end+0xfffdb3c2>
    26fc:	deadbeef          	jal	t4,fffddce6 <_end+0xfffdb3c6>
    2700:	deadbeef          	jal	t4,fffddcea <_end+0xfffdb3ca>
    2704:	deadbeef          	jal	t4,fffddcee <_end+0xfffdb3ce>
    2708:	deadbeef          	jal	t4,fffddcf2 <_end+0xfffdb3d2>
    270c:	deadbeef          	jal	t4,fffddcf6 <_end+0xfffdb3d6>
    2710:	deadbeef          	jal	t4,fffddcfa <_end+0xfffdb3da>
    2714:	deadbeef          	jal	t4,fffddcfe <_end+0xfffdb3de>
    2718:	deadbeef          	jal	t4,fffddd02 <_end+0xfffdb3e2>
    271c:	deadbeef          	jal	t4,fffddd06 <_end+0xfffdb3e6>
    2720:	deadbeef          	jal	t4,fffddd0a <_end+0xfffdb3ea>
    2724:	deadbeef          	jal	t4,fffddd0e <_end+0xfffdb3ee>
    2728:	deadbeef          	jal	t4,fffddd12 <_end+0xfffdb3f2>
    272c:	deadbeef          	jal	t4,fffddd16 <_end+0xfffdb3f6>
    2730:	deadbeef          	jal	t4,fffddd1a <_end+0xfffdb3fa>
    2734:	deadbeef          	jal	t4,fffddd1e <_end+0xfffdb3fe>
    2738:	deadbeef          	jal	t4,fffddd22 <_end+0xfffdb402>
    273c:	deadbeef          	jal	t4,fffddd26 <_end+0xfffdb406>
    2740:	deadbeef          	jal	t4,fffddd2a <_end+0xfffdb40a>
    2744:	deadbeef          	jal	t4,fffddd2e <_end+0xfffdb40e>
    2748:	deadbeef          	jal	t4,fffddd32 <_end+0xfffdb412>
    274c:	deadbeef          	jal	t4,fffddd36 <_end+0xfffdb416>
    2750:	deadbeef          	jal	t4,fffddd3a <_end+0xfffdb41a>
    2754:	deadbeef          	jal	t4,fffddd3e <_end+0xfffdb41e>
    2758:	deadbeef          	jal	t4,fffddd42 <_end+0xfffdb422>
    275c:	deadbeef          	jal	t4,fffddd46 <_end+0xfffdb426>
    2760:	deadbeef          	jal	t4,fffddd4a <_end+0xfffdb42a>
    2764:	deadbeef          	jal	t4,fffddd4e <_end+0xfffdb42e>
    2768:	deadbeef          	jal	t4,fffddd52 <_end+0xfffdb432>
    276c:	deadbeef          	jal	t4,fffddd56 <_end+0xfffdb436>
    2770:	deadbeef          	jal	t4,fffddd5a <_end+0xfffdb43a>
    2774:	deadbeef          	jal	t4,fffddd5e <_end+0xfffdb43e>
    2778:	deadbeef          	jal	t4,fffddd62 <_end+0xfffdb442>
    277c:	deadbeef          	jal	t4,fffddd66 <_end+0xfffdb446>
    2780:	deadbeef          	jal	t4,fffddd6a <_end+0xfffdb44a>
    2784:	deadbeef          	jal	t4,fffddd6e <_end+0xfffdb44e>
    2788:	deadbeef          	jal	t4,fffddd72 <_end+0xfffdb452>
    278c:	deadbeef          	jal	t4,fffddd76 <_end+0xfffdb456>
    2790:	deadbeef          	jal	t4,fffddd7a <_end+0xfffdb45a>
    2794:	deadbeef          	jal	t4,fffddd7e <_end+0xfffdb45e>
    2798:	deadbeef          	jal	t4,fffddd82 <_end+0xfffdb462>
    279c:	deadbeef          	jal	t4,fffddd86 <_end+0xfffdb466>
    27a0:	deadbeef          	jal	t4,fffddd8a <_end+0xfffdb46a>
    27a4:	deadbeef          	jal	t4,fffddd8e <_end+0xfffdb46e>
    27a8:	deadbeef          	jal	t4,fffddd92 <_end+0xfffdb472>
    27ac:	deadbeef          	jal	t4,fffddd96 <_end+0xfffdb476>
    27b0:	deadbeef          	jal	t4,fffddd9a <_end+0xfffdb47a>
    27b4:	deadbeef          	jal	t4,fffddd9e <_end+0xfffdb47e>
    27b8:	deadbeef          	jal	t4,fffddda2 <_end+0xfffdb482>
    27bc:	deadbeef          	jal	t4,fffddda6 <_end+0xfffdb486>
    27c0:	deadbeef          	jal	t4,fffdddaa <_end+0xfffdb48a>
    27c4:	deadbeef          	jal	t4,fffdddae <_end+0xfffdb48e>
    27c8:	deadbeef          	jal	t4,fffdddb2 <_end+0xfffdb492>
    27cc:	deadbeef          	jal	t4,fffdddb6 <_end+0xfffdb496>
    27d0:	deadbeef          	jal	t4,fffdddba <_end+0xfffdb49a>
    27d4:	deadbeef          	jal	t4,fffdddbe <_end+0xfffdb49e>
    27d8:	deadbeef          	jal	t4,fffdddc2 <_end+0xfffdb4a2>
    27dc:	deadbeef          	jal	t4,fffdddc6 <_end+0xfffdb4a6>
    27e0:	deadbeef          	jal	t4,fffdddca <_end+0xfffdb4aa>
    27e4:	deadbeef          	jal	t4,fffdddce <_end+0xfffdb4ae>
    27e8:	deadbeef          	jal	t4,fffdddd2 <_end+0xfffdb4b2>
    27ec:	deadbeef          	jal	t4,fffdddd6 <_end+0xfffdb4b6>
    27f0:	deadbeef          	jal	t4,fffdddda <_end+0xfffdb4ba>
    27f4:	deadbeef          	jal	t4,fffdddde <_end+0xfffdb4be>
    27f8:	deadbeef          	jal	t4,fffddde2 <_end+0xfffdb4c2>
    27fc:	deadbeef          	jal	t4,fffddde6 <_end+0xfffdb4c6>
    2800:	deadbeef          	jal	t4,fffdddea <_end+0xfffdb4ca>
    2804:	deadbeef          	jal	t4,fffdddee <_end+0xfffdb4ce>
    2808:	deadbeef          	jal	t4,fffdddf2 <_end+0xfffdb4d2>
    280c:	deadbeef          	jal	t4,fffdddf6 <_end+0xfffdb4d6>
    2810:	deadbeef          	jal	t4,fffdddfa <_end+0xfffdb4da>
    2814:	deadbeef          	jal	t4,fffdddfe <_end+0xfffdb4de>
    2818:	deadbeef          	jal	t4,fffdde02 <_end+0xfffdb4e2>
    281c:	deadbeef          	jal	t4,fffdde06 <_end+0xfffdb4e6>
    2820:	deadbeef          	jal	t4,fffdde0a <_end+0xfffdb4ea>
    2824:	deadbeef          	jal	t4,fffdde0e <_end+0xfffdb4ee>
    2828:	deadbeef          	jal	t4,fffdde12 <_end+0xfffdb4f2>
    282c:	deadbeef          	jal	t4,fffdde16 <_end+0xfffdb4f6>
    2830:	deadbeef          	jal	t4,fffdde1a <_end+0xfffdb4fa>
    2834:	deadbeef          	jal	t4,fffdde1e <_end+0xfffdb4fe>
    2838:	deadbeef          	jal	t4,fffdde22 <_end+0xfffdb502>
    283c:	deadbeef          	jal	t4,fffdde26 <_end+0xfffdb506>
    2840:	deadbeef          	jal	t4,fffdde2a <_end+0xfffdb50a>
    2844:	deadbeef          	jal	t4,fffdde2e <_end+0xfffdb50e>
    2848:	deadbeef          	jal	t4,fffdde32 <_end+0xfffdb512>
    284c:	deadbeef          	jal	t4,fffdde36 <_end+0xfffdb516>
    2850:	deadbeef          	jal	t4,fffdde3a <_end+0xfffdb51a>
    2854:	deadbeef          	jal	t4,fffdde3e <_end+0xfffdb51e>
    2858:	deadbeef          	jal	t4,fffdde42 <_end+0xfffdb522>
    285c:	deadbeef          	jal	t4,fffdde46 <_end+0xfffdb526>
    2860:	deadbeef          	jal	t4,fffdde4a <_end+0xfffdb52a>
    2864:	deadbeef          	jal	t4,fffdde4e <_end+0xfffdb52e>
    2868:	deadbeef          	jal	t4,fffdde52 <_end+0xfffdb532>
    286c:	deadbeef          	jal	t4,fffdde56 <_end+0xfffdb536>
    2870:	deadbeef          	jal	t4,fffdde5a <_end+0xfffdb53a>
    2874:	deadbeef          	jal	t4,fffdde5e <_end+0xfffdb53e>
    2878:	deadbeef          	jal	t4,fffdde62 <_end+0xfffdb542>
    287c:	deadbeef          	jal	t4,fffdde66 <_end+0xfffdb546>
    2880:	deadbeef          	jal	t4,fffdde6a <_end+0xfffdb54a>
    2884:	deadbeef          	jal	t4,fffdde6e <_end+0xfffdb54e>
    2888:	deadbeef          	jal	t4,fffdde72 <_end+0xfffdb552>
    288c:	deadbeef          	jal	t4,fffdde76 <_end+0xfffdb556>
    2890:	deadbeef          	jal	t4,fffdde7a <_end+0xfffdb55a>
    2894:	deadbeef          	jal	t4,fffdde7e <_end+0xfffdb55e>
    2898:	deadbeef          	jal	t4,fffdde82 <_end+0xfffdb562>
    289c:	deadbeef          	jal	t4,fffdde86 <_end+0xfffdb566>
    28a0:	deadbeef          	jal	t4,fffdde8a <_end+0xfffdb56a>
    28a4:	deadbeef          	jal	t4,fffdde8e <_end+0xfffdb56e>
    28a8:	deadbeef          	jal	t4,fffdde92 <_end+0xfffdb572>
    28ac:	deadbeef          	jal	t4,fffdde96 <_end+0xfffdb576>
    28b0:	deadbeef          	jal	t4,fffdde9a <_end+0xfffdb57a>
    28b4:	deadbeef          	jal	t4,fffdde9e <_end+0xfffdb57e>
    28b8:	deadbeef          	jal	t4,fffddea2 <_end+0xfffdb582>
    28bc:	deadbeef          	jal	t4,fffddea6 <_end+0xfffdb586>
    28c0:	deadbeef          	jal	t4,fffddeaa <_end+0xfffdb58a>
    28c4:	deadbeef          	jal	t4,fffddeae <_end+0xfffdb58e>
    28c8:	deadbeef          	jal	t4,fffddeb2 <_end+0xfffdb592>
    28cc:	deadbeef          	jal	t4,fffddeb6 <_end+0xfffdb596>
    28d0:	deadbeef          	jal	t4,fffddeba <_end+0xfffdb59a>
    28d4:	deadbeef          	jal	t4,fffddebe <_end+0xfffdb59e>
    28d8:	deadbeef          	jal	t4,fffddec2 <_end+0xfffdb5a2>
    28dc:	deadbeef          	jal	t4,fffddec6 <_end+0xfffdb5a6>
    28e0:	deadbeef          	jal	t4,fffddeca <_end+0xfffdb5aa>
    28e4:	deadbeef          	jal	t4,fffddece <_end+0xfffdb5ae>
    28e8:	deadbeef          	jal	t4,fffdded2 <_end+0xfffdb5b2>
    28ec:	deadbeef          	jal	t4,fffdded6 <_end+0xfffdb5b6>
    28f0:	deadbeef          	jal	t4,fffddeda <_end+0xfffdb5ba>
    28f4:	deadbeef          	jal	t4,fffddede <_end+0xfffdb5be>
    28f8:	deadbeef          	jal	t4,fffddee2 <_end+0xfffdb5c2>
    28fc:	deadbeef          	jal	t4,fffddee6 <_end+0xfffdb5c6>
    2900:	deadbeef          	jal	t4,fffddeea <_end+0xfffdb5ca>
    2904:	deadbeef          	jal	t4,fffddeee <_end+0xfffdb5ce>
    2908:	deadbeef          	jal	t4,fffddef2 <_end+0xfffdb5d2>
    290c:	deadbeef          	jal	t4,fffddef6 <_end+0xfffdb5d6>
    2910:	deadbeef          	jal	t4,fffddefa <_end+0xfffdb5da>
    2914:	deadbeef          	jal	t4,fffddefe <_end+0xfffdb5de>
    2918:	deadbeef          	jal	t4,fffddf02 <_end+0xfffdb5e2>
    291c:	deadbeef          	jal	t4,fffddf06 <_end+0xfffdb5e6>

Desensamblado de la sección .riscv.attributes:

00000000 <.riscv.attributes>:
   0:	2241                	.2byte	0x2241
   2:	0000                	.2byte	0x0
   4:	7200                	.2byte	0x7200
   6:	7369                	.2byte	0x7369
   8:	01007663          	bgeu	zero,a6,14 <rvtest_entry_point+0x14>
   c:	0018                	.2byte	0x18
   e:	0000                	.2byte	0x0
  10:	7205                	.2byte	0x7205
  12:	3376                	.2byte	0x3376
  14:	6932                	.2byte	0x6932
  16:	7032                	.2byte	0x7032
  18:	5f30                	.2byte	0x5f30
  1a:	3266                	.2byte	0x3266
  1c:	3070                	.2byte	0x3070
  1e:	0800                	.2byte	0x800
  20:	0a01                	.2byte	0xa01
  22:	0b              	Address 0x22 is out of bounds.

