
/home/alejandro/Escritorio/test_riscv2.5/riscv-compliance/work/rv32i_m/F/fsub_b13-01.elf:     formato del fichero elf32-littleriscv


Desensamblado de la sección .text.init:

00000000 <rvtest_entry_point>:
       0:	feedc0b7          	lui	ra,0xfeedc
       4:	ead08093          	add	ra,ra,-339 # feedbead <_end+0xfeed91fd>
       8:	ff76e137          	lui	sp,0xff76e
       c:	f5610113          	add	sp,sp,-170 # ff76df56 <_end+0xff76b2a6>
      10:	7fbb71b7          	lui	gp,0x7fbb7
      14:	fab18193          	add	gp,gp,-85 # 7fbb6fab <_end+0x7fbb42fb>
      18:	bfddb237          	lui	tp,0xbfddb
      1c:	7d520213          	add	tp,tp,2005 # bfddb7d5 <_end+0xbfdd8b25>
      20:	00000297          	auipc	t0,0x0
      24:	0d828293          	add	t0,t0,216 # f8 <rvtest_code_begin>
      28:	00002317          	auipc	t1,0x2
      2c:	fd830313          	add	t1,t1,-40 # 2000 <rvtest_data_begin>
      30:	b7fbb3b7          	lui	t2,0xb7fbb
      34:	6fa38393          	add	t2,t2,1786 # b7fbb6fa <_end+0xb7fb8a4a>
      38:	5bfde437          	lui	s0,0x5bfde
      3c:	b7d40413          	add	s0,s0,-1155 # 5bfddb7d <_end+0x5bfdaecd>
      40:	adfef4b7          	lui	s1,0xadfef
      44:	dbe48493          	add	s1,s1,-578 # adfeedbe <_end+0xadfec10e>
      48:	56ff7537          	lui	a0,0x56ff7
      4c:	6df50513          	add	a0,a0,1759 # 56ff76df <_end+0x56ff4a2f>
      50:	ab7fc5b7          	lui	a1,0xab7fc
      54:	b6f58593          	add	a1,a1,-1169 # ab7fbb6f <_end+0xab7f8ebf>
      58:	d5bfe637          	lui	a2,0xd5bfe
      5c:	db760613          	add	a2,a2,-585 # d5bfddb7 <_end+0xd5bfb107>
      60:	eadff6b7          	lui	a3,0xeadff
      64:	edb68693          	add	a3,a3,-293 # eadfeedb <_end+0xeadfc22b>
      68:	f56ff737          	lui	a4,0xf56ff
      6c:	76d70713          	add	a4,a4,1901 # f56ff76d <_end+0xf56fcabd>
      70:	fab807b7          	lui	a5,0xfab80
      74:	bb678793          	add	a5,a5,-1098 # fab7fbb6 <_end+0xfab7cf06>
      78:	7d5c0837          	lui	a6,0x7d5c0
      7c:	ddb80813          	add	a6,a6,-549 # 7d5bfddb <_end+0x7d5bd12b>
      80:	beae08b7          	lui	a7,0xbeae0
      84:	eed88893          	add	a7,a7,-275 # beadfeed <_end+0xbeadd23d>
      88:	df570937          	lui	s2,0xdf570
      8c:	f7690913          	add	s2,s2,-138 # df56ff76 <_end+0xdf56d2c6>
      90:	6fab89b7          	lui	s3,0x6fab8
      94:	fbb98993          	add	s3,s3,-69 # 6fab7fbb <_end+0x6fab530b>
      98:	b7d5ca37          	lui	s4,0xb7d5c
      9c:	fdda0a13          	add	s4,s4,-35 # b7d5bfdd <_end+0xb7d5932d>
      a0:	dbeaeab7          	lui	s5,0xdbeae
      a4:	feea8a93          	add	s5,s5,-18 # dbeadfee <_end+0xdbeab33e>
      a8:	6df57b37          	lui	s6,0x6df57
      ac:	ff7b0b13          	add	s6,s6,-9 # 6df56ff7 <_end+0x6df54347>
      b0:	b6fabbb7          	lui	s7,0xb6fab
      b4:	7fbb8b93          	add	s7,s7,2043 # b6fab7fb <_end+0xb6fa8b4b>
      b8:	db7d6c37          	lui	s8,0xdb7d6
      bc:	bfdc0c13          	add	s8,s8,-1027 # db7d5bfd <_end+0xdb7d2f4d>
      c0:	edbebcb7          	lui	s9,0xedbeb
      c4:	dfec8c93          	add	s9,s9,-514 # edbeadfe <_end+0xedbe814e>
      c8:	76df5d37          	lui	s10,0x76df5
      cc:	6ffd0d13          	add	s10,s10,1791 # 76df56ff <_end+0x76df2a4f>
      d0:	bb6fbdb7          	lui	s11,0xbb6fb
      d4:	b7fd8d93          	add	s11,s11,-1153 # bb6fab7f <_end+0xbb6f7ecf>
      d8:	ddb7de37          	lui	t3,0xddb7d
      dc:	5bfe0e13          	add	t3,t3,1471 # ddb7d5bf <_end+0xddb7a90f>
      e0:	eedbfeb7          	lui	t4,0xeedbf
      e4:	adfe8e93          	add	t4,t4,-1313 # eedbeadf <_end+0xeedbbe2f>
      e8:	f76dff37          	lui	t5,0xf76df
      ec:	56ff0f13          	add	t5,t5,1391 # f76df56f <_end+0xf76dc8bf>
      f0:	fbb70fb7          	lui	t6,0xfbb70
      f4:	ab7f8f93          	add	t6,t6,-1353 # fbb6fab7 <_end+0xfbb6ce07>

000000f8 <rvtest_code_begin>:
      f8:	00002537          	lui	a0,0x2
      fc:	30052073          	csrs	mstatus,a0
     100:	00002817          	auipc	a6,0x2
     104:	f0480813          	add	a6,a6,-252 # 2004 <test_fp>
     108:	00002797          	auipc	a5,0x2
     10c:	55878793          	add	a5,a5,1368 # 2660 <data_begin>

00000110 <inst_0>:
     110:	00082e07          	flw	ft8,0(a6)
     114:	00482e07          	flw	ft8,4(a6)
     118:	00205073          	fsrmi	zero,0
     11c:	09ce7e53          	fsub.s	ft8,ft8,ft8
     120:	001028f3          	frflags	a7
     124:	01c7a027          	fsw	ft8,0(a5)
     128:	0117a223          	sw	a7,4(a5)

0000012c <inst_1>:
     12c:	00882187          	flw	ft3,8(a6)
     130:	00c82707          	flw	fa4,12(a6)
     134:	00205073          	fsrmi	zero,0
     138:	08e1f1d3          	fsub.s	ft3,ft3,fa4
     13c:	001028f3          	frflags	a7
     140:	0037a427          	fsw	ft3,8(a5)
     144:	0117a623          	sw	a7,12(a5)

00000148 <inst_2>:
     148:	01082287          	flw	ft5,16(a6)
     14c:	01482f87          	flw	ft11,20(a6)
     150:	00205073          	fsrmi	zero,0
     154:	09f2f653          	fsub.s	fa2,ft5,ft11
     158:	001028f3          	frflags	a7
     15c:	00c7a827          	fsw	fa2,16(a5)
     160:	0117aa23          	sw	a7,20(a5)

00000164 <inst_3>:
     164:	01882c87          	flw	fs9,24(a6)
     168:	01c82687          	flw	fa3,28(a6)
     16c:	00205073          	fsrmi	zero,0
     170:	08dcf6d3          	fsub.s	fa3,fs9,fa3
     174:	001028f3          	frflags	a7
     178:	00d7ac27          	fsw	fa3,24(a5)
     17c:	0117ae23          	sw	a7,28(a5)

00000180 <inst_4>:
     180:	02082787          	flw	fa5,32(a6)
     184:	02482787          	flw	fa5,36(a6)
     188:	00205073          	fsrmi	zero,0
     18c:	08f7fa53          	fsub.s	fs4,fa5,fa5
     190:	001028f3          	frflags	a7
     194:	0347a027          	fsw	fs4,32(a5)
     198:	0317a223          	sw	a7,36(a5)

0000019c <inst_5>:
     19c:	02882a07          	flw	fs4,40(a6)
     1a0:	02c82207          	flw	ft4,44(a6)
     1a4:	00205073          	fsrmi	zero,0
     1a8:	084a75d3          	fsub.s	fa1,fs4,ft4
     1ac:	001028f3          	frflags	a7
     1b0:	02b7a427          	fsw	fa1,40(a5)
     1b4:	0317a623          	sw	a7,44(a5)

000001b8 <inst_6>:
     1b8:	03082f07          	flw	ft10,48(a6)
     1bc:	03482a87          	flw	fs5,52(a6)
     1c0:	00205073          	fsrmi	zero,0
     1c4:	095f79d3          	fsub.s	fs3,ft10,fs5
     1c8:	001028f3          	frflags	a7
     1cc:	0337a827          	fsw	fs3,48(a5)
     1d0:	0317aa23          	sw	a7,52(a5)

000001d4 <inst_7>:
     1d4:	03882f87          	flw	ft11,56(a6)
     1d8:	03c82e87          	flw	ft9,60(a6)
     1dc:	00205073          	fsrmi	zero,0
     1e0:	09dffcd3          	fsub.s	fs9,ft11,ft9
     1e4:	001028f3          	frflags	a7
     1e8:	0397ac27          	fsw	fs9,56(a5)
     1ec:	0317ae23          	sw	a7,60(a5)

000001f0 <inst_8>:
     1f0:	04082e87          	flw	ft9,64(a6)
     1f4:	04482087          	flw	ft1,68(a6)
     1f8:	00205073          	fsrmi	zero,0
     1fc:	081ef8d3          	fsub.s	fa7,ft9,ft1
     200:	001028f3          	frflags	a7
     204:	0517a027          	fsw	fa7,64(a5)
     208:	0517a223          	sw	a7,68(a5)

0000020c <inst_9>:
     20c:	04882d07          	flw	fs10,72(a6)
     210:	04c82f07          	flw	ft10,76(a6)
     214:	00205073          	fsrmi	zero,0
     218:	09ed7bd3          	fsub.s	fs7,fs10,ft10
     21c:	001028f3          	frflags	a7
     220:	0577a427          	fsw	fs7,72(a5)
     224:	0517a623          	sw	a7,76(a5)

00000228 <inst_10>:
     228:	05082687          	flw	fa3,80(a6)
     22c:	05482007          	flw	ft0,84(a6)
     230:	00205073          	fsrmi	zero,0
     234:	0806fc53          	fsub.s	fs8,fa3,ft0
     238:	001028f3          	frflags	a7
     23c:	0587a827          	fsw	fs8,80(a5)
     240:	0517aa23          	sw	a7,84(a5)

00000244 <inst_11>:
     244:	05882507          	flw	fa0,88(a6)
     248:	05c82307          	flw	ft6,92(a6)
     24c:	00205073          	fsrmi	zero,0
     250:	08657d53          	fsub.s	fs10,fa0,ft6
     254:	001028f3          	frflags	a7
     258:	05a7ac27          	fsw	fs10,88(a5)
     25c:	0517ae23          	sw	a7,92(a5)

00000260 <inst_12>:
     260:	06082b87          	flw	fs7,96(a6)
     264:	06482487          	flw	fs1,100(a6)
     268:	00205073          	fsrmi	zero,0
     26c:	089bf2d3          	fsub.s	ft5,fs7,fs1
     270:	001028f3          	frflags	a7
     274:	0657a027          	fsw	ft5,96(a5)
     278:	0717a223          	sw	a7,100(a5)

0000027c <inst_13>:
     27c:	06882c07          	flw	fs8,104(a6)
     280:	06c82d07          	flw	fs10,108(a6)
     284:	00205073          	fsrmi	zero,0
     288:	09ac70d3          	fsub.s	ft1,fs8,fs10
     28c:	001028f3          	frflags	a7
     290:	0617a427          	fsw	ft1,104(a5)
     294:	0717a623          	sw	a7,108(a5)

00000298 <inst_14>:
     298:	07082907          	flw	fs2,112(a6)
     29c:	07482887          	flw	fa7,116(a6)
     2a0:	00205073          	fsrmi	zero,0
     2a4:	09197553          	fsub.s	fa0,fs2,fa7
     2a8:	001028f3          	frflags	a7
     2ac:	06a7a827          	fsw	fa0,112(a5)
     2b0:	0717aa23          	sw	a7,116(a5)

000002b4 <inst_15>:
     2b4:	07882b07          	flw	fs6,120(a6)
     2b8:	07c82b87          	flw	fs7,124(a6)
     2bc:	00205073          	fsrmi	zero,0
     2c0:	097b7dd3          	fsub.s	fs11,fs6,fs7
     2c4:	001028f3          	frflags	a7
     2c8:	07b7ac27          	fsw	fs11,120(a5)
     2cc:	0717ae23          	sw	a7,124(a5)

000002d0 <inst_16>:
     2d0:	08082d87          	flw	fs11,128(a6)
     2d4:	08482a07          	flw	fs4,132(a6)
     2d8:	00205073          	fsrmi	zero,0
     2dc:	094dffd3          	fsub.s	ft11,fs11,fs4
     2e0:	001028f3          	frflags	a7
     2e4:	09f7a027          	fsw	ft11,128(a5)
     2e8:	0917a223          	sw	a7,132(a5)

000002ec <inst_17>:
     2ec:	08882307          	flw	ft6,136(a6)
     2f0:	08c82507          	flw	fa0,140(a6)
     2f4:	00205073          	fsrmi	zero,0
     2f8:	08a37053          	fsub.s	ft0,ft6,fa0
     2fc:	001028f3          	frflags	a7
     300:	0807a427          	fsw	ft0,136(a5)
     304:	0917a623          	sw	a7,140(a5)

00000308 <inst_18>:
     308:	09082107          	flw	ft2,144(a6)
     30c:	09482287          	flw	ft5,148(a6)
     310:	00205073          	fsrmi	zero,0
     314:	085177d3          	fsub.s	fa5,ft2,ft5
     318:	001028f3          	frflags	a7
     31c:	08f7a827          	fsw	fa5,144(a5)
     320:	0917aa23          	sw	a7,148(a5)

00000324 <inst_19>:
     324:	09882587          	flw	fa1,152(a6)
     328:	09c82387          	flw	ft7,156(a6)
     32c:	00205073          	fsrmi	zero,0
     330:	0875fad3          	fsub.s	fs5,fa1,ft7
     334:	001028f3          	frflags	a7
     338:	0957ac27          	fsw	fs5,152(a5)
     33c:	0917ae23          	sw	a7,156(a5)

00000340 <inst_20>:
     340:	0a082207          	flw	ft4,160(a6)
     344:	0a482107          	flw	ft2,164(a6)
     348:	00205073          	fsrmi	zero,0
     34c:	08227853          	fsub.s	fa6,ft4,ft2
     350:	001028f3          	frflags	a7
     354:	0b07a027          	fsw	fa6,160(a5)
     358:	0b17a223          	sw	a7,164(a5)

0000035c <inst_21>:
     35c:	0a882887          	flw	fa7,168(a6)
     360:	0ac82407          	flw	fs0,172(a6)
     364:	00205073          	fsrmi	zero,0
     368:	0888f953          	fsub.s	fs2,fa7,fs0
     36c:	001028f3          	frflags	a7
     370:	0b27a427          	fsw	fs2,168(a5)
     374:	0b17a623          	sw	a7,172(a5)

00000378 <inst_22>:
     378:	0b082807          	flw	fa6,176(a6)
     37c:	0b482587          	flw	fa1,180(a6)
     380:	00205073          	fsrmi	zero,0
     384:	08b87753          	fsub.s	fa4,fa6,fa1
     388:	001028f3          	frflags	a7
     38c:	0ae7a827          	fsw	fa4,176(a5)
     390:	0b17aa23          	sw	a7,180(a5)

00000394 <inst_23>:
     394:	0b882987          	flw	fs3,184(a6)
     398:	0bc82b07          	flw	fs6,188(a6)
     39c:	00205073          	fsrmi	zero,0
     3a0:	0969f453          	fsub.s	fs0,fs3,fs6
     3a4:	001028f3          	frflags	a7
     3a8:	0a87ac27          	fsw	fs0,184(a5)
     3ac:	0b17ae23          	sw	a7,188(a5)

000003b0 <inst_24>:
     3b0:	0c082407          	flw	fs0,192(a6)
     3b4:	0c482907          	flw	fs2,196(a6)
     3b8:	00205073          	fsrmi	zero,0
     3bc:	09247353          	fsub.s	ft6,fs0,fs2
     3c0:	001028f3          	frflags	a7
     3c4:	0c67a027          	fsw	ft6,192(a5)
     3c8:	0d17a223          	sw	a7,196(a5)

000003cc <inst_25>:
     3cc:	0c882007          	flw	ft0,200(a6)
     3d0:	0cc82c07          	flw	fs8,204(a6)
     3d4:	00205073          	fsrmi	zero,0
     3d8:	09807153          	fsub.s	ft2,ft0,fs8
     3dc:	001028f3          	frflags	a7
     3e0:	0c27a427          	fsw	ft2,200(a5)
     3e4:	0d17a623          	sw	a7,204(a5)

000003e8 <inst_26>:
     3e8:	0d082707          	flw	fa4,208(a6)
     3ec:	0d482187          	flw	ft3,212(a6)
     3f0:	00205073          	fsrmi	zero,0
     3f4:	08377ed3          	fsub.s	ft9,fa4,ft3
     3f8:	001028f3          	frflags	a7
     3fc:	0dd7a827          	fsw	ft9,208(a5)
     400:	0d17aa23          	sw	a7,212(a5)

00000404 <inst_27>:
     404:	0d882387          	flw	ft7,216(a6)
     408:	0dc82607          	flw	fa2,220(a6)
     40c:	00205073          	fsrmi	zero,0
     410:	08c3ff53          	fsub.s	ft10,ft7,fa2
     414:	001028f3          	frflags	a7
     418:	0de7ac27          	fsw	ft10,216(a5)
     41c:	0d17ae23          	sw	a7,220(a5)

00000420 <inst_28>:
     420:	0e082487          	flw	fs1,224(a6)
     424:	0e482807          	flw	fa6,228(a6)
     428:	00205073          	fsrmi	zero,0
     42c:	0904f3d3          	fsub.s	ft7,fs1,fa6
     430:	001028f3          	frflags	a7
     434:	0e77a027          	fsw	ft7,224(a5)
     438:	0f17a223          	sw	a7,228(a5)

0000043c <inst_29>:
     43c:	0e882087          	flw	ft1,232(a6)
     440:	0ec82c87          	flw	fs9,236(a6)
     444:	00205073          	fsrmi	zero,0
     448:	0990f4d3          	fsub.s	fs1,ft1,fs9
     44c:	001028f3          	frflags	a7
     450:	0e97a427          	fsw	fs1,232(a5)
     454:	0f17a623          	sw	a7,236(a5)

00000458 <inst_30>:
     458:	0f082a87          	flw	fs5,240(a6)
     45c:	0f482d87          	flw	fs11,244(a6)
     460:	00205073          	fsrmi	zero,0
     464:	09baf253          	fsub.s	ft4,fs5,fs11
     468:	001028f3          	frflags	a7
     46c:	0e47a827          	fsw	ft4,240(a5)
     470:	0f17aa23          	sw	a7,244(a5)

00000474 <inst_31>:
     474:	0f882607          	flw	fa2,248(a6)
     478:	0fc82987          	flw	fs3,252(a6)
     47c:	00205073          	fsrmi	zero,0
     480:	09367b53          	fsub.s	fs6,fa2,fs3
     484:	001028f3          	frflags	a7
     488:	0f67ac27          	fsw	fs6,248(a5)
     48c:	0f17ae23          	sw	a7,252(a5)

00000490 <inst_32>:
     490:	10082507          	flw	fa0,256(a6)
     494:	10482587          	flw	fa1,260(a6)
     498:	00205073          	fsrmi	zero,0
     49c:	08b57653          	fsub.s	fa2,fa0,fa1
     4a0:	001028f3          	frflags	a7
     4a4:	10c7a027          	fsw	fa2,256(a5)
     4a8:	1117a223          	sw	a7,260(a5)

000004ac <inst_33>:
     4ac:	10882507          	flw	fa0,264(a6)
     4b0:	10c82587          	flw	fa1,268(a6)
     4b4:	00205073          	fsrmi	zero,0
     4b8:	08b57653          	fsub.s	fa2,fa0,fa1
     4bc:	001028f3          	frflags	a7
     4c0:	10c7a427          	fsw	fa2,264(a5)
     4c4:	1117a623          	sw	a7,268(a5)

000004c8 <inst_34>:
     4c8:	11082507          	flw	fa0,272(a6)
     4cc:	11482587          	flw	fa1,276(a6)
     4d0:	00205073          	fsrmi	zero,0
     4d4:	08b57653          	fsub.s	fa2,fa0,fa1
     4d8:	001028f3          	frflags	a7
     4dc:	10c7a827          	fsw	fa2,272(a5)
     4e0:	1117aa23          	sw	a7,276(a5)

000004e4 <inst_35>:
     4e4:	11882507          	flw	fa0,280(a6)
     4e8:	11c82587          	flw	fa1,284(a6)
     4ec:	00205073          	fsrmi	zero,0
     4f0:	08b57653          	fsub.s	fa2,fa0,fa1
     4f4:	001028f3          	frflags	a7
     4f8:	10c7ac27          	fsw	fa2,280(a5)
     4fc:	1117ae23          	sw	a7,284(a5)

00000500 <inst_36>:
     500:	12082507          	flw	fa0,288(a6)
     504:	12482587          	flw	fa1,292(a6)
     508:	00205073          	fsrmi	zero,0
     50c:	08b57653          	fsub.s	fa2,fa0,fa1
     510:	001028f3          	frflags	a7
     514:	12c7a027          	fsw	fa2,288(a5)
     518:	1317a223          	sw	a7,292(a5)

0000051c <inst_37>:
     51c:	12882507          	flw	fa0,296(a6)
     520:	12c82587          	flw	fa1,300(a6)
     524:	00205073          	fsrmi	zero,0
     528:	08b57653          	fsub.s	fa2,fa0,fa1
     52c:	001028f3          	frflags	a7
     530:	12c7a427          	fsw	fa2,296(a5)
     534:	1317a623          	sw	a7,300(a5)

00000538 <inst_38>:
     538:	13082507          	flw	fa0,304(a6)
     53c:	13482587          	flw	fa1,308(a6)
     540:	00205073          	fsrmi	zero,0
     544:	08b57653          	fsub.s	fa2,fa0,fa1
     548:	001028f3          	frflags	a7
     54c:	12c7a827          	fsw	fa2,304(a5)
     550:	1317aa23          	sw	a7,308(a5)

00000554 <inst_39>:
     554:	13882507          	flw	fa0,312(a6)
     558:	13c82587          	flw	fa1,316(a6)
     55c:	00205073          	fsrmi	zero,0
     560:	08b57653          	fsub.s	fa2,fa0,fa1
     564:	001028f3          	frflags	a7
     568:	12c7ac27          	fsw	fa2,312(a5)
     56c:	1317ae23          	sw	a7,316(a5)

00000570 <inst_40>:
     570:	14082507          	flw	fa0,320(a6)
     574:	14482587          	flw	fa1,324(a6)
     578:	00205073          	fsrmi	zero,0
     57c:	08b57653          	fsub.s	fa2,fa0,fa1
     580:	001028f3          	frflags	a7
     584:	14c7a027          	fsw	fa2,320(a5)
     588:	1517a223          	sw	a7,324(a5)

0000058c <inst_41>:
     58c:	14882507          	flw	fa0,328(a6)
     590:	14c82587          	flw	fa1,332(a6)
     594:	00205073          	fsrmi	zero,0
     598:	08b57653          	fsub.s	fa2,fa0,fa1
     59c:	001028f3          	frflags	a7
     5a0:	14c7a427          	fsw	fa2,328(a5)
     5a4:	1517a623          	sw	a7,332(a5)

000005a8 <inst_42>:
     5a8:	15082507          	flw	fa0,336(a6)
     5ac:	15482587          	flw	fa1,340(a6)
     5b0:	00205073          	fsrmi	zero,0
     5b4:	08b57653          	fsub.s	fa2,fa0,fa1
     5b8:	001028f3          	frflags	a7
     5bc:	14c7a827          	fsw	fa2,336(a5)
     5c0:	1517aa23          	sw	a7,340(a5)

000005c4 <inst_43>:
     5c4:	15882507          	flw	fa0,344(a6)
     5c8:	15c82587          	flw	fa1,348(a6)
     5cc:	00205073          	fsrmi	zero,0
     5d0:	08b57653          	fsub.s	fa2,fa0,fa1
     5d4:	001028f3          	frflags	a7
     5d8:	14c7ac27          	fsw	fa2,344(a5)
     5dc:	1517ae23          	sw	a7,348(a5)

000005e0 <inst_44>:
     5e0:	16082507          	flw	fa0,352(a6)
     5e4:	16482587          	flw	fa1,356(a6)
     5e8:	00205073          	fsrmi	zero,0
     5ec:	08b57653          	fsub.s	fa2,fa0,fa1
     5f0:	001028f3          	frflags	a7
     5f4:	16c7a027          	fsw	fa2,352(a5)
     5f8:	1717a223          	sw	a7,356(a5)

000005fc <inst_45>:
     5fc:	16882507          	flw	fa0,360(a6)
     600:	16c82587          	flw	fa1,364(a6)
     604:	00205073          	fsrmi	zero,0
     608:	08b57653          	fsub.s	fa2,fa0,fa1
     60c:	001028f3          	frflags	a7
     610:	16c7a427          	fsw	fa2,360(a5)
     614:	1717a623          	sw	a7,364(a5)

00000618 <inst_46>:
     618:	17082507          	flw	fa0,368(a6)
     61c:	17482587          	flw	fa1,372(a6)
     620:	00205073          	fsrmi	zero,0
     624:	08b57653          	fsub.s	fa2,fa0,fa1
     628:	001028f3          	frflags	a7
     62c:	16c7a827          	fsw	fa2,368(a5)
     630:	1717aa23          	sw	a7,372(a5)

00000634 <inst_47>:
     634:	17882507          	flw	fa0,376(a6)
     638:	17c82587          	flw	fa1,380(a6)
     63c:	00205073          	fsrmi	zero,0
     640:	08b57653          	fsub.s	fa2,fa0,fa1
     644:	001028f3          	frflags	a7
     648:	16c7ac27          	fsw	fa2,376(a5)
     64c:	1717ae23          	sw	a7,380(a5)

00000650 <inst_48>:
     650:	18082507          	flw	fa0,384(a6)
     654:	18482587          	flw	fa1,388(a6)
     658:	00205073          	fsrmi	zero,0
     65c:	08b57653          	fsub.s	fa2,fa0,fa1
     660:	001028f3          	frflags	a7
     664:	18c7a027          	fsw	fa2,384(a5)
     668:	1917a223          	sw	a7,388(a5)

0000066c <inst_49>:
     66c:	18882507          	flw	fa0,392(a6)
     670:	18c82587          	flw	fa1,396(a6)
     674:	00205073          	fsrmi	zero,0
     678:	08b57653          	fsub.s	fa2,fa0,fa1
     67c:	001028f3          	frflags	a7
     680:	18c7a427          	fsw	fa2,392(a5)
     684:	1917a623          	sw	a7,396(a5)

00000688 <inst_50>:
     688:	19082507          	flw	fa0,400(a6)
     68c:	19482587          	flw	fa1,404(a6)
     690:	00205073          	fsrmi	zero,0
     694:	08b57653          	fsub.s	fa2,fa0,fa1
     698:	001028f3          	frflags	a7
     69c:	18c7a827          	fsw	fa2,400(a5)
     6a0:	1917aa23          	sw	a7,404(a5)

000006a4 <inst_51>:
     6a4:	19882507          	flw	fa0,408(a6)
     6a8:	19c82587          	flw	fa1,412(a6)
     6ac:	00205073          	fsrmi	zero,0
     6b0:	08b57653          	fsub.s	fa2,fa0,fa1
     6b4:	001028f3          	frflags	a7
     6b8:	18c7ac27          	fsw	fa2,408(a5)
     6bc:	1917ae23          	sw	a7,412(a5)

000006c0 <inst_52>:
     6c0:	1a082507          	flw	fa0,416(a6)
     6c4:	1a482587          	flw	fa1,420(a6)
     6c8:	00205073          	fsrmi	zero,0
     6cc:	08b57653          	fsub.s	fa2,fa0,fa1
     6d0:	001028f3          	frflags	a7
     6d4:	1ac7a027          	fsw	fa2,416(a5)
     6d8:	1b17a223          	sw	a7,420(a5)

000006dc <inst_53>:
     6dc:	1a882507          	flw	fa0,424(a6)
     6e0:	1ac82587          	flw	fa1,428(a6)
     6e4:	00205073          	fsrmi	zero,0
     6e8:	08b57653          	fsub.s	fa2,fa0,fa1
     6ec:	001028f3          	frflags	a7
     6f0:	1ac7a427          	fsw	fa2,424(a5)
     6f4:	1b17a623          	sw	a7,428(a5)

000006f8 <inst_54>:
     6f8:	1b082507          	flw	fa0,432(a6)
     6fc:	1b482587          	flw	fa1,436(a6)
     700:	00205073          	fsrmi	zero,0
     704:	08b57653          	fsub.s	fa2,fa0,fa1
     708:	001028f3          	frflags	a7
     70c:	1ac7a827          	fsw	fa2,432(a5)
     710:	1b17aa23          	sw	a7,436(a5)

00000714 <inst_55>:
     714:	1b882507          	flw	fa0,440(a6)
     718:	1bc82587          	flw	fa1,444(a6)
     71c:	00205073          	fsrmi	zero,0
     720:	08b57653          	fsub.s	fa2,fa0,fa1
     724:	001028f3          	frflags	a7
     728:	1ac7ac27          	fsw	fa2,440(a5)
     72c:	1b17ae23          	sw	a7,444(a5)

00000730 <inst_56>:
     730:	1c082507          	flw	fa0,448(a6)
     734:	1c482587          	flw	fa1,452(a6)
     738:	00205073          	fsrmi	zero,0
     73c:	08b57653          	fsub.s	fa2,fa0,fa1
     740:	001028f3          	frflags	a7
     744:	1cc7a027          	fsw	fa2,448(a5)
     748:	1d17a223          	sw	a7,452(a5)

0000074c <inst_57>:
     74c:	1c882507          	flw	fa0,456(a6)
     750:	1cc82587          	flw	fa1,460(a6)
     754:	00205073          	fsrmi	zero,0
     758:	08b57653          	fsub.s	fa2,fa0,fa1
     75c:	001028f3          	frflags	a7
     760:	1cc7a427          	fsw	fa2,456(a5)
     764:	1d17a623          	sw	a7,460(a5)

00000768 <inst_58>:
     768:	1d082507          	flw	fa0,464(a6)
     76c:	1d482587          	flw	fa1,468(a6)
     770:	00205073          	fsrmi	zero,0
     774:	08b57653          	fsub.s	fa2,fa0,fa1
     778:	001028f3          	frflags	a7
     77c:	1cc7a827          	fsw	fa2,464(a5)
     780:	1d17aa23          	sw	a7,468(a5)

00000784 <inst_59>:
     784:	1d882507          	flw	fa0,472(a6)
     788:	1dc82587          	flw	fa1,476(a6)
     78c:	00205073          	fsrmi	zero,0
     790:	08b57653          	fsub.s	fa2,fa0,fa1
     794:	001028f3          	frflags	a7
     798:	1cc7ac27          	fsw	fa2,472(a5)
     79c:	1d17ae23          	sw	a7,476(a5)

000007a0 <inst_60>:
     7a0:	1e082507          	flw	fa0,480(a6)
     7a4:	1e482587          	flw	fa1,484(a6)
     7a8:	00205073          	fsrmi	zero,0
     7ac:	08b57653          	fsub.s	fa2,fa0,fa1
     7b0:	001028f3          	frflags	a7
     7b4:	1ec7a027          	fsw	fa2,480(a5)
     7b8:	1f17a223          	sw	a7,484(a5)

000007bc <inst_61>:
     7bc:	1e882507          	flw	fa0,488(a6)
     7c0:	1ec82587          	flw	fa1,492(a6)
     7c4:	00205073          	fsrmi	zero,0
     7c8:	08b57653          	fsub.s	fa2,fa0,fa1
     7cc:	001028f3          	frflags	a7
     7d0:	1ec7a427          	fsw	fa2,488(a5)
     7d4:	1f17a623          	sw	a7,492(a5)

000007d8 <inst_62>:
     7d8:	1f082507          	flw	fa0,496(a6)
     7dc:	1f482587          	flw	fa1,500(a6)
     7e0:	00205073          	fsrmi	zero,0
     7e4:	08b57653          	fsub.s	fa2,fa0,fa1
     7e8:	001028f3          	frflags	a7
     7ec:	1ec7a827          	fsw	fa2,496(a5)
     7f0:	1f17aa23          	sw	a7,500(a5)

000007f4 <inst_63>:
     7f4:	1f882507          	flw	fa0,504(a6)
     7f8:	1fc82587          	flw	fa1,508(a6)
     7fc:	00205073          	fsrmi	zero,0
     800:	08b57653          	fsub.s	fa2,fa0,fa1
     804:	001028f3          	frflags	a7
     808:	1ec7ac27          	fsw	fa2,504(a5)
     80c:	1f17ae23          	sw	a7,508(a5)

00000810 <inst_64>:
     810:	20082507          	flw	fa0,512(a6)
     814:	20482587          	flw	fa1,516(a6)
     818:	00205073          	fsrmi	zero,0
     81c:	08b57653          	fsub.s	fa2,fa0,fa1
     820:	001028f3          	frflags	a7
     824:	20c7a027          	fsw	fa2,512(a5)
     828:	2117a223          	sw	a7,516(a5)

0000082c <inst_65>:
     82c:	20882507          	flw	fa0,520(a6)
     830:	20c82587          	flw	fa1,524(a6)
     834:	00205073          	fsrmi	zero,0
     838:	08b57653          	fsub.s	fa2,fa0,fa1
     83c:	001028f3          	frflags	a7
     840:	20c7a427          	fsw	fa2,520(a5)
     844:	2117a623          	sw	a7,524(a5)

00000848 <inst_66>:
     848:	21082507          	flw	fa0,528(a6)
     84c:	21482587          	flw	fa1,532(a6)
     850:	00205073          	fsrmi	zero,0
     854:	08b57653          	fsub.s	fa2,fa0,fa1
     858:	001028f3          	frflags	a7
     85c:	20c7a827          	fsw	fa2,528(a5)
     860:	2117aa23          	sw	a7,532(a5)

00000864 <inst_67>:
     864:	21882507          	flw	fa0,536(a6)
     868:	21c82587          	flw	fa1,540(a6)
     86c:	00205073          	fsrmi	zero,0
     870:	08b57653          	fsub.s	fa2,fa0,fa1
     874:	001028f3          	frflags	a7
     878:	20c7ac27          	fsw	fa2,536(a5)
     87c:	2117ae23          	sw	a7,540(a5)

00000880 <inst_68>:
     880:	22082507          	flw	fa0,544(a6)
     884:	22482587          	flw	fa1,548(a6)
     888:	00205073          	fsrmi	zero,0
     88c:	08b57653          	fsub.s	fa2,fa0,fa1
     890:	001028f3          	frflags	a7
     894:	22c7a027          	fsw	fa2,544(a5)
     898:	2317a223          	sw	a7,548(a5)

0000089c <inst_69>:
     89c:	22882507          	flw	fa0,552(a6)
     8a0:	22c82587          	flw	fa1,556(a6)
     8a4:	00205073          	fsrmi	zero,0
     8a8:	08b57653          	fsub.s	fa2,fa0,fa1
     8ac:	001028f3          	frflags	a7
     8b0:	22c7a427          	fsw	fa2,552(a5)
     8b4:	2317a623          	sw	a7,556(a5)

000008b8 <inst_70>:
     8b8:	23082507          	flw	fa0,560(a6)
     8bc:	23482587          	flw	fa1,564(a6)
     8c0:	00205073          	fsrmi	zero,0
     8c4:	08b57653          	fsub.s	fa2,fa0,fa1
     8c8:	001028f3          	frflags	a7
     8cc:	22c7a827          	fsw	fa2,560(a5)
     8d0:	2317aa23          	sw	a7,564(a5)

000008d4 <inst_71>:
     8d4:	23882507          	flw	fa0,568(a6)
     8d8:	23c82587          	flw	fa1,572(a6)
     8dc:	00205073          	fsrmi	zero,0
     8e0:	08b57653          	fsub.s	fa2,fa0,fa1
     8e4:	001028f3          	frflags	a7
     8e8:	22c7ac27          	fsw	fa2,568(a5)
     8ec:	2317ae23          	sw	a7,572(a5)

000008f0 <inst_72>:
     8f0:	24082507          	flw	fa0,576(a6)
     8f4:	24482587          	flw	fa1,580(a6)
     8f8:	00205073          	fsrmi	zero,0
     8fc:	08b57653          	fsub.s	fa2,fa0,fa1
     900:	001028f3          	frflags	a7
     904:	24c7a027          	fsw	fa2,576(a5)
     908:	2517a223          	sw	a7,580(a5)

0000090c <inst_73>:
     90c:	24882507          	flw	fa0,584(a6)
     910:	24c82587          	flw	fa1,588(a6)
     914:	00205073          	fsrmi	zero,0
     918:	08b57653          	fsub.s	fa2,fa0,fa1
     91c:	001028f3          	frflags	a7
     920:	24c7a427          	fsw	fa2,584(a5)
     924:	2517a623          	sw	a7,588(a5)

00000928 <inst_74>:
     928:	25082507          	flw	fa0,592(a6)
     92c:	25482587          	flw	fa1,596(a6)
     930:	00205073          	fsrmi	zero,0
     934:	08b57653          	fsub.s	fa2,fa0,fa1
     938:	001028f3          	frflags	a7
     93c:	24c7a827          	fsw	fa2,592(a5)
     940:	2517aa23          	sw	a7,596(a5)

00000944 <inst_75>:
     944:	25882507          	flw	fa0,600(a6)
     948:	25c82587          	flw	fa1,604(a6)
     94c:	00205073          	fsrmi	zero,0
     950:	08b57653          	fsub.s	fa2,fa0,fa1
     954:	001028f3          	frflags	a7
     958:	24c7ac27          	fsw	fa2,600(a5)
     95c:	2517ae23          	sw	a7,604(a5)

00000960 <inst_76>:
     960:	26082507          	flw	fa0,608(a6)
     964:	26482587          	flw	fa1,612(a6)
     968:	00205073          	fsrmi	zero,0
     96c:	08b57653          	fsub.s	fa2,fa0,fa1
     970:	001028f3          	frflags	a7
     974:	26c7a027          	fsw	fa2,608(a5)
     978:	2717a223          	sw	a7,612(a5)

0000097c <inst_77>:
     97c:	26882507          	flw	fa0,616(a6)
     980:	26c82587          	flw	fa1,620(a6)
     984:	00205073          	fsrmi	zero,0
     988:	08b57653          	fsub.s	fa2,fa0,fa1
     98c:	001028f3          	frflags	a7
     990:	26c7a427          	fsw	fa2,616(a5)
     994:	2717a623          	sw	a7,620(a5)

00000998 <inst_78>:
     998:	27082507          	flw	fa0,624(a6)
     99c:	27482587          	flw	fa1,628(a6)
     9a0:	00205073          	fsrmi	zero,0
     9a4:	08b57653          	fsub.s	fa2,fa0,fa1
     9a8:	001028f3          	frflags	a7
     9ac:	26c7a827          	fsw	fa2,624(a5)
     9b0:	2717aa23          	sw	a7,628(a5)

000009b4 <inst_79>:
     9b4:	27882507          	flw	fa0,632(a6)
     9b8:	27c82587          	flw	fa1,636(a6)
     9bc:	00205073          	fsrmi	zero,0
     9c0:	08b57653          	fsub.s	fa2,fa0,fa1
     9c4:	001028f3          	frflags	a7
     9c8:	26c7ac27          	fsw	fa2,632(a5)
     9cc:	2717ae23          	sw	a7,636(a5)

000009d0 <inst_80>:
     9d0:	28082507          	flw	fa0,640(a6)
     9d4:	28482587          	flw	fa1,644(a6)
     9d8:	00205073          	fsrmi	zero,0
     9dc:	08b57653          	fsub.s	fa2,fa0,fa1
     9e0:	001028f3          	frflags	a7
     9e4:	28c7a027          	fsw	fa2,640(a5)
     9e8:	2917a223          	sw	a7,644(a5)

000009ec <inst_81>:
     9ec:	28882507          	flw	fa0,648(a6)
     9f0:	28c82587          	flw	fa1,652(a6)
     9f4:	00205073          	fsrmi	zero,0
     9f8:	08b57653          	fsub.s	fa2,fa0,fa1
     9fc:	001028f3          	frflags	a7
     a00:	28c7a427          	fsw	fa2,648(a5)
     a04:	2917a623          	sw	a7,652(a5)

00000a08 <inst_82>:
     a08:	29082507          	flw	fa0,656(a6)
     a0c:	29482587          	flw	fa1,660(a6)
     a10:	00205073          	fsrmi	zero,0
     a14:	08b57653          	fsub.s	fa2,fa0,fa1
     a18:	001028f3          	frflags	a7
     a1c:	28c7a827          	fsw	fa2,656(a5)
     a20:	2917aa23          	sw	a7,660(a5)

00000a24 <inst_83>:
     a24:	29882507          	flw	fa0,664(a6)
     a28:	29c82587          	flw	fa1,668(a6)
     a2c:	00205073          	fsrmi	zero,0
     a30:	08b57653          	fsub.s	fa2,fa0,fa1
     a34:	001028f3          	frflags	a7
     a38:	28c7ac27          	fsw	fa2,664(a5)
     a3c:	2917ae23          	sw	a7,668(a5)

00000a40 <inst_84>:
     a40:	2a082507          	flw	fa0,672(a6)
     a44:	2a482587          	flw	fa1,676(a6)
     a48:	00205073          	fsrmi	zero,0
     a4c:	08b57653          	fsub.s	fa2,fa0,fa1
     a50:	001028f3          	frflags	a7
     a54:	2ac7a027          	fsw	fa2,672(a5)
     a58:	2b17a223          	sw	a7,676(a5)

00000a5c <inst_85>:
     a5c:	2a882507          	flw	fa0,680(a6)
     a60:	2ac82587          	flw	fa1,684(a6)
     a64:	00205073          	fsrmi	zero,0
     a68:	08b57653          	fsub.s	fa2,fa0,fa1
     a6c:	001028f3          	frflags	a7
     a70:	2ac7a427          	fsw	fa2,680(a5)
     a74:	2b17a623          	sw	a7,684(a5)

00000a78 <inst_86>:
     a78:	2b082507          	flw	fa0,688(a6)
     a7c:	2b482587          	flw	fa1,692(a6)
     a80:	00205073          	fsrmi	zero,0
     a84:	08b57653          	fsub.s	fa2,fa0,fa1
     a88:	001028f3          	frflags	a7
     a8c:	2ac7a827          	fsw	fa2,688(a5)
     a90:	2b17aa23          	sw	a7,692(a5)

00000a94 <inst_87>:
     a94:	2b882507          	flw	fa0,696(a6)
     a98:	2bc82587          	flw	fa1,700(a6)
     a9c:	00205073          	fsrmi	zero,0
     aa0:	08b57653          	fsub.s	fa2,fa0,fa1
     aa4:	001028f3          	frflags	a7
     aa8:	2ac7ac27          	fsw	fa2,696(a5)
     aac:	2b17ae23          	sw	a7,700(a5)

00000ab0 <inst_88>:
     ab0:	2c082507          	flw	fa0,704(a6)
     ab4:	2c482587          	flw	fa1,708(a6)
     ab8:	00205073          	fsrmi	zero,0
     abc:	08b57653          	fsub.s	fa2,fa0,fa1
     ac0:	001028f3          	frflags	a7
     ac4:	2cc7a027          	fsw	fa2,704(a5)
     ac8:	2d17a223          	sw	a7,708(a5)

00000acc <inst_89>:
     acc:	2c882507          	flw	fa0,712(a6)
     ad0:	2cc82587          	flw	fa1,716(a6)
     ad4:	00205073          	fsrmi	zero,0
     ad8:	08b57653          	fsub.s	fa2,fa0,fa1
     adc:	001028f3          	frflags	a7
     ae0:	2cc7a427          	fsw	fa2,712(a5)
     ae4:	2d17a623          	sw	a7,716(a5)

00000ae8 <inst_90>:
     ae8:	2d082507          	flw	fa0,720(a6)
     aec:	2d482587          	flw	fa1,724(a6)
     af0:	00205073          	fsrmi	zero,0
     af4:	08b57653          	fsub.s	fa2,fa0,fa1
     af8:	001028f3          	frflags	a7
     afc:	2cc7a827          	fsw	fa2,720(a5)
     b00:	2d17aa23          	sw	a7,724(a5)

00000b04 <inst_91>:
     b04:	2d882507          	flw	fa0,728(a6)
     b08:	2dc82587          	flw	fa1,732(a6)
     b0c:	00205073          	fsrmi	zero,0
     b10:	08b57653          	fsub.s	fa2,fa0,fa1
     b14:	001028f3          	frflags	a7
     b18:	2cc7ac27          	fsw	fa2,728(a5)
     b1c:	2d17ae23          	sw	a7,732(a5)

00000b20 <inst_92>:
     b20:	2e082507          	flw	fa0,736(a6)
     b24:	2e482587          	flw	fa1,740(a6)
     b28:	00205073          	fsrmi	zero,0
     b2c:	08b57653          	fsub.s	fa2,fa0,fa1
     b30:	001028f3          	frflags	a7
     b34:	2ec7a027          	fsw	fa2,736(a5)
     b38:	2f17a223          	sw	a7,740(a5)

00000b3c <inst_93>:
     b3c:	2e882507          	flw	fa0,744(a6)
     b40:	2ec82587          	flw	fa1,748(a6)
     b44:	00205073          	fsrmi	zero,0
     b48:	08b57653          	fsub.s	fa2,fa0,fa1
     b4c:	001028f3          	frflags	a7
     b50:	2ec7a427          	fsw	fa2,744(a5)
     b54:	2f17a623          	sw	a7,748(a5)

00000b58 <inst_94>:
     b58:	2f082507          	flw	fa0,752(a6)
     b5c:	2f482587          	flw	fa1,756(a6)
     b60:	00205073          	fsrmi	zero,0
     b64:	08b57653          	fsub.s	fa2,fa0,fa1
     b68:	001028f3          	frflags	a7
     b6c:	2ec7a827          	fsw	fa2,752(a5)
     b70:	2f17aa23          	sw	a7,756(a5)

00000b74 <inst_95>:
     b74:	2f882507          	flw	fa0,760(a6)
     b78:	2fc82587          	flw	fa1,764(a6)
     b7c:	00205073          	fsrmi	zero,0
     b80:	08b57653          	fsub.s	fa2,fa0,fa1
     b84:	001028f3          	frflags	a7
     b88:	2ec7ac27          	fsw	fa2,760(a5)
     b8c:	2f17ae23          	sw	a7,764(a5)

00000b90 <inst_96>:
     b90:	30082507          	flw	fa0,768(a6)
     b94:	30482587          	flw	fa1,772(a6)
     b98:	00205073          	fsrmi	zero,0
     b9c:	08b57653          	fsub.s	fa2,fa0,fa1
     ba0:	001028f3          	frflags	a7
     ba4:	30c7a027          	fsw	fa2,768(a5)
     ba8:	3117a223          	sw	a7,772(a5)

00000bac <inst_97>:
     bac:	30882507          	flw	fa0,776(a6)
     bb0:	30c82587          	flw	fa1,780(a6)
     bb4:	00205073          	fsrmi	zero,0
     bb8:	08b57653          	fsub.s	fa2,fa0,fa1
     bbc:	001028f3          	frflags	a7
     bc0:	30c7a427          	fsw	fa2,776(a5)
     bc4:	3117a623          	sw	a7,780(a5)

00000bc8 <inst_98>:
     bc8:	31082507          	flw	fa0,784(a6)
     bcc:	31482587          	flw	fa1,788(a6)
     bd0:	00205073          	fsrmi	zero,0
     bd4:	08b57653          	fsub.s	fa2,fa0,fa1
     bd8:	001028f3          	frflags	a7
     bdc:	30c7a827          	fsw	fa2,784(a5)
     be0:	3117aa23          	sw	a7,788(a5)

00000be4 <inst_99>:
     be4:	31882507          	flw	fa0,792(a6)
     be8:	31c82587          	flw	fa1,796(a6)
     bec:	00205073          	fsrmi	zero,0
     bf0:	08b57653          	fsub.s	fa2,fa0,fa1
     bf4:	001028f3          	frflags	a7
     bf8:	30c7ac27          	fsw	fa2,792(a5)
     bfc:	3117ae23          	sw	a7,796(a5)

00000c00 <inst_100>:
     c00:	32082507          	flw	fa0,800(a6)
     c04:	32482587          	flw	fa1,804(a6)
     c08:	00205073          	fsrmi	zero,0
     c0c:	08b57653          	fsub.s	fa2,fa0,fa1
     c10:	001028f3          	frflags	a7
     c14:	32c7a027          	fsw	fa2,800(a5)
     c18:	3317a223          	sw	a7,804(a5)

00000c1c <inst_101>:
     c1c:	32882507          	flw	fa0,808(a6)
     c20:	32c82587          	flw	fa1,812(a6)
     c24:	00205073          	fsrmi	zero,0
     c28:	08b57653          	fsub.s	fa2,fa0,fa1
     c2c:	001028f3          	frflags	a7
     c30:	32c7a427          	fsw	fa2,808(a5)
     c34:	3317a623          	sw	a7,812(a5)

00000c38 <inst_102>:
     c38:	33082507          	flw	fa0,816(a6)
     c3c:	33482587          	flw	fa1,820(a6)
     c40:	00205073          	fsrmi	zero,0
     c44:	08b57653          	fsub.s	fa2,fa0,fa1
     c48:	001028f3          	frflags	a7
     c4c:	32c7a827          	fsw	fa2,816(a5)
     c50:	3317aa23          	sw	a7,820(a5)

00000c54 <inst_103>:
     c54:	33882507          	flw	fa0,824(a6)
     c58:	33c82587          	flw	fa1,828(a6)
     c5c:	00205073          	fsrmi	zero,0
     c60:	08b57653          	fsub.s	fa2,fa0,fa1
     c64:	001028f3          	frflags	a7
     c68:	32c7ac27          	fsw	fa2,824(a5)
     c6c:	3317ae23          	sw	a7,828(a5)

00000c70 <inst_104>:
     c70:	34082507          	flw	fa0,832(a6)
     c74:	34482587          	flw	fa1,836(a6)
     c78:	00205073          	fsrmi	zero,0
     c7c:	08b57653          	fsub.s	fa2,fa0,fa1
     c80:	001028f3          	frflags	a7
     c84:	34c7a027          	fsw	fa2,832(a5)
     c88:	3517a223          	sw	a7,836(a5)

00000c8c <inst_105>:
     c8c:	34882507          	flw	fa0,840(a6)
     c90:	34c82587          	flw	fa1,844(a6)
     c94:	00205073          	fsrmi	zero,0
     c98:	08b57653          	fsub.s	fa2,fa0,fa1
     c9c:	001028f3          	frflags	a7
     ca0:	34c7a427          	fsw	fa2,840(a5)
     ca4:	3517a623          	sw	a7,844(a5)

00000ca8 <inst_106>:
     ca8:	35082507          	flw	fa0,848(a6)
     cac:	35482587          	flw	fa1,852(a6)
     cb0:	00205073          	fsrmi	zero,0
     cb4:	08b57653          	fsub.s	fa2,fa0,fa1
     cb8:	001028f3          	frflags	a7
     cbc:	34c7a827          	fsw	fa2,848(a5)
     cc0:	3517aa23          	sw	a7,852(a5)

00000cc4 <inst_107>:
     cc4:	35882507          	flw	fa0,856(a6)
     cc8:	35c82587          	flw	fa1,860(a6)
     ccc:	00205073          	fsrmi	zero,0
     cd0:	08b57653          	fsub.s	fa2,fa0,fa1
     cd4:	001028f3          	frflags	a7
     cd8:	34c7ac27          	fsw	fa2,856(a5)
     cdc:	3517ae23          	sw	a7,860(a5)

00000ce0 <inst_108>:
     ce0:	36082507          	flw	fa0,864(a6)
     ce4:	36482587          	flw	fa1,868(a6)
     ce8:	00205073          	fsrmi	zero,0
     cec:	08b57653          	fsub.s	fa2,fa0,fa1
     cf0:	001028f3          	frflags	a7
     cf4:	36c7a027          	fsw	fa2,864(a5)
     cf8:	3717a223          	sw	a7,868(a5)

00000cfc <inst_109>:
     cfc:	36882507          	flw	fa0,872(a6)
     d00:	36c82587          	flw	fa1,876(a6)
     d04:	00205073          	fsrmi	zero,0
     d08:	08b57653          	fsub.s	fa2,fa0,fa1
     d0c:	001028f3          	frflags	a7
     d10:	36c7a427          	fsw	fa2,872(a5)
     d14:	3717a623          	sw	a7,876(a5)

00000d18 <inst_110>:
     d18:	37082507          	flw	fa0,880(a6)
     d1c:	37482587          	flw	fa1,884(a6)
     d20:	00205073          	fsrmi	zero,0
     d24:	08b57653          	fsub.s	fa2,fa0,fa1
     d28:	001028f3          	frflags	a7
     d2c:	36c7a827          	fsw	fa2,880(a5)
     d30:	3717aa23          	sw	a7,884(a5)

00000d34 <inst_111>:
     d34:	37882507          	flw	fa0,888(a6)
     d38:	37c82587          	flw	fa1,892(a6)
     d3c:	00205073          	fsrmi	zero,0
     d40:	08b57653          	fsub.s	fa2,fa0,fa1
     d44:	001028f3          	frflags	a7
     d48:	36c7ac27          	fsw	fa2,888(a5)
     d4c:	3717ae23          	sw	a7,892(a5)

00000d50 <inst_112>:
     d50:	38082507          	flw	fa0,896(a6)
     d54:	38482587          	flw	fa1,900(a6)
     d58:	00205073          	fsrmi	zero,0
     d5c:	08b57653          	fsub.s	fa2,fa0,fa1
     d60:	001028f3          	frflags	a7
     d64:	38c7a027          	fsw	fa2,896(a5)
     d68:	3917a223          	sw	a7,900(a5)

00000d6c <inst_113>:
     d6c:	38882507          	flw	fa0,904(a6)
     d70:	38c82587          	flw	fa1,908(a6)
     d74:	00205073          	fsrmi	zero,0
     d78:	08b57653          	fsub.s	fa2,fa0,fa1
     d7c:	001028f3          	frflags	a7
     d80:	38c7a427          	fsw	fa2,904(a5)
     d84:	3917a623          	sw	a7,908(a5)

00000d88 <inst_114>:
     d88:	39082507          	flw	fa0,912(a6)
     d8c:	39482587          	flw	fa1,916(a6)
     d90:	00205073          	fsrmi	zero,0
     d94:	08b57653          	fsub.s	fa2,fa0,fa1
     d98:	001028f3          	frflags	a7
     d9c:	38c7a827          	fsw	fa2,912(a5)
     da0:	3917aa23          	sw	a7,916(a5)

00000da4 <inst_115>:
     da4:	39882507          	flw	fa0,920(a6)
     da8:	39c82587          	flw	fa1,924(a6)
     dac:	00205073          	fsrmi	zero,0
     db0:	08b57653          	fsub.s	fa2,fa0,fa1
     db4:	001028f3          	frflags	a7
     db8:	38c7ac27          	fsw	fa2,920(a5)
     dbc:	3917ae23          	sw	a7,924(a5)

00000dc0 <inst_116>:
     dc0:	3a082507          	flw	fa0,928(a6)
     dc4:	3a482587          	flw	fa1,932(a6)
     dc8:	00205073          	fsrmi	zero,0
     dcc:	08b57653          	fsub.s	fa2,fa0,fa1
     dd0:	001028f3          	frflags	a7
     dd4:	3ac7a027          	fsw	fa2,928(a5)
     dd8:	3b17a223          	sw	a7,932(a5)

00000ddc <inst_117>:
     ddc:	3a882507          	flw	fa0,936(a6)
     de0:	3ac82587          	flw	fa1,940(a6)
     de4:	00205073          	fsrmi	zero,0
     de8:	08b57653          	fsub.s	fa2,fa0,fa1
     dec:	001028f3          	frflags	a7
     df0:	3ac7a427          	fsw	fa2,936(a5)
     df4:	3b17a623          	sw	a7,940(a5)

00000df8 <inst_118>:
     df8:	3b082507          	flw	fa0,944(a6)
     dfc:	3b482587          	flw	fa1,948(a6)
     e00:	00205073          	fsrmi	zero,0
     e04:	08b57653          	fsub.s	fa2,fa0,fa1
     e08:	001028f3          	frflags	a7
     e0c:	3ac7a827          	fsw	fa2,944(a5)
     e10:	3b17aa23          	sw	a7,948(a5)

00000e14 <inst_119>:
     e14:	3b882507          	flw	fa0,952(a6)
     e18:	3bc82587          	flw	fa1,956(a6)
     e1c:	00205073          	fsrmi	zero,0
     e20:	08b57653          	fsub.s	fa2,fa0,fa1
     e24:	001028f3          	frflags	a7
     e28:	3ac7ac27          	fsw	fa2,952(a5)
     e2c:	3b17ae23          	sw	a7,956(a5)

00000e30 <inst_120>:
     e30:	3c082507          	flw	fa0,960(a6)
     e34:	3c482587          	flw	fa1,964(a6)
     e38:	00205073          	fsrmi	zero,0
     e3c:	08b57653          	fsub.s	fa2,fa0,fa1
     e40:	001028f3          	frflags	a7
     e44:	3cc7a027          	fsw	fa2,960(a5)
     e48:	3d17a223          	sw	a7,964(a5)

00000e4c <inst_121>:
     e4c:	3c882507          	flw	fa0,968(a6)
     e50:	3cc82587          	flw	fa1,972(a6)
     e54:	00205073          	fsrmi	zero,0
     e58:	08b57653          	fsub.s	fa2,fa0,fa1
     e5c:	001028f3          	frflags	a7
     e60:	3cc7a427          	fsw	fa2,968(a5)
     e64:	3d17a623          	sw	a7,972(a5)

00000e68 <inst_122>:
     e68:	3d082507          	flw	fa0,976(a6)
     e6c:	3d482587          	flw	fa1,980(a6)
     e70:	00205073          	fsrmi	zero,0
     e74:	08b57653          	fsub.s	fa2,fa0,fa1
     e78:	001028f3          	frflags	a7
     e7c:	3cc7a827          	fsw	fa2,976(a5)
     e80:	3d17aa23          	sw	a7,980(a5)

00000e84 <inst_123>:
     e84:	3d882507          	flw	fa0,984(a6)
     e88:	3dc82587          	flw	fa1,988(a6)
     e8c:	00205073          	fsrmi	zero,0
     e90:	08b57653          	fsub.s	fa2,fa0,fa1
     e94:	001028f3          	frflags	a7
     e98:	3cc7ac27          	fsw	fa2,984(a5)
     e9c:	3d17ae23          	sw	a7,988(a5)

00000ea0 <inst_124>:
     ea0:	3e082507          	flw	fa0,992(a6)
     ea4:	3e482587          	flw	fa1,996(a6)
     ea8:	00205073          	fsrmi	zero,0
     eac:	08b57653          	fsub.s	fa2,fa0,fa1
     eb0:	001028f3          	frflags	a7
     eb4:	3ec7a027          	fsw	fa2,992(a5)
     eb8:	3f17a223          	sw	a7,996(a5)

00000ebc <inst_125>:
     ebc:	3e882507          	flw	fa0,1000(a6)
     ec0:	3ec82587          	flw	fa1,1004(a6)
     ec4:	00205073          	fsrmi	zero,0
     ec8:	08b57653          	fsub.s	fa2,fa0,fa1
     ecc:	001028f3          	frflags	a7
     ed0:	3ec7a427          	fsw	fa2,1000(a5)
     ed4:	3f17a623          	sw	a7,1004(a5)

00000ed8 <inst_126>:
     ed8:	3f082507          	flw	fa0,1008(a6)
     edc:	3f482587          	flw	fa1,1012(a6)
     ee0:	00205073          	fsrmi	zero,0
     ee4:	08b57653          	fsub.s	fa2,fa0,fa1
     ee8:	001028f3          	frflags	a7
     eec:	3ec7a827          	fsw	fa2,1008(a5)
     ef0:	3f17aa23          	sw	a7,1012(a5)

00000ef4 <inst_127>:
     ef4:	3f882507          	flw	fa0,1016(a6)
     ef8:	3fc82587          	flw	fa1,1020(a6)
     efc:	00205073          	fsrmi	zero,0
     f00:	08b57653          	fsub.s	fa2,fa0,fa1
     f04:	001028f3          	frflags	a7
     f08:	3ec7ac27          	fsw	fa2,1016(a5)
     f0c:	3f17ae23          	sw	a7,1020(a5)

00000f10 <inst_128>:
     f10:	40082507          	flw	fa0,1024(a6)
     f14:	40482587          	flw	fa1,1028(a6)
     f18:	00205073          	fsrmi	zero,0
     f1c:	08b57653          	fsub.s	fa2,fa0,fa1
     f20:	001028f3          	frflags	a7
     f24:	40c7a027          	fsw	fa2,1024(a5)
     f28:	4117a223          	sw	a7,1028(a5)

00000f2c <inst_129>:
     f2c:	40882507          	flw	fa0,1032(a6)
     f30:	40c82587          	flw	fa1,1036(a6)
     f34:	00205073          	fsrmi	zero,0
     f38:	08b57653          	fsub.s	fa2,fa0,fa1
     f3c:	001028f3          	frflags	a7
     f40:	40c7a427          	fsw	fa2,1032(a5)
     f44:	4117a623          	sw	a7,1036(a5)

00000f48 <inst_130>:
     f48:	41082507          	flw	fa0,1040(a6)
     f4c:	41482587          	flw	fa1,1044(a6)
     f50:	00205073          	fsrmi	zero,0
     f54:	08b57653          	fsub.s	fa2,fa0,fa1
     f58:	001028f3          	frflags	a7
     f5c:	40c7a827          	fsw	fa2,1040(a5)
     f60:	4117aa23          	sw	a7,1044(a5)

00000f64 <inst_131>:
     f64:	41882507          	flw	fa0,1048(a6)
     f68:	41c82587          	flw	fa1,1052(a6)
     f6c:	00205073          	fsrmi	zero,0
     f70:	08b57653          	fsub.s	fa2,fa0,fa1
     f74:	001028f3          	frflags	a7
     f78:	40c7ac27          	fsw	fa2,1048(a5)
     f7c:	4117ae23          	sw	a7,1052(a5)

00000f80 <inst_132>:
     f80:	42082507          	flw	fa0,1056(a6)
     f84:	42482587          	flw	fa1,1060(a6)
     f88:	00205073          	fsrmi	zero,0
     f8c:	08b57653          	fsub.s	fa2,fa0,fa1
     f90:	001028f3          	frflags	a7
     f94:	42c7a027          	fsw	fa2,1056(a5)
     f98:	4317a223          	sw	a7,1060(a5)

00000f9c <inst_133>:
     f9c:	42882507          	flw	fa0,1064(a6)
     fa0:	42c82587          	flw	fa1,1068(a6)
     fa4:	00205073          	fsrmi	zero,0
     fa8:	08b57653          	fsub.s	fa2,fa0,fa1
     fac:	001028f3          	frflags	a7
     fb0:	42c7a427          	fsw	fa2,1064(a5)
     fb4:	4317a623          	sw	a7,1068(a5)

00000fb8 <inst_134>:
     fb8:	43082507          	flw	fa0,1072(a6)
     fbc:	43482587          	flw	fa1,1076(a6)
     fc0:	00205073          	fsrmi	zero,0
     fc4:	08b57653          	fsub.s	fa2,fa0,fa1
     fc8:	001028f3          	frflags	a7
     fcc:	42c7a827          	fsw	fa2,1072(a5)
     fd0:	4317aa23          	sw	a7,1076(a5)

00000fd4 <inst_135>:
     fd4:	43882507          	flw	fa0,1080(a6)
     fd8:	43c82587          	flw	fa1,1084(a6)
     fdc:	00205073          	fsrmi	zero,0
     fe0:	08b57653          	fsub.s	fa2,fa0,fa1
     fe4:	001028f3          	frflags	a7
     fe8:	42c7ac27          	fsw	fa2,1080(a5)
     fec:	4317ae23          	sw	a7,1084(a5)

00000ff0 <inst_136>:
     ff0:	44082507          	flw	fa0,1088(a6)
     ff4:	44482587          	flw	fa1,1092(a6)
     ff8:	00205073          	fsrmi	zero,0
     ffc:	08b57653          	fsub.s	fa2,fa0,fa1
    1000:	001028f3          	frflags	a7
    1004:	44c7a027          	fsw	fa2,1088(a5)
    1008:	4517a223          	sw	a7,1092(a5)

0000100c <inst_137>:
    100c:	44882507          	flw	fa0,1096(a6)
    1010:	44c82587          	flw	fa1,1100(a6)
    1014:	00205073          	fsrmi	zero,0
    1018:	08b57653          	fsub.s	fa2,fa0,fa1
    101c:	001028f3          	frflags	a7
    1020:	44c7a427          	fsw	fa2,1096(a5)
    1024:	4517a623          	sw	a7,1100(a5)

00001028 <inst_138>:
    1028:	45082507          	flw	fa0,1104(a6)
    102c:	45482587          	flw	fa1,1108(a6)
    1030:	00205073          	fsrmi	zero,0
    1034:	08b57653          	fsub.s	fa2,fa0,fa1
    1038:	001028f3          	frflags	a7
    103c:	44c7a827          	fsw	fa2,1104(a5)
    1040:	4517aa23          	sw	a7,1108(a5)

00001044 <inst_139>:
    1044:	45882507          	flw	fa0,1112(a6)
    1048:	45c82587          	flw	fa1,1116(a6)
    104c:	00205073          	fsrmi	zero,0
    1050:	08b57653          	fsub.s	fa2,fa0,fa1
    1054:	001028f3          	frflags	a7
    1058:	44c7ac27          	fsw	fa2,1112(a5)
    105c:	4517ae23          	sw	a7,1116(a5)

00001060 <inst_140>:
    1060:	46082507          	flw	fa0,1120(a6)
    1064:	46482587          	flw	fa1,1124(a6)
    1068:	00205073          	fsrmi	zero,0
    106c:	08b57653          	fsub.s	fa2,fa0,fa1
    1070:	001028f3          	frflags	a7
    1074:	46c7a027          	fsw	fa2,1120(a5)
    1078:	4717a223          	sw	a7,1124(a5)

0000107c <inst_141>:
    107c:	46882507          	flw	fa0,1128(a6)
    1080:	46c82587          	flw	fa1,1132(a6)
    1084:	00205073          	fsrmi	zero,0
    1088:	08b57653          	fsub.s	fa2,fa0,fa1
    108c:	001028f3          	frflags	a7
    1090:	46c7a427          	fsw	fa2,1128(a5)
    1094:	4717a623          	sw	a7,1132(a5)

00001098 <inst_142>:
    1098:	47082507          	flw	fa0,1136(a6)
    109c:	47482587          	flw	fa1,1140(a6)
    10a0:	00205073          	fsrmi	zero,0
    10a4:	08b57653          	fsub.s	fa2,fa0,fa1
    10a8:	001028f3          	frflags	a7
    10ac:	46c7a827          	fsw	fa2,1136(a5)
    10b0:	4717aa23          	sw	a7,1140(a5)

000010b4 <inst_143>:
    10b4:	47882507          	flw	fa0,1144(a6)
    10b8:	47c82587          	flw	fa1,1148(a6)
    10bc:	00205073          	fsrmi	zero,0
    10c0:	08b57653          	fsub.s	fa2,fa0,fa1
    10c4:	001028f3          	frflags	a7
    10c8:	46c7ac27          	fsw	fa2,1144(a5)
    10cc:	4717ae23          	sw	a7,1148(a5)

000010d0 <inst_144>:
    10d0:	48082507          	flw	fa0,1152(a6)
    10d4:	48482587          	flw	fa1,1156(a6)
    10d8:	00205073          	fsrmi	zero,0
    10dc:	08b57653          	fsub.s	fa2,fa0,fa1
    10e0:	001028f3          	frflags	a7
    10e4:	48c7a027          	fsw	fa2,1152(a5)
    10e8:	4917a223          	sw	a7,1156(a5)

000010ec <inst_145>:
    10ec:	48882507          	flw	fa0,1160(a6)
    10f0:	48c82587          	flw	fa1,1164(a6)
    10f4:	00205073          	fsrmi	zero,0
    10f8:	08b57653          	fsub.s	fa2,fa0,fa1
    10fc:	001028f3          	frflags	a7
    1100:	48c7a427          	fsw	fa2,1160(a5)
    1104:	4917a623          	sw	a7,1164(a5)

00001108 <inst_146>:
    1108:	49082507          	flw	fa0,1168(a6)
    110c:	49482587          	flw	fa1,1172(a6)
    1110:	00205073          	fsrmi	zero,0
    1114:	08b57653          	fsub.s	fa2,fa0,fa1
    1118:	001028f3          	frflags	a7
    111c:	48c7a827          	fsw	fa2,1168(a5)
    1120:	4917aa23          	sw	a7,1172(a5)

00001124 <inst_147>:
    1124:	49882507          	flw	fa0,1176(a6)
    1128:	49c82587          	flw	fa1,1180(a6)
    112c:	00205073          	fsrmi	zero,0
    1130:	08b57653          	fsub.s	fa2,fa0,fa1
    1134:	001028f3          	frflags	a7
    1138:	48c7ac27          	fsw	fa2,1176(a5)
    113c:	4917ae23          	sw	a7,1180(a5)

00001140 <inst_148>:
    1140:	4a082507          	flw	fa0,1184(a6)
    1144:	4a482587          	flw	fa1,1188(a6)
    1148:	00205073          	fsrmi	zero,0
    114c:	08b57653          	fsub.s	fa2,fa0,fa1
    1150:	001028f3          	frflags	a7
    1154:	4ac7a027          	fsw	fa2,1184(a5)
    1158:	4b17a223          	sw	a7,1188(a5)

0000115c <inst_149>:
    115c:	4a882507          	flw	fa0,1192(a6)
    1160:	4ac82587          	flw	fa1,1196(a6)
    1164:	00205073          	fsrmi	zero,0
    1168:	08b57653          	fsub.s	fa2,fa0,fa1
    116c:	001028f3          	frflags	a7
    1170:	4ac7a427          	fsw	fa2,1192(a5)
    1174:	4b17a623          	sw	a7,1196(a5)

00001178 <inst_150>:
    1178:	4b082507          	flw	fa0,1200(a6)
    117c:	4b482587          	flw	fa1,1204(a6)
    1180:	00205073          	fsrmi	zero,0
    1184:	08b57653          	fsub.s	fa2,fa0,fa1
    1188:	001028f3          	frflags	a7
    118c:	4ac7a827          	fsw	fa2,1200(a5)
    1190:	4b17aa23          	sw	a7,1204(a5)

00001194 <inst_151>:
    1194:	4b882507          	flw	fa0,1208(a6)
    1198:	4bc82587          	flw	fa1,1212(a6)
    119c:	00205073          	fsrmi	zero,0
    11a0:	08b57653          	fsub.s	fa2,fa0,fa1
    11a4:	001028f3          	frflags	a7
    11a8:	4ac7ac27          	fsw	fa2,1208(a5)
    11ac:	4b17ae23          	sw	a7,1212(a5)

000011b0 <inst_152>:
    11b0:	4c082507          	flw	fa0,1216(a6)
    11b4:	4c482587          	flw	fa1,1220(a6)
    11b8:	00205073          	fsrmi	zero,0
    11bc:	08b57653          	fsub.s	fa2,fa0,fa1
    11c0:	001028f3          	frflags	a7
    11c4:	4cc7a027          	fsw	fa2,1216(a5)
    11c8:	4d17a223          	sw	a7,1220(a5)

000011cc <inst_153>:
    11cc:	4c882507          	flw	fa0,1224(a6)
    11d0:	4cc82587          	flw	fa1,1228(a6)
    11d4:	00205073          	fsrmi	zero,0
    11d8:	08b57653          	fsub.s	fa2,fa0,fa1
    11dc:	001028f3          	frflags	a7
    11e0:	4cc7a427          	fsw	fa2,1224(a5)
    11e4:	4d17a623          	sw	a7,1228(a5)

000011e8 <inst_154>:
    11e8:	4d082507          	flw	fa0,1232(a6)
    11ec:	4d482587          	flw	fa1,1236(a6)
    11f0:	00205073          	fsrmi	zero,0
    11f4:	08b57653          	fsub.s	fa2,fa0,fa1
    11f8:	001028f3          	frflags	a7
    11fc:	4cc7a827          	fsw	fa2,1232(a5)
    1200:	4d17aa23          	sw	a7,1236(a5)

00001204 <inst_155>:
    1204:	4d882507          	flw	fa0,1240(a6)
    1208:	4dc82587          	flw	fa1,1244(a6)
    120c:	00205073          	fsrmi	zero,0
    1210:	08b57653          	fsub.s	fa2,fa0,fa1
    1214:	001028f3          	frflags	a7
    1218:	4cc7ac27          	fsw	fa2,1240(a5)
    121c:	4d17ae23          	sw	a7,1244(a5)

00001220 <inst_156>:
    1220:	4e082507          	flw	fa0,1248(a6)
    1224:	4e482587          	flw	fa1,1252(a6)
    1228:	00205073          	fsrmi	zero,0
    122c:	08b57653          	fsub.s	fa2,fa0,fa1
    1230:	001028f3          	frflags	a7
    1234:	4ec7a027          	fsw	fa2,1248(a5)
    1238:	4f17a223          	sw	a7,1252(a5)

0000123c <inst_157>:
    123c:	4e882507          	flw	fa0,1256(a6)
    1240:	4ec82587          	flw	fa1,1260(a6)
    1244:	00205073          	fsrmi	zero,0
    1248:	08b57653          	fsub.s	fa2,fa0,fa1
    124c:	001028f3          	frflags	a7
    1250:	4ec7a427          	fsw	fa2,1256(a5)
    1254:	4f17a623          	sw	a7,1260(a5)

00001258 <inst_158>:
    1258:	4f082507          	flw	fa0,1264(a6)
    125c:	4f482587          	flw	fa1,1268(a6)
    1260:	00205073          	fsrmi	zero,0
    1264:	08b57653          	fsub.s	fa2,fa0,fa1
    1268:	001028f3          	frflags	a7
    126c:	4ec7a827          	fsw	fa2,1264(a5)
    1270:	4f17aa23          	sw	a7,1268(a5)

00001274 <inst_159>:
    1274:	4f882507          	flw	fa0,1272(a6)
    1278:	4fc82587          	flw	fa1,1276(a6)
    127c:	00205073          	fsrmi	zero,0
    1280:	08b57653          	fsub.s	fa2,fa0,fa1
    1284:	001028f3          	frflags	a7
    1288:	4ec7ac27          	fsw	fa2,1272(a5)
    128c:	4f17ae23          	sw	a7,1276(a5)

00001290 <inst_160>:
    1290:	50082507          	flw	fa0,1280(a6)
    1294:	50482587          	flw	fa1,1284(a6)
    1298:	00205073          	fsrmi	zero,0
    129c:	08b57653          	fsub.s	fa2,fa0,fa1
    12a0:	001028f3          	frflags	a7
    12a4:	50c7a027          	fsw	fa2,1280(a5)
    12a8:	5117a223          	sw	a7,1284(a5)

000012ac <inst_161>:
    12ac:	50882507          	flw	fa0,1288(a6)
    12b0:	50c82587          	flw	fa1,1292(a6)
    12b4:	00205073          	fsrmi	zero,0
    12b8:	08b57653          	fsub.s	fa2,fa0,fa1
    12bc:	001028f3          	frflags	a7
    12c0:	50c7a427          	fsw	fa2,1288(a5)
    12c4:	5117a623          	sw	a7,1292(a5)

000012c8 <inst_162>:
    12c8:	51082507          	flw	fa0,1296(a6)
    12cc:	51482587          	flw	fa1,1300(a6)
    12d0:	00205073          	fsrmi	zero,0
    12d4:	08b57653          	fsub.s	fa2,fa0,fa1
    12d8:	001028f3          	frflags	a7
    12dc:	50c7a827          	fsw	fa2,1296(a5)
    12e0:	5117aa23          	sw	a7,1300(a5)

000012e4 <inst_163>:
    12e4:	51882507          	flw	fa0,1304(a6)
    12e8:	51c82587          	flw	fa1,1308(a6)
    12ec:	00205073          	fsrmi	zero,0
    12f0:	08b57653          	fsub.s	fa2,fa0,fa1
    12f4:	001028f3          	frflags	a7
    12f8:	50c7ac27          	fsw	fa2,1304(a5)
    12fc:	5117ae23          	sw	a7,1308(a5)

00001300 <inst_164>:
    1300:	52082507          	flw	fa0,1312(a6)
    1304:	52482587          	flw	fa1,1316(a6)
    1308:	00205073          	fsrmi	zero,0
    130c:	08b57653          	fsub.s	fa2,fa0,fa1
    1310:	001028f3          	frflags	a7
    1314:	52c7a027          	fsw	fa2,1312(a5)
    1318:	5317a223          	sw	a7,1316(a5)

0000131c <inst_165>:
    131c:	52882507          	flw	fa0,1320(a6)
    1320:	52c82587          	flw	fa1,1324(a6)
    1324:	00205073          	fsrmi	zero,0
    1328:	08b57653          	fsub.s	fa2,fa0,fa1
    132c:	001028f3          	frflags	a7
    1330:	52c7a427          	fsw	fa2,1320(a5)
    1334:	5317a623          	sw	a7,1324(a5)

00001338 <inst_166>:
    1338:	53082507          	flw	fa0,1328(a6)
    133c:	53482587          	flw	fa1,1332(a6)
    1340:	00205073          	fsrmi	zero,0
    1344:	08b57653          	fsub.s	fa2,fa0,fa1
    1348:	001028f3          	frflags	a7
    134c:	52c7a827          	fsw	fa2,1328(a5)
    1350:	5317aa23          	sw	a7,1332(a5)

00001354 <inst_167>:
    1354:	53882507          	flw	fa0,1336(a6)
    1358:	53c82587          	flw	fa1,1340(a6)
    135c:	00205073          	fsrmi	zero,0
    1360:	08b57653          	fsub.s	fa2,fa0,fa1
    1364:	001028f3          	frflags	a7
    1368:	52c7ac27          	fsw	fa2,1336(a5)
    136c:	5317ae23          	sw	a7,1340(a5)

00001370 <inst_168>:
    1370:	54082507          	flw	fa0,1344(a6)
    1374:	54482587          	flw	fa1,1348(a6)
    1378:	00205073          	fsrmi	zero,0
    137c:	08b57653          	fsub.s	fa2,fa0,fa1
    1380:	001028f3          	frflags	a7
    1384:	54c7a027          	fsw	fa2,1344(a5)
    1388:	5517a223          	sw	a7,1348(a5)

0000138c <inst_169>:
    138c:	54882507          	flw	fa0,1352(a6)
    1390:	54c82587          	flw	fa1,1356(a6)
    1394:	00205073          	fsrmi	zero,0
    1398:	08b57653          	fsub.s	fa2,fa0,fa1
    139c:	001028f3          	frflags	a7
    13a0:	54c7a427          	fsw	fa2,1352(a5)
    13a4:	5517a623          	sw	a7,1356(a5)

000013a8 <inst_170>:
    13a8:	55082507          	flw	fa0,1360(a6)
    13ac:	55482587          	flw	fa1,1364(a6)
    13b0:	00205073          	fsrmi	zero,0
    13b4:	08b57653          	fsub.s	fa2,fa0,fa1
    13b8:	001028f3          	frflags	a7
    13bc:	54c7a827          	fsw	fa2,1360(a5)
    13c0:	5517aa23          	sw	a7,1364(a5)

000013c4 <inst_171>:
    13c4:	55882507          	flw	fa0,1368(a6)
    13c8:	55c82587          	flw	fa1,1372(a6)
    13cc:	00205073          	fsrmi	zero,0
    13d0:	08b57653          	fsub.s	fa2,fa0,fa1
    13d4:	001028f3          	frflags	a7
    13d8:	54c7ac27          	fsw	fa2,1368(a5)
    13dc:	5517ae23          	sw	a7,1372(a5)

000013e0 <inst_172>:
    13e0:	56082507          	flw	fa0,1376(a6)
    13e4:	56482587          	flw	fa1,1380(a6)
    13e8:	00205073          	fsrmi	zero,0
    13ec:	08b57653          	fsub.s	fa2,fa0,fa1
    13f0:	001028f3          	frflags	a7
    13f4:	56c7a027          	fsw	fa2,1376(a5)
    13f8:	5717a223          	sw	a7,1380(a5)

000013fc <inst_173>:
    13fc:	56882507          	flw	fa0,1384(a6)
    1400:	56c82587          	flw	fa1,1388(a6)
    1404:	00205073          	fsrmi	zero,0
    1408:	08b57653          	fsub.s	fa2,fa0,fa1
    140c:	001028f3          	frflags	a7
    1410:	56c7a427          	fsw	fa2,1384(a5)
    1414:	5717a623          	sw	a7,1388(a5)

00001418 <inst_174>:
    1418:	57082507          	flw	fa0,1392(a6)
    141c:	57482587          	flw	fa1,1396(a6)
    1420:	00205073          	fsrmi	zero,0
    1424:	08b57653          	fsub.s	fa2,fa0,fa1
    1428:	001028f3          	frflags	a7
    142c:	56c7a827          	fsw	fa2,1392(a5)
    1430:	5717aa23          	sw	a7,1396(a5)

00001434 <inst_175>:
    1434:	57882507          	flw	fa0,1400(a6)
    1438:	57c82587          	flw	fa1,1404(a6)
    143c:	00205073          	fsrmi	zero,0
    1440:	08b57653          	fsub.s	fa2,fa0,fa1
    1444:	001028f3          	frflags	a7
    1448:	56c7ac27          	fsw	fa2,1400(a5)
    144c:	5717ae23          	sw	a7,1404(a5)

00001450 <inst_176>:
    1450:	58082507          	flw	fa0,1408(a6)
    1454:	58482587          	flw	fa1,1412(a6)
    1458:	00205073          	fsrmi	zero,0
    145c:	08b57653          	fsub.s	fa2,fa0,fa1
    1460:	001028f3          	frflags	a7
    1464:	58c7a027          	fsw	fa2,1408(a5)
    1468:	5917a223          	sw	a7,1412(a5)

0000146c <inst_177>:
    146c:	58882507          	flw	fa0,1416(a6)
    1470:	58c82587          	flw	fa1,1420(a6)
    1474:	00205073          	fsrmi	zero,0
    1478:	08b57653          	fsub.s	fa2,fa0,fa1
    147c:	001028f3          	frflags	a7
    1480:	58c7a427          	fsw	fa2,1416(a5)
    1484:	5917a623          	sw	a7,1420(a5)

00001488 <inst_178>:
    1488:	59082507          	flw	fa0,1424(a6)
    148c:	59482587          	flw	fa1,1428(a6)
    1490:	00205073          	fsrmi	zero,0
    1494:	08b57653          	fsub.s	fa2,fa0,fa1
    1498:	001028f3          	frflags	a7
    149c:	58c7a827          	fsw	fa2,1424(a5)
    14a0:	5917aa23          	sw	a7,1428(a5)

000014a4 <inst_179>:
    14a4:	59882507          	flw	fa0,1432(a6)
    14a8:	59c82587          	flw	fa1,1436(a6)
    14ac:	00205073          	fsrmi	zero,0
    14b0:	08b57653          	fsub.s	fa2,fa0,fa1
    14b4:	001028f3          	frflags	a7
    14b8:	58c7ac27          	fsw	fa2,1432(a5)
    14bc:	5917ae23          	sw	a7,1436(a5)

000014c0 <inst_180>:
    14c0:	5a082507          	flw	fa0,1440(a6)
    14c4:	5a482587          	flw	fa1,1444(a6)
    14c8:	00205073          	fsrmi	zero,0
    14cc:	08b57653          	fsub.s	fa2,fa0,fa1
    14d0:	001028f3          	frflags	a7
    14d4:	5ac7a027          	fsw	fa2,1440(a5)
    14d8:	5b17a223          	sw	a7,1444(a5)

000014dc <inst_181>:
    14dc:	5a882507          	flw	fa0,1448(a6)
    14e0:	5ac82587          	flw	fa1,1452(a6)
    14e4:	00205073          	fsrmi	zero,0
    14e8:	08b57653          	fsub.s	fa2,fa0,fa1
    14ec:	001028f3          	frflags	a7
    14f0:	5ac7a427          	fsw	fa2,1448(a5)
    14f4:	5b17a623          	sw	a7,1452(a5)

000014f8 <inst_182>:
    14f8:	5b082507          	flw	fa0,1456(a6)
    14fc:	5b482587          	flw	fa1,1460(a6)
    1500:	00205073          	fsrmi	zero,0
    1504:	08b57653          	fsub.s	fa2,fa0,fa1
    1508:	001028f3          	frflags	a7
    150c:	5ac7a827          	fsw	fa2,1456(a5)
    1510:	5b17aa23          	sw	a7,1460(a5)

00001514 <inst_183>:
    1514:	5b882507          	flw	fa0,1464(a6)
    1518:	5bc82587          	flw	fa1,1468(a6)
    151c:	00205073          	fsrmi	zero,0
    1520:	08b57653          	fsub.s	fa2,fa0,fa1
    1524:	001028f3          	frflags	a7
    1528:	5ac7ac27          	fsw	fa2,1464(a5)
    152c:	5b17ae23          	sw	a7,1468(a5)

00001530 <inst_184>:
    1530:	5c082507          	flw	fa0,1472(a6)
    1534:	5c482587          	flw	fa1,1476(a6)
    1538:	00205073          	fsrmi	zero,0
    153c:	08b57653          	fsub.s	fa2,fa0,fa1
    1540:	001028f3          	frflags	a7
    1544:	5cc7a027          	fsw	fa2,1472(a5)
    1548:	5d17a223          	sw	a7,1476(a5)

0000154c <inst_185>:
    154c:	5c882507          	flw	fa0,1480(a6)
    1550:	5cc82587          	flw	fa1,1484(a6)
    1554:	00205073          	fsrmi	zero,0
    1558:	08b57653          	fsub.s	fa2,fa0,fa1
    155c:	001028f3          	frflags	a7
    1560:	5cc7a427          	fsw	fa2,1480(a5)
    1564:	5d17a623          	sw	a7,1484(a5)

00001568 <inst_186>:
    1568:	5d082507          	flw	fa0,1488(a6)
    156c:	5d482587          	flw	fa1,1492(a6)
    1570:	00205073          	fsrmi	zero,0
    1574:	08b57653          	fsub.s	fa2,fa0,fa1
    1578:	001028f3          	frflags	a7
    157c:	5cc7a827          	fsw	fa2,1488(a5)
    1580:	5d17aa23          	sw	a7,1492(a5)

00001584 <inst_187>:
    1584:	5d882507          	flw	fa0,1496(a6)
    1588:	5dc82587          	flw	fa1,1500(a6)
    158c:	00205073          	fsrmi	zero,0
    1590:	08b57653          	fsub.s	fa2,fa0,fa1
    1594:	001028f3          	frflags	a7
    1598:	5cc7ac27          	fsw	fa2,1496(a5)
    159c:	5d17ae23          	sw	a7,1500(a5)

000015a0 <inst_188>:
    15a0:	5e082507          	flw	fa0,1504(a6)
    15a4:	5e482587          	flw	fa1,1508(a6)
    15a8:	00205073          	fsrmi	zero,0
    15ac:	08b57653          	fsub.s	fa2,fa0,fa1
    15b0:	001028f3          	frflags	a7
    15b4:	5ec7a027          	fsw	fa2,1504(a5)
    15b8:	5f17a223          	sw	a7,1508(a5)

000015bc <inst_189>:
    15bc:	5e882507          	flw	fa0,1512(a6)
    15c0:	5ec82587          	flw	fa1,1516(a6)
    15c4:	00205073          	fsrmi	zero,0
    15c8:	08b57653          	fsub.s	fa2,fa0,fa1
    15cc:	001028f3          	frflags	a7
    15d0:	5ec7a427          	fsw	fa2,1512(a5)
    15d4:	5f17a623          	sw	a7,1516(a5)

000015d8 <inst_190>:
    15d8:	5f082507          	flw	fa0,1520(a6)
    15dc:	5f482587          	flw	fa1,1524(a6)
    15e0:	00205073          	fsrmi	zero,0
    15e4:	08b57653          	fsub.s	fa2,fa0,fa1
    15e8:	001028f3          	frflags	a7
    15ec:	5ec7a827          	fsw	fa2,1520(a5)
    15f0:	5f17aa23          	sw	a7,1524(a5)

000015f4 <inst_191>:
    15f4:	5f882507          	flw	fa0,1528(a6)
    15f8:	5fc82587          	flw	fa1,1532(a6)
    15fc:	00205073          	fsrmi	zero,0
    1600:	08b57653          	fsub.s	fa2,fa0,fa1
    1604:	001028f3          	frflags	a7
    1608:	5ec7ac27          	fsw	fa2,1528(a5)
    160c:	5f17ae23          	sw	a7,1532(a5)

00001610 <inst_192>:
    1610:	60082507          	flw	fa0,1536(a6)
    1614:	60482587          	flw	fa1,1540(a6)
    1618:	00205073          	fsrmi	zero,0
    161c:	08b57653          	fsub.s	fa2,fa0,fa1
    1620:	001028f3          	frflags	a7
    1624:	60c7a027          	fsw	fa2,1536(a5)
    1628:	6117a223          	sw	a7,1540(a5)

0000162c <inst_193>:
    162c:	60882507          	flw	fa0,1544(a6)
    1630:	60c82587          	flw	fa1,1548(a6)
    1634:	00205073          	fsrmi	zero,0
    1638:	08b57653          	fsub.s	fa2,fa0,fa1
    163c:	001028f3          	frflags	a7
    1640:	60c7a427          	fsw	fa2,1544(a5)
    1644:	6117a623          	sw	a7,1548(a5)

00001648 <inst_194>:
    1648:	61082507          	flw	fa0,1552(a6)
    164c:	61482587          	flw	fa1,1556(a6)
    1650:	00205073          	fsrmi	zero,0
    1654:	08b57653          	fsub.s	fa2,fa0,fa1
    1658:	001028f3          	frflags	a7
    165c:	60c7a827          	fsw	fa2,1552(a5)
    1660:	6117aa23          	sw	a7,1556(a5)

00001664 <inst_195>:
    1664:	61882507          	flw	fa0,1560(a6)
    1668:	61c82587          	flw	fa1,1564(a6)
    166c:	00205073          	fsrmi	zero,0
    1670:	08b57653          	fsub.s	fa2,fa0,fa1
    1674:	001028f3          	frflags	a7
    1678:	60c7ac27          	fsw	fa2,1560(a5)
    167c:	6117ae23          	sw	a7,1564(a5)

00001680 <inst_196>:
    1680:	62082507          	flw	fa0,1568(a6)
    1684:	62482587          	flw	fa1,1572(a6)
    1688:	00205073          	fsrmi	zero,0
    168c:	08b57653          	fsub.s	fa2,fa0,fa1
    1690:	001028f3          	frflags	a7
    1694:	62c7a027          	fsw	fa2,1568(a5)
    1698:	6317a223          	sw	a7,1572(a5)

0000169c <inst_197>:
    169c:	62882507          	flw	fa0,1576(a6)
    16a0:	62c82587          	flw	fa1,1580(a6)
    16a4:	00205073          	fsrmi	zero,0
    16a8:	08b57653          	fsub.s	fa2,fa0,fa1
    16ac:	001028f3          	frflags	a7
    16b0:	62c7a427          	fsw	fa2,1576(a5)
    16b4:	6317a623          	sw	a7,1580(a5)

000016b8 <inst_198>:
    16b8:	63082507          	flw	fa0,1584(a6)
    16bc:	63482587          	flw	fa1,1588(a6)
    16c0:	00205073          	fsrmi	zero,0
    16c4:	08b57653          	fsub.s	fa2,fa0,fa1
    16c8:	001028f3          	frflags	a7
    16cc:	62c7a827          	fsw	fa2,1584(a5)
    16d0:	6317aa23          	sw	a7,1588(a5)

000016d4 <inst_199>:
    16d4:	63882507          	flw	fa0,1592(a6)
    16d8:	63c82587          	flw	fa1,1596(a6)
    16dc:	00205073          	fsrmi	zero,0
    16e0:	08b57653          	fsub.s	fa2,fa0,fa1
    16e4:	001028f3          	frflags	a7
    16e8:	62c7ac27          	fsw	fa2,1592(a5)
    16ec:	6317ae23          	sw	a7,1596(a5)

000016f0 <inst_200>:
    16f0:	64082507          	flw	fa0,1600(a6)
    16f4:	64482587          	flw	fa1,1604(a6)
    16f8:	00205073          	fsrmi	zero,0
    16fc:	08b57653          	fsub.s	fa2,fa0,fa1
    1700:	001028f3          	frflags	a7
    1704:	64c7a027          	fsw	fa2,1600(a5)
    1708:	6517a223          	sw	a7,1604(a5)

0000170c <inst_201>:
    170c:	64882507          	flw	fa0,1608(a6)
    1710:	64c82587          	flw	fa1,1612(a6)
    1714:	00205073          	fsrmi	zero,0
    1718:	08b57653          	fsub.s	fa2,fa0,fa1
    171c:	001028f3          	frflags	a7
    1720:	64c7a427          	fsw	fa2,1608(a5)
    1724:	6517a623          	sw	a7,1612(a5)
    1728:	00000013          	nop
    172c:	00000013          	nop

00001730 <rvtest_code_end>:
    1730:	00001517          	auipc	a0,0x1
    1734:	f3050513          	add	a0,a0,-208 # 2660 <data_begin>
    1738:	00001597          	auipc	a1,0x1
    173c:	57858593          	add	a1,a1,1400 # 2cb0 <_end>
    1740:	80001637          	lui	a2,0x80001
    1744:	00860613          	add	a2,a2,8 # 80001008 <_end+0x7fffe358>

00001748 <compliance_halt_loop>:
    1748:	06b50063          	beq	a0,a1,17a8 <compliance_halt_break>
    174c:	00450693          	add	a3,a0,4

00001750 <compliance_halt_loop2>:
    1750:	fff68693          	add	a3,a3,-1
    1754:	00068703          	lb	a4,0(a3)
    1758:	40475793          	sra	a5,a4,0x4
    175c:	00f7f793          	and	a5,a5,15
    1760:	00a00813          	li	a6,10
    1764:	0107c463          	blt	a5,a6,176c <notLetter>
    1768:	02778793          	add	a5,a5,39

0000176c <notLetter>:
    176c:	03078793          	add	a5,a5,48
    1770:	00f60023          	sb	a5,0(a2)
    1774:	40075793          	sra	a5,a4,0x0
    1778:	00f7f793          	and	a5,a5,15
    177c:	00a00813          	li	a6,10
    1780:	0107c463          	blt	a5,a6,1788 <notLetter2>
    1784:	02778793          	add	a5,a5,39

00001788 <notLetter2>:
    1788:	03078793          	add	a5,a5,48
    178c:	00f60023          	sb	a5,0(a2)
    1790:	fcd510e3          	bne	a0,a3,1750 <compliance_halt_loop2>
    1794:	00450513          	add	a0,a0,4
    1798:	00a00713          	li	a4,10
    179c:	00e60023          	sb	a4,0(a2)
    17a0:	fa9ff06f          	j	1748 <compliance_halt_loop>
    17a4:	0040006f          	j	17a8 <compliance_halt_break>

000017a8 <compliance_halt_break>:
    17a8:	80001537          	lui	a0,0x80001
    17ac:	00950513          	add	a0,a0,9 # 80001009 <_end+0x7fffe359>
    17b0:	00d50023          	sb	a3,0(a0)
	...

Desensamblado de la sección .data:

00002000 <rvtest_data_begin>:
    2000:	cafe                	.2byte	0xcafe
    2002:	babe                	.2byte	0xbabe

00002004 <test_fp>:
    2004:	7dce622b          	.4byte	0x7dce622b
    2008:	7dce622b          	.4byte	0x7dce622b
    200c:	4d71                	.2byte	0x4d71
    200e:	7e9e                	.2byte	0x7e9e
    2010:	4d71                	.2byte	0x4d71
    2012:	7e9e                	.2byte	0x7e9e
    2014:	de98                	.2byte	0xde98
    2016:	de987eb7          	lui	t4,0xde987
    201a:	125d7eb7          	lui	t4,0x125d7
    201e:	125d7e37          	lui	t3,0x125d7
    2022:	cf7d7e37          	lui	t3,0xcf7d7
    2026:	cf7d7f03          	.4byte	0xcf7d7f03
    202a:	27867f03          	.4byte	0x27867f03
    202e:	7ef9                	.2byte	0x7ef9
    2030:	2786                	.2byte	0x2786
    2032:	7ef9                	.2byte	0x7ef9
    2034:	057e                	.2byte	0x57e
    2036:	057e7ecb          	.4byte	0x57e7ecb
    203a:	59cb7ecb          	fnmsub.s	ft9,fs6,ft8,fa1
    203e:	59cb7e33          	.4byte	0x59cb7e33
    2042:	03fa7e33          	.4byte	0x3fa7e33
    2046:	7e9a                	.2byte	0x7e9a
    2048:	03fa                	.2byte	0x3fa
    204a:	7e9a                	.2byte	0x7e9a
    204c:	7f1f27c7          	.4byte	0x7f1f27c7
    2050:	7f1f27c7          	.4byte	0x7f1f27c7
    2054:	32ba                	.2byte	0x32ba
    2056:	7dc0                	.2byte	0x7dc0
    2058:	32ba                	.2byte	0x32ba
    205a:	7dc0                	.2byte	0x7dc0
    205c:	7e884c5b          	.4byte	0x7e884c5b
    2060:	7e884c5b          	.4byte	0x7e884c5b
    2064:	1c9d                	.2byte	0x1c9d
    2066:	1c9d7edb          	.4byte	0x1c9d7edb
    206a:	3b857edb          	.4byte	0x3b857edb
    206e:	7ef8                	.2byte	0x7ef8
    2070:	3b85                	.2byte	0x3b85
    2072:	7ef8                	.2byte	0x7ef8
    2074:	1ec9                	.2byte	0x1ec9
    2076:	7e46                	.2byte	0x7e46
    2078:	1ec9                	.2byte	0x1ec9
    207a:	7e46                	.2byte	0x7e46
    207c:	7e97f3eb          	.4byte	0x7e97f3eb
    2080:	7e97f3eb          	.4byte	0x7e97f3eb
    2084:	72bc                	.2byte	0x72bc
    2086:	72bc7f23          	.4byte	0x72bc7f23
    208a:	eb6d7f23          	.4byte	0xeb6d7f23
    208e:	7ed2                	.2byte	0x7ed2
    2090:	eb6d                	.2byte	0xeb6d
    2092:	7ed2                	.2byte	0x7ed2
    2094:	7f38f857          	.4byte	0x7f38f857
    2098:	7f38f857          	.4byte	0x7f38f857
    209c:	fc81                	.2byte	0xfc81
    209e:	7e41                	.2byte	0x7e41
    20a0:	fc81                	.2byte	0xfc81
    20a2:	7e41                	.2byte	0x7e41
    20a4:	3f0c                	.2byte	0x3f0c
    20a6:	7f09                	.2byte	0x7f09
    20a8:	3f0c                	.2byte	0x3f0c
    20aa:	7f09                	.2byte	0x7f09
    20ac:	7ea6220b          	.4byte	0x7ea6220b
    20b0:	7ea6220b          	.4byte	0x7ea6220b
    20b4:	7f0466fb          	.4byte	0x7f0466fb
    20b8:	7f0466fb          	.4byte	0x7f0466fb
    20bc:	6afe                	.2byte	0x6afe
    20be:	7f21                	.2byte	0x7f21
    20c0:	6afe                	.2byte	0x6afe
    20c2:	7f21                	.2byte	0x7f21
    20c4:	5724                	.2byte	0x5724
    20c6:	7f1a                	.2byte	0x7f1a
    20c8:	5724                	.2byte	0x5724
    20ca:	7f1a                	.2byte	0x7f1a
    20cc:	bda0                	.2byte	0xbda0
    20ce:	7e72                	.2byte	0x7e72
    20d0:	bda0                	.2byte	0xbda0
    20d2:	7e72                	.2byte	0x7e72
    20d4:	cffe                	.2byte	0xcffe
    20d6:	7f2e                	.2byte	0x7f2e
    20d8:	cffe                	.2byte	0xcffe
    20da:	7f2e                	.2byte	0x7f2e
    20dc:	7f2b9a07          	.4byte	0x7f2b9a07
    20e0:	7f2b9a07          	.4byte	0x7f2b9a07
    20e4:	7f30843b          	.4byte	0x7f30843b
    20e8:	7f30843b          	.4byte	0x7f30843b
    20ec:	2a08                	.2byte	0x2a08
    20ee:	7da4                	.2byte	0x7da4
    20f0:	2a08                	.2byte	0x2a08
    20f2:	7da4                	.2byte	0x7da4
    20f4:	bcd4                	.2byte	0xbcd4
    20f6:	7f1d                	.2byte	0x7f1d
    20f8:	bcd4                	.2byte	0xbcd4
    20fa:	7f1d                	.2byte	0x7f1d
    20fc:	0838                	.2byte	0x838
    20fe:	7f15                	.2byte	0x7f15
    2100:	0838                	.2byte	0x838
    2102:	7f15                	.2byte	0x7f15
    2104:	7f364073          	.4byte	0x7f364073
    2108:	7f364073          	.4byte	0x7f364073
    210c:	a306                	.2byte	0xa306
    210e:	7f18                	.2byte	0x7f18
    2110:	a306                	.2byte	0xa306
    2112:	7f18                	.2byte	0x7f18
    2114:	d1e1                	.2byte	0xd1e1
    2116:	7dec                	.2byte	0x7dec
    2118:	d1e1                	.2byte	0xd1e1
    211a:	7dec                	.2byte	0x7dec
    211c:	6988                	.2byte	0x6988
    211e:	7ebd                	.2byte	0x7ebd
    2120:	6988                	.2byte	0x6988
    2122:	7ebd                	.2byte	0x7ebd
    2124:	7e5f59d7          	.4byte	0x7e5f59d7
    2128:	7e5f59d7          	.4byte	0x7e5f59d7
    212c:	cc78                	.2byte	0xcc78
    212e:	7d66                	.2byte	0x7d66
    2130:	cc78                	.2byte	0xcc78
    2132:	7d66                	.2byte	0x7d66
    2134:	a9a1                	.2byte	0xa9a1
    2136:	a9a17ed3          	.4byte	0xa9a17ed3
    213a:	35067ed3          	.4byte	0x35067ed3
    213e:	35067e3b          	.4byte	0x35067e3b
    2142:	3c397e3b          	.4byte	0x3c397e3b
    2146:	7e3c                	.2byte	0x7e3c
    2148:	3c39                	.2byte	0x3c39
    214a:	7e3c                	.2byte	0x7e3c
    214c:	5495                	.2byte	0x5495
    214e:	7ede                	.2byte	0x7ede
    2150:	5495                	.2byte	0x5495
    2152:	7ede                	.2byte	0x7ede
    2154:	7e80624f          	.4byte	0x7e80624f
    2158:	7e80624f          	.4byte	0x7e80624f
    215c:	8d52                	.2byte	0x8d52
    215e:	8d527f2b          	.4byte	0x8d527f2b
    2162:	40a97f2b          	.4byte	0x40a97f2b
    2166:	40a97e73          	csrrc	t3,0x40a,18
    216a:	9c3e7e73          	csrrc	t3,0x9c3,28
    216e:	9c3e7e6b          	.4byte	0x9c3e7e6b
    2172:	9efb7e6b          	.4byte	0x9efb7e6b
    2176:	7f34                	.2byte	0x7f34
    2178:	7f349efb          	.4byte	0x7f349efb
    217c:	5f3d                	.2byte	0x5f3d
    217e:	7efa                	.2byte	0x7efa
    2180:	5f3d                	.2byte	0x5f3d
    2182:	7efa                	.2byte	0x7efa
    2184:	ceee                	.2byte	0xceee
    2186:	7f3c                	.2byte	0x7f3c
    2188:	ceee                	.2byte	0xceee
    218a:	7f3c                	.2byte	0x7f3c
    218c:	f6ff                	.2byte	0xf6ff
    218e:	7d79                	.2byte	0x7d79
    2190:	f6ff                	.2byte	0xf6ff
    2192:	7d79                	.2byte	0x7d79
    2194:	05c9                	.2byte	0x5c9
    2196:	7e6c                	.2byte	0x7e6c
    2198:	05c9                	.2byte	0x5c9
    219a:	7e6c                	.2byte	0x7e6c
    219c:	fa60                	.2byte	0xfa60
    219e:	7e46                	.2byte	0x7e46
    21a0:	fa60                	.2byte	0xfa60
    21a2:	7e46                	.2byte	0x7e46
    21a4:	7f0421e7          	.4byte	0x7f0421e7
    21a8:	7f0421e7          	.4byte	0x7f0421e7
    21ac:	26a4                	.2byte	0x26a4
    21ae:	7f3c                	.2byte	0x7f3c
    21b0:	26a4                	.2byte	0x26a4
    21b2:	7f3c                	.2byte	0x7f3c
    21b4:	7e2544b7          	lui	s1,0x7e254
    21b8:	7e2544b7          	lui	s1,0x7e254
    21bc:	7f3a336f          	jal	t1,a61ae <_end+0xa34fe>
    21c0:	7f3a336f          	jal	t1,a61b2 <_end+0xa3502>
    21c4:	5f0a                	.2byte	0x5f0a
    21c6:	5f0a7f2f          	.4byte	0x5f0a7f2f
    21ca:	99857f2f          	.4byte	0x99857f2f
    21ce:	7e70                	.2byte	0x7e70
    21d0:	9985                	.2byte	0x9985
    21d2:	7e70                	.2byte	0x7e70
    21d4:	7ee51547          	.4byte	0x7ee51547
    21d8:	7ee51547          	.4byte	0x7ee51547
    21dc:	a7f2                	.2byte	0xa7f2
    21de:	7f3c                	.2byte	0x7f3c
    21e0:	a7f2                	.2byte	0xa7f2
    21e2:	7f3c                	.2byte	0x7f3c
    21e4:	6d34                	.2byte	0x6d34
    21e6:	6d347cf3          	csrrc	s9,0x6d3,8
    21ea:	cc617cf3          	csrrc	s9,0xcc6,2
    21ee:	7d99                	.2byte	0x7d99
    21f0:	cc61                	.2byte	0xcc61
    21f2:	7d99                	.2byte	0x7d99
    21f4:	9e75                	.2byte	0x9e75
    21f6:	7e42                	.2byte	0x7e42
    21f8:	9e75                	.2byte	0x9e75
    21fa:	7e42                	.2byte	0x7e42
    21fc:	921d                	.2byte	0x921d
    21fe:	7f2e                	.2byte	0x7f2e
    2200:	921d                	.2byte	0x921d
    2202:	7f2e                	.2byte	0x7f2e
    2204:	422a                	.2byte	0x422a
    2206:	7e91                	.2byte	0x7e91
    2208:	422a                	.2byte	0x422a
    220a:	7e91                	.2byte	0x7e91
    220c:	7d9df407          	.4byte	0x7d9df407
    2210:	7d9df407          	.4byte	0x7d9df407
    2214:	6928                	.2byte	0x6928
    2216:	7e39                	.2byte	0x7e39
    2218:	6928                	.2byte	0x6928
    221a:	7e39                	.2byte	0x7e39
    221c:	7f52                	.2byte	0x7f52
    221e:	7db1                	.2byte	0x7db1
    2220:	7f52                	.2byte	0x7f52
    2222:	7db1                	.2byte	0x7db1
    2224:	b9f6                	.2byte	0xb9f6
    2226:	7f3d                	.2byte	0x7f3d
    2228:	b9f6                	.2byte	0xb9f6
    222a:	7f3d                	.2byte	0x7f3d
    222c:	7cf5e793          	or	a5,a1,1999
    2230:	7cf5e793          	or	a5,a1,1999
    2234:	cc24                	.2byte	0xcc24
    2236:	7db0                	.2byte	0x7db0
    2238:	cc24                	.2byte	0xcc24
    223a:	7db0                	.2byte	0x7db0
    223c:	b812                	.2byte	0xb812
    223e:	7f00                	.2byte	0x7f00
    2240:	b812                	.2byte	0xb812
    2242:	7f00                	.2byte	0x7f00
    2244:	ee75                	.2byte	0xee75
    2246:	7f1e                	.2byte	0x7f1e
    2248:	ee75                	.2byte	0xee75
    224a:	7f1e                	.2byte	0x7f1e
    224c:	e058                	.2byte	0xe058
    224e:	7e54                	.2byte	0x7e54
    2250:	e058                	.2byte	0xe058
    2252:	7e54                	.2byte	0x7e54
    2254:	9ce6                	.2byte	0x9ce6
    2256:	7f31                	.2byte	0x7f31
    2258:	9ce6                	.2byte	0x9ce6
    225a:	7f31                	.2byte	0x7f31
    225c:	0708                	.2byte	0x708
    225e:	07087f2b          	.4byte	0x7087f2b
    2262:	1d837f2b          	.4byte	0x1d837f2b
    2266:	1d837d7b          	.4byte	0x1d837d7b
    226a:	2e1a7d7b          	.4byte	0x2e1a7d7b
    226e:	2e1a7edb          	.4byte	0x2e1a7edb
    2272:	201f7edb          	.4byte	0x201f7edb
    2276:	7f16                	.2byte	0x7f16
    2278:	201f 7f16 e795      	.byte	0x1f, 0x20, 0x16, 0x7f, 0x95, 0xe7
    227e:	7e82                	.2byte	0x7e82
    2280:	e795                	.2byte	0xe795
    2282:	7e82                	.2byte	0x7e82
    2284:	7f17517f 7f17517f 	.byte	0x7f, 0x51, 0x17, 0x7f, 0x7f, 0x51, 0x17, 0x7f, 0xa4, 0xd9, 0x60, 0x7d, 0xa4, 0xd9, 0x60, 0x7d, 0x98, 0x2a, 0xa0, 0x7d
    228c:	7d60d9a4 7d60d9a4 
    2294:	7da02a98 
    2298:	2a98                	.2byte	0x2a98
    229a:	7da0                	.2byte	0x7da0
    229c:	7dcfe433          	.4byte	0x7dcfe433
    22a0:	7dcfe433          	.4byte	0x7dcfe433
    22a4:	3a1e                	.2byte	0x3a1e
    22a6:	3a1e7f37          	lui	t5,0x3a1e7
    22aa:	8b6a7f37          	lui	t5,0x8b6a7
    22ae:	7f26                	.2byte	0x7f26
    22b0:	8b6a                	.2byte	0x8b6a
    22b2:	7f26                	.2byte	0x7f26
    22b4:	ab65                	.2byte	0xab65
    22b6:	7e82                	.2byte	0x7e82
    22b8:	ab65                	.2byte	0xab65
    22ba:	7e82                	.2byte	0x7e82
    22bc:	7f217f53          	.4byte	0x7f217f53
    22c0:	7f217f53          	.4byte	0x7f217f53
    22c4:	7f11c013          	xor	zero,gp,2033
    22c8:	7f11c013          	xor	zero,gp,2033
    22cc:	e8de                	.2byte	0xe8de
    22ce:	7f2e                	.2byte	0x7f2e
    22d0:	e8de                	.2byte	0xe8de
    22d2:	7f2e                	.2byte	0x7f2e
    22d4:	119e                	.2byte	0x119e
    22d6:	7d82                	.2byte	0x7d82
    22d8:	119e                	.2byte	0x119e
    22da:	7d82                	.2byte	0x7d82
    22dc:	7e34342f          	.4byte	0x7e34342f
    22e0:	7e34342f          	.4byte	0x7e34342f
    22e4:	0c29                	.2byte	0xc29
    22e6:	7eba                	.2byte	0x7eba
    22e8:	0c29                	.2byte	0xc29
    22ea:	7eba                	.2byte	0x7eba
    22ec:	7f296b63          	bltu	s2,s2,2ae2 <data_begin+0x482>
    22f0:	7f296b63          	bltu	s2,s2,2ae6 <data_begin+0x486>
    22f4:	fae0                	.2byte	0xfae0
    22f6:	7f32                	.2byte	0x7f32
    22f8:	fae0                	.2byte	0xfae0
    22fa:	7f32                	.2byte	0x7f32
    22fc:	7ed0                	.2byte	0x7ed0
    22fe:	7f01                	.2byte	0x7f01
    2300:	7ed0                	.2byte	0x7ed0
    2302:	7f01                	.2byte	0x7f01
    2304:	3675                	.2byte	0x3675
    2306:	7e82                	.2byte	0x7e82
    2308:	3675                	.2byte	0x3675
    230a:	7e82                	.2byte	0x7e82
    230c:	7f3d8377          	.4byte	0x7f3d8377
    2310:	7f3d8377          	.4byte	0x7f3d8377
    2314:	414e                	.2byte	0x414e
    2316:	7e1a                	.2byte	0x7e1a
    2318:	414e                	.2byte	0x414e
    231a:	7e1a                	.2byte	0x7e1a
    231c:	bcfc                	.2byte	0xbcfc
    231e:	7f2c                	.2byte	0x7f2c
    2320:	bcfc                	.2byte	0xbcfc
    2322:	7f2c                	.2byte	0x7f2c
    2324:	dd8e                	.2byte	0xdd8e
    2326:	7e79                	.2byte	0x7e79
    2328:	dd8e                	.2byte	0xdd8e
    232a:	7e79                	.2byte	0x7e79
    232c:	6240                	.2byte	0x6240
    232e:	62407e63          	bgeu	zero,tp,296a <data_begin+0x30a>
    2332:	65467e63          	bgeu	a2,s4,298e <data_begin+0x32e>
    2336:	7da0                	.2byte	0x7da0
    2338:	6546                	.2byte	0x6546
    233a:	7da0                	.2byte	0x7da0
    233c:	40ba                	.2byte	0x40ba
    233e:	7ea6                	.2byte	0x7ea6
    2340:	40ba                	.2byte	0x40ba
    2342:	7ea6                	.2byte	0x7ea6
    2344:	7e1e0667          	jalr	a2,2017(t3) # cf7d77e1 <_end+0xcf7d4b31>
    2348:	7e1e0667          	jalr	a2,2017(t3)
    234c:	23d8                	.2byte	0x23d8
    234e:	7e91                	.2byte	0x7e91
    2350:	23d8                	.2byte	0x23d8
    2352:	7e91                	.2byte	0x7e91
    2354:	2c24                	.2byte	0x2c24
    2356:	2c247f07          	.4byte	0x2c247f07
    235a:	9d2c7f07          	.4byte	0x9d2c7f07
    235e:	7f26                	.2byte	0x7f26
    2360:	9d2c                	.2byte	0x9d2c
    2362:	7f26                	.2byte	0x7f26
    2364:	7edafcdb          	.4byte	0x7edafcdb
    2368:	7edafcdb          	.4byte	0x7edafcdb
    236c:	7f1d53d7          	.4byte	0x7f1d53d7
    2370:	7f1d53d7          	.4byte	0x7f1d53d7
    2374:	b6bd                	.2byte	0xb6bd
    2376:	7f28                	.2byte	0x7f28
    2378:	b6bd                	.2byte	0xb6bd
    237a:	7f28                	.2byte	0x7f28
    237c:	cf9e                	.2byte	0xcf9e
    237e:	7e41                	.2byte	0x7e41
    2380:	cf9e                	.2byte	0xcf9e
    2382:	7e41                	.2byte	0x7e41
    2384:	7f0ed153          	.4byte	0x7f0ed153
    2388:	7f0ed153          	.4byte	0x7f0ed153
    238c:	5bf8                	.2byte	0x5bf8
    238e:	7e6e                	.2byte	0x7e6e
    2390:	5bf8                	.2byte	0x5bf8
    2392:	7e6e                	.2byte	0x7e6e
    2394:	4e0e                	.2byte	0x4e0e
    2396:	4e0e7e6b          	.4byte	0x4e0e7e6b
    239a:	d6617e6b          	.4byte	0xd6617e6b
    239e:	7f39                	.2byte	0x7f39
    23a0:	d661                	.2byte	0xd661
    23a2:	7f39                	.2byte	0x7f39
    23a4:	967e                	.2byte	0x967e
    23a6:	7d34                	.2byte	0x7d34
    23a8:	967e                	.2byte	0x967e
    23aa:	7d34                	.2byte	0x7d34
    23ac:	b77e                	.2byte	0xb77e
    23ae:	7e76                	.2byte	0x7e76
    23b0:	b77e                	.2byte	0xb77e
    23b2:	7e76                	.2byte	0x7e76
    23b4:	a40d                	.2byte	0xa40d
    23b6:	a40d7e97          	auipc	t4,0xa40d7
    23ba:	6a137e97          	auipc	t4,0x6a137
    23be:	6a137e2b          	.4byte	0x6a137e2b
    23c2:	2dff7e2b          	.4byte	0x2dff7e2b
    23c6:	7f19                	.2byte	0x7f19
    23c8:	2dff 7f19 6bac 7e29 	.byte	0xff, 0x2d, 0x19, 0x7f, 0xac, 0x6b, 0x29, 0x7e, 0xac, 0x6b, 0x29, 0x7e, 0xb2, 0x35
    23d0:	6bac 7e29 35b2 
    23d6:	7f02                	.2byte	0x7f02
    23d8:	35b2                	.2byte	0x35b2
    23da:	7f02                	.2byte	0x7f02
    23dc:	1c0c                	.2byte	0x1c0c
    23de:	7df6                	.2byte	0x7df6
    23e0:	1c0c                	.2byte	0x1c0c
    23e2:	7df6                	.2byte	0x7df6
    23e4:	f718                	.2byte	0xf718
    23e6:	7de0                	.2byte	0x7de0
    23e8:	f718                	.2byte	0xf718
    23ea:	7de0                	.2byte	0x7de0
    23ec:	d01a                	.2byte	0xd01a
    23ee:	7c7f                	.2byte	0x7c7f
    23f0:	d01a                	.2byte	0xd01a
    23f2:	7c7f                	.2byte	0x7c7f
    23f4:	91ae                	.2byte	0x91ae
    23f6:	7ee8                	.2byte	0x7ee8
    23f8:	91ae                	.2byte	0x91ae
    23fa:	7ee8                	.2byte	0x7ee8
    23fc:	e270                	.2byte	0xe270
    23fe:	e2707ec3          	.4byte	0xe2707ec3
    2402:	0ed67ec3          	.4byte	0xed67ec3
    2406:	0ed67da7          	.4byte	0xed67da7
    240a:	a1fc7da7          	.4byte	0xa1fc7da7
    240e:	7ea1                	.2byte	0x7ea1
    2410:	a1fc                	.2byte	0xa1fc
    2412:	7ea1                	.2byte	0x7ea1
    2414:	35f9                	.2byte	0x35f9
    2416:	7c91                	.2byte	0x7c91
    2418:	35f9                	.2byte	0x35f9
    241a:	7c91                	.2byte	0x7c91
    241c:	4c1e                	.2byte	0x4c1e
    241e:	4c1e7e77          	.4byte	0x4c1e7e77
    2422:	a0117e77          	.4byte	0xa0117e77
    2426:	7f08                	.2byte	0x7f08
    2428:	a011                	.2byte	0xa011
    242a:	7f08                	.2byte	0x7f08
    242c:	7e0122a3          	sw	zero,2021(sp)
    2430:	7e0122a3          	sw	zero,2021(sp)
    2434:	2f4e                	.2byte	0x2f4e
    2436:	7df5                	.2byte	0x7df5
    2438:	2f4e                	.2byte	0x2f4e
    243a:	7df5                	.2byte	0x7df5
    243c:	4224                	.2byte	0x4224
    243e:	7e84                	.2byte	0x7e84
    2440:	4224                	.2byte	0x4224
    2442:	7e84                	.2byte	0x7e84
    2444:	2cad                	.2byte	0x2cad
    2446:	7da8                	.2byte	0x7da8
    2448:	2cad                	.2byte	0x2cad
    244a:	7da8                	.2byte	0x7da8
    244c:	1299                	.2byte	0x1299
    244e:	7f11                	.2byte	0x7f11
    2450:	1299                	.2byte	0x1299
    2452:	7f11                	.2byte	0x7f11
    2454:	182e                	.2byte	0x182e
    2456:	7c4d                	.2byte	0x7c4d
    2458:	182e                	.2byte	0x182e
    245a:	7c4d                	.2byte	0x7c4d
    245c:	3cdf 7f01 3cdf      	.byte	0xdf, 0x3c, 0x01, 0x7f, 0xdf, 0x3c
    2462:	7f01                	.2byte	0x7f01
    2464:	10d9                	.2byte	0x10d9
    2466:	7e44                	.2byte	0x7e44
    2468:	10d9                	.2byte	0x10d9
    246a:	7e44                	.2byte	0x7e44
    246c:	0af0                	.2byte	0xaf0
    246e:	7f19                	.2byte	0x7f19
    2470:	0af0                	.2byte	0xaf0
    2472:	7f19                	.2byte	0x7f19
    2474:	504e                	.2byte	0x504e
    2476:	7f25                	.2byte	0x7f25
    2478:	504e                	.2byte	0x504e
    247a:	7f25                	.2byte	0x7f25
    247c:	1926                	.2byte	0x1926
    247e:	7e08                	.2byte	0x7e08
    2480:	1926                	.2byte	0x1926
    2482:	7e08                	.2byte	0x7e08
    2484:	7cabe0d7          	.4byte	0x7cabe0d7
    2488:	7cabe0d7          	.4byte	0x7cabe0d7
    248c:	2e86                	.2byte	0x2e86
    248e:	2e867eeb          	.4byte	0x2e867eeb
    2492:	c69e7eeb          	.4byte	0xc69e7eeb
    2496:	7ece                	.2byte	0x7ece
    2498:	c69e                	.2byte	0xc69e
    249a:	7ece                	.2byte	0x7ece
    249c:	01e1                	.2byte	0x1e1
    249e:	7e89                	.2byte	0x7e89
    24a0:	01e1                	.2byte	0x1e1
    24a2:	7e89                	.2byte	0x7e89
    24a4:	d009                	.2byte	0xd009
    24a6:	7ec1                	.2byte	0x7ec1
    24a8:	d009                	.2byte	0xd009
    24aa:	7ec1                	.2byte	0x7ec1
    24ac:	e136                	.2byte	0xe136
    24ae:	7eda                	.2byte	0x7eda
    24b0:	e136                	.2byte	0xe136
    24b2:	7eda                	.2byte	0x7eda
    24b4:	7d2c6927          	.4byte	0x7d2c6927
    24b8:	7d2c6927          	.4byte	0x7d2c6927
    24bc:	8fb8                	.2byte	0x8fb8
    24be:	8fb87ed7          	.4byte	0x8fb87ed7
    24c2:	5ad77ed7          	.4byte	0x5ad77ed7
    24c6:	5ad77f1b          	.4byte	0x5ad77f1b
    24ca:	257f7f1b          	.4byte	0x257f7f1b
    24ce:	7f2a                	.2byte	0x7f2a
    24d0:	257f 7f2a 7638 7f16 	.byte	0x7f, 0x25, 0x2a, 0x7f, 0x38, 0x76, 0x16, 0x7f, 0x38, 0x76, 0x16, 0x7f, 0x2d, 0xc4
    24d8:	7638 7f16 c42d 
    24de:	c42d7f37          	lui	t5,0xc42d7
    24e2:	ce7f7f37          	lui	t5,0xce7f7
    24e6:	7e4e                	.2byte	0x7e4e
    24e8:	ce7f 7e4e df89 7edd 	.byte	0x7f, 0xce, 0x4e, 0x7e, 0x89, 0xdf, 0xdd, 0x7e, 0x89, 0xdf, 0xdd, 0x7e, 0xce, 0x49, 0xc5, 0x7e, 0xce, 0x49
    24f0:	df89 7edd 49ce 7ec5 
    24f8:	49ce 
    24fa:	7ec5                	.2byte	0x7ec5
    24fc:	2cf6                	.2byte	0x2cf6
    24fe:	7f25                	.2byte	0x7f25
    2500:	2cf6                	.2byte	0x2cf6
    2502:	7f25                	.2byte	0x7f25
    2504:	f0c0                	.2byte	0xf0c0
    2506:	f0c07f13          	and	t5,zero,-244
    250a:	dc0e7f13          	and	t5,t3,-576
    250e:	7ec0                	.2byte	0x7ec0
    2510:	dc0e                	.2byte	0xdc0e
    2512:	7ec0                	.2byte	0x7ec0
    2514:	246c                	.2byte	0x246c
    2516:	246c7e97          	auipc	t4,0x246c7
    251a:	c5a47e97          	auipc	t4,0xc5a47
    251e:	7f3c                	.2byte	0x7f3c
    2520:	c5a4                	.2byte	0xc5a4
    2522:	7f3c                	.2byte	0x7f3c
    2524:	7d0597cb          	.4byte	0x7d0597cb
    2528:	7d0597cb          	.4byte	0x7d0597cb
    252c:	0ad4                	.2byte	0xad4
    252e:	7ebc                	.2byte	0x7ebc
    2530:	0ad4                	.2byte	0xad4
    2532:	7ebc                	.2byte	0x7ebc
    2534:	0a54                	.2byte	0xa54
    2536:	7ec8                	.2byte	0x7ec8
    2538:	0a54                	.2byte	0xa54
    253a:	7ec8                	.2byte	0x7ec8
    253c:	7ec33c5b          	.4byte	0x7ec33c5b
    2540:	7ec33c5b          	.4byte	0x7ec33c5b
    2544:	e2cd                	.2byte	0xe2cd
    2546:	e2cd7e8f          	.4byte	0xe2cd7e8f
    254a:	fbdb7e8f          	.4byte	0xfbdb7e8f
    254e:	7f06                	.2byte	0x7f06
    2550:	7f06fbdb          	.4byte	0x7f06fbdb
    2554:	7e04dea3          	.4byte	0x7e04dea3
    2558:	7e04dea3          	.4byte	0x7e04dea3
    255c:	7f191a03          	lh	s4,2033(s2)
    2560:	7f191a03          	lh	s4,2033(s2)
    2564:	206e                	.2byte	0x206e
    2566:	7cd4                	.2byte	0x7cd4
    2568:	206e                	.2byte	0x206e
    256a:	7cd4                	.2byte	0x7cd4
    256c:	7ec2076b          	.4byte	0x7ec2076b
    2570:	7ec2076b          	.4byte	0x7ec2076b
    2574:	7f296f9b          	.4byte	0x7f296f9b
    2578:	7f296f9b          	.4byte	0x7f296f9b
    257c:	fcac                	.2byte	0xfcac
    257e:	7e68                	.2byte	0x7e68
    2580:	fcac                	.2byte	0xfcac
    2582:	7e68                	.2byte	0x7e68
    2584:	5de9                	.2byte	0x5de9
    2586:	7f1f 5de9 7f1f      	.byte	0x1f, 0x7f, 0xe9, 0x5d, 0x1f, 0x7f
    258c:	cbed                	.2byte	0xcbed
    258e:	cbed7f33          	.4byte	0xcbed7f33
    2592:	86667f33          	.4byte	0x86667f33
    2596:	7f0a                	.2byte	0x7f0a
    2598:	8666                	.2byte	0x8666
    259a:	7f0a                	.2byte	0x7f0a
    259c:	afdd                	.2byte	0xafdd
    259e:	7db9                	.2byte	0x7db9
    25a0:	afdd                	.2byte	0xafdd
    25a2:	7db9                	.2byte	0x7db9
    25a4:	917d                	.2byte	0x917d
    25a6:	7f3e                	.2byte	0x7f3e
    25a8:	917d                	.2byte	0x917d
    25aa:	7f3e                	.2byte	0x7f3e
    25ac:	a41a                	.2byte	0xa41a
    25ae:	7ef6                	.2byte	0x7ef6
    25b0:	a41a                	.2byte	0xa41a
    25b2:	7ef6                	.2byte	0x7ef6
    25b4:	d0a1                	.2byte	0xd0a1
    25b6:	7f20                	.2byte	0x7f20
    25b8:	d0a1                	.2byte	0xd0a1
    25ba:	7f20                	.2byte	0x7f20
    25bc:	8d61                	.2byte	0x8d61
    25be:	7e5e                	.2byte	0x7e5e
    25c0:	8d61                	.2byte	0x8d61
    25c2:	7e5e                	.2byte	0x7e5e
    25c4:	0619                	.2byte	0x619
    25c6:	7e28                	.2byte	0x7e28
    25c8:	0619                	.2byte	0x619
    25ca:	7e28                	.2byte	0x7e28
    25cc:	0244                	.2byte	0x244
    25ce:	02447e33          	.4byte	0x2447e33
    25d2:	26197e33          	.4byte	0x26197e33
    25d6:	7ea8                	.2byte	0x7ea8
    25d8:	2619                	.2byte	0x2619
    25da:	7ea8                	.2byte	0x7ea8
    25dc:	6d35                	.2byte	0x6d35
    25de:	7cb2                	.2byte	0x7cb2
    25e0:	6d35                	.2byte	0x6d35
    25e2:	7cb2                	.2byte	0x7cb2
    25e4:	592c                	.2byte	0x592c
    25e6:	7e26                	.2byte	0x7e26
    25e8:	592c                	.2byte	0x592c
    25ea:	7e26                	.2byte	0x7e26
    25ec:	510e                	.2byte	0x510e
    25ee:	7f34                	.2byte	0x7f34
    25f0:	510e                	.2byte	0x510e
    25f2:	7f34                	.2byte	0x7f34
    25f4:	56e0                	.2byte	0x56e0
    25f6:	7c9c                	.2byte	0x7c9c
    25f8:	56e0                	.2byte	0x56e0
    25fa:	7c9c                	.2byte	0x7c9c
    25fc:	12f5                	.2byte	0x12f5
    25fe:	7f2d                	.2byte	0x7f2d
    2600:	12f5                	.2byte	0x12f5
    2602:	7f2d                	.2byte	0x7f2d
    2604:	7e2fb07b          	.4byte	0x7e2fb07b
    2608:	7e2fb07b          	.4byte	0x7e2fb07b
    260c:	7eab0757          	.4byte	0x7eab0757
    2610:	7eab0757          	.4byte	0x7eab0757
    2614:	5b96                	.2byte	0x5b96
    2616:	7f12                	.2byte	0x7f12
    2618:	5b96                	.2byte	0x5b96
    261a:	7f12                	.2byte	0x7f12
    261c:	7786                	.2byte	0x7786
    261e:	7f20                	.2byte	0x7f20
    2620:	7786                	.2byte	0x7786
    2622:	7f20                	.2byte	0x7f20
    2624:	2b16                	.2byte	0x2b16
    2626:	7d90                	.2byte	0x7d90
    2628:	2b16                	.2byte	0x2b16
    262a:	7d90                	.2byte	0x7d90
    262c:	3631                	.2byte	0x3631
    262e:	7efa                	.2byte	0x7efa
    2630:	3631                	.2byte	0x3631
    2632:	7efa                	.2byte	0x7efa
    2634:	7ebe3f3f 7ebe3f3f 	.8byte	0x7ebe3f3f7ebe3f3f
    263c:	a50c                	.2byte	0xa50c
    263e:	7f12                	.2byte	0x7f12
    2640:	a50c                	.2byte	0xa50c
    2642:	7f12                	.2byte	0x7f12
    2644:	7dce622b          	.4byte	0x7dce622b
    2648:	7dce622b          	.4byte	0x7dce622b
    264c:	cf7d                	.2byte	0xcf7d
    264e:	cf7d7f03          	.4byte	0xcf7d7f03
    2652:	          	.4byte	0x7f03

00002654 <rvtest_data_end>:
	...

00002660 <data_begin>:
    2660:	deadbeef          	jal	t4,fffddc4a <_end+0xfffdaf9a>
    2664:	deadbeef          	jal	t4,fffddc4e <_end+0xfffdaf9e>
    2668:	deadbeef          	jal	t4,fffddc52 <_end+0xfffdafa2>
    266c:	deadbeef          	jal	t4,fffddc56 <_end+0xfffdafa6>
    2670:	deadbeef          	jal	t4,fffddc5a <_end+0xfffdafaa>
    2674:	deadbeef          	jal	t4,fffddc5e <_end+0xfffdafae>
    2678:	deadbeef          	jal	t4,fffddc62 <_end+0xfffdafb2>
    267c:	deadbeef          	jal	t4,fffddc66 <_end+0xfffdafb6>
    2680:	deadbeef          	jal	t4,fffddc6a <_end+0xfffdafba>
    2684:	deadbeef          	jal	t4,fffddc6e <_end+0xfffdafbe>
    2688:	deadbeef          	jal	t4,fffddc72 <_end+0xfffdafc2>
    268c:	deadbeef          	jal	t4,fffddc76 <_end+0xfffdafc6>
    2690:	deadbeef          	jal	t4,fffddc7a <_end+0xfffdafca>
    2694:	deadbeef          	jal	t4,fffddc7e <_end+0xfffdafce>
    2698:	deadbeef          	jal	t4,fffddc82 <_end+0xfffdafd2>
    269c:	deadbeef          	jal	t4,fffddc86 <_end+0xfffdafd6>
    26a0:	deadbeef          	jal	t4,fffddc8a <_end+0xfffdafda>
    26a4:	deadbeef          	jal	t4,fffddc8e <_end+0xfffdafde>
    26a8:	deadbeef          	jal	t4,fffddc92 <_end+0xfffdafe2>
    26ac:	deadbeef          	jal	t4,fffddc96 <_end+0xfffdafe6>
    26b0:	deadbeef          	jal	t4,fffddc9a <_end+0xfffdafea>
    26b4:	deadbeef          	jal	t4,fffddc9e <_end+0xfffdafee>
    26b8:	deadbeef          	jal	t4,fffddca2 <_end+0xfffdaff2>
    26bc:	deadbeef          	jal	t4,fffddca6 <_end+0xfffdaff6>
    26c0:	deadbeef          	jal	t4,fffddcaa <_end+0xfffdaffa>
    26c4:	deadbeef          	jal	t4,fffddcae <_end+0xfffdaffe>
    26c8:	deadbeef          	jal	t4,fffddcb2 <_end+0xfffdb002>
    26cc:	deadbeef          	jal	t4,fffddcb6 <_end+0xfffdb006>
    26d0:	deadbeef          	jal	t4,fffddcba <_end+0xfffdb00a>
    26d4:	deadbeef          	jal	t4,fffddcbe <_end+0xfffdb00e>
    26d8:	deadbeef          	jal	t4,fffddcc2 <_end+0xfffdb012>
    26dc:	deadbeef          	jal	t4,fffddcc6 <_end+0xfffdb016>
    26e0:	deadbeef          	jal	t4,fffddcca <_end+0xfffdb01a>
    26e4:	deadbeef          	jal	t4,fffddcce <_end+0xfffdb01e>
    26e8:	deadbeef          	jal	t4,fffddcd2 <_end+0xfffdb022>
    26ec:	deadbeef          	jal	t4,fffddcd6 <_end+0xfffdb026>
    26f0:	deadbeef          	jal	t4,fffddcda <_end+0xfffdb02a>
    26f4:	deadbeef          	jal	t4,fffddcde <_end+0xfffdb02e>
    26f8:	deadbeef          	jal	t4,fffddce2 <_end+0xfffdb032>
    26fc:	deadbeef          	jal	t4,fffddce6 <_end+0xfffdb036>
    2700:	deadbeef          	jal	t4,fffddcea <_end+0xfffdb03a>
    2704:	deadbeef          	jal	t4,fffddcee <_end+0xfffdb03e>
    2708:	deadbeef          	jal	t4,fffddcf2 <_end+0xfffdb042>
    270c:	deadbeef          	jal	t4,fffddcf6 <_end+0xfffdb046>
    2710:	deadbeef          	jal	t4,fffddcfa <_end+0xfffdb04a>
    2714:	deadbeef          	jal	t4,fffddcfe <_end+0xfffdb04e>
    2718:	deadbeef          	jal	t4,fffddd02 <_end+0xfffdb052>
    271c:	deadbeef          	jal	t4,fffddd06 <_end+0xfffdb056>
    2720:	deadbeef          	jal	t4,fffddd0a <_end+0xfffdb05a>
    2724:	deadbeef          	jal	t4,fffddd0e <_end+0xfffdb05e>
    2728:	deadbeef          	jal	t4,fffddd12 <_end+0xfffdb062>
    272c:	deadbeef          	jal	t4,fffddd16 <_end+0xfffdb066>
    2730:	deadbeef          	jal	t4,fffddd1a <_end+0xfffdb06a>
    2734:	deadbeef          	jal	t4,fffddd1e <_end+0xfffdb06e>
    2738:	deadbeef          	jal	t4,fffddd22 <_end+0xfffdb072>
    273c:	deadbeef          	jal	t4,fffddd26 <_end+0xfffdb076>
    2740:	deadbeef          	jal	t4,fffddd2a <_end+0xfffdb07a>
    2744:	deadbeef          	jal	t4,fffddd2e <_end+0xfffdb07e>
    2748:	deadbeef          	jal	t4,fffddd32 <_end+0xfffdb082>
    274c:	deadbeef          	jal	t4,fffddd36 <_end+0xfffdb086>
    2750:	deadbeef          	jal	t4,fffddd3a <_end+0xfffdb08a>
    2754:	deadbeef          	jal	t4,fffddd3e <_end+0xfffdb08e>
    2758:	deadbeef          	jal	t4,fffddd42 <_end+0xfffdb092>
    275c:	deadbeef          	jal	t4,fffddd46 <_end+0xfffdb096>
    2760:	deadbeef          	jal	t4,fffddd4a <_end+0xfffdb09a>
    2764:	deadbeef          	jal	t4,fffddd4e <_end+0xfffdb09e>
    2768:	deadbeef          	jal	t4,fffddd52 <_end+0xfffdb0a2>
    276c:	deadbeef          	jal	t4,fffddd56 <_end+0xfffdb0a6>
    2770:	deadbeef          	jal	t4,fffddd5a <_end+0xfffdb0aa>
    2774:	deadbeef          	jal	t4,fffddd5e <_end+0xfffdb0ae>
    2778:	deadbeef          	jal	t4,fffddd62 <_end+0xfffdb0b2>
    277c:	deadbeef          	jal	t4,fffddd66 <_end+0xfffdb0b6>
    2780:	deadbeef          	jal	t4,fffddd6a <_end+0xfffdb0ba>
    2784:	deadbeef          	jal	t4,fffddd6e <_end+0xfffdb0be>
    2788:	deadbeef          	jal	t4,fffddd72 <_end+0xfffdb0c2>
    278c:	deadbeef          	jal	t4,fffddd76 <_end+0xfffdb0c6>
    2790:	deadbeef          	jal	t4,fffddd7a <_end+0xfffdb0ca>
    2794:	deadbeef          	jal	t4,fffddd7e <_end+0xfffdb0ce>
    2798:	deadbeef          	jal	t4,fffddd82 <_end+0xfffdb0d2>
    279c:	deadbeef          	jal	t4,fffddd86 <_end+0xfffdb0d6>
    27a0:	deadbeef          	jal	t4,fffddd8a <_end+0xfffdb0da>
    27a4:	deadbeef          	jal	t4,fffddd8e <_end+0xfffdb0de>
    27a8:	deadbeef          	jal	t4,fffddd92 <_end+0xfffdb0e2>
    27ac:	deadbeef          	jal	t4,fffddd96 <_end+0xfffdb0e6>
    27b0:	deadbeef          	jal	t4,fffddd9a <_end+0xfffdb0ea>
    27b4:	deadbeef          	jal	t4,fffddd9e <_end+0xfffdb0ee>
    27b8:	deadbeef          	jal	t4,fffddda2 <_end+0xfffdb0f2>
    27bc:	deadbeef          	jal	t4,fffddda6 <_end+0xfffdb0f6>
    27c0:	deadbeef          	jal	t4,fffdddaa <_end+0xfffdb0fa>
    27c4:	deadbeef          	jal	t4,fffdddae <_end+0xfffdb0fe>
    27c8:	deadbeef          	jal	t4,fffdddb2 <_end+0xfffdb102>
    27cc:	deadbeef          	jal	t4,fffdddb6 <_end+0xfffdb106>
    27d0:	deadbeef          	jal	t4,fffdddba <_end+0xfffdb10a>
    27d4:	deadbeef          	jal	t4,fffdddbe <_end+0xfffdb10e>
    27d8:	deadbeef          	jal	t4,fffdddc2 <_end+0xfffdb112>
    27dc:	deadbeef          	jal	t4,fffdddc6 <_end+0xfffdb116>
    27e0:	deadbeef          	jal	t4,fffdddca <_end+0xfffdb11a>
    27e4:	deadbeef          	jal	t4,fffdddce <_end+0xfffdb11e>
    27e8:	deadbeef          	jal	t4,fffdddd2 <_end+0xfffdb122>
    27ec:	deadbeef          	jal	t4,fffdddd6 <_end+0xfffdb126>
    27f0:	deadbeef          	jal	t4,fffdddda <_end+0xfffdb12a>
    27f4:	deadbeef          	jal	t4,fffdddde <_end+0xfffdb12e>
    27f8:	deadbeef          	jal	t4,fffddde2 <_end+0xfffdb132>
    27fc:	deadbeef          	jal	t4,fffddde6 <_end+0xfffdb136>
    2800:	deadbeef          	jal	t4,fffdddea <_end+0xfffdb13a>
    2804:	deadbeef          	jal	t4,fffdddee <_end+0xfffdb13e>
    2808:	deadbeef          	jal	t4,fffdddf2 <_end+0xfffdb142>
    280c:	deadbeef          	jal	t4,fffdddf6 <_end+0xfffdb146>
    2810:	deadbeef          	jal	t4,fffdddfa <_end+0xfffdb14a>
    2814:	deadbeef          	jal	t4,fffdddfe <_end+0xfffdb14e>
    2818:	deadbeef          	jal	t4,fffdde02 <_end+0xfffdb152>
    281c:	deadbeef          	jal	t4,fffdde06 <_end+0xfffdb156>
    2820:	deadbeef          	jal	t4,fffdde0a <_end+0xfffdb15a>
    2824:	deadbeef          	jal	t4,fffdde0e <_end+0xfffdb15e>
    2828:	deadbeef          	jal	t4,fffdde12 <_end+0xfffdb162>
    282c:	deadbeef          	jal	t4,fffdde16 <_end+0xfffdb166>
    2830:	deadbeef          	jal	t4,fffdde1a <_end+0xfffdb16a>
    2834:	deadbeef          	jal	t4,fffdde1e <_end+0xfffdb16e>
    2838:	deadbeef          	jal	t4,fffdde22 <_end+0xfffdb172>
    283c:	deadbeef          	jal	t4,fffdde26 <_end+0xfffdb176>
    2840:	deadbeef          	jal	t4,fffdde2a <_end+0xfffdb17a>
    2844:	deadbeef          	jal	t4,fffdde2e <_end+0xfffdb17e>
    2848:	deadbeef          	jal	t4,fffdde32 <_end+0xfffdb182>
    284c:	deadbeef          	jal	t4,fffdde36 <_end+0xfffdb186>
    2850:	deadbeef          	jal	t4,fffdde3a <_end+0xfffdb18a>
    2854:	deadbeef          	jal	t4,fffdde3e <_end+0xfffdb18e>
    2858:	deadbeef          	jal	t4,fffdde42 <_end+0xfffdb192>
    285c:	deadbeef          	jal	t4,fffdde46 <_end+0xfffdb196>
    2860:	deadbeef          	jal	t4,fffdde4a <_end+0xfffdb19a>
    2864:	deadbeef          	jal	t4,fffdde4e <_end+0xfffdb19e>
    2868:	deadbeef          	jal	t4,fffdde52 <_end+0xfffdb1a2>
    286c:	deadbeef          	jal	t4,fffdde56 <_end+0xfffdb1a6>
    2870:	deadbeef          	jal	t4,fffdde5a <_end+0xfffdb1aa>
    2874:	deadbeef          	jal	t4,fffdde5e <_end+0xfffdb1ae>
    2878:	deadbeef          	jal	t4,fffdde62 <_end+0xfffdb1b2>
    287c:	deadbeef          	jal	t4,fffdde66 <_end+0xfffdb1b6>
    2880:	deadbeef          	jal	t4,fffdde6a <_end+0xfffdb1ba>
    2884:	deadbeef          	jal	t4,fffdde6e <_end+0xfffdb1be>
    2888:	deadbeef          	jal	t4,fffdde72 <_end+0xfffdb1c2>
    288c:	deadbeef          	jal	t4,fffdde76 <_end+0xfffdb1c6>
    2890:	deadbeef          	jal	t4,fffdde7a <_end+0xfffdb1ca>
    2894:	deadbeef          	jal	t4,fffdde7e <_end+0xfffdb1ce>
    2898:	deadbeef          	jal	t4,fffdde82 <_end+0xfffdb1d2>
    289c:	deadbeef          	jal	t4,fffdde86 <_end+0xfffdb1d6>
    28a0:	deadbeef          	jal	t4,fffdde8a <_end+0xfffdb1da>
    28a4:	deadbeef          	jal	t4,fffdde8e <_end+0xfffdb1de>
    28a8:	deadbeef          	jal	t4,fffdde92 <_end+0xfffdb1e2>
    28ac:	deadbeef          	jal	t4,fffdde96 <_end+0xfffdb1e6>
    28b0:	deadbeef          	jal	t4,fffdde9a <_end+0xfffdb1ea>
    28b4:	deadbeef          	jal	t4,fffdde9e <_end+0xfffdb1ee>
    28b8:	deadbeef          	jal	t4,fffddea2 <_end+0xfffdb1f2>
    28bc:	deadbeef          	jal	t4,fffddea6 <_end+0xfffdb1f6>
    28c0:	deadbeef          	jal	t4,fffddeaa <_end+0xfffdb1fa>
    28c4:	deadbeef          	jal	t4,fffddeae <_end+0xfffdb1fe>
    28c8:	deadbeef          	jal	t4,fffddeb2 <_end+0xfffdb202>
    28cc:	deadbeef          	jal	t4,fffddeb6 <_end+0xfffdb206>
    28d0:	deadbeef          	jal	t4,fffddeba <_end+0xfffdb20a>
    28d4:	deadbeef          	jal	t4,fffddebe <_end+0xfffdb20e>
    28d8:	deadbeef          	jal	t4,fffddec2 <_end+0xfffdb212>
    28dc:	deadbeef          	jal	t4,fffddec6 <_end+0xfffdb216>
    28e0:	deadbeef          	jal	t4,fffddeca <_end+0xfffdb21a>
    28e4:	deadbeef          	jal	t4,fffddece <_end+0xfffdb21e>
    28e8:	deadbeef          	jal	t4,fffdded2 <_end+0xfffdb222>
    28ec:	deadbeef          	jal	t4,fffdded6 <_end+0xfffdb226>
    28f0:	deadbeef          	jal	t4,fffddeda <_end+0xfffdb22a>
    28f4:	deadbeef          	jal	t4,fffddede <_end+0xfffdb22e>
    28f8:	deadbeef          	jal	t4,fffddee2 <_end+0xfffdb232>
    28fc:	deadbeef          	jal	t4,fffddee6 <_end+0xfffdb236>
    2900:	deadbeef          	jal	t4,fffddeea <_end+0xfffdb23a>
    2904:	deadbeef          	jal	t4,fffddeee <_end+0xfffdb23e>
    2908:	deadbeef          	jal	t4,fffddef2 <_end+0xfffdb242>
    290c:	deadbeef          	jal	t4,fffddef6 <_end+0xfffdb246>
    2910:	deadbeef          	jal	t4,fffddefa <_end+0xfffdb24a>
    2914:	deadbeef          	jal	t4,fffddefe <_end+0xfffdb24e>
    2918:	deadbeef          	jal	t4,fffddf02 <_end+0xfffdb252>
    291c:	deadbeef          	jal	t4,fffddf06 <_end+0xfffdb256>
    2920:	deadbeef          	jal	t4,fffddf0a <_end+0xfffdb25a>
    2924:	deadbeef          	jal	t4,fffddf0e <_end+0xfffdb25e>
    2928:	deadbeef          	jal	t4,fffddf12 <_end+0xfffdb262>
    292c:	deadbeef          	jal	t4,fffddf16 <_end+0xfffdb266>
    2930:	deadbeef          	jal	t4,fffddf1a <_end+0xfffdb26a>
    2934:	deadbeef          	jal	t4,fffddf1e <_end+0xfffdb26e>
    2938:	deadbeef          	jal	t4,fffddf22 <_end+0xfffdb272>
    293c:	deadbeef          	jal	t4,fffddf26 <_end+0xfffdb276>
    2940:	deadbeef          	jal	t4,fffddf2a <_end+0xfffdb27a>
    2944:	deadbeef          	jal	t4,fffddf2e <_end+0xfffdb27e>
    2948:	deadbeef          	jal	t4,fffddf32 <_end+0xfffdb282>
    294c:	deadbeef          	jal	t4,fffddf36 <_end+0xfffdb286>
    2950:	deadbeef          	jal	t4,fffddf3a <_end+0xfffdb28a>
    2954:	deadbeef          	jal	t4,fffddf3e <_end+0xfffdb28e>
    2958:	deadbeef          	jal	t4,fffddf42 <_end+0xfffdb292>
    295c:	deadbeef          	jal	t4,fffddf46 <_end+0xfffdb296>
    2960:	deadbeef          	jal	t4,fffddf4a <_end+0xfffdb29a>
    2964:	deadbeef          	jal	t4,fffddf4e <_end+0xfffdb29e>
    2968:	deadbeef          	jal	t4,fffddf52 <_end+0xfffdb2a2>
    296c:	deadbeef          	jal	t4,fffddf56 <_end+0xfffdb2a6>
    2970:	deadbeef          	jal	t4,fffddf5a <_end+0xfffdb2aa>
    2974:	deadbeef          	jal	t4,fffddf5e <_end+0xfffdb2ae>
    2978:	deadbeef          	jal	t4,fffddf62 <_end+0xfffdb2b2>
    297c:	deadbeef          	jal	t4,fffddf66 <_end+0xfffdb2b6>
    2980:	deadbeef          	jal	t4,fffddf6a <_end+0xfffdb2ba>
    2984:	deadbeef          	jal	t4,fffddf6e <_end+0xfffdb2be>
    2988:	deadbeef          	jal	t4,fffddf72 <_end+0xfffdb2c2>
    298c:	deadbeef          	jal	t4,fffddf76 <_end+0xfffdb2c6>
    2990:	deadbeef          	jal	t4,fffddf7a <_end+0xfffdb2ca>
    2994:	deadbeef          	jal	t4,fffddf7e <_end+0xfffdb2ce>
    2998:	deadbeef          	jal	t4,fffddf82 <_end+0xfffdb2d2>
    299c:	deadbeef          	jal	t4,fffddf86 <_end+0xfffdb2d6>
    29a0:	deadbeef          	jal	t4,fffddf8a <_end+0xfffdb2da>
    29a4:	deadbeef          	jal	t4,fffddf8e <_end+0xfffdb2de>
    29a8:	deadbeef          	jal	t4,fffddf92 <_end+0xfffdb2e2>
    29ac:	deadbeef          	jal	t4,fffddf96 <_end+0xfffdb2e6>
    29b0:	deadbeef          	jal	t4,fffddf9a <_end+0xfffdb2ea>
    29b4:	deadbeef          	jal	t4,fffddf9e <_end+0xfffdb2ee>
    29b8:	deadbeef          	jal	t4,fffddfa2 <_end+0xfffdb2f2>
    29bc:	deadbeef          	jal	t4,fffddfa6 <_end+0xfffdb2f6>
    29c0:	deadbeef          	jal	t4,fffddfaa <_end+0xfffdb2fa>
    29c4:	deadbeef          	jal	t4,fffddfae <_end+0xfffdb2fe>
    29c8:	deadbeef          	jal	t4,fffddfb2 <_end+0xfffdb302>
    29cc:	deadbeef          	jal	t4,fffddfb6 <_end+0xfffdb306>
    29d0:	deadbeef          	jal	t4,fffddfba <_end+0xfffdb30a>
    29d4:	deadbeef          	jal	t4,fffddfbe <_end+0xfffdb30e>
    29d8:	deadbeef          	jal	t4,fffddfc2 <_end+0xfffdb312>
    29dc:	deadbeef          	jal	t4,fffddfc6 <_end+0xfffdb316>
    29e0:	deadbeef          	jal	t4,fffddfca <_end+0xfffdb31a>
    29e4:	deadbeef          	jal	t4,fffddfce <_end+0xfffdb31e>
    29e8:	deadbeef          	jal	t4,fffddfd2 <_end+0xfffdb322>
    29ec:	deadbeef          	jal	t4,fffddfd6 <_end+0xfffdb326>
    29f0:	deadbeef          	jal	t4,fffddfda <_end+0xfffdb32a>
    29f4:	deadbeef          	jal	t4,fffddfde <_end+0xfffdb32e>
    29f8:	deadbeef          	jal	t4,fffddfe2 <_end+0xfffdb332>
    29fc:	deadbeef          	jal	t4,fffddfe6 <_end+0xfffdb336>
    2a00:	deadbeef          	jal	t4,fffddfea <_end+0xfffdb33a>
    2a04:	deadbeef          	jal	t4,fffddfee <_end+0xfffdb33e>
    2a08:	deadbeef          	jal	t4,fffddff2 <_end+0xfffdb342>
    2a0c:	deadbeef          	jal	t4,fffddff6 <_end+0xfffdb346>
    2a10:	deadbeef          	jal	t4,fffddffa <_end+0xfffdb34a>
    2a14:	deadbeef          	jal	t4,fffddffe <_end+0xfffdb34e>
    2a18:	deadbeef          	jal	t4,fffde002 <_end+0xfffdb352>
    2a1c:	deadbeef          	jal	t4,fffde006 <_end+0xfffdb356>
    2a20:	deadbeef          	jal	t4,fffde00a <_end+0xfffdb35a>
    2a24:	deadbeef          	jal	t4,fffde00e <_end+0xfffdb35e>
    2a28:	deadbeef          	jal	t4,fffde012 <_end+0xfffdb362>
    2a2c:	deadbeef          	jal	t4,fffde016 <_end+0xfffdb366>
    2a30:	deadbeef          	jal	t4,fffde01a <_end+0xfffdb36a>
    2a34:	deadbeef          	jal	t4,fffde01e <_end+0xfffdb36e>
    2a38:	deadbeef          	jal	t4,fffde022 <_end+0xfffdb372>
    2a3c:	deadbeef          	jal	t4,fffde026 <_end+0xfffdb376>
    2a40:	deadbeef          	jal	t4,fffde02a <_end+0xfffdb37a>
    2a44:	deadbeef          	jal	t4,fffde02e <_end+0xfffdb37e>
    2a48:	deadbeef          	jal	t4,fffde032 <_end+0xfffdb382>
    2a4c:	deadbeef          	jal	t4,fffde036 <_end+0xfffdb386>
    2a50:	deadbeef          	jal	t4,fffde03a <_end+0xfffdb38a>
    2a54:	deadbeef          	jal	t4,fffde03e <_end+0xfffdb38e>
    2a58:	deadbeef          	jal	t4,fffde042 <_end+0xfffdb392>
    2a5c:	deadbeef          	jal	t4,fffde046 <_end+0xfffdb396>
    2a60:	deadbeef          	jal	t4,fffde04a <_end+0xfffdb39a>
    2a64:	deadbeef          	jal	t4,fffde04e <_end+0xfffdb39e>
    2a68:	deadbeef          	jal	t4,fffde052 <_end+0xfffdb3a2>
    2a6c:	deadbeef          	jal	t4,fffde056 <_end+0xfffdb3a6>
    2a70:	deadbeef          	jal	t4,fffde05a <_end+0xfffdb3aa>
    2a74:	deadbeef          	jal	t4,fffde05e <_end+0xfffdb3ae>
    2a78:	deadbeef          	jal	t4,fffde062 <_end+0xfffdb3b2>
    2a7c:	deadbeef          	jal	t4,fffde066 <_end+0xfffdb3b6>
    2a80:	deadbeef          	jal	t4,fffde06a <_end+0xfffdb3ba>
    2a84:	deadbeef          	jal	t4,fffde06e <_end+0xfffdb3be>
    2a88:	deadbeef          	jal	t4,fffde072 <_end+0xfffdb3c2>
    2a8c:	deadbeef          	jal	t4,fffde076 <_end+0xfffdb3c6>
    2a90:	deadbeef          	jal	t4,fffde07a <_end+0xfffdb3ca>
    2a94:	deadbeef          	jal	t4,fffde07e <_end+0xfffdb3ce>
    2a98:	deadbeef          	jal	t4,fffde082 <_end+0xfffdb3d2>
    2a9c:	deadbeef          	jal	t4,fffde086 <_end+0xfffdb3d6>
    2aa0:	deadbeef          	jal	t4,fffde08a <_end+0xfffdb3da>
    2aa4:	deadbeef          	jal	t4,fffde08e <_end+0xfffdb3de>
    2aa8:	deadbeef          	jal	t4,fffde092 <_end+0xfffdb3e2>
    2aac:	deadbeef          	jal	t4,fffde096 <_end+0xfffdb3e6>
    2ab0:	deadbeef          	jal	t4,fffde09a <_end+0xfffdb3ea>
    2ab4:	deadbeef          	jal	t4,fffde09e <_end+0xfffdb3ee>
    2ab8:	deadbeef          	jal	t4,fffde0a2 <_end+0xfffdb3f2>
    2abc:	deadbeef          	jal	t4,fffde0a6 <_end+0xfffdb3f6>
    2ac0:	deadbeef          	jal	t4,fffde0aa <_end+0xfffdb3fa>
    2ac4:	deadbeef          	jal	t4,fffde0ae <_end+0xfffdb3fe>
    2ac8:	deadbeef          	jal	t4,fffde0b2 <_end+0xfffdb402>
    2acc:	deadbeef          	jal	t4,fffde0b6 <_end+0xfffdb406>
    2ad0:	deadbeef          	jal	t4,fffde0ba <_end+0xfffdb40a>
    2ad4:	deadbeef          	jal	t4,fffde0be <_end+0xfffdb40e>
    2ad8:	deadbeef          	jal	t4,fffde0c2 <_end+0xfffdb412>
    2adc:	deadbeef          	jal	t4,fffde0c6 <_end+0xfffdb416>
    2ae0:	deadbeef          	jal	t4,fffde0ca <_end+0xfffdb41a>
    2ae4:	deadbeef          	jal	t4,fffde0ce <_end+0xfffdb41e>
    2ae8:	deadbeef          	jal	t4,fffde0d2 <_end+0xfffdb422>
    2aec:	deadbeef          	jal	t4,fffde0d6 <_end+0xfffdb426>
    2af0:	deadbeef          	jal	t4,fffde0da <_end+0xfffdb42a>
    2af4:	deadbeef          	jal	t4,fffde0de <_end+0xfffdb42e>
    2af8:	deadbeef          	jal	t4,fffde0e2 <_end+0xfffdb432>
    2afc:	deadbeef          	jal	t4,fffde0e6 <_end+0xfffdb436>
    2b00:	deadbeef          	jal	t4,fffde0ea <_end+0xfffdb43a>
    2b04:	deadbeef          	jal	t4,fffde0ee <_end+0xfffdb43e>
    2b08:	deadbeef          	jal	t4,fffde0f2 <_end+0xfffdb442>
    2b0c:	deadbeef          	jal	t4,fffde0f6 <_end+0xfffdb446>
    2b10:	deadbeef          	jal	t4,fffde0fa <_end+0xfffdb44a>
    2b14:	deadbeef          	jal	t4,fffde0fe <_end+0xfffdb44e>
    2b18:	deadbeef          	jal	t4,fffde102 <_end+0xfffdb452>
    2b1c:	deadbeef          	jal	t4,fffde106 <_end+0xfffdb456>
    2b20:	deadbeef          	jal	t4,fffde10a <_end+0xfffdb45a>
    2b24:	deadbeef          	jal	t4,fffde10e <_end+0xfffdb45e>
    2b28:	deadbeef          	jal	t4,fffde112 <_end+0xfffdb462>
    2b2c:	deadbeef          	jal	t4,fffde116 <_end+0xfffdb466>
    2b30:	deadbeef          	jal	t4,fffde11a <_end+0xfffdb46a>
    2b34:	deadbeef          	jal	t4,fffde11e <_end+0xfffdb46e>
    2b38:	deadbeef          	jal	t4,fffde122 <_end+0xfffdb472>
    2b3c:	deadbeef          	jal	t4,fffde126 <_end+0xfffdb476>
    2b40:	deadbeef          	jal	t4,fffde12a <_end+0xfffdb47a>
    2b44:	deadbeef          	jal	t4,fffde12e <_end+0xfffdb47e>
    2b48:	deadbeef          	jal	t4,fffde132 <_end+0xfffdb482>
    2b4c:	deadbeef          	jal	t4,fffde136 <_end+0xfffdb486>
    2b50:	deadbeef          	jal	t4,fffde13a <_end+0xfffdb48a>
    2b54:	deadbeef          	jal	t4,fffde13e <_end+0xfffdb48e>
    2b58:	deadbeef          	jal	t4,fffde142 <_end+0xfffdb492>
    2b5c:	deadbeef          	jal	t4,fffde146 <_end+0xfffdb496>
    2b60:	deadbeef          	jal	t4,fffde14a <_end+0xfffdb49a>
    2b64:	deadbeef          	jal	t4,fffde14e <_end+0xfffdb49e>
    2b68:	deadbeef          	jal	t4,fffde152 <_end+0xfffdb4a2>
    2b6c:	deadbeef          	jal	t4,fffde156 <_end+0xfffdb4a6>
    2b70:	deadbeef          	jal	t4,fffde15a <_end+0xfffdb4aa>
    2b74:	deadbeef          	jal	t4,fffde15e <_end+0xfffdb4ae>
    2b78:	deadbeef          	jal	t4,fffde162 <_end+0xfffdb4b2>
    2b7c:	deadbeef          	jal	t4,fffde166 <_end+0xfffdb4b6>
    2b80:	deadbeef          	jal	t4,fffde16a <_end+0xfffdb4ba>
    2b84:	deadbeef          	jal	t4,fffde16e <_end+0xfffdb4be>
    2b88:	deadbeef          	jal	t4,fffde172 <_end+0xfffdb4c2>
    2b8c:	deadbeef          	jal	t4,fffde176 <_end+0xfffdb4c6>
    2b90:	deadbeef          	jal	t4,fffde17a <_end+0xfffdb4ca>
    2b94:	deadbeef          	jal	t4,fffde17e <_end+0xfffdb4ce>
    2b98:	deadbeef          	jal	t4,fffde182 <_end+0xfffdb4d2>
    2b9c:	deadbeef          	jal	t4,fffde186 <_end+0xfffdb4d6>
    2ba0:	deadbeef          	jal	t4,fffde18a <_end+0xfffdb4da>
    2ba4:	deadbeef          	jal	t4,fffde18e <_end+0xfffdb4de>
    2ba8:	deadbeef          	jal	t4,fffde192 <_end+0xfffdb4e2>
    2bac:	deadbeef          	jal	t4,fffde196 <_end+0xfffdb4e6>
    2bb0:	deadbeef          	jal	t4,fffde19a <_end+0xfffdb4ea>
    2bb4:	deadbeef          	jal	t4,fffde19e <_end+0xfffdb4ee>
    2bb8:	deadbeef          	jal	t4,fffde1a2 <_end+0xfffdb4f2>
    2bbc:	deadbeef          	jal	t4,fffde1a6 <_end+0xfffdb4f6>
    2bc0:	deadbeef          	jal	t4,fffde1aa <_end+0xfffdb4fa>
    2bc4:	deadbeef          	jal	t4,fffde1ae <_end+0xfffdb4fe>
    2bc8:	deadbeef          	jal	t4,fffde1b2 <_end+0xfffdb502>
    2bcc:	deadbeef          	jal	t4,fffde1b6 <_end+0xfffdb506>
    2bd0:	deadbeef          	jal	t4,fffde1ba <_end+0xfffdb50a>
    2bd4:	deadbeef          	jal	t4,fffde1be <_end+0xfffdb50e>
    2bd8:	deadbeef          	jal	t4,fffde1c2 <_end+0xfffdb512>
    2bdc:	deadbeef          	jal	t4,fffde1c6 <_end+0xfffdb516>
    2be0:	deadbeef          	jal	t4,fffde1ca <_end+0xfffdb51a>
    2be4:	deadbeef          	jal	t4,fffde1ce <_end+0xfffdb51e>
    2be8:	deadbeef          	jal	t4,fffde1d2 <_end+0xfffdb522>
    2bec:	deadbeef          	jal	t4,fffde1d6 <_end+0xfffdb526>
    2bf0:	deadbeef          	jal	t4,fffde1da <_end+0xfffdb52a>
    2bf4:	deadbeef          	jal	t4,fffde1de <_end+0xfffdb52e>
    2bf8:	deadbeef          	jal	t4,fffde1e2 <_end+0xfffdb532>
    2bfc:	deadbeef          	jal	t4,fffde1e6 <_end+0xfffdb536>
    2c00:	deadbeef          	jal	t4,fffde1ea <_end+0xfffdb53a>
    2c04:	deadbeef          	jal	t4,fffde1ee <_end+0xfffdb53e>
    2c08:	deadbeef          	jal	t4,fffde1f2 <_end+0xfffdb542>
    2c0c:	deadbeef          	jal	t4,fffde1f6 <_end+0xfffdb546>
    2c10:	deadbeef          	jal	t4,fffde1fa <_end+0xfffdb54a>
    2c14:	deadbeef          	jal	t4,fffde1fe <_end+0xfffdb54e>
    2c18:	deadbeef          	jal	t4,fffde202 <_end+0xfffdb552>
    2c1c:	deadbeef          	jal	t4,fffde206 <_end+0xfffdb556>
    2c20:	deadbeef          	jal	t4,fffde20a <_end+0xfffdb55a>
    2c24:	deadbeef          	jal	t4,fffde20e <_end+0xfffdb55e>
    2c28:	deadbeef          	jal	t4,fffde212 <_end+0xfffdb562>
    2c2c:	deadbeef          	jal	t4,fffde216 <_end+0xfffdb566>
    2c30:	deadbeef          	jal	t4,fffde21a <_end+0xfffdb56a>
    2c34:	deadbeef          	jal	t4,fffde21e <_end+0xfffdb56e>
    2c38:	deadbeef          	jal	t4,fffde222 <_end+0xfffdb572>
    2c3c:	deadbeef          	jal	t4,fffde226 <_end+0xfffdb576>
    2c40:	deadbeef          	jal	t4,fffde22a <_end+0xfffdb57a>
    2c44:	deadbeef          	jal	t4,fffde22e <_end+0xfffdb57e>
    2c48:	deadbeef          	jal	t4,fffde232 <_end+0xfffdb582>
    2c4c:	deadbeef          	jal	t4,fffde236 <_end+0xfffdb586>
    2c50:	deadbeef          	jal	t4,fffde23a <_end+0xfffdb58a>
    2c54:	deadbeef          	jal	t4,fffde23e <_end+0xfffdb58e>
    2c58:	deadbeef          	jal	t4,fffde242 <_end+0xfffdb592>
    2c5c:	deadbeef          	jal	t4,fffde246 <_end+0xfffdb596>
    2c60:	deadbeef          	jal	t4,fffde24a <_end+0xfffdb59a>
    2c64:	deadbeef          	jal	t4,fffde24e <_end+0xfffdb59e>
    2c68:	deadbeef          	jal	t4,fffde252 <_end+0xfffdb5a2>
    2c6c:	deadbeef          	jal	t4,fffde256 <_end+0xfffdb5a6>
    2c70:	deadbeef          	jal	t4,fffde25a <_end+0xfffdb5aa>
    2c74:	deadbeef          	jal	t4,fffde25e <_end+0xfffdb5ae>
    2c78:	deadbeef          	jal	t4,fffde262 <_end+0xfffdb5b2>
    2c7c:	deadbeef          	jal	t4,fffde266 <_end+0xfffdb5b6>
    2c80:	deadbeef          	jal	t4,fffde26a <_end+0xfffdb5ba>
    2c84:	deadbeef          	jal	t4,fffde26e <_end+0xfffdb5be>
    2c88:	deadbeef          	jal	t4,fffde272 <_end+0xfffdb5c2>
    2c8c:	deadbeef          	jal	t4,fffde276 <_end+0xfffdb5c6>
    2c90:	deadbeef          	jal	t4,fffde27a <_end+0xfffdb5ca>
    2c94:	deadbeef          	jal	t4,fffde27e <_end+0xfffdb5ce>
    2c98:	deadbeef          	jal	t4,fffde282 <_end+0xfffdb5d2>
    2c9c:	deadbeef          	jal	t4,fffde286 <_end+0xfffdb5d6>
    2ca0:	deadbeef          	jal	t4,fffde28a <_end+0xfffdb5da>
    2ca4:	deadbeef          	jal	t4,fffde28e <_end+0xfffdb5de>
    2ca8:	deadbeef          	jal	t4,fffde292 <_end+0xfffdb5e2>
    2cac:	deadbeef          	jal	t4,fffde296 <_end+0xfffdb5e6>

Desensamblado de la sección .riscv.attributes:

00000000 <.riscv.attributes>:
   0:	2241                	.2byte	0x2241
   2:	0000                	.2byte	0x0
   4:	7200                	.2byte	0x7200
   6:	7369                	.2byte	0x7369
   8:	01007663          	bgeu	zero,a6,14 <rvtest_entry_point+0x14>
   c:	0018                	.2byte	0x18
   e:	0000                	.2byte	0x0
  10:	7205                	.2byte	0x7205
  12:	3376                	.2byte	0x3376
  14:	6932                	.2byte	0x6932
  16:	7032                	.2byte	0x7032
  18:	5f30                	.2byte	0x5f30
  1a:	3266                	.2byte	0x3266
  1c:	3070                	.2byte	0x3070
  1e:	0800                	.2byte	0x800
  20:	0a01                	.2byte	0xa01
  22:	0b              	Address 0x22 is out of bounds.

