
/home/alejandro/Escritorio/test_riscv2.5/riscv-compliance/work/rv32i_m/F/fsub_b5-01.elf:     formato del fichero elf32-littleriscv


Desensamblado de la sección .text.init:

00000000 <rvtest_entry_point>:
       0:	feedc0b7          	lui	ra,0xfeedc
       4:	ead08093          	add	ra,ra,-339 # feedbead <_end+0xfeed90bd>
       8:	ff76e137          	lui	sp,0xff76e
       c:	f5610113          	add	sp,sp,-170 # ff76df56 <_end+0xff76b166>
      10:	7fbb71b7          	lui	gp,0x7fbb7
      14:	fab18193          	add	gp,gp,-85 # 7fbb6fab <_end+0x7fbb41bb>
      18:	bfddb237          	lui	tp,0xbfddb
      1c:	7d520213          	add	tp,tp,2005 # bfddb7d5 <_end+0xbfdd89e5>
      20:	00000297          	auipc	t0,0x0
      24:	0d828293          	add	t0,t0,216 # f8 <rvtest_code_begin>
      28:	00002317          	auipc	t1,0x2
      2c:	fd830313          	add	t1,t1,-40 # 2000 <rvtest_data_begin>
      30:	b7fbb3b7          	lui	t2,0xb7fbb
      34:	6fa38393          	add	t2,t2,1786 # b7fbb6fa <_end+0xb7fb890a>
      38:	5bfde437          	lui	s0,0x5bfde
      3c:	b7d40413          	add	s0,s0,-1155 # 5bfddb7d <_end+0x5bfdad8d>
      40:	adfef4b7          	lui	s1,0xadfef
      44:	dbe48493          	add	s1,s1,-578 # adfeedbe <_end+0xadfebfce>
      48:	56ff7537          	lui	a0,0x56ff7
      4c:	6df50513          	add	a0,a0,1759 # 56ff76df <_end+0x56ff48ef>
      50:	ab7fc5b7          	lui	a1,0xab7fc
      54:	b6f58593          	add	a1,a1,-1169 # ab7fbb6f <_end+0xab7f8d7f>
      58:	d5bfe637          	lui	a2,0xd5bfe
      5c:	db760613          	add	a2,a2,-585 # d5bfddb7 <_end+0xd5bfafc7>
      60:	eadff6b7          	lui	a3,0xeadff
      64:	edb68693          	add	a3,a3,-293 # eadfeedb <_end+0xeadfc0eb>
      68:	f56ff737          	lui	a4,0xf56ff
      6c:	76d70713          	add	a4,a4,1901 # f56ff76d <_end+0xf56fc97d>
      70:	fab807b7          	lui	a5,0xfab80
      74:	bb678793          	add	a5,a5,-1098 # fab7fbb6 <_end+0xfab7cdc6>
      78:	7d5c0837          	lui	a6,0x7d5c0
      7c:	ddb80813          	add	a6,a6,-549 # 7d5bfddb <_end+0x7d5bcfeb>
      80:	beae08b7          	lui	a7,0xbeae0
      84:	eed88893          	add	a7,a7,-275 # beadfeed <_end+0xbeadd0fd>
      88:	df570937          	lui	s2,0xdf570
      8c:	f7690913          	add	s2,s2,-138 # df56ff76 <_end+0xdf56d186>
      90:	6fab89b7          	lui	s3,0x6fab8
      94:	fbb98993          	add	s3,s3,-69 # 6fab7fbb <_end+0x6fab51cb>
      98:	b7d5ca37          	lui	s4,0xb7d5c
      9c:	fdda0a13          	add	s4,s4,-35 # b7d5bfdd <_end+0xb7d591ed>
      a0:	dbeaeab7          	lui	s5,0xdbeae
      a4:	feea8a93          	add	s5,s5,-18 # dbeadfee <_end+0xdbeab1fe>
      a8:	6df57b37          	lui	s6,0x6df57
      ac:	ff7b0b13          	add	s6,s6,-9 # 6df56ff7 <_end+0x6df54207>
      b0:	b6fabbb7          	lui	s7,0xb6fab
      b4:	7fbb8b93          	add	s7,s7,2043 # b6fab7fb <_end+0xb6fa8a0b>
      b8:	db7d6c37          	lui	s8,0xdb7d6
      bc:	bfdc0c13          	add	s8,s8,-1027 # db7d5bfd <_end+0xdb7d2e0d>
      c0:	edbebcb7          	lui	s9,0xedbeb
      c4:	dfec8c93          	add	s9,s9,-514 # edbeadfe <_end+0xedbe800e>
      c8:	76df5d37          	lui	s10,0x76df5
      cc:	6ffd0d13          	add	s10,s10,1791 # 76df56ff <_end+0x76df290f>
      d0:	bb6fbdb7          	lui	s11,0xbb6fb
      d4:	b7fd8d93          	add	s11,s11,-1153 # bb6fab7f <_end+0xbb6f7d8f>
      d8:	ddb7de37          	lui	t3,0xddb7d
      dc:	5bfe0e13          	add	t3,t3,1471 # ddb7d5bf <_end+0xddb7a7cf>
      e0:	eedbfeb7          	lui	t4,0xeedbf
      e4:	adfe8e93          	add	t4,t4,-1313 # eedbeadf <_end+0xeedbbcef>
      e8:	f76dff37          	lui	t5,0xf76df
      ec:	56ff0f13          	add	t5,t5,1391 # f76df56f <_end+0xf76dc77f>
      f0:	fbb70fb7          	lui	t6,0xfbb70
      f4:	ab7f8f93          	add	t6,t6,-1353 # fbb6fab7 <_end+0xfbb6ccc7>

000000f8 <rvtest_code_begin>:
      f8:	00002537          	lui	a0,0x2
      fc:	30052073          	csrs	mstatus,a0
     100:	00002817          	auipc	a6,0x2
     104:	f0480813          	add	a6,a6,-252 # 2004 <test_fp>
     108:	00002797          	auipc	a5,0x2
     10c:	5f878793          	add	a5,a5,1528 # 2700 <data_begin>

00000110 <inst_0>:
     110:	00082707          	flw	fa4,0(a6)
     114:	00482707          	flw	fa4,4(a6)
     118:	00205073          	fsrmi	zero,0
     11c:	08e77753          	fsub.s	fa4,fa4,fa4
     120:	001028f3          	frflags	a7
     124:	00e7a027          	fsw	fa4,0(a5)
     128:	0117a223          	sw	a7,4(a5)

0000012c <inst_1>:
     12c:	00882307          	flw	ft6,8(a6)
     130:	00c82407          	flw	fs0,12(a6)
     134:	00225073          	fsrmi	zero,4
     138:	08837353          	fsub.s	ft6,ft6,fs0
     13c:	001028f3          	frflags	a7
     140:	0067a427          	fsw	ft6,8(a5)
     144:	0117a623          	sw	a7,12(a5)

00000148 <inst_2>:
     148:	01082d87          	flw	fs11,16(a6)
     14c:	01482987          	flw	fs3,20(a6)
     150:	0021d073          	fsrmi	zero,3
     154:	093df253          	fsub.s	ft4,fs11,fs3
     158:	001028f3          	frflags	a7
     15c:	0047a827          	fsw	ft4,16(a5)
     160:	0117aa23          	sw	a7,20(a5)

00000164 <inst_3>:
     164:	01882c07          	flw	fs8,24(a6)
     168:	01c82787          	flw	fa5,28(a6)
     16c:	00215073          	fsrmi	zero,2
     170:	08fc77d3          	fsub.s	fa5,fs8,fa5
     174:	001028f3          	frflags	a7
     178:	00f7ac27          	fsw	fa5,24(a5)
     17c:	0117ae23          	sw	a7,28(a5)

00000180 <inst_4>:
     180:	02082a07          	flw	fs4,32(a6)
     184:	02482a07          	flw	fs4,36(a6)
     188:	0020d073          	fsrmi	zero,1
     18c:	094a72d3          	fsub.s	ft5,fs4,fs4
     190:	001028f3          	frflags	a7
     194:	0257a027          	fsw	ft5,32(a5)
     198:	0317a223          	sw	a7,36(a5)

0000019c <inst_5>:
     19c:	02882f87          	flw	ft11,40(a6)
     1a0:	02c82007          	flw	ft0,44(a6)
     1a4:	00205073          	fsrmi	zero,0
     1a8:	080ffad3          	fsub.s	fs5,ft11,ft0
     1ac:	001028f3          	frflags	a7
     1b0:	0357a427          	fsw	fs5,40(a5)
     1b4:	0317a623          	sw	a7,44(a5)

000001b8 <inst_6>:
     1b8:	03082607          	flw	fa2,48(a6)
     1bc:	03482087          	flw	ft1,52(a6)
     1c0:	00225073          	fsrmi	zero,4
     1c4:	08167a53          	fsub.s	fs4,fa2,ft1
     1c8:	001028f3          	frflags	a7
     1cc:	0347a827          	fsw	fs4,48(a5)
     1d0:	0317aa23          	sw	a7,52(a5)

000001d4 <inst_7>:
     1d4:	03882287          	flw	ft5,56(a6)
     1d8:	03c82887          	flw	fa7,60(a6)
     1dc:	0021d073          	fsrmi	zero,3
     1e0:	0912f3d3          	fsub.s	ft7,ft5,fa7
     1e4:	001028f3          	frflags	a7
     1e8:	0277ac27          	fsw	ft7,56(a5)
     1ec:	0317ae23          	sw	a7,60(a5)

000001f0 <inst_8>:
     1f0:	04082107          	flw	ft2,64(a6)
     1f4:	04482487          	flw	fs1,68(a6)
     1f8:	00215073          	fsrmi	zero,2
     1fc:	08917053          	fsub.s	ft0,ft2,fs1
     200:	001028f3          	frflags	a7
     204:	0407a027          	fsw	ft0,64(a5)
     208:	0517a223          	sw	a7,68(a5)

0000020c <inst_9>:
     20c:	04882e87          	flw	ft9,72(a6)
     210:	04c82287          	flw	ft5,76(a6)
     214:	0020d073          	fsrmi	zero,1
     218:	085ef553          	fsub.s	fa0,ft9,ft5
     21c:	001028f3          	frflags	a7
     220:	04a7a427          	fsw	fa0,72(a5)
     224:	0517a623          	sw	a7,76(a5)

00000228 <inst_10>:
     228:	05082187          	flw	ft3,80(a6)
     22c:	05482587          	flw	fa1,84(a6)
     230:	00205073          	fsrmi	zero,0
     234:	08b1f9d3          	fsub.s	fs3,ft3,fa1
     238:	001028f3          	frflags	a7
     23c:	0537a827          	fsw	fs3,80(a5)
     240:	0517aa23          	sw	a7,84(a5)

00000244 <inst_11>:
     244:	05882487          	flw	fs1,88(a6)
     248:	05c82307          	flw	ft6,92(a6)
     24c:	00225073          	fsrmi	zero,4
     250:	0864f5d3          	fsub.s	fa1,fs1,ft6
     254:	001028f3          	frflags	a7
     258:	04b7ac27          	fsw	fa1,88(a5)
     25c:	0517ae23          	sw	a7,92(a5)

00000260 <inst_12>:
     260:	06082f07          	flw	ft10,96(a6)
     264:	06482687          	flw	fa3,100(a6)
     268:	0021d073          	fsrmi	zero,3
     26c:	08df7c53          	fsub.s	fs8,ft10,fa3
     270:	001028f3          	frflags	a7
     274:	0787a027          	fsw	fs8,96(a5)
     278:	0717a223          	sw	a7,100(a5)

0000027c <inst_13>:
     27c:	06882e07          	flw	ft8,104(a6)
     280:	06c82d07          	flw	fs10,108(a6)
     284:	00215073          	fsrmi	zero,2
     288:	09ae7b53          	fsub.s	fs6,ft8,fs10
     28c:	001028f3          	frflags	a7
     290:	0767a427          	fsw	fs6,104(a5)
     294:	0717a623          	sw	a7,108(a5)

00000298 <inst_14>:
     298:	07082c87          	flw	fs9,112(a6)
     29c:	07482b87          	flw	fs7,116(a6)
     2a0:	0020d073          	fsrmi	zero,1
     2a4:	097cf853          	fsub.s	fa6,fs9,fs7
     2a8:	001028f3          	frflags	a7
     2ac:	0707a827          	fsw	fa6,112(a5)
     2b0:	0717aa23          	sw	a7,116(a5)

000002b4 <inst_15>:
     2b4:	07882207          	flw	ft4,120(a6)
     2b8:	07c82507          	flw	fa0,124(a6)
     2bc:	00205073          	fsrmi	zero,0
     2c0:	08a27fd3          	fsub.s	ft11,ft4,fa0
     2c4:	001028f3          	frflags	a7
     2c8:	07f7ac27          	fsw	ft11,120(a5)
     2cc:	0717ae23          	sw	a7,124(a5)

000002d0 <inst_16>:
     2d0:	08082d07          	flw	fs10,128(a6)
     2d4:	08482c87          	flw	fs9,132(a6)
     2d8:	00225073          	fsrmi	zero,4
     2dc:	099d7453          	fsub.s	fs0,fs10,fs9
     2e0:	001028f3          	frflags	a7
     2e4:	0887a027          	fsw	fs0,128(a5)
     2e8:	0917a223          	sw	a7,132(a5)

000002ec <inst_17>:
     2ec:	08882687          	flw	fa3,136(a6)
     2f0:	08c82d87          	flw	fs11,140(a6)
     2f4:	0021d073          	fsrmi	zero,3
     2f8:	09b6fe53          	fsub.s	ft8,fa3,fs11
     2fc:	001028f3          	frflags	a7
     300:	09c7a427          	fsw	ft8,136(a5)
     304:	0917a623          	sw	a7,140(a5)

00000308 <inst_18>:
     308:	09082a87          	flw	fs5,144(a6)
     30c:	09482107          	flw	ft2,148(a6)
     310:	00215073          	fsrmi	zero,2
     314:	082af0d3          	fsub.s	ft1,fs5,ft2
     318:	001028f3          	frflags	a7
     31c:	0817a827          	fsw	ft1,144(a5)
     320:	0917aa23          	sw	a7,148(a5)

00000324 <inst_19>:
     324:	09882887          	flw	fa7,152(a6)
     328:	09c82207          	flw	ft4,156(a6)
     32c:	0020d073          	fsrmi	zero,1
     330:	0848ff53          	fsub.s	ft10,fa7,ft4
     334:	001028f3          	frflags	a7
     338:	09e7ac27          	fsw	ft10,152(a5)
     33c:	0917ae23          	sw	a7,156(a5)

00000340 <inst_20>:
     340:	0a082507          	flw	fa0,160(a6)
     344:	0a482a87          	flw	fs5,164(a6)
     348:	00205073          	fsrmi	zero,0
     34c:	09557ed3          	fsub.s	ft9,fa0,fs5
     350:	001028f3          	frflags	a7
     354:	0bd7a027          	fsw	ft9,160(a5)
     358:	0b17a223          	sw	a7,164(a5)

0000035c <inst_21>:
     35c:	0a882387          	flw	ft7,168(a6)
     360:	0ac82e07          	flw	ft8,172(a6)
     364:	00225073          	fsrmi	zero,4
     368:	09c3fbd3          	fsub.s	fs7,ft7,ft8
     36c:	001028f3          	frflags	a7
     370:	0b77a427          	fsw	fs7,168(a5)
     374:	0b17a623          	sw	a7,172(a5)

00000378 <inst_22>:
     378:	0b082407          	flw	fs0,176(a6)
     37c:	0b482b07          	flw	fs6,180(a6)
     380:	0021d073          	fsrmi	zero,3
     384:	09647653          	fsub.s	fa2,fs0,fs6
     388:	001028f3          	frflags	a7
     38c:	0ac7a827          	fsw	fa2,176(a5)
     390:	0b17aa23          	sw	a7,180(a5)

00000394 <inst_23>:
     394:	0b882907          	flw	fs2,184(a6)
     398:	0bc82187          	flw	ft3,188(a6)
     39c:	00215073          	fsrmi	zero,2
     3a0:	083978d3          	fsub.s	fa7,fs2,ft3
     3a4:	001028f3          	frflags	a7
     3a8:	0b17ac27          	fsw	fa7,184(a5)
     3ac:	0b17ae23          	sw	a7,188(a5)

000003b0 <inst_24>:
     3b0:	0c082807          	flw	fa6,192(a6)
     3b4:	0c482f07          	flw	ft10,196(a6)
     3b8:	0020d073          	fsrmi	zero,1
     3bc:	09e871d3          	fsub.s	ft3,fa6,ft10
     3c0:	001028f3          	frflags	a7
     3c4:	0c37a027          	fsw	ft3,192(a5)
     3c8:	0d17a223          	sw	a7,196(a5)

000003cc <inst_25>:
     3cc:	0c882b07          	flw	fs6,200(a6)
     3d0:	0cc82387          	flw	ft7,204(a6)
     3d4:	00205073          	fsrmi	zero,0
     3d8:	087b7153          	fsub.s	ft2,fs6,ft7
     3dc:	001028f3          	frflags	a7
     3e0:	0c27a427          	fsw	ft2,200(a5)
     3e4:	0d17a623          	sw	a7,204(a5)

000003e8 <inst_26>:
     3e8:	0d082587          	flw	fa1,208(a6)
     3ec:	0d482f87          	flw	ft11,212(a6)
     3f0:	00225073          	fsrmi	zero,4
     3f4:	09f5fd53          	fsub.s	fs10,fa1,ft11
     3f8:	001028f3          	frflags	a7
     3fc:	0da7a827          	fsw	fs10,208(a5)
     400:	0d17aa23          	sw	a7,212(a5)

00000404 <inst_27>:
     404:	0d882087          	flw	ft1,216(a6)
     408:	0dc82607          	flw	fa2,220(a6)
     40c:	0021d073          	fsrmi	zero,3
     410:	08c0fdd3          	fsub.s	fs11,ft1,fa2
     414:	001028f3          	frflags	a7
     418:	0db7ac27          	fsw	fs11,216(a5)
     41c:	0d17ae23          	sw	a7,220(a5)

00000420 <inst_28>:
     420:	0e082987          	flw	fs3,224(a6)
     424:	0e482c07          	flw	fs8,228(a6)
     428:	00215073          	fsrmi	zero,2
     42c:	0989f4d3          	fsub.s	fs1,fs3,fs8
     430:	001028f3          	frflags	a7
     434:	0e97a027          	fsw	fs1,224(a5)
     438:	0f17a223          	sw	a7,228(a5)

0000043c <inst_29>:
     43c:	0e882787          	flw	fa5,232(a6)
     440:	0ec82807          	flw	fa6,236(a6)
     444:	0020d073          	fsrmi	zero,1
     448:	0907f953          	fsub.s	fs2,fa5,fa6
     44c:	001028f3          	frflags	a7
     450:	0f27a427          	fsw	fs2,232(a5)
     454:	0f17a623          	sw	a7,236(a5)

00000458 <inst_30>:
     458:	0f082007          	flw	ft0,240(a6)
     45c:	0f482e87          	flw	ft9,244(a6)
     460:	00205073          	fsrmi	zero,0
     464:	09d076d3          	fsub.s	fa3,ft0,ft9
     468:	001028f3          	frflags	a7
     46c:	0ed7a827          	fsw	fa3,240(a5)
     470:	0f17aa23          	sw	a7,244(a5)

00000474 <inst_31>:
     474:	0f882b87          	flw	fs7,248(a6)
     478:	0fc82907          	flw	fs2,252(a6)
     47c:	00225073          	fsrmi	zero,4
     480:	092bfcd3          	fsub.s	fs9,fs7,fs2
     484:	001028f3          	frflags	a7
     488:	0f97ac27          	fsw	fs9,248(a5)
     48c:	0f17ae23          	sw	a7,252(a5)

00000490 <inst_32>:
     490:	10082507          	flw	fa0,256(a6)
     494:	10482587          	flw	fa1,260(a6)
     498:	0021d073          	fsrmi	zero,3
     49c:	08b57653          	fsub.s	fa2,fa0,fa1
     4a0:	001028f3          	frflags	a7
     4a4:	10c7a027          	fsw	fa2,256(a5)
     4a8:	1117a223          	sw	a7,260(a5)

000004ac <inst_33>:
     4ac:	10882507          	flw	fa0,264(a6)
     4b0:	10c82587          	flw	fa1,268(a6)
     4b4:	00215073          	fsrmi	zero,2
     4b8:	08b57653          	fsub.s	fa2,fa0,fa1
     4bc:	001028f3          	frflags	a7
     4c0:	10c7a427          	fsw	fa2,264(a5)
     4c4:	1117a623          	sw	a7,268(a5)

000004c8 <inst_34>:
     4c8:	11082507          	flw	fa0,272(a6)
     4cc:	11482587          	flw	fa1,276(a6)
     4d0:	0020d073          	fsrmi	zero,1
     4d4:	08b57653          	fsub.s	fa2,fa0,fa1
     4d8:	001028f3          	frflags	a7
     4dc:	10c7a827          	fsw	fa2,272(a5)
     4e0:	1117aa23          	sw	a7,276(a5)

000004e4 <inst_35>:
     4e4:	11882507          	flw	fa0,280(a6)
     4e8:	11c82587          	flw	fa1,284(a6)
     4ec:	00205073          	fsrmi	zero,0
     4f0:	08b57653          	fsub.s	fa2,fa0,fa1
     4f4:	001028f3          	frflags	a7
     4f8:	10c7ac27          	fsw	fa2,280(a5)
     4fc:	1117ae23          	sw	a7,284(a5)

00000500 <inst_36>:
     500:	12082507          	flw	fa0,288(a6)
     504:	12482587          	flw	fa1,292(a6)
     508:	00225073          	fsrmi	zero,4
     50c:	08b57653          	fsub.s	fa2,fa0,fa1
     510:	001028f3          	frflags	a7
     514:	12c7a027          	fsw	fa2,288(a5)
     518:	1317a223          	sw	a7,292(a5)

0000051c <inst_37>:
     51c:	12882507          	flw	fa0,296(a6)
     520:	12c82587          	flw	fa1,300(a6)
     524:	0021d073          	fsrmi	zero,3
     528:	08b57653          	fsub.s	fa2,fa0,fa1
     52c:	001028f3          	frflags	a7
     530:	12c7a427          	fsw	fa2,296(a5)
     534:	1317a623          	sw	a7,300(a5)

00000538 <inst_38>:
     538:	13082507          	flw	fa0,304(a6)
     53c:	13482587          	flw	fa1,308(a6)
     540:	00215073          	fsrmi	zero,2
     544:	08b57653          	fsub.s	fa2,fa0,fa1
     548:	001028f3          	frflags	a7
     54c:	12c7a827          	fsw	fa2,304(a5)
     550:	1317aa23          	sw	a7,308(a5)

00000554 <inst_39>:
     554:	13882507          	flw	fa0,312(a6)
     558:	13c82587          	flw	fa1,316(a6)
     55c:	0020d073          	fsrmi	zero,1
     560:	08b57653          	fsub.s	fa2,fa0,fa1
     564:	001028f3          	frflags	a7
     568:	12c7ac27          	fsw	fa2,312(a5)
     56c:	1317ae23          	sw	a7,316(a5)

00000570 <inst_40>:
     570:	14082507          	flw	fa0,320(a6)
     574:	14482587          	flw	fa1,324(a6)
     578:	00205073          	fsrmi	zero,0
     57c:	08b57653          	fsub.s	fa2,fa0,fa1
     580:	001028f3          	frflags	a7
     584:	14c7a027          	fsw	fa2,320(a5)
     588:	1517a223          	sw	a7,324(a5)

0000058c <inst_41>:
     58c:	14882507          	flw	fa0,328(a6)
     590:	14c82587          	flw	fa1,332(a6)
     594:	00225073          	fsrmi	zero,4
     598:	08b57653          	fsub.s	fa2,fa0,fa1
     59c:	001028f3          	frflags	a7
     5a0:	14c7a427          	fsw	fa2,328(a5)
     5a4:	1517a623          	sw	a7,332(a5)

000005a8 <inst_42>:
     5a8:	15082507          	flw	fa0,336(a6)
     5ac:	15482587          	flw	fa1,340(a6)
     5b0:	0021d073          	fsrmi	zero,3
     5b4:	08b57653          	fsub.s	fa2,fa0,fa1
     5b8:	001028f3          	frflags	a7
     5bc:	14c7a827          	fsw	fa2,336(a5)
     5c0:	1517aa23          	sw	a7,340(a5)

000005c4 <inst_43>:
     5c4:	15882507          	flw	fa0,344(a6)
     5c8:	15c82587          	flw	fa1,348(a6)
     5cc:	00215073          	fsrmi	zero,2
     5d0:	08b57653          	fsub.s	fa2,fa0,fa1
     5d4:	001028f3          	frflags	a7
     5d8:	14c7ac27          	fsw	fa2,344(a5)
     5dc:	1517ae23          	sw	a7,348(a5)

000005e0 <inst_44>:
     5e0:	16082507          	flw	fa0,352(a6)
     5e4:	16482587          	flw	fa1,356(a6)
     5e8:	0020d073          	fsrmi	zero,1
     5ec:	08b57653          	fsub.s	fa2,fa0,fa1
     5f0:	001028f3          	frflags	a7
     5f4:	16c7a027          	fsw	fa2,352(a5)
     5f8:	1717a223          	sw	a7,356(a5)

000005fc <inst_45>:
     5fc:	16882507          	flw	fa0,360(a6)
     600:	16c82587          	flw	fa1,364(a6)
     604:	00205073          	fsrmi	zero,0
     608:	08b57653          	fsub.s	fa2,fa0,fa1
     60c:	001028f3          	frflags	a7
     610:	16c7a427          	fsw	fa2,360(a5)
     614:	1717a623          	sw	a7,364(a5)

00000618 <inst_46>:
     618:	17082507          	flw	fa0,368(a6)
     61c:	17482587          	flw	fa1,372(a6)
     620:	00225073          	fsrmi	zero,4
     624:	08b57653          	fsub.s	fa2,fa0,fa1
     628:	001028f3          	frflags	a7
     62c:	16c7a827          	fsw	fa2,368(a5)
     630:	1717aa23          	sw	a7,372(a5)

00000634 <inst_47>:
     634:	17882507          	flw	fa0,376(a6)
     638:	17c82587          	flw	fa1,380(a6)
     63c:	0021d073          	fsrmi	zero,3
     640:	08b57653          	fsub.s	fa2,fa0,fa1
     644:	001028f3          	frflags	a7
     648:	16c7ac27          	fsw	fa2,376(a5)
     64c:	1717ae23          	sw	a7,380(a5)

00000650 <inst_48>:
     650:	18082507          	flw	fa0,384(a6)
     654:	18482587          	flw	fa1,388(a6)
     658:	00215073          	fsrmi	zero,2
     65c:	08b57653          	fsub.s	fa2,fa0,fa1
     660:	001028f3          	frflags	a7
     664:	18c7a027          	fsw	fa2,384(a5)
     668:	1917a223          	sw	a7,388(a5)

0000066c <inst_49>:
     66c:	18882507          	flw	fa0,392(a6)
     670:	18c82587          	flw	fa1,396(a6)
     674:	0020d073          	fsrmi	zero,1
     678:	08b57653          	fsub.s	fa2,fa0,fa1
     67c:	001028f3          	frflags	a7
     680:	18c7a427          	fsw	fa2,392(a5)
     684:	1917a623          	sw	a7,396(a5)

00000688 <inst_50>:
     688:	19082507          	flw	fa0,400(a6)
     68c:	19482587          	flw	fa1,404(a6)
     690:	00205073          	fsrmi	zero,0
     694:	08b57653          	fsub.s	fa2,fa0,fa1
     698:	001028f3          	frflags	a7
     69c:	18c7a827          	fsw	fa2,400(a5)
     6a0:	1917aa23          	sw	a7,404(a5)

000006a4 <inst_51>:
     6a4:	19882507          	flw	fa0,408(a6)
     6a8:	19c82587          	flw	fa1,412(a6)
     6ac:	00225073          	fsrmi	zero,4
     6b0:	08b57653          	fsub.s	fa2,fa0,fa1
     6b4:	001028f3          	frflags	a7
     6b8:	18c7ac27          	fsw	fa2,408(a5)
     6bc:	1917ae23          	sw	a7,412(a5)

000006c0 <inst_52>:
     6c0:	1a082507          	flw	fa0,416(a6)
     6c4:	1a482587          	flw	fa1,420(a6)
     6c8:	0021d073          	fsrmi	zero,3
     6cc:	08b57653          	fsub.s	fa2,fa0,fa1
     6d0:	001028f3          	frflags	a7
     6d4:	1ac7a027          	fsw	fa2,416(a5)
     6d8:	1b17a223          	sw	a7,420(a5)

000006dc <inst_53>:
     6dc:	1a882507          	flw	fa0,424(a6)
     6e0:	1ac82587          	flw	fa1,428(a6)
     6e4:	00215073          	fsrmi	zero,2
     6e8:	08b57653          	fsub.s	fa2,fa0,fa1
     6ec:	001028f3          	frflags	a7
     6f0:	1ac7a427          	fsw	fa2,424(a5)
     6f4:	1b17a623          	sw	a7,428(a5)

000006f8 <inst_54>:
     6f8:	1b082507          	flw	fa0,432(a6)
     6fc:	1b482587          	flw	fa1,436(a6)
     700:	0020d073          	fsrmi	zero,1
     704:	08b57653          	fsub.s	fa2,fa0,fa1
     708:	001028f3          	frflags	a7
     70c:	1ac7a827          	fsw	fa2,432(a5)
     710:	1b17aa23          	sw	a7,436(a5)

00000714 <inst_55>:
     714:	1b882507          	flw	fa0,440(a6)
     718:	1bc82587          	flw	fa1,444(a6)
     71c:	00205073          	fsrmi	zero,0
     720:	08b57653          	fsub.s	fa2,fa0,fa1
     724:	001028f3          	frflags	a7
     728:	1ac7ac27          	fsw	fa2,440(a5)
     72c:	1b17ae23          	sw	a7,444(a5)

00000730 <inst_56>:
     730:	1c082507          	flw	fa0,448(a6)
     734:	1c482587          	flw	fa1,452(a6)
     738:	00225073          	fsrmi	zero,4
     73c:	08b57653          	fsub.s	fa2,fa0,fa1
     740:	001028f3          	frflags	a7
     744:	1cc7a027          	fsw	fa2,448(a5)
     748:	1d17a223          	sw	a7,452(a5)

0000074c <inst_57>:
     74c:	1c882507          	flw	fa0,456(a6)
     750:	1cc82587          	flw	fa1,460(a6)
     754:	0021d073          	fsrmi	zero,3
     758:	08b57653          	fsub.s	fa2,fa0,fa1
     75c:	001028f3          	frflags	a7
     760:	1cc7a427          	fsw	fa2,456(a5)
     764:	1d17a623          	sw	a7,460(a5)

00000768 <inst_58>:
     768:	1d082507          	flw	fa0,464(a6)
     76c:	1d482587          	flw	fa1,468(a6)
     770:	00215073          	fsrmi	zero,2
     774:	08b57653          	fsub.s	fa2,fa0,fa1
     778:	001028f3          	frflags	a7
     77c:	1cc7a827          	fsw	fa2,464(a5)
     780:	1d17aa23          	sw	a7,468(a5)

00000784 <inst_59>:
     784:	1d882507          	flw	fa0,472(a6)
     788:	1dc82587          	flw	fa1,476(a6)
     78c:	0020d073          	fsrmi	zero,1
     790:	08b57653          	fsub.s	fa2,fa0,fa1
     794:	001028f3          	frflags	a7
     798:	1cc7ac27          	fsw	fa2,472(a5)
     79c:	1d17ae23          	sw	a7,476(a5)

000007a0 <inst_60>:
     7a0:	1e082507          	flw	fa0,480(a6)
     7a4:	1e482587          	flw	fa1,484(a6)
     7a8:	00205073          	fsrmi	zero,0
     7ac:	08b57653          	fsub.s	fa2,fa0,fa1
     7b0:	001028f3          	frflags	a7
     7b4:	1ec7a027          	fsw	fa2,480(a5)
     7b8:	1f17a223          	sw	a7,484(a5)

000007bc <inst_61>:
     7bc:	1e882507          	flw	fa0,488(a6)
     7c0:	1ec82587          	flw	fa1,492(a6)
     7c4:	00225073          	fsrmi	zero,4
     7c8:	08b57653          	fsub.s	fa2,fa0,fa1
     7cc:	001028f3          	frflags	a7
     7d0:	1ec7a427          	fsw	fa2,488(a5)
     7d4:	1f17a623          	sw	a7,492(a5)

000007d8 <inst_62>:
     7d8:	1f082507          	flw	fa0,496(a6)
     7dc:	1f482587          	flw	fa1,500(a6)
     7e0:	0021d073          	fsrmi	zero,3
     7e4:	08b57653          	fsub.s	fa2,fa0,fa1
     7e8:	001028f3          	frflags	a7
     7ec:	1ec7a827          	fsw	fa2,496(a5)
     7f0:	1f17aa23          	sw	a7,500(a5)

000007f4 <inst_63>:
     7f4:	1f882507          	flw	fa0,504(a6)
     7f8:	1fc82587          	flw	fa1,508(a6)
     7fc:	00215073          	fsrmi	zero,2
     800:	08b57653          	fsub.s	fa2,fa0,fa1
     804:	001028f3          	frflags	a7
     808:	1ec7ac27          	fsw	fa2,504(a5)
     80c:	1f17ae23          	sw	a7,508(a5)

00000810 <inst_64>:
     810:	20082507          	flw	fa0,512(a6)
     814:	20482587          	flw	fa1,516(a6)
     818:	0020d073          	fsrmi	zero,1
     81c:	08b57653          	fsub.s	fa2,fa0,fa1
     820:	001028f3          	frflags	a7
     824:	20c7a027          	fsw	fa2,512(a5)
     828:	2117a223          	sw	a7,516(a5)

0000082c <inst_65>:
     82c:	20882507          	flw	fa0,520(a6)
     830:	20c82587          	flw	fa1,524(a6)
     834:	00205073          	fsrmi	zero,0
     838:	08b57653          	fsub.s	fa2,fa0,fa1
     83c:	001028f3          	frflags	a7
     840:	20c7a427          	fsw	fa2,520(a5)
     844:	2117a623          	sw	a7,524(a5)

00000848 <inst_66>:
     848:	21082507          	flw	fa0,528(a6)
     84c:	21482587          	flw	fa1,532(a6)
     850:	00225073          	fsrmi	zero,4
     854:	08b57653          	fsub.s	fa2,fa0,fa1
     858:	001028f3          	frflags	a7
     85c:	20c7a827          	fsw	fa2,528(a5)
     860:	2117aa23          	sw	a7,532(a5)

00000864 <inst_67>:
     864:	21882507          	flw	fa0,536(a6)
     868:	21c82587          	flw	fa1,540(a6)
     86c:	0021d073          	fsrmi	zero,3
     870:	08b57653          	fsub.s	fa2,fa0,fa1
     874:	001028f3          	frflags	a7
     878:	20c7ac27          	fsw	fa2,536(a5)
     87c:	2117ae23          	sw	a7,540(a5)

00000880 <inst_68>:
     880:	22082507          	flw	fa0,544(a6)
     884:	22482587          	flw	fa1,548(a6)
     888:	00215073          	fsrmi	zero,2
     88c:	08b57653          	fsub.s	fa2,fa0,fa1
     890:	001028f3          	frflags	a7
     894:	22c7a027          	fsw	fa2,544(a5)
     898:	2317a223          	sw	a7,548(a5)

0000089c <inst_69>:
     89c:	22882507          	flw	fa0,552(a6)
     8a0:	22c82587          	flw	fa1,556(a6)
     8a4:	0020d073          	fsrmi	zero,1
     8a8:	08b57653          	fsub.s	fa2,fa0,fa1
     8ac:	001028f3          	frflags	a7
     8b0:	22c7a427          	fsw	fa2,552(a5)
     8b4:	2317a623          	sw	a7,556(a5)

000008b8 <inst_70>:
     8b8:	23082507          	flw	fa0,560(a6)
     8bc:	23482587          	flw	fa1,564(a6)
     8c0:	00205073          	fsrmi	zero,0
     8c4:	08b57653          	fsub.s	fa2,fa0,fa1
     8c8:	001028f3          	frflags	a7
     8cc:	22c7a827          	fsw	fa2,560(a5)
     8d0:	2317aa23          	sw	a7,564(a5)

000008d4 <inst_71>:
     8d4:	23882507          	flw	fa0,568(a6)
     8d8:	23c82587          	flw	fa1,572(a6)
     8dc:	00225073          	fsrmi	zero,4
     8e0:	08b57653          	fsub.s	fa2,fa0,fa1
     8e4:	001028f3          	frflags	a7
     8e8:	22c7ac27          	fsw	fa2,568(a5)
     8ec:	2317ae23          	sw	a7,572(a5)

000008f0 <inst_72>:
     8f0:	24082507          	flw	fa0,576(a6)
     8f4:	24482587          	flw	fa1,580(a6)
     8f8:	0021d073          	fsrmi	zero,3
     8fc:	08b57653          	fsub.s	fa2,fa0,fa1
     900:	001028f3          	frflags	a7
     904:	24c7a027          	fsw	fa2,576(a5)
     908:	2517a223          	sw	a7,580(a5)

0000090c <inst_73>:
     90c:	24882507          	flw	fa0,584(a6)
     910:	24c82587          	flw	fa1,588(a6)
     914:	00215073          	fsrmi	zero,2
     918:	08b57653          	fsub.s	fa2,fa0,fa1
     91c:	001028f3          	frflags	a7
     920:	24c7a427          	fsw	fa2,584(a5)
     924:	2517a623          	sw	a7,588(a5)

00000928 <inst_74>:
     928:	25082507          	flw	fa0,592(a6)
     92c:	25482587          	flw	fa1,596(a6)
     930:	0020d073          	fsrmi	zero,1
     934:	08b57653          	fsub.s	fa2,fa0,fa1
     938:	001028f3          	frflags	a7
     93c:	24c7a827          	fsw	fa2,592(a5)
     940:	2517aa23          	sw	a7,596(a5)

00000944 <inst_75>:
     944:	25882507          	flw	fa0,600(a6)
     948:	25c82587          	flw	fa1,604(a6)
     94c:	00205073          	fsrmi	zero,0
     950:	08b57653          	fsub.s	fa2,fa0,fa1
     954:	001028f3          	frflags	a7
     958:	24c7ac27          	fsw	fa2,600(a5)
     95c:	2517ae23          	sw	a7,604(a5)

00000960 <inst_76>:
     960:	26082507          	flw	fa0,608(a6)
     964:	26482587          	flw	fa1,612(a6)
     968:	00225073          	fsrmi	zero,4
     96c:	08b57653          	fsub.s	fa2,fa0,fa1
     970:	001028f3          	frflags	a7
     974:	26c7a027          	fsw	fa2,608(a5)
     978:	2717a223          	sw	a7,612(a5)

0000097c <inst_77>:
     97c:	26882507          	flw	fa0,616(a6)
     980:	26c82587          	flw	fa1,620(a6)
     984:	0021d073          	fsrmi	zero,3
     988:	08b57653          	fsub.s	fa2,fa0,fa1
     98c:	001028f3          	frflags	a7
     990:	26c7a427          	fsw	fa2,616(a5)
     994:	2717a623          	sw	a7,620(a5)

00000998 <inst_78>:
     998:	27082507          	flw	fa0,624(a6)
     99c:	27482587          	flw	fa1,628(a6)
     9a0:	00215073          	fsrmi	zero,2
     9a4:	08b57653          	fsub.s	fa2,fa0,fa1
     9a8:	001028f3          	frflags	a7
     9ac:	26c7a827          	fsw	fa2,624(a5)
     9b0:	2717aa23          	sw	a7,628(a5)

000009b4 <inst_79>:
     9b4:	27882507          	flw	fa0,632(a6)
     9b8:	27c82587          	flw	fa1,636(a6)
     9bc:	0020d073          	fsrmi	zero,1
     9c0:	08b57653          	fsub.s	fa2,fa0,fa1
     9c4:	001028f3          	frflags	a7
     9c8:	26c7ac27          	fsw	fa2,632(a5)
     9cc:	2717ae23          	sw	a7,636(a5)

000009d0 <inst_80>:
     9d0:	28082507          	flw	fa0,640(a6)
     9d4:	28482587          	flw	fa1,644(a6)
     9d8:	00205073          	fsrmi	zero,0
     9dc:	08b57653          	fsub.s	fa2,fa0,fa1
     9e0:	001028f3          	frflags	a7
     9e4:	28c7a027          	fsw	fa2,640(a5)
     9e8:	2917a223          	sw	a7,644(a5)

000009ec <inst_81>:
     9ec:	28882507          	flw	fa0,648(a6)
     9f0:	28c82587          	flw	fa1,652(a6)
     9f4:	00225073          	fsrmi	zero,4
     9f8:	08b57653          	fsub.s	fa2,fa0,fa1
     9fc:	001028f3          	frflags	a7
     a00:	28c7a427          	fsw	fa2,648(a5)
     a04:	2917a623          	sw	a7,652(a5)

00000a08 <inst_82>:
     a08:	29082507          	flw	fa0,656(a6)
     a0c:	29482587          	flw	fa1,660(a6)
     a10:	0021d073          	fsrmi	zero,3
     a14:	08b57653          	fsub.s	fa2,fa0,fa1
     a18:	001028f3          	frflags	a7
     a1c:	28c7a827          	fsw	fa2,656(a5)
     a20:	2917aa23          	sw	a7,660(a5)

00000a24 <inst_83>:
     a24:	29882507          	flw	fa0,664(a6)
     a28:	29c82587          	flw	fa1,668(a6)
     a2c:	00215073          	fsrmi	zero,2
     a30:	08b57653          	fsub.s	fa2,fa0,fa1
     a34:	001028f3          	frflags	a7
     a38:	28c7ac27          	fsw	fa2,664(a5)
     a3c:	2917ae23          	sw	a7,668(a5)

00000a40 <inst_84>:
     a40:	2a082507          	flw	fa0,672(a6)
     a44:	2a482587          	flw	fa1,676(a6)
     a48:	0020d073          	fsrmi	zero,1
     a4c:	08b57653          	fsub.s	fa2,fa0,fa1
     a50:	001028f3          	frflags	a7
     a54:	2ac7a027          	fsw	fa2,672(a5)
     a58:	2b17a223          	sw	a7,676(a5)

00000a5c <inst_85>:
     a5c:	2a882507          	flw	fa0,680(a6)
     a60:	2ac82587          	flw	fa1,684(a6)
     a64:	00205073          	fsrmi	zero,0
     a68:	08b57653          	fsub.s	fa2,fa0,fa1
     a6c:	001028f3          	frflags	a7
     a70:	2ac7a427          	fsw	fa2,680(a5)
     a74:	2b17a623          	sw	a7,684(a5)

00000a78 <inst_86>:
     a78:	2b082507          	flw	fa0,688(a6)
     a7c:	2b482587          	flw	fa1,692(a6)
     a80:	00225073          	fsrmi	zero,4
     a84:	08b57653          	fsub.s	fa2,fa0,fa1
     a88:	001028f3          	frflags	a7
     a8c:	2ac7a827          	fsw	fa2,688(a5)
     a90:	2b17aa23          	sw	a7,692(a5)

00000a94 <inst_87>:
     a94:	2b882507          	flw	fa0,696(a6)
     a98:	2bc82587          	flw	fa1,700(a6)
     a9c:	0021d073          	fsrmi	zero,3
     aa0:	08b57653          	fsub.s	fa2,fa0,fa1
     aa4:	001028f3          	frflags	a7
     aa8:	2ac7ac27          	fsw	fa2,696(a5)
     aac:	2b17ae23          	sw	a7,700(a5)

00000ab0 <inst_88>:
     ab0:	2c082507          	flw	fa0,704(a6)
     ab4:	2c482587          	flw	fa1,708(a6)
     ab8:	00215073          	fsrmi	zero,2
     abc:	08b57653          	fsub.s	fa2,fa0,fa1
     ac0:	001028f3          	frflags	a7
     ac4:	2cc7a027          	fsw	fa2,704(a5)
     ac8:	2d17a223          	sw	a7,708(a5)

00000acc <inst_89>:
     acc:	2c882507          	flw	fa0,712(a6)
     ad0:	2cc82587          	flw	fa1,716(a6)
     ad4:	0020d073          	fsrmi	zero,1
     ad8:	08b57653          	fsub.s	fa2,fa0,fa1
     adc:	001028f3          	frflags	a7
     ae0:	2cc7a427          	fsw	fa2,712(a5)
     ae4:	2d17a623          	sw	a7,716(a5)

00000ae8 <inst_90>:
     ae8:	2d082507          	flw	fa0,720(a6)
     aec:	2d482587          	flw	fa1,724(a6)
     af0:	00205073          	fsrmi	zero,0
     af4:	08b57653          	fsub.s	fa2,fa0,fa1
     af8:	001028f3          	frflags	a7
     afc:	2cc7a827          	fsw	fa2,720(a5)
     b00:	2d17aa23          	sw	a7,724(a5)

00000b04 <inst_91>:
     b04:	2d882507          	flw	fa0,728(a6)
     b08:	2dc82587          	flw	fa1,732(a6)
     b0c:	00225073          	fsrmi	zero,4
     b10:	08b57653          	fsub.s	fa2,fa0,fa1
     b14:	001028f3          	frflags	a7
     b18:	2cc7ac27          	fsw	fa2,728(a5)
     b1c:	2d17ae23          	sw	a7,732(a5)

00000b20 <inst_92>:
     b20:	2e082507          	flw	fa0,736(a6)
     b24:	2e482587          	flw	fa1,740(a6)
     b28:	0021d073          	fsrmi	zero,3
     b2c:	08b57653          	fsub.s	fa2,fa0,fa1
     b30:	001028f3          	frflags	a7
     b34:	2ec7a027          	fsw	fa2,736(a5)
     b38:	2f17a223          	sw	a7,740(a5)

00000b3c <inst_93>:
     b3c:	2e882507          	flw	fa0,744(a6)
     b40:	2ec82587          	flw	fa1,748(a6)
     b44:	00215073          	fsrmi	zero,2
     b48:	08b57653          	fsub.s	fa2,fa0,fa1
     b4c:	001028f3          	frflags	a7
     b50:	2ec7a427          	fsw	fa2,744(a5)
     b54:	2f17a623          	sw	a7,748(a5)

00000b58 <inst_94>:
     b58:	2f082507          	flw	fa0,752(a6)
     b5c:	2f482587          	flw	fa1,756(a6)
     b60:	0020d073          	fsrmi	zero,1
     b64:	08b57653          	fsub.s	fa2,fa0,fa1
     b68:	001028f3          	frflags	a7
     b6c:	2ec7a827          	fsw	fa2,752(a5)
     b70:	2f17aa23          	sw	a7,756(a5)

00000b74 <inst_95>:
     b74:	2f882507          	flw	fa0,760(a6)
     b78:	2fc82587          	flw	fa1,764(a6)
     b7c:	00205073          	fsrmi	zero,0
     b80:	08b57653          	fsub.s	fa2,fa0,fa1
     b84:	001028f3          	frflags	a7
     b88:	2ec7ac27          	fsw	fa2,760(a5)
     b8c:	2f17ae23          	sw	a7,764(a5)

00000b90 <inst_96>:
     b90:	30082507          	flw	fa0,768(a6)
     b94:	30482587          	flw	fa1,772(a6)
     b98:	00225073          	fsrmi	zero,4
     b9c:	08b57653          	fsub.s	fa2,fa0,fa1
     ba0:	001028f3          	frflags	a7
     ba4:	30c7a027          	fsw	fa2,768(a5)
     ba8:	3117a223          	sw	a7,772(a5)

00000bac <inst_97>:
     bac:	30882507          	flw	fa0,776(a6)
     bb0:	30c82587          	flw	fa1,780(a6)
     bb4:	0021d073          	fsrmi	zero,3
     bb8:	08b57653          	fsub.s	fa2,fa0,fa1
     bbc:	001028f3          	frflags	a7
     bc0:	30c7a427          	fsw	fa2,776(a5)
     bc4:	3117a623          	sw	a7,780(a5)

00000bc8 <inst_98>:
     bc8:	31082507          	flw	fa0,784(a6)
     bcc:	31482587          	flw	fa1,788(a6)
     bd0:	00215073          	fsrmi	zero,2
     bd4:	08b57653          	fsub.s	fa2,fa0,fa1
     bd8:	001028f3          	frflags	a7
     bdc:	30c7a827          	fsw	fa2,784(a5)
     be0:	3117aa23          	sw	a7,788(a5)

00000be4 <inst_99>:
     be4:	31882507          	flw	fa0,792(a6)
     be8:	31c82587          	flw	fa1,796(a6)
     bec:	0020d073          	fsrmi	zero,1
     bf0:	08b57653          	fsub.s	fa2,fa0,fa1
     bf4:	001028f3          	frflags	a7
     bf8:	30c7ac27          	fsw	fa2,792(a5)
     bfc:	3117ae23          	sw	a7,796(a5)

00000c00 <inst_100>:
     c00:	32082507          	flw	fa0,800(a6)
     c04:	32482587          	flw	fa1,804(a6)
     c08:	00205073          	fsrmi	zero,0
     c0c:	08b57653          	fsub.s	fa2,fa0,fa1
     c10:	001028f3          	frflags	a7
     c14:	32c7a027          	fsw	fa2,800(a5)
     c18:	3317a223          	sw	a7,804(a5)

00000c1c <inst_101>:
     c1c:	32882507          	flw	fa0,808(a6)
     c20:	32c82587          	flw	fa1,812(a6)
     c24:	00225073          	fsrmi	zero,4
     c28:	08b57653          	fsub.s	fa2,fa0,fa1
     c2c:	001028f3          	frflags	a7
     c30:	32c7a427          	fsw	fa2,808(a5)
     c34:	3317a623          	sw	a7,812(a5)

00000c38 <inst_102>:
     c38:	33082507          	flw	fa0,816(a6)
     c3c:	33482587          	flw	fa1,820(a6)
     c40:	0021d073          	fsrmi	zero,3
     c44:	08b57653          	fsub.s	fa2,fa0,fa1
     c48:	001028f3          	frflags	a7
     c4c:	32c7a827          	fsw	fa2,816(a5)
     c50:	3317aa23          	sw	a7,820(a5)

00000c54 <inst_103>:
     c54:	33882507          	flw	fa0,824(a6)
     c58:	33c82587          	flw	fa1,828(a6)
     c5c:	00215073          	fsrmi	zero,2
     c60:	08b57653          	fsub.s	fa2,fa0,fa1
     c64:	001028f3          	frflags	a7
     c68:	32c7ac27          	fsw	fa2,824(a5)
     c6c:	3317ae23          	sw	a7,828(a5)

00000c70 <inst_104>:
     c70:	34082507          	flw	fa0,832(a6)
     c74:	34482587          	flw	fa1,836(a6)
     c78:	0020d073          	fsrmi	zero,1
     c7c:	08b57653          	fsub.s	fa2,fa0,fa1
     c80:	001028f3          	frflags	a7
     c84:	34c7a027          	fsw	fa2,832(a5)
     c88:	3517a223          	sw	a7,836(a5)

00000c8c <inst_105>:
     c8c:	34882507          	flw	fa0,840(a6)
     c90:	34c82587          	flw	fa1,844(a6)
     c94:	00205073          	fsrmi	zero,0
     c98:	08b57653          	fsub.s	fa2,fa0,fa1
     c9c:	001028f3          	frflags	a7
     ca0:	34c7a427          	fsw	fa2,840(a5)
     ca4:	3517a623          	sw	a7,844(a5)

00000ca8 <inst_106>:
     ca8:	35082507          	flw	fa0,848(a6)
     cac:	35482587          	flw	fa1,852(a6)
     cb0:	00225073          	fsrmi	zero,4
     cb4:	08b57653          	fsub.s	fa2,fa0,fa1
     cb8:	001028f3          	frflags	a7
     cbc:	34c7a827          	fsw	fa2,848(a5)
     cc0:	3517aa23          	sw	a7,852(a5)

00000cc4 <inst_107>:
     cc4:	35882507          	flw	fa0,856(a6)
     cc8:	35c82587          	flw	fa1,860(a6)
     ccc:	0021d073          	fsrmi	zero,3
     cd0:	08b57653          	fsub.s	fa2,fa0,fa1
     cd4:	001028f3          	frflags	a7
     cd8:	34c7ac27          	fsw	fa2,856(a5)
     cdc:	3517ae23          	sw	a7,860(a5)

00000ce0 <inst_108>:
     ce0:	36082507          	flw	fa0,864(a6)
     ce4:	36482587          	flw	fa1,868(a6)
     ce8:	00215073          	fsrmi	zero,2
     cec:	08b57653          	fsub.s	fa2,fa0,fa1
     cf0:	001028f3          	frflags	a7
     cf4:	36c7a027          	fsw	fa2,864(a5)
     cf8:	3717a223          	sw	a7,868(a5)

00000cfc <inst_109>:
     cfc:	36882507          	flw	fa0,872(a6)
     d00:	36c82587          	flw	fa1,876(a6)
     d04:	0020d073          	fsrmi	zero,1
     d08:	08b57653          	fsub.s	fa2,fa0,fa1
     d0c:	001028f3          	frflags	a7
     d10:	36c7a427          	fsw	fa2,872(a5)
     d14:	3717a623          	sw	a7,876(a5)

00000d18 <inst_110>:
     d18:	37082507          	flw	fa0,880(a6)
     d1c:	37482587          	flw	fa1,884(a6)
     d20:	00205073          	fsrmi	zero,0
     d24:	08b57653          	fsub.s	fa2,fa0,fa1
     d28:	001028f3          	frflags	a7
     d2c:	36c7a827          	fsw	fa2,880(a5)
     d30:	3717aa23          	sw	a7,884(a5)

00000d34 <inst_111>:
     d34:	37882507          	flw	fa0,888(a6)
     d38:	37c82587          	flw	fa1,892(a6)
     d3c:	00225073          	fsrmi	zero,4
     d40:	08b57653          	fsub.s	fa2,fa0,fa1
     d44:	001028f3          	frflags	a7
     d48:	36c7ac27          	fsw	fa2,888(a5)
     d4c:	3717ae23          	sw	a7,892(a5)

00000d50 <inst_112>:
     d50:	38082507          	flw	fa0,896(a6)
     d54:	38482587          	flw	fa1,900(a6)
     d58:	0021d073          	fsrmi	zero,3
     d5c:	08b57653          	fsub.s	fa2,fa0,fa1
     d60:	001028f3          	frflags	a7
     d64:	38c7a027          	fsw	fa2,896(a5)
     d68:	3917a223          	sw	a7,900(a5)

00000d6c <inst_113>:
     d6c:	38882507          	flw	fa0,904(a6)
     d70:	38c82587          	flw	fa1,908(a6)
     d74:	00215073          	fsrmi	zero,2
     d78:	08b57653          	fsub.s	fa2,fa0,fa1
     d7c:	001028f3          	frflags	a7
     d80:	38c7a427          	fsw	fa2,904(a5)
     d84:	3917a623          	sw	a7,908(a5)

00000d88 <inst_114>:
     d88:	39082507          	flw	fa0,912(a6)
     d8c:	39482587          	flw	fa1,916(a6)
     d90:	0020d073          	fsrmi	zero,1
     d94:	08b57653          	fsub.s	fa2,fa0,fa1
     d98:	001028f3          	frflags	a7
     d9c:	38c7a827          	fsw	fa2,912(a5)
     da0:	3917aa23          	sw	a7,916(a5)

00000da4 <inst_115>:
     da4:	39882507          	flw	fa0,920(a6)
     da8:	39c82587          	flw	fa1,924(a6)
     dac:	00205073          	fsrmi	zero,0
     db0:	08b57653          	fsub.s	fa2,fa0,fa1
     db4:	001028f3          	frflags	a7
     db8:	38c7ac27          	fsw	fa2,920(a5)
     dbc:	3917ae23          	sw	a7,924(a5)

00000dc0 <inst_116>:
     dc0:	3a082507          	flw	fa0,928(a6)
     dc4:	3a482587          	flw	fa1,932(a6)
     dc8:	00225073          	fsrmi	zero,4
     dcc:	08b57653          	fsub.s	fa2,fa0,fa1
     dd0:	001028f3          	frflags	a7
     dd4:	3ac7a027          	fsw	fa2,928(a5)
     dd8:	3b17a223          	sw	a7,932(a5)

00000ddc <inst_117>:
     ddc:	3a882507          	flw	fa0,936(a6)
     de0:	3ac82587          	flw	fa1,940(a6)
     de4:	0021d073          	fsrmi	zero,3
     de8:	08b57653          	fsub.s	fa2,fa0,fa1
     dec:	001028f3          	frflags	a7
     df0:	3ac7a427          	fsw	fa2,936(a5)
     df4:	3b17a623          	sw	a7,940(a5)

00000df8 <inst_118>:
     df8:	3b082507          	flw	fa0,944(a6)
     dfc:	3b482587          	flw	fa1,948(a6)
     e00:	00215073          	fsrmi	zero,2
     e04:	08b57653          	fsub.s	fa2,fa0,fa1
     e08:	001028f3          	frflags	a7
     e0c:	3ac7a827          	fsw	fa2,944(a5)
     e10:	3b17aa23          	sw	a7,948(a5)

00000e14 <inst_119>:
     e14:	3b882507          	flw	fa0,952(a6)
     e18:	3bc82587          	flw	fa1,956(a6)
     e1c:	0020d073          	fsrmi	zero,1
     e20:	08b57653          	fsub.s	fa2,fa0,fa1
     e24:	001028f3          	frflags	a7
     e28:	3ac7ac27          	fsw	fa2,952(a5)
     e2c:	3b17ae23          	sw	a7,956(a5)

00000e30 <inst_120>:
     e30:	3c082507          	flw	fa0,960(a6)
     e34:	3c482587          	flw	fa1,964(a6)
     e38:	00205073          	fsrmi	zero,0
     e3c:	08b57653          	fsub.s	fa2,fa0,fa1
     e40:	001028f3          	frflags	a7
     e44:	3cc7a027          	fsw	fa2,960(a5)
     e48:	3d17a223          	sw	a7,964(a5)

00000e4c <inst_121>:
     e4c:	3c882507          	flw	fa0,968(a6)
     e50:	3cc82587          	flw	fa1,972(a6)
     e54:	00225073          	fsrmi	zero,4
     e58:	08b57653          	fsub.s	fa2,fa0,fa1
     e5c:	001028f3          	frflags	a7
     e60:	3cc7a427          	fsw	fa2,968(a5)
     e64:	3d17a623          	sw	a7,972(a5)

00000e68 <inst_122>:
     e68:	3d082507          	flw	fa0,976(a6)
     e6c:	3d482587          	flw	fa1,980(a6)
     e70:	0021d073          	fsrmi	zero,3
     e74:	08b57653          	fsub.s	fa2,fa0,fa1
     e78:	001028f3          	frflags	a7
     e7c:	3cc7a827          	fsw	fa2,976(a5)
     e80:	3d17aa23          	sw	a7,980(a5)

00000e84 <inst_123>:
     e84:	3d882507          	flw	fa0,984(a6)
     e88:	3dc82587          	flw	fa1,988(a6)
     e8c:	00215073          	fsrmi	zero,2
     e90:	08b57653          	fsub.s	fa2,fa0,fa1
     e94:	001028f3          	frflags	a7
     e98:	3cc7ac27          	fsw	fa2,984(a5)
     e9c:	3d17ae23          	sw	a7,988(a5)

00000ea0 <inst_124>:
     ea0:	3e082507          	flw	fa0,992(a6)
     ea4:	3e482587          	flw	fa1,996(a6)
     ea8:	0020d073          	fsrmi	zero,1
     eac:	08b57653          	fsub.s	fa2,fa0,fa1
     eb0:	001028f3          	frflags	a7
     eb4:	3ec7a027          	fsw	fa2,992(a5)
     eb8:	3f17a223          	sw	a7,996(a5)

00000ebc <inst_125>:
     ebc:	3e882507          	flw	fa0,1000(a6)
     ec0:	3ec82587          	flw	fa1,1004(a6)
     ec4:	00205073          	fsrmi	zero,0
     ec8:	08b57653          	fsub.s	fa2,fa0,fa1
     ecc:	001028f3          	frflags	a7
     ed0:	3ec7a427          	fsw	fa2,1000(a5)
     ed4:	3f17a623          	sw	a7,1004(a5)

00000ed8 <inst_126>:
     ed8:	3f082507          	flw	fa0,1008(a6)
     edc:	3f482587          	flw	fa1,1012(a6)
     ee0:	00225073          	fsrmi	zero,4
     ee4:	08b57653          	fsub.s	fa2,fa0,fa1
     ee8:	001028f3          	frflags	a7
     eec:	3ec7a827          	fsw	fa2,1008(a5)
     ef0:	3f17aa23          	sw	a7,1012(a5)

00000ef4 <inst_127>:
     ef4:	3f882507          	flw	fa0,1016(a6)
     ef8:	3fc82587          	flw	fa1,1020(a6)
     efc:	0021d073          	fsrmi	zero,3
     f00:	08b57653          	fsub.s	fa2,fa0,fa1
     f04:	001028f3          	frflags	a7
     f08:	3ec7ac27          	fsw	fa2,1016(a5)
     f0c:	3f17ae23          	sw	a7,1020(a5)

00000f10 <inst_128>:
     f10:	40082507          	flw	fa0,1024(a6)
     f14:	40482587          	flw	fa1,1028(a6)
     f18:	00215073          	fsrmi	zero,2
     f1c:	08b57653          	fsub.s	fa2,fa0,fa1
     f20:	001028f3          	frflags	a7
     f24:	40c7a027          	fsw	fa2,1024(a5)
     f28:	4117a223          	sw	a7,1028(a5)

00000f2c <inst_129>:
     f2c:	40882507          	flw	fa0,1032(a6)
     f30:	40c82587          	flw	fa1,1036(a6)
     f34:	0020d073          	fsrmi	zero,1
     f38:	08b57653          	fsub.s	fa2,fa0,fa1
     f3c:	001028f3          	frflags	a7
     f40:	40c7a427          	fsw	fa2,1032(a5)
     f44:	4117a623          	sw	a7,1036(a5)

00000f48 <inst_130>:
     f48:	41082507          	flw	fa0,1040(a6)
     f4c:	41482587          	flw	fa1,1044(a6)
     f50:	00205073          	fsrmi	zero,0
     f54:	08b57653          	fsub.s	fa2,fa0,fa1
     f58:	001028f3          	frflags	a7
     f5c:	40c7a827          	fsw	fa2,1040(a5)
     f60:	4117aa23          	sw	a7,1044(a5)

00000f64 <inst_131>:
     f64:	41882507          	flw	fa0,1048(a6)
     f68:	41c82587          	flw	fa1,1052(a6)
     f6c:	00225073          	fsrmi	zero,4
     f70:	08b57653          	fsub.s	fa2,fa0,fa1
     f74:	001028f3          	frflags	a7
     f78:	40c7ac27          	fsw	fa2,1048(a5)
     f7c:	4117ae23          	sw	a7,1052(a5)

00000f80 <inst_132>:
     f80:	42082507          	flw	fa0,1056(a6)
     f84:	42482587          	flw	fa1,1060(a6)
     f88:	0021d073          	fsrmi	zero,3
     f8c:	08b57653          	fsub.s	fa2,fa0,fa1
     f90:	001028f3          	frflags	a7
     f94:	42c7a027          	fsw	fa2,1056(a5)
     f98:	4317a223          	sw	a7,1060(a5)

00000f9c <inst_133>:
     f9c:	42882507          	flw	fa0,1064(a6)
     fa0:	42c82587          	flw	fa1,1068(a6)
     fa4:	00215073          	fsrmi	zero,2
     fa8:	08b57653          	fsub.s	fa2,fa0,fa1
     fac:	001028f3          	frflags	a7
     fb0:	42c7a427          	fsw	fa2,1064(a5)
     fb4:	4317a623          	sw	a7,1068(a5)

00000fb8 <inst_134>:
     fb8:	43082507          	flw	fa0,1072(a6)
     fbc:	43482587          	flw	fa1,1076(a6)
     fc0:	0020d073          	fsrmi	zero,1
     fc4:	08b57653          	fsub.s	fa2,fa0,fa1
     fc8:	001028f3          	frflags	a7
     fcc:	42c7a827          	fsw	fa2,1072(a5)
     fd0:	4317aa23          	sw	a7,1076(a5)

00000fd4 <inst_135>:
     fd4:	43882507          	flw	fa0,1080(a6)
     fd8:	43c82587          	flw	fa1,1084(a6)
     fdc:	00205073          	fsrmi	zero,0
     fe0:	08b57653          	fsub.s	fa2,fa0,fa1
     fe4:	001028f3          	frflags	a7
     fe8:	42c7ac27          	fsw	fa2,1080(a5)
     fec:	4317ae23          	sw	a7,1084(a5)

00000ff0 <inst_136>:
     ff0:	44082507          	flw	fa0,1088(a6)
     ff4:	44482587          	flw	fa1,1092(a6)
     ff8:	00225073          	fsrmi	zero,4
     ffc:	08b57653          	fsub.s	fa2,fa0,fa1
    1000:	001028f3          	frflags	a7
    1004:	44c7a027          	fsw	fa2,1088(a5)
    1008:	4517a223          	sw	a7,1092(a5)

0000100c <inst_137>:
    100c:	44882507          	flw	fa0,1096(a6)
    1010:	44c82587          	flw	fa1,1100(a6)
    1014:	0021d073          	fsrmi	zero,3
    1018:	08b57653          	fsub.s	fa2,fa0,fa1
    101c:	001028f3          	frflags	a7
    1020:	44c7a427          	fsw	fa2,1096(a5)
    1024:	4517a623          	sw	a7,1100(a5)

00001028 <inst_138>:
    1028:	45082507          	flw	fa0,1104(a6)
    102c:	45482587          	flw	fa1,1108(a6)
    1030:	00215073          	fsrmi	zero,2
    1034:	08b57653          	fsub.s	fa2,fa0,fa1
    1038:	001028f3          	frflags	a7
    103c:	44c7a827          	fsw	fa2,1104(a5)
    1040:	4517aa23          	sw	a7,1108(a5)

00001044 <inst_139>:
    1044:	45882507          	flw	fa0,1112(a6)
    1048:	45c82587          	flw	fa1,1116(a6)
    104c:	0020d073          	fsrmi	zero,1
    1050:	08b57653          	fsub.s	fa2,fa0,fa1
    1054:	001028f3          	frflags	a7
    1058:	44c7ac27          	fsw	fa2,1112(a5)
    105c:	4517ae23          	sw	a7,1116(a5)

00001060 <inst_140>:
    1060:	46082507          	flw	fa0,1120(a6)
    1064:	46482587          	flw	fa1,1124(a6)
    1068:	00205073          	fsrmi	zero,0
    106c:	08b57653          	fsub.s	fa2,fa0,fa1
    1070:	001028f3          	frflags	a7
    1074:	46c7a027          	fsw	fa2,1120(a5)
    1078:	4717a223          	sw	a7,1124(a5)

0000107c <inst_141>:
    107c:	46882507          	flw	fa0,1128(a6)
    1080:	46c82587          	flw	fa1,1132(a6)
    1084:	00225073          	fsrmi	zero,4
    1088:	08b57653          	fsub.s	fa2,fa0,fa1
    108c:	001028f3          	frflags	a7
    1090:	46c7a427          	fsw	fa2,1128(a5)
    1094:	4717a623          	sw	a7,1132(a5)

00001098 <inst_142>:
    1098:	47082507          	flw	fa0,1136(a6)
    109c:	47482587          	flw	fa1,1140(a6)
    10a0:	0021d073          	fsrmi	zero,3
    10a4:	08b57653          	fsub.s	fa2,fa0,fa1
    10a8:	001028f3          	frflags	a7
    10ac:	46c7a827          	fsw	fa2,1136(a5)
    10b0:	4717aa23          	sw	a7,1140(a5)

000010b4 <inst_143>:
    10b4:	47882507          	flw	fa0,1144(a6)
    10b8:	47c82587          	flw	fa1,1148(a6)
    10bc:	00215073          	fsrmi	zero,2
    10c0:	08b57653          	fsub.s	fa2,fa0,fa1
    10c4:	001028f3          	frflags	a7
    10c8:	46c7ac27          	fsw	fa2,1144(a5)
    10cc:	4717ae23          	sw	a7,1148(a5)

000010d0 <inst_144>:
    10d0:	48082507          	flw	fa0,1152(a6)
    10d4:	48482587          	flw	fa1,1156(a6)
    10d8:	0020d073          	fsrmi	zero,1
    10dc:	08b57653          	fsub.s	fa2,fa0,fa1
    10e0:	001028f3          	frflags	a7
    10e4:	48c7a027          	fsw	fa2,1152(a5)
    10e8:	4917a223          	sw	a7,1156(a5)

000010ec <inst_145>:
    10ec:	48882507          	flw	fa0,1160(a6)
    10f0:	48c82587          	flw	fa1,1164(a6)
    10f4:	00205073          	fsrmi	zero,0
    10f8:	08b57653          	fsub.s	fa2,fa0,fa1
    10fc:	001028f3          	frflags	a7
    1100:	48c7a427          	fsw	fa2,1160(a5)
    1104:	4917a623          	sw	a7,1164(a5)

00001108 <inst_146>:
    1108:	49082507          	flw	fa0,1168(a6)
    110c:	49482587          	flw	fa1,1172(a6)
    1110:	00225073          	fsrmi	zero,4
    1114:	08b57653          	fsub.s	fa2,fa0,fa1
    1118:	001028f3          	frflags	a7
    111c:	48c7a827          	fsw	fa2,1168(a5)
    1120:	4917aa23          	sw	a7,1172(a5)

00001124 <inst_147>:
    1124:	49882507          	flw	fa0,1176(a6)
    1128:	49c82587          	flw	fa1,1180(a6)
    112c:	0021d073          	fsrmi	zero,3
    1130:	08b57653          	fsub.s	fa2,fa0,fa1
    1134:	001028f3          	frflags	a7
    1138:	48c7ac27          	fsw	fa2,1176(a5)
    113c:	4917ae23          	sw	a7,1180(a5)

00001140 <inst_148>:
    1140:	4a082507          	flw	fa0,1184(a6)
    1144:	4a482587          	flw	fa1,1188(a6)
    1148:	00215073          	fsrmi	zero,2
    114c:	08b57653          	fsub.s	fa2,fa0,fa1
    1150:	001028f3          	frflags	a7
    1154:	4ac7a027          	fsw	fa2,1184(a5)
    1158:	4b17a223          	sw	a7,1188(a5)

0000115c <inst_149>:
    115c:	4a882507          	flw	fa0,1192(a6)
    1160:	4ac82587          	flw	fa1,1196(a6)
    1164:	0020d073          	fsrmi	zero,1
    1168:	08b57653          	fsub.s	fa2,fa0,fa1
    116c:	001028f3          	frflags	a7
    1170:	4ac7a427          	fsw	fa2,1192(a5)
    1174:	4b17a623          	sw	a7,1196(a5)

00001178 <inst_150>:
    1178:	4b082507          	flw	fa0,1200(a6)
    117c:	4b482587          	flw	fa1,1204(a6)
    1180:	00205073          	fsrmi	zero,0
    1184:	08b57653          	fsub.s	fa2,fa0,fa1
    1188:	001028f3          	frflags	a7
    118c:	4ac7a827          	fsw	fa2,1200(a5)
    1190:	4b17aa23          	sw	a7,1204(a5)

00001194 <inst_151>:
    1194:	4b882507          	flw	fa0,1208(a6)
    1198:	4bc82587          	flw	fa1,1212(a6)
    119c:	00225073          	fsrmi	zero,4
    11a0:	08b57653          	fsub.s	fa2,fa0,fa1
    11a4:	001028f3          	frflags	a7
    11a8:	4ac7ac27          	fsw	fa2,1208(a5)
    11ac:	4b17ae23          	sw	a7,1212(a5)

000011b0 <inst_152>:
    11b0:	4c082507          	flw	fa0,1216(a6)
    11b4:	4c482587          	flw	fa1,1220(a6)
    11b8:	0021d073          	fsrmi	zero,3
    11bc:	08b57653          	fsub.s	fa2,fa0,fa1
    11c0:	001028f3          	frflags	a7
    11c4:	4cc7a027          	fsw	fa2,1216(a5)
    11c8:	4d17a223          	sw	a7,1220(a5)

000011cc <inst_153>:
    11cc:	4c882507          	flw	fa0,1224(a6)
    11d0:	4cc82587          	flw	fa1,1228(a6)
    11d4:	00215073          	fsrmi	zero,2
    11d8:	08b57653          	fsub.s	fa2,fa0,fa1
    11dc:	001028f3          	frflags	a7
    11e0:	4cc7a427          	fsw	fa2,1224(a5)
    11e4:	4d17a623          	sw	a7,1228(a5)

000011e8 <inst_154>:
    11e8:	4d082507          	flw	fa0,1232(a6)
    11ec:	4d482587          	flw	fa1,1236(a6)
    11f0:	0020d073          	fsrmi	zero,1
    11f4:	08b57653          	fsub.s	fa2,fa0,fa1
    11f8:	001028f3          	frflags	a7
    11fc:	4cc7a827          	fsw	fa2,1232(a5)
    1200:	4d17aa23          	sw	a7,1236(a5)

00001204 <inst_155>:
    1204:	4d882507          	flw	fa0,1240(a6)
    1208:	4dc82587          	flw	fa1,1244(a6)
    120c:	00205073          	fsrmi	zero,0
    1210:	08b57653          	fsub.s	fa2,fa0,fa1
    1214:	001028f3          	frflags	a7
    1218:	4cc7ac27          	fsw	fa2,1240(a5)
    121c:	4d17ae23          	sw	a7,1244(a5)

00001220 <inst_156>:
    1220:	4e082507          	flw	fa0,1248(a6)
    1224:	4e482587          	flw	fa1,1252(a6)
    1228:	00225073          	fsrmi	zero,4
    122c:	08b57653          	fsub.s	fa2,fa0,fa1
    1230:	001028f3          	frflags	a7
    1234:	4ec7a027          	fsw	fa2,1248(a5)
    1238:	4f17a223          	sw	a7,1252(a5)

0000123c <inst_157>:
    123c:	4e882507          	flw	fa0,1256(a6)
    1240:	4ec82587          	flw	fa1,1260(a6)
    1244:	0021d073          	fsrmi	zero,3
    1248:	08b57653          	fsub.s	fa2,fa0,fa1
    124c:	001028f3          	frflags	a7
    1250:	4ec7a427          	fsw	fa2,1256(a5)
    1254:	4f17a623          	sw	a7,1260(a5)

00001258 <inst_158>:
    1258:	4f082507          	flw	fa0,1264(a6)
    125c:	4f482587          	flw	fa1,1268(a6)
    1260:	00215073          	fsrmi	zero,2
    1264:	08b57653          	fsub.s	fa2,fa0,fa1
    1268:	001028f3          	frflags	a7
    126c:	4ec7a827          	fsw	fa2,1264(a5)
    1270:	4f17aa23          	sw	a7,1268(a5)

00001274 <inst_159>:
    1274:	4f882507          	flw	fa0,1272(a6)
    1278:	4fc82587          	flw	fa1,1276(a6)
    127c:	0020d073          	fsrmi	zero,1
    1280:	08b57653          	fsub.s	fa2,fa0,fa1
    1284:	001028f3          	frflags	a7
    1288:	4ec7ac27          	fsw	fa2,1272(a5)
    128c:	4f17ae23          	sw	a7,1276(a5)

00001290 <inst_160>:
    1290:	50082507          	flw	fa0,1280(a6)
    1294:	50482587          	flw	fa1,1284(a6)
    1298:	00205073          	fsrmi	zero,0
    129c:	08b57653          	fsub.s	fa2,fa0,fa1
    12a0:	001028f3          	frflags	a7
    12a4:	50c7a027          	fsw	fa2,1280(a5)
    12a8:	5117a223          	sw	a7,1284(a5)

000012ac <inst_161>:
    12ac:	50882507          	flw	fa0,1288(a6)
    12b0:	50c82587          	flw	fa1,1292(a6)
    12b4:	00225073          	fsrmi	zero,4
    12b8:	08b57653          	fsub.s	fa2,fa0,fa1
    12bc:	001028f3          	frflags	a7
    12c0:	50c7a427          	fsw	fa2,1288(a5)
    12c4:	5117a623          	sw	a7,1292(a5)

000012c8 <inst_162>:
    12c8:	51082507          	flw	fa0,1296(a6)
    12cc:	51482587          	flw	fa1,1300(a6)
    12d0:	0021d073          	fsrmi	zero,3
    12d4:	08b57653          	fsub.s	fa2,fa0,fa1
    12d8:	001028f3          	frflags	a7
    12dc:	50c7a827          	fsw	fa2,1296(a5)
    12e0:	5117aa23          	sw	a7,1300(a5)

000012e4 <inst_163>:
    12e4:	51882507          	flw	fa0,1304(a6)
    12e8:	51c82587          	flw	fa1,1308(a6)
    12ec:	00215073          	fsrmi	zero,2
    12f0:	08b57653          	fsub.s	fa2,fa0,fa1
    12f4:	001028f3          	frflags	a7
    12f8:	50c7ac27          	fsw	fa2,1304(a5)
    12fc:	5117ae23          	sw	a7,1308(a5)

00001300 <inst_164>:
    1300:	52082507          	flw	fa0,1312(a6)
    1304:	52482587          	flw	fa1,1316(a6)
    1308:	0020d073          	fsrmi	zero,1
    130c:	08b57653          	fsub.s	fa2,fa0,fa1
    1310:	001028f3          	frflags	a7
    1314:	52c7a027          	fsw	fa2,1312(a5)
    1318:	5317a223          	sw	a7,1316(a5)

0000131c <inst_165>:
    131c:	52882507          	flw	fa0,1320(a6)
    1320:	52c82587          	flw	fa1,1324(a6)
    1324:	00205073          	fsrmi	zero,0
    1328:	08b57653          	fsub.s	fa2,fa0,fa1
    132c:	001028f3          	frflags	a7
    1330:	52c7a427          	fsw	fa2,1320(a5)
    1334:	5317a623          	sw	a7,1324(a5)

00001338 <inst_166>:
    1338:	53082507          	flw	fa0,1328(a6)
    133c:	53482587          	flw	fa1,1332(a6)
    1340:	00225073          	fsrmi	zero,4
    1344:	08b57653          	fsub.s	fa2,fa0,fa1
    1348:	001028f3          	frflags	a7
    134c:	52c7a827          	fsw	fa2,1328(a5)
    1350:	5317aa23          	sw	a7,1332(a5)

00001354 <inst_167>:
    1354:	53882507          	flw	fa0,1336(a6)
    1358:	53c82587          	flw	fa1,1340(a6)
    135c:	0021d073          	fsrmi	zero,3
    1360:	08b57653          	fsub.s	fa2,fa0,fa1
    1364:	001028f3          	frflags	a7
    1368:	52c7ac27          	fsw	fa2,1336(a5)
    136c:	5317ae23          	sw	a7,1340(a5)

00001370 <inst_168>:
    1370:	54082507          	flw	fa0,1344(a6)
    1374:	54482587          	flw	fa1,1348(a6)
    1378:	00215073          	fsrmi	zero,2
    137c:	08b57653          	fsub.s	fa2,fa0,fa1
    1380:	001028f3          	frflags	a7
    1384:	54c7a027          	fsw	fa2,1344(a5)
    1388:	5517a223          	sw	a7,1348(a5)

0000138c <inst_169>:
    138c:	54882507          	flw	fa0,1352(a6)
    1390:	54c82587          	flw	fa1,1356(a6)
    1394:	0020d073          	fsrmi	zero,1
    1398:	08b57653          	fsub.s	fa2,fa0,fa1
    139c:	001028f3          	frflags	a7
    13a0:	54c7a427          	fsw	fa2,1352(a5)
    13a4:	5517a623          	sw	a7,1356(a5)

000013a8 <inst_170>:
    13a8:	55082507          	flw	fa0,1360(a6)
    13ac:	55482587          	flw	fa1,1364(a6)
    13b0:	00205073          	fsrmi	zero,0
    13b4:	08b57653          	fsub.s	fa2,fa0,fa1
    13b8:	001028f3          	frflags	a7
    13bc:	54c7a827          	fsw	fa2,1360(a5)
    13c0:	5517aa23          	sw	a7,1364(a5)

000013c4 <inst_171>:
    13c4:	55882507          	flw	fa0,1368(a6)
    13c8:	55c82587          	flw	fa1,1372(a6)
    13cc:	00225073          	fsrmi	zero,4
    13d0:	08b57653          	fsub.s	fa2,fa0,fa1
    13d4:	001028f3          	frflags	a7
    13d8:	54c7ac27          	fsw	fa2,1368(a5)
    13dc:	5517ae23          	sw	a7,1372(a5)

000013e0 <inst_172>:
    13e0:	56082507          	flw	fa0,1376(a6)
    13e4:	56482587          	flw	fa1,1380(a6)
    13e8:	0021d073          	fsrmi	zero,3
    13ec:	08b57653          	fsub.s	fa2,fa0,fa1
    13f0:	001028f3          	frflags	a7
    13f4:	56c7a027          	fsw	fa2,1376(a5)
    13f8:	5717a223          	sw	a7,1380(a5)

000013fc <inst_173>:
    13fc:	56882507          	flw	fa0,1384(a6)
    1400:	56c82587          	flw	fa1,1388(a6)
    1404:	00215073          	fsrmi	zero,2
    1408:	08b57653          	fsub.s	fa2,fa0,fa1
    140c:	001028f3          	frflags	a7
    1410:	56c7a427          	fsw	fa2,1384(a5)
    1414:	5717a623          	sw	a7,1388(a5)

00001418 <inst_174>:
    1418:	57082507          	flw	fa0,1392(a6)
    141c:	57482587          	flw	fa1,1396(a6)
    1420:	0020d073          	fsrmi	zero,1
    1424:	08b57653          	fsub.s	fa2,fa0,fa1
    1428:	001028f3          	frflags	a7
    142c:	56c7a827          	fsw	fa2,1392(a5)
    1430:	5717aa23          	sw	a7,1396(a5)

00001434 <inst_175>:
    1434:	57882507          	flw	fa0,1400(a6)
    1438:	57c82587          	flw	fa1,1404(a6)
    143c:	00205073          	fsrmi	zero,0
    1440:	08b57653          	fsub.s	fa2,fa0,fa1
    1444:	001028f3          	frflags	a7
    1448:	56c7ac27          	fsw	fa2,1400(a5)
    144c:	5717ae23          	sw	a7,1404(a5)

00001450 <inst_176>:
    1450:	58082507          	flw	fa0,1408(a6)
    1454:	58482587          	flw	fa1,1412(a6)
    1458:	00225073          	fsrmi	zero,4
    145c:	08b57653          	fsub.s	fa2,fa0,fa1
    1460:	001028f3          	frflags	a7
    1464:	58c7a027          	fsw	fa2,1408(a5)
    1468:	5917a223          	sw	a7,1412(a5)

0000146c <inst_177>:
    146c:	58882507          	flw	fa0,1416(a6)
    1470:	58c82587          	flw	fa1,1420(a6)
    1474:	0021d073          	fsrmi	zero,3
    1478:	08b57653          	fsub.s	fa2,fa0,fa1
    147c:	001028f3          	frflags	a7
    1480:	58c7a427          	fsw	fa2,1416(a5)
    1484:	5917a623          	sw	a7,1420(a5)

00001488 <inst_178>:
    1488:	59082507          	flw	fa0,1424(a6)
    148c:	59482587          	flw	fa1,1428(a6)
    1490:	00215073          	fsrmi	zero,2
    1494:	08b57653          	fsub.s	fa2,fa0,fa1
    1498:	001028f3          	frflags	a7
    149c:	58c7a827          	fsw	fa2,1424(a5)
    14a0:	5917aa23          	sw	a7,1428(a5)

000014a4 <inst_179>:
    14a4:	59882507          	flw	fa0,1432(a6)
    14a8:	59c82587          	flw	fa1,1436(a6)
    14ac:	0020d073          	fsrmi	zero,1
    14b0:	08b57653          	fsub.s	fa2,fa0,fa1
    14b4:	001028f3          	frflags	a7
    14b8:	58c7ac27          	fsw	fa2,1432(a5)
    14bc:	5917ae23          	sw	a7,1436(a5)

000014c0 <inst_180>:
    14c0:	5a082507          	flw	fa0,1440(a6)
    14c4:	5a482587          	flw	fa1,1444(a6)
    14c8:	00205073          	fsrmi	zero,0
    14cc:	08b57653          	fsub.s	fa2,fa0,fa1
    14d0:	001028f3          	frflags	a7
    14d4:	5ac7a027          	fsw	fa2,1440(a5)
    14d8:	5b17a223          	sw	a7,1444(a5)

000014dc <inst_181>:
    14dc:	5a882507          	flw	fa0,1448(a6)
    14e0:	5ac82587          	flw	fa1,1452(a6)
    14e4:	00225073          	fsrmi	zero,4
    14e8:	08b57653          	fsub.s	fa2,fa0,fa1
    14ec:	001028f3          	frflags	a7
    14f0:	5ac7a427          	fsw	fa2,1448(a5)
    14f4:	5b17a623          	sw	a7,1452(a5)

000014f8 <inst_182>:
    14f8:	5b082507          	flw	fa0,1456(a6)
    14fc:	5b482587          	flw	fa1,1460(a6)
    1500:	0021d073          	fsrmi	zero,3
    1504:	08b57653          	fsub.s	fa2,fa0,fa1
    1508:	001028f3          	frflags	a7
    150c:	5ac7a827          	fsw	fa2,1456(a5)
    1510:	5b17aa23          	sw	a7,1460(a5)

00001514 <inst_183>:
    1514:	5b882507          	flw	fa0,1464(a6)
    1518:	5bc82587          	flw	fa1,1468(a6)
    151c:	00215073          	fsrmi	zero,2
    1520:	08b57653          	fsub.s	fa2,fa0,fa1
    1524:	001028f3          	frflags	a7
    1528:	5ac7ac27          	fsw	fa2,1464(a5)
    152c:	5b17ae23          	sw	a7,1468(a5)

00001530 <inst_184>:
    1530:	5c082507          	flw	fa0,1472(a6)
    1534:	5c482587          	flw	fa1,1476(a6)
    1538:	0020d073          	fsrmi	zero,1
    153c:	08b57653          	fsub.s	fa2,fa0,fa1
    1540:	001028f3          	frflags	a7
    1544:	5cc7a027          	fsw	fa2,1472(a5)
    1548:	5d17a223          	sw	a7,1476(a5)

0000154c <inst_185>:
    154c:	5c882507          	flw	fa0,1480(a6)
    1550:	5cc82587          	flw	fa1,1484(a6)
    1554:	00205073          	fsrmi	zero,0
    1558:	08b57653          	fsub.s	fa2,fa0,fa1
    155c:	001028f3          	frflags	a7
    1560:	5cc7a427          	fsw	fa2,1480(a5)
    1564:	5d17a623          	sw	a7,1484(a5)

00001568 <inst_186>:
    1568:	5d082507          	flw	fa0,1488(a6)
    156c:	5d482587          	flw	fa1,1492(a6)
    1570:	00225073          	fsrmi	zero,4
    1574:	08b57653          	fsub.s	fa2,fa0,fa1
    1578:	001028f3          	frflags	a7
    157c:	5cc7a827          	fsw	fa2,1488(a5)
    1580:	5d17aa23          	sw	a7,1492(a5)

00001584 <inst_187>:
    1584:	5d882507          	flw	fa0,1496(a6)
    1588:	5dc82587          	flw	fa1,1500(a6)
    158c:	0021d073          	fsrmi	zero,3
    1590:	08b57653          	fsub.s	fa2,fa0,fa1
    1594:	001028f3          	frflags	a7
    1598:	5cc7ac27          	fsw	fa2,1496(a5)
    159c:	5d17ae23          	sw	a7,1500(a5)

000015a0 <inst_188>:
    15a0:	5e082507          	flw	fa0,1504(a6)
    15a4:	5e482587          	flw	fa1,1508(a6)
    15a8:	00215073          	fsrmi	zero,2
    15ac:	08b57653          	fsub.s	fa2,fa0,fa1
    15b0:	001028f3          	frflags	a7
    15b4:	5ec7a027          	fsw	fa2,1504(a5)
    15b8:	5f17a223          	sw	a7,1508(a5)

000015bc <inst_189>:
    15bc:	5e882507          	flw	fa0,1512(a6)
    15c0:	5ec82587          	flw	fa1,1516(a6)
    15c4:	0020d073          	fsrmi	zero,1
    15c8:	08b57653          	fsub.s	fa2,fa0,fa1
    15cc:	001028f3          	frflags	a7
    15d0:	5ec7a427          	fsw	fa2,1512(a5)
    15d4:	5f17a623          	sw	a7,1516(a5)

000015d8 <inst_190>:
    15d8:	5f082507          	flw	fa0,1520(a6)
    15dc:	5f482587          	flw	fa1,1524(a6)
    15e0:	00205073          	fsrmi	zero,0
    15e4:	08b57653          	fsub.s	fa2,fa0,fa1
    15e8:	001028f3          	frflags	a7
    15ec:	5ec7a827          	fsw	fa2,1520(a5)
    15f0:	5f17aa23          	sw	a7,1524(a5)

000015f4 <inst_191>:
    15f4:	5f882507          	flw	fa0,1528(a6)
    15f8:	5fc82587          	flw	fa1,1532(a6)
    15fc:	00225073          	fsrmi	zero,4
    1600:	08b57653          	fsub.s	fa2,fa0,fa1
    1604:	001028f3          	frflags	a7
    1608:	5ec7ac27          	fsw	fa2,1528(a5)
    160c:	5f17ae23          	sw	a7,1532(a5)

00001610 <inst_192>:
    1610:	60082507          	flw	fa0,1536(a6)
    1614:	60482587          	flw	fa1,1540(a6)
    1618:	0021d073          	fsrmi	zero,3
    161c:	08b57653          	fsub.s	fa2,fa0,fa1
    1620:	001028f3          	frflags	a7
    1624:	60c7a027          	fsw	fa2,1536(a5)
    1628:	6117a223          	sw	a7,1540(a5)

0000162c <inst_193>:
    162c:	60882507          	flw	fa0,1544(a6)
    1630:	60c82587          	flw	fa1,1548(a6)
    1634:	00215073          	fsrmi	zero,2
    1638:	08b57653          	fsub.s	fa2,fa0,fa1
    163c:	001028f3          	frflags	a7
    1640:	60c7a427          	fsw	fa2,1544(a5)
    1644:	6117a623          	sw	a7,1548(a5)

00001648 <inst_194>:
    1648:	61082507          	flw	fa0,1552(a6)
    164c:	61482587          	flw	fa1,1556(a6)
    1650:	0020d073          	fsrmi	zero,1
    1654:	08b57653          	fsub.s	fa2,fa0,fa1
    1658:	001028f3          	frflags	a7
    165c:	60c7a827          	fsw	fa2,1552(a5)
    1660:	6117aa23          	sw	a7,1556(a5)

00001664 <inst_195>:
    1664:	61882507          	flw	fa0,1560(a6)
    1668:	61c82587          	flw	fa1,1564(a6)
    166c:	00205073          	fsrmi	zero,0
    1670:	08b57653          	fsub.s	fa2,fa0,fa1
    1674:	001028f3          	frflags	a7
    1678:	60c7ac27          	fsw	fa2,1560(a5)
    167c:	6117ae23          	sw	a7,1564(a5)

00001680 <inst_196>:
    1680:	62082507          	flw	fa0,1568(a6)
    1684:	62482587          	flw	fa1,1572(a6)
    1688:	00225073          	fsrmi	zero,4
    168c:	08b57653          	fsub.s	fa2,fa0,fa1
    1690:	001028f3          	frflags	a7
    1694:	62c7a027          	fsw	fa2,1568(a5)
    1698:	6317a223          	sw	a7,1572(a5)

0000169c <inst_197>:
    169c:	62882507          	flw	fa0,1576(a6)
    16a0:	62c82587          	flw	fa1,1580(a6)
    16a4:	0021d073          	fsrmi	zero,3
    16a8:	08b57653          	fsub.s	fa2,fa0,fa1
    16ac:	001028f3          	frflags	a7
    16b0:	62c7a427          	fsw	fa2,1576(a5)
    16b4:	6317a623          	sw	a7,1580(a5)

000016b8 <inst_198>:
    16b8:	63082507          	flw	fa0,1584(a6)
    16bc:	63482587          	flw	fa1,1588(a6)
    16c0:	00215073          	fsrmi	zero,2
    16c4:	08b57653          	fsub.s	fa2,fa0,fa1
    16c8:	001028f3          	frflags	a7
    16cc:	62c7a827          	fsw	fa2,1584(a5)
    16d0:	6317aa23          	sw	a7,1588(a5)

000016d4 <inst_199>:
    16d4:	63882507          	flw	fa0,1592(a6)
    16d8:	63c82587          	flw	fa1,1596(a6)
    16dc:	0020d073          	fsrmi	zero,1
    16e0:	08b57653          	fsub.s	fa2,fa0,fa1
    16e4:	001028f3          	frflags	a7
    16e8:	62c7ac27          	fsw	fa2,1592(a5)
    16ec:	6317ae23          	sw	a7,1596(a5)

000016f0 <inst_200>:
    16f0:	64082507          	flw	fa0,1600(a6)
    16f4:	64482587          	flw	fa1,1604(a6)
    16f8:	00205073          	fsrmi	zero,0
    16fc:	08b57653          	fsub.s	fa2,fa0,fa1
    1700:	001028f3          	frflags	a7
    1704:	64c7a027          	fsw	fa2,1600(a5)
    1708:	6517a223          	sw	a7,1604(a5)

0000170c <inst_201>:
    170c:	64882507          	flw	fa0,1608(a6)
    1710:	64c82587          	flw	fa1,1612(a6)
    1714:	00225073          	fsrmi	zero,4
    1718:	08b57653          	fsub.s	fa2,fa0,fa1
    171c:	001028f3          	frflags	a7
    1720:	64c7a427          	fsw	fa2,1608(a5)
    1724:	6517a623          	sw	a7,1612(a5)

00001728 <inst_202>:
    1728:	65082507          	flw	fa0,1616(a6)
    172c:	65482587          	flw	fa1,1620(a6)
    1730:	0021d073          	fsrmi	zero,3
    1734:	08b57653          	fsub.s	fa2,fa0,fa1
    1738:	001028f3          	frflags	a7
    173c:	64c7a827          	fsw	fa2,1616(a5)
    1740:	6517aa23          	sw	a7,1620(a5)

00001744 <inst_203>:
    1744:	65882507          	flw	fa0,1624(a6)
    1748:	65c82587          	flw	fa1,1628(a6)
    174c:	00215073          	fsrmi	zero,2
    1750:	08b57653          	fsub.s	fa2,fa0,fa1
    1754:	001028f3          	frflags	a7
    1758:	64c7ac27          	fsw	fa2,1624(a5)
    175c:	6517ae23          	sw	a7,1628(a5)

00001760 <inst_204>:
    1760:	66082507          	flw	fa0,1632(a6)
    1764:	66482587          	flw	fa1,1636(a6)
    1768:	0020d073          	fsrmi	zero,1
    176c:	08b57653          	fsub.s	fa2,fa0,fa1
    1770:	001028f3          	frflags	a7
    1774:	66c7a027          	fsw	fa2,1632(a5)
    1778:	6717a223          	sw	a7,1636(a5)

0000177c <inst_205>:
    177c:	66882507          	flw	fa0,1640(a6)
    1780:	66c82587          	flw	fa1,1644(a6)
    1784:	00205073          	fsrmi	zero,0
    1788:	08b57653          	fsub.s	fa2,fa0,fa1
    178c:	001028f3          	frflags	a7
    1790:	66c7a427          	fsw	fa2,1640(a5)
    1794:	6717a623          	sw	a7,1644(a5)

00001798 <inst_206>:
    1798:	67082507          	flw	fa0,1648(a6)
    179c:	67482587          	flw	fa1,1652(a6)
    17a0:	00225073          	fsrmi	zero,4
    17a4:	08b57653          	fsub.s	fa2,fa0,fa1
    17a8:	001028f3          	frflags	a7
    17ac:	66c7a827          	fsw	fa2,1648(a5)
    17b0:	6717aa23          	sw	a7,1652(a5)

000017b4 <inst_207>:
    17b4:	67882507          	flw	fa0,1656(a6)
    17b8:	67c82587          	flw	fa1,1660(a6)
    17bc:	0021d073          	fsrmi	zero,3
    17c0:	08b57653          	fsub.s	fa2,fa0,fa1
    17c4:	001028f3          	frflags	a7
    17c8:	66c7ac27          	fsw	fa2,1656(a5)
    17cc:	6717ae23          	sw	a7,1660(a5)

000017d0 <inst_208>:
    17d0:	68082507          	flw	fa0,1664(a6)
    17d4:	68482587          	flw	fa1,1668(a6)
    17d8:	00215073          	fsrmi	zero,2
    17dc:	08b57653          	fsub.s	fa2,fa0,fa1
    17e0:	001028f3          	frflags	a7
    17e4:	68c7a027          	fsw	fa2,1664(a5)
    17e8:	6917a223          	sw	a7,1668(a5)

000017ec <inst_209>:
    17ec:	68882507          	flw	fa0,1672(a6)
    17f0:	68c82587          	flw	fa1,1676(a6)
    17f4:	0020d073          	fsrmi	zero,1
    17f8:	08b57653          	fsub.s	fa2,fa0,fa1
    17fc:	001028f3          	frflags	a7
    1800:	68c7a427          	fsw	fa2,1672(a5)
    1804:	6917a623          	sw	a7,1676(a5)

00001808 <inst_210>:
    1808:	69082507          	flw	fa0,1680(a6)
    180c:	69482587          	flw	fa1,1684(a6)
    1810:	00205073          	fsrmi	zero,0
    1814:	08b57653          	fsub.s	fa2,fa0,fa1
    1818:	001028f3          	frflags	a7
    181c:	68c7a827          	fsw	fa2,1680(a5)
    1820:	6917aa23          	sw	a7,1684(a5)

00001824 <inst_211>:
    1824:	69882507          	flw	fa0,1688(a6)
    1828:	69c82587          	flw	fa1,1692(a6)
    182c:	00225073          	fsrmi	zero,4
    1830:	08b57653          	fsub.s	fa2,fa0,fa1
    1834:	001028f3          	frflags	a7
    1838:	68c7ac27          	fsw	fa2,1688(a5)
    183c:	6917ae23          	sw	a7,1692(a5)

00001840 <inst_212>:
    1840:	6a082507          	flw	fa0,1696(a6)
    1844:	6a482587          	flw	fa1,1700(a6)
    1848:	0021d073          	fsrmi	zero,3
    184c:	08b57653          	fsub.s	fa2,fa0,fa1
    1850:	001028f3          	frflags	a7
    1854:	6ac7a027          	fsw	fa2,1696(a5)
    1858:	6b17a223          	sw	a7,1700(a5)

0000185c <inst_213>:
    185c:	6a882507          	flw	fa0,1704(a6)
    1860:	6ac82587          	flw	fa1,1708(a6)
    1864:	00215073          	fsrmi	zero,2
    1868:	08b57653          	fsub.s	fa2,fa0,fa1
    186c:	001028f3          	frflags	a7
    1870:	6ac7a427          	fsw	fa2,1704(a5)
    1874:	6b17a623          	sw	a7,1708(a5)

00001878 <inst_214>:
    1878:	6b082507          	flw	fa0,1712(a6)
    187c:	6b482587          	flw	fa1,1716(a6)
    1880:	0020d073          	fsrmi	zero,1
    1884:	08b57653          	fsub.s	fa2,fa0,fa1
    1888:	001028f3          	frflags	a7
    188c:	6ac7a827          	fsw	fa2,1712(a5)
    1890:	6b17aa23          	sw	a7,1716(a5)

00001894 <inst_215>:
    1894:	6b882507          	flw	fa0,1720(a6)
    1898:	6bc82587          	flw	fa1,1724(a6)
    189c:	00205073          	fsrmi	zero,0
    18a0:	08b57653          	fsub.s	fa2,fa0,fa1
    18a4:	001028f3          	frflags	a7
    18a8:	6ac7ac27          	fsw	fa2,1720(a5)
    18ac:	6b17ae23          	sw	a7,1724(a5)

000018b0 <inst_216>:
    18b0:	6c082507          	flw	fa0,1728(a6)
    18b4:	6c482587          	flw	fa1,1732(a6)
    18b8:	00225073          	fsrmi	zero,4
    18bc:	08b57653          	fsub.s	fa2,fa0,fa1
    18c0:	001028f3          	frflags	a7
    18c4:	6cc7a027          	fsw	fa2,1728(a5)
    18c8:	6d17a223          	sw	a7,1732(a5)

000018cc <inst_217>:
    18cc:	6c882507          	flw	fa0,1736(a6)
    18d0:	6cc82587          	flw	fa1,1740(a6)
    18d4:	0021d073          	fsrmi	zero,3
    18d8:	08b57653          	fsub.s	fa2,fa0,fa1
    18dc:	001028f3          	frflags	a7
    18e0:	6cc7a427          	fsw	fa2,1736(a5)
    18e4:	6d17a623          	sw	a7,1740(a5)

000018e8 <inst_218>:
    18e8:	6d082507          	flw	fa0,1744(a6)
    18ec:	6d482587          	flw	fa1,1748(a6)
    18f0:	00215073          	fsrmi	zero,2
    18f4:	08b57653          	fsub.s	fa2,fa0,fa1
    18f8:	001028f3          	frflags	a7
    18fc:	6cc7a827          	fsw	fa2,1744(a5)
    1900:	6d17aa23          	sw	a7,1748(a5)

00001904 <inst_219>:
    1904:	6d882507          	flw	fa0,1752(a6)
    1908:	6dc82587          	flw	fa1,1756(a6)
    190c:	0020d073          	fsrmi	zero,1
    1910:	08b57653          	fsub.s	fa2,fa0,fa1
    1914:	001028f3          	frflags	a7
    1918:	6cc7ac27          	fsw	fa2,1752(a5)
    191c:	6d17ae23          	sw	a7,1756(a5)

00001920 <inst_220>:
    1920:	6e082507          	flw	fa0,1760(a6)
    1924:	6e482587          	flw	fa1,1764(a6)
    1928:	00205073          	fsrmi	zero,0
    192c:	08b57653          	fsub.s	fa2,fa0,fa1
    1930:	001028f3          	frflags	a7
    1934:	6ec7a027          	fsw	fa2,1760(a5)
    1938:	6f17a223          	sw	a7,1764(a5)

0000193c <inst_221>:
    193c:	6e882507          	flw	fa0,1768(a6)
    1940:	6ec82587          	flw	fa1,1772(a6)
    1944:	0020d073          	fsrmi	zero,1
    1948:	08b57653          	fsub.s	fa2,fa0,fa1
    194c:	001028f3          	frflags	a7
    1950:	6ec7a427          	fsw	fa2,1768(a5)
    1954:	6f17a623          	sw	a7,1772(a5)
    1958:	00000013          	nop
    195c:	00000013          	nop

00001960 <rvtest_code_end>:
    1960:	00001517          	auipc	a0,0x1
    1964:	da050513          	add	a0,a0,-608 # 2700 <data_begin>
    1968:	00001597          	auipc	a1,0x1
    196c:	48858593          	add	a1,a1,1160 # 2df0 <_end>
    1970:	80001637          	lui	a2,0x80001
    1974:	00860613          	add	a2,a2,8 # 80001008 <_end+0x7fffe218>

00001978 <compliance_halt_loop>:
    1978:	06b50063          	beq	a0,a1,19d8 <compliance_halt_break>
    197c:	00450693          	add	a3,a0,4

00001980 <compliance_halt_loop2>:
    1980:	fff68693          	add	a3,a3,-1
    1984:	00068703          	lb	a4,0(a3)
    1988:	40475793          	sra	a5,a4,0x4
    198c:	00f7f793          	and	a5,a5,15
    1990:	00a00813          	li	a6,10
    1994:	0107c463          	blt	a5,a6,199c <notLetter>
    1998:	02778793          	add	a5,a5,39

0000199c <notLetter>:
    199c:	03078793          	add	a5,a5,48
    19a0:	00f60023          	sb	a5,0(a2)
    19a4:	40075793          	sra	a5,a4,0x0
    19a8:	00f7f793          	and	a5,a5,15
    19ac:	00a00813          	li	a6,10
    19b0:	0107c463          	blt	a5,a6,19b8 <notLetter2>
    19b4:	02778793          	add	a5,a5,39

000019b8 <notLetter2>:
    19b8:	03078793          	add	a5,a5,48
    19bc:	00f60023          	sb	a5,0(a2)
    19c0:	fcd510e3          	bne	a0,a3,1980 <compliance_halt_loop2>
    19c4:	00450513          	add	a0,a0,4
    19c8:	00a00713          	li	a4,10
    19cc:	00e60023          	sb	a4,0(a2)
    19d0:	fa9ff06f          	j	1978 <compliance_halt_loop>
    19d4:	0040006f          	j	19d8 <compliance_halt_break>

000019d8 <compliance_halt_break>:
    19d8:	80001537          	lui	a0,0x80001
    19dc:	00950513          	add	a0,a0,9 # 80001009 <_end+0x7fffe219>
    19e0:	00d50023          	sb	a3,0(a0)
	...

Desensamblado de la sección .data:

00002000 <rvtest_data_begin>:
    2000:	cafe                	.2byte	0xcafe
    2002:	babe                	.2byte	0xbabe

00002004 <test_fp>:
    2004:	7dce622b          	.4byte	0x7dce622b
    2008:	7dce622b          	.4byte	0x7dce622b
    200c:	df89                	.2byte	0xdf89
    200e:	7edd                	.2byte	0x7edd
    2010:	df89                	.2byte	0xdf89
    2012:	7edd                	.2byte	0x7edd
    2014:	df89                	.2byte	0xdf89
    2016:	7edd                	.2byte	0x7edd
    2018:	df89                	.2byte	0xdf89
    201a:	7edd                	.2byte	0x7edd
    201c:	df89                	.2byte	0xdf89
    201e:	7edd                	.2byte	0x7edd
    2020:	df89                	.2byte	0xdf89
    2022:	7edd                	.2byte	0x7edd
    2024:	df89                	.2byte	0xdf89
    2026:	7edd                	.2byte	0x7edd
    2028:	df89                	.2byte	0xdf89
    202a:	7edd                	.2byte	0x7edd
    202c:	df89                	.2byte	0xdf89
    202e:	7edd                	.2byte	0x7edd
    2030:	df89                	.2byte	0xdf89
    2032:	7edd                	.2byte	0x7edd
    2034:	49ce                	.2byte	0x49ce
    2036:	7ec5                	.2byte	0x7ec5
    2038:	49ce                	.2byte	0x49ce
    203a:	7ec5                	.2byte	0x7ec5
    203c:	49ce                	.2byte	0x49ce
    203e:	7ec5                	.2byte	0x7ec5
    2040:	49ce                	.2byte	0x49ce
    2042:	7ec5                	.2byte	0x7ec5
    2044:	49ce                	.2byte	0x49ce
    2046:	7ec5                	.2byte	0x7ec5
    2048:	49ce                	.2byte	0x49ce
    204a:	7ec5                	.2byte	0x7ec5
    204c:	49ce                	.2byte	0x49ce
    204e:	7ec5                	.2byte	0x7ec5
    2050:	49ce                	.2byte	0x49ce
    2052:	7ec5                	.2byte	0x7ec5
    2054:	49ce                	.2byte	0x49ce
    2056:	7ec5                	.2byte	0x7ec5
    2058:	49ce                	.2byte	0x49ce
    205a:	7ec5                	.2byte	0x7ec5
    205c:	2cf6                	.2byte	0x2cf6
    205e:	7f25                	.2byte	0x7f25
    2060:	2cf6                	.2byte	0x2cf6
    2062:	7f25                	.2byte	0x7f25
    2064:	2cf6                	.2byte	0x2cf6
    2066:	7f25                	.2byte	0x7f25
    2068:	2cf6                	.2byte	0x2cf6
    206a:	7f25                	.2byte	0x7f25
    206c:	2cf6                	.2byte	0x2cf6
    206e:	7f25                	.2byte	0x7f25
    2070:	2cf6                	.2byte	0x2cf6
    2072:	7f25                	.2byte	0x7f25
    2074:	2cf6                	.2byte	0x2cf6
    2076:	7f25                	.2byte	0x7f25
    2078:	2cf6                	.2byte	0x2cf6
    207a:	7f25                	.2byte	0x7f25
    207c:	2cf6                	.2byte	0x2cf6
    207e:	7f25                	.2byte	0x7f25
    2080:	2cf6                	.2byte	0x2cf6
    2082:	7f25                	.2byte	0x7f25
    2084:	f0c0                	.2byte	0xf0c0
    2086:	f0c07f13          	and	t5,zero,-244
    208a:	f0c07f13          	and	t5,zero,-244
    208e:	f0c07f13          	and	t5,zero,-244
    2092:	f0c07f13          	and	t5,zero,-244
    2096:	f0c07f13          	and	t5,zero,-244
    209a:	f0c07f13          	and	t5,zero,-244
    209e:	f0c07f13          	and	t5,zero,-244
    20a2:	f0c07f13          	and	t5,zero,-244
    20a6:	f0c07f13          	and	t5,zero,-244
    20aa:	dc0e7f13          	and	t5,t3,-576
    20ae:	7ec0                	.2byte	0x7ec0
    20b0:	dc0e                	.2byte	0xdc0e
    20b2:	7ec0                	.2byte	0x7ec0
    20b4:	dc0e                	.2byte	0xdc0e
    20b6:	7ec0                	.2byte	0x7ec0
    20b8:	dc0e                	.2byte	0xdc0e
    20ba:	7ec0                	.2byte	0x7ec0
    20bc:	dc0e                	.2byte	0xdc0e
    20be:	7ec0                	.2byte	0x7ec0
    20c0:	dc0e                	.2byte	0xdc0e
    20c2:	7ec0                	.2byte	0x7ec0
    20c4:	dc0e                	.2byte	0xdc0e
    20c6:	7ec0                	.2byte	0x7ec0
    20c8:	dc0e                	.2byte	0xdc0e
    20ca:	7ec0                	.2byte	0x7ec0
    20cc:	dc0e                	.2byte	0xdc0e
    20ce:	7ec0                	.2byte	0x7ec0
    20d0:	dc0e                	.2byte	0xdc0e
    20d2:	7ec0                	.2byte	0x7ec0
    20d4:	246c                	.2byte	0x246c
    20d6:	246c7e97          	auipc	t4,0x246c7
    20da:	246c7e97          	auipc	t4,0x246c7
    20de:	246c7e97          	auipc	t4,0x246c7
    20e2:	246c7e97          	auipc	t4,0x246c7
    20e6:	246c7e97          	auipc	t4,0x246c7
    20ea:	246c7e97          	auipc	t4,0x246c7
    20ee:	246c7e97          	auipc	t4,0x246c7
    20f2:	246c7e97          	auipc	t4,0x246c7
    20f6:	246c7e97          	auipc	t4,0x246c7
    20fa:	c5a47e97          	auipc	t4,0xc5a47
    20fe:	7f3c                	.2byte	0x7f3c
    2100:	c5a4                	.2byte	0xc5a4
    2102:	7f3c                	.2byte	0x7f3c
    2104:	c5a4                	.2byte	0xc5a4
    2106:	7f3c                	.2byte	0x7f3c
    2108:	c5a4                	.2byte	0xc5a4
    210a:	7f3c                	.2byte	0x7f3c
    210c:	c5a4                	.2byte	0xc5a4
    210e:	7f3c                	.2byte	0x7f3c
    2110:	c5a4                	.2byte	0xc5a4
    2112:	7f3c                	.2byte	0x7f3c
    2114:	c5a4                	.2byte	0xc5a4
    2116:	7f3c                	.2byte	0x7f3c
    2118:	c5a4                	.2byte	0xc5a4
    211a:	7f3c                	.2byte	0x7f3c
    211c:	c5a4                	.2byte	0xc5a4
    211e:	7f3c                	.2byte	0x7f3c
    2120:	c5a4                	.2byte	0xc5a4
    2122:	7f3c                	.2byte	0x7f3c
    2124:	7d0597cb          	.4byte	0x7d0597cb
    2128:	7d0597cb          	.4byte	0x7d0597cb
    212c:	7d0597cb          	.4byte	0x7d0597cb
    2130:	7d0597cb          	.4byte	0x7d0597cb
    2134:	7d0597cb          	.4byte	0x7d0597cb
    2138:	7d0597cb          	.4byte	0x7d0597cb
    213c:	7d0597cb          	.4byte	0x7d0597cb
    2140:	7d0597cb          	.4byte	0x7d0597cb
    2144:	7d0597cb          	.4byte	0x7d0597cb
    2148:	7d0597cb          	.4byte	0x7d0597cb
    214c:	0ad4                	.2byte	0xad4
    214e:	7ebc                	.2byte	0x7ebc
    2150:	0ad4                	.2byte	0xad4
    2152:	7ebc                	.2byte	0x7ebc
    2154:	0ad4                	.2byte	0xad4
    2156:	7ebc                	.2byte	0x7ebc
    2158:	0ad4                	.2byte	0xad4
    215a:	7ebc                	.2byte	0x7ebc
    215c:	0ad4                	.2byte	0xad4
    215e:	7ebc                	.2byte	0x7ebc
    2160:	0ad4                	.2byte	0xad4
    2162:	7ebc                	.2byte	0x7ebc
    2164:	0ad4                	.2byte	0xad4
    2166:	7ebc                	.2byte	0x7ebc
    2168:	0ad4                	.2byte	0xad4
    216a:	7ebc                	.2byte	0x7ebc
    216c:	0ad4                	.2byte	0xad4
    216e:	7ebc                	.2byte	0x7ebc
    2170:	0ad4                	.2byte	0xad4
    2172:	7ebc                	.2byte	0x7ebc
    2174:	0a54                	.2byte	0xa54
    2176:	7ec8                	.2byte	0x7ec8
    2178:	0a54                	.2byte	0xa54
    217a:	7ec8                	.2byte	0x7ec8
    217c:	0a54                	.2byte	0xa54
    217e:	7ec8                	.2byte	0x7ec8
    2180:	0a54                	.2byte	0xa54
    2182:	7ec8                	.2byte	0x7ec8
    2184:	0a54                	.2byte	0xa54
    2186:	7ec8                	.2byte	0x7ec8
    2188:	0a54                	.2byte	0xa54
    218a:	7ec8                	.2byte	0x7ec8
    218c:	0a54                	.2byte	0xa54
    218e:	7ec8                	.2byte	0x7ec8
    2190:	0a54                	.2byte	0xa54
    2192:	7ec8                	.2byte	0x7ec8
    2194:	0a54                	.2byte	0xa54
    2196:	7ec8                	.2byte	0x7ec8
    2198:	0a54                	.2byte	0xa54
    219a:	7ec8                	.2byte	0x7ec8
    219c:	7ec33c5b          	.4byte	0x7ec33c5b
    21a0:	7ec33c5b          	.4byte	0x7ec33c5b
    21a4:	7ec33c5b          	.4byte	0x7ec33c5b
    21a8:	7ec33c5b          	.4byte	0x7ec33c5b
    21ac:	7ec33c5b          	.4byte	0x7ec33c5b
    21b0:	7ec33c5b          	.4byte	0x7ec33c5b
    21b4:	7ec33c5b          	.4byte	0x7ec33c5b
    21b8:	7ec33c5b          	.4byte	0x7ec33c5b
    21bc:	7ec33c5b          	.4byte	0x7ec33c5b
    21c0:	7ec33c5b          	.4byte	0x7ec33c5b
    21c4:	e2cd                	.2byte	0xe2cd
    21c6:	e2cd7e8f          	.4byte	0xe2cd7e8f
    21ca:	e2cd7e8f          	.4byte	0xe2cd7e8f
    21ce:	e2cd7e8f          	.4byte	0xe2cd7e8f
    21d2:	e2cd7e8f          	.4byte	0xe2cd7e8f
    21d6:	e2cd7e8f          	.4byte	0xe2cd7e8f
    21da:	e2cd7e8f          	.4byte	0xe2cd7e8f
    21de:	e2cd7e8f          	.4byte	0xe2cd7e8f
    21e2:	e2cd7e8f          	.4byte	0xe2cd7e8f
    21e6:	e2cd7e8f          	.4byte	0xe2cd7e8f
    21ea:	fbdb7e8f          	.4byte	0xfbdb7e8f
    21ee:	7f06                	.2byte	0x7f06
    21f0:	7f06fbdb          	.4byte	0x7f06fbdb
    21f4:	7f06fbdb          	.4byte	0x7f06fbdb
    21f8:	7f06fbdb          	.4byte	0x7f06fbdb
    21fc:	7f06fbdb          	.4byte	0x7f06fbdb
    2200:	7f06fbdb          	.4byte	0x7f06fbdb
    2204:	7f06fbdb          	.4byte	0x7f06fbdb
    2208:	7f06fbdb          	.4byte	0x7f06fbdb
    220c:	7f06fbdb          	.4byte	0x7f06fbdb
    2210:	7f06fbdb          	.4byte	0x7f06fbdb
    2214:	7e04dea3          	.4byte	0x7e04dea3
    2218:	7e04dea3          	.4byte	0x7e04dea3
    221c:	7e04dea3          	.4byte	0x7e04dea3
    2220:	7e04dea3          	.4byte	0x7e04dea3
    2224:	7e04dea3          	.4byte	0x7e04dea3
    2228:	7e04dea3          	.4byte	0x7e04dea3
    222c:	7e04dea3          	.4byte	0x7e04dea3
    2230:	7e04dea3          	.4byte	0x7e04dea3
    2234:	7e04dea3          	.4byte	0x7e04dea3
    2238:	7e04dea3          	.4byte	0x7e04dea3
    223c:	7f191a03          	lh	s4,2033(s2)
    2240:	7f191a03          	lh	s4,2033(s2)
    2244:	7f191a03          	lh	s4,2033(s2)
    2248:	7f191a03          	lh	s4,2033(s2)
    224c:	7f191a03          	lh	s4,2033(s2)
    2250:	7f191a03          	lh	s4,2033(s2)
    2254:	7f191a03          	lh	s4,2033(s2)
    2258:	7f191a03          	lh	s4,2033(s2)
    225c:	7f191a03          	lh	s4,2033(s2)
    2260:	7f191a03          	lh	s4,2033(s2)
    2264:	206e                	.2byte	0x206e
    2266:	7cd4                	.2byte	0x7cd4
    2268:	206e                	.2byte	0x206e
    226a:	7cd4                	.2byte	0x7cd4
    226c:	206e                	.2byte	0x206e
    226e:	7cd4                	.2byte	0x7cd4
    2270:	206e                	.2byte	0x206e
    2272:	7cd4                	.2byte	0x7cd4
    2274:	206e                	.2byte	0x206e
    2276:	7cd4                	.2byte	0x7cd4
    2278:	206e                	.2byte	0x206e
    227a:	7cd4                	.2byte	0x7cd4
    227c:	206e                	.2byte	0x206e
    227e:	7cd4                	.2byte	0x7cd4
    2280:	206e                	.2byte	0x206e
    2282:	7cd4                	.2byte	0x7cd4
    2284:	206e                	.2byte	0x206e
    2286:	7cd4                	.2byte	0x7cd4
    2288:	206e                	.2byte	0x206e
    228a:	7cd4                	.2byte	0x7cd4
    228c:	7ec2076b          	.4byte	0x7ec2076b
    2290:	7ec2076b          	.4byte	0x7ec2076b
    2294:	7ec2076b          	.4byte	0x7ec2076b
    2298:	7ec2076b          	.4byte	0x7ec2076b
    229c:	7ec2076b          	.4byte	0x7ec2076b
    22a0:	7ec2076b          	.4byte	0x7ec2076b
    22a4:	7ec2076b          	.4byte	0x7ec2076b
    22a8:	7ec2076b          	.4byte	0x7ec2076b
    22ac:	7ec2076b          	.4byte	0x7ec2076b
    22b0:	7ec2076b          	.4byte	0x7ec2076b
    22b4:	7f296f9b          	.4byte	0x7f296f9b
    22b8:	7f296f9b          	.4byte	0x7f296f9b
    22bc:	7f296f9b          	.4byte	0x7f296f9b
    22c0:	7f296f9b          	.4byte	0x7f296f9b
    22c4:	7f296f9b          	.4byte	0x7f296f9b
    22c8:	7f296f9b          	.4byte	0x7f296f9b
    22cc:	7f296f9b          	.4byte	0x7f296f9b
    22d0:	7f296f9b          	.4byte	0x7f296f9b
    22d4:	7f296f9b          	.4byte	0x7f296f9b
    22d8:	7f296f9b          	.4byte	0x7f296f9b
    22dc:	fcac                	.2byte	0xfcac
    22de:	7e68                	.2byte	0x7e68
    22e0:	fcac                	.2byte	0xfcac
    22e2:	7e68                	.2byte	0x7e68
    22e4:	fcac                	.2byte	0xfcac
    22e6:	7e68                	.2byte	0x7e68
    22e8:	fcac                	.2byte	0xfcac
    22ea:	7e68                	.2byte	0x7e68
    22ec:	fcac                	.2byte	0xfcac
    22ee:	7e68                	.2byte	0x7e68
    22f0:	fcac                	.2byte	0xfcac
    22f2:	7e68                	.2byte	0x7e68
    22f4:	fcac                	.2byte	0xfcac
    22f6:	7e68                	.2byte	0x7e68
    22f8:	fcac                	.2byte	0xfcac
    22fa:	7e68                	.2byte	0x7e68
    22fc:	fcac                	.2byte	0xfcac
    22fe:	7e68                	.2byte	0x7e68
    2300:	fcac                	.2byte	0xfcac
    2302:	7e68                	.2byte	0x7e68
    2304:	5de9                	.2byte	0x5de9
    2306:	7f1f 5de9 7f1f      	.byte	0x1f, 0x7f, 0xe9, 0x5d, 0x1f, 0x7f
    230c:	5de9                	.2byte	0x5de9
    230e:	7f1f 5de9 7f1f      	.byte	0x1f, 0x7f, 0xe9, 0x5d, 0x1f, 0x7f
    2314:	5de9                	.2byte	0x5de9
    2316:	7f1f 5de9 7f1f      	.byte	0x1f, 0x7f, 0xe9, 0x5d, 0x1f, 0x7f
    231c:	5de9                	.2byte	0x5de9
    231e:	7f1f 5de9 7f1f      	.byte	0x1f, 0x7f, 0xe9, 0x5d, 0x1f, 0x7f
    2324:	5de9                	.2byte	0x5de9
    2326:	7f1f 5de9 7f1f      	.byte	0x1f, 0x7f, 0xe9, 0x5d, 0x1f, 0x7f
    232c:	cbed                	.2byte	0xcbed
    232e:	cbed7f33          	.4byte	0xcbed7f33
    2332:	cbed7f33          	.4byte	0xcbed7f33
    2336:	cbed7f33          	.4byte	0xcbed7f33
    233a:	cbed7f33          	.4byte	0xcbed7f33
    233e:	cbed7f33          	.4byte	0xcbed7f33
    2342:	cbed7f33          	.4byte	0xcbed7f33
    2346:	cbed7f33          	.4byte	0xcbed7f33
    234a:	cbed7f33          	.4byte	0xcbed7f33
    234e:	cbed7f33          	.4byte	0xcbed7f33
    2352:	86667f33          	.4byte	0x86667f33
    2356:	7f0a                	.2byte	0x7f0a
    2358:	8666                	.2byte	0x8666
    235a:	7f0a                	.2byte	0x7f0a
    235c:	8666                	.2byte	0x8666
    235e:	7f0a                	.2byte	0x7f0a
    2360:	8666                	.2byte	0x8666
    2362:	7f0a                	.2byte	0x7f0a
    2364:	8666                	.2byte	0x8666
    2366:	7f0a                	.2byte	0x7f0a
    2368:	8666                	.2byte	0x8666
    236a:	7f0a                	.2byte	0x7f0a
    236c:	8666                	.2byte	0x8666
    236e:	7f0a                	.2byte	0x7f0a
    2370:	8666                	.2byte	0x8666
    2372:	7f0a                	.2byte	0x7f0a
    2374:	8666                	.2byte	0x8666
    2376:	7f0a                	.2byte	0x7f0a
    2378:	8666                	.2byte	0x8666
    237a:	7f0a                	.2byte	0x7f0a
    237c:	afdd                	.2byte	0xafdd
    237e:	7db9                	.2byte	0x7db9
    2380:	afdd                	.2byte	0xafdd
    2382:	7db9                	.2byte	0x7db9
    2384:	afdd                	.2byte	0xafdd
    2386:	7db9                	.2byte	0x7db9
    2388:	afdd                	.2byte	0xafdd
    238a:	7db9                	.2byte	0x7db9
    238c:	afdd                	.2byte	0xafdd
    238e:	7db9                	.2byte	0x7db9
    2390:	afdd                	.2byte	0xafdd
    2392:	7db9                	.2byte	0x7db9
    2394:	afdd                	.2byte	0xafdd
    2396:	7db9                	.2byte	0x7db9
    2398:	afdd                	.2byte	0xafdd
    239a:	7db9                	.2byte	0x7db9
    239c:	afdd                	.2byte	0xafdd
    239e:	7db9                	.2byte	0x7db9
    23a0:	afdd                	.2byte	0xafdd
    23a2:	7db9                	.2byte	0x7db9
    23a4:	917d                	.2byte	0x917d
    23a6:	7f3e                	.2byte	0x7f3e
    23a8:	917d                	.2byte	0x917d
    23aa:	7f3e                	.2byte	0x7f3e
    23ac:	917d                	.2byte	0x917d
    23ae:	7f3e                	.2byte	0x7f3e
    23b0:	917d                	.2byte	0x917d
    23b2:	7f3e                	.2byte	0x7f3e
    23b4:	917d                	.2byte	0x917d
    23b6:	7f3e                	.2byte	0x7f3e
    23b8:	917d                	.2byte	0x917d
    23ba:	7f3e                	.2byte	0x7f3e
    23bc:	917d                	.2byte	0x917d
    23be:	7f3e                	.2byte	0x7f3e
    23c0:	917d                	.2byte	0x917d
    23c2:	7f3e                	.2byte	0x7f3e
    23c4:	917d                	.2byte	0x917d
    23c6:	7f3e                	.2byte	0x7f3e
    23c8:	917d                	.2byte	0x917d
    23ca:	7f3e                	.2byte	0x7f3e
    23cc:	a41a                	.2byte	0xa41a
    23ce:	7ef6                	.2byte	0x7ef6
    23d0:	a41a                	.2byte	0xa41a
    23d2:	7ef6                	.2byte	0x7ef6
    23d4:	a41a                	.2byte	0xa41a
    23d6:	7ef6                	.2byte	0x7ef6
    23d8:	a41a                	.2byte	0xa41a
    23da:	7ef6                	.2byte	0x7ef6
    23dc:	a41a                	.2byte	0xa41a
    23de:	7ef6                	.2byte	0x7ef6
    23e0:	a41a                	.2byte	0xa41a
    23e2:	7ef6                	.2byte	0x7ef6
    23e4:	a41a                	.2byte	0xa41a
    23e6:	7ef6                	.2byte	0x7ef6
    23e8:	a41a                	.2byte	0xa41a
    23ea:	7ef6                	.2byte	0x7ef6
    23ec:	a41a                	.2byte	0xa41a
    23ee:	7ef6                	.2byte	0x7ef6
    23f0:	a41a                	.2byte	0xa41a
    23f2:	7ef6                	.2byte	0x7ef6
    23f4:	d0a1                	.2byte	0xd0a1
    23f6:	7f20                	.2byte	0x7f20
    23f8:	d0a1                	.2byte	0xd0a1
    23fa:	7f20                	.2byte	0x7f20
    23fc:	d0a1                	.2byte	0xd0a1
    23fe:	7f20                	.2byte	0x7f20
    2400:	d0a1                	.2byte	0xd0a1
    2402:	7f20                	.2byte	0x7f20
    2404:	d0a1                	.2byte	0xd0a1
    2406:	7f20                	.2byte	0x7f20
    2408:	d0a1                	.2byte	0xd0a1
    240a:	7f20                	.2byte	0x7f20
    240c:	d0a1                	.2byte	0xd0a1
    240e:	7f20                	.2byte	0x7f20
    2410:	d0a1                	.2byte	0xd0a1
    2412:	7f20                	.2byte	0x7f20
    2414:	d0a1                	.2byte	0xd0a1
    2416:	7f20                	.2byte	0x7f20
    2418:	d0a1                	.2byte	0xd0a1
    241a:	7f20                	.2byte	0x7f20
    241c:	8d61                	.2byte	0x8d61
    241e:	7e5e                	.2byte	0x7e5e
    2420:	8d61                	.2byte	0x8d61
    2422:	7e5e                	.2byte	0x7e5e
    2424:	8d61                	.2byte	0x8d61
    2426:	7e5e                	.2byte	0x7e5e
    2428:	8d61                	.2byte	0x8d61
    242a:	7e5e                	.2byte	0x7e5e
    242c:	8d61                	.2byte	0x8d61
    242e:	7e5e                	.2byte	0x7e5e
    2430:	8d61                	.2byte	0x8d61
    2432:	7e5e                	.2byte	0x7e5e
    2434:	8d61                	.2byte	0x8d61
    2436:	7e5e                	.2byte	0x7e5e
    2438:	8d61                	.2byte	0x8d61
    243a:	7e5e                	.2byte	0x7e5e
    243c:	8d61                	.2byte	0x8d61
    243e:	7e5e                	.2byte	0x7e5e
    2440:	8d61                	.2byte	0x8d61
    2442:	7e5e                	.2byte	0x7e5e
    2444:	0619                	.2byte	0x619
    2446:	7e28                	.2byte	0x7e28
    2448:	0619                	.2byte	0x619
    244a:	7e28                	.2byte	0x7e28
    244c:	0619                	.2byte	0x619
    244e:	7e28                	.2byte	0x7e28
    2450:	0619                	.2byte	0x619
    2452:	7e28                	.2byte	0x7e28
    2454:	0619                	.2byte	0x619
    2456:	7e28                	.2byte	0x7e28
    2458:	0619                	.2byte	0x619
    245a:	7e28                	.2byte	0x7e28
    245c:	0619                	.2byte	0x619
    245e:	7e28                	.2byte	0x7e28
    2460:	0619                	.2byte	0x619
    2462:	7e28                	.2byte	0x7e28
    2464:	0619                	.2byte	0x619
    2466:	7e28                	.2byte	0x7e28
    2468:	0619                	.2byte	0x619
    246a:	7e28                	.2byte	0x7e28
    246c:	0244                	.2byte	0x244
    246e:	02447e33          	.4byte	0x2447e33
    2472:	02447e33          	.4byte	0x2447e33
    2476:	02447e33          	.4byte	0x2447e33
    247a:	02447e33          	.4byte	0x2447e33
    247e:	02447e33          	.4byte	0x2447e33
    2482:	02447e33          	.4byte	0x2447e33
    2486:	02447e33          	.4byte	0x2447e33
    248a:	02447e33          	.4byte	0x2447e33
    248e:	02447e33          	.4byte	0x2447e33
    2492:	26197e33          	.4byte	0x26197e33
    2496:	7ea8                	.2byte	0x7ea8
    2498:	2619                	.2byte	0x2619
    249a:	7ea8                	.2byte	0x7ea8
    249c:	2619                	.2byte	0x2619
    249e:	7ea8                	.2byte	0x7ea8
    24a0:	2619                	.2byte	0x2619
    24a2:	7ea8                	.2byte	0x7ea8
    24a4:	2619                	.2byte	0x2619
    24a6:	7ea8                	.2byte	0x7ea8
    24a8:	2619                	.2byte	0x2619
    24aa:	7ea8                	.2byte	0x7ea8
    24ac:	2619                	.2byte	0x2619
    24ae:	7ea8                	.2byte	0x7ea8
    24b0:	2619                	.2byte	0x2619
    24b2:	7ea8                	.2byte	0x7ea8
    24b4:	2619                	.2byte	0x2619
    24b6:	7ea8                	.2byte	0x7ea8
    24b8:	2619                	.2byte	0x2619
    24ba:	7ea8                	.2byte	0x7ea8
    24bc:	6d35                	.2byte	0x6d35
    24be:	7cb2                	.2byte	0x7cb2
    24c0:	6d35                	.2byte	0x6d35
    24c2:	7cb2                	.2byte	0x7cb2
    24c4:	6d35                	.2byte	0x6d35
    24c6:	7cb2                	.2byte	0x7cb2
    24c8:	6d35                	.2byte	0x6d35
    24ca:	7cb2                	.2byte	0x7cb2
    24cc:	6d35                	.2byte	0x6d35
    24ce:	7cb2                	.2byte	0x7cb2
    24d0:	6d35                	.2byte	0x6d35
    24d2:	7cb2                	.2byte	0x7cb2
    24d4:	6d35                	.2byte	0x6d35
    24d6:	7cb2                	.2byte	0x7cb2
    24d8:	6d35                	.2byte	0x6d35
    24da:	7cb2                	.2byte	0x7cb2
    24dc:	6d35                	.2byte	0x6d35
    24de:	7cb2                	.2byte	0x7cb2
    24e0:	6d35                	.2byte	0x6d35
    24e2:	7cb2                	.2byte	0x7cb2
    24e4:	592c                	.2byte	0x592c
    24e6:	7e26                	.2byte	0x7e26
    24e8:	592c                	.2byte	0x592c
    24ea:	7e26                	.2byte	0x7e26
    24ec:	592c                	.2byte	0x592c
    24ee:	7e26                	.2byte	0x7e26
    24f0:	592c                	.2byte	0x592c
    24f2:	7e26                	.2byte	0x7e26
    24f4:	592c                	.2byte	0x592c
    24f6:	7e26                	.2byte	0x7e26
    24f8:	592c                	.2byte	0x592c
    24fa:	7e26                	.2byte	0x7e26
    24fc:	592c                	.2byte	0x592c
    24fe:	7e26                	.2byte	0x7e26
    2500:	592c                	.2byte	0x592c
    2502:	7e26                	.2byte	0x7e26
    2504:	592c                	.2byte	0x592c
    2506:	7e26                	.2byte	0x7e26
    2508:	592c                	.2byte	0x592c
    250a:	7e26                	.2byte	0x7e26
    250c:	510e                	.2byte	0x510e
    250e:	7f34                	.2byte	0x7f34
    2510:	510e                	.2byte	0x510e
    2512:	7f34                	.2byte	0x7f34
    2514:	510e                	.2byte	0x510e
    2516:	7f34                	.2byte	0x7f34
    2518:	510e                	.2byte	0x510e
    251a:	7f34                	.2byte	0x7f34
    251c:	510e                	.2byte	0x510e
    251e:	7f34                	.2byte	0x7f34
    2520:	510e                	.2byte	0x510e
    2522:	7f34                	.2byte	0x7f34
    2524:	510e                	.2byte	0x510e
    2526:	7f34                	.2byte	0x7f34
    2528:	510e                	.2byte	0x510e
    252a:	7f34                	.2byte	0x7f34
    252c:	510e                	.2byte	0x510e
    252e:	7f34                	.2byte	0x7f34
    2530:	510e                	.2byte	0x510e
    2532:	7f34                	.2byte	0x7f34
    2534:	56e0                	.2byte	0x56e0
    2536:	7c9c                	.2byte	0x7c9c
    2538:	56e0                	.2byte	0x56e0
    253a:	7c9c                	.2byte	0x7c9c
    253c:	56e0                	.2byte	0x56e0
    253e:	7c9c                	.2byte	0x7c9c
    2540:	56e0                	.2byte	0x56e0
    2542:	7c9c                	.2byte	0x7c9c
    2544:	56e0                	.2byte	0x56e0
    2546:	7c9c                	.2byte	0x7c9c
    2548:	56e0                	.2byte	0x56e0
    254a:	7c9c                	.2byte	0x7c9c
    254c:	56e0                	.2byte	0x56e0
    254e:	7c9c                	.2byte	0x7c9c
    2550:	56e0                	.2byte	0x56e0
    2552:	7c9c                	.2byte	0x7c9c
    2554:	56e0                	.2byte	0x56e0
    2556:	7c9c                	.2byte	0x7c9c
    2558:	56e0                	.2byte	0x56e0
    255a:	7c9c                	.2byte	0x7c9c
    255c:	12f5                	.2byte	0x12f5
    255e:	7f2d                	.2byte	0x7f2d
    2560:	12f5                	.2byte	0x12f5
    2562:	7f2d                	.2byte	0x7f2d
    2564:	12f5                	.2byte	0x12f5
    2566:	7f2d                	.2byte	0x7f2d
    2568:	12f5                	.2byte	0x12f5
    256a:	7f2d                	.2byte	0x7f2d
    256c:	12f5                	.2byte	0x12f5
    256e:	7f2d                	.2byte	0x7f2d
    2570:	12f5                	.2byte	0x12f5
    2572:	7f2d                	.2byte	0x7f2d
    2574:	12f5                	.2byte	0x12f5
    2576:	7f2d                	.2byte	0x7f2d
    2578:	12f5                	.2byte	0x12f5
    257a:	7f2d                	.2byte	0x7f2d
    257c:	12f5                	.2byte	0x12f5
    257e:	7f2d                	.2byte	0x7f2d
    2580:	12f5                	.2byte	0x12f5
    2582:	7f2d                	.2byte	0x7f2d
    2584:	7e2fb07b          	.4byte	0x7e2fb07b
    2588:	7e2fb07b          	.4byte	0x7e2fb07b
    258c:	7e2fb07b          	.4byte	0x7e2fb07b
    2590:	7e2fb07b          	.4byte	0x7e2fb07b
    2594:	7e2fb07b          	.4byte	0x7e2fb07b
    2598:	7e2fb07b          	.4byte	0x7e2fb07b
    259c:	7e2fb07b          	.4byte	0x7e2fb07b
    25a0:	7e2fb07b          	.4byte	0x7e2fb07b
    25a4:	7e2fb07b          	.4byte	0x7e2fb07b
    25a8:	7e2fb07b          	.4byte	0x7e2fb07b
    25ac:	7eab0757          	.4byte	0x7eab0757
    25b0:	7eab0757          	.4byte	0x7eab0757
    25b4:	7eab0757          	.4byte	0x7eab0757
    25b8:	7eab0757          	.4byte	0x7eab0757
    25bc:	7eab0757          	.4byte	0x7eab0757
    25c0:	7eab0757          	.4byte	0x7eab0757
    25c4:	7eab0757          	.4byte	0x7eab0757
    25c8:	7eab0757          	.4byte	0x7eab0757
    25cc:	7eab0757          	.4byte	0x7eab0757
    25d0:	7eab0757          	.4byte	0x7eab0757
    25d4:	5b96                	.2byte	0x5b96
    25d6:	7f12                	.2byte	0x7f12
    25d8:	5b96                	.2byte	0x5b96
    25da:	7f12                	.2byte	0x7f12
    25dc:	5b96                	.2byte	0x5b96
    25de:	7f12                	.2byte	0x7f12
    25e0:	5b96                	.2byte	0x5b96
    25e2:	7f12                	.2byte	0x7f12
    25e4:	5b96                	.2byte	0x5b96
    25e6:	7f12                	.2byte	0x7f12
    25e8:	5b96                	.2byte	0x5b96
    25ea:	7f12                	.2byte	0x7f12
    25ec:	5b96                	.2byte	0x5b96
    25ee:	7f12                	.2byte	0x7f12
    25f0:	5b96                	.2byte	0x5b96
    25f2:	7f12                	.2byte	0x7f12
    25f4:	5b96                	.2byte	0x5b96
    25f6:	7f12                	.2byte	0x7f12
    25f8:	5b96                	.2byte	0x5b96
    25fa:	7f12                	.2byte	0x7f12
    25fc:	7786                	.2byte	0x7786
    25fe:	7f20                	.2byte	0x7f20
    2600:	7786                	.2byte	0x7786
    2602:	7f20                	.2byte	0x7f20
    2604:	7786                	.2byte	0x7786
    2606:	7f20                	.2byte	0x7f20
    2608:	7786                	.2byte	0x7786
    260a:	7f20                	.2byte	0x7f20
    260c:	7786                	.2byte	0x7786
    260e:	7f20                	.2byte	0x7f20
    2610:	7786                	.2byte	0x7786
    2612:	7f20                	.2byte	0x7f20
    2614:	7786                	.2byte	0x7786
    2616:	7f20                	.2byte	0x7f20
    2618:	7786                	.2byte	0x7786
    261a:	7f20                	.2byte	0x7f20
    261c:	7786                	.2byte	0x7786
    261e:	7f20                	.2byte	0x7f20
    2620:	7786                	.2byte	0x7786
    2622:	7f20                	.2byte	0x7f20
    2624:	2b16                	.2byte	0x2b16
    2626:	7d90                	.2byte	0x7d90
    2628:	2b16                	.2byte	0x2b16
    262a:	7d90                	.2byte	0x7d90
    262c:	2b16                	.2byte	0x2b16
    262e:	7d90                	.2byte	0x7d90
    2630:	2b16                	.2byte	0x2b16
    2632:	7d90                	.2byte	0x7d90
    2634:	2b16                	.2byte	0x2b16
    2636:	7d90                	.2byte	0x7d90
    2638:	2b16                	.2byte	0x2b16
    263a:	7d90                	.2byte	0x7d90
    263c:	2b16                	.2byte	0x2b16
    263e:	7d90                	.2byte	0x7d90
    2640:	2b16                	.2byte	0x2b16
    2642:	7d90                	.2byte	0x7d90
    2644:	2b16                	.2byte	0x2b16
    2646:	7d90                	.2byte	0x7d90
    2648:	2b16                	.2byte	0x2b16
    264a:	7d90                	.2byte	0x7d90
    264c:	3631                	.2byte	0x3631
    264e:	7efa                	.2byte	0x7efa
    2650:	3631                	.2byte	0x3631
    2652:	7efa                	.2byte	0x7efa
    2654:	3631                	.2byte	0x3631
    2656:	7efa                	.2byte	0x7efa
    2658:	3631                	.2byte	0x3631
    265a:	7efa                	.2byte	0x7efa
    265c:	3631                	.2byte	0x3631
    265e:	7efa                	.2byte	0x7efa
    2660:	3631                	.2byte	0x3631
    2662:	7efa                	.2byte	0x7efa
    2664:	3631                	.2byte	0x3631
    2666:	7efa                	.2byte	0x7efa
    2668:	3631                	.2byte	0x3631
    266a:	7efa                	.2byte	0x7efa
    266c:	3631                	.2byte	0x3631
    266e:	7efa                	.2byte	0x7efa
    2670:	3631                	.2byte	0x3631
    2672:	7efa                	.2byte	0x7efa
    2674:	7ebe3f3f 7ebe3f3f 	.8byte	0x7ebe3f3f7ebe3f3f
    267c:	7ebe3f3f 7ebe3f3f 	.8byte	0x7ebe3f3f7ebe3f3f
    2684:	7ebe3f3f 7ebe3f3f 	.8byte	0x7ebe3f3f7ebe3f3f
    268c:	7ebe3f3f 7ebe3f3f 	.8byte	0x7ebe3f3f7ebe3f3f
    2694:	7ebe3f3f 7ebe3f3f 	.8byte	0x7ebe3f3f7ebe3f3f
    269c:	a50c                	.2byte	0xa50c
    269e:	7f12                	.2byte	0x7f12
    26a0:	a50c                	.2byte	0xa50c
    26a2:	7f12                	.2byte	0x7f12
    26a4:	a50c                	.2byte	0xa50c
    26a6:	7f12                	.2byte	0x7f12
    26a8:	a50c                	.2byte	0xa50c
    26aa:	7f12                	.2byte	0x7f12
    26ac:	a50c                	.2byte	0xa50c
    26ae:	7f12                	.2byte	0x7f12
    26b0:	a50c                	.2byte	0xa50c
    26b2:	7f12                	.2byte	0x7f12
    26b4:	a50c                	.2byte	0xa50c
    26b6:	7f12                	.2byte	0x7f12
    26b8:	a50c                	.2byte	0xa50c
    26ba:	7f12                	.2byte	0x7f12
    26bc:	a50c                	.2byte	0xa50c
    26be:	7f12                	.2byte	0x7f12
    26c0:	a50c                	.2byte	0xa50c
    26c2:	7f12                	.2byte	0x7f12
    26c4:	7dce622b          	.4byte	0x7dce622b
    26c8:	7dce622b          	.4byte	0x7dce622b
    26cc:	7dce622b          	.4byte	0x7dce622b
    26d0:	7dce622b          	.4byte	0x7dce622b
    26d4:	7dce622b          	.4byte	0x7dce622b
    26d8:	7dce622b          	.4byte	0x7dce622b
    26dc:	7dce622b          	.4byte	0x7dce622b
    26e0:	7dce622b          	.4byte	0x7dce622b
    26e4:	7dce622b          	.4byte	0x7dce622b
    26e8:	7dce622b          	.4byte	0x7dce622b
    26ec:	df89                	.2byte	0xdf89
    26ee:	7edd                	.2byte	0x7edd
    26f0:	df89                	.2byte	0xdf89
    26f2:	7edd                	.2byte	0x7edd

000026f4 <rvtest_data_end>:
	...

00002700 <data_begin>:
    2700:	deadbeef          	jal	t4,fffddcea <_end+0xfffdaefa>
    2704:	deadbeef          	jal	t4,fffddcee <_end+0xfffdaefe>
    2708:	deadbeef          	jal	t4,fffddcf2 <_end+0xfffdaf02>
    270c:	deadbeef          	jal	t4,fffddcf6 <_end+0xfffdaf06>
    2710:	deadbeef          	jal	t4,fffddcfa <_end+0xfffdaf0a>
    2714:	deadbeef          	jal	t4,fffddcfe <_end+0xfffdaf0e>
    2718:	deadbeef          	jal	t4,fffddd02 <_end+0xfffdaf12>
    271c:	deadbeef          	jal	t4,fffddd06 <_end+0xfffdaf16>
    2720:	deadbeef          	jal	t4,fffddd0a <_end+0xfffdaf1a>
    2724:	deadbeef          	jal	t4,fffddd0e <_end+0xfffdaf1e>
    2728:	deadbeef          	jal	t4,fffddd12 <_end+0xfffdaf22>
    272c:	deadbeef          	jal	t4,fffddd16 <_end+0xfffdaf26>
    2730:	deadbeef          	jal	t4,fffddd1a <_end+0xfffdaf2a>
    2734:	deadbeef          	jal	t4,fffddd1e <_end+0xfffdaf2e>
    2738:	deadbeef          	jal	t4,fffddd22 <_end+0xfffdaf32>
    273c:	deadbeef          	jal	t4,fffddd26 <_end+0xfffdaf36>
    2740:	deadbeef          	jal	t4,fffddd2a <_end+0xfffdaf3a>
    2744:	deadbeef          	jal	t4,fffddd2e <_end+0xfffdaf3e>
    2748:	deadbeef          	jal	t4,fffddd32 <_end+0xfffdaf42>
    274c:	deadbeef          	jal	t4,fffddd36 <_end+0xfffdaf46>
    2750:	deadbeef          	jal	t4,fffddd3a <_end+0xfffdaf4a>
    2754:	deadbeef          	jal	t4,fffddd3e <_end+0xfffdaf4e>
    2758:	deadbeef          	jal	t4,fffddd42 <_end+0xfffdaf52>
    275c:	deadbeef          	jal	t4,fffddd46 <_end+0xfffdaf56>
    2760:	deadbeef          	jal	t4,fffddd4a <_end+0xfffdaf5a>
    2764:	deadbeef          	jal	t4,fffddd4e <_end+0xfffdaf5e>
    2768:	deadbeef          	jal	t4,fffddd52 <_end+0xfffdaf62>
    276c:	deadbeef          	jal	t4,fffddd56 <_end+0xfffdaf66>
    2770:	deadbeef          	jal	t4,fffddd5a <_end+0xfffdaf6a>
    2774:	deadbeef          	jal	t4,fffddd5e <_end+0xfffdaf6e>
    2778:	deadbeef          	jal	t4,fffddd62 <_end+0xfffdaf72>
    277c:	deadbeef          	jal	t4,fffddd66 <_end+0xfffdaf76>
    2780:	deadbeef          	jal	t4,fffddd6a <_end+0xfffdaf7a>
    2784:	deadbeef          	jal	t4,fffddd6e <_end+0xfffdaf7e>
    2788:	deadbeef          	jal	t4,fffddd72 <_end+0xfffdaf82>
    278c:	deadbeef          	jal	t4,fffddd76 <_end+0xfffdaf86>
    2790:	deadbeef          	jal	t4,fffddd7a <_end+0xfffdaf8a>
    2794:	deadbeef          	jal	t4,fffddd7e <_end+0xfffdaf8e>
    2798:	deadbeef          	jal	t4,fffddd82 <_end+0xfffdaf92>
    279c:	deadbeef          	jal	t4,fffddd86 <_end+0xfffdaf96>
    27a0:	deadbeef          	jal	t4,fffddd8a <_end+0xfffdaf9a>
    27a4:	deadbeef          	jal	t4,fffddd8e <_end+0xfffdaf9e>
    27a8:	deadbeef          	jal	t4,fffddd92 <_end+0xfffdafa2>
    27ac:	deadbeef          	jal	t4,fffddd96 <_end+0xfffdafa6>
    27b0:	deadbeef          	jal	t4,fffddd9a <_end+0xfffdafaa>
    27b4:	deadbeef          	jal	t4,fffddd9e <_end+0xfffdafae>
    27b8:	deadbeef          	jal	t4,fffddda2 <_end+0xfffdafb2>
    27bc:	deadbeef          	jal	t4,fffddda6 <_end+0xfffdafb6>
    27c0:	deadbeef          	jal	t4,fffdddaa <_end+0xfffdafba>
    27c4:	deadbeef          	jal	t4,fffdddae <_end+0xfffdafbe>
    27c8:	deadbeef          	jal	t4,fffdddb2 <_end+0xfffdafc2>
    27cc:	deadbeef          	jal	t4,fffdddb6 <_end+0xfffdafc6>
    27d0:	deadbeef          	jal	t4,fffdddba <_end+0xfffdafca>
    27d4:	deadbeef          	jal	t4,fffdddbe <_end+0xfffdafce>
    27d8:	deadbeef          	jal	t4,fffdddc2 <_end+0xfffdafd2>
    27dc:	deadbeef          	jal	t4,fffdddc6 <_end+0xfffdafd6>
    27e0:	deadbeef          	jal	t4,fffdddca <_end+0xfffdafda>
    27e4:	deadbeef          	jal	t4,fffdddce <_end+0xfffdafde>
    27e8:	deadbeef          	jal	t4,fffdddd2 <_end+0xfffdafe2>
    27ec:	deadbeef          	jal	t4,fffdddd6 <_end+0xfffdafe6>
    27f0:	deadbeef          	jal	t4,fffdddda <_end+0xfffdafea>
    27f4:	deadbeef          	jal	t4,fffdddde <_end+0xfffdafee>
    27f8:	deadbeef          	jal	t4,fffddde2 <_end+0xfffdaff2>
    27fc:	deadbeef          	jal	t4,fffddde6 <_end+0xfffdaff6>
    2800:	deadbeef          	jal	t4,fffdddea <_end+0xfffdaffa>
    2804:	deadbeef          	jal	t4,fffdddee <_end+0xfffdaffe>
    2808:	deadbeef          	jal	t4,fffdddf2 <_end+0xfffdb002>
    280c:	deadbeef          	jal	t4,fffdddf6 <_end+0xfffdb006>
    2810:	deadbeef          	jal	t4,fffdddfa <_end+0xfffdb00a>
    2814:	deadbeef          	jal	t4,fffdddfe <_end+0xfffdb00e>
    2818:	deadbeef          	jal	t4,fffdde02 <_end+0xfffdb012>
    281c:	deadbeef          	jal	t4,fffdde06 <_end+0xfffdb016>
    2820:	deadbeef          	jal	t4,fffdde0a <_end+0xfffdb01a>
    2824:	deadbeef          	jal	t4,fffdde0e <_end+0xfffdb01e>
    2828:	deadbeef          	jal	t4,fffdde12 <_end+0xfffdb022>
    282c:	deadbeef          	jal	t4,fffdde16 <_end+0xfffdb026>
    2830:	deadbeef          	jal	t4,fffdde1a <_end+0xfffdb02a>
    2834:	deadbeef          	jal	t4,fffdde1e <_end+0xfffdb02e>
    2838:	deadbeef          	jal	t4,fffdde22 <_end+0xfffdb032>
    283c:	deadbeef          	jal	t4,fffdde26 <_end+0xfffdb036>
    2840:	deadbeef          	jal	t4,fffdde2a <_end+0xfffdb03a>
    2844:	deadbeef          	jal	t4,fffdde2e <_end+0xfffdb03e>
    2848:	deadbeef          	jal	t4,fffdde32 <_end+0xfffdb042>
    284c:	deadbeef          	jal	t4,fffdde36 <_end+0xfffdb046>
    2850:	deadbeef          	jal	t4,fffdde3a <_end+0xfffdb04a>
    2854:	deadbeef          	jal	t4,fffdde3e <_end+0xfffdb04e>
    2858:	deadbeef          	jal	t4,fffdde42 <_end+0xfffdb052>
    285c:	deadbeef          	jal	t4,fffdde46 <_end+0xfffdb056>
    2860:	deadbeef          	jal	t4,fffdde4a <_end+0xfffdb05a>
    2864:	deadbeef          	jal	t4,fffdde4e <_end+0xfffdb05e>
    2868:	deadbeef          	jal	t4,fffdde52 <_end+0xfffdb062>
    286c:	deadbeef          	jal	t4,fffdde56 <_end+0xfffdb066>
    2870:	deadbeef          	jal	t4,fffdde5a <_end+0xfffdb06a>
    2874:	deadbeef          	jal	t4,fffdde5e <_end+0xfffdb06e>
    2878:	deadbeef          	jal	t4,fffdde62 <_end+0xfffdb072>
    287c:	deadbeef          	jal	t4,fffdde66 <_end+0xfffdb076>
    2880:	deadbeef          	jal	t4,fffdde6a <_end+0xfffdb07a>
    2884:	deadbeef          	jal	t4,fffdde6e <_end+0xfffdb07e>
    2888:	deadbeef          	jal	t4,fffdde72 <_end+0xfffdb082>
    288c:	deadbeef          	jal	t4,fffdde76 <_end+0xfffdb086>
    2890:	deadbeef          	jal	t4,fffdde7a <_end+0xfffdb08a>
    2894:	deadbeef          	jal	t4,fffdde7e <_end+0xfffdb08e>
    2898:	deadbeef          	jal	t4,fffdde82 <_end+0xfffdb092>
    289c:	deadbeef          	jal	t4,fffdde86 <_end+0xfffdb096>
    28a0:	deadbeef          	jal	t4,fffdde8a <_end+0xfffdb09a>
    28a4:	deadbeef          	jal	t4,fffdde8e <_end+0xfffdb09e>
    28a8:	deadbeef          	jal	t4,fffdde92 <_end+0xfffdb0a2>
    28ac:	deadbeef          	jal	t4,fffdde96 <_end+0xfffdb0a6>
    28b0:	deadbeef          	jal	t4,fffdde9a <_end+0xfffdb0aa>
    28b4:	deadbeef          	jal	t4,fffdde9e <_end+0xfffdb0ae>
    28b8:	deadbeef          	jal	t4,fffddea2 <_end+0xfffdb0b2>
    28bc:	deadbeef          	jal	t4,fffddea6 <_end+0xfffdb0b6>
    28c0:	deadbeef          	jal	t4,fffddeaa <_end+0xfffdb0ba>
    28c4:	deadbeef          	jal	t4,fffddeae <_end+0xfffdb0be>
    28c8:	deadbeef          	jal	t4,fffddeb2 <_end+0xfffdb0c2>
    28cc:	deadbeef          	jal	t4,fffddeb6 <_end+0xfffdb0c6>
    28d0:	deadbeef          	jal	t4,fffddeba <_end+0xfffdb0ca>
    28d4:	deadbeef          	jal	t4,fffddebe <_end+0xfffdb0ce>
    28d8:	deadbeef          	jal	t4,fffddec2 <_end+0xfffdb0d2>
    28dc:	deadbeef          	jal	t4,fffddec6 <_end+0xfffdb0d6>
    28e0:	deadbeef          	jal	t4,fffddeca <_end+0xfffdb0da>
    28e4:	deadbeef          	jal	t4,fffddece <_end+0xfffdb0de>
    28e8:	deadbeef          	jal	t4,fffdded2 <_end+0xfffdb0e2>
    28ec:	deadbeef          	jal	t4,fffdded6 <_end+0xfffdb0e6>
    28f0:	deadbeef          	jal	t4,fffddeda <_end+0xfffdb0ea>
    28f4:	deadbeef          	jal	t4,fffddede <_end+0xfffdb0ee>
    28f8:	deadbeef          	jal	t4,fffddee2 <_end+0xfffdb0f2>
    28fc:	deadbeef          	jal	t4,fffddee6 <_end+0xfffdb0f6>
    2900:	deadbeef          	jal	t4,fffddeea <_end+0xfffdb0fa>
    2904:	deadbeef          	jal	t4,fffddeee <_end+0xfffdb0fe>
    2908:	deadbeef          	jal	t4,fffddef2 <_end+0xfffdb102>
    290c:	deadbeef          	jal	t4,fffddef6 <_end+0xfffdb106>
    2910:	deadbeef          	jal	t4,fffddefa <_end+0xfffdb10a>
    2914:	deadbeef          	jal	t4,fffddefe <_end+0xfffdb10e>
    2918:	deadbeef          	jal	t4,fffddf02 <_end+0xfffdb112>
    291c:	deadbeef          	jal	t4,fffddf06 <_end+0xfffdb116>
    2920:	deadbeef          	jal	t4,fffddf0a <_end+0xfffdb11a>
    2924:	deadbeef          	jal	t4,fffddf0e <_end+0xfffdb11e>
    2928:	deadbeef          	jal	t4,fffddf12 <_end+0xfffdb122>
    292c:	deadbeef          	jal	t4,fffddf16 <_end+0xfffdb126>
    2930:	deadbeef          	jal	t4,fffddf1a <_end+0xfffdb12a>
    2934:	deadbeef          	jal	t4,fffddf1e <_end+0xfffdb12e>
    2938:	deadbeef          	jal	t4,fffddf22 <_end+0xfffdb132>
    293c:	deadbeef          	jal	t4,fffddf26 <_end+0xfffdb136>
    2940:	deadbeef          	jal	t4,fffddf2a <_end+0xfffdb13a>
    2944:	deadbeef          	jal	t4,fffddf2e <_end+0xfffdb13e>
    2948:	deadbeef          	jal	t4,fffddf32 <_end+0xfffdb142>
    294c:	deadbeef          	jal	t4,fffddf36 <_end+0xfffdb146>
    2950:	deadbeef          	jal	t4,fffddf3a <_end+0xfffdb14a>
    2954:	deadbeef          	jal	t4,fffddf3e <_end+0xfffdb14e>
    2958:	deadbeef          	jal	t4,fffddf42 <_end+0xfffdb152>
    295c:	deadbeef          	jal	t4,fffddf46 <_end+0xfffdb156>
    2960:	deadbeef          	jal	t4,fffddf4a <_end+0xfffdb15a>
    2964:	deadbeef          	jal	t4,fffddf4e <_end+0xfffdb15e>
    2968:	deadbeef          	jal	t4,fffddf52 <_end+0xfffdb162>
    296c:	deadbeef          	jal	t4,fffddf56 <_end+0xfffdb166>
    2970:	deadbeef          	jal	t4,fffddf5a <_end+0xfffdb16a>
    2974:	deadbeef          	jal	t4,fffddf5e <_end+0xfffdb16e>
    2978:	deadbeef          	jal	t4,fffddf62 <_end+0xfffdb172>
    297c:	deadbeef          	jal	t4,fffddf66 <_end+0xfffdb176>
    2980:	deadbeef          	jal	t4,fffddf6a <_end+0xfffdb17a>
    2984:	deadbeef          	jal	t4,fffddf6e <_end+0xfffdb17e>
    2988:	deadbeef          	jal	t4,fffddf72 <_end+0xfffdb182>
    298c:	deadbeef          	jal	t4,fffddf76 <_end+0xfffdb186>
    2990:	deadbeef          	jal	t4,fffddf7a <_end+0xfffdb18a>
    2994:	deadbeef          	jal	t4,fffddf7e <_end+0xfffdb18e>
    2998:	deadbeef          	jal	t4,fffddf82 <_end+0xfffdb192>
    299c:	deadbeef          	jal	t4,fffddf86 <_end+0xfffdb196>
    29a0:	deadbeef          	jal	t4,fffddf8a <_end+0xfffdb19a>
    29a4:	deadbeef          	jal	t4,fffddf8e <_end+0xfffdb19e>
    29a8:	deadbeef          	jal	t4,fffddf92 <_end+0xfffdb1a2>
    29ac:	deadbeef          	jal	t4,fffddf96 <_end+0xfffdb1a6>
    29b0:	deadbeef          	jal	t4,fffddf9a <_end+0xfffdb1aa>
    29b4:	deadbeef          	jal	t4,fffddf9e <_end+0xfffdb1ae>
    29b8:	deadbeef          	jal	t4,fffddfa2 <_end+0xfffdb1b2>
    29bc:	deadbeef          	jal	t4,fffddfa6 <_end+0xfffdb1b6>
    29c0:	deadbeef          	jal	t4,fffddfaa <_end+0xfffdb1ba>
    29c4:	deadbeef          	jal	t4,fffddfae <_end+0xfffdb1be>
    29c8:	deadbeef          	jal	t4,fffddfb2 <_end+0xfffdb1c2>
    29cc:	deadbeef          	jal	t4,fffddfb6 <_end+0xfffdb1c6>
    29d0:	deadbeef          	jal	t4,fffddfba <_end+0xfffdb1ca>
    29d4:	deadbeef          	jal	t4,fffddfbe <_end+0xfffdb1ce>
    29d8:	deadbeef          	jal	t4,fffddfc2 <_end+0xfffdb1d2>
    29dc:	deadbeef          	jal	t4,fffddfc6 <_end+0xfffdb1d6>
    29e0:	deadbeef          	jal	t4,fffddfca <_end+0xfffdb1da>
    29e4:	deadbeef          	jal	t4,fffddfce <_end+0xfffdb1de>
    29e8:	deadbeef          	jal	t4,fffddfd2 <_end+0xfffdb1e2>
    29ec:	deadbeef          	jal	t4,fffddfd6 <_end+0xfffdb1e6>
    29f0:	deadbeef          	jal	t4,fffddfda <_end+0xfffdb1ea>
    29f4:	deadbeef          	jal	t4,fffddfde <_end+0xfffdb1ee>
    29f8:	deadbeef          	jal	t4,fffddfe2 <_end+0xfffdb1f2>
    29fc:	deadbeef          	jal	t4,fffddfe6 <_end+0xfffdb1f6>
    2a00:	deadbeef          	jal	t4,fffddfea <_end+0xfffdb1fa>
    2a04:	deadbeef          	jal	t4,fffddfee <_end+0xfffdb1fe>
    2a08:	deadbeef          	jal	t4,fffddff2 <_end+0xfffdb202>
    2a0c:	deadbeef          	jal	t4,fffddff6 <_end+0xfffdb206>
    2a10:	deadbeef          	jal	t4,fffddffa <_end+0xfffdb20a>
    2a14:	deadbeef          	jal	t4,fffddffe <_end+0xfffdb20e>
    2a18:	deadbeef          	jal	t4,fffde002 <_end+0xfffdb212>
    2a1c:	deadbeef          	jal	t4,fffde006 <_end+0xfffdb216>
    2a20:	deadbeef          	jal	t4,fffde00a <_end+0xfffdb21a>
    2a24:	deadbeef          	jal	t4,fffde00e <_end+0xfffdb21e>
    2a28:	deadbeef          	jal	t4,fffde012 <_end+0xfffdb222>
    2a2c:	deadbeef          	jal	t4,fffde016 <_end+0xfffdb226>
    2a30:	deadbeef          	jal	t4,fffde01a <_end+0xfffdb22a>
    2a34:	deadbeef          	jal	t4,fffde01e <_end+0xfffdb22e>
    2a38:	deadbeef          	jal	t4,fffde022 <_end+0xfffdb232>
    2a3c:	deadbeef          	jal	t4,fffde026 <_end+0xfffdb236>
    2a40:	deadbeef          	jal	t4,fffde02a <_end+0xfffdb23a>
    2a44:	deadbeef          	jal	t4,fffde02e <_end+0xfffdb23e>
    2a48:	deadbeef          	jal	t4,fffde032 <_end+0xfffdb242>
    2a4c:	deadbeef          	jal	t4,fffde036 <_end+0xfffdb246>
    2a50:	deadbeef          	jal	t4,fffde03a <_end+0xfffdb24a>
    2a54:	deadbeef          	jal	t4,fffde03e <_end+0xfffdb24e>
    2a58:	deadbeef          	jal	t4,fffde042 <_end+0xfffdb252>
    2a5c:	deadbeef          	jal	t4,fffde046 <_end+0xfffdb256>
    2a60:	deadbeef          	jal	t4,fffde04a <_end+0xfffdb25a>
    2a64:	deadbeef          	jal	t4,fffde04e <_end+0xfffdb25e>
    2a68:	deadbeef          	jal	t4,fffde052 <_end+0xfffdb262>
    2a6c:	deadbeef          	jal	t4,fffde056 <_end+0xfffdb266>
    2a70:	deadbeef          	jal	t4,fffde05a <_end+0xfffdb26a>
    2a74:	deadbeef          	jal	t4,fffde05e <_end+0xfffdb26e>
    2a78:	deadbeef          	jal	t4,fffde062 <_end+0xfffdb272>
    2a7c:	deadbeef          	jal	t4,fffde066 <_end+0xfffdb276>
    2a80:	deadbeef          	jal	t4,fffde06a <_end+0xfffdb27a>
    2a84:	deadbeef          	jal	t4,fffde06e <_end+0xfffdb27e>
    2a88:	deadbeef          	jal	t4,fffde072 <_end+0xfffdb282>
    2a8c:	deadbeef          	jal	t4,fffde076 <_end+0xfffdb286>
    2a90:	deadbeef          	jal	t4,fffde07a <_end+0xfffdb28a>
    2a94:	deadbeef          	jal	t4,fffde07e <_end+0xfffdb28e>
    2a98:	deadbeef          	jal	t4,fffde082 <_end+0xfffdb292>
    2a9c:	deadbeef          	jal	t4,fffde086 <_end+0xfffdb296>
    2aa0:	deadbeef          	jal	t4,fffde08a <_end+0xfffdb29a>
    2aa4:	deadbeef          	jal	t4,fffde08e <_end+0xfffdb29e>
    2aa8:	deadbeef          	jal	t4,fffde092 <_end+0xfffdb2a2>
    2aac:	deadbeef          	jal	t4,fffde096 <_end+0xfffdb2a6>
    2ab0:	deadbeef          	jal	t4,fffde09a <_end+0xfffdb2aa>
    2ab4:	deadbeef          	jal	t4,fffde09e <_end+0xfffdb2ae>
    2ab8:	deadbeef          	jal	t4,fffde0a2 <_end+0xfffdb2b2>
    2abc:	deadbeef          	jal	t4,fffde0a6 <_end+0xfffdb2b6>
    2ac0:	deadbeef          	jal	t4,fffde0aa <_end+0xfffdb2ba>
    2ac4:	deadbeef          	jal	t4,fffde0ae <_end+0xfffdb2be>
    2ac8:	deadbeef          	jal	t4,fffde0b2 <_end+0xfffdb2c2>
    2acc:	deadbeef          	jal	t4,fffde0b6 <_end+0xfffdb2c6>
    2ad0:	deadbeef          	jal	t4,fffde0ba <_end+0xfffdb2ca>
    2ad4:	deadbeef          	jal	t4,fffde0be <_end+0xfffdb2ce>
    2ad8:	deadbeef          	jal	t4,fffde0c2 <_end+0xfffdb2d2>
    2adc:	deadbeef          	jal	t4,fffde0c6 <_end+0xfffdb2d6>
    2ae0:	deadbeef          	jal	t4,fffde0ca <_end+0xfffdb2da>
    2ae4:	deadbeef          	jal	t4,fffde0ce <_end+0xfffdb2de>
    2ae8:	deadbeef          	jal	t4,fffde0d2 <_end+0xfffdb2e2>
    2aec:	deadbeef          	jal	t4,fffde0d6 <_end+0xfffdb2e6>
    2af0:	deadbeef          	jal	t4,fffde0da <_end+0xfffdb2ea>
    2af4:	deadbeef          	jal	t4,fffde0de <_end+0xfffdb2ee>
    2af8:	deadbeef          	jal	t4,fffde0e2 <_end+0xfffdb2f2>
    2afc:	deadbeef          	jal	t4,fffde0e6 <_end+0xfffdb2f6>
    2b00:	deadbeef          	jal	t4,fffde0ea <_end+0xfffdb2fa>
    2b04:	deadbeef          	jal	t4,fffde0ee <_end+0xfffdb2fe>
    2b08:	deadbeef          	jal	t4,fffde0f2 <_end+0xfffdb302>
    2b0c:	deadbeef          	jal	t4,fffde0f6 <_end+0xfffdb306>
    2b10:	deadbeef          	jal	t4,fffde0fa <_end+0xfffdb30a>
    2b14:	deadbeef          	jal	t4,fffde0fe <_end+0xfffdb30e>
    2b18:	deadbeef          	jal	t4,fffde102 <_end+0xfffdb312>
    2b1c:	deadbeef          	jal	t4,fffde106 <_end+0xfffdb316>
    2b20:	deadbeef          	jal	t4,fffde10a <_end+0xfffdb31a>
    2b24:	deadbeef          	jal	t4,fffde10e <_end+0xfffdb31e>
    2b28:	deadbeef          	jal	t4,fffde112 <_end+0xfffdb322>
    2b2c:	deadbeef          	jal	t4,fffde116 <_end+0xfffdb326>
    2b30:	deadbeef          	jal	t4,fffde11a <_end+0xfffdb32a>
    2b34:	deadbeef          	jal	t4,fffde11e <_end+0xfffdb32e>
    2b38:	deadbeef          	jal	t4,fffde122 <_end+0xfffdb332>
    2b3c:	deadbeef          	jal	t4,fffde126 <_end+0xfffdb336>
    2b40:	deadbeef          	jal	t4,fffde12a <_end+0xfffdb33a>
    2b44:	deadbeef          	jal	t4,fffde12e <_end+0xfffdb33e>
    2b48:	deadbeef          	jal	t4,fffde132 <_end+0xfffdb342>
    2b4c:	deadbeef          	jal	t4,fffde136 <_end+0xfffdb346>
    2b50:	deadbeef          	jal	t4,fffde13a <_end+0xfffdb34a>
    2b54:	deadbeef          	jal	t4,fffde13e <_end+0xfffdb34e>
    2b58:	deadbeef          	jal	t4,fffde142 <_end+0xfffdb352>
    2b5c:	deadbeef          	jal	t4,fffde146 <_end+0xfffdb356>
    2b60:	deadbeef          	jal	t4,fffde14a <_end+0xfffdb35a>
    2b64:	deadbeef          	jal	t4,fffde14e <_end+0xfffdb35e>
    2b68:	deadbeef          	jal	t4,fffde152 <_end+0xfffdb362>
    2b6c:	deadbeef          	jal	t4,fffde156 <_end+0xfffdb366>
    2b70:	deadbeef          	jal	t4,fffde15a <_end+0xfffdb36a>
    2b74:	deadbeef          	jal	t4,fffde15e <_end+0xfffdb36e>
    2b78:	deadbeef          	jal	t4,fffde162 <_end+0xfffdb372>
    2b7c:	deadbeef          	jal	t4,fffde166 <_end+0xfffdb376>
    2b80:	deadbeef          	jal	t4,fffde16a <_end+0xfffdb37a>
    2b84:	deadbeef          	jal	t4,fffde16e <_end+0xfffdb37e>
    2b88:	deadbeef          	jal	t4,fffde172 <_end+0xfffdb382>
    2b8c:	deadbeef          	jal	t4,fffde176 <_end+0xfffdb386>
    2b90:	deadbeef          	jal	t4,fffde17a <_end+0xfffdb38a>
    2b94:	deadbeef          	jal	t4,fffde17e <_end+0xfffdb38e>
    2b98:	deadbeef          	jal	t4,fffde182 <_end+0xfffdb392>
    2b9c:	deadbeef          	jal	t4,fffde186 <_end+0xfffdb396>
    2ba0:	deadbeef          	jal	t4,fffde18a <_end+0xfffdb39a>
    2ba4:	deadbeef          	jal	t4,fffde18e <_end+0xfffdb39e>
    2ba8:	deadbeef          	jal	t4,fffde192 <_end+0xfffdb3a2>
    2bac:	deadbeef          	jal	t4,fffde196 <_end+0xfffdb3a6>
    2bb0:	deadbeef          	jal	t4,fffde19a <_end+0xfffdb3aa>
    2bb4:	deadbeef          	jal	t4,fffde19e <_end+0xfffdb3ae>
    2bb8:	deadbeef          	jal	t4,fffde1a2 <_end+0xfffdb3b2>
    2bbc:	deadbeef          	jal	t4,fffde1a6 <_end+0xfffdb3b6>
    2bc0:	deadbeef          	jal	t4,fffde1aa <_end+0xfffdb3ba>
    2bc4:	deadbeef          	jal	t4,fffde1ae <_end+0xfffdb3be>
    2bc8:	deadbeef          	jal	t4,fffde1b2 <_end+0xfffdb3c2>
    2bcc:	deadbeef          	jal	t4,fffde1b6 <_end+0xfffdb3c6>
    2bd0:	deadbeef          	jal	t4,fffde1ba <_end+0xfffdb3ca>
    2bd4:	deadbeef          	jal	t4,fffde1be <_end+0xfffdb3ce>
    2bd8:	deadbeef          	jal	t4,fffde1c2 <_end+0xfffdb3d2>
    2bdc:	deadbeef          	jal	t4,fffde1c6 <_end+0xfffdb3d6>
    2be0:	deadbeef          	jal	t4,fffde1ca <_end+0xfffdb3da>
    2be4:	deadbeef          	jal	t4,fffde1ce <_end+0xfffdb3de>
    2be8:	deadbeef          	jal	t4,fffde1d2 <_end+0xfffdb3e2>
    2bec:	deadbeef          	jal	t4,fffde1d6 <_end+0xfffdb3e6>
    2bf0:	deadbeef          	jal	t4,fffde1da <_end+0xfffdb3ea>
    2bf4:	deadbeef          	jal	t4,fffde1de <_end+0xfffdb3ee>
    2bf8:	deadbeef          	jal	t4,fffde1e2 <_end+0xfffdb3f2>
    2bfc:	deadbeef          	jal	t4,fffde1e6 <_end+0xfffdb3f6>
    2c00:	deadbeef          	jal	t4,fffde1ea <_end+0xfffdb3fa>
    2c04:	deadbeef          	jal	t4,fffde1ee <_end+0xfffdb3fe>
    2c08:	deadbeef          	jal	t4,fffde1f2 <_end+0xfffdb402>
    2c0c:	deadbeef          	jal	t4,fffde1f6 <_end+0xfffdb406>
    2c10:	deadbeef          	jal	t4,fffde1fa <_end+0xfffdb40a>
    2c14:	deadbeef          	jal	t4,fffde1fe <_end+0xfffdb40e>
    2c18:	deadbeef          	jal	t4,fffde202 <_end+0xfffdb412>
    2c1c:	deadbeef          	jal	t4,fffde206 <_end+0xfffdb416>
    2c20:	deadbeef          	jal	t4,fffde20a <_end+0xfffdb41a>
    2c24:	deadbeef          	jal	t4,fffde20e <_end+0xfffdb41e>
    2c28:	deadbeef          	jal	t4,fffde212 <_end+0xfffdb422>
    2c2c:	deadbeef          	jal	t4,fffde216 <_end+0xfffdb426>
    2c30:	deadbeef          	jal	t4,fffde21a <_end+0xfffdb42a>
    2c34:	deadbeef          	jal	t4,fffde21e <_end+0xfffdb42e>
    2c38:	deadbeef          	jal	t4,fffde222 <_end+0xfffdb432>
    2c3c:	deadbeef          	jal	t4,fffde226 <_end+0xfffdb436>
    2c40:	deadbeef          	jal	t4,fffde22a <_end+0xfffdb43a>
    2c44:	deadbeef          	jal	t4,fffde22e <_end+0xfffdb43e>
    2c48:	deadbeef          	jal	t4,fffde232 <_end+0xfffdb442>
    2c4c:	deadbeef          	jal	t4,fffde236 <_end+0xfffdb446>
    2c50:	deadbeef          	jal	t4,fffde23a <_end+0xfffdb44a>
    2c54:	deadbeef          	jal	t4,fffde23e <_end+0xfffdb44e>
    2c58:	deadbeef          	jal	t4,fffde242 <_end+0xfffdb452>
    2c5c:	deadbeef          	jal	t4,fffde246 <_end+0xfffdb456>
    2c60:	deadbeef          	jal	t4,fffde24a <_end+0xfffdb45a>
    2c64:	deadbeef          	jal	t4,fffde24e <_end+0xfffdb45e>
    2c68:	deadbeef          	jal	t4,fffde252 <_end+0xfffdb462>
    2c6c:	deadbeef          	jal	t4,fffde256 <_end+0xfffdb466>
    2c70:	deadbeef          	jal	t4,fffde25a <_end+0xfffdb46a>
    2c74:	deadbeef          	jal	t4,fffde25e <_end+0xfffdb46e>
    2c78:	deadbeef          	jal	t4,fffde262 <_end+0xfffdb472>
    2c7c:	deadbeef          	jal	t4,fffde266 <_end+0xfffdb476>
    2c80:	deadbeef          	jal	t4,fffde26a <_end+0xfffdb47a>
    2c84:	deadbeef          	jal	t4,fffde26e <_end+0xfffdb47e>
    2c88:	deadbeef          	jal	t4,fffde272 <_end+0xfffdb482>
    2c8c:	deadbeef          	jal	t4,fffde276 <_end+0xfffdb486>
    2c90:	deadbeef          	jal	t4,fffde27a <_end+0xfffdb48a>
    2c94:	deadbeef          	jal	t4,fffde27e <_end+0xfffdb48e>
    2c98:	deadbeef          	jal	t4,fffde282 <_end+0xfffdb492>
    2c9c:	deadbeef          	jal	t4,fffde286 <_end+0xfffdb496>
    2ca0:	deadbeef          	jal	t4,fffde28a <_end+0xfffdb49a>
    2ca4:	deadbeef          	jal	t4,fffde28e <_end+0xfffdb49e>
    2ca8:	deadbeef          	jal	t4,fffde292 <_end+0xfffdb4a2>
    2cac:	deadbeef          	jal	t4,fffde296 <_end+0xfffdb4a6>
    2cb0:	deadbeef          	jal	t4,fffde29a <_end+0xfffdb4aa>
    2cb4:	deadbeef          	jal	t4,fffde29e <_end+0xfffdb4ae>
    2cb8:	deadbeef          	jal	t4,fffde2a2 <_end+0xfffdb4b2>
    2cbc:	deadbeef          	jal	t4,fffde2a6 <_end+0xfffdb4b6>
    2cc0:	deadbeef          	jal	t4,fffde2aa <_end+0xfffdb4ba>
    2cc4:	deadbeef          	jal	t4,fffde2ae <_end+0xfffdb4be>
    2cc8:	deadbeef          	jal	t4,fffde2b2 <_end+0xfffdb4c2>
    2ccc:	deadbeef          	jal	t4,fffde2b6 <_end+0xfffdb4c6>
    2cd0:	deadbeef          	jal	t4,fffde2ba <_end+0xfffdb4ca>
    2cd4:	deadbeef          	jal	t4,fffde2be <_end+0xfffdb4ce>
    2cd8:	deadbeef          	jal	t4,fffde2c2 <_end+0xfffdb4d2>
    2cdc:	deadbeef          	jal	t4,fffde2c6 <_end+0xfffdb4d6>
    2ce0:	deadbeef          	jal	t4,fffde2ca <_end+0xfffdb4da>
    2ce4:	deadbeef          	jal	t4,fffde2ce <_end+0xfffdb4de>
    2ce8:	deadbeef          	jal	t4,fffde2d2 <_end+0xfffdb4e2>
    2cec:	deadbeef          	jal	t4,fffde2d6 <_end+0xfffdb4e6>
    2cf0:	deadbeef          	jal	t4,fffde2da <_end+0xfffdb4ea>
    2cf4:	deadbeef          	jal	t4,fffde2de <_end+0xfffdb4ee>
    2cf8:	deadbeef          	jal	t4,fffde2e2 <_end+0xfffdb4f2>
    2cfc:	deadbeef          	jal	t4,fffde2e6 <_end+0xfffdb4f6>
    2d00:	deadbeef          	jal	t4,fffde2ea <_end+0xfffdb4fa>
    2d04:	deadbeef          	jal	t4,fffde2ee <_end+0xfffdb4fe>
    2d08:	deadbeef          	jal	t4,fffde2f2 <_end+0xfffdb502>
    2d0c:	deadbeef          	jal	t4,fffde2f6 <_end+0xfffdb506>
    2d10:	deadbeef          	jal	t4,fffde2fa <_end+0xfffdb50a>
    2d14:	deadbeef          	jal	t4,fffde2fe <_end+0xfffdb50e>
    2d18:	deadbeef          	jal	t4,fffde302 <_end+0xfffdb512>
    2d1c:	deadbeef          	jal	t4,fffde306 <_end+0xfffdb516>
    2d20:	deadbeef          	jal	t4,fffde30a <_end+0xfffdb51a>
    2d24:	deadbeef          	jal	t4,fffde30e <_end+0xfffdb51e>
    2d28:	deadbeef          	jal	t4,fffde312 <_end+0xfffdb522>
    2d2c:	deadbeef          	jal	t4,fffde316 <_end+0xfffdb526>
    2d30:	deadbeef          	jal	t4,fffde31a <_end+0xfffdb52a>
    2d34:	deadbeef          	jal	t4,fffde31e <_end+0xfffdb52e>
    2d38:	deadbeef          	jal	t4,fffde322 <_end+0xfffdb532>
    2d3c:	deadbeef          	jal	t4,fffde326 <_end+0xfffdb536>
    2d40:	deadbeef          	jal	t4,fffde32a <_end+0xfffdb53a>
    2d44:	deadbeef          	jal	t4,fffde32e <_end+0xfffdb53e>
    2d48:	deadbeef          	jal	t4,fffde332 <_end+0xfffdb542>
    2d4c:	deadbeef          	jal	t4,fffde336 <_end+0xfffdb546>
    2d50:	deadbeef          	jal	t4,fffde33a <_end+0xfffdb54a>
    2d54:	deadbeef          	jal	t4,fffde33e <_end+0xfffdb54e>
    2d58:	deadbeef          	jal	t4,fffde342 <_end+0xfffdb552>
    2d5c:	deadbeef          	jal	t4,fffde346 <_end+0xfffdb556>
    2d60:	deadbeef          	jal	t4,fffde34a <_end+0xfffdb55a>
    2d64:	deadbeef          	jal	t4,fffde34e <_end+0xfffdb55e>
    2d68:	deadbeef          	jal	t4,fffde352 <_end+0xfffdb562>
    2d6c:	deadbeef          	jal	t4,fffde356 <_end+0xfffdb566>
    2d70:	deadbeef          	jal	t4,fffde35a <_end+0xfffdb56a>
    2d74:	deadbeef          	jal	t4,fffde35e <_end+0xfffdb56e>
    2d78:	deadbeef          	jal	t4,fffde362 <_end+0xfffdb572>
    2d7c:	deadbeef          	jal	t4,fffde366 <_end+0xfffdb576>
    2d80:	deadbeef          	jal	t4,fffde36a <_end+0xfffdb57a>
    2d84:	deadbeef          	jal	t4,fffde36e <_end+0xfffdb57e>
    2d88:	deadbeef          	jal	t4,fffde372 <_end+0xfffdb582>
    2d8c:	deadbeef          	jal	t4,fffde376 <_end+0xfffdb586>
    2d90:	deadbeef          	jal	t4,fffde37a <_end+0xfffdb58a>
    2d94:	deadbeef          	jal	t4,fffde37e <_end+0xfffdb58e>
    2d98:	deadbeef          	jal	t4,fffde382 <_end+0xfffdb592>
    2d9c:	deadbeef          	jal	t4,fffde386 <_end+0xfffdb596>
    2da0:	deadbeef          	jal	t4,fffde38a <_end+0xfffdb59a>
    2da4:	deadbeef          	jal	t4,fffde38e <_end+0xfffdb59e>
    2da8:	deadbeef          	jal	t4,fffde392 <_end+0xfffdb5a2>
    2dac:	deadbeef          	jal	t4,fffde396 <_end+0xfffdb5a6>
    2db0:	deadbeef          	jal	t4,fffde39a <_end+0xfffdb5aa>
    2db4:	deadbeef          	jal	t4,fffde39e <_end+0xfffdb5ae>
    2db8:	deadbeef          	jal	t4,fffde3a2 <_end+0xfffdb5b2>
    2dbc:	deadbeef          	jal	t4,fffde3a6 <_end+0xfffdb5b6>
    2dc0:	deadbeef          	jal	t4,fffde3aa <_end+0xfffdb5ba>
    2dc4:	deadbeef          	jal	t4,fffde3ae <_end+0xfffdb5be>
    2dc8:	deadbeef          	jal	t4,fffde3b2 <_end+0xfffdb5c2>
    2dcc:	deadbeef          	jal	t4,fffde3b6 <_end+0xfffdb5c6>
    2dd0:	deadbeef          	jal	t4,fffde3ba <_end+0xfffdb5ca>
    2dd4:	deadbeef          	jal	t4,fffde3be <_end+0xfffdb5ce>
    2dd8:	deadbeef          	jal	t4,fffde3c2 <_end+0xfffdb5d2>
    2ddc:	deadbeef          	jal	t4,fffde3c6 <_end+0xfffdb5d6>
    2de0:	deadbeef          	jal	t4,fffde3ca <_end+0xfffdb5da>
    2de4:	deadbeef          	jal	t4,fffde3ce <_end+0xfffdb5de>
    2de8:	deadbeef          	jal	t4,fffde3d2 <_end+0xfffdb5e2>
    2dec:	deadbeef          	jal	t4,fffde3d6 <_end+0xfffdb5e6>

Desensamblado de la sección .riscv.attributes:

00000000 <.riscv.attributes>:
   0:	2241                	.2byte	0x2241
   2:	0000                	.2byte	0x0
   4:	7200                	.2byte	0x7200
   6:	7369                	.2byte	0x7369
   8:	01007663          	bgeu	zero,a6,14 <rvtest_entry_point+0x14>
   c:	0018                	.2byte	0x18
   e:	0000                	.2byte	0x0
  10:	7205                	.2byte	0x7205
  12:	3376                	.2byte	0x3376
  14:	6932                	.2byte	0x6932
  16:	7032                	.2byte	0x7032
  18:	5f30                	.2byte	0x5f30
  1a:	3266                	.2byte	0x3266
  1c:	3070                	.2byte	0x3070
  1e:	0800                	.2byte	0x800
  20:	0a01                	.2byte	0xa01
  22:	0b              	Address 0x22 is out of bounds.

