
/home/alejandro/Escritorio/test_riscv2.5/riscv-compliance/work/rv32i_m/F/fsw-align-01.elf:     formato del fichero elf32-littleriscv


Desensamblado de la sección .text.init:

00000000 <rvtest_entry_point>:
   0:	feedc0b7          	lui	ra,0xfeedc
   4:	ead08093          	add	ra,ra,-339 # feedbead <_end+0xfeedad9d>
   8:	ff76e137          	lui	sp,0xff76e
   c:	f5610113          	add	sp,sp,-170 # ff76df56 <_end+0xff76ce46>
  10:	7fbb71b7          	lui	gp,0x7fbb7
  14:	fab18193          	add	gp,gp,-85 # 7fbb6fab <_end+0x7fbb5e9b>
  18:	bfddb237          	lui	tp,0xbfddb
  1c:	7d520213          	add	tp,tp,2005 # bfddb7d5 <_end+0xbfdda6c5>
  20:	00000297          	auipc	t0,0x0
  24:	0d828293          	add	t0,t0,216 # f8 <rvtest_code_begin>
  28:	00001317          	auipc	t1,0x1
  2c:	fd830313          	add	t1,t1,-40 # 1000 <rvtest_data_begin>
  30:	b7fbb3b7          	lui	t2,0xb7fbb
  34:	6fa38393          	add	t2,t2,1786 # b7fbb6fa <_end+0xb7fba5ea>
  38:	5bfde437          	lui	s0,0x5bfde
  3c:	b7d40413          	add	s0,s0,-1155 # 5bfddb7d <_end+0x5bfdca6d>
  40:	adfef4b7          	lui	s1,0xadfef
  44:	dbe48493          	add	s1,s1,-578 # adfeedbe <_end+0xadfedcae>
  48:	56ff7537          	lui	a0,0x56ff7
  4c:	6df50513          	add	a0,a0,1759 # 56ff76df <_end+0x56ff65cf>
  50:	ab7fc5b7          	lui	a1,0xab7fc
  54:	b6f58593          	add	a1,a1,-1169 # ab7fbb6f <_end+0xab7faa5f>
  58:	d5bfe637          	lui	a2,0xd5bfe
  5c:	db760613          	add	a2,a2,-585 # d5bfddb7 <_end+0xd5bfcca7>
  60:	eadff6b7          	lui	a3,0xeadff
  64:	edb68693          	add	a3,a3,-293 # eadfeedb <_end+0xeadfddcb>
  68:	f56ff737          	lui	a4,0xf56ff
  6c:	76d70713          	add	a4,a4,1901 # f56ff76d <_end+0xf56fe65d>
  70:	fab807b7          	lui	a5,0xfab80
  74:	bb678793          	add	a5,a5,-1098 # fab7fbb6 <_end+0xfab7eaa6>
  78:	7d5c0837          	lui	a6,0x7d5c0
  7c:	ddb80813          	add	a6,a6,-549 # 7d5bfddb <_end+0x7d5beccb>
  80:	beae08b7          	lui	a7,0xbeae0
  84:	eed88893          	add	a7,a7,-275 # beadfeed <_end+0xbeadeddd>
  88:	df570937          	lui	s2,0xdf570
  8c:	f7690913          	add	s2,s2,-138 # df56ff76 <_end+0xdf56ee66>
  90:	6fab89b7          	lui	s3,0x6fab8
  94:	fbb98993          	add	s3,s3,-69 # 6fab7fbb <_end+0x6fab6eab>
  98:	b7d5ca37          	lui	s4,0xb7d5c
  9c:	fdda0a13          	add	s4,s4,-35 # b7d5bfdd <_end+0xb7d5aecd>
  a0:	dbeaeab7          	lui	s5,0xdbeae
  a4:	feea8a93          	add	s5,s5,-18 # dbeadfee <_end+0xdbeacede>
  a8:	6df57b37          	lui	s6,0x6df57
  ac:	ff7b0b13          	add	s6,s6,-9 # 6df56ff7 <_end+0x6df55ee7>
  b0:	b6fabbb7          	lui	s7,0xb6fab
  b4:	7fbb8b93          	add	s7,s7,2043 # b6fab7fb <_end+0xb6faa6eb>
  b8:	db7d6c37          	lui	s8,0xdb7d6
  bc:	bfdc0c13          	add	s8,s8,-1027 # db7d5bfd <_end+0xdb7d4aed>
  c0:	edbebcb7          	lui	s9,0xedbeb
  c4:	dfec8c93          	add	s9,s9,-514 # edbeadfe <_end+0xedbe9cee>
  c8:	76df5d37          	lui	s10,0x76df5
  cc:	6ffd0d13          	add	s10,s10,1791 # 76df56ff <_end+0x76df45ef>
  d0:	bb6fbdb7          	lui	s11,0xbb6fb
  d4:	b7fd8d93          	add	s11,s11,-1153 # bb6fab7f <_end+0xbb6f9a6f>
  d8:	ddb7de37          	lui	t3,0xddb7d
  dc:	5bfe0e13          	add	t3,t3,1471 # ddb7d5bf <_end+0xddb7c4af>
  e0:	eedbfeb7          	lui	t4,0xeedbf
  e4:	adfe8e93          	add	t4,t4,-1313 # eedbeadf <_end+0xeedbd9cf>
  e8:	f76dff37          	lui	t5,0xf76df
  ec:	56ff0f13          	add	t5,t5,1391 # f76df56f <_end+0xf76de45f>
  f0:	fbb70fb7          	lui	t6,0xfbb70
  f4:	ab7f8f93          	add	t6,t6,-1353 # fbb6fab7 <_end+0xfbb6e9a7>

000000f8 <rvtest_code_begin>:
  f8:	00002537          	lui	a0,0x2
  fc:	30052073          	csrs	mstatus,a0
 100:	00001797          	auipc	a5,0x1
 104:	f1078793          	add	a5,a5,-240 # 1010 <data_begin>

00000108 <inst_0>:
 108:	ffc008b7          	lui	a7,0xffc00
 10c:	fff88893          	add	a7,a7,-1 # ffbfffff <_end+0xffbfeeef>
 110:	f0088e53          	fmv.w.x	ft8,a7
 114:	00078493          	mv	s1,a5
 118:	ffc00913          	li	s2,-4
 11c:	412484b3          	sub	s1,s1,s2
 120:	ffc4ae27          	fsw	ft8,-4(s1)
 124:	00000013          	nop
 128:	00000013          	nop
 12c:	001028f3          	frflags	a7
 130:	0117a023          	sw	a7,0(a5)

00000134 <inst_1>:
 134:	dff00893          	li	a7,-513
 138:	f00882d3          	fmv.w.x	ft5,a7
 13c:	00878c13          	add	s8,a5,8
 140:	00100913          	li	s2,1
 144:	412c0c33          	sub	s8,s8,s2
 148:	005c20a7          	fsw	ft5,1(s8)
 14c:	00000013          	nop
 150:	00000013          	nop
 154:	001028f3          	frflags	a7
 158:	0117a423          	sw	a7,8(a5)

0000015c <inst_2>:
 15c:	00800893          	li	a7,8
 160:	f0088153          	fmv.w.x	ft2,a7
 164:	01078513          	add	a0,a5,16
 168:	aaa00913          	li	s2,-1366
 16c:	41250533          	sub	a0,a0,s2
 170:	aa252527          	fsw	ft2,-1366(a0) # 1aaa <_end+0x99a>
 174:	00000013          	nop
 178:	00000013          	nop
 17c:	001028f3          	frflags	a7
 180:	0117a823          	sw	a7,16(a5)

00000184 <inst_3>:
 184:	400008b7          	lui	a7,0x40000
 188:	f0088853          	fmv.w.x	fa6,a7
 18c:	01878b93          	add	s7,a5,24
 190:	bff00913          	li	s2,-1025
 194:	412b8bb3          	sub	s7,s7,s2
 198:	bf0bafa7          	fsw	fa6,-1025(s7)
 19c:	00000013          	nop
 1a0:	00000013          	nop
 1a4:	001028f3          	frflags	a7
 1a8:	0117ac23          	sw	a7,24(a5)

000001ac <inst_4>:
 1ac:	dff00893          	li	a7,-513
 1b0:	f0088a53          	fmv.w.x	fs4,a7
 1b4:	02078e13          	add	t3,a5,32
 1b8:	00000913          	li	s2,0
 1bc:	412e0e33          	sub	t3,t3,s2
 1c0:	014e2027          	fsw	fs4,0(t3)
 1c4:	00000013          	nop
 1c8:	00000013          	nop
 1cc:	001028f3          	frflags	a7
 1d0:	0317a023          	sw	a7,32(a5)

000001d4 <inst_5>:
 1d4:	800008b7          	lui	a7,0x80000
 1d8:	f00880d3          	fmv.w.x	ft1,a7
 1dc:	02878f13          	add	t5,a5,40
 1e0:	80000913          	li	s2,-2048
 1e4:	412f0f33          	sub	t5,t5,s2
 1e8:	801f2027          	fsw	ft1,-2048(t5)
 1ec:	00000013          	nop
 1f0:	00000013          	nop
 1f4:	001028f3          	frflags	a7
 1f8:	0317a423          	sw	a7,40(a5)

000001fc <inst_6>:
 1fc:	800008b7          	lui	a7,0x80000
 200:	f0088bd3          	fmv.w.x	fs7,a7
 204:	03078293          	add	t0,a5,48
 208:	80000913          	li	s2,-2048
 20c:	412282b3          	sub	t0,t0,s2
 210:	8172a027          	fsw	fs7,-2048(t0)
 214:	00000013          	nop
 218:	00000013          	nop
 21c:	001028f3          	frflags	a7
 220:	0317a823          	sw	a7,48(a5)

00000224 <inst_7>:
 224:	800008b7          	lui	a7,0x80000
 228:	f00887d3          	fmv.w.x	fa5,a7
 22c:	03878913          	add	s2,a5,56
 230:	80000b13          	li	s6,-2048
 234:	41690933          	sub	s2,s2,s6
 238:	80f92027          	fsw	fa5,-2048(s2)
 23c:	00000013          	nop
 240:	00000013          	nop
 244:	001028f3          	frflags	a7
 248:	0317ac23          	sw	a7,56(a5)

0000024c <inst_8>:
 24c:	800008b7          	lui	a7,0x80000
 250:	f0088053          	fmv.w.x	ft0,a7
 254:	04078413          	add	s0,a5,64
 258:	80000913          	li	s2,-2048
 25c:	41240433          	sub	s0,s0,s2
 260:	80042027          	fsw	ft0,-2048(s0)
 264:	00000013          	nop
 268:	00000013          	nop
 26c:	001028f3          	frflags	a7
 270:	0517a023          	sw	a7,64(a5)

00000274 <inst_9>:
 274:	800008b7          	lui	a7,0x80000
 278:	f0088753          	fmv.w.x	fa4,a7
 27c:	04878593          	add	a1,a5,72
 280:	80000913          	li	s2,-2048
 284:	412585b3          	sub	a1,a1,s2
 288:	80e5a027          	fsw	fa4,-2048(a1)
 28c:	00000013          	nop
 290:	00000013          	nop
 294:	001028f3          	frflags	a7
 298:	0517a423          	sw	a7,72(a5)
 29c:	00001997          	auipc	s3,0x1
 2a0:	dc498993          	add	s3,s3,-572 # 1060 <signature_x19_0>

000002a4 <inst_10>:
 2a4:	80000ab7          	lui	s5,0x80000
 2a8:	f00a8d53          	fmv.w.x	fs10,s5
 2ac:	00098893          	mv	a7,s3
 2b0:	80000913          	li	s2,-2048
 2b4:	412888b3          	sub	a7,a7,s2
 2b8:	81a8a027          	fsw	fs10,-2048(a7) # 7ffff800 <_end+0x7fffe6f0>
 2bc:	00000013          	nop
 2c0:	00000013          	nop
 2c4:	00102af3          	frflags	s5
 2c8:	0159a023          	sw	s5,0(s3)
 2cc:	00001797          	auipc	a5,0x1
 2d0:	d9c78793          	add	a5,a5,-612 # 1068 <signature_x15_2>

000002d4 <inst_11>:
 2d4:	800008b7          	lui	a7,0x80000
 2d8:	f0088cd3          	fmv.w.x	fs9,a7
 2dc:	00078313          	mv	t1,a5
 2e0:	80000913          	li	s2,-2048
 2e4:	41230333          	sub	t1,t1,s2
 2e8:	81932027          	fsw	fs9,-2048(t1)
 2ec:	00000013          	nop
 2f0:	00000013          	nop
 2f4:	001028f3          	frflags	a7
 2f8:	0117a023          	sw	a7,0(a5)

000002fc <inst_12>:
 2fc:	800008b7          	lui	a7,0x80000
 300:	f0088653          	fmv.w.x	fa2,a7
 304:	00878213          	add	tp,a5,8
 308:	80000913          	li	s2,-2048
 30c:	41220233          	sub	tp,tp,s2
 310:	80c22027          	fsw	fa2,-2048(tp) # fffff800 <_end+0xffffe6f0>
 314:	00000013          	nop
 318:	00000013          	nop
 31c:	001028f3          	frflags	a7
 320:	0117a423          	sw	a7,8(a5)

00000324 <inst_13>:
 324:	800008b7          	lui	a7,0x80000
 328:	f00885d3          	fmv.w.x	fa1,a7
 32c:	01078393          	add	t2,a5,16
 330:	80000913          	li	s2,-2048
 334:	412383b3          	sub	t2,t2,s2
 338:	80b3a027          	fsw	fa1,-2048(t2)
 33c:	00000013          	nop
 340:	00000013          	nop
 344:	001028f3          	frflags	a7
 348:	0117a823          	sw	a7,16(a5)

0000034c <inst_14>:
 34c:	800008b7          	lui	a7,0x80000
 350:	f00883d3          	fmv.w.x	ft7,a7
 354:	01878a13          	add	s4,a5,24
 358:	80000913          	li	s2,-2048
 35c:	412a0a33          	sub	s4,s4,s2
 360:	807a2027          	fsw	ft7,-2048(s4)
 364:	00000013          	nop
 368:	00000013          	nop
 36c:	001028f3          	frflags	a7
 370:	0117ac23          	sw	a7,24(a5)

00000374 <inst_15>:
 374:	800008b7          	lui	a7,0x80000
 378:	f00886d3          	fmv.w.x	fa3,a7
 37c:	02078093          	add	ra,a5,32
 380:	80000913          	li	s2,-2048
 384:	412080b3          	sub	ra,ra,s2
 388:	80d0a027          	fsw	fa3,-2048(ra)
 38c:	00000013          	nop
 390:	00000013          	nop
 394:	001028f3          	frflags	a7
 398:	0317a023          	sw	a7,32(a5)

0000039c <inst_16>:
 39c:	800008b7          	lui	a7,0x80000
 3a0:	f0088ed3          	fmv.w.x	ft9,a7
 3a4:	02878193          	add	gp,a5,40
 3a8:	80000913          	li	s2,-2048
 3ac:	412181b3          	sub	gp,gp,s2
 3b0:	81d1a027          	fsw	ft9,-2048(gp)
 3b4:	00000013          	nop
 3b8:	00000013          	nop
 3bc:	001028f3          	frflags	a7
 3c0:	0317a423          	sw	a7,40(a5)

000003c4 <inst_17>:
 3c4:	800008b7          	lui	a7,0x80000
 3c8:	f0088953          	fmv.w.x	fs2,a7
 3cc:	03078c93          	add	s9,a5,48
 3d0:	80000913          	li	s2,-2048
 3d4:	412c8cb3          	sub	s9,s9,s2
 3d8:	812ca027          	fsw	fs2,-2048(s9)
 3dc:	00000013          	nop
 3e0:	00000013          	nop
 3e4:	001028f3          	frflags	a7
 3e8:	0317a823          	sw	a7,48(a5)

000003ec <inst_18>:
 3ec:	800008b7          	lui	a7,0x80000
 3f0:	f0088453          	fmv.w.x	fs0,a7
 3f4:	03878d13          	add	s10,a5,56
 3f8:	80000913          	li	s2,-2048
 3fc:	412d0d33          	sub	s10,s10,s2
 400:	808d2027          	fsw	fs0,-2048(s10)
 404:	00000013          	nop
 408:	00000013          	nop
 40c:	001028f3          	frflags	a7
 410:	0317ac23          	sw	a7,56(a5)

00000414 <inst_19>:
 414:	800008b7          	lui	a7,0x80000
 418:	f0088fd3          	fmv.w.x	ft11,a7
 41c:	04078f93          	add	t6,a5,64
 420:	80000913          	li	s2,-2048
 424:	412f8fb3          	sub	t6,t6,s2
 428:	81ffa027          	fsw	ft11,-2048(t6)
 42c:	00000013          	nop
 430:	00000013          	nop
 434:	001028f3          	frflags	a7
 438:	0517a023          	sw	a7,64(a5)

0000043c <inst_20>:
 43c:	800008b7          	lui	a7,0x80000
 440:	f0088dd3          	fmv.w.x	fs11,a7
 444:	04878e93          	add	t4,a5,72
 448:	80000913          	li	s2,-2048
 44c:	412e8eb3          	sub	t4,t4,s2
 450:	81bea027          	fsw	fs11,-2048(t4)
 454:	00000013          	nop
 458:	00000013          	nop
 45c:	001028f3          	frflags	a7
 460:	0517a423          	sw	a7,72(a5)

00000464 <inst_21>:
 464:	800008b7          	lui	a7,0x80000
 468:	f0088553          	fmv.w.x	fa0,a7
 46c:	05078993          	add	s3,a5,80
 470:	80000913          	li	s2,-2048
 474:	412989b3          	sub	s3,s3,s2
 478:	80a9a027          	fsw	fa0,-2048(s3)
 47c:	00000013          	nop
 480:	00000013          	nop
 484:	001028f3          	frflags	a7
 488:	0517a823          	sw	a7,80(a5)

0000048c <inst_22>:
 48c:	800008b7          	lui	a7,0x80000
 490:	f0088253          	fmv.w.x	ft4,a7
 494:	05878713          	add	a4,a5,88
 498:	80000913          	li	s2,-2048
 49c:	41270733          	sub	a4,a4,s2
 4a0:	80472027          	fsw	ft4,-2048(a4)
 4a4:	00000013          	nop
 4a8:	00000013          	nop
 4ac:	001028f3          	frflags	a7
 4b0:	0517ac23          	sw	a7,88(a5)

000004b4 <inst_23>:
 4b4:	800008b7          	lui	a7,0x80000
 4b8:	f00884d3          	fmv.w.x	fs1,a7
 4bc:	06078d93          	add	s11,a5,96
 4c0:	80000913          	li	s2,-2048
 4c4:	412d8db3          	sub	s11,s11,s2
 4c8:	809da027          	fsw	fs1,-2048(s11)
 4cc:	00000013          	nop
 4d0:	00000013          	nop
 4d4:	001028f3          	frflags	a7
 4d8:	0717a023          	sw	a7,96(a5)

000004dc <inst_24>:
 4dc:	800008b7          	lui	a7,0x80000
 4e0:	f0088c53          	fmv.w.x	fs8,a7
 4e4:	06878b13          	add	s6,a5,104
 4e8:	80000913          	li	s2,-2048
 4ec:	412b0b33          	sub	s6,s6,s2
 4f0:	818b2027          	fsw	fs8,-2048(s6)
 4f4:	00000013          	nop
 4f8:	00000013          	nop
 4fc:	001028f3          	frflags	a7
 500:	0717a423          	sw	a7,104(a5)

00000504 <inst_25>:
 504:	800008b7          	lui	a7,0x80000
 508:	f00888d3          	fmv.w.x	fa7,a7
 50c:	07078693          	add	a3,a5,112
 510:	80000913          	li	s2,-2048
 514:	412686b3          	sub	a3,a3,s2
 518:	8116a027          	fsw	fa7,-2048(a3)
 51c:	00000013          	nop
 520:	00000013          	nop
 524:	001028f3          	frflags	a7
 528:	0717a823          	sw	a7,112(a5)
 52c:	00001997          	auipc	s3,0x1
 530:	bb498993          	add	s3,s3,-1100 # 10e0 <signature_x19_1>

00000534 <inst_26>:
 534:	80000ab7          	lui	s5,0x80000
 538:	f00a8353          	fmv.w.x	ft6,s5
 53c:	00098793          	mv	a5,s3
 540:	80000913          	li	s2,-2048
 544:	412787b3          	sub	a5,a5,s2
 548:	8067a027          	fsw	ft6,-2048(a5)
 54c:	00000013          	nop
 550:	00000013          	nop
 554:	00102af3          	frflags	s5
 558:	0159a023          	sw	s5,0(s3)
 55c:	00001797          	auipc	a5,0x1
 560:	b8c78793          	add	a5,a5,-1140 # 10e8 <signature_x15_3>

00000564 <inst_27>:
 564:	800008b7          	lui	a7,0x80000
 568:	f0088ad3          	fmv.w.x	fs5,a7
 56c:	00078a93          	mv	s5,a5
 570:	80000913          	li	s2,-2048
 574:	412a8ab3          	sub	s5,s5,s2
 578:	815aa027          	fsw	fs5,-2048(s5) # 7ffff800 <_end+0x7fffe6f0>
 57c:	00000013          	nop
 580:	00000013          	nop
 584:	001028f3          	frflags	a7
 588:	0117a023          	sw	a7,0(a5)

0000058c <inst_28>:
 58c:	800008b7          	lui	a7,0x80000
 590:	f00881d3          	fmv.w.x	ft3,a7
 594:	00878613          	add	a2,a5,8
 598:	80000913          	li	s2,-2048
 59c:	41260633          	sub	a2,a2,s2
 5a0:	80362027          	fsw	ft3,-2048(a2)
 5a4:	00000013          	nop
 5a8:	00000013          	nop
 5ac:	001028f3          	frflags	a7
 5b0:	0117a423          	sw	a7,8(a5)
 5b4:	00001997          	auipc	s3,0x1
 5b8:	b4498993          	add	s3,s3,-1212 # 10f8 <signature_x19_2>

000005bc <inst_29>:
 5bc:	80000ab7          	lui	s5,0x80000
 5c0:	f00a89d3          	fmv.w.x	fs3,s5
 5c4:	00098813          	mv	a6,s3
 5c8:	80000913          	li	s2,-2048
 5cc:	41280833          	sub	a6,a6,s2
 5d0:	81382027          	fsw	fs3,-2048(a6)
 5d4:	00000013          	nop
 5d8:	00000013          	nop
 5dc:	00102af3          	frflags	s5
 5e0:	0159a023          	sw	s5,0(s3)
 5e4:	00001797          	auipc	a5,0x1
 5e8:	b1c78793          	add	a5,a5,-1252 # 1100 <signature_x15_4>

000005ec <inst_30>:
 5ec:	800008b7          	lui	a7,0x80000
 5f0:	f0088f53          	fmv.w.x	ft10,a7
 5f4:	00078113          	mv	sp,a5
 5f8:	80000913          	li	s2,-2048
 5fc:	41210133          	sub	sp,sp,s2
 600:	81e12027          	fsw	ft10,-2048(sp)
 604:	00000013          	nop
 608:	00000013          	nop
 60c:	001028f3          	frflags	a7
 610:	0117a023          	sw	a7,0(a5)

00000614 <inst_31>:
 614:	800008b7          	lui	a7,0x80000
 618:	f0088b53          	fmv.w.x	fs6,a7
 61c:	00878d93          	add	s11,a5,8
 620:	80000913          	li	s2,-2048
 624:	412d8db3          	sub	s11,s11,s2
 628:	816da027          	fsw	fs6,-2048(s11)
 62c:	00000013          	nop
 630:	00000013          	nop
 634:	001028f3          	frflags	a7
 638:	0117a423          	sw	a7,8(a5)
 63c:	00000013          	nop

00000640 <rvtest_code_end>:
 640:	00001517          	auipc	a0,0x1
 644:	9d050513          	add	a0,a0,-1584 # 1010 <data_begin>
 648:	00001597          	auipc	a1,0x1
 64c:	ac858593          	add	a1,a1,-1336 # 1110 <_end>
 650:	80001637          	lui	a2,0x80001
 654:	00860613          	add	a2,a2,8 # 80001008 <_end+0x7ffffef8>

00000658 <compliance_halt_loop>:
 658:	06b50063          	beq	a0,a1,6b8 <compliance_halt_break>
 65c:	00450693          	add	a3,a0,4

00000660 <compliance_halt_loop2>:
 660:	fff68693          	add	a3,a3,-1
 664:	00068703          	lb	a4,0(a3)
 668:	40475793          	sra	a5,a4,0x4
 66c:	00f7f793          	and	a5,a5,15
 670:	00a00813          	li	a6,10
 674:	0107c463          	blt	a5,a6,67c <notLetter>
 678:	02778793          	add	a5,a5,39

0000067c <notLetter>:
 67c:	03078793          	add	a5,a5,48
 680:	00f60023          	sb	a5,0(a2)
 684:	40075793          	sra	a5,a4,0x0
 688:	00f7f793          	and	a5,a5,15
 68c:	00a00813          	li	a6,10
 690:	0107c463          	blt	a5,a6,698 <notLetter2>
 694:	02778793          	add	a5,a5,39

00000698 <notLetter2>:
 698:	03078793          	add	a5,a5,48
 69c:	00f60023          	sb	a5,0(a2)
 6a0:	fcd510e3          	bne	a0,a3,660 <compliance_halt_loop2>
 6a4:	00450513          	add	a0,a0,4
 6a8:	00a00713          	li	a4,10
 6ac:	00e60023          	sb	a4,0(a2)
 6b0:	fa9ff06f          	j	658 <compliance_halt_loop>
 6b4:	0040006f          	j	6b8 <compliance_halt_break>

000006b8 <compliance_halt_break>:
 6b8:	80001537          	lui	a0,0x80001
 6bc:	00950513          	add	a0,a0,9 # 80001009 <_end+0x7ffffef9>
 6c0:	00d50023          	sb	a3,0(a0)
	...

Desensamblado de la sección .data:

00001000 <rvtest_data_begin>:
    1000:	cafe                	.2byte	0xcafe
    1002:	babe                	.2byte	0xbabe

00001004 <rvtest_data_end>:
	...

00001010 <data_begin>:
    1010:	deadbeef          	jal	t4,fffdc5fa <_end+0xfffdb4ea>
    1014:	deadbeef          	jal	t4,fffdc5fe <_end+0xfffdb4ee>
    1018:	deadbeef          	jal	t4,fffdc602 <_end+0xfffdb4f2>
    101c:	deadbeef          	jal	t4,fffdc606 <_end+0xfffdb4f6>
    1020:	deadbeef          	jal	t4,fffdc60a <_end+0xfffdb4fa>
    1024:	deadbeef          	jal	t4,fffdc60e <_end+0xfffdb4fe>
    1028:	deadbeef          	jal	t4,fffdc612 <_end+0xfffdb502>
    102c:	deadbeef          	jal	t4,fffdc616 <_end+0xfffdb506>
    1030:	deadbeef          	jal	t4,fffdc61a <_end+0xfffdb50a>
    1034:	deadbeef          	jal	t4,fffdc61e <_end+0xfffdb50e>
    1038:	deadbeef          	jal	t4,fffdc622 <_end+0xfffdb512>
    103c:	deadbeef          	jal	t4,fffdc626 <_end+0xfffdb516>
    1040:	deadbeef          	jal	t4,fffdc62a <_end+0xfffdb51a>
    1044:	deadbeef          	jal	t4,fffdc62e <_end+0xfffdb51e>
    1048:	deadbeef          	jal	t4,fffdc632 <_end+0xfffdb522>
    104c:	deadbeef          	jal	t4,fffdc636 <_end+0xfffdb526>
    1050:	deadbeef          	jal	t4,fffdc63a <_end+0xfffdb52a>
    1054:	deadbeef          	jal	t4,fffdc63e <_end+0xfffdb52e>
    1058:	deadbeef          	jal	t4,fffdc642 <_end+0xfffdb532>
    105c:	deadbeef          	jal	t4,fffdc646 <_end+0xfffdb536>

00001060 <signature_x19_0>:
    1060:	deadbeef          	jal	t4,fffdc64a <_end+0xfffdb53a>
    1064:	deadbeef          	jal	t4,fffdc64e <_end+0xfffdb53e>

00001068 <signature_x15_2>:
    1068:	deadbeef          	jal	t4,fffdc652 <_end+0xfffdb542>
    106c:	deadbeef          	jal	t4,fffdc656 <_end+0xfffdb546>
    1070:	deadbeef          	jal	t4,fffdc65a <_end+0xfffdb54a>
    1074:	deadbeef          	jal	t4,fffdc65e <_end+0xfffdb54e>
    1078:	deadbeef          	jal	t4,fffdc662 <_end+0xfffdb552>
    107c:	deadbeef          	jal	t4,fffdc666 <_end+0xfffdb556>
    1080:	deadbeef          	jal	t4,fffdc66a <_end+0xfffdb55a>
    1084:	deadbeef          	jal	t4,fffdc66e <_end+0xfffdb55e>
    1088:	deadbeef          	jal	t4,fffdc672 <_end+0xfffdb562>
    108c:	deadbeef          	jal	t4,fffdc676 <_end+0xfffdb566>
    1090:	deadbeef          	jal	t4,fffdc67a <_end+0xfffdb56a>
    1094:	deadbeef          	jal	t4,fffdc67e <_end+0xfffdb56e>
    1098:	deadbeef          	jal	t4,fffdc682 <_end+0xfffdb572>
    109c:	deadbeef          	jal	t4,fffdc686 <_end+0xfffdb576>
    10a0:	deadbeef          	jal	t4,fffdc68a <_end+0xfffdb57a>
    10a4:	deadbeef          	jal	t4,fffdc68e <_end+0xfffdb57e>
    10a8:	deadbeef          	jal	t4,fffdc692 <_end+0xfffdb582>
    10ac:	deadbeef          	jal	t4,fffdc696 <_end+0xfffdb586>
    10b0:	deadbeef          	jal	t4,fffdc69a <_end+0xfffdb58a>
    10b4:	deadbeef          	jal	t4,fffdc69e <_end+0xfffdb58e>
    10b8:	deadbeef          	jal	t4,fffdc6a2 <_end+0xfffdb592>
    10bc:	deadbeef          	jal	t4,fffdc6a6 <_end+0xfffdb596>
    10c0:	deadbeef          	jal	t4,fffdc6aa <_end+0xfffdb59a>
    10c4:	deadbeef          	jal	t4,fffdc6ae <_end+0xfffdb59e>
    10c8:	deadbeef          	jal	t4,fffdc6b2 <_end+0xfffdb5a2>
    10cc:	deadbeef          	jal	t4,fffdc6b6 <_end+0xfffdb5a6>
    10d0:	deadbeef          	jal	t4,fffdc6ba <_end+0xfffdb5aa>
    10d4:	deadbeef          	jal	t4,fffdc6be <_end+0xfffdb5ae>
    10d8:	deadbeef          	jal	t4,fffdc6c2 <_end+0xfffdb5b2>
    10dc:	deadbeef          	jal	t4,fffdc6c6 <_end+0xfffdb5b6>

000010e0 <signature_x19_1>:
    10e0:	deadbeef          	jal	t4,fffdc6ca <_end+0xfffdb5ba>
    10e4:	deadbeef          	jal	t4,fffdc6ce <_end+0xfffdb5be>

000010e8 <signature_x15_3>:
    10e8:	deadbeef          	jal	t4,fffdc6d2 <_end+0xfffdb5c2>
    10ec:	deadbeef          	jal	t4,fffdc6d6 <_end+0xfffdb5c6>
    10f0:	deadbeef          	jal	t4,fffdc6da <_end+0xfffdb5ca>
    10f4:	deadbeef          	jal	t4,fffdc6de <_end+0xfffdb5ce>

000010f8 <signature_x19_2>:
    10f8:	deadbeef          	jal	t4,fffdc6e2 <_end+0xfffdb5d2>
    10fc:	deadbeef          	jal	t4,fffdc6e6 <_end+0xfffdb5d6>

00001100 <signature_x15_4>:
    1100:	deadbeef          	jal	t4,fffdc6ea <_end+0xfffdb5da>
    1104:	deadbeef          	jal	t4,fffdc6ee <_end+0xfffdb5de>
    1108:	deadbeef          	jal	t4,fffdc6f2 <_end+0xfffdb5e2>
    110c:	deadbeef          	jal	t4,fffdc6f6 <_end+0xfffdb5e6>

Desensamblado de la sección .riscv.attributes:

00000000 <.riscv.attributes>:
   0:	2241                	.2byte	0x2241
   2:	0000                	.2byte	0x0
   4:	7200                	.2byte	0x7200
   6:	7369                	.2byte	0x7369
   8:	01007663          	bgeu	zero,a6,14 <offset+0x8>
   c:	0018                	.2byte	0x18
   e:	0000                	.2byte	0x0
  10:	7205                	.2byte	0x7205
  12:	3376                	.2byte	0x3376
  14:	6932                	.2byte	0x6932
  16:	7032                	.2byte	0x7032
  18:	5f30                	.2byte	0x5f30
  1a:	3266                	.2byte	0x3266
  1c:	3070                	.2byte	0x3070
  1e:	0800                	.2byte	0x800
  20:	0a01                	.2byte	0xa01
  22:	0b              	Address 0x22 is out of bounds.

