
/home/alejandro/Escritorio/test_riscv2.5/riscv-compliance/work/rv32i_m/C/cand-01.elf:     formato del fichero elf32-littleriscv


Desensamblado de la sección .text.init:

00000000 <rvtest_entry_point>:
       0:	feedc0b7          	lui	ra,0xfeedc
       4:	ead08093          	add	ra,ra,-339 # feedbead <_end+0xfeed856d>
       8:	ff76e137          	lui	sp,0xff76e
       c:	f5610113          	add	sp,sp,-170 # ff76df56 <_end+0xff76a616>
      10:	7fbb71b7          	lui	gp,0x7fbb7
      14:	fab18193          	add	gp,gp,-85 # 7fbb6fab <_end+0x7fbb366b>
      18:	bfddb237          	lui	tp,0xbfddb
      1c:	7d520213          	add	tp,tp,2005 # bfddb7d5 <_end+0xbfdd7e95>
      20:	00000297          	auipc	t0,0x0
      24:	0d828293          	add	t0,t0,216 # f8 <rvtest_code_begin>
      28:	00003317          	auipc	t1,0x3
      2c:	fd830313          	add	t1,t1,-40 # 3000 <rvtest_data_begin>
      30:	b7fbb3b7          	lui	t2,0xb7fbb
      34:	6fa38393          	add	t2,t2,1786 # b7fbb6fa <_end+0xb7fb7dba>
      38:	5bfde437          	lui	s0,0x5bfde
      3c:	b7d40413          	add	s0,s0,-1155 # 5bfddb7d <_end+0x5bfda23d>
      40:	adfef4b7          	lui	s1,0xadfef
      44:	dbe48493          	add	s1,s1,-578 # adfeedbe <_end+0xadfeb47e>
      48:	56ff7537          	lui	a0,0x56ff7
      4c:	6df50513          	add	a0,a0,1759 # 56ff76df <_end+0x56ff3d9f>
      50:	ab7fc5b7          	lui	a1,0xab7fc
      54:	b6f58593          	add	a1,a1,-1169 # ab7fbb6f <_end+0xab7f822f>
      58:	d5bfe637          	lui	a2,0xd5bfe
      5c:	db760613          	add	a2,a2,-585 # d5bfddb7 <_end+0xd5bfa477>
      60:	eadff6b7          	lui	a3,0xeadff
      64:	edb68693          	add	a3,a3,-293 # eadfeedb <_end+0xeadfb59b>
      68:	f56ff737          	lui	a4,0xf56ff
      6c:	76d70713          	add	a4,a4,1901 # f56ff76d <_end+0xf56fbe2d>
      70:	fab807b7          	lui	a5,0xfab80
      74:	bb678793          	add	a5,a5,-1098 # fab7fbb6 <_end+0xfab7c276>
      78:	7d5c0837          	lui	a6,0x7d5c0
      7c:	ddb80813          	add	a6,a6,-549 # 7d5bfddb <_end+0x7d5bc49b>
      80:	beae08b7          	lui	a7,0xbeae0
      84:	eed88893          	add	a7,a7,-275 # beadfeed <_end+0xbeadc5ad>
      88:	df570937          	lui	s2,0xdf570
      8c:	f7690913          	add	s2,s2,-138 # df56ff76 <_end+0xdf56c636>
      90:	6fab89b7          	lui	s3,0x6fab8
      94:	fbb98993          	add	s3,s3,-69 # 6fab7fbb <_end+0x6fab467b>
      98:	b7d5ca37          	lui	s4,0xb7d5c
      9c:	fdda0a13          	add	s4,s4,-35 # b7d5bfdd <_end+0xb7d5869d>
      a0:	dbeaeab7          	lui	s5,0xdbeae
      a4:	feea8a93          	add	s5,s5,-18 # dbeadfee <_end+0xdbeaa6ae>
      a8:	6df57b37          	lui	s6,0x6df57
      ac:	ff7b0b13          	add	s6,s6,-9 # 6df56ff7 <_end+0x6df536b7>
      b0:	b6fabbb7          	lui	s7,0xb6fab
      b4:	7fbb8b93          	add	s7,s7,2043 # b6fab7fb <_end+0xb6fa7ebb>
      b8:	db7d6c37          	lui	s8,0xdb7d6
      bc:	bfdc0c13          	add	s8,s8,-1027 # db7d5bfd <_end+0xdb7d22bd>
      c0:	edbebcb7          	lui	s9,0xedbeb
      c4:	dfec8c93          	add	s9,s9,-514 # edbeadfe <_end+0xedbe74be>
      c8:	76df5d37          	lui	s10,0x76df5
      cc:	6ffd0d13          	add	s10,s10,1791 # 76df56ff <_end+0x76df1dbf>
      d0:	bb6fbdb7          	lui	s11,0xbb6fb
      d4:	b7fd8d93          	add	s11,s11,-1153 # bb6fab7f <_end+0xbb6f723f>
      d8:	ddb7de37          	lui	t3,0xddb7d
      dc:	5bfe0e13          	add	t3,t3,1471 # ddb7d5bf <_end+0xddb79c7f>
      e0:	eedbfeb7          	lui	t4,0xeedbf
      e4:	adfe8e93          	add	t4,t4,-1313 # eedbeadf <_end+0xeedbb19f>
      e8:	f76dff37          	lui	t5,0xf76df
      ec:	56ff0f13          	add	t5,t5,1391 # f76df56f <_end+0xf76dbc2f>
      f0:	fbb70fb7          	lui	t6,0xfbb70
      f4:	ab7f8f93          	add	t6,t6,-1353 # fbb6fab7 <_end+0xfbb6c177>

000000f8 <rvtest_code_begin>:
      f8:	00003097          	auipc	ra,0x3
      fc:	f1808093          	add	ra,ra,-232 # 3010 <data_begin>

00000100 <inst_0>:
     100:	80000637          	lui	a2,0x80000
     104:	00000413          	li	s0,0
     108:	8c71                	and	s0,s0,a2
     10a:	0080a023          	sw	s0,0(ra)

0000010e <inst_1>:
     10e:	fffc05b7          	lui	a1,0xfffc0
     112:	fff58593          	add	a1,a1,-1 # fffbffff <_end+0xfffbc6bf>
     116:	fffc05b7          	lui	a1,0xfffc0
     11a:	fff58593          	add	a1,a1,-1 # fffbffff <_end+0xfffbc6bf>
     11e:	8ded                	and	a1,a1,a1
     120:	00b0a223          	sw	a1,4(ra)

00000124 <inst_2>:
     124:	800004b7          	lui	s1,0x80000
     128:	fff48493          	add	s1,s1,-1 # 7fffffff <_end+0x7fffc6bf>
     12c:	fdf00693          	li	a3,-33
     130:	8ee5                	and	a3,a3,s1
     132:	00d0a423          	sw	a3,8(ra)

00000136 <inst_3>:
     136:	00100413          	li	s0,1
     13a:	ffb00493          	li	s1,-5
     13e:	8ce1                	and	s1,s1,s0
     140:	0090a623          	sw	s1,12(ra)

00000144 <inst_4>:
     144:	800006b7          	lui	a3,0x80000
     148:	fff68693          	add	a3,a3,-1 # 7fffffff <_end+0x7fffc6bf>
     14c:	80000737          	lui	a4,0x80000
     150:	8f75                	and	a4,a4,a3
     152:	00e0a823          	sw	a4,16(ra)

00000156 <inst_5>:
     156:	10000737          	lui	a4,0x10000
     15a:	80000537          	lui	a0,0x80000
     15e:	fff50513          	add	a0,a0,-1 # 7fffffff <_end+0x7fffc6bf>
     162:	8d79                	and	a0,a0,a4
     164:	00a0aa23          	sw	a0,20(ra)

00000168 <inst_6>:
     168:	f00007b7          	lui	a5,0xf0000
     16c:	fff78793          	add	a5,a5,-1 # efffffff <_end+0xefffc6bf>
     170:	00100613          	li	a2,1
     174:	8e7d                	and	a2,a2,a5
     176:	00c0ac23          	sw	a2,24(ra)

0000017a <inst_7>:
     17a:	00200513          	li	a0,2
     17e:	e00007b7          	lui	a5,0xe0000
     182:	fff78793          	add	a5,a5,-1 # dfffffff <_end+0xdfffc6bf>
     186:	8fe9                	and	a5,a5,a0
     188:	00f0ae23          	sw	a5,28(ra)

0000018c <inst_8>:
     18c:	00400593          	li	a1,4
     190:	00200513          	li	a0,2
     194:	8d6d                	and	a0,a0,a1
     196:	02a0a023          	sw	a0,32(ra)

0000019a <inst_9>:
     19a:	00800593          	li	a1,8
     19e:	55555537          	lui	a0,0x55555
     1a2:	55450513          	add	a0,a0,1364 # 55555554 <_end+0x55551c14>
     1a6:	8d6d                	and	a0,a0,a1
     1a8:	02a0a223          	sw	a0,36(ra)

000001ac <inst_10>:
     1ac:	01000593          	li	a1,16
     1b0:	f7f00513          	li	a0,-129
     1b4:	8d6d                	and	a0,a0,a1
     1b6:	02a0a423          	sw	a0,40(ra)

000001ba <inst_11>:
     1ba:	02000593          	li	a1,32
     1be:	00200513          	li	a0,2
     1c2:	8d6d                	and	a0,a0,a1
     1c4:	02a0a623          	sw	a0,44(ra)

000001c8 <inst_12>:
     1c8:	04000593          	li	a1,64
     1cc:	ffb00513          	li	a0,-5
     1d0:	8d6d                	and	a0,a0,a1
     1d2:	02a0a823          	sw	a0,48(ra)

000001d6 <inst_13>:
     1d6:	08000593          	li	a1,128
     1da:	ffff5537          	lui	a0,0xffff5
     1de:	afd50513          	add	a0,a0,-1283 # ffff4afd <_end+0xffff11bd>
     1e2:	8d6d                	and	a0,a0,a1
     1e4:	02a0aa23          	sw	a0,52(ra)

000001e8 <inst_14>:
     1e8:	10000593          	li	a1,256
     1ec:	20000537          	lui	a0,0x20000
     1f0:	8d6d                	and	a0,a0,a1
     1f2:	02a0ac23          	sw	a0,56(ra)

000001f6 <inst_15>:
     1f6:	20000593          	li	a1,512
     1fa:	00200513          	li	a0,2
     1fe:	8d6d                	and	a0,a0,a1
     200:	02a0ae23          	sw	a0,60(ra)

00000204 <inst_16>:
     204:	40000593          	li	a1,1024
     208:	40000513          	li	a0,1024
     20c:	8d6d                	and	a0,a0,a1
     20e:	04a0a023          	sw	a0,64(ra)

00000212 <inst_17>:
     212:	000015b7          	lui	a1,0x1
     216:	80058593          	add	a1,a1,-2048 # 800 <inst_105+0x6>
     21a:	ffe00513          	li	a0,-2
     21e:	8d6d                	and	a0,a0,a1
     220:	04a0a223          	sw	a0,68(ra)

00000224 <inst_18>:
     224:	000015b7          	lui	a1,0x1
     228:	00004537          	lui	a0,0x4
     22c:	8d6d                	and	a0,a0,a1
     22e:	04a0a423          	sw	a0,72(ra)

00000232 <inst_19>:
     232:	000025b7          	lui	a1,0x2
     236:	0000b537          	lui	a0,0xb
     23a:	50550513          	add	a0,a0,1285 # b505 <_end+0x7bc5>
     23e:	8d6d                	and	a0,a0,a1
     240:	04a0a623          	sw	a0,76(ra)

00000244 <inst_20>:
     244:	000045b7          	lui	a1,0x4
     248:	fc000537          	lui	a0,0xfc000
     24c:	fff50513          	add	a0,a0,-1 # fbffffff <_end+0xfbffc6bf>
     250:	8d6d                	and	a0,a0,a1
     252:	04a0a823          	sw	a0,80(ra)

00000256 <inst_21>:
     256:	000085b7          	lui	a1,0x8
     25a:	ffc00537          	lui	a0,0xffc00
     25e:	fff50513          	add	a0,a0,-1 # ffbfffff <_end+0xffbfc6bf>
     262:	8d6d                	and	a0,a0,a1
     264:	04a0aa23          	sw	a0,84(ra)

00000268 <inst_22>:
     268:	000105b7          	lui	a1,0x10
     26c:	20000513          	li	a0,512
     270:	8d6d                	and	a0,a0,a1
     272:	04a0ac23          	sw	a0,88(ra)

00000276 <inst_23>:
     276:	000205b7          	lui	a1,0x20
     27a:	f8000537          	lui	a0,0xf8000
     27e:	fff50513          	add	a0,a0,-1 # f7ffffff <_end+0xf7ffc6bf>
     282:	8d6d                	and	a0,a0,a1
     284:	04a0ae23          	sw	a0,92(ra)

00000288 <inst_24>:
     288:	000405b7          	lui	a1,0x40
     28c:	ffc00513          	li	a0,-4
     290:	8d6d                	and	a0,a0,a1
     292:	06a0a023          	sw	a0,96(ra)

00000296 <inst_25>:
     296:	000805b7          	lui	a1,0x80
     29a:	fdf00513          	li	a0,-33
     29e:	8d6d                	and	a0,a0,a1
     2a0:	06a0a223          	sw	a0,100(ra)

000002a4 <inst_26>:
     2a4:	001005b7          	lui	a1,0x100
     2a8:	04000513          	li	a0,64
     2ac:	8d6d                	and	a0,a0,a1
     2ae:	06a0a423          	sw	a0,104(ra)

000002b2 <inst_27>:
     2b2:	002005b7          	lui	a1,0x200
     2b6:	0000b537          	lui	a0,0xb
     2ba:	50350513          	add	a0,a0,1283 # b503 <_end+0x7bc3>
     2be:	8d6d                	and	a0,a0,a1
     2c0:	06a0a623          	sw	a0,108(ra)

000002c4 <inst_28>:
     2c4:	004005b7          	lui	a1,0x400
     2c8:	66666537          	lui	a0,0x66666
     2cc:	66650513          	add	a0,a0,1638 # 66666666 <_end+0x66662d26>
     2d0:	8d6d                	and	a0,a0,a1
     2d2:	06a0a823          	sw	a0,112(ra)

000002d6 <inst_29>:
     2d6:	008005b7          	lui	a1,0x800
     2da:	0000b537          	lui	a0,0xb
     2de:	50450513          	add	a0,a0,1284 # b504 <_end+0x7bc4>
     2e2:	8d6d                	and	a0,a0,a1
     2e4:	06a0aa23          	sw	a0,116(ra)

000002e8 <inst_30>:
     2e8:	010005b7          	lui	a1,0x1000
     2ec:	00500513          	li	a0,5
     2f0:	8d6d                	and	a0,a0,a1
     2f2:	06a0ac23          	sw	a0,120(ra)

000002f6 <inst_31>:
     2f6:	020005b7          	lui	a1,0x2000
     2fa:	00004537          	lui	a0,0x4
     2fe:	8d6d                	and	a0,a0,a1
     300:	06a0ae23          	sw	a0,124(ra)

00000304 <inst_32>:
     304:	040005b7          	lui	a1,0x4000
     308:	c0000537          	lui	a0,0xc0000
     30c:	fff50513          	add	a0,a0,-1 # bfffffff <_end+0xbfffc6bf>
     310:	8d6d                	and	a0,a0,a1
     312:	08a0a023          	sw	a0,128(ra)

00000316 <inst_33>:
     316:	080005b7          	lui	a1,0x8000
     31a:	00000513          	li	a0,0
     31e:	8d6d                	and	a0,a0,a1
     320:	08a0a223          	sw	a0,132(ra)

00000324 <inst_34>:
     324:	200005b7          	lui	a1,0x20000
     328:	01000513          	li	a0,16
     32c:	8d6d                	and	a0,a0,a1
     32e:	08a0a423          	sw	a0,136(ra)

00000332 <inst_35>:
     332:	400005b7          	lui	a1,0x40000
     336:	00400513          	li	a0,4
     33a:	8d6d                	and	a0,a0,a1
     33c:	08a0a623          	sw	a0,140(ra)

00000340 <inst_36>:
     340:	ffe00593          	li	a1,-2
     344:	00600513          	li	a0,6
     348:	8d6d                	and	a0,a0,a1
     34a:	08a0a823          	sw	a0,144(ra)

0000034e <inst_37>:
     34e:	ffd00593          	li	a1,-3
     352:	fffc0537          	lui	a0,0xfffc0
     356:	fff50513          	add	a0,a0,-1 # fffbffff <_end+0xfffbc6bf>
     35a:	8d6d                	and	a0,a0,a1
     35c:	08a0aa23          	sw	a0,148(ra)

00000360 <inst_38>:
     360:	ffb00593          	li	a1,-5
     364:	fdf00513          	li	a0,-33
     368:	8d6d                	and	a0,a0,a1
     36a:	08a0ac23          	sw	a0,152(ra)

0000036e <inst_39>:
     36e:	ff700593          	li	a1,-9
     372:	00010537          	lui	a0,0x10
     376:	8d6d                	and	a0,a0,a1
     378:	08a0ae23          	sw	a0,156(ra)

0000037c <inst_40>:
     37c:	fef00593          	li	a1,-17
     380:	66666537          	lui	a0,0x66666
     384:	66550513          	add	a0,a0,1637 # 66666665 <_end+0x66662d25>
     388:	8d6d                	and	a0,a0,a1
     38a:	0aa0a023          	sw	a0,160(ra)

0000038e <inst_41>:
     38e:	fdf00593          	li	a1,-33
     392:	00080537          	lui	a0,0x80
     396:	8d6d                	and	a0,a0,a1
     398:	0aa0a223          	sw	a0,164(ra)

0000039c <inst_42>:
     39c:	fbf00593          	li	a1,-65
     3a0:	00300513          	li	a0,3
     3a4:	8d6d                	and	a0,a0,a1
     3a6:	0aa0a423          	sw	a0,168(ra)

000003aa <inst_43>:
     3aa:	f7f00593          	li	a1,-129
     3ae:	00004537          	lui	a0,0x4
     3b2:	8d6d                	and	a0,a0,a1
     3b4:	0aa0a623          	sw	a0,172(ra)

000003b8 <inst_44>:
     3b8:	eff00593          	li	a1,-257
     3bc:	00900513          	li	a0,9
     3c0:	8d6d                	and	a0,a0,a1
     3c2:	0aa0a823          	sw	a0,176(ra)

000003c6 <inst_45>:
     3c6:	dff00593          	li	a1,-513
     3ca:	0000b537          	lui	a0,0xb
     3ce:	50450513          	add	a0,a0,1284 # b504 <_end+0x7bc4>
     3d2:	8d6d                	and	a0,a0,a1
     3d4:	0aa0aa23          	sw	a0,180(ra)

000003d8 <inst_46>:
     3d8:	bff00593          	li	a1,-1025
     3dc:	00000513          	li	a0,0
     3e0:	8d6d                	and	a0,a0,a1
     3e2:	0aa0ac23          	sw	a0,184(ra)

000003e6 <inst_47>:
     3e6:	fffff5b7          	lui	a1,0xfffff
     3ea:	7ff58593          	add	a1,a1,2047 # fffff7ff <_end+0xffffbebf>
     3ee:	08000537          	lui	a0,0x8000
     3f2:	8d6d                	and	a0,a0,a1
     3f4:	0aa0ae23          	sw	a0,188(ra)

000003f8 <inst_48>:
     3f8:	fffff5b7          	lui	a1,0xfffff
     3fc:	fff58593          	add	a1,a1,-1 # ffffefff <_end+0xffffb6bf>
     400:	40000537          	lui	a0,0x40000
     404:	fff50513          	add	a0,a0,-1 # 3fffffff <_end+0x3fffc6bf>
     408:	8d6d                	and	a0,a0,a1
     40a:	0ca0a023          	sw	a0,192(ra)

0000040e <inst_49>:
     40e:	ffffe5b7          	lui	a1,0xffffe
     412:	fff58593          	add	a1,a1,-1 # ffffdfff <_end+0xffffa6bf>
     416:	00080537          	lui	a0,0x80
     41a:	8d6d                	and	a0,a0,a1
     41c:	0ca0a223          	sw	a0,196(ra)

00000420 <inst_50>:
     420:	ffffc5b7          	lui	a1,0xffffc
     424:	fff58593          	add	a1,a1,-1 # ffffbfff <_end+0xffff86bf>
     428:	00600513          	li	a0,6
     42c:	8d6d                	and	a0,a0,a1
     42e:	0ca0a423          	sw	a0,200(ra)

00000432 <inst_51>:
     432:	ffff85b7          	lui	a1,0xffff8
     436:	fff58593          	add	a1,a1,-1 # ffff7fff <_end+0xffff46bf>
     43a:	55555537          	lui	a0,0x55555
     43e:	55450513          	add	a0,a0,1364 # 55555554 <_end+0x55551c14>
     442:	8d6d                	and	a0,a0,a1
     444:	0ca0a623          	sw	a0,204(ra)

00000448 <inst_52>:
     448:	ffff05b7          	lui	a1,0xffff0
     44c:	fff58593          	add	a1,a1,-1 # fffeffff <_end+0xfffec6bf>
     450:	00700513          	li	a0,7
     454:	8d6d                	and	a0,a0,a1
     456:	0ca0a823          	sw	a0,208(ra)

0000045a <inst_53>:
     45a:	fffe05b7          	lui	a1,0xfffe0
     45e:	fff58593          	add	a1,a1,-1 # fffdffff <_end+0xfffdc6bf>
     462:	ffb00513          	li	a0,-5
     466:	8d6d                	and	a0,a0,a1
     468:	0ca0aa23          	sw	a0,212(ra)

0000046c <inst_54>:
     46c:	fffc05b7          	lui	a1,0xfffc0
     470:	fff58593          	add	a1,a1,-1 # fffbffff <_end+0xfffbc6bf>
     474:	ff900513          	li	a0,-7
     478:	8d6d                	and	a0,a0,a1
     47a:	0ca0ac23          	sw	a0,216(ra)

0000047e <inst_55>:
     47e:	fff805b7          	lui	a1,0xfff80
     482:	fff58593          	add	a1,a1,-1 # fff7ffff <_end+0xfff7c6bf>
     486:	ff700513          	li	a0,-9
     48a:	8d6d                	and	a0,a0,a1
     48c:	0ca0ae23          	sw	a0,220(ra)

00000490 <inst_56>:
     490:	fff005b7          	lui	a1,0xfff00
     494:	fff58593          	add	a1,a1,-1 # ffefffff <_end+0xffefc6bf>
     498:	01000513          	li	a0,16
     49c:	8d6d                	and	a0,a0,a1
     49e:	0ea0a023          	sw	a0,224(ra)

000004a2 <inst_57>:
     4a2:	ffe005b7          	lui	a1,0xffe00
     4a6:	fff58593          	add	a1,a1,-1 # ffdfffff <_end+0xffdfc6bf>
     4aa:	04000513          	li	a0,64
     4ae:	8d6d                	and	a0,a0,a1
     4b0:	0ea0a223          	sw	a0,228(ra)

000004b4 <inst_58>:
     4b4:	ffc005b7          	lui	a1,0xffc00
     4b8:	fff58593          	add	a1,a1,-1 # ffbfffff <_end+0xffbfc6bf>
     4bc:	00300513          	li	a0,3
     4c0:	8d6d                	and	a0,a0,a1
     4c2:	0ea0a423          	sw	a0,232(ra)

000004c6 <inst_59>:
     4c6:	ff8005b7          	lui	a1,0xff800
     4ca:	fff58593          	add	a1,a1,-1 # ff7fffff <_end+0xff7fc6bf>
     4ce:	08000513          	li	a0,128
     4d2:	8d6d                	and	a0,a0,a1
     4d4:	0ea0a623          	sw	a0,236(ra)

000004d8 <inst_60>:
     4d8:	ff0005b7          	lui	a1,0xff000
     4dc:	fff58593          	add	a1,a1,-1 # feffffff <_end+0xfeffc6bf>
     4e0:	10000513          	li	a0,256
     4e4:	8d6d                	and	a0,a0,a1
     4e6:	0ea0a823          	sw	a0,240(ra)

000004ea <inst_61>:
     4ea:	fe0005b7          	lui	a1,0xfe000
     4ee:	fff58593          	add	a1,a1,-1 # fdffffff <_end+0xfdffc6bf>
     4f2:	ffff5537          	lui	a0,0xffff5
     4f6:	afc50513          	add	a0,a0,-1284 # ffff4afc <_end+0xffff11bc>
     4fa:	8d6d                	and	a0,a0,a1
     4fc:	0ea0aa23          	sw	a0,244(ra)

00000500 <inst_62>:
     500:	fc0005b7          	lui	a1,0xfc000
     504:	fff58593          	add	a1,a1,-1 # fbffffff <_end+0xfbffc6bf>
     508:	ffe00537          	lui	a0,0xffe00
     50c:	fff50513          	add	a0,a0,-1 # ffdfffff <_end+0xffdfc6bf>
     510:	8d6d                	and	a0,a0,a1
     512:	0ea0ac23          	sw	a0,248(ra)

00000516 <inst_63>:
     516:	f80005b7          	lui	a1,0xf8000
     51a:	fff58593          	add	a1,a1,-1 # f7ffffff <_end+0xf7ffc6bf>
     51e:	00200513          	li	a0,2
     522:	8d6d                	and	a0,a0,a1
     524:	0ea0ae23          	sw	a0,252(ra)

00000528 <inst_64>:
     528:	e00005b7          	lui	a1,0xe0000
     52c:	fff58593          	add	a1,a1,-1 # dfffffff <_end+0xdfffc6bf>
     530:	ff900513          	li	a0,-7
     534:	8d6d                	and	a0,a0,a1
     536:	10a0a023          	sw	a0,256(ra)

0000053a <inst_65>:
     53a:	c00005b7          	lui	a1,0xc0000
     53e:	fff58593          	add	a1,a1,-1 # bfffffff <_end+0xbfffc6bf>
     542:	33333537          	lui	a0,0x33333
     546:	33350513          	add	a0,a0,819 # 33333333 <_end+0x3332f9f3>
     54a:	8d6d                	and	a0,a0,a1
     54c:	10a0a223          	sw	a0,260(ra)

00000550 <inst_66>:
     550:	555555b7          	lui	a1,0x55555
     554:	55558593          	add	a1,a1,1365 # 55555555 <_end+0x55551c15>
     558:	fffff537          	lui	a0,0xfffff
     55c:	fff50513          	add	a0,a0,-1 # ffffefff <_end+0xffffb6bf>
     560:	8d6d                	and	a0,a0,a1
     562:	10a0a423          	sw	a0,264(ra)

00000566 <inst_67>:
     566:	aaaab5b7          	lui	a1,0xaaaab
     56a:	aaa58593          	add	a1,a1,-1366 # aaaaaaaa <_end+0xaaaa716a>
     56e:	00200537          	lui	a0,0x200
     572:	8d6d                	and	a0,a0,a1
     574:	10a0a623          	sw	a0,268(ra)

00000578 <inst_68>:
     578:	f00005b7          	lui	a1,0xf0000
     57c:	fff58593          	add	a1,a1,-1 # efffffff <_end+0xefffc6bf>
     580:	00800513          	li	a0,8
     584:	8d6d                	and	a0,a0,a1
     586:	10a0a823          	sw	a0,272(ra)

0000058a <inst_69>:
     58a:	080005b7          	lui	a1,0x8000
     58e:	02000513          	li	a0,32
     592:	8d6d                	and	a0,a0,a1
     594:	10a0aa23          	sw	a0,276(ra)

00000598 <inst_70>:
     598:	0000b5b7          	lui	a1,0xb
     59c:	50558593          	add	a1,a1,1285 # b505 <_end+0x7bc5>
     5a0:	00001537          	lui	a0,0x1
     5a4:	80050513          	add	a0,a0,-2048 # 800 <inst_105+0x6>
     5a8:	8d6d                	and	a0,a0,a1
     5aa:	10a0ac23          	sw	a0,280(ra)

000005ae <inst_71>:
     5ae:	bff00593          	li	a1,-1025
     5b2:	00001537          	lui	a0,0x1
     5b6:	8d6d                	and	a0,a0,a1
     5b8:	10a0ae23          	sw	a0,284(ra)

000005bc <inst_72>:
     5bc:	ff800593          	li	a1,-8
     5c0:	00002537          	lui	a0,0x2
     5c4:	8d6d                	and	a0,a0,a1
     5c6:	12a0a023          	sw	a0,288(ra)

000005ca <inst_73>:
     5ca:	c00005b7          	lui	a1,0xc0000
     5ce:	00008537          	lui	a0,0x8
     5d2:	8d6d                	and	a0,a0,a1
     5d4:	12a0a223          	sw	a0,292(ra)

000005d8 <inst_74>:
     5d8:	ffa00593          	li	a1,-6
     5dc:	00020537          	lui	a0,0x20
     5e0:	8d6d                	and	a0,a0,a1
     5e2:	12a0a423          	sw	a0,296(ra)

000005e6 <inst_75>:
     5e6:	01000593          	li	a1,16
     5ea:	00040537          	lui	a0,0x40
     5ee:	8d6d                	and	a0,a0,a1
     5f0:	12a0a623          	sw	a0,300(ra)

000005f4 <inst_76>:
     5f4:	333335b7          	lui	a1,0x33333
     5f8:	33458593          	add	a1,a1,820 # 33333334 <_end+0x3332f9f4>
     5fc:	00100537          	lui	a0,0x100
     600:	8d6d                	and	a0,a0,a1
     602:	12a0a823          	sw	a0,304(ra)

00000606 <inst_77>:
     606:	ffe00593          	li	a1,-2
     60a:	00400537          	lui	a0,0x400
     60e:	8d6d                	and	a0,a0,a1
     610:	12a0aa23          	sw	a0,308(ra)

00000614 <inst_78>:
     614:	00500593          	li	a1,5
     618:	00800537          	lui	a0,0x800
     61c:	8d6d                	and	a0,a0,a1
     61e:	12a0ac23          	sw	a0,312(ra)

00000622 <inst_79>:
     622:	555555b7          	lui	a1,0x55555
     626:	55558593          	add	a1,a1,1365 # 55555555 <_end+0x55551c15>
     62a:	01000537          	lui	a0,0x1000
     62e:	8d6d                	and	a0,a0,a1
     630:	12a0ae23          	sw	a0,316(ra)

00000634 <inst_80>:
     634:	333335b7          	lui	a1,0x33333
     638:	33458593          	add	a1,a1,820 # 33333334 <_end+0x3332f9f4>
     63c:	02000537          	lui	a0,0x2000
     640:	8d6d                	and	a0,a0,a1
     642:	14a0a023          	sw	a0,320(ra)

00000646 <inst_81>:
     646:	800005b7          	lui	a1,0x80000
     64a:	fff58593          	add	a1,a1,-1 # 7fffffff <_end+0x7fffc6bf>
     64e:	04000537          	lui	a0,0x4000
     652:	8d6d                	and	a0,a0,a1
     654:	14a0a223          	sw	a0,324(ra)

00000658 <inst_82>:
     658:	bff00593          	li	a1,-1025
     65c:	10000537          	lui	a0,0x10000
     660:	8d6d                	and	a0,a0,a1
     662:	14a0a423          	sw	a0,328(ra)

00000666 <inst_83>:
     666:	ffff55b7          	lui	a1,0xffff5
     66a:	afd58593          	add	a1,a1,-1283 # ffff4afd <_end+0xffff11bd>
     66e:	40000537          	lui	a0,0x40000
     672:	8d6d                	and	a0,a0,a1
     674:	14a0a623          	sw	a0,332(ra)

00000678 <inst_84>:
     678:	000205b7          	lui	a1,0x20
     67c:	ffd00513          	li	a0,-3
     680:	8d6d                	and	a0,a0,a1
     682:	14a0a823          	sw	a0,336(ra)

00000686 <inst_85>:
     686:	ffe005b7          	lui	a1,0xffe00
     68a:	fff58593          	add	a1,a1,-1 # ffdfffff <_end+0xffdfc6bf>
     68e:	fef00513          	li	a0,-17
     692:	8d6d                	and	a0,a0,a1
     694:	14a0aa23          	sw	a0,340(ra)

00000698 <inst_86>:
     698:	002005b7          	lui	a1,0x200
     69c:	fbf00513          	li	a0,-65
     6a0:	8d6d                	and	a0,a0,a1
     6a2:	14a0ac23          	sw	a0,344(ra)

000006a6 <inst_87>:
     6a6:	10000593          	li	a1,256
     6aa:	eff00513          	li	a0,-257
     6ae:	8d6d                	and	a0,a0,a1
     6b0:	14a0ae23          	sw	a0,348(ra)

000006b4 <inst_88>:
     6b4:	00600593          	li	a1,6
     6b8:	dff00513          	li	a0,-513
     6bc:	8d6d                	and	a0,a0,a1
     6be:	16a0a023          	sw	a0,352(ra)

000006c2 <inst_89>:
     6c2:	ff0005b7          	lui	a1,0xff000
     6c6:	fff58593          	add	a1,a1,-1 # feffffff <_end+0xfeffc6bf>
     6ca:	bff00513          	li	a0,-1025
     6ce:	8d6d                	and	a0,a0,a1
     6d0:	16a0a223          	sw	a0,356(ra)

000006d4 <inst_90>:
     6d4:	020005b7          	lui	a1,0x2000
     6d8:	fffff537          	lui	a0,0xfffff
     6dc:	7ff50513          	add	a0,a0,2047 # fffff7ff <_end+0xffffbebf>
     6e0:	8d6d                	and	a0,a0,a1
     6e2:	16a0a423          	sw	a0,360(ra)

000006e6 <inst_91>:
     6e6:	ffff55b7          	lui	a1,0xffff5
     6ea:	afc58593          	add	a1,a1,-1284 # ffff4afc <_end+0xffff11bc>
     6ee:	ffffe537          	lui	a0,0xffffe
     6f2:	fff50513          	add	a0,a0,-1 # ffffdfff <_end+0xffffa6bf>
     6f6:	8d6d                	and	a0,a0,a1
     6f8:	16a0a623          	sw	a0,364(ra)

000006fc <inst_92>:
     6fc:	000025b7          	lui	a1,0x2
     700:	ffffc537          	lui	a0,0xffffc
     704:	fff50513          	add	a0,a0,-1 # ffffbfff <_end+0xffff86bf>
     708:	8d6d                	and	a0,a0,a1
     70a:	16a0a823          	sw	a0,368(ra)

0000070e <inst_93>:
     70e:	c00005b7          	lui	a1,0xc0000
     712:	fff58593          	add	a1,a1,-1 # bfffffff <_end+0xbfffc6bf>
     716:	ffff8537          	lui	a0,0xffff8
     71a:	fff50513          	add	a0,a0,-1 # ffff7fff <_end+0xffff46bf>
     71e:	8d6d                	and	a0,a0,a1
     720:	16a0aa23          	sw	a0,372(ra)

00000724 <inst_94>:
     724:	ffff55b7          	lui	a1,0xffff5
     728:	afc58593          	add	a1,a1,-1284 # ffff4afc <_end+0xffff11bc>
     72c:	ffff0537          	lui	a0,0xffff0
     730:	fff50513          	add	a0,a0,-1 # fffeffff <_end+0xfffec6bf>
     734:	8d6d                	and	a0,a0,a1
     736:	16a0ac23          	sw	a0,376(ra)

0000073a <inst_95>:
     73a:	001005b7          	lui	a1,0x100
     73e:	fffe0537          	lui	a0,0xfffe0
     742:	fff50513          	add	a0,a0,-1 # fffdffff <_end+0xfffdc6bf>
     746:	8d6d                	and	a0,a0,a1
     748:	16a0ae23          	sw	a0,380(ra)

0000074c <inst_96>:
     74c:	00400593          	li	a1,4
     750:	fff80537          	lui	a0,0xfff80
     754:	fff50513          	add	a0,a0,-1 # fff7ffff <_end+0xfff7c6bf>
     758:	8d6d                	and	a0,a0,a1
     75a:	18a0a023          	sw	a0,384(ra)

0000075e <inst_97>:
     75e:	eff00593          	li	a1,-257
     762:	fff00537          	lui	a0,0xfff00
     766:	fff50513          	add	a0,a0,-1 # ffefffff <_end+0xffefc6bf>
     76a:	8d6d                	and	a0,a0,a1
     76c:	18a0a223          	sw	a0,388(ra)

00000770 <inst_98>:
     770:	000015b7          	lui	a1,0x1
     774:	ff800537          	lui	a0,0xff800
     778:	fff50513          	add	a0,a0,-1 # ff7fffff <_end+0xff7fc6bf>
     77c:	8d6d                	and	a0,a0,a1
     77e:	18a0a423          	sw	a0,392(ra)

00000782 <inst_99>:
     782:	ffffe5b7          	lui	a1,0xffffe
     786:	fff58593          	add	a1,a1,-1 # ffffdfff <_end+0xffffa6bf>
     78a:	ff000537          	lui	a0,0xff000
     78e:	fff50513          	add	a0,a0,-1 # feffffff <_end+0xfeffc6bf>
     792:	8d6d                	and	a0,a0,a1
     794:	18a0a623          	sw	a0,396(ra)

00000798 <inst_100>:
     798:	ffff05b7          	lui	a1,0xffff0
     79c:	fff58593          	add	a1,a1,-1 # fffeffff <_end+0xfffec6bf>
     7a0:	fe000537          	lui	a0,0xfe000
     7a4:	fff50513          	add	a0,a0,-1 # fdffffff <_end+0xfdffc6bf>
     7a8:	8d6d                	and	a0,a0,a1
     7aa:	18a0a823          	sw	a0,400(ra)

000007ae <inst_101>:
     7ae:	fe0005b7          	lui	a1,0xfe000
     7b2:	fff58593          	add	a1,a1,-1 # fdffffff <_end+0xfdffc6bf>
     7b6:	f0000537          	lui	a0,0xf0000
     7ba:	fff50513          	add	a0,a0,-1 # efffffff <_end+0xefffc6bf>
     7be:	8d6d                	and	a0,a0,a1
     7c0:	18a0aa23          	sw	a0,404(ra)

000007c4 <inst_102>:
     7c4:	666665b7          	lui	a1,0x66666
     7c8:	66558593          	add	a1,a1,1637 # 66666665 <_end+0x66662d25>
     7cc:	55555537          	lui	a0,0x55555
     7d0:	55550513          	add	a0,a0,1365 # 55555555 <_end+0x55551c15>
     7d4:	8d6d                	and	a0,a0,a1
     7d6:	18a0ac23          	sw	a0,408(ra)

000007da <inst_103>:
     7da:	08000593          	li	a1,128
     7de:	aaaab537          	lui	a0,0xaaaab
     7e2:	aaa50513          	add	a0,a0,-1366 # aaaaaaaa <_end+0xaaaa716a>
     7e6:	8d6d                	and	a0,a0,a1
     7e8:	18a0ae23          	sw	a0,412(ra)

000007ec <inst_104>:
     7ec:	00300593          	li	a1,3
     7f0:	00300513          	li	a0,3
     7f4:	8d6d                	and	a0,a0,a1
     7f6:	1aa0a023          	sw	a0,416(ra)

000007fa <inst_105>:
     7fa:	555555b7          	lui	a1,0x55555
     7fe:	55558593          	add	a1,a1,1365 # 55555555 <_end+0x55551c15>
     802:	00300513          	li	a0,3
     806:	8d6d                	and	a0,a0,a1
     808:	1aa0a223          	sw	a0,420(ra)

0000080c <inst_106>:
     80c:	aaaab5b7          	lui	a1,0xaaaab
     810:	aaa58593          	add	a1,a1,-1366 # aaaaaaaa <_end+0xaaaa716a>
     814:	00300513          	li	a0,3
     818:	8d6d                	and	a0,a0,a1
     81a:	1aa0a423          	sw	a0,424(ra)

0000081e <inst_107>:
     81e:	00500593          	li	a1,5
     822:	00300513          	li	a0,3
     826:	8d6d                	and	a0,a0,a1
     828:	1aa0a623          	sw	a0,428(ra)

0000082c <inst_108>:
     82c:	333335b7          	lui	a1,0x33333
     830:	33358593          	add	a1,a1,819 # 33333333 <_end+0x3332f9f3>
     834:	00300513          	li	a0,3
     838:	8d6d                	and	a0,a0,a1
     83a:	1aa0a823          	sw	a0,432(ra)

0000083e <inst_109>:
     83e:	666665b7          	lui	a1,0x66666
     842:	66658593          	add	a1,a1,1638 # 66666666 <_end+0x66662d26>
     846:	00300513          	li	a0,3
     84a:	8d6d                	and	a0,a0,a1
     84c:	1aa0aa23          	sw	a0,436(ra)

00000850 <inst_110>:
     850:	ffff55b7          	lui	a1,0xffff5
     854:	afc58593          	add	a1,a1,-1284 # ffff4afc <_end+0xffff11bc>
     858:	00300513          	li	a0,3
     85c:	8d6d                	and	a0,a0,a1
     85e:	1aa0ac23          	sw	a0,440(ra)

00000862 <inst_111>:
     862:	0000b5b7          	lui	a1,0xb
     866:	50458593          	add	a1,a1,1284 # b504 <_end+0x7bc4>
     86a:	00300513          	li	a0,3
     86e:	8d6d                	and	a0,a0,a1
     870:	1aa0ae23          	sw	a0,444(ra)

00000874 <inst_112>:
     874:	00200593          	li	a1,2
     878:	00300513          	li	a0,3
     87c:	8d6d                	and	a0,a0,a1
     87e:	1ca0a023          	sw	a0,448(ra)

00000882 <inst_113>:
     882:	555555b7          	lui	a1,0x55555
     886:	55458593          	add	a1,a1,1364 # 55555554 <_end+0x55551c14>
     88a:	00300513          	li	a0,3
     88e:	8d6d                	and	a0,a0,a1
     890:	1ca0a223          	sw	a0,452(ra)

00000894 <inst_114>:
     894:	00000593          	li	a1,0
     898:	00300513          	li	a0,3
     89c:	8d6d                	and	a0,a0,a1
     89e:	1ca0a423          	sw	a0,456(ra)

000008a2 <inst_115>:
     8a2:	00400593          	li	a1,4
     8a6:	00300513          	li	a0,3
     8aa:	8d6d                	and	a0,a0,a1
     8ac:	1ca0a623          	sw	a0,460(ra)

000008b0 <inst_116>:
     8b0:	333335b7          	lui	a1,0x33333
     8b4:	33258593          	add	a1,a1,818 # 33333332 <_end+0x3332f9f2>
     8b8:	00300513          	li	a0,3
     8bc:	8d6d                	and	a0,a0,a1
     8be:	1ca0a823          	sw	a0,464(ra)

000008c2 <inst_117>:
     8c2:	666665b7          	lui	a1,0x66666
     8c6:	66558593          	add	a1,a1,1637 # 66666665 <_end+0x66662d25>
     8ca:	00300513          	li	a0,3
     8ce:	8d6d                	and	a0,a0,a1
     8d0:	1ca0aa23          	sw	a0,468(ra)

000008d4 <inst_118>:
     8d4:	0000b5b7          	lui	a1,0xb
     8d8:	50358593          	add	a1,a1,1283 # b503 <_end+0x7bc3>
     8dc:	00300513          	li	a0,3
     8e0:	8d6d                	and	a0,a0,a1
     8e2:	1ca0ac23          	sw	a0,472(ra)

000008e6 <inst_119>:
     8e6:	555555b7          	lui	a1,0x55555
     8ea:	55658593          	add	a1,a1,1366 # 55555556 <_end+0x55551c16>
     8ee:	00300513          	li	a0,3
     8f2:	8d6d                	and	a0,a0,a1
     8f4:	1ca0ae23          	sw	a0,476(ra)

000008f8 <inst_120>:
     8f8:	aaaab5b7          	lui	a1,0xaaaab
     8fc:	aab58593          	add	a1,a1,-1365 # aaaaaaab <_end+0xaaaa716b>
     900:	00300513          	li	a0,3
     904:	8d6d                	and	a0,a0,a1
     906:	1ea0a023          	sw	a0,480(ra)

0000090a <inst_121>:
     90a:	00600593          	li	a1,6
     90e:	00300513          	li	a0,3
     912:	8d6d                	and	a0,a0,a1
     914:	1ea0a223          	sw	a0,484(ra)

00000918 <inst_122>:
     918:	333335b7          	lui	a1,0x33333
     91c:	33458593          	add	a1,a1,820 # 33333334 <_end+0x3332f9f4>
     920:	00300513          	li	a0,3
     924:	8d6d                	and	a0,a0,a1
     926:	1ea0a423          	sw	a0,488(ra)

0000092a <inst_123>:
     92a:	666665b7          	lui	a1,0x66666
     92e:	66758593          	add	a1,a1,1639 # 66666667 <_end+0x66662d27>
     932:	00300513          	li	a0,3
     936:	8d6d                	and	a0,a0,a1
     938:	1ea0a623          	sw	a0,492(ra)

0000093c <inst_124>:
     93c:	ffff55b7          	lui	a1,0xffff5
     940:	afd58593          	add	a1,a1,-1283 # ffff4afd <_end+0xffff11bd>
     944:	00300513          	li	a0,3
     948:	8d6d                	and	a0,a0,a1
     94a:	1ea0a823          	sw	a0,496(ra)

0000094e <inst_125>:
     94e:	0000b5b7          	lui	a1,0xb
     952:	50558593          	add	a1,a1,1285 # b505 <_end+0x7bc5>
     956:	00300513          	li	a0,3
     95a:	8d6d                	and	a0,a0,a1
     95c:	1ea0aa23          	sw	a0,500(ra)

00000960 <inst_126>:
     960:	00300593          	li	a1,3
     964:	55555537          	lui	a0,0x55555
     968:	55550513          	add	a0,a0,1365 # 55555555 <_end+0x55551c15>
     96c:	8d6d                	and	a0,a0,a1
     96e:	1ea0ac23          	sw	a0,504(ra)

00000972 <inst_127>:
     972:	555555b7          	lui	a1,0x55555
     976:	55558593          	add	a1,a1,1365 # 55555555 <_end+0x55551c15>
     97a:	55555537          	lui	a0,0x55555
     97e:	55550513          	add	a0,a0,1365 # 55555555 <_end+0x55551c15>
     982:	8d6d                	and	a0,a0,a1
     984:	1ea0ae23          	sw	a0,508(ra)

00000988 <inst_128>:
     988:	aaaab5b7          	lui	a1,0xaaaab
     98c:	aaa58593          	add	a1,a1,-1366 # aaaaaaaa <_end+0xaaaa716a>
     990:	55555537          	lui	a0,0x55555
     994:	55550513          	add	a0,a0,1365 # 55555555 <_end+0x55551c15>
     998:	8d6d                	and	a0,a0,a1
     99a:	20a0a023          	sw	a0,512(ra)

0000099e <inst_129>:
     99e:	00500593          	li	a1,5
     9a2:	55555537          	lui	a0,0x55555
     9a6:	55550513          	add	a0,a0,1365 # 55555555 <_end+0x55551c15>
     9aa:	8d6d                	and	a0,a0,a1
     9ac:	20a0a223          	sw	a0,516(ra)

000009b0 <inst_130>:
     9b0:	333335b7          	lui	a1,0x33333
     9b4:	33358593          	add	a1,a1,819 # 33333333 <_end+0x3332f9f3>
     9b8:	55555537          	lui	a0,0x55555
     9bc:	55550513          	add	a0,a0,1365 # 55555555 <_end+0x55551c15>
     9c0:	8d6d                	and	a0,a0,a1
     9c2:	20a0a423          	sw	a0,520(ra)

000009c6 <inst_131>:
     9c6:	666665b7          	lui	a1,0x66666
     9ca:	66658593          	add	a1,a1,1638 # 66666666 <_end+0x66662d26>
     9ce:	55555537          	lui	a0,0x55555
     9d2:	55550513          	add	a0,a0,1365 # 55555555 <_end+0x55551c15>
     9d6:	8d6d                	and	a0,a0,a1
     9d8:	20a0a623          	sw	a0,524(ra)

000009dc <inst_132>:
     9dc:	ffff55b7          	lui	a1,0xffff5
     9e0:	afc58593          	add	a1,a1,-1284 # ffff4afc <_end+0xffff11bc>
     9e4:	55555537          	lui	a0,0x55555
     9e8:	55550513          	add	a0,a0,1365 # 55555555 <_end+0x55551c15>
     9ec:	8d6d                	and	a0,a0,a1
     9ee:	20a0a823          	sw	a0,528(ra)

000009f2 <inst_133>:
     9f2:	0000b5b7          	lui	a1,0xb
     9f6:	50458593          	add	a1,a1,1284 # b504 <_end+0x7bc4>
     9fa:	55555537          	lui	a0,0x55555
     9fe:	55550513          	add	a0,a0,1365 # 55555555 <_end+0x55551c15>
     a02:	8d6d                	and	a0,a0,a1
     a04:	20a0aa23          	sw	a0,532(ra)

00000a08 <inst_134>:
     a08:	00200593          	li	a1,2
     a0c:	55555537          	lui	a0,0x55555
     a10:	55550513          	add	a0,a0,1365 # 55555555 <_end+0x55551c15>
     a14:	8d6d                	and	a0,a0,a1
     a16:	20a0ac23          	sw	a0,536(ra)

00000a1a <inst_135>:
     a1a:	555555b7          	lui	a1,0x55555
     a1e:	55458593          	add	a1,a1,1364 # 55555554 <_end+0x55551c14>
     a22:	55555537          	lui	a0,0x55555
     a26:	55550513          	add	a0,a0,1365 # 55555555 <_end+0x55551c15>
     a2a:	8d6d                	and	a0,a0,a1
     a2c:	20a0ae23          	sw	a0,540(ra)

00000a30 <inst_136>:
     a30:	00000593          	li	a1,0
     a34:	55555537          	lui	a0,0x55555
     a38:	55550513          	add	a0,a0,1365 # 55555555 <_end+0x55551c15>
     a3c:	8d6d                	and	a0,a0,a1
     a3e:	22a0a023          	sw	a0,544(ra)

00000a42 <inst_137>:
     a42:	00400593          	li	a1,4
     a46:	55555537          	lui	a0,0x55555
     a4a:	55550513          	add	a0,a0,1365 # 55555555 <_end+0x55551c15>
     a4e:	8d6d                	and	a0,a0,a1
     a50:	22a0a223          	sw	a0,548(ra)

00000a54 <inst_138>:
     a54:	333335b7          	lui	a1,0x33333
     a58:	33258593          	add	a1,a1,818 # 33333332 <_end+0x3332f9f2>
     a5c:	55555537          	lui	a0,0x55555
     a60:	55550513          	add	a0,a0,1365 # 55555555 <_end+0x55551c15>
     a64:	8d6d                	and	a0,a0,a1
     a66:	22a0a423          	sw	a0,552(ra)

00000a6a <inst_139>:
     a6a:	0000b5b7          	lui	a1,0xb
     a6e:	50358593          	add	a1,a1,1283 # b503 <_end+0x7bc3>
     a72:	55555537          	lui	a0,0x55555
     a76:	55550513          	add	a0,a0,1365 # 55555555 <_end+0x55551c15>
     a7a:	8d6d                	and	a0,a0,a1
     a7c:	22a0a623          	sw	a0,556(ra)

00000a80 <inst_140>:
     a80:	555555b7          	lui	a1,0x55555
     a84:	55658593          	add	a1,a1,1366 # 55555556 <_end+0x55551c16>
     a88:	55555537          	lui	a0,0x55555
     a8c:	55550513          	add	a0,a0,1365 # 55555555 <_end+0x55551c15>
     a90:	8d6d                	and	a0,a0,a1
     a92:	22a0a823          	sw	a0,560(ra)

00000a96 <inst_141>:
     a96:	aaaab5b7          	lui	a1,0xaaaab
     a9a:	aab58593          	add	a1,a1,-1365 # aaaaaaab <_end+0xaaaa716b>
     a9e:	55555537          	lui	a0,0x55555
     aa2:	55550513          	add	a0,a0,1365 # 55555555 <_end+0x55551c15>
     aa6:	8d6d                	and	a0,a0,a1
     aa8:	22a0aa23          	sw	a0,564(ra)

00000aac <inst_142>:
     aac:	00600593          	li	a1,6
     ab0:	55555537          	lui	a0,0x55555
     ab4:	55550513          	add	a0,a0,1365 # 55555555 <_end+0x55551c15>
     ab8:	8d6d                	and	a0,a0,a1
     aba:	22a0ac23          	sw	a0,568(ra)

00000abe <inst_143>:
     abe:	333335b7          	lui	a1,0x33333
     ac2:	33458593          	add	a1,a1,820 # 33333334 <_end+0x3332f9f4>
     ac6:	55555537          	lui	a0,0x55555
     aca:	55550513          	add	a0,a0,1365 # 55555555 <_end+0x55551c15>
     ace:	8d6d                	and	a0,a0,a1
     ad0:	22a0ae23          	sw	a0,572(ra)

00000ad4 <inst_144>:
     ad4:	666665b7          	lui	a1,0x66666
     ad8:	66758593          	add	a1,a1,1639 # 66666667 <_end+0x66662d27>
     adc:	55555537          	lui	a0,0x55555
     ae0:	55550513          	add	a0,a0,1365 # 55555555 <_end+0x55551c15>
     ae4:	8d6d                	and	a0,a0,a1
     ae6:	24a0a023          	sw	a0,576(ra)

00000aea <inst_145>:
     aea:	ffff55b7          	lui	a1,0xffff5
     aee:	afd58593          	add	a1,a1,-1283 # ffff4afd <_end+0xffff11bd>
     af2:	55555537          	lui	a0,0x55555
     af6:	55550513          	add	a0,a0,1365 # 55555555 <_end+0x55551c15>
     afa:	8d6d                	and	a0,a0,a1
     afc:	24a0a223          	sw	a0,580(ra)

00000b00 <inst_146>:
     b00:	0000b5b7          	lui	a1,0xb
     b04:	50558593          	add	a1,a1,1285 # b505 <_end+0x7bc5>
     b08:	55555537          	lui	a0,0x55555
     b0c:	55550513          	add	a0,a0,1365 # 55555555 <_end+0x55551c15>
     b10:	8d6d                	and	a0,a0,a1
     b12:	24a0a423          	sw	a0,584(ra)

00000b16 <inst_147>:
     b16:	00300593          	li	a1,3
     b1a:	aaaab537          	lui	a0,0xaaaab
     b1e:	aaa50513          	add	a0,a0,-1366 # aaaaaaaa <_end+0xaaaa716a>
     b22:	8d6d                	and	a0,a0,a1
     b24:	24a0a623          	sw	a0,588(ra)

00000b28 <inst_148>:
     b28:	555555b7          	lui	a1,0x55555
     b2c:	55558593          	add	a1,a1,1365 # 55555555 <_end+0x55551c15>
     b30:	aaaab537          	lui	a0,0xaaaab
     b34:	aaa50513          	add	a0,a0,-1366 # aaaaaaaa <_end+0xaaaa716a>
     b38:	8d6d                	and	a0,a0,a1
     b3a:	24a0a823          	sw	a0,592(ra)

00000b3e <inst_149>:
     b3e:	aaaab5b7          	lui	a1,0xaaaab
     b42:	aaa58593          	add	a1,a1,-1366 # aaaaaaaa <_end+0xaaaa716a>
     b46:	aaaab537          	lui	a0,0xaaaab
     b4a:	aaa50513          	add	a0,a0,-1366 # aaaaaaaa <_end+0xaaaa716a>
     b4e:	8d6d                	and	a0,a0,a1
     b50:	24a0aa23          	sw	a0,596(ra)

00000b54 <inst_150>:
     b54:	00500593          	li	a1,5
     b58:	aaaab537          	lui	a0,0xaaaab
     b5c:	aaa50513          	add	a0,a0,-1366 # aaaaaaaa <_end+0xaaaa716a>
     b60:	8d6d                	and	a0,a0,a1
     b62:	24a0ac23          	sw	a0,600(ra)

00000b66 <inst_151>:
     b66:	333335b7          	lui	a1,0x33333
     b6a:	33358593          	add	a1,a1,819 # 33333333 <_end+0x3332f9f3>
     b6e:	aaaab537          	lui	a0,0xaaaab
     b72:	aaa50513          	add	a0,a0,-1366 # aaaaaaaa <_end+0xaaaa716a>
     b76:	8d6d                	and	a0,a0,a1
     b78:	24a0ae23          	sw	a0,604(ra)

00000b7c <inst_152>:
     b7c:	666665b7          	lui	a1,0x66666
     b80:	66658593          	add	a1,a1,1638 # 66666666 <_end+0x66662d26>
     b84:	aaaab537          	lui	a0,0xaaaab
     b88:	aaa50513          	add	a0,a0,-1366 # aaaaaaaa <_end+0xaaaa716a>
     b8c:	8d6d                	and	a0,a0,a1
     b8e:	26a0a023          	sw	a0,608(ra)

00000b92 <inst_153>:
     b92:	ffff55b7          	lui	a1,0xffff5
     b96:	afc58593          	add	a1,a1,-1284 # ffff4afc <_end+0xffff11bc>
     b9a:	aaaab537          	lui	a0,0xaaaab
     b9e:	aaa50513          	add	a0,a0,-1366 # aaaaaaaa <_end+0xaaaa716a>
     ba2:	8d6d                	and	a0,a0,a1
     ba4:	26a0a223          	sw	a0,612(ra)

00000ba8 <inst_154>:
     ba8:	0000b5b7          	lui	a1,0xb
     bac:	50458593          	add	a1,a1,1284 # b504 <_end+0x7bc4>
     bb0:	aaaab537          	lui	a0,0xaaaab
     bb4:	aaa50513          	add	a0,a0,-1366 # aaaaaaaa <_end+0xaaaa716a>
     bb8:	8d6d                	and	a0,a0,a1
     bba:	26a0a423          	sw	a0,616(ra)

00000bbe <inst_155>:
     bbe:	00200593          	li	a1,2
     bc2:	aaaab537          	lui	a0,0xaaaab
     bc6:	aaa50513          	add	a0,a0,-1366 # aaaaaaaa <_end+0xaaaa716a>
     bca:	8d6d                	and	a0,a0,a1
     bcc:	26a0a623          	sw	a0,620(ra)

00000bd0 <inst_156>:
     bd0:	555555b7          	lui	a1,0x55555
     bd4:	55458593          	add	a1,a1,1364 # 55555554 <_end+0x55551c14>
     bd8:	aaaab537          	lui	a0,0xaaaab
     bdc:	aaa50513          	add	a0,a0,-1366 # aaaaaaaa <_end+0xaaaa716a>
     be0:	8d6d                	and	a0,a0,a1
     be2:	26a0a823          	sw	a0,624(ra)

00000be6 <inst_157>:
     be6:	00000593          	li	a1,0
     bea:	aaaab537          	lui	a0,0xaaaab
     bee:	aaa50513          	add	a0,a0,-1366 # aaaaaaaa <_end+0xaaaa716a>
     bf2:	8d6d                	and	a0,a0,a1
     bf4:	26a0aa23          	sw	a0,628(ra)

00000bf8 <inst_158>:
     bf8:	00400593          	li	a1,4
     bfc:	aaaab537          	lui	a0,0xaaaab
     c00:	aaa50513          	add	a0,a0,-1366 # aaaaaaaa <_end+0xaaaa716a>
     c04:	8d6d                	and	a0,a0,a1
     c06:	26a0ac23          	sw	a0,632(ra)

00000c0a <inst_159>:
     c0a:	333335b7          	lui	a1,0x33333
     c0e:	33258593          	add	a1,a1,818 # 33333332 <_end+0x3332f9f2>
     c12:	aaaab537          	lui	a0,0xaaaab
     c16:	aaa50513          	add	a0,a0,-1366 # aaaaaaaa <_end+0xaaaa716a>
     c1a:	8d6d                	and	a0,a0,a1
     c1c:	26a0ae23          	sw	a0,636(ra)

00000c20 <inst_160>:
     c20:	666665b7          	lui	a1,0x66666
     c24:	66558593          	add	a1,a1,1637 # 66666665 <_end+0x66662d25>
     c28:	aaaab537          	lui	a0,0xaaaab
     c2c:	aaa50513          	add	a0,a0,-1366 # aaaaaaaa <_end+0xaaaa716a>
     c30:	8d6d                	and	a0,a0,a1
     c32:	28a0a023          	sw	a0,640(ra)

00000c36 <inst_161>:
     c36:	0000b5b7          	lui	a1,0xb
     c3a:	50358593          	add	a1,a1,1283 # b503 <_end+0x7bc3>
     c3e:	aaaab537          	lui	a0,0xaaaab
     c42:	aaa50513          	add	a0,a0,-1366 # aaaaaaaa <_end+0xaaaa716a>
     c46:	8d6d                	and	a0,a0,a1
     c48:	28a0a223          	sw	a0,644(ra)

00000c4c <inst_162>:
     c4c:	555555b7          	lui	a1,0x55555
     c50:	55658593          	add	a1,a1,1366 # 55555556 <_end+0x55551c16>
     c54:	aaaab537          	lui	a0,0xaaaab
     c58:	aaa50513          	add	a0,a0,-1366 # aaaaaaaa <_end+0xaaaa716a>
     c5c:	8d6d                	and	a0,a0,a1
     c5e:	28a0a423          	sw	a0,648(ra)

00000c62 <inst_163>:
     c62:	aaaab5b7          	lui	a1,0xaaaab
     c66:	aab58593          	add	a1,a1,-1365 # aaaaaaab <_end+0xaaaa716b>
     c6a:	aaaab537          	lui	a0,0xaaaab
     c6e:	aaa50513          	add	a0,a0,-1366 # aaaaaaaa <_end+0xaaaa716a>
     c72:	8d6d                	and	a0,a0,a1
     c74:	28a0a623          	sw	a0,652(ra)

00000c78 <inst_164>:
     c78:	00600593          	li	a1,6
     c7c:	aaaab537          	lui	a0,0xaaaab
     c80:	aaa50513          	add	a0,a0,-1366 # aaaaaaaa <_end+0xaaaa716a>
     c84:	8d6d                	and	a0,a0,a1
     c86:	28a0a823          	sw	a0,656(ra)

00000c8a <inst_165>:
     c8a:	333335b7          	lui	a1,0x33333
     c8e:	33458593          	add	a1,a1,820 # 33333334 <_end+0x3332f9f4>
     c92:	aaaab537          	lui	a0,0xaaaab
     c96:	aaa50513          	add	a0,a0,-1366 # aaaaaaaa <_end+0xaaaa716a>
     c9a:	8d6d                	and	a0,a0,a1
     c9c:	28a0aa23          	sw	a0,660(ra)

00000ca0 <inst_166>:
     ca0:	666665b7          	lui	a1,0x66666
     ca4:	66758593          	add	a1,a1,1639 # 66666667 <_end+0x66662d27>
     ca8:	aaaab537          	lui	a0,0xaaaab
     cac:	aaa50513          	add	a0,a0,-1366 # aaaaaaaa <_end+0xaaaa716a>
     cb0:	8d6d                	and	a0,a0,a1
     cb2:	28a0ac23          	sw	a0,664(ra)

00000cb6 <inst_167>:
     cb6:	ffff55b7          	lui	a1,0xffff5
     cba:	afd58593          	add	a1,a1,-1283 # ffff4afd <_end+0xffff11bd>
     cbe:	aaaab537          	lui	a0,0xaaaab
     cc2:	aaa50513          	add	a0,a0,-1366 # aaaaaaaa <_end+0xaaaa716a>
     cc6:	8d6d                	and	a0,a0,a1
     cc8:	28a0ae23          	sw	a0,668(ra)

00000ccc <inst_168>:
     ccc:	0000b5b7          	lui	a1,0xb
     cd0:	50558593          	add	a1,a1,1285 # b505 <_end+0x7bc5>
     cd4:	aaaab537          	lui	a0,0xaaaab
     cd8:	aaa50513          	add	a0,a0,-1366 # aaaaaaaa <_end+0xaaaa716a>
     cdc:	8d6d                	and	a0,a0,a1
     cde:	2aa0a023          	sw	a0,672(ra)

00000ce2 <inst_169>:
     ce2:	00300593          	li	a1,3
     ce6:	00500513          	li	a0,5
     cea:	8d6d                	and	a0,a0,a1
     cec:	2aa0a223          	sw	a0,676(ra)

00000cf0 <inst_170>:
     cf0:	555555b7          	lui	a1,0x55555
     cf4:	55558593          	add	a1,a1,1365 # 55555555 <_end+0x55551c15>
     cf8:	00500513          	li	a0,5
     cfc:	8d6d                	and	a0,a0,a1
     cfe:	2aa0a423          	sw	a0,680(ra)

00000d02 <inst_171>:
     d02:	aaaab5b7          	lui	a1,0xaaaab
     d06:	aaa58593          	add	a1,a1,-1366 # aaaaaaaa <_end+0xaaaa716a>
     d0a:	00500513          	li	a0,5
     d0e:	8d6d                	and	a0,a0,a1
     d10:	2aa0a623          	sw	a0,684(ra)

00000d14 <inst_172>:
     d14:	00500593          	li	a1,5
     d18:	00500513          	li	a0,5
     d1c:	8d6d                	and	a0,a0,a1
     d1e:	2aa0a823          	sw	a0,688(ra)

00000d22 <inst_173>:
     d22:	333335b7          	lui	a1,0x33333
     d26:	33358593          	add	a1,a1,819 # 33333333 <_end+0x3332f9f3>
     d2a:	00500513          	li	a0,5
     d2e:	8d6d                	and	a0,a0,a1
     d30:	2aa0aa23          	sw	a0,692(ra)

00000d34 <inst_174>:
     d34:	666665b7          	lui	a1,0x66666
     d38:	66658593          	add	a1,a1,1638 # 66666666 <_end+0x66662d26>
     d3c:	00500513          	li	a0,5
     d40:	8d6d                	and	a0,a0,a1
     d42:	2aa0ac23          	sw	a0,696(ra)

00000d46 <inst_175>:
     d46:	ffff55b7          	lui	a1,0xffff5
     d4a:	afc58593          	add	a1,a1,-1284 # ffff4afc <_end+0xffff11bc>
     d4e:	00500513          	li	a0,5
     d52:	8d6d                	and	a0,a0,a1
     d54:	2aa0ae23          	sw	a0,700(ra)

00000d58 <inst_176>:
     d58:	0000b5b7          	lui	a1,0xb
     d5c:	50458593          	add	a1,a1,1284 # b504 <_end+0x7bc4>
     d60:	00500513          	li	a0,5
     d64:	8d6d                	and	a0,a0,a1
     d66:	2ca0a023          	sw	a0,704(ra)

00000d6a <inst_177>:
     d6a:	00200593          	li	a1,2
     d6e:	00500513          	li	a0,5
     d72:	8d6d                	and	a0,a0,a1
     d74:	2ca0a223          	sw	a0,708(ra)

00000d78 <inst_178>:
     d78:	555555b7          	lui	a1,0x55555
     d7c:	55458593          	add	a1,a1,1364 # 55555554 <_end+0x55551c14>
     d80:	00500513          	li	a0,5
     d84:	8d6d                	and	a0,a0,a1
     d86:	2ca0a423          	sw	a0,712(ra)

00000d8a <inst_179>:
     d8a:	00000593          	li	a1,0
     d8e:	00500513          	li	a0,5
     d92:	8d6d                	and	a0,a0,a1
     d94:	2ca0a623          	sw	a0,716(ra)

00000d98 <inst_180>:
     d98:	00400593          	li	a1,4
     d9c:	00500513          	li	a0,5
     da0:	8d6d                	and	a0,a0,a1
     da2:	2ca0a823          	sw	a0,720(ra)

00000da6 <inst_181>:
     da6:	333335b7          	lui	a1,0x33333
     daa:	33258593          	add	a1,a1,818 # 33333332 <_end+0x3332f9f2>
     dae:	00500513          	li	a0,5
     db2:	8d6d                	and	a0,a0,a1
     db4:	2ca0aa23          	sw	a0,724(ra)

00000db8 <inst_182>:
     db8:	666665b7          	lui	a1,0x66666
     dbc:	66558593          	add	a1,a1,1637 # 66666665 <_end+0x66662d25>
     dc0:	00500513          	li	a0,5
     dc4:	8d6d                	and	a0,a0,a1
     dc6:	2ca0ac23          	sw	a0,728(ra)

00000dca <inst_183>:
     dca:	0000b5b7          	lui	a1,0xb
     dce:	50358593          	add	a1,a1,1283 # b503 <_end+0x7bc3>
     dd2:	00500513          	li	a0,5
     dd6:	8d6d                	and	a0,a0,a1
     dd8:	2ca0ae23          	sw	a0,732(ra)

00000ddc <inst_184>:
     ddc:	555555b7          	lui	a1,0x55555
     de0:	55658593          	add	a1,a1,1366 # 55555556 <_end+0x55551c16>
     de4:	00500513          	li	a0,5
     de8:	8d6d                	and	a0,a0,a1
     dea:	2ea0a023          	sw	a0,736(ra)

00000dee <inst_185>:
     dee:	aaaab5b7          	lui	a1,0xaaaab
     df2:	aab58593          	add	a1,a1,-1365 # aaaaaaab <_end+0xaaaa716b>
     df6:	00500513          	li	a0,5
     dfa:	8d6d                	and	a0,a0,a1
     dfc:	2ea0a223          	sw	a0,740(ra)

00000e00 <inst_186>:
     e00:	00600593          	li	a1,6
     e04:	00500513          	li	a0,5
     e08:	8d6d                	and	a0,a0,a1
     e0a:	2ea0a423          	sw	a0,744(ra)

00000e0e <inst_187>:
     e0e:	333335b7          	lui	a1,0x33333
     e12:	33458593          	add	a1,a1,820 # 33333334 <_end+0x3332f9f4>
     e16:	00500513          	li	a0,5
     e1a:	8d6d                	and	a0,a0,a1
     e1c:	2ea0a623          	sw	a0,748(ra)

00000e20 <inst_188>:
     e20:	666665b7          	lui	a1,0x66666
     e24:	66758593          	add	a1,a1,1639 # 66666667 <_end+0x66662d27>
     e28:	00500513          	li	a0,5
     e2c:	8d6d                	and	a0,a0,a1
     e2e:	2ea0a823          	sw	a0,752(ra)

00000e32 <inst_189>:
     e32:	ffff55b7          	lui	a1,0xffff5
     e36:	afd58593          	add	a1,a1,-1283 # ffff4afd <_end+0xffff11bd>
     e3a:	00500513          	li	a0,5
     e3e:	8d6d                	and	a0,a0,a1
     e40:	2ea0aa23          	sw	a0,756(ra)

00000e44 <inst_190>:
     e44:	0000b5b7          	lui	a1,0xb
     e48:	50558593          	add	a1,a1,1285 # b505 <_end+0x7bc5>
     e4c:	00500513          	li	a0,5
     e50:	8d6d                	and	a0,a0,a1
     e52:	2ea0ac23          	sw	a0,760(ra)

00000e56 <inst_191>:
     e56:	00300593          	li	a1,3
     e5a:	33333537          	lui	a0,0x33333
     e5e:	33350513          	add	a0,a0,819 # 33333333 <_end+0x3332f9f3>
     e62:	8d6d                	and	a0,a0,a1
     e64:	2ea0ae23          	sw	a0,764(ra)

00000e68 <inst_192>:
     e68:	555555b7          	lui	a1,0x55555
     e6c:	55558593          	add	a1,a1,1365 # 55555555 <_end+0x55551c15>
     e70:	33333537          	lui	a0,0x33333
     e74:	33350513          	add	a0,a0,819 # 33333333 <_end+0x3332f9f3>
     e78:	8d6d                	and	a0,a0,a1
     e7a:	30a0a023          	sw	a0,768(ra)

00000e7e <inst_193>:
     e7e:	aaaab5b7          	lui	a1,0xaaaab
     e82:	aaa58593          	add	a1,a1,-1366 # aaaaaaaa <_end+0xaaaa716a>
     e86:	33333537          	lui	a0,0x33333
     e8a:	33350513          	add	a0,a0,819 # 33333333 <_end+0x3332f9f3>
     e8e:	8d6d                	and	a0,a0,a1
     e90:	30a0a223          	sw	a0,772(ra)

00000e94 <inst_194>:
     e94:	00500593          	li	a1,5
     e98:	33333537          	lui	a0,0x33333
     e9c:	33350513          	add	a0,a0,819 # 33333333 <_end+0x3332f9f3>
     ea0:	8d6d                	and	a0,a0,a1
     ea2:	30a0a423          	sw	a0,776(ra)

00000ea6 <inst_195>:
     ea6:	333335b7          	lui	a1,0x33333
     eaa:	33358593          	add	a1,a1,819 # 33333333 <_end+0x3332f9f3>
     eae:	33333537          	lui	a0,0x33333
     eb2:	33350513          	add	a0,a0,819 # 33333333 <_end+0x3332f9f3>
     eb6:	8d6d                	and	a0,a0,a1
     eb8:	30a0a623          	sw	a0,780(ra)

00000ebc <inst_196>:
     ebc:	666665b7          	lui	a1,0x66666
     ec0:	66658593          	add	a1,a1,1638 # 66666666 <_end+0x66662d26>
     ec4:	33333537          	lui	a0,0x33333
     ec8:	33350513          	add	a0,a0,819 # 33333333 <_end+0x3332f9f3>
     ecc:	8d6d                	and	a0,a0,a1
     ece:	30a0a823          	sw	a0,784(ra)

00000ed2 <inst_197>:
     ed2:	ffff55b7          	lui	a1,0xffff5
     ed6:	afc58593          	add	a1,a1,-1284 # ffff4afc <_end+0xffff11bc>
     eda:	33333537          	lui	a0,0x33333
     ede:	33350513          	add	a0,a0,819 # 33333333 <_end+0x3332f9f3>
     ee2:	8d6d                	and	a0,a0,a1
     ee4:	30a0aa23          	sw	a0,788(ra)

00000ee8 <inst_198>:
     ee8:	0000b5b7          	lui	a1,0xb
     eec:	50458593          	add	a1,a1,1284 # b504 <_end+0x7bc4>
     ef0:	33333537          	lui	a0,0x33333
     ef4:	33350513          	add	a0,a0,819 # 33333333 <_end+0x3332f9f3>
     ef8:	8d6d                	and	a0,a0,a1
     efa:	30a0ac23          	sw	a0,792(ra)

00000efe <inst_199>:
     efe:	00200593          	li	a1,2
     f02:	33333537          	lui	a0,0x33333
     f06:	33350513          	add	a0,a0,819 # 33333333 <_end+0x3332f9f3>
     f0a:	8d6d                	and	a0,a0,a1
     f0c:	30a0ae23          	sw	a0,796(ra)

00000f10 <inst_200>:
     f10:	555555b7          	lui	a1,0x55555
     f14:	55458593          	add	a1,a1,1364 # 55555554 <_end+0x55551c14>
     f18:	33333537          	lui	a0,0x33333
     f1c:	33350513          	add	a0,a0,819 # 33333333 <_end+0x3332f9f3>
     f20:	8d6d                	and	a0,a0,a1
     f22:	32a0a023          	sw	a0,800(ra)

00000f26 <inst_201>:
     f26:	00000593          	li	a1,0
     f2a:	33333537          	lui	a0,0x33333
     f2e:	33350513          	add	a0,a0,819 # 33333333 <_end+0x3332f9f3>
     f32:	8d6d                	and	a0,a0,a1
     f34:	32a0a223          	sw	a0,804(ra)

00000f38 <inst_202>:
     f38:	00400593          	li	a1,4
     f3c:	33333537          	lui	a0,0x33333
     f40:	33350513          	add	a0,a0,819 # 33333333 <_end+0x3332f9f3>
     f44:	8d6d                	and	a0,a0,a1
     f46:	32a0a423          	sw	a0,808(ra)

00000f4a <inst_203>:
     f4a:	333335b7          	lui	a1,0x33333
     f4e:	33258593          	add	a1,a1,818 # 33333332 <_end+0x3332f9f2>
     f52:	33333537          	lui	a0,0x33333
     f56:	33350513          	add	a0,a0,819 # 33333333 <_end+0x3332f9f3>
     f5a:	8d6d                	and	a0,a0,a1
     f5c:	32a0a623          	sw	a0,812(ra)

00000f60 <inst_204>:
     f60:	666665b7          	lui	a1,0x66666
     f64:	66558593          	add	a1,a1,1637 # 66666665 <_end+0x66662d25>
     f68:	33333537          	lui	a0,0x33333
     f6c:	33350513          	add	a0,a0,819 # 33333333 <_end+0x3332f9f3>
     f70:	8d6d                	and	a0,a0,a1
     f72:	32a0a823          	sw	a0,816(ra)

00000f76 <inst_205>:
     f76:	0000b5b7          	lui	a1,0xb
     f7a:	50358593          	add	a1,a1,1283 # b503 <_end+0x7bc3>
     f7e:	33333537          	lui	a0,0x33333
     f82:	33350513          	add	a0,a0,819 # 33333333 <_end+0x3332f9f3>
     f86:	8d6d                	and	a0,a0,a1
     f88:	32a0aa23          	sw	a0,820(ra)

00000f8c <inst_206>:
     f8c:	555555b7          	lui	a1,0x55555
     f90:	55658593          	add	a1,a1,1366 # 55555556 <_end+0x55551c16>
     f94:	33333537          	lui	a0,0x33333
     f98:	33350513          	add	a0,a0,819 # 33333333 <_end+0x3332f9f3>
     f9c:	8d6d                	and	a0,a0,a1
     f9e:	32a0ac23          	sw	a0,824(ra)

00000fa2 <inst_207>:
     fa2:	aaaab5b7          	lui	a1,0xaaaab
     fa6:	aab58593          	add	a1,a1,-1365 # aaaaaaab <_end+0xaaaa716b>
     faa:	33333537          	lui	a0,0x33333
     fae:	33350513          	add	a0,a0,819 # 33333333 <_end+0x3332f9f3>
     fb2:	8d6d                	and	a0,a0,a1
     fb4:	32a0ae23          	sw	a0,828(ra)

00000fb8 <inst_208>:
     fb8:	00600593          	li	a1,6
     fbc:	33333537          	lui	a0,0x33333
     fc0:	33350513          	add	a0,a0,819 # 33333333 <_end+0x3332f9f3>
     fc4:	8d6d                	and	a0,a0,a1
     fc6:	34a0a023          	sw	a0,832(ra)

00000fca <inst_209>:
     fca:	333335b7          	lui	a1,0x33333
     fce:	33458593          	add	a1,a1,820 # 33333334 <_end+0x3332f9f4>
     fd2:	33333537          	lui	a0,0x33333
     fd6:	33350513          	add	a0,a0,819 # 33333333 <_end+0x3332f9f3>
     fda:	8d6d                	and	a0,a0,a1
     fdc:	34a0a223          	sw	a0,836(ra)

00000fe0 <inst_210>:
     fe0:	666665b7          	lui	a1,0x66666
     fe4:	66758593          	add	a1,a1,1639 # 66666667 <_end+0x66662d27>
     fe8:	33333537          	lui	a0,0x33333
     fec:	33350513          	add	a0,a0,819 # 33333333 <_end+0x3332f9f3>
     ff0:	8d6d                	and	a0,a0,a1
     ff2:	34a0a423          	sw	a0,840(ra)

00000ff6 <inst_211>:
     ff6:	ffff55b7          	lui	a1,0xffff5
     ffa:	afd58593          	add	a1,a1,-1283 # ffff4afd <_end+0xffff11bd>
     ffe:	33333537          	lui	a0,0x33333
    1002:	33350513          	add	a0,a0,819 # 33333333 <_end+0x3332f9f3>
    1006:	8d6d                	and	a0,a0,a1
    1008:	34a0a623          	sw	a0,844(ra)

0000100c <inst_212>:
    100c:	0000b5b7          	lui	a1,0xb
    1010:	50558593          	add	a1,a1,1285 # b505 <_end+0x7bc5>
    1014:	33333537          	lui	a0,0x33333
    1018:	33350513          	add	a0,a0,819 # 33333333 <_end+0x3332f9f3>
    101c:	8d6d                	and	a0,a0,a1
    101e:	34a0a823          	sw	a0,848(ra)

00001022 <inst_213>:
    1022:	00300593          	li	a1,3
    1026:	66666537          	lui	a0,0x66666
    102a:	66650513          	add	a0,a0,1638 # 66666666 <_end+0x66662d26>
    102e:	8d6d                	and	a0,a0,a1
    1030:	34a0aa23          	sw	a0,852(ra)

00001034 <inst_214>:
    1034:	555555b7          	lui	a1,0x55555
    1038:	55558593          	add	a1,a1,1365 # 55555555 <_end+0x55551c15>
    103c:	66666537          	lui	a0,0x66666
    1040:	66650513          	add	a0,a0,1638 # 66666666 <_end+0x66662d26>
    1044:	8d6d                	and	a0,a0,a1
    1046:	34a0ac23          	sw	a0,856(ra)

0000104a <inst_215>:
    104a:	aaaab5b7          	lui	a1,0xaaaab
    104e:	aaa58593          	add	a1,a1,-1366 # aaaaaaaa <_end+0xaaaa716a>
    1052:	66666537          	lui	a0,0x66666
    1056:	66650513          	add	a0,a0,1638 # 66666666 <_end+0x66662d26>
    105a:	8d6d                	and	a0,a0,a1
    105c:	34a0ae23          	sw	a0,860(ra)

00001060 <inst_216>:
    1060:	00500593          	li	a1,5
    1064:	66666537          	lui	a0,0x66666
    1068:	66650513          	add	a0,a0,1638 # 66666666 <_end+0x66662d26>
    106c:	8d6d                	and	a0,a0,a1
    106e:	36a0a023          	sw	a0,864(ra)

00001072 <inst_217>:
    1072:	333335b7          	lui	a1,0x33333
    1076:	33358593          	add	a1,a1,819 # 33333333 <_end+0x3332f9f3>
    107a:	66666537          	lui	a0,0x66666
    107e:	66650513          	add	a0,a0,1638 # 66666666 <_end+0x66662d26>
    1082:	8d6d                	and	a0,a0,a1
    1084:	36a0a223          	sw	a0,868(ra)

00001088 <inst_218>:
    1088:	666665b7          	lui	a1,0x66666
    108c:	66658593          	add	a1,a1,1638 # 66666666 <_end+0x66662d26>
    1090:	66666537          	lui	a0,0x66666
    1094:	66650513          	add	a0,a0,1638 # 66666666 <_end+0x66662d26>
    1098:	8d6d                	and	a0,a0,a1
    109a:	36a0a423          	sw	a0,872(ra)

0000109e <inst_219>:
    109e:	ffff55b7          	lui	a1,0xffff5
    10a2:	afc58593          	add	a1,a1,-1284 # ffff4afc <_end+0xffff11bc>
    10a6:	66666537          	lui	a0,0x66666
    10aa:	66650513          	add	a0,a0,1638 # 66666666 <_end+0x66662d26>
    10ae:	8d6d                	and	a0,a0,a1
    10b0:	36a0a623          	sw	a0,876(ra)

000010b4 <inst_220>:
    10b4:	0000b5b7          	lui	a1,0xb
    10b8:	50458593          	add	a1,a1,1284 # b504 <_end+0x7bc4>
    10bc:	66666537          	lui	a0,0x66666
    10c0:	66650513          	add	a0,a0,1638 # 66666666 <_end+0x66662d26>
    10c4:	8d6d                	and	a0,a0,a1
    10c6:	36a0a823          	sw	a0,880(ra)

000010ca <inst_221>:
    10ca:	00200593          	li	a1,2
    10ce:	66666537          	lui	a0,0x66666
    10d2:	66650513          	add	a0,a0,1638 # 66666666 <_end+0x66662d26>
    10d6:	8d6d                	and	a0,a0,a1
    10d8:	36a0aa23          	sw	a0,884(ra)

000010dc <inst_222>:
    10dc:	555555b7          	lui	a1,0x55555
    10e0:	55458593          	add	a1,a1,1364 # 55555554 <_end+0x55551c14>
    10e4:	66666537          	lui	a0,0x66666
    10e8:	66650513          	add	a0,a0,1638 # 66666666 <_end+0x66662d26>
    10ec:	8d6d                	and	a0,a0,a1
    10ee:	36a0ac23          	sw	a0,888(ra)

000010f2 <inst_223>:
    10f2:	00000593          	li	a1,0
    10f6:	66666537          	lui	a0,0x66666
    10fa:	66650513          	add	a0,a0,1638 # 66666666 <_end+0x66662d26>
    10fe:	8d6d                	and	a0,a0,a1
    1100:	36a0ae23          	sw	a0,892(ra)

00001104 <inst_224>:
    1104:	00400593          	li	a1,4
    1108:	66666537          	lui	a0,0x66666
    110c:	66650513          	add	a0,a0,1638 # 66666666 <_end+0x66662d26>
    1110:	8d6d                	and	a0,a0,a1
    1112:	38a0a023          	sw	a0,896(ra)

00001116 <inst_225>:
    1116:	333335b7          	lui	a1,0x33333
    111a:	33258593          	add	a1,a1,818 # 33333332 <_end+0x3332f9f2>
    111e:	66666537          	lui	a0,0x66666
    1122:	66650513          	add	a0,a0,1638 # 66666666 <_end+0x66662d26>
    1126:	8d6d                	and	a0,a0,a1
    1128:	38a0a223          	sw	a0,900(ra)

0000112c <inst_226>:
    112c:	666665b7          	lui	a1,0x66666
    1130:	66558593          	add	a1,a1,1637 # 66666665 <_end+0x66662d25>
    1134:	66666537          	lui	a0,0x66666
    1138:	66650513          	add	a0,a0,1638 # 66666666 <_end+0x66662d26>
    113c:	8d6d                	and	a0,a0,a1
    113e:	38a0a423          	sw	a0,904(ra)

00001142 <inst_227>:
    1142:	0000b5b7          	lui	a1,0xb
    1146:	50358593          	add	a1,a1,1283 # b503 <_end+0x7bc3>
    114a:	66666537          	lui	a0,0x66666
    114e:	66650513          	add	a0,a0,1638 # 66666666 <_end+0x66662d26>
    1152:	8d6d                	and	a0,a0,a1
    1154:	38a0a623          	sw	a0,908(ra)

00001158 <inst_228>:
    1158:	555555b7          	lui	a1,0x55555
    115c:	55658593          	add	a1,a1,1366 # 55555556 <_end+0x55551c16>
    1160:	66666537          	lui	a0,0x66666
    1164:	66650513          	add	a0,a0,1638 # 66666666 <_end+0x66662d26>
    1168:	8d6d                	and	a0,a0,a1
    116a:	38a0a823          	sw	a0,912(ra)

0000116e <inst_229>:
    116e:	aaaab5b7          	lui	a1,0xaaaab
    1172:	aab58593          	add	a1,a1,-1365 # aaaaaaab <_end+0xaaaa716b>
    1176:	66666537          	lui	a0,0x66666
    117a:	66650513          	add	a0,a0,1638 # 66666666 <_end+0x66662d26>
    117e:	8d6d                	and	a0,a0,a1
    1180:	38a0aa23          	sw	a0,916(ra)

00001184 <inst_230>:
    1184:	00600593          	li	a1,6
    1188:	66666537          	lui	a0,0x66666
    118c:	66650513          	add	a0,a0,1638 # 66666666 <_end+0x66662d26>
    1190:	8d6d                	and	a0,a0,a1
    1192:	38a0ac23          	sw	a0,920(ra)

00001196 <inst_231>:
    1196:	333335b7          	lui	a1,0x33333
    119a:	33458593          	add	a1,a1,820 # 33333334 <_end+0x3332f9f4>
    119e:	66666537          	lui	a0,0x66666
    11a2:	66650513          	add	a0,a0,1638 # 66666666 <_end+0x66662d26>
    11a6:	8d6d                	and	a0,a0,a1
    11a8:	38a0ae23          	sw	a0,924(ra)

000011ac <inst_232>:
    11ac:	666665b7          	lui	a1,0x66666
    11b0:	66758593          	add	a1,a1,1639 # 66666667 <_end+0x66662d27>
    11b4:	66666537          	lui	a0,0x66666
    11b8:	66650513          	add	a0,a0,1638 # 66666666 <_end+0x66662d26>
    11bc:	8d6d                	and	a0,a0,a1
    11be:	3aa0a023          	sw	a0,928(ra)

000011c2 <inst_233>:
    11c2:	ffff55b7          	lui	a1,0xffff5
    11c6:	afd58593          	add	a1,a1,-1283 # ffff4afd <_end+0xffff11bd>
    11ca:	66666537          	lui	a0,0x66666
    11ce:	66650513          	add	a0,a0,1638 # 66666666 <_end+0x66662d26>
    11d2:	8d6d                	and	a0,a0,a1
    11d4:	3aa0a223          	sw	a0,932(ra)

000011d8 <inst_234>:
    11d8:	0000b5b7          	lui	a1,0xb
    11dc:	50558593          	add	a1,a1,1285 # b505 <_end+0x7bc5>
    11e0:	66666537          	lui	a0,0x66666
    11e4:	66650513          	add	a0,a0,1638 # 66666666 <_end+0x66662d26>
    11e8:	8d6d                	and	a0,a0,a1
    11ea:	3aa0a423          	sw	a0,936(ra)

000011ee <inst_235>:
    11ee:	00300593          	li	a1,3
    11f2:	ffff5537          	lui	a0,0xffff5
    11f6:	afc50513          	add	a0,a0,-1284 # ffff4afc <_end+0xffff11bc>
    11fa:	8d6d                	and	a0,a0,a1
    11fc:	3aa0a623          	sw	a0,940(ra)

00001200 <inst_236>:
    1200:	555555b7          	lui	a1,0x55555
    1204:	55558593          	add	a1,a1,1365 # 55555555 <_end+0x55551c15>
    1208:	ffff5537          	lui	a0,0xffff5
    120c:	afc50513          	add	a0,a0,-1284 # ffff4afc <_end+0xffff11bc>
    1210:	8d6d                	and	a0,a0,a1
    1212:	3aa0a823          	sw	a0,944(ra)

00001216 <inst_237>:
    1216:	aaaab5b7          	lui	a1,0xaaaab
    121a:	aaa58593          	add	a1,a1,-1366 # aaaaaaaa <_end+0xaaaa716a>
    121e:	ffff5537          	lui	a0,0xffff5
    1222:	afc50513          	add	a0,a0,-1284 # ffff4afc <_end+0xffff11bc>
    1226:	8d6d                	and	a0,a0,a1
    1228:	3aa0aa23          	sw	a0,948(ra)

0000122c <inst_238>:
    122c:	00500593          	li	a1,5
    1230:	ffff5537          	lui	a0,0xffff5
    1234:	afc50513          	add	a0,a0,-1284 # ffff4afc <_end+0xffff11bc>
    1238:	8d6d                	and	a0,a0,a1
    123a:	3aa0ac23          	sw	a0,952(ra)

0000123e <inst_239>:
    123e:	333335b7          	lui	a1,0x33333
    1242:	33358593          	add	a1,a1,819 # 33333333 <_end+0x3332f9f3>
    1246:	ffff5537          	lui	a0,0xffff5
    124a:	afc50513          	add	a0,a0,-1284 # ffff4afc <_end+0xffff11bc>
    124e:	8d6d                	and	a0,a0,a1
    1250:	3aa0ae23          	sw	a0,956(ra)

00001254 <inst_240>:
    1254:	666665b7          	lui	a1,0x66666
    1258:	66658593          	add	a1,a1,1638 # 66666666 <_end+0x66662d26>
    125c:	ffff5537          	lui	a0,0xffff5
    1260:	afc50513          	add	a0,a0,-1284 # ffff4afc <_end+0xffff11bc>
    1264:	8d6d                	and	a0,a0,a1
    1266:	3ca0a023          	sw	a0,960(ra)

0000126a <inst_241>:
    126a:	ffff55b7          	lui	a1,0xffff5
    126e:	afc58593          	add	a1,a1,-1284 # ffff4afc <_end+0xffff11bc>
    1272:	ffff5537          	lui	a0,0xffff5
    1276:	afc50513          	add	a0,a0,-1284 # ffff4afc <_end+0xffff11bc>
    127a:	8d6d                	and	a0,a0,a1
    127c:	3ca0a223          	sw	a0,964(ra)

00001280 <inst_242>:
    1280:	0000b5b7          	lui	a1,0xb
    1284:	50458593          	add	a1,a1,1284 # b504 <_end+0x7bc4>
    1288:	ffff5537          	lui	a0,0xffff5
    128c:	afc50513          	add	a0,a0,-1284 # ffff4afc <_end+0xffff11bc>
    1290:	8d6d                	and	a0,a0,a1
    1292:	3ca0a423          	sw	a0,968(ra)

00001296 <inst_243>:
    1296:	00200593          	li	a1,2
    129a:	ffff5537          	lui	a0,0xffff5
    129e:	afc50513          	add	a0,a0,-1284 # ffff4afc <_end+0xffff11bc>
    12a2:	8d6d                	and	a0,a0,a1
    12a4:	3ca0a623          	sw	a0,972(ra)

000012a8 <inst_244>:
    12a8:	555555b7          	lui	a1,0x55555
    12ac:	55458593          	add	a1,a1,1364 # 55555554 <_end+0x55551c14>
    12b0:	ffff5537          	lui	a0,0xffff5
    12b4:	afc50513          	add	a0,a0,-1284 # ffff4afc <_end+0xffff11bc>
    12b8:	8d6d                	and	a0,a0,a1
    12ba:	3ca0a823          	sw	a0,976(ra)

000012be <inst_245>:
    12be:	00000593          	li	a1,0
    12c2:	ffff5537          	lui	a0,0xffff5
    12c6:	afc50513          	add	a0,a0,-1284 # ffff4afc <_end+0xffff11bc>
    12ca:	8d6d                	and	a0,a0,a1
    12cc:	3ca0aa23          	sw	a0,980(ra)

000012d0 <inst_246>:
    12d0:	00400593          	li	a1,4
    12d4:	ffff5537          	lui	a0,0xffff5
    12d8:	afc50513          	add	a0,a0,-1284 # ffff4afc <_end+0xffff11bc>
    12dc:	8d6d                	and	a0,a0,a1
    12de:	3ca0ac23          	sw	a0,984(ra)

000012e2 <inst_247>:
    12e2:	333335b7          	lui	a1,0x33333
    12e6:	33258593          	add	a1,a1,818 # 33333332 <_end+0x3332f9f2>
    12ea:	ffff5537          	lui	a0,0xffff5
    12ee:	afc50513          	add	a0,a0,-1284 # ffff4afc <_end+0xffff11bc>
    12f2:	8d6d                	and	a0,a0,a1
    12f4:	3ca0ae23          	sw	a0,988(ra)

000012f8 <inst_248>:
    12f8:	666665b7          	lui	a1,0x66666
    12fc:	66558593          	add	a1,a1,1637 # 66666665 <_end+0x66662d25>
    1300:	ffff5537          	lui	a0,0xffff5
    1304:	afc50513          	add	a0,a0,-1284 # ffff4afc <_end+0xffff11bc>
    1308:	8d6d                	and	a0,a0,a1
    130a:	3ea0a023          	sw	a0,992(ra)

0000130e <inst_249>:
    130e:	0000b5b7          	lui	a1,0xb
    1312:	50358593          	add	a1,a1,1283 # b503 <_end+0x7bc3>
    1316:	ffff5537          	lui	a0,0xffff5
    131a:	afc50513          	add	a0,a0,-1284 # ffff4afc <_end+0xffff11bc>
    131e:	8d6d                	and	a0,a0,a1
    1320:	3ea0a223          	sw	a0,996(ra)

00001324 <inst_250>:
    1324:	555555b7          	lui	a1,0x55555
    1328:	55658593          	add	a1,a1,1366 # 55555556 <_end+0x55551c16>
    132c:	ffff5537          	lui	a0,0xffff5
    1330:	afc50513          	add	a0,a0,-1284 # ffff4afc <_end+0xffff11bc>
    1334:	8d6d                	and	a0,a0,a1
    1336:	3ea0a423          	sw	a0,1000(ra)

0000133a <inst_251>:
    133a:	aaaab5b7          	lui	a1,0xaaaab
    133e:	aab58593          	add	a1,a1,-1365 # aaaaaaab <_end+0xaaaa716b>
    1342:	ffff5537          	lui	a0,0xffff5
    1346:	afc50513          	add	a0,a0,-1284 # ffff4afc <_end+0xffff11bc>
    134a:	8d6d                	and	a0,a0,a1
    134c:	3ea0a623          	sw	a0,1004(ra)

00001350 <inst_252>:
    1350:	00600593          	li	a1,6
    1354:	ffff5537          	lui	a0,0xffff5
    1358:	afc50513          	add	a0,a0,-1284 # ffff4afc <_end+0xffff11bc>
    135c:	8d6d                	and	a0,a0,a1
    135e:	3ea0a823          	sw	a0,1008(ra)

00001362 <inst_253>:
    1362:	333335b7          	lui	a1,0x33333
    1366:	33458593          	add	a1,a1,820 # 33333334 <_end+0x3332f9f4>
    136a:	ffff5537          	lui	a0,0xffff5
    136e:	afc50513          	add	a0,a0,-1284 # ffff4afc <_end+0xffff11bc>
    1372:	8d6d                	and	a0,a0,a1
    1374:	3ea0aa23          	sw	a0,1012(ra)

00001378 <inst_254>:
    1378:	666665b7          	lui	a1,0x66666
    137c:	66758593          	add	a1,a1,1639 # 66666667 <_end+0x66662d27>
    1380:	ffff5537          	lui	a0,0xffff5
    1384:	afc50513          	add	a0,a0,-1284 # ffff4afc <_end+0xffff11bc>
    1388:	8d6d                	and	a0,a0,a1
    138a:	3ea0ac23          	sw	a0,1016(ra)

0000138e <inst_255>:
    138e:	ffff55b7          	lui	a1,0xffff5
    1392:	afd58593          	add	a1,a1,-1283 # ffff4afd <_end+0xffff11bd>
    1396:	ffff5537          	lui	a0,0xffff5
    139a:	afc50513          	add	a0,a0,-1284 # ffff4afc <_end+0xffff11bc>
    139e:	8d6d                	and	a0,a0,a1
    13a0:	3ea0ae23          	sw	a0,1020(ra)

000013a4 <inst_256>:
    13a4:	0000b5b7          	lui	a1,0xb
    13a8:	50558593          	add	a1,a1,1285 # b505 <_end+0x7bc5>
    13ac:	ffff5537          	lui	a0,0xffff5
    13b0:	afc50513          	add	a0,a0,-1284 # ffff4afc <_end+0xffff11bc>
    13b4:	8d6d                	and	a0,a0,a1
    13b6:	40a0a023          	sw	a0,1024(ra)

000013ba <inst_257>:
    13ba:	00300593          	li	a1,3
    13be:	0000b537          	lui	a0,0xb
    13c2:	50450513          	add	a0,a0,1284 # b504 <_end+0x7bc4>
    13c6:	8d6d                	and	a0,a0,a1
    13c8:	40a0a223          	sw	a0,1028(ra)

000013cc <inst_258>:
    13cc:	555555b7          	lui	a1,0x55555
    13d0:	55558593          	add	a1,a1,1365 # 55555555 <_end+0x55551c15>
    13d4:	0000b537          	lui	a0,0xb
    13d8:	50450513          	add	a0,a0,1284 # b504 <_end+0x7bc4>
    13dc:	8d6d                	and	a0,a0,a1
    13de:	40a0a423          	sw	a0,1032(ra)

000013e2 <inst_259>:
    13e2:	aaaab5b7          	lui	a1,0xaaaab
    13e6:	aaa58593          	add	a1,a1,-1366 # aaaaaaaa <_end+0xaaaa716a>
    13ea:	0000b537          	lui	a0,0xb
    13ee:	50450513          	add	a0,a0,1284 # b504 <_end+0x7bc4>
    13f2:	8d6d                	and	a0,a0,a1
    13f4:	40a0a623          	sw	a0,1036(ra)

000013f8 <inst_260>:
    13f8:	00500593          	li	a1,5
    13fc:	0000b537          	lui	a0,0xb
    1400:	50450513          	add	a0,a0,1284 # b504 <_end+0x7bc4>
    1404:	8d6d                	and	a0,a0,a1
    1406:	40a0a823          	sw	a0,1040(ra)

0000140a <inst_261>:
    140a:	333335b7          	lui	a1,0x33333
    140e:	33358593          	add	a1,a1,819 # 33333333 <_end+0x3332f9f3>
    1412:	0000b537          	lui	a0,0xb
    1416:	50450513          	add	a0,a0,1284 # b504 <_end+0x7bc4>
    141a:	8d6d                	and	a0,a0,a1
    141c:	40a0aa23          	sw	a0,1044(ra)

00001420 <inst_262>:
    1420:	666665b7          	lui	a1,0x66666
    1424:	66658593          	add	a1,a1,1638 # 66666666 <_end+0x66662d26>
    1428:	0000b537          	lui	a0,0xb
    142c:	50450513          	add	a0,a0,1284 # b504 <_end+0x7bc4>
    1430:	8d6d                	and	a0,a0,a1
    1432:	40a0ac23          	sw	a0,1048(ra)

00001436 <inst_263>:
    1436:	ffff55b7          	lui	a1,0xffff5
    143a:	afc58593          	add	a1,a1,-1284 # ffff4afc <_end+0xffff11bc>
    143e:	0000b537          	lui	a0,0xb
    1442:	50450513          	add	a0,a0,1284 # b504 <_end+0x7bc4>
    1446:	8d6d                	and	a0,a0,a1
    1448:	40a0ae23          	sw	a0,1052(ra)

0000144c <inst_264>:
    144c:	0000b5b7          	lui	a1,0xb
    1450:	50458593          	add	a1,a1,1284 # b504 <_end+0x7bc4>
    1454:	0000b537          	lui	a0,0xb
    1458:	50450513          	add	a0,a0,1284 # b504 <_end+0x7bc4>
    145c:	8d6d                	and	a0,a0,a1
    145e:	42a0a023          	sw	a0,1056(ra)

00001462 <inst_265>:
    1462:	00200593          	li	a1,2
    1466:	0000b537          	lui	a0,0xb
    146a:	50450513          	add	a0,a0,1284 # b504 <_end+0x7bc4>
    146e:	8d6d                	and	a0,a0,a1
    1470:	42a0a223          	sw	a0,1060(ra)

00001474 <inst_266>:
    1474:	555555b7          	lui	a1,0x55555
    1478:	55458593          	add	a1,a1,1364 # 55555554 <_end+0x55551c14>
    147c:	0000b537          	lui	a0,0xb
    1480:	50450513          	add	a0,a0,1284 # b504 <_end+0x7bc4>
    1484:	8d6d                	and	a0,a0,a1
    1486:	42a0a423          	sw	a0,1064(ra)

0000148a <inst_267>:
    148a:	00000593          	li	a1,0
    148e:	0000b537          	lui	a0,0xb
    1492:	50450513          	add	a0,a0,1284 # b504 <_end+0x7bc4>
    1496:	8d6d                	and	a0,a0,a1
    1498:	42a0a623          	sw	a0,1068(ra)

0000149c <inst_268>:
    149c:	00400593          	li	a1,4
    14a0:	0000b537          	lui	a0,0xb
    14a4:	50450513          	add	a0,a0,1284 # b504 <_end+0x7bc4>
    14a8:	8d6d                	and	a0,a0,a1
    14aa:	42a0a823          	sw	a0,1072(ra)

000014ae <inst_269>:
    14ae:	333335b7          	lui	a1,0x33333
    14b2:	33258593          	add	a1,a1,818 # 33333332 <_end+0x3332f9f2>
    14b6:	0000b537          	lui	a0,0xb
    14ba:	50450513          	add	a0,a0,1284 # b504 <_end+0x7bc4>
    14be:	8d6d                	and	a0,a0,a1
    14c0:	42a0aa23          	sw	a0,1076(ra)

000014c4 <inst_270>:
    14c4:	666665b7          	lui	a1,0x66666
    14c8:	66558593          	add	a1,a1,1637 # 66666665 <_end+0x66662d25>
    14cc:	0000b537          	lui	a0,0xb
    14d0:	50450513          	add	a0,a0,1284 # b504 <_end+0x7bc4>
    14d4:	8d6d                	and	a0,a0,a1
    14d6:	42a0ac23          	sw	a0,1080(ra)

000014da <inst_271>:
    14da:	0000b5b7          	lui	a1,0xb
    14de:	50358593          	add	a1,a1,1283 # b503 <_end+0x7bc3>
    14e2:	0000b537          	lui	a0,0xb
    14e6:	50450513          	add	a0,a0,1284 # b504 <_end+0x7bc4>
    14ea:	8d6d                	and	a0,a0,a1
    14ec:	42a0ae23          	sw	a0,1084(ra)

000014f0 <inst_272>:
    14f0:	555555b7          	lui	a1,0x55555
    14f4:	55658593          	add	a1,a1,1366 # 55555556 <_end+0x55551c16>
    14f8:	0000b537          	lui	a0,0xb
    14fc:	50450513          	add	a0,a0,1284 # b504 <_end+0x7bc4>
    1500:	8d6d                	and	a0,a0,a1
    1502:	44a0a023          	sw	a0,1088(ra)

00001506 <inst_273>:
    1506:	aaaab5b7          	lui	a1,0xaaaab
    150a:	aab58593          	add	a1,a1,-1365 # aaaaaaab <_end+0xaaaa716b>
    150e:	0000b537          	lui	a0,0xb
    1512:	50450513          	add	a0,a0,1284 # b504 <_end+0x7bc4>
    1516:	8d6d                	and	a0,a0,a1
    1518:	44a0a223          	sw	a0,1092(ra)

0000151c <inst_274>:
    151c:	00600593          	li	a1,6
    1520:	0000b537          	lui	a0,0xb
    1524:	50450513          	add	a0,a0,1284 # b504 <_end+0x7bc4>
    1528:	8d6d                	and	a0,a0,a1
    152a:	44a0a423          	sw	a0,1096(ra)

0000152e <inst_275>:
    152e:	333335b7          	lui	a1,0x33333
    1532:	33458593          	add	a1,a1,820 # 33333334 <_end+0x3332f9f4>
    1536:	0000b537          	lui	a0,0xb
    153a:	50450513          	add	a0,a0,1284 # b504 <_end+0x7bc4>
    153e:	8d6d                	and	a0,a0,a1
    1540:	44a0a623          	sw	a0,1100(ra)

00001544 <inst_276>:
    1544:	666665b7          	lui	a1,0x66666
    1548:	66758593          	add	a1,a1,1639 # 66666667 <_end+0x66662d27>
    154c:	0000b537          	lui	a0,0xb
    1550:	50450513          	add	a0,a0,1284 # b504 <_end+0x7bc4>
    1554:	8d6d                	and	a0,a0,a1
    1556:	44a0a823          	sw	a0,1104(ra)

0000155a <inst_277>:
    155a:	ffff55b7          	lui	a1,0xffff5
    155e:	afd58593          	add	a1,a1,-1283 # ffff4afd <_end+0xffff11bd>
    1562:	0000b537          	lui	a0,0xb
    1566:	50450513          	add	a0,a0,1284 # b504 <_end+0x7bc4>
    156a:	8d6d                	and	a0,a0,a1
    156c:	44a0aa23          	sw	a0,1108(ra)

00001570 <inst_278>:
    1570:	0000b5b7          	lui	a1,0xb
    1574:	50558593          	add	a1,a1,1285 # b505 <_end+0x7bc5>
    1578:	0000b537          	lui	a0,0xb
    157c:	50450513          	add	a0,a0,1284 # b504 <_end+0x7bc4>
    1580:	8d6d                	and	a0,a0,a1
    1582:	44a0ac23          	sw	a0,1112(ra)

00001586 <inst_279>:
    1586:	00300593          	li	a1,3
    158a:	00200513          	li	a0,2
    158e:	8d6d                	and	a0,a0,a1
    1590:	44a0ae23          	sw	a0,1116(ra)

00001594 <inst_280>:
    1594:	555555b7          	lui	a1,0x55555
    1598:	55558593          	add	a1,a1,1365 # 55555555 <_end+0x55551c15>
    159c:	00200513          	li	a0,2
    15a0:	8d6d                	and	a0,a0,a1
    15a2:	46a0a023          	sw	a0,1120(ra)

000015a6 <inst_281>:
    15a6:	aaaab5b7          	lui	a1,0xaaaab
    15aa:	aaa58593          	add	a1,a1,-1366 # aaaaaaaa <_end+0xaaaa716a>
    15ae:	00200513          	li	a0,2
    15b2:	8d6d                	and	a0,a0,a1
    15b4:	46a0a223          	sw	a0,1124(ra)

000015b8 <inst_282>:
    15b8:	00500593          	li	a1,5
    15bc:	00200513          	li	a0,2
    15c0:	8d6d                	and	a0,a0,a1
    15c2:	46a0a423          	sw	a0,1128(ra)

000015c6 <inst_283>:
    15c6:	333335b7          	lui	a1,0x33333
    15ca:	33358593          	add	a1,a1,819 # 33333333 <_end+0x3332f9f3>
    15ce:	00200513          	li	a0,2
    15d2:	8d6d                	and	a0,a0,a1
    15d4:	46a0a623          	sw	a0,1132(ra)

000015d8 <inst_284>:
    15d8:	666665b7          	lui	a1,0x66666
    15dc:	66658593          	add	a1,a1,1638 # 66666666 <_end+0x66662d26>
    15e0:	00200513          	li	a0,2
    15e4:	8d6d                	and	a0,a0,a1
    15e6:	46a0a823          	sw	a0,1136(ra)

000015ea <inst_285>:
    15ea:	ffff55b7          	lui	a1,0xffff5
    15ee:	afc58593          	add	a1,a1,-1284 # ffff4afc <_end+0xffff11bc>
    15f2:	00200513          	li	a0,2
    15f6:	8d6d                	and	a0,a0,a1
    15f8:	46a0aa23          	sw	a0,1140(ra)

000015fc <inst_286>:
    15fc:	0000b5b7          	lui	a1,0xb
    1600:	50458593          	add	a1,a1,1284 # b504 <_end+0x7bc4>
    1604:	00200513          	li	a0,2
    1608:	8d6d                	and	a0,a0,a1
    160a:	46a0ac23          	sw	a0,1144(ra)

0000160e <inst_287>:
    160e:	00200593          	li	a1,2
    1612:	00200513          	li	a0,2
    1616:	8d6d                	and	a0,a0,a1
    1618:	46a0ae23          	sw	a0,1148(ra)

0000161c <inst_288>:
    161c:	555555b7          	lui	a1,0x55555
    1620:	55458593          	add	a1,a1,1364 # 55555554 <_end+0x55551c14>
    1624:	00200513          	li	a0,2
    1628:	8d6d                	and	a0,a0,a1
    162a:	48a0a023          	sw	a0,1152(ra)

0000162e <inst_289>:
    162e:	00000593          	li	a1,0
    1632:	00200513          	li	a0,2
    1636:	8d6d                	and	a0,a0,a1
    1638:	48a0a223          	sw	a0,1156(ra)

0000163c <inst_290>:
    163c:	333335b7          	lui	a1,0x33333
    1640:	33258593          	add	a1,a1,818 # 33333332 <_end+0x3332f9f2>
    1644:	00200513          	li	a0,2
    1648:	8d6d                	and	a0,a0,a1
    164a:	48a0a423          	sw	a0,1160(ra)

0000164e <inst_291>:
    164e:	666665b7          	lui	a1,0x66666
    1652:	66558593          	add	a1,a1,1637 # 66666665 <_end+0x66662d25>
    1656:	00200513          	li	a0,2
    165a:	8d6d                	and	a0,a0,a1
    165c:	48a0a623          	sw	a0,1164(ra)

00001660 <inst_292>:
    1660:	0000b5b7          	lui	a1,0xb
    1664:	50358593          	add	a1,a1,1283 # b503 <_end+0x7bc3>
    1668:	00200513          	li	a0,2
    166c:	8d6d                	and	a0,a0,a1
    166e:	48a0a823          	sw	a0,1168(ra)

00001672 <inst_293>:
    1672:	555555b7          	lui	a1,0x55555
    1676:	55658593          	add	a1,a1,1366 # 55555556 <_end+0x55551c16>
    167a:	00200513          	li	a0,2
    167e:	8d6d                	and	a0,a0,a1
    1680:	48a0aa23          	sw	a0,1172(ra)

00001684 <inst_294>:
    1684:	aaaab5b7          	lui	a1,0xaaaab
    1688:	aab58593          	add	a1,a1,-1365 # aaaaaaab <_end+0xaaaa716b>
    168c:	00200513          	li	a0,2
    1690:	8d6d                	and	a0,a0,a1
    1692:	48a0ac23          	sw	a0,1176(ra)

00001696 <inst_295>:
    1696:	00600593          	li	a1,6
    169a:	00200513          	li	a0,2
    169e:	8d6d                	and	a0,a0,a1
    16a0:	48a0ae23          	sw	a0,1180(ra)

000016a4 <inst_296>:
    16a4:	333335b7          	lui	a1,0x33333
    16a8:	33458593          	add	a1,a1,820 # 33333334 <_end+0x3332f9f4>
    16ac:	00200513          	li	a0,2
    16b0:	8d6d                	and	a0,a0,a1
    16b2:	4aa0a023          	sw	a0,1184(ra)

000016b6 <inst_297>:
    16b6:	666665b7          	lui	a1,0x66666
    16ba:	66758593          	add	a1,a1,1639 # 66666667 <_end+0x66662d27>
    16be:	00200513          	li	a0,2
    16c2:	8d6d                	and	a0,a0,a1
    16c4:	4aa0a223          	sw	a0,1188(ra)

000016c8 <inst_298>:
    16c8:	ffff55b7          	lui	a1,0xffff5
    16cc:	afd58593          	add	a1,a1,-1283 # ffff4afd <_end+0xffff11bd>
    16d0:	00200513          	li	a0,2
    16d4:	8d6d                	and	a0,a0,a1
    16d6:	4aa0a423          	sw	a0,1192(ra)

000016da <inst_299>:
    16da:	0000b5b7          	lui	a1,0xb
    16de:	50558593          	add	a1,a1,1285 # b505 <_end+0x7bc5>
    16e2:	00200513          	li	a0,2
    16e6:	8d6d                	and	a0,a0,a1
    16e8:	4aa0a623          	sw	a0,1196(ra)

000016ec <inst_300>:
    16ec:	00300593          	li	a1,3
    16f0:	55555537          	lui	a0,0x55555
    16f4:	55450513          	add	a0,a0,1364 # 55555554 <_end+0x55551c14>
    16f8:	8d6d                	and	a0,a0,a1
    16fa:	4aa0a823          	sw	a0,1200(ra)

000016fe <inst_301>:
    16fe:	555555b7          	lui	a1,0x55555
    1702:	55558593          	add	a1,a1,1365 # 55555555 <_end+0x55551c15>
    1706:	55555537          	lui	a0,0x55555
    170a:	55450513          	add	a0,a0,1364 # 55555554 <_end+0x55551c14>
    170e:	8d6d                	and	a0,a0,a1
    1710:	4aa0aa23          	sw	a0,1204(ra)

00001714 <inst_302>:
    1714:	aaaab5b7          	lui	a1,0xaaaab
    1718:	aaa58593          	add	a1,a1,-1366 # aaaaaaaa <_end+0xaaaa716a>
    171c:	55555537          	lui	a0,0x55555
    1720:	55450513          	add	a0,a0,1364 # 55555554 <_end+0x55551c14>
    1724:	8d6d                	and	a0,a0,a1
    1726:	4aa0ac23          	sw	a0,1208(ra)

0000172a <inst_303>:
    172a:	00500593          	li	a1,5
    172e:	55555537          	lui	a0,0x55555
    1732:	55450513          	add	a0,a0,1364 # 55555554 <_end+0x55551c14>
    1736:	8d6d                	and	a0,a0,a1
    1738:	4aa0ae23          	sw	a0,1212(ra)

0000173c <inst_304>:
    173c:	333335b7          	lui	a1,0x33333
    1740:	33358593          	add	a1,a1,819 # 33333333 <_end+0x3332f9f3>
    1744:	55555537          	lui	a0,0x55555
    1748:	55450513          	add	a0,a0,1364 # 55555554 <_end+0x55551c14>
    174c:	8d6d                	and	a0,a0,a1
    174e:	4ca0a023          	sw	a0,1216(ra)

00001752 <inst_305>:
    1752:	666665b7          	lui	a1,0x66666
    1756:	66658593          	add	a1,a1,1638 # 66666666 <_end+0x66662d26>
    175a:	55555537          	lui	a0,0x55555
    175e:	55450513          	add	a0,a0,1364 # 55555554 <_end+0x55551c14>
    1762:	8d6d                	and	a0,a0,a1
    1764:	4ca0a223          	sw	a0,1220(ra)

00001768 <inst_306>:
    1768:	ffff55b7          	lui	a1,0xffff5
    176c:	afc58593          	add	a1,a1,-1284 # ffff4afc <_end+0xffff11bc>
    1770:	55555537          	lui	a0,0x55555
    1774:	55450513          	add	a0,a0,1364 # 55555554 <_end+0x55551c14>
    1778:	8d6d                	and	a0,a0,a1
    177a:	4ca0a423          	sw	a0,1224(ra)

0000177e <inst_307>:
    177e:	0000b5b7          	lui	a1,0xb
    1782:	50458593          	add	a1,a1,1284 # b504 <_end+0x7bc4>
    1786:	55555537          	lui	a0,0x55555
    178a:	55450513          	add	a0,a0,1364 # 55555554 <_end+0x55551c14>
    178e:	8d6d                	and	a0,a0,a1
    1790:	4ca0a623          	sw	a0,1228(ra)

00001794 <inst_308>:
    1794:	00200593          	li	a1,2
    1798:	55555537          	lui	a0,0x55555
    179c:	55450513          	add	a0,a0,1364 # 55555554 <_end+0x55551c14>
    17a0:	8d6d                	and	a0,a0,a1
    17a2:	4ca0a823          	sw	a0,1232(ra)

000017a6 <inst_309>:
    17a6:	555555b7          	lui	a1,0x55555
    17aa:	55458593          	add	a1,a1,1364 # 55555554 <_end+0x55551c14>
    17ae:	55555537          	lui	a0,0x55555
    17b2:	55450513          	add	a0,a0,1364 # 55555554 <_end+0x55551c14>
    17b6:	8d6d                	and	a0,a0,a1
    17b8:	4ca0aa23          	sw	a0,1236(ra)

000017bc <inst_310>:
    17bc:	00000593          	li	a1,0
    17c0:	55555537          	lui	a0,0x55555
    17c4:	55450513          	add	a0,a0,1364 # 55555554 <_end+0x55551c14>
    17c8:	8d6d                	and	a0,a0,a1
    17ca:	4ca0ac23          	sw	a0,1240(ra)

000017ce <inst_311>:
    17ce:	00400593          	li	a1,4
    17d2:	55555537          	lui	a0,0x55555
    17d6:	55450513          	add	a0,a0,1364 # 55555554 <_end+0x55551c14>
    17da:	8d6d                	and	a0,a0,a1
    17dc:	4ca0ae23          	sw	a0,1244(ra)

000017e0 <inst_312>:
    17e0:	333335b7          	lui	a1,0x33333
    17e4:	33258593          	add	a1,a1,818 # 33333332 <_end+0x3332f9f2>
    17e8:	55555537          	lui	a0,0x55555
    17ec:	55450513          	add	a0,a0,1364 # 55555554 <_end+0x55551c14>
    17f0:	8d6d                	and	a0,a0,a1
    17f2:	4ea0a023          	sw	a0,1248(ra)

000017f6 <inst_313>:
    17f6:	666665b7          	lui	a1,0x66666
    17fa:	66558593          	add	a1,a1,1637 # 66666665 <_end+0x66662d25>
    17fe:	55555537          	lui	a0,0x55555
    1802:	55450513          	add	a0,a0,1364 # 55555554 <_end+0x55551c14>
    1806:	8d6d                	and	a0,a0,a1
    1808:	4ea0a223          	sw	a0,1252(ra)

0000180c <inst_314>:
    180c:	0000b5b7          	lui	a1,0xb
    1810:	50358593          	add	a1,a1,1283 # b503 <_end+0x7bc3>
    1814:	55555537          	lui	a0,0x55555
    1818:	55450513          	add	a0,a0,1364 # 55555554 <_end+0x55551c14>
    181c:	8d6d                	and	a0,a0,a1
    181e:	4ea0a423          	sw	a0,1256(ra)

00001822 <inst_315>:
    1822:	555555b7          	lui	a1,0x55555
    1826:	55658593          	add	a1,a1,1366 # 55555556 <_end+0x55551c16>
    182a:	55555537          	lui	a0,0x55555
    182e:	55450513          	add	a0,a0,1364 # 55555554 <_end+0x55551c14>
    1832:	8d6d                	and	a0,a0,a1
    1834:	4ea0a623          	sw	a0,1260(ra)

00001838 <inst_316>:
    1838:	aaaab5b7          	lui	a1,0xaaaab
    183c:	aab58593          	add	a1,a1,-1365 # aaaaaaab <_end+0xaaaa716b>
    1840:	55555537          	lui	a0,0x55555
    1844:	55450513          	add	a0,a0,1364 # 55555554 <_end+0x55551c14>
    1848:	8d6d                	and	a0,a0,a1
    184a:	4ea0a823          	sw	a0,1264(ra)

0000184e <inst_317>:
    184e:	00600593          	li	a1,6
    1852:	55555537          	lui	a0,0x55555
    1856:	55450513          	add	a0,a0,1364 # 55555554 <_end+0x55551c14>
    185a:	8d6d                	and	a0,a0,a1
    185c:	4ea0aa23          	sw	a0,1268(ra)

00001860 <inst_318>:
    1860:	333335b7          	lui	a1,0x33333
    1864:	33458593          	add	a1,a1,820 # 33333334 <_end+0x3332f9f4>
    1868:	55555537          	lui	a0,0x55555
    186c:	55450513          	add	a0,a0,1364 # 55555554 <_end+0x55551c14>
    1870:	8d6d                	and	a0,a0,a1
    1872:	4ea0ac23          	sw	a0,1272(ra)

00001876 <inst_319>:
    1876:	666665b7          	lui	a1,0x66666
    187a:	66758593          	add	a1,a1,1639 # 66666667 <_end+0x66662d27>
    187e:	55555537          	lui	a0,0x55555
    1882:	55450513          	add	a0,a0,1364 # 55555554 <_end+0x55551c14>
    1886:	8d6d                	and	a0,a0,a1
    1888:	4ea0ae23          	sw	a0,1276(ra)

0000188c <inst_320>:
    188c:	ffff55b7          	lui	a1,0xffff5
    1890:	afd58593          	add	a1,a1,-1283 # ffff4afd <_end+0xffff11bd>
    1894:	55555537          	lui	a0,0x55555
    1898:	55450513          	add	a0,a0,1364 # 55555554 <_end+0x55551c14>
    189c:	8d6d                	and	a0,a0,a1
    189e:	50a0a023          	sw	a0,1280(ra)

000018a2 <inst_321>:
    18a2:	0000b5b7          	lui	a1,0xb
    18a6:	50558593          	add	a1,a1,1285 # b505 <_end+0x7bc5>
    18aa:	55555537          	lui	a0,0x55555
    18ae:	55450513          	add	a0,a0,1364 # 55555554 <_end+0x55551c14>
    18b2:	8d6d                	and	a0,a0,a1
    18b4:	50a0a223          	sw	a0,1284(ra)

000018b8 <inst_322>:
    18b8:	00300593          	li	a1,3
    18bc:	00000513          	li	a0,0
    18c0:	8d6d                	and	a0,a0,a1
    18c2:	50a0a423          	sw	a0,1288(ra)

000018c6 <inst_323>:
    18c6:	555555b7          	lui	a1,0x55555
    18ca:	55558593          	add	a1,a1,1365 # 55555555 <_end+0x55551c15>
    18ce:	00000513          	li	a0,0
    18d2:	8d6d                	and	a0,a0,a1
    18d4:	50a0a623          	sw	a0,1292(ra)

000018d8 <inst_324>:
    18d8:	aaaab5b7          	lui	a1,0xaaaab
    18dc:	aaa58593          	add	a1,a1,-1366 # aaaaaaaa <_end+0xaaaa716a>
    18e0:	00000513          	li	a0,0
    18e4:	8d6d                	and	a0,a0,a1
    18e6:	50a0a823          	sw	a0,1296(ra)

000018ea <inst_325>:
    18ea:	00500593          	li	a1,5
    18ee:	00000513          	li	a0,0
    18f2:	8d6d                	and	a0,a0,a1
    18f4:	50a0aa23          	sw	a0,1300(ra)

000018f8 <inst_326>:
    18f8:	333335b7          	lui	a1,0x33333
    18fc:	33358593          	add	a1,a1,819 # 33333333 <_end+0x3332f9f3>
    1900:	00000513          	li	a0,0
    1904:	8d6d                	and	a0,a0,a1
    1906:	50a0ac23          	sw	a0,1304(ra)

0000190a <inst_327>:
    190a:	666665b7          	lui	a1,0x66666
    190e:	66658593          	add	a1,a1,1638 # 66666666 <_end+0x66662d26>
    1912:	00000513          	li	a0,0
    1916:	8d6d                	and	a0,a0,a1
    1918:	50a0ae23          	sw	a0,1308(ra)

0000191c <inst_328>:
    191c:	ffff55b7          	lui	a1,0xffff5
    1920:	afc58593          	add	a1,a1,-1284 # ffff4afc <_end+0xffff11bc>
    1924:	00000513          	li	a0,0
    1928:	8d6d                	and	a0,a0,a1
    192a:	52a0a023          	sw	a0,1312(ra)

0000192e <inst_329>:
    192e:	0000b5b7          	lui	a1,0xb
    1932:	50458593          	add	a1,a1,1284 # b504 <_end+0x7bc4>
    1936:	00000513          	li	a0,0
    193a:	8d6d                	and	a0,a0,a1
    193c:	52a0a223          	sw	a0,1316(ra)

00001940 <inst_330>:
    1940:	00200593          	li	a1,2
    1944:	00000513          	li	a0,0
    1948:	8d6d                	and	a0,a0,a1
    194a:	52a0a423          	sw	a0,1320(ra)

0000194e <inst_331>:
    194e:	ffff55b7          	lui	a1,0xffff5
    1952:	afd58593          	add	a1,a1,-1283 # ffff4afd <_end+0xffff11bd>
    1956:	aaaab537          	lui	a0,0xaaaab
    195a:	aab50513          	add	a0,a0,-1365 # aaaaaaab <_end+0xaaaa716b>
    195e:	8d6d                	and	a0,a0,a1
    1960:	52a0a623          	sw	a0,1324(ra)

00001964 <inst_332>:
    1964:	0000b5b7          	lui	a1,0xb
    1968:	50558593          	add	a1,a1,1285 # b505 <_end+0x7bc5>
    196c:	aaaab537          	lui	a0,0xaaaab
    1970:	aab50513          	add	a0,a0,-1365 # aaaaaaab <_end+0xaaaa716b>
    1974:	8d6d                	and	a0,a0,a1
    1976:	52a0a823          	sw	a0,1328(ra)

0000197a <inst_333>:
    197a:	00300593          	li	a1,3
    197e:	00600513          	li	a0,6
    1982:	8d6d                	and	a0,a0,a1
    1984:	52a0aa23          	sw	a0,1332(ra)

00001988 <inst_334>:
    1988:	555555b7          	lui	a1,0x55555
    198c:	55558593          	add	a1,a1,1365 # 55555555 <_end+0x55551c15>
    1990:	00600513          	li	a0,6
    1994:	8d6d                	and	a0,a0,a1
    1996:	52a0ac23          	sw	a0,1336(ra)

0000199a <inst_335>:
    199a:	aaaab5b7          	lui	a1,0xaaaab
    199e:	aaa58593          	add	a1,a1,-1366 # aaaaaaaa <_end+0xaaaa716a>
    19a2:	00600513          	li	a0,6
    19a6:	8d6d                	and	a0,a0,a1
    19a8:	52a0ae23          	sw	a0,1340(ra)

000019ac <inst_336>:
    19ac:	00500593          	li	a1,5
    19b0:	00600513          	li	a0,6
    19b4:	8d6d                	and	a0,a0,a1
    19b6:	54a0a023          	sw	a0,1344(ra)

000019ba <inst_337>:
    19ba:	333335b7          	lui	a1,0x33333
    19be:	33358593          	add	a1,a1,819 # 33333333 <_end+0x3332f9f3>
    19c2:	00600513          	li	a0,6
    19c6:	8d6d                	and	a0,a0,a1
    19c8:	54a0a223          	sw	a0,1348(ra)

000019cc <inst_338>:
    19cc:	666665b7          	lui	a1,0x66666
    19d0:	66658593          	add	a1,a1,1638 # 66666666 <_end+0x66662d26>
    19d4:	00600513          	li	a0,6
    19d8:	8d6d                	and	a0,a0,a1
    19da:	54a0a423          	sw	a0,1352(ra)

000019de <inst_339>:
    19de:	ffff55b7          	lui	a1,0xffff5
    19e2:	afc58593          	add	a1,a1,-1284 # ffff4afc <_end+0xffff11bc>
    19e6:	00600513          	li	a0,6
    19ea:	8d6d                	and	a0,a0,a1
    19ec:	54a0a623          	sw	a0,1356(ra)

000019f0 <inst_340>:
    19f0:	0000b5b7          	lui	a1,0xb
    19f4:	50458593          	add	a1,a1,1284 # b504 <_end+0x7bc4>
    19f8:	00600513          	li	a0,6
    19fc:	8d6d                	and	a0,a0,a1
    19fe:	54a0a823          	sw	a0,1360(ra)

00001a02 <inst_341>:
    1a02:	00200593          	li	a1,2
    1a06:	00600513          	li	a0,6
    1a0a:	8d6d                	and	a0,a0,a1
    1a0c:	54a0aa23          	sw	a0,1364(ra)

00001a10 <inst_342>:
    1a10:	555555b7          	lui	a1,0x55555
    1a14:	55458593          	add	a1,a1,1364 # 55555554 <_end+0x55551c14>
    1a18:	00600513          	li	a0,6
    1a1c:	8d6d                	and	a0,a0,a1
    1a1e:	54a0ac23          	sw	a0,1368(ra)

00001a22 <inst_343>:
    1a22:	00000593          	li	a1,0
    1a26:	00600513          	li	a0,6
    1a2a:	8d6d                	and	a0,a0,a1
    1a2c:	54a0ae23          	sw	a0,1372(ra)

00001a30 <inst_344>:
    1a30:	00400593          	li	a1,4
    1a34:	00600513          	li	a0,6
    1a38:	8d6d                	and	a0,a0,a1
    1a3a:	56a0a023          	sw	a0,1376(ra)

00001a3e <inst_345>:
    1a3e:	333335b7          	lui	a1,0x33333
    1a42:	33258593          	add	a1,a1,818 # 33333332 <_end+0x3332f9f2>
    1a46:	00600513          	li	a0,6
    1a4a:	8d6d                	and	a0,a0,a1
    1a4c:	56a0a223          	sw	a0,1380(ra)

00001a50 <inst_346>:
    1a50:	666665b7          	lui	a1,0x66666
    1a54:	66558593          	add	a1,a1,1637 # 66666665 <_end+0x66662d25>
    1a58:	00600513          	li	a0,6
    1a5c:	8d6d                	and	a0,a0,a1
    1a5e:	56a0a423          	sw	a0,1384(ra)

00001a62 <inst_347>:
    1a62:	0000b5b7          	lui	a1,0xb
    1a66:	50358593          	add	a1,a1,1283 # b503 <_end+0x7bc3>
    1a6a:	00600513          	li	a0,6
    1a6e:	8d6d                	and	a0,a0,a1
    1a70:	56a0a623          	sw	a0,1388(ra)

00001a74 <inst_348>:
    1a74:	555555b7          	lui	a1,0x55555
    1a78:	55658593          	add	a1,a1,1366 # 55555556 <_end+0x55551c16>
    1a7c:	00600513          	li	a0,6
    1a80:	8d6d                	and	a0,a0,a1
    1a82:	56a0a823          	sw	a0,1392(ra)

00001a86 <inst_349>:
    1a86:	aaaab5b7          	lui	a1,0xaaaab
    1a8a:	aab58593          	add	a1,a1,-1365 # aaaaaaab <_end+0xaaaa716b>
    1a8e:	00600513          	li	a0,6
    1a92:	8d6d                	and	a0,a0,a1
    1a94:	56a0aa23          	sw	a0,1396(ra)

00001a98 <inst_350>:
    1a98:	00600593          	li	a1,6
    1a9c:	00600513          	li	a0,6
    1aa0:	8d6d                	and	a0,a0,a1
    1aa2:	56a0ac23          	sw	a0,1400(ra)

00001aa6 <inst_351>:
    1aa6:	333335b7          	lui	a1,0x33333
    1aaa:	33458593          	add	a1,a1,820 # 33333334 <_end+0x3332f9f4>
    1aae:	00600513          	li	a0,6
    1ab2:	8d6d                	and	a0,a0,a1
    1ab4:	56a0ae23          	sw	a0,1404(ra)

00001ab8 <inst_352>:
    1ab8:	666665b7          	lui	a1,0x66666
    1abc:	66758593          	add	a1,a1,1639 # 66666667 <_end+0x66662d27>
    1ac0:	00600513          	li	a0,6
    1ac4:	8d6d                	and	a0,a0,a1
    1ac6:	58a0a023          	sw	a0,1408(ra)

00001aca <inst_353>:
    1aca:	ffff55b7          	lui	a1,0xffff5
    1ace:	afd58593          	add	a1,a1,-1283 # ffff4afd <_end+0xffff11bd>
    1ad2:	00600513          	li	a0,6
    1ad6:	8d6d                	and	a0,a0,a1
    1ad8:	58a0a223          	sw	a0,1412(ra)

00001adc <inst_354>:
    1adc:	0000b5b7          	lui	a1,0xb
    1ae0:	50558593          	add	a1,a1,1285 # b505 <_end+0x7bc5>
    1ae4:	00600513          	li	a0,6
    1ae8:	8d6d                	and	a0,a0,a1
    1aea:	58a0a423          	sw	a0,1416(ra)

00001aee <inst_355>:
    1aee:	00300593          	li	a1,3
    1af2:	33333537          	lui	a0,0x33333
    1af6:	33450513          	add	a0,a0,820 # 33333334 <_end+0x3332f9f4>
    1afa:	8d6d                	and	a0,a0,a1
    1afc:	58a0a623          	sw	a0,1420(ra)

00001b00 <inst_356>:
    1b00:	555555b7          	lui	a1,0x55555
    1b04:	55558593          	add	a1,a1,1365 # 55555555 <_end+0x55551c15>
    1b08:	33333537          	lui	a0,0x33333
    1b0c:	33450513          	add	a0,a0,820 # 33333334 <_end+0x3332f9f4>
    1b10:	8d6d                	and	a0,a0,a1
    1b12:	58a0a823          	sw	a0,1424(ra)

00001b16 <inst_357>:
    1b16:	aaaab5b7          	lui	a1,0xaaaab
    1b1a:	aaa58593          	add	a1,a1,-1366 # aaaaaaaa <_end+0xaaaa716a>
    1b1e:	33333537          	lui	a0,0x33333
    1b22:	33450513          	add	a0,a0,820 # 33333334 <_end+0x3332f9f4>
    1b26:	8d6d                	and	a0,a0,a1
    1b28:	58a0aa23          	sw	a0,1428(ra)

00001b2c <inst_358>:
    1b2c:	00500593          	li	a1,5
    1b30:	33333537          	lui	a0,0x33333
    1b34:	33450513          	add	a0,a0,820 # 33333334 <_end+0x3332f9f4>
    1b38:	8d6d                	and	a0,a0,a1
    1b3a:	58a0ac23          	sw	a0,1432(ra)

00001b3e <inst_359>:
    1b3e:	333335b7          	lui	a1,0x33333
    1b42:	33358593          	add	a1,a1,819 # 33333333 <_end+0x3332f9f3>
    1b46:	33333537          	lui	a0,0x33333
    1b4a:	33450513          	add	a0,a0,820 # 33333334 <_end+0x3332f9f4>
    1b4e:	8d6d                	and	a0,a0,a1
    1b50:	58a0ae23          	sw	a0,1436(ra)

00001b54 <inst_360>:
    1b54:	666665b7          	lui	a1,0x66666
    1b58:	66658593          	add	a1,a1,1638 # 66666666 <_end+0x66662d26>
    1b5c:	33333537          	lui	a0,0x33333
    1b60:	33450513          	add	a0,a0,820 # 33333334 <_end+0x3332f9f4>
    1b64:	8d6d                	and	a0,a0,a1
    1b66:	5aa0a023          	sw	a0,1440(ra)

00001b6a <inst_361>:
    1b6a:	ffff55b7          	lui	a1,0xffff5
    1b6e:	afc58593          	add	a1,a1,-1284 # ffff4afc <_end+0xffff11bc>
    1b72:	33333537          	lui	a0,0x33333
    1b76:	33450513          	add	a0,a0,820 # 33333334 <_end+0x3332f9f4>
    1b7a:	8d6d                	and	a0,a0,a1
    1b7c:	5aa0a223          	sw	a0,1444(ra)

00001b80 <inst_362>:
    1b80:	0000b5b7          	lui	a1,0xb
    1b84:	50458593          	add	a1,a1,1284 # b504 <_end+0x7bc4>
    1b88:	33333537          	lui	a0,0x33333
    1b8c:	33450513          	add	a0,a0,820 # 33333334 <_end+0x3332f9f4>
    1b90:	8d6d                	and	a0,a0,a1
    1b92:	5aa0a423          	sw	a0,1448(ra)

00001b96 <inst_363>:
    1b96:	00200593          	li	a1,2
    1b9a:	33333537          	lui	a0,0x33333
    1b9e:	33450513          	add	a0,a0,820 # 33333334 <_end+0x3332f9f4>
    1ba2:	8d6d                	and	a0,a0,a1
    1ba4:	5aa0a623          	sw	a0,1452(ra)

00001ba8 <inst_364>:
    1ba8:	555555b7          	lui	a1,0x55555
    1bac:	55458593          	add	a1,a1,1364 # 55555554 <_end+0x55551c14>
    1bb0:	33333537          	lui	a0,0x33333
    1bb4:	33450513          	add	a0,a0,820 # 33333334 <_end+0x3332f9f4>
    1bb8:	8d6d                	and	a0,a0,a1
    1bba:	5aa0a823          	sw	a0,1456(ra)

00001bbe <inst_365>:
    1bbe:	00000593          	li	a1,0
    1bc2:	33333537          	lui	a0,0x33333
    1bc6:	33450513          	add	a0,a0,820 # 33333334 <_end+0x3332f9f4>
    1bca:	8d6d                	and	a0,a0,a1
    1bcc:	5aa0aa23          	sw	a0,1460(ra)

00001bd0 <inst_366>:
    1bd0:	00400593          	li	a1,4
    1bd4:	33333537          	lui	a0,0x33333
    1bd8:	33450513          	add	a0,a0,820 # 33333334 <_end+0x3332f9f4>
    1bdc:	8d6d                	and	a0,a0,a1
    1bde:	5aa0ac23          	sw	a0,1464(ra)

00001be2 <inst_367>:
    1be2:	333335b7          	lui	a1,0x33333
    1be6:	33258593          	add	a1,a1,818 # 33333332 <_end+0x3332f9f2>
    1bea:	33333537          	lui	a0,0x33333
    1bee:	33450513          	add	a0,a0,820 # 33333334 <_end+0x3332f9f4>
    1bf2:	8d6d                	and	a0,a0,a1
    1bf4:	5aa0ae23          	sw	a0,1468(ra)

00001bf8 <inst_368>:
    1bf8:	666665b7          	lui	a1,0x66666
    1bfc:	66558593          	add	a1,a1,1637 # 66666665 <_end+0x66662d25>
    1c00:	33333537          	lui	a0,0x33333
    1c04:	33450513          	add	a0,a0,820 # 33333334 <_end+0x3332f9f4>
    1c08:	8d6d                	and	a0,a0,a1
    1c0a:	5ca0a023          	sw	a0,1472(ra)

00001c0e <inst_369>:
    1c0e:	0000b5b7          	lui	a1,0xb
    1c12:	50358593          	add	a1,a1,1283 # b503 <_end+0x7bc3>
    1c16:	33333537          	lui	a0,0x33333
    1c1a:	33450513          	add	a0,a0,820 # 33333334 <_end+0x3332f9f4>
    1c1e:	8d6d                	and	a0,a0,a1
    1c20:	5ca0a223          	sw	a0,1476(ra)

00001c24 <inst_370>:
    1c24:	555555b7          	lui	a1,0x55555
    1c28:	55658593          	add	a1,a1,1366 # 55555556 <_end+0x55551c16>
    1c2c:	33333537          	lui	a0,0x33333
    1c30:	33450513          	add	a0,a0,820 # 33333334 <_end+0x3332f9f4>
    1c34:	8d6d                	and	a0,a0,a1
    1c36:	5ca0a423          	sw	a0,1480(ra)

00001c3a <inst_371>:
    1c3a:	aaaab5b7          	lui	a1,0xaaaab
    1c3e:	aab58593          	add	a1,a1,-1365 # aaaaaaab <_end+0xaaaa716b>
    1c42:	33333537          	lui	a0,0x33333
    1c46:	33450513          	add	a0,a0,820 # 33333334 <_end+0x3332f9f4>
    1c4a:	8d6d                	and	a0,a0,a1
    1c4c:	5ca0a623          	sw	a0,1484(ra)

00001c50 <inst_372>:
    1c50:	00600593          	li	a1,6
    1c54:	33333537          	lui	a0,0x33333
    1c58:	33450513          	add	a0,a0,820 # 33333334 <_end+0x3332f9f4>
    1c5c:	8d6d                	and	a0,a0,a1
    1c5e:	5ca0a823          	sw	a0,1488(ra)

00001c62 <inst_373>:
    1c62:	333335b7          	lui	a1,0x33333
    1c66:	33458593          	add	a1,a1,820 # 33333334 <_end+0x3332f9f4>
    1c6a:	33333537          	lui	a0,0x33333
    1c6e:	33450513          	add	a0,a0,820 # 33333334 <_end+0x3332f9f4>
    1c72:	8d6d                	and	a0,a0,a1
    1c74:	5ca0aa23          	sw	a0,1492(ra)

00001c78 <inst_374>:
    1c78:	666665b7          	lui	a1,0x66666
    1c7c:	66758593          	add	a1,a1,1639 # 66666667 <_end+0x66662d27>
    1c80:	33333537          	lui	a0,0x33333
    1c84:	33450513          	add	a0,a0,820 # 33333334 <_end+0x3332f9f4>
    1c88:	8d6d                	and	a0,a0,a1
    1c8a:	5ca0ac23          	sw	a0,1496(ra)

00001c8e <inst_375>:
    1c8e:	ffff55b7          	lui	a1,0xffff5
    1c92:	afd58593          	add	a1,a1,-1283 # ffff4afd <_end+0xffff11bd>
    1c96:	33333537          	lui	a0,0x33333
    1c9a:	33450513          	add	a0,a0,820 # 33333334 <_end+0x3332f9f4>
    1c9e:	8d6d                	and	a0,a0,a1
    1ca0:	5ca0ae23          	sw	a0,1500(ra)

00001ca4 <inst_376>:
    1ca4:	0000b5b7          	lui	a1,0xb
    1ca8:	50558593          	add	a1,a1,1285 # b505 <_end+0x7bc5>
    1cac:	33333537          	lui	a0,0x33333
    1cb0:	33450513          	add	a0,a0,820 # 33333334 <_end+0x3332f9f4>
    1cb4:	8d6d                	and	a0,a0,a1
    1cb6:	5ea0a023          	sw	a0,1504(ra)

00001cba <inst_377>:
    1cba:	00300593          	li	a1,3
    1cbe:	66666537          	lui	a0,0x66666
    1cc2:	66750513          	add	a0,a0,1639 # 66666667 <_end+0x66662d27>
    1cc6:	8d6d                	and	a0,a0,a1
    1cc8:	5ea0a223          	sw	a0,1508(ra)

00001ccc <inst_378>:
    1ccc:	555555b7          	lui	a1,0x55555
    1cd0:	55558593          	add	a1,a1,1365 # 55555555 <_end+0x55551c15>
    1cd4:	66666537          	lui	a0,0x66666
    1cd8:	66750513          	add	a0,a0,1639 # 66666667 <_end+0x66662d27>
    1cdc:	8d6d                	and	a0,a0,a1
    1cde:	5ea0a423          	sw	a0,1512(ra)

00001ce2 <inst_379>:
    1ce2:	aaaab5b7          	lui	a1,0xaaaab
    1ce6:	aaa58593          	add	a1,a1,-1366 # aaaaaaaa <_end+0xaaaa716a>
    1cea:	66666537          	lui	a0,0x66666
    1cee:	66750513          	add	a0,a0,1639 # 66666667 <_end+0x66662d27>
    1cf2:	8d6d                	and	a0,a0,a1
    1cf4:	5ea0a623          	sw	a0,1516(ra)

00001cf8 <inst_380>:
    1cf8:	00500593          	li	a1,5
    1cfc:	66666537          	lui	a0,0x66666
    1d00:	66750513          	add	a0,a0,1639 # 66666667 <_end+0x66662d27>
    1d04:	8d6d                	and	a0,a0,a1
    1d06:	5ea0a823          	sw	a0,1520(ra)

00001d0a <inst_381>:
    1d0a:	333335b7          	lui	a1,0x33333
    1d0e:	33358593          	add	a1,a1,819 # 33333333 <_end+0x3332f9f3>
    1d12:	66666537          	lui	a0,0x66666
    1d16:	66750513          	add	a0,a0,1639 # 66666667 <_end+0x66662d27>
    1d1a:	8d6d                	and	a0,a0,a1
    1d1c:	5ea0aa23          	sw	a0,1524(ra)

00001d20 <inst_382>:
    1d20:	666665b7          	lui	a1,0x66666
    1d24:	66658593          	add	a1,a1,1638 # 66666666 <_end+0x66662d26>
    1d28:	66666537          	lui	a0,0x66666
    1d2c:	66750513          	add	a0,a0,1639 # 66666667 <_end+0x66662d27>
    1d30:	8d6d                	and	a0,a0,a1
    1d32:	5ea0ac23          	sw	a0,1528(ra)

00001d36 <inst_383>:
    1d36:	ffff55b7          	lui	a1,0xffff5
    1d3a:	afc58593          	add	a1,a1,-1284 # ffff4afc <_end+0xffff11bc>
    1d3e:	66666537          	lui	a0,0x66666
    1d42:	66750513          	add	a0,a0,1639 # 66666667 <_end+0x66662d27>
    1d46:	8d6d                	and	a0,a0,a1
    1d48:	5ea0ae23          	sw	a0,1532(ra)

00001d4c <inst_384>:
    1d4c:	0000b5b7          	lui	a1,0xb
    1d50:	50458593          	add	a1,a1,1284 # b504 <_end+0x7bc4>
    1d54:	66666537          	lui	a0,0x66666
    1d58:	66750513          	add	a0,a0,1639 # 66666667 <_end+0x66662d27>
    1d5c:	8d6d                	and	a0,a0,a1
    1d5e:	60a0a023          	sw	a0,1536(ra)

00001d62 <inst_385>:
    1d62:	00200593          	li	a1,2
    1d66:	66666537          	lui	a0,0x66666
    1d6a:	66750513          	add	a0,a0,1639 # 66666667 <_end+0x66662d27>
    1d6e:	8d6d                	and	a0,a0,a1
    1d70:	60a0a223          	sw	a0,1540(ra)

00001d74 <inst_386>:
    1d74:	555555b7          	lui	a1,0x55555
    1d78:	55458593          	add	a1,a1,1364 # 55555554 <_end+0x55551c14>
    1d7c:	66666537          	lui	a0,0x66666
    1d80:	66750513          	add	a0,a0,1639 # 66666667 <_end+0x66662d27>
    1d84:	8d6d                	and	a0,a0,a1
    1d86:	60a0a423          	sw	a0,1544(ra)

00001d8a <inst_387>:
    1d8a:	00000593          	li	a1,0
    1d8e:	66666537          	lui	a0,0x66666
    1d92:	66750513          	add	a0,a0,1639 # 66666667 <_end+0x66662d27>
    1d96:	8d6d                	and	a0,a0,a1
    1d98:	60a0a623          	sw	a0,1548(ra)

00001d9c <inst_388>:
    1d9c:	00400593          	li	a1,4
    1da0:	66666537          	lui	a0,0x66666
    1da4:	66750513          	add	a0,a0,1639 # 66666667 <_end+0x66662d27>
    1da8:	8d6d                	and	a0,a0,a1
    1daa:	60a0a823          	sw	a0,1552(ra)

00001dae <inst_389>:
    1dae:	333335b7          	lui	a1,0x33333
    1db2:	33258593          	add	a1,a1,818 # 33333332 <_end+0x3332f9f2>
    1db6:	66666537          	lui	a0,0x66666
    1dba:	66750513          	add	a0,a0,1639 # 66666667 <_end+0x66662d27>
    1dbe:	8d6d                	and	a0,a0,a1
    1dc0:	60a0aa23          	sw	a0,1556(ra)

00001dc4 <inst_390>:
    1dc4:	666665b7          	lui	a1,0x66666
    1dc8:	66558593          	add	a1,a1,1637 # 66666665 <_end+0x66662d25>
    1dcc:	66666537          	lui	a0,0x66666
    1dd0:	66750513          	add	a0,a0,1639 # 66666667 <_end+0x66662d27>
    1dd4:	8d6d                	and	a0,a0,a1
    1dd6:	60a0ac23          	sw	a0,1560(ra)

00001dda <inst_391>:
    1dda:	0000b5b7          	lui	a1,0xb
    1dde:	50358593          	add	a1,a1,1283 # b503 <_end+0x7bc3>
    1de2:	66666537          	lui	a0,0x66666
    1de6:	66750513          	add	a0,a0,1639 # 66666667 <_end+0x66662d27>
    1dea:	8d6d                	and	a0,a0,a1
    1dec:	60a0ae23          	sw	a0,1564(ra)

00001df0 <inst_392>:
    1df0:	555555b7          	lui	a1,0x55555
    1df4:	55658593          	add	a1,a1,1366 # 55555556 <_end+0x55551c16>
    1df8:	66666537          	lui	a0,0x66666
    1dfc:	66750513          	add	a0,a0,1639 # 66666667 <_end+0x66662d27>
    1e00:	8d6d                	and	a0,a0,a1
    1e02:	62a0a023          	sw	a0,1568(ra)

00001e06 <inst_393>:
    1e06:	aaaab5b7          	lui	a1,0xaaaab
    1e0a:	aab58593          	add	a1,a1,-1365 # aaaaaaab <_end+0xaaaa716b>
    1e0e:	66666537          	lui	a0,0x66666
    1e12:	66750513          	add	a0,a0,1639 # 66666667 <_end+0x66662d27>
    1e16:	8d6d                	and	a0,a0,a1
    1e18:	62a0a223          	sw	a0,1572(ra)

00001e1c <inst_394>:
    1e1c:	00600593          	li	a1,6
    1e20:	66666537          	lui	a0,0x66666
    1e24:	66750513          	add	a0,a0,1639 # 66666667 <_end+0x66662d27>
    1e28:	8d6d                	and	a0,a0,a1
    1e2a:	62a0a423          	sw	a0,1576(ra)

00001e2e <inst_395>:
    1e2e:	333335b7          	lui	a1,0x33333
    1e32:	33458593          	add	a1,a1,820 # 33333334 <_end+0x3332f9f4>
    1e36:	66666537          	lui	a0,0x66666
    1e3a:	66750513          	add	a0,a0,1639 # 66666667 <_end+0x66662d27>
    1e3e:	8d6d                	and	a0,a0,a1
    1e40:	62a0a623          	sw	a0,1580(ra)

00001e44 <inst_396>:
    1e44:	666665b7          	lui	a1,0x66666
    1e48:	66758593          	add	a1,a1,1639 # 66666667 <_end+0x66662d27>
    1e4c:	66666537          	lui	a0,0x66666
    1e50:	66750513          	add	a0,a0,1639 # 66666667 <_end+0x66662d27>
    1e54:	8d6d                	and	a0,a0,a1
    1e56:	62a0a823          	sw	a0,1584(ra)

00001e5a <inst_397>:
    1e5a:	ffff55b7          	lui	a1,0xffff5
    1e5e:	afd58593          	add	a1,a1,-1283 # ffff4afd <_end+0xffff11bd>
    1e62:	66666537          	lui	a0,0x66666
    1e66:	66750513          	add	a0,a0,1639 # 66666667 <_end+0x66662d27>
    1e6a:	8d6d                	and	a0,a0,a1
    1e6c:	62a0aa23          	sw	a0,1588(ra)

00001e70 <inst_398>:
    1e70:	0000b5b7          	lui	a1,0xb
    1e74:	50558593          	add	a1,a1,1285 # b505 <_end+0x7bc5>
    1e78:	66666537          	lui	a0,0x66666
    1e7c:	66750513          	add	a0,a0,1639 # 66666667 <_end+0x66662d27>
    1e80:	8d6d                	and	a0,a0,a1
    1e82:	62a0ac23          	sw	a0,1592(ra)

00001e86 <inst_399>:
    1e86:	00300593          	li	a1,3
    1e8a:	ffff5537          	lui	a0,0xffff5
    1e8e:	afd50513          	add	a0,a0,-1283 # ffff4afd <_end+0xffff11bd>
    1e92:	8d6d                	and	a0,a0,a1
    1e94:	62a0ae23          	sw	a0,1596(ra)

00001e98 <inst_400>:
    1e98:	555555b7          	lui	a1,0x55555
    1e9c:	55558593          	add	a1,a1,1365 # 55555555 <_end+0x55551c15>
    1ea0:	ffff5537          	lui	a0,0xffff5
    1ea4:	afd50513          	add	a0,a0,-1283 # ffff4afd <_end+0xffff11bd>
    1ea8:	8d6d                	and	a0,a0,a1
    1eaa:	64a0a023          	sw	a0,1600(ra)

00001eae <inst_401>:
    1eae:	aaaab5b7          	lui	a1,0xaaaab
    1eb2:	aaa58593          	add	a1,a1,-1366 # aaaaaaaa <_end+0xaaaa716a>
    1eb6:	ffff5537          	lui	a0,0xffff5
    1eba:	afd50513          	add	a0,a0,-1283 # ffff4afd <_end+0xffff11bd>
    1ebe:	8d6d                	and	a0,a0,a1
    1ec0:	64a0a223          	sw	a0,1604(ra)

00001ec4 <inst_402>:
    1ec4:	00500593          	li	a1,5
    1ec8:	ffff5537          	lui	a0,0xffff5
    1ecc:	afd50513          	add	a0,a0,-1283 # ffff4afd <_end+0xffff11bd>
    1ed0:	8d6d                	and	a0,a0,a1
    1ed2:	64a0a423          	sw	a0,1608(ra)

00001ed6 <inst_403>:
    1ed6:	333335b7          	lui	a1,0x33333
    1eda:	33358593          	add	a1,a1,819 # 33333333 <_end+0x3332f9f3>
    1ede:	ffff5537          	lui	a0,0xffff5
    1ee2:	afd50513          	add	a0,a0,-1283 # ffff4afd <_end+0xffff11bd>
    1ee6:	8d6d                	and	a0,a0,a1
    1ee8:	64a0a623          	sw	a0,1612(ra)

00001eec <inst_404>:
    1eec:	666665b7          	lui	a1,0x66666
    1ef0:	66658593          	add	a1,a1,1638 # 66666666 <_end+0x66662d26>
    1ef4:	ffff5537          	lui	a0,0xffff5
    1ef8:	afd50513          	add	a0,a0,-1283 # ffff4afd <_end+0xffff11bd>
    1efc:	8d6d                	and	a0,a0,a1
    1efe:	64a0a823          	sw	a0,1616(ra)

00001f02 <inst_405>:
    1f02:	ffff55b7          	lui	a1,0xffff5
    1f06:	afc58593          	add	a1,a1,-1284 # ffff4afc <_end+0xffff11bc>
    1f0a:	ffff5537          	lui	a0,0xffff5
    1f0e:	afd50513          	add	a0,a0,-1283 # ffff4afd <_end+0xffff11bd>
    1f12:	8d6d                	and	a0,a0,a1
    1f14:	64a0aa23          	sw	a0,1620(ra)

00001f18 <inst_406>:
    1f18:	0000b5b7          	lui	a1,0xb
    1f1c:	50458593          	add	a1,a1,1284 # b504 <_end+0x7bc4>
    1f20:	ffff5537          	lui	a0,0xffff5
    1f24:	afd50513          	add	a0,a0,-1283 # ffff4afd <_end+0xffff11bd>
    1f28:	8d6d                	and	a0,a0,a1
    1f2a:	64a0ac23          	sw	a0,1624(ra)

00001f2e <inst_407>:
    1f2e:	00200593          	li	a1,2
    1f32:	ffff5537          	lui	a0,0xffff5
    1f36:	afd50513          	add	a0,a0,-1283 # ffff4afd <_end+0xffff11bd>
    1f3a:	8d6d                	and	a0,a0,a1
    1f3c:	64a0ae23          	sw	a0,1628(ra)

00001f40 <inst_408>:
    1f40:	555555b7          	lui	a1,0x55555
    1f44:	55458593          	add	a1,a1,1364 # 55555554 <_end+0x55551c14>
    1f48:	ffff5537          	lui	a0,0xffff5
    1f4c:	afd50513          	add	a0,a0,-1283 # ffff4afd <_end+0xffff11bd>
    1f50:	8d6d                	and	a0,a0,a1
    1f52:	66a0a023          	sw	a0,1632(ra)

00001f56 <inst_409>:
    1f56:	00000593          	li	a1,0
    1f5a:	ffff5537          	lui	a0,0xffff5
    1f5e:	afd50513          	add	a0,a0,-1283 # ffff4afd <_end+0xffff11bd>
    1f62:	8d6d                	and	a0,a0,a1
    1f64:	66a0a223          	sw	a0,1636(ra)

00001f68 <inst_410>:
    1f68:	00400593          	li	a1,4
    1f6c:	ffff5537          	lui	a0,0xffff5
    1f70:	afd50513          	add	a0,a0,-1283 # ffff4afd <_end+0xffff11bd>
    1f74:	8d6d                	and	a0,a0,a1
    1f76:	66a0a423          	sw	a0,1640(ra)

00001f7a <inst_411>:
    1f7a:	333335b7          	lui	a1,0x33333
    1f7e:	33258593          	add	a1,a1,818 # 33333332 <_end+0x3332f9f2>
    1f82:	ffff5537          	lui	a0,0xffff5
    1f86:	afd50513          	add	a0,a0,-1283 # ffff4afd <_end+0xffff11bd>
    1f8a:	8d6d                	and	a0,a0,a1
    1f8c:	66a0a623          	sw	a0,1644(ra)

00001f90 <inst_412>:
    1f90:	666665b7          	lui	a1,0x66666
    1f94:	66558593          	add	a1,a1,1637 # 66666665 <_end+0x66662d25>
    1f98:	ffff5537          	lui	a0,0xffff5
    1f9c:	afd50513          	add	a0,a0,-1283 # ffff4afd <_end+0xffff11bd>
    1fa0:	8d6d                	and	a0,a0,a1
    1fa2:	66a0a823          	sw	a0,1648(ra)

00001fa6 <inst_413>:
    1fa6:	0000b5b7          	lui	a1,0xb
    1faa:	50358593          	add	a1,a1,1283 # b503 <_end+0x7bc3>
    1fae:	ffff5537          	lui	a0,0xffff5
    1fb2:	afd50513          	add	a0,a0,-1283 # ffff4afd <_end+0xffff11bd>
    1fb6:	8d6d                	and	a0,a0,a1
    1fb8:	66a0aa23          	sw	a0,1652(ra)

00001fbc <inst_414>:
    1fbc:	555555b7          	lui	a1,0x55555
    1fc0:	55658593          	add	a1,a1,1366 # 55555556 <_end+0x55551c16>
    1fc4:	ffff5537          	lui	a0,0xffff5
    1fc8:	afd50513          	add	a0,a0,-1283 # ffff4afd <_end+0xffff11bd>
    1fcc:	8d6d                	and	a0,a0,a1
    1fce:	66a0ac23          	sw	a0,1656(ra)

00001fd2 <inst_415>:
    1fd2:	aaaab5b7          	lui	a1,0xaaaab
    1fd6:	aab58593          	add	a1,a1,-1365 # aaaaaaab <_end+0xaaaa716b>
    1fda:	ffff5537          	lui	a0,0xffff5
    1fde:	afd50513          	add	a0,a0,-1283 # ffff4afd <_end+0xffff11bd>
    1fe2:	8d6d                	and	a0,a0,a1
    1fe4:	66a0ae23          	sw	a0,1660(ra)

00001fe8 <inst_416>:
    1fe8:	00600593          	li	a1,6
    1fec:	ffff5537          	lui	a0,0xffff5
    1ff0:	afd50513          	add	a0,a0,-1283 # ffff4afd <_end+0xffff11bd>
    1ff4:	8d6d                	and	a0,a0,a1
    1ff6:	68a0a023          	sw	a0,1664(ra)

00001ffa <inst_417>:
    1ffa:	333335b7          	lui	a1,0x33333
    1ffe:	33458593          	add	a1,a1,820 # 33333334 <_end+0x3332f9f4>
    2002:	ffff5537          	lui	a0,0xffff5
    2006:	afd50513          	add	a0,a0,-1283 # ffff4afd <_end+0xffff11bd>
    200a:	8d6d                	and	a0,a0,a1
    200c:	68a0a223          	sw	a0,1668(ra)

00002010 <inst_418>:
    2010:	666665b7          	lui	a1,0x66666
    2014:	66758593          	add	a1,a1,1639 # 66666667 <_end+0x66662d27>
    2018:	ffff5537          	lui	a0,0xffff5
    201c:	afd50513          	add	a0,a0,-1283 # ffff4afd <_end+0xffff11bd>
    2020:	8d6d                	and	a0,a0,a1
    2022:	68a0a423          	sw	a0,1672(ra)

00002026 <inst_419>:
    2026:	ffff55b7          	lui	a1,0xffff5
    202a:	afd58593          	add	a1,a1,-1283 # ffff4afd <_end+0xffff11bd>
    202e:	ffff5537          	lui	a0,0xffff5
    2032:	afd50513          	add	a0,a0,-1283 # ffff4afd <_end+0xffff11bd>
    2036:	8d6d                	and	a0,a0,a1
    2038:	68a0a623          	sw	a0,1676(ra)

0000203c <inst_420>:
    203c:	0000b5b7          	lui	a1,0xb
    2040:	50558593          	add	a1,a1,1285 # b505 <_end+0x7bc5>
    2044:	ffff5537          	lui	a0,0xffff5
    2048:	afd50513          	add	a0,a0,-1283 # ffff4afd <_end+0xffff11bd>
    204c:	8d6d                	and	a0,a0,a1
    204e:	68a0a823          	sw	a0,1680(ra)

00002052 <inst_421>:
    2052:	00300593          	li	a1,3
    2056:	0000b537          	lui	a0,0xb
    205a:	50550513          	add	a0,a0,1285 # b505 <_end+0x7bc5>
    205e:	8d6d                	and	a0,a0,a1
    2060:	68a0aa23          	sw	a0,1684(ra)

00002064 <inst_422>:
    2064:	555555b7          	lui	a1,0x55555
    2068:	55558593          	add	a1,a1,1365 # 55555555 <_end+0x55551c15>
    206c:	0000b537          	lui	a0,0xb
    2070:	50550513          	add	a0,a0,1285 # b505 <_end+0x7bc5>
    2074:	8d6d                	and	a0,a0,a1
    2076:	68a0ac23          	sw	a0,1688(ra)

0000207a <inst_423>:
    207a:	aaaab5b7          	lui	a1,0xaaaab
    207e:	aaa58593          	add	a1,a1,-1366 # aaaaaaaa <_end+0xaaaa716a>
    2082:	0000b537          	lui	a0,0xb
    2086:	50550513          	add	a0,a0,1285 # b505 <_end+0x7bc5>
    208a:	8d6d                	and	a0,a0,a1
    208c:	68a0ae23          	sw	a0,1692(ra)

00002090 <inst_424>:
    2090:	00500593          	li	a1,5
    2094:	0000b537          	lui	a0,0xb
    2098:	50550513          	add	a0,a0,1285 # b505 <_end+0x7bc5>
    209c:	8d6d                	and	a0,a0,a1
    209e:	6aa0a023          	sw	a0,1696(ra)

000020a2 <inst_425>:
    20a2:	333335b7          	lui	a1,0x33333
    20a6:	33358593          	add	a1,a1,819 # 33333333 <_end+0x3332f9f3>
    20aa:	0000b537          	lui	a0,0xb
    20ae:	50550513          	add	a0,a0,1285 # b505 <_end+0x7bc5>
    20b2:	8d6d                	and	a0,a0,a1
    20b4:	6aa0a223          	sw	a0,1700(ra)

000020b8 <inst_426>:
    20b8:	666665b7          	lui	a1,0x66666
    20bc:	66658593          	add	a1,a1,1638 # 66666666 <_end+0x66662d26>
    20c0:	0000b537          	lui	a0,0xb
    20c4:	50550513          	add	a0,a0,1285 # b505 <_end+0x7bc5>
    20c8:	8d6d                	and	a0,a0,a1
    20ca:	6aa0a423          	sw	a0,1704(ra)

000020ce <inst_427>:
    20ce:	ffff55b7          	lui	a1,0xffff5
    20d2:	afc58593          	add	a1,a1,-1284 # ffff4afc <_end+0xffff11bc>
    20d6:	0000b537          	lui	a0,0xb
    20da:	50550513          	add	a0,a0,1285 # b505 <_end+0x7bc5>
    20de:	8d6d                	and	a0,a0,a1
    20e0:	6aa0a623          	sw	a0,1708(ra)

000020e4 <inst_428>:
    20e4:	0000b5b7          	lui	a1,0xb
    20e8:	50458593          	add	a1,a1,1284 # b504 <_end+0x7bc4>
    20ec:	0000b537          	lui	a0,0xb
    20f0:	50550513          	add	a0,a0,1285 # b505 <_end+0x7bc5>
    20f4:	8d6d                	and	a0,a0,a1
    20f6:	6aa0a823          	sw	a0,1712(ra)

000020fa <inst_429>:
    20fa:	00200593          	li	a1,2
    20fe:	0000b537          	lui	a0,0xb
    2102:	50550513          	add	a0,a0,1285 # b505 <_end+0x7bc5>
    2106:	8d6d                	and	a0,a0,a1
    2108:	6aa0aa23          	sw	a0,1716(ra)

0000210c <inst_430>:
    210c:	555555b7          	lui	a1,0x55555
    2110:	55458593          	add	a1,a1,1364 # 55555554 <_end+0x55551c14>
    2114:	0000b537          	lui	a0,0xb
    2118:	50550513          	add	a0,a0,1285 # b505 <_end+0x7bc5>
    211c:	8d6d                	and	a0,a0,a1
    211e:	6aa0ac23          	sw	a0,1720(ra)

00002122 <inst_431>:
    2122:	00000593          	li	a1,0
    2126:	0000b537          	lui	a0,0xb
    212a:	50550513          	add	a0,a0,1285 # b505 <_end+0x7bc5>
    212e:	8d6d                	and	a0,a0,a1
    2130:	6aa0ae23          	sw	a0,1724(ra)

00002134 <inst_432>:
    2134:	00400593          	li	a1,4
    2138:	0000b537          	lui	a0,0xb
    213c:	50550513          	add	a0,a0,1285 # b505 <_end+0x7bc5>
    2140:	8d6d                	and	a0,a0,a1
    2142:	6ca0a023          	sw	a0,1728(ra)

00002146 <inst_433>:
    2146:	333335b7          	lui	a1,0x33333
    214a:	33258593          	add	a1,a1,818 # 33333332 <_end+0x3332f9f2>
    214e:	0000b537          	lui	a0,0xb
    2152:	50550513          	add	a0,a0,1285 # b505 <_end+0x7bc5>
    2156:	8d6d                	and	a0,a0,a1
    2158:	6ca0a223          	sw	a0,1732(ra)

0000215c <inst_434>:
    215c:	666665b7          	lui	a1,0x66666
    2160:	66558593          	add	a1,a1,1637 # 66666665 <_end+0x66662d25>
    2164:	0000b537          	lui	a0,0xb
    2168:	50550513          	add	a0,a0,1285 # b505 <_end+0x7bc5>
    216c:	8d6d                	and	a0,a0,a1
    216e:	6ca0a423          	sw	a0,1736(ra)

00002172 <inst_435>:
    2172:	0000b5b7          	lui	a1,0xb
    2176:	50358593          	add	a1,a1,1283 # b503 <_end+0x7bc3>
    217a:	0000b537          	lui	a0,0xb
    217e:	50550513          	add	a0,a0,1285 # b505 <_end+0x7bc5>
    2182:	8d6d                	and	a0,a0,a1
    2184:	6ca0a623          	sw	a0,1740(ra)

00002188 <inst_436>:
    2188:	555555b7          	lui	a1,0x55555
    218c:	55658593          	add	a1,a1,1366 # 55555556 <_end+0x55551c16>
    2190:	0000b537          	lui	a0,0xb
    2194:	50550513          	add	a0,a0,1285 # b505 <_end+0x7bc5>
    2198:	8d6d                	and	a0,a0,a1
    219a:	6ca0a823          	sw	a0,1744(ra)

0000219e <inst_437>:
    219e:	aaaab5b7          	lui	a1,0xaaaab
    21a2:	aab58593          	add	a1,a1,-1365 # aaaaaaab <_end+0xaaaa716b>
    21a6:	0000b537          	lui	a0,0xb
    21aa:	50550513          	add	a0,a0,1285 # b505 <_end+0x7bc5>
    21ae:	8d6d                	and	a0,a0,a1
    21b0:	6ca0aa23          	sw	a0,1748(ra)

000021b4 <inst_438>:
    21b4:	00600593          	li	a1,6
    21b8:	0000b537          	lui	a0,0xb
    21bc:	50550513          	add	a0,a0,1285 # b505 <_end+0x7bc5>
    21c0:	8d6d                	and	a0,a0,a1
    21c2:	6ca0ac23          	sw	a0,1752(ra)

000021c6 <inst_439>:
    21c6:	333335b7          	lui	a1,0x33333
    21ca:	33458593          	add	a1,a1,820 # 33333334 <_end+0x3332f9f4>
    21ce:	0000b537          	lui	a0,0xb
    21d2:	50550513          	add	a0,a0,1285 # b505 <_end+0x7bc5>
    21d6:	8d6d                	and	a0,a0,a1
    21d8:	6ca0ae23          	sw	a0,1756(ra)

000021dc <inst_440>:
    21dc:	666665b7          	lui	a1,0x66666
    21e0:	66758593          	add	a1,a1,1639 # 66666667 <_end+0x66662d27>
    21e4:	0000b537          	lui	a0,0xb
    21e8:	50550513          	add	a0,a0,1285 # b505 <_end+0x7bc5>
    21ec:	8d6d                	and	a0,a0,a1
    21ee:	6ea0a023          	sw	a0,1760(ra)

000021f2 <inst_441>:
    21f2:	ffff55b7          	lui	a1,0xffff5
    21f6:	afd58593          	add	a1,a1,-1283 # ffff4afd <_end+0xffff11bd>
    21fa:	0000b537          	lui	a0,0xb
    21fe:	50550513          	add	a0,a0,1285 # b505 <_end+0x7bc5>
    2202:	8d6d                	and	a0,a0,a1
    2204:	6ea0a223          	sw	a0,1764(ra)

00002208 <inst_442>:
    2208:	0000b5b7          	lui	a1,0xb
    220c:	50558593          	add	a1,a1,1285 # b505 <_end+0x7bc5>
    2210:	0000b537          	lui	a0,0xb
    2214:	50550513          	add	a0,a0,1285 # b505 <_end+0x7bc5>
    2218:	8d6d                	and	a0,a0,a1
    221a:	6ea0a423          	sw	a0,1768(ra)

0000221e <inst_443>:
    221e:	555555b7          	lui	a1,0x55555
    2222:	55458593          	add	a1,a1,1364 # 55555554 <_end+0x55551c14>
    2226:	00000513          	li	a0,0
    222a:	8d6d                	and	a0,a0,a1
    222c:	6ea0a623          	sw	a0,1772(ra)

00002230 <inst_444>:
    2230:	00000593          	li	a1,0
    2234:	00000513          	li	a0,0
    2238:	8d6d                	and	a0,a0,a1
    223a:	6ea0a823          	sw	a0,1776(ra)

0000223e <inst_445>:
    223e:	00400593          	li	a1,4
    2242:	00000513          	li	a0,0
    2246:	8d6d                	and	a0,a0,a1
    2248:	6ea0aa23          	sw	a0,1780(ra)

0000224c <inst_446>:
    224c:	333335b7          	lui	a1,0x33333
    2250:	33258593          	add	a1,a1,818 # 33333332 <_end+0x3332f9f2>
    2254:	00000513          	li	a0,0
    2258:	8d6d                	and	a0,a0,a1
    225a:	6ea0ac23          	sw	a0,1784(ra)

0000225e <inst_447>:
    225e:	666665b7          	lui	a1,0x66666
    2262:	66558593          	add	a1,a1,1637 # 66666665 <_end+0x66662d25>
    2266:	00000513          	li	a0,0
    226a:	8d6d                	and	a0,a0,a1
    226c:	6ea0ae23          	sw	a0,1788(ra)

00002270 <inst_448>:
    2270:	0000b5b7          	lui	a1,0xb
    2274:	50358593          	add	a1,a1,1283 # b503 <_end+0x7bc3>
    2278:	00000513          	li	a0,0
    227c:	8d6d                	and	a0,a0,a1
    227e:	70a0a023          	sw	a0,1792(ra)

00002282 <inst_449>:
    2282:	555555b7          	lui	a1,0x55555
    2286:	55658593          	add	a1,a1,1366 # 55555556 <_end+0x55551c16>
    228a:	00000513          	li	a0,0
    228e:	8d6d                	and	a0,a0,a1
    2290:	70a0a223          	sw	a0,1796(ra)

00002294 <inst_450>:
    2294:	aaaab5b7          	lui	a1,0xaaaab
    2298:	aab58593          	add	a1,a1,-1365 # aaaaaaab <_end+0xaaaa716b>
    229c:	00000513          	li	a0,0
    22a0:	8d6d                	and	a0,a0,a1
    22a2:	70a0a423          	sw	a0,1800(ra)

000022a6 <inst_451>:
    22a6:	00600593          	li	a1,6
    22aa:	00000513          	li	a0,0
    22ae:	8d6d                	and	a0,a0,a1
    22b0:	70a0a623          	sw	a0,1804(ra)

000022b4 <inst_452>:
    22b4:	333335b7          	lui	a1,0x33333
    22b8:	33458593          	add	a1,a1,820 # 33333334 <_end+0x3332f9f4>
    22bc:	00000513          	li	a0,0
    22c0:	8d6d                	and	a0,a0,a1
    22c2:	70a0a823          	sw	a0,1808(ra)

000022c6 <inst_453>:
    22c6:	666665b7          	lui	a1,0x66666
    22ca:	66758593          	add	a1,a1,1639 # 66666667 <_end+0x66662d27>
    22ce:	00000513          	li	a0,0
    22d2:	8d6d                	and	a0,a0,a1
    22d4:	70a0aa23          	sw	a0,1812(ra)

000022d8 <inst_454>:
    22d8:	ffff55b7          	lui	a1,0xffff5
    22dc:	afd58593          	add	a1,a1,-1283 # ffff4afd <_end+0xffff11bd>
    22e0:	00000513          	li	a0,0
    22e4:	8d6d                	and	a0,a0,a1
    22e6:	70a0ac23          	sw	a0,1816(ra)

000022ea <inst_455>:
    22ea:	0000b5b7          	lui	a1,0xb
    22ee:	50558593          	add	a1,a1,1285 # b505 <_end+0x7bc5>
    22f2:	00000513          	li	a0,0
    22f6:	8d6d                	and	a0,a0,a1
    22f8:	70a0ae23          	sw	a0,1820(ra)

000022fc <inst_456>:
    22fc:	00300593          	li	a1,3
    2300:	00400513          	li	a0,4
    2304:	8d6d                	and	a0,a0,a1
    2306:	72a0a023          	sw	a0,1824(ra)

0000230a <inst_457>:
    230a:	555555b7          	lui	a1,0x55555
    230e:	55558593          	add	a1,a1,1365 # 55555555 <_end+0x55551c15>
    2312:	00400513          	li	a0,4
    2316:	8d6d                	and	a0,a0,a1
    2318:	72a0a223          	sw	a0,1828(ra)

0000231c <inst_458>:
    231c:	aaaab5b7          	lui	a1,0xaaaab
    2320:	aaa58593          	add	a1,a1,-1366 # aaaaaaaa <_end+0xaaaa716a>
    2324:	00400513          	li	a0,4
    2328:	8d6d                	and	a0,a0,a1
    232a:	72a0a423          	sw	a0,1832(ra)

0000232e <inst_459>:
    232e:	00500593          	li	a1,5
    2332:	00400513          	li	a0,4
    2336:	8d6d                	and	a0,a0,a1
    2338:	72a0a623          	sw	a0,1836(ra)

0000233c <inst_460>:
    233c:	333335b7          	lui	a1,0x33333
    2340:	33358593          	add	a1,a1,819 # 33333333 <_end+0x3332f9f3>
    2344:	00400513          	li	a0,4
    2348:	8d6d                	and	a0,a0,a1
    234a:	72a0a823          	sw	a0,1840(ra)

0000234e <inst_461>:
    234e:	666665b7          	lui	a1,0x66666
    2352:	66658593          	add	a1,a1,1638 # 66666666 <_end+0x66662d26>
    2356:	00400513          	li	a0,4
    235a:	8d6d                	and	a0,a0,a1
    235c:	72a0aa23          	sw	a0,1844(ra)

00002360 <inst_462>:
    2360:	ffff55b7          	lui	a1,0xffff5
    2364:	afc58593          	add	a1,a1,-1284 # ffff4afc <_end+0xffff11bc>
    2368:	00400513          	li	a0,4
    236c:	8d6d                	and	a0,a0,a1
    236e:	72a0ac23          	sw	a0,1848(ra)

00002372 <inst_463>:
    2372:	0000b5b7          	lui	a1,0xb
    2376:	50458593          	add	a1,a1,1284 # b504 <_end+0x7bc4>
    237a:	00400513          	li	a0,4
    237e:	8d6d                	and	a0,a0,a1
    2380:	72a0ae23          	sw	a0,1852(ra)

00002384 <inst_464>:
    2384:	00200593          	li	a1,2
    2388:	00400513          	li	a0,4
    238c:	8d6d                	and	a0,a0,a1
    238e:	74a0a023          	sw	a0,1856(ra)

00002392 <inst_465>:
    2392:	555555b7          	lui	a1,0x55555
    2396:	55458593          	add	a1,a1,1364 # 55555554 <_end+0x55551c14>
    239a:	00400513          	li	a0,4
    239e:	8d6d                	and	a0,a0,a1
    23a0:	74a0a223          	sw	a0,1860(ra)

000023a4 <inst_466>:
    23a4:	00000593          	li	a1,0
    23a8:	00400513          	li	a0,4
    23ac:	8d6d                	and	a0,a0,a1
    23ae:	74a0a423          	sw	a0,1864(ra)

000023b2 <inst_467>:
    23b2:	00400593          	li	a1,4
    23b6:	00400513          	li	a0,4
    23ba:	8d6d                	and	a0,a0,a1
    23bc:	74a0a623          	sw	a0,1868(ra)

000023c0 <inst_468>:
    23c0:	333335b7          	lui	a1,0x33333
    23c4:	33258593          	add	a1,a1,818 # 33333332 <_end+0x3332f9f2>
    23c8:	00400513          	li	a0,4
    23cc:	8d6d                	and	a0,a0,a1
    23ce:	74a0a823          	sw	a0,1872(ra)

000023d2 <inst_469>:
    23d2:	666665b7          	lui	a1,0x66666
    23d6:	66558593          	add	a1,a1,1637 # 66666665 <_end+0x66662d25>
    23da:	00400513          	li	a0,4
    23de:	8d6d                	and	a0,a0,a1
    23e0:	74a0aa23          	sw	a0,1876(ra)

000023e4 <inst_470>:
    23e4:	0000b5b7          	lui	a1,0xb
    23e8:	50358593          	add	a1,a1,1283 # b503 <_end+0x7bc3>
    23ec:	00400513          	li	a0,4
    23f0:	8d6d                	and	a0,a0,a1
    23f2:	74a0ac23          	sw	a0,1880(ra)

000023f6 <inst_471>:
    23f6:	555555b7          	lui	a1,0x55555
    23fa:	55658593          	add	a1,a1,1366 # 55555556 <_end+0x55551c16>
    23fe:	00400513          	li	a0,4
    2402:	8d6d                	and	a0,a0,a1
    2404:	74a0ae23          	sw	a0,1884(ra)

00002408 <inst_472>:
    2408:	aaaab5b7          	lui	a1,0xaaaab
    240c:	aab58593          	add	a1,a1,-1365 # aaaaaaab <_end+0xaaaa716b>
    2410:	00400513          	li	a0,4
    2414:	8d6d                	and	a0,a0,a1
    2416:	76a0a023          	sw	a0,1888(ra)

0000241a <inst_473>:
    241a:	00600593          	li	a1,6
    241e:	00400513          	li	a0,4
    2422:	8d6d                	and	a0,a0,a1
    2424:	76a0a223          	sw	a0,1892(ra)

00002428 <inst_474>:
    2428:	333335b7          	lui	a1,0x33333
    242c:	33458593          	add	a1,a1,820 # 33333334 <_end+0x3332f9f4>
    2430:	00400513          	li	a0,4
    2434:	8d6d                	and	a0,a0,a1
    2436:	76a0a423          	sw	a0,1896(ra)

0000243a <inst_475>:
    243a:	666665b7          	lui	a1,0x66666
    243e:	66758593          	add	a1,a1,1639 # 66666667 <_end+0x66662d27>
    2442:	00400513          	li	a0,4
    2446:	8d6d                	and	a0,a0,a1
    2448:	76a0a623          	sw	a0,1900(ra)

0000244c <inst_476>:
    244c:	ffff55b7          	lui	a1,0xffff5
    2450:	afd58593          	add	a1,a1,-1283 # ffff4afd <_end+0xffff11bd>
    2454:	00400513          	li	a0,4
    2458:	8d6d                	and	a0,a0,a1
    245a:	76a0a823          	sw	a0,1904(ra)

0000245e <inst_477>:
    245e:	0000b5b7          	lui	a1,0xb
    2462:	50558593          	add	a1,a1,1285 # b505 <_end+0x7bc5>
    2466:	00400513          	li	a0,4
    246a:	8d6d                	and	a0,a0,a1
    246c:	76a0aa23          	sw	a0,1908(ra)

00002470 <inst_478>:
    2470:	00300593          	li	a1,3
    2474:	33333537          	lui	a0,0x33333
    2478:	33250513          	add	a0,a0,818 # 33333332 <_end+0x3332f9f2>
    247c:	8d6d                	and	a0,a0,a1
    247e:	76a0ac23          	sw	a0,1912(ra)

00002482 <inst_479>:
    2482:	555555b7          	lui	a1,0x55555
    2486:	55558593          	add	a1,a1,1365 # 55555555 <_end+0x55551c15>
    248a:	33333537          	lui	a0,0x33333
    248e:	33250513          	add	a0,a0,818 # 33333332 <_end+0x3332f9f2>
    2492:	8d6d                	and	a0,a0,a1
    2494:	76a0ae23          	sw	a0,1916(ra)

00002498 <inst_480>:
    2498:	aaaab5b7          	lui	a1,0xaaaab
    249c:	aaa58593          	add	a1,a1,-1366 # aaaaaaaa <_end+0xaaaa716a>
    24a0:	33333537          	lui	a0,0x33333
    24a4:	33250513          	add	a0,a0,818 # 33333332 <_end+0x3332f9f2>
    24a8:	8d6d                	and	a0,a0,a1
    24aa:	78a0a023          	sw	a0,1920(ra)

000024ae <inst_481>:
    24ae:	00500593          	li	a1,5
    24b2:	33333537          	lui	a0,0x33333
    24b6:	33250513          	add	a0,a0,818 # 33333332 <_end+0x3332f9f2>
    24ba:	8d6d                	and	a0,a0,a1
    24bc:	78a0a223          	sw	a0,1924(ra)

000024c0 <inst_482>:
    24c0:	333335b7          	lui	a1,0x33333
    24c4:	33358593          	add	a1,a1,819 # 33333333 <_end+0x3332f9f3>
    24c8:	33333537          	lui	a0,0x33333
    24cc:	33250513          	add	a0,a0,818 # 33333332 <_end+0x3332f9f2>
    24d0:	8d6d                	and	a0,a0,a1
    24d2:	78a0a423          	sw	a0,1928(ra)

000024d6 <inst_483>:
    24d6:	666665b7          	lui	a1,0x66666
    24da:	66658593          	add	a1,a1,1638 # 66666666 <_end+0x66662d26>
    24de:	33333537          	lui	a0,0x33333
    24e2:	33250513          	add	a0,a0,818 # 33333332 <_end+0x3332f9f2>
    24e6:	8d6d                	and	a0,a0,a1
    24e8:	78a0a623          	sw	a0,1932(ra)

000024ec <inst_484>:
    24ec:	ffff55b7          	lui	a1,0xffff5
    24f0:	afc58593          	add	a1,a1,-1284 # ffff4afc <_end+0xffff11bc>
    24f4:	33333537          	lui	a0,0x33333
    24f8:	33250513          	add	a0,a0,818 # 33333332 <_end+0x3332f9f2>
    24fc:	8d6d                	and	a0,a0,a1
    24fe:	78a0a823          	sw	a0,1936(ra)

00002502 <inst_485>:
    2502:	0000b5b7          	lui	a1,0xb
    2506:	50458593          	add	a1,a1,1284 # b504 <_end+0x7bc4>
    250a:	33333537          	lui	a0,0x33333
    250e:	33250513          	add	a0,a0,818 # 33333332 <_end+0x3332f9f2>
    2512:	8d6d                	and	a0,a0,a1
    2514:	78a0aa23          	sw	a0,1940(ra)

00002518 <inst_486>:
    2518:	00200593          	li	a1,2
    251c:	33333537          	lui	a0,0x33333
    2520:	33250513          	add	a0,a0,818 # 33333332 <_end+0x3332f9f2>
    2524:	8d6d                	and	a0,a0,a1
    2526:	78a0ac23          	sw	a0,1944(ra)

0000252a <inst_487>:
    252a:	555555b7          	lui	a1,0x55555
    252e:	55458593          	add	a1,a1,1364 # 55555554 <_end+0x55551c14>
    2532:	33333537          	lui	a0,0x33333
    2536:	33250513          	add	a0,a0,818 # 33333332 <_end+0x3332f9f2>
    253a:	8d6d                	and	a0,a0,a1
    253c:	78a0ae23          	sw	a0,1948(ra)

00002540 <inst_488>:
    2540:	00000593          	li	a1,0
    2544:	33333537          	lui	a0,0x33333
    2548:	33250513          	add	a0,a0,818 # 33333332 <_end+0x3332f9f2>
    254c:	8d6d                	and	a0,a0,a1
    254e:	7aa0a023          	sw	a0,1952(ra)

00002552 <inst_489>:
    2552:	00400593          	li	a1,4
    2556:	33333537          	lui	a0,0x33333
    255a:	33250513          	add	a0,a0,818 # 33333332 <_end+0x3332f9f2>
    255e:	8d6d                	and	a0,a0,a1
    2560:	7aa0a223          	sw	a0,1956(ra)

00002564 <inst_490>:
    2564:	333335b7          	lui	a1,0x33333
    2568:	33258593          	add	a1,a1,818 # 33333332 <_end+0x3332f9f2>
    256c:	33333537          	lui	a0,0x33333
    2570:	33250513          	add	a0,a0,818 # 33333332 <_end+0x3332f9f2>
    2574:	8d6d                	and	a0,a0,a1
    2576:	7aa0a423          	sw	a0,1960(ra)

0000257a <inst_491>:
    257a:	666665b7          	lui	a1,0x66666
    257e:	66558593          	add	a1,a1,1637 # 66666665 <_end+0x66662d25>
    2582:	33333537          	lui	a0,0x33333
    2586:	33250513          	add	a0,a0,818 # 33333332 <_end+0x3332f9f2>
    258a:	8d6d                	and	a0,a0,a1
    258c:	7aa0a623          	sw	a0,1964(ra)

00002590 <inst_492>:
    2590:	0000b5b7          	lui	a1,0xb
    2594:	50358593          	add	a1,a1,1283 # b503 <_end+0x7bc3>
    2598:	33333537          	lui	a0,0x33333
    259c:	33250513          	add	a0,a0,818 # 33333332 <_end+0x3332f9f2>
    25a0:	8d6d                	and	a0,a0,a1
    25a2:	7aa0a823          	sw	a0,1968(ra)

000025a6 <inst_493>:
    25a6:	555555b7          	lui	a1,0x55555
    25aa:	55658593          	add	a1,a1,1366 # 55555556 <_end+0x55551c16>
    25ae:	33333537          	lui	a0,0x33333
    25b2:	33250513          	add	a0,a0,818 # 33333332 <_end+0x3332f9f2>
    25b6:	8d6d                	and	a0,a0,a1
    25b8:	7aa0aa23          	sw	a0,1972(ra)

000025bc <inst_494>:
    25bc:	aaaab5b7          	lui	a1,0xaaaab
    25c0:	aab58593          	add	a1,a1,-1365 # aaaaaaab <_end+0xaaaa716b>
    25c4:	33333537          	lui	a0,0x33333
    25c8:	33250513          	add	a0,a0,818 # 33333332 <_end+0x3332f9f2>
    25cc:	8d6d                	and	a0,a0,a1
    25ce:	7aa0ac23          	sw	a0,1976(ra)

000025d2 <inst_495>:
    25d2:	00600593          	li	a1,6
    25d6:	33333537          	lui	a0,0x33333
    25da:	33250513          	add	a0,a0,818 # 33333332 <_end+0x3332f9f2>
    25de:	8d6d                	and	a0,a0,a1
    25e0:	7aa0ae23          	sw	a0,1980(ra)

000025e4 <inst_496>:
    25e4:	333335b7          	lui	a1,0x33333
    25e8:	33458593          	add	a1,a1,820 # 33333334 <_end+0x3332f9f4>
    25ec:	33333537          	lui	a0,0x33333
    25f0:	33250513          	add	a0,a0,818 # 33333332 <_end+0x3332f9f2>
    25f4:	8d6d                	and	a0,a0,a1
    25f6:	7ca0a023          	sw	a0,1984(ra)

000025fa <inst_497>:
    25fa:	666665b7          	lui	a1,0x66666
    25fe:	66758593          	add	a1,a1,1639 # 66666667 <_end+0x66662d27>
    2602:	33333537          	lui	a0,0x33333
    2606:	33250513          	add	a0,a0,818 # 33333332 <_end+0x3332f9f2>
    260a:	8d6d                	and	a0,a0,a1
    260c:	7ca0a223          	sw	a0,1988(ra)

00002610 <inst_498>:
    2610:	ffff55b7          	lui	a1,0xffff5
    2614:	afd58593          	add	a1,a1,-1283 # ffff4afd <_end+0xffff11bd>
    2618:	33333537          	lui	a0,0x33333
    261c:	33250513          	add	a0,a0,818 # 33333332 <_end+0x3332f9f2>
    2620:	8d6d                	and	a0,a0,a1
    2622:	7ca0a423          	sw	a0,1992(ra)

00002626 <inst_499>:
    2626:	0000b5b7          	lui	a1,0xb
    262a:	50558593          	add	a1,a1,1285 # b505 <_end+0x7bc5>
    262e:	33333537          	lui	a0,0x33333
    2632:	33250513          	add	a0,a0,818 # 33333332 <_end+0x3332f9f2>
    2636:	8d6d                	and	a0,a0,a1
    2638:	7ca0a623          	sw	a0,1996(ra)

0000263c <inst_500>:
    263c:	00300593          	li	a1,3
    2640:	66666537          	lui	a0,0x66666
    2644:	66550513          	add	a0,a0,1637 # 66666665 <_end+0x66662d25>
    2648:	8d6d                	and	a0,a0,a1
    264a:	7ca0a823          	sw	a0,2000(ra)

0000264e <inst_501>:
    264e:	555555b7          	lui	a1,0x55555
    2652:	55558593          	add	a1,a1,1365 # 55555555 <_end+0x55551c15>
    2656:	66666537          	lui	a0,0x66666
    265a:	66550513          	add	a0,a0,1637 # 66666665 <_end+0x66662d25>
    265e:	8d6d                	and	a0,a0,a1
    2660:	7ca0aa23          	sw	a0,2004(ra)

00002664 <inst_502>:
    2664:	aaaab5b7          	lui	a1,0xaaaab
    2668:	aaa58593          	add	a1,a1,-1366 # aaaaaaaa <_end+0xaaaa716a>
    266c:	66666537          	lui	a0,0x66666
    2670:	66550513          	add	a0,a0,1637 # 66666665 <_end+0x66662d25>
    2674:	8d6d                	and	a0,a0,a1
    2676:	7ca0ac23          	sw	a0,2008(ra)

0000267a <inst_503>:
    267a:	00500593          	li	a1,5
    267e:	66666537          	lui	a0,0x66666
    2682:	66550513          	add	a0,a0,1637 # 66666665 <_end+0x66662d25>
    2686:	8d6d                	and	a0,a0,a1
    2688:	7ca0ae23          	sw	a0,2012(ra)

0000268c <inst_504>:
    268c:	333335b7          	lui	a1,0x33333
    2690:	33358593          	add	a1,a1,819 # 33333333 <_end+0x3332f9f3>
    2694:	66666537          	lui	a0,0x66666
    2698:	66550513          	add	a0,a0,1637 # 66666665 <_end+0x66662d25>
    269c:	8d6d                	and	a0,a0,a1
    269e:	7ea0a023          	sw	a0,2016(ra)

000026a2 <inst_505>:
    26a2:	666665b7          	lui	a1,0x66666
    26a6:	66658593          	add	a1,a1,1638 # 66666666 <_end+0x66662d26>
    26aa:	66666537          	lui	a0,0x66666
    26ae:	66550513          	add	a0,a0,1637 # 66666665 <_end+0x66662d25>
    26b2:	8d6d                	and	a0,a0,a1
    26b4:	7ea0a223          	sw	a0,2020(ra)

000026b8 <inst_506>:
    26b8:	ffff55b7          	lui	a1,0xffff5
    26bc:	afc58593          	add	a1,a1,-1284 # ffff4afc <_end+0xffff11bc>
    26c0:	66666537          	lui	a0,0x66666
    26c4:	66550513          	add	a0,a0,1637 # 66666665 <_end+0x66662d25>
    26c8:	8d6d                	and	a0,a0,a1
    26ca:	7ea0a423          	sw	a0,2024(ra)

000026ce <inst_507>:
    26ce:	0000b5b7          	lui	a1,0xb
    26d2:	50458593          	add	a1,a1,1284 # b504 <_end+0x7bc4>
    26d6:	66666537          	lui	a0,0x66666
    26da:	66550513          	add	a0,a0,1637 # 66666665 <_end+0x66662d25>
    26de:	8d6d                	and	a0,a0,a1
    26e0:	7ea0a623          	sw	a0,2028(ra)

000026e4 <inst_508>:
    26e4:	00200593          	li	a1,2
    26e8:	66666537          	lui	a0,0x66666
    26ec:	66550513          	add	a0,a0,1637 # 66666665 <_end+0x66662d25>
    26f0:	8d6d                	and	a0,a0,a1
    26f2:	7ea0a823          	sw	a0,2032(ra)

000026f6 <inst_509>:
    26f6:	555555b7          	lui	a1,0x55555
    26fa:	55458593          	add	a1,a1,1364 # 55555554 <_end+0x55551c14>
    26fe:	66666537          	lui	a0,0x66666
    2702:	66550513          	add	a0,a0,1637 # 66666665 <_end+0x66662d25>
    2706:	8d6d                	and	a0,a0,a1
    2708:	7ea0aa23          	sw	a0,2036(ra)

0000270c <inst_510>:
    270c:	00000593          	li	a1,0
    2710:	66666537          	lui	a0,0x66666
    2714:	66550513          	add	a0,a0,1637 # 66666665 <_end+0x66662d25>
    2718:	8d6d                	and	a0,a0,a1
    271a:	7ea0ac23          	sw	a0,2040(ra)

0000271e <inst_511>:
    271e:	00400593          	li	a1,4
    2722:	66666537          	lui	a0,0x66666
    2726:	66550513          	add	a0,a0,1637 # 66666665 <_end+0x66662d25>
    272a:	8d6d                	and	a0,a0,a1
    272c:	7ea0ae23          	sw	a0,2044(ra)
    2730:	00001097          	auipc	ra,0x1
    2734:	0e008093          	add	ra,ra,224 # 3810 <signature_x1_2>

00002738 <inst_512>:
    2738:	333335b7          	lui	a1,0x33333
    273c:	33258593          	add	a1,a1,818 # 33333332 <_end+0x3332f9f2>
    2740:	66666537          	lui	a0,0x66666
    2744:	66550513          	add	a0,a0,1637 # 66666665 <_end+0x66662d25>
    2748:	8d6d                	and	a0,a0,a1
    274a:	00a0a023          	sw	a0,0(ra)

0000274e <inst_513>:
    274e:	666665b7          	lui	a1,0x66666
    2752:	66558593          	add	a1,a1,1637 # 66666665 <_end+0x66662d25>
    2756:	66666537          	lui	a0,0x66666
    275a:	66550513          	add	a0,a0,1637 # 66666665 <_end+0x66662d25>
    275e:	8d6d                	and	a0,a0,a1
    2760:	00a0a223          	sw	a0,4(ra)

00002764 <inst_514>:
    2764:	0000b5b7          	lui	a1,0xb
    2768:	50358593          	add	a1,a1,1283 # b503 <_end+0x7bc3>
    276c:	66666537          	lui	a0,0x66666
    2770:	66550513          	add	a0,a0,1637 # 66666665 <_end+0x66662d25>
    2774:	8d6d                	and	a0,a0,a1
    2776:	00a0a423          	sw	a0,8(ra)

0000277a <inst_515>:
    277a:	555555b7          	lui	a1,0x55555
    277e:	55658593          	add	a1,a1,1366 # 55555556 <_end+0x55551c16>
    2782:	66666537          	lui	a0,0x66666
    2786:	66550513          	add	a0,a0,1637 # 66666665 <_end+0x66662d25>
    278a:	8d6d                	and	a0,a0,a1
    278c:	00a0a623          	sw	a0,12(ra)

00002790 <inst_516>:
    2790:	aaaab5b7          	lui	a1,0xaaaab
    2794:	aab58593          	add	a1,a1,-1365 # aaaaaaab <_end+0xaaaa716b>
    2798:	66666537          	lui	a0,0x66666
    279c:	66550513          	add	a0,a0,1637 # 66666665 <_end+0x66662d25>
    27a0:	8d6d                	and	a0,a0,a1
    27a2:	00a0a823          	sw	a0,16(ra)

000027a6 <inst_517>:
    27a6:	00600593          	li	a1,6
    27aa:	66666537          	lui	a0,0x66666
    27ae:	66550513          	add	a0,a0,1637 # 66666665 <_end+0x66662d25>
    27b2:	8d6d                	and	a0,a0,a1
    27b4:	00a0aa23          	sw	a0,20(ra)

000027b8 <inst_518>:
    27b8:	333335b7          	lui	a1,0x33333
    27bc:	33458593          	add	a1,a1,820 # 33333334 <_end+0x3332f9f4>
    27c0:	66666537          	lui	a0,0x66666
    27c4:	66550513          	add	a0,a0,1637 # 66666665 <_end+0x66662d25>
    27c8:	8d6d                	and	a0,a0,a1
    27ca:	00a0ac23          	sw	a0,24(ra)

000027ce <inst_519>:
    27ce:	666665b7          	lui	a1,0x66666
    27d2:	66758593          	add	a1,a1,1639 # 66666667 <_end+0x66662d27>
    27d6:	66666537          	lui	a0,0x66666
    27da:	66550513          	add	a0,a0,1637 # 66666665 <_end+0x66662d25>
    27de:	8d6d                	and	a0,a0,a1
    27e0:	00a0ae23          	sw	a0,28(ra)

000027e4 <inst_520>:
    27e4:	ffff55b7          	lui	a1,0xffff5
    27e8:	afd58593          	add	a1,a1,-1283 # ffff4afd <_end+0xffff11bd>
    27ec:	66666537          	lui	a0,0x66666
    27f0:	66550513          	add	a0,a0,1637 # 66666665 <_end+0x66662d25>
    27f4:	8d6d                	and	a0,a0,a1
    27f6:	02a0a023          	sw	a0,32(ra)

000027fa <inst_521>:
    27fa:	0000b5b7          	lui	a1,0xb
    27fe:	50558593          	add	a1,a1,1285 # b505 <_end+0x7bc5>
    2802:	66666537          	lui	a0,0x66666
    2806:	66550513          	add	a0,a0,1637 # 66666665 <_end+0x66662d25>
    280a:	8d6d                	and	a0,a0,a1
    280c:	02a0a223          	sw	a0,36(ra)

00002810 <inst_522>:
    2810:	00300593          	li	a1,3
    2814:	0000b537          	lui	a0,0xb
    2818:	50350513          	add	a0,a0,1283 # b503 <_end+0x7bc3>
    281c:	8d6d                	and	a0,a0,a1
    281e:	02a0a423          	sw	a0,40(ra)

00002822 <inst_523>:
    2822:	555555b7          	lui	a1,0x55555
    2826:	55558593          	add	a1,a1,1365 # 55555555 <_end+0x55551c15>
    282a:	0000b537          	lui	a0,0xb
    282e:	50350513          	add	a0,a0,1283 # b503 <_end+0x7bc3>
    2832:	8d6d                	and	a0,a0,a1
    2834:	02a0a623          	sw	a0,44(ra)

00002838 <inst_524>:
    2838:	aaaab5b7          	lui	a1,0xaaaab
    283c:	aaa58593          	add	a1,a1,-1366 # aaaaaaaa <_end+0xaaaa716a>
    2840:	0000b537          	lui	a0,0xb
    2844:	50350513          	add	a0,a0,1283 # b503 <_end+0x7bc3>
    2848:	8d6d                	and	a0,a0,a1
    284a:	02a0a823          	sw	a0,48(ra)

0000284e <inst_525>:
    284e:	00500593          	li	a1,5
    2852:	0000b537          	lui	a0,0xb
    2856:	50350513          	add	a0,a0,1283 # b503 <_end+0x7bc3>
    285a:	8d6d                	and	a0,a0,a1
    285c:	02a0aa23          	sw	a0,52(ra)

00002860 <inst_526>:
    2860:	333335b7          	lui	a1,0x33333
    2864:	33358593          	add	a1,a1,819 # 33333333 <_end+0x3332f9f3>
    2868:	0000b537          	lui	a0,0xb
    286c:	50350513          	add	a0,a0,1283 # b503 <_end+0x7bc3>
    2870:	8d6d                	and	a0,a0,a1
    2872:	02a0ac23          	sw	a0,56(ra)

00002876 <inst_527>:
    2876:	666665b7          	lui	a1,0x66666
    287a:	66658593          	add	a1,a1,1638 # 66666666 <_end+0x66662d26>
    287e:	0000b537          	lui	a0,0xb
    2882:	50350513          	add	a0,a0,1283 # b503 <_end+0x7bc3>
    2886:	8d6d                	and	a0,a0,a1
    2888:	02a0ae23          	sw	a0,60(ra)

0000288c <inst_528>:
    288c:	ffff55b7          	lui	a1,0xffff5
    2890:	afc58593          	add	a1,a1,-1284 # ffff4afc <_end+0xffff11bc>
    2894:	0000b537          	lui	a0,0xb
    2898:	50350513          	add	a0,a0,1283 # b503 <_end+0x7bc3>
    289c:	8d6d                	and	a0,a0,a1
    289e:	04a0a023          	sw	a0,64(ra)

000028a2 <inst_529>:
    28a2:	0000b5b7          	lui	a1,0xb
    28a6:	50458593          	add	a1,a1,1284 # b504 <_end+0x7bc4>
    28aa:	0000b537          	lui	a0,0xb
    28ae:	50350513          	add	a0,a0,1283 # b503 <_end+0x7bc3>
    28b2:	8d6d                	and	a0,a0,a1
    28b4:	04a0a223          	sw	a0,68(ra)

000028b8 <inst_530>:
    28b8:	00200593          	li	a1,2
    28bc:	0000b537          	lui	a0,0xb
    28c0:	50350513          	add	a0,a0,1283 # b503 <_end+0x7bc3>
    28c4:	8d6d                	and	a0,a0,a1
    28c6:	04a0a423          	sw	a0,72(ra)

000028ca <inst_531>:
    28ca:	555555b7          	lui	a1,0x55555
    28ce:	55458593          	add	a1,a1,1364 # 55555554 <_end+0x55551c14>
    28d2:	0000b537          	lui	a0,0xb
    28d6:	50350513          	add	a0,a0,1283 # b503 <_end+0x7bc3>
    28da:	8d6d                	and	a0,a0,a1
    28dc:	04a0a623          	sw	a0,76(ra)

000028e0 <inst_532>:
    28e0:	00000593          	li	a1,0
    28e4:	0000b537          	lui	a0,0xb
    28e8:	50350513          	add	a0,a0,1283 # b503 <_end+0x7bc3>
    28ec:	8d6d                	and	a0,a0,a1
    28ee:	04a0a823          	sw	a0,80(ra)

000028f2 <inst_533>:
    28f2:	00400593          	li	a1,4
    28f6:	0000b537          	lui	a0,0xb
    28fa:	50350513          	add	a0,a0,1283 # b503 <_end+0x7bc3>
    28fe:	8d6d                	and	a0,a0,a1
    2900:	04a0aa23          	sw	a0,84(ra)

00002904 <inst_534>:
    2904:	333335b7          	lui	a1,0x33333
    2908:	33258593          	add	a1,a1,818 # 33333332 <_end+0x3332f9f2>
    290c:	0000b537          	lui	a0,0xb
    2910:	50350513          	add	a0,a0,1283 # b503 <_end+0x7bc3>
    2914:	8d6d                	and	a0,a0,a1
    2916:	04a0ac23          	sw	a0,88(ra)

0000291a <inst_535>:
    291a:	666665b7          	lui	a1,0x66666
    291e:	66558593          	add	a1,a1,1637 # 66666665 <_end+0x66662d25>
    2922:	0000b537          	lui	a0,0xb
    2926:	50350513          	add	a0,a0,1283 # b503 <_end+0x7bc3>
    292a:	8d6d                	and	a0,a0,a1
    292c:	04a0ae23          	sw	a0,92(ra)

00002930 <inst_536>:
    2930:	0000b5b7          	lui	a1,0xb
    2934:	50358593          	add	a1,a1,1283 # b503 <_end+0x7bc3>
    2938:	0000b537          	lui	a0,0xb
    293c:	50350513          	add	a0,a0,1283 # b503 <_end+0x7bc3>
    2940:	8d6d                	and	a0,a0,a1
    2942:	06a0a023          	sw	a0,96(ra)

00002946 <inst_537>:
    2946:	555555b7          	lui	a1,0x55555
    294a:	55658593          	add	a1,a1,1366 # 55555556 <_end+0x55551c16>
    294e:	0000b537          	lui	a0,0xb
    2952:	50350513          	add	a0,a0,1283 # b503 <_end+0x7bc3>
    2956:	8d6d                	and	a0,a0,a1
    2958:	06a0a223          	sw	a0,100(ra)

0000295c <inst_538>:
    295c:	aaaab5b7          	lui	a1,0xaaaab
    2960:	aab58593          	add	a1,a1,-1365 # aaaaaaab <_end+0xaaaa716b>
    2964:	0000b537          	lui	a0,0xb
    2968:	50350513          	add	a0,a0,1283 # b503 <_end+0x7bc3>
    296c:	8d6d                	and	a0,a0,a1
    296e:	06a0a423          	sw	a0,104(ra)

00002972 <inst_539>:
    2972:	00600593          	li	a1,6
    2976:	0000b537          	lui	a0,0xb
    297a:	50350513          	add	a0,a0,1283 # b503 <_end+0x7bc3>
    297e:	8d6d                	and	a0,a0,a1
    2980:	06a0a623          	sw	a0,108(ra)

00002984 <inst_540>:
    2984:	333335b7          	lui	a1,0x33333
    2988:	33458593          	add	a1,a1,820 # 33333334 <_end+0x3332f9f4>
    298c:	0000b537          	lui	a0,0xb
    2990:	50350513          	add	a0,a0,1283 # b503 <_end+0x7bc3>
    2994:	8d6d                	and	a0,a0,a1
    2996:	06a0a823          	sw	a0,112(ra)

0000299a <inst_541>:
    299a:	666665b7          	lui	a1,0x66666
    299e:	66758593          	add	a1,a1,1639 # 66666667 <_end+0x66662d27>
    29a2:	0000b537          	lui	a0,0xb
    29a6:	50350513          	add	a0,a0,1283 # b503 <_end+0x7bc3>
    29aa:	8d6d                	and	a0,a0,a1
    29ac:	06a0aa23          	sw	a0,116(ra)

000029b0 <inst_542>:
    29b0:	ffff55b7          	lui	a1,0xffff5
    29b4:	afd58593          	add	a1,a1,-1283 # ffff4afd <_end+0xffff11bd>
    29b8:	0000b537          	lui	a0,0xb
    29bc:	50350513          	add	a0,a0,1283 # b503 <_end+0x7bc3>
    29c0:	8d6d                	and	a0,a0,a1
    29c2:	06a0ac23          	sw	a0,120(ra)

000029c6 <inst_543>:
    29c6:	0000b5b7          	lui	a1,0xb
    29ca:	50558593          	add	a1,a1,1285 # b505 <_end+0x7bc5>
    29ce:	0000b537          	lui	a0,0xb
    29d2:	50350513          	add	a0,a0,1283 # b503 <_end+0x7bc3>
    29d6:	8d6d                	and	a0,a0,a1
    29d8:	06a0ae23          	sw	a0,124(ra)

000029dc <inst_544>:
    29dc:	00300593          	li	a1,3
    29e0:	55555537          	lui	a0,0x55555
    29e4:	55650513          	add	a0,a0,1366 # 55555556 <_end+0x55551c16>
    29e8:	8d6d                	and	a0,a0,a1
    29ea:	08a0a023          	sw	a0,128(ra)

000029ee <inst_545>:
    29ee:	555555b7          	lui	a1,0x55555
    29f2:	55558593          	add	a1,a1,1365 # 55555555 <_end+0x55551c15>
    29f6:	55555537          	lui	a0,0x55555
    29fa:	55650513          	add	a0,a0,1366 # 55555556 <_end+0x55551c16>
    29fe:	8d6d                	and	a0,a0,a1
    2a00:	08a0a223          	sw	a0,132(ra)

00002a04 <inst_546>:
    2a04:	aaaab5b7          	lui	a1,0xaaaab
    2a08:	aaa58593          	add	a1,a1,-1366 # aaaaaaaa <_end+0xaaaa716a>
    2a0c:	55555537          	lui	a0,0x55555
    2a10:	55650513          	add	a0,a0,1366 # 55555556 <_end+0x55551c16>
    2a14:	8d6d                	and	a0,a0,a1
    2a16:	08a0a423          	sw	a0,136(ra)

00002a1a <inst_547>:
    2a1a:	00500593          	li	a1,5
    2a1e:	55555537          	lui	a0,0x55555
    2a22:	55650513          	add	a0,a0,1366 # 55555556 <_end+0x55551c16>
    2a26:	8d6d                	and	a0,a0,a1
    2a28:	08a0a623          	sw	a0,140(ra)

00002a2c <inst_548>:
    2a2c:	333335b7          	lui	a1,0x33333
    2a30:	33358593          	add	a1,a1,819 # 33333333 <_end+0x3332f9f3>
    2a34:	55555537          	lui	a0,0x55555
    2a38:	55650513          	add	a0,a0,1366 # 55555556 <_end+0x55551c16>
    2a3c:	8d6d                	and	a0,a0,a1
    2a3e:	08a0a823          	sw	a0,144(ra)

00002a42 <inst_549>:
    2a42:	666665b7          	lui	a1,0x66666
    2a46:	66658593          	add	a1,a1,1638 # 66666666 <_end+0x66662d26>
    2a4a:	55555537          	lui	a0,0x55555
    2a4e:	55650513          	add	a0,a0,1366 # 55555556 <_end+0x55551c16>
    2a52:	8d6d                	and	a0,a0,a1
    2a54:	08a0aa23          	sw	a0,148(ra)

00002a58 <inst_550>:
    2a58:	ffff55b7          	lui	a1,0xffff5
    2a5c:	afc58593          	add	a1,a1,-1284 # ffff4afc <_end+0xffff11bc>
    2a60:	55555537          	lui	a0,0x55555
    2a64:	55650513          	add	a0,a0,1366 # 55555556 <_end+0x55551c16>
    2a68:	8d6d                	and	a0,a0,a1
    2a6a:	08a0ac23          	sw	a0,152(ra)

00002a6e <inst_551>:
    2a6e:	0000b5b7          	lui	a1,0xb
    2a72:	50458593          	add	a1,a1,1284 # b504 <_end+0x7bc4>
    2a76:	55555537          	lui	a0,0x55555
    2a7a:	55650513          	add	a0,a0,1366 # 55555556 <_end+0x55551c16>
    2a7e:	8d6d                	and	a0,a0,a1
    2a80:	08a0ae23          	sw	a0,156(ra)

00002a84 <inst_552>:
    2a84:	00200593          	li	a1,2
    2a88:	55555537          	lui	a0,0x55555
    2a8c:	55650513          	add	a0,a0,1366 # 55555556 <_end+0x55551c16>
    2a90:	8d6d                	and	a0,a0,a1
    2a92:	0aa0a023          	sw	a0,160(ra)

00002a96 <inst_553>:
    2a96:	555555b7          	lui	a1,0x55555
    2a9a:	55458593          	add	a1,a1,1364 # 55555554 <_end+0x55551c14>
    2a9e:	55555537          	lui	a0,0x55555
    2aa2:	55650513          	add	a0,a0,1366 # 55555556 <_end+0x55551c16>
    2aa6:	8d6d                	and	a0,a0,a1
    2aa8:	0aa0a223          	sw	a0,164(ra)

00002aac <inst_554>:
    2aac:	00000593          	li	a1,0
    2ab0:	55555537          	lui	a0,0x55555
    2ab4:	55650513          	add	a0,a0,1366 # 55555556 <_end+0x55551c16>
    2ab8:	8d6d                	and	a0,a0,a1
    2aba:	0aa0a423          	sw	a0,168(ra)

00002abe <inst_555>:
    2abe:	00400593          	li	a1,4
    2ac2:	55555537          	lui	a0,0x55555
    2ac6:	55650513          	add	a0,a0,1366 # 55555556 <_end+0x55551c16>
    2aca:	8d6d                	and	a0,a0,a1
    2acc:	0aa0a623          	sw	a0,172(ra)

00002ad0 <inst_556>:
    2ad0:	333335b7          	lui	a1,0x33333
    2ad4:	33258593          	add	a1,a1,818 # 33333332 <_end+0x3332f9f2>
    2ad8:	55555537          	lui	a0,0x55555
    2adc:	55650513          	add	a0,a0,1366 # 55555556 <_end+0x55551c16>
    2ae0:	8d6d                	and	a0,a0,a1
    2ae2:	0aa0a823          	sw	a0,176(ra)

00002ae6 <inst_557>:
    2ae6:	666665b7          	lui	a1,0x66666
    2aea:	66558593          	add	a1,a1,1637 # 66666665 <_end+0x66662d25>
    2aee:	55555537          	lui	a0,0x55555
    2af2:	55650513          	add	a0,a0,1366 # 55555556 <_end+0x55551c16>
    2af6:	8d6d                	and	a0,a0,a1
    2af8:	0aa0aa23          	sw	a0,180(ra)

00002afc <inst_558>:
    2afc:	0000b5b7          	lui	a1,0xb
    2b00:	50358593          	add	a1,a1,1283 # b503 <_end+0x7bc3>
    2b04:	55555537          	lui	a0,0x55555
    2b08:	55650513          	add	a0,a0,1366 # 55555556 <_end+0x55551c16>
    2b0c:	8d6d                	and	a0,a0,a1
    2b0e:	0aa0ac23          	sw	a0,184(ra)

00002b12 <inst_559>:
    2b12:	555555b7          	lui	a1,0x55555
    2b16:	55658593          	add	a1,a1,1366 # 55555556 <_end+0x55551c16>
    2b1a:	55555537          	lui	a0,0x55555
    2b1e:	55650513          	add	a0,a0,1366 # 55555556 <_end+0x55551c16>
    2b22:	8d6d                	and	a0,a0,a1
    2b24:	0aa0ae23          	sw	a0,188(ra)

00002b28 <inst_560>:
    2b28:	aaaab5b7          	lui	a1,0xaaaab
    2b2c:	aab58593          	add	a1,a1,-1365 # aaaaaaab <_end+0xaaaa716b>
    2b30:	55555537          	lui	a0,0x55555
    2b34:	55650513          	add	a0,a0,1366 # 55555556 <_end+0x55551c16>
    2b38:	8d6d                	and	a0,a0,a1
    2b3a:	0ca0a023          	sw	a0,192(ra)

00002b3e <inst_561>:
    2b3e:	00600593          	li	a1,6
    2b42:	55555537          	lui	a0,0x55555
    2b46:	55650513          	add	a0,a0,1366 # 55555556 <_end+0x55551c16>
    2b4a:	8d6d                	and	a0,a0,a1
    2b4c:	0ca0a223          	sw	a0,196(ra)

00002b50 <inst_562>:
    2b50:	333335b7          	lui	a1,0x33333
    2b54:	33458593          	add	a1,a1,820 # 33333334 <_end+0x3332f9f4>
    2b58:	55555537          	lui	a0,0x55555
    2b5c:	55650513          	add	a0,a0,1366 # 55555556 <_end+0x55551c16>
    2b60:	8d6d                	and	a0,a0,a1
    2b62:	0ca0a423          	sw	a0,200(ra)

00002b66 <inst_563>:
    2b66:	666665b7          	lui	a1,0x66666
    2b6a:	66758593          	add	a1,a1,1639 # 66666667 <_end+0x66662d27>
    2b6e:	55555537          	lui	a0,0x55555
    2b72:	55650513          	add	a0,a0,1366 # 55555556 <_end+0x55551c16>
    2b76:	8d6d                	and	a0,a0,a1
    2b78:	0ca0a623          	sw	a0,204(ra)

00002b7c <inst_564>:
    2b7c:	ffff55b7          	lui	a1,0xffff5
    2b80:	afd58593          	add	a1,a1,-1283 # ffff4afd <_end+0xffff11bd>
    2b84:	55555537          	lui	a0,0x55555
    2b88:	55650513          	add	a0,a0,1366 # 55555556 <_end+0x55551c16>
    2b8c:	8d6d                	and	a0,a0,a1
    2b8e:	0ca0a823          	sw	a0,208(ra)

00002b92 <inst_565>:
    2b92:	0000b5b7          	lui	a1,0xb
    2b96:	50558593          	add	a1,a1,1285 # b505 <_end+0x7bc5>
    2b9a:	55555537          	lui	a0,0x55555
    2b9e:	55650513          	add	a0,a0,1366 # 55555556 <_end+0x55551c16>
    2ba2:	8d6d                	and	a0,a0,a1
    2ba4:	0ca0aa23          	sw	a0,212(ra)

00002ba8 <inst_566>:
    2ba8:	00300593          	li	a1,3
    2bac:	aaaab537          	lui	a0,0xaaaab
    2bb0:	aab50513          	add	a0,a0,-1365 # aaaaaaab <_end+0xaaaa716b>
    2bb4:	8d6d                	and	a0,a0,a1
    2bb6:	0ca0ac23          	sw	a0,216(ra)

00002bba <inst_567>:
    2bba:	555555b7          	lui	a1,0x55555
    2bbe:	55558593          	add	a1,a1,1365 # 55555555 <_end+0x55551c15>
    2bc2:	aaaab537          	lui	a0,0xaaaab
    2bc6:	aab50513          	add	a0,a0,-1365 # aaaaaaab <_end+0xaaaa716b>
    2bca:	8d6d                	and	a0,a0,a1
    2bcc:	0ca0ae23          	sw	a0,220(ra)

00002bd0 <inst_568>:
    2bd0:	aaaab5b7          	lui	a1,0xaaaab
    2bd4:	aaa58593          	add	a1,a1,-1366 # aaaaaaaa <_end+0xaaaa716a>
    2bd8:	aaaab537          	lui	a0,0xaaaab
    2bdc:	aab50513          	add	a0,a0,-1365 # aaaaaaab <_end+0xaaaa716b>
    2be0:	8d6d                	and	a0,a0,a1
    2be2:	0ea0a023          	sw	a0,224(ra)

00002be6 <inst_569>:
    2be6:	00500593          	li	a1,5
    2bea:	aaaab537          	lui	a0,0xaaaab
    2bee:	aab50513          	add	a0,a0,-1365 # aaaaaaab <_end+0xaaaa716b>
    2bf2:	8d6d                	and	a0,a0,a1
    2bf4:	0ea0a223          	sw	a0,228(ra)

00002bf8 <inst_570>:
    2bf8:	333335b7          	lui	a1,0x33333
    2bfc:	33358593          	add	a1,a1,819 # 33333333 <_end+0x3332f9f3>
    2c00:	aaaab537          	lui	a0,0xaaaab
    2c04:	aab50513          	add	a0,a0,-1365 # aaaaaaab <_end+0xaaaa716b>
    2c08:	8d6d                	and	a0,a0,a1
    2c0a:	0ea0a423          	sw	a0,232(ra)

00002c0e <inst_571>:
    2c0e:	666665b7          	lui	a1,0x66666
    2c12:	66658593          	add	a1,a1,1638 # 66666666 <_end+0x66662d26>
    2c16:	aaaab537          	lui	a0,0xaaaab
    2c1a:	aab50513          	add	a0,a0,-1365 # aaaaaaab <_end+0xaaaa716b>
    2c1e:	8d6d                	and	a0,a0,a1
    2c20:	0ea0a623          	sw	a0,236(ra)

00002c24 <inst_572>:
    2c24:	ffff55b7          	lui	a1,0xffff5
    2c28:	afc58593          	add	a1,a1,-1284 # ffff4afc <_end+0xffff11bc>
    2c2c:	aaaab537          	lui	a0,0xaaaab
    2c30:	aab50513          	add	a0,a0,-1365 # aaaaaaab <_end+0xaaaa716b>
    2c34:	8d6d                	and	a0,a0,a1
    2c36:	0ea0a823          	sw	a0,240(ra)

00002c3a <inst_573>:
    2c3a:	0000b5b7          	lui	a1,0xb
    2c3e:	50458593          	add	a1,a1,1284 # b504 <_end+0x7bc4>
    2c42:	aaaab537          	lui	a0,0xaaaab
    2c46:	aab50513          	add	a0,a0,-1365 # aaaaaaab <_end+0xaaaa716b>
    2c4a:	8d6d                	and	a0,a0,a1
    2c4c:	0ea0aa23          	sw	a0,244(ra)

00002c50 <inst_574>:
    2c50:	00200593          	li	a1,2
    2c54:	aaaab537          	lui	a0,0xaaaab
    2c58:	aab50513          	add	a0,a0,-1365 # aaaaaaab <_end+0xaaaa716b>
    2c5c:	8d6d                	and	a0,a0,a1
    2c5e:	0ea0ac23          	sw	a0,248(ra)

00002c62 <inst_575>:
    2c62:	555555b7          	lui	a1,0x55555
    2c66:	55458593          	add	a1,a1,1364 # 55555554 <_end+0x55551c14>
    2c6a:	aaaab537          	lui	a0,0xaaaab
    2c6e:	aab50513          	add	a0,a0,-1365 # aaaaaaab <_end+0xaaaa716b>
    2c72:	8d6d                	and	a0,a0,a1
    2c74:	0ea0ae23          	sw	a0,252(ra)

00002c78 <inst_576>:
    2c78:	00000593          	li	a1,0
    2c7c:	aaaab537          	lui	a0,0xaaaab
    2c80:	aab50513          	add	a0,a0,-1365 # aaaaaaab <_end+0xaaaa716b>
    2c84:	8d6d                	and	a0,a0,a1
    2c86:	10a0a023          	sw	a0,256(ra)

00002c8a <inst_577>:
    2c8a:	00400593          	li	a1,4
    2c8e:	aaaab537          	lui	a0,0xaaaab
    2c92:	aab50513          	add	a0,a0,-1365 # aaaaaaab <_end+0xaaaa716b>
    2c96:	8d6d                	and	a0,a0,a1
    2c98:	10a0a223          	sw	a0,260(ra)

00002c9c <inst_578>:
    2c9c:	333335b7          	lui	a1,0x33333
    2ca0:	33258593          	add	a1,a1,818 # 33333332 <_end+0x3332f9f2>
    2ca4:	aaaab537          	lui	a0,0xaaaab
    2ca8:	aab50513          	add	a0,a0,-1365 # aaaaaaab <_end+0xaaaa716b>
    2cac:	8d6d                	and	a0,a0,a1
    2cae:	10a0a423          	sw	a0,264(ra)

00002cb2 <inst_579>:
    2cb2:	666665b7          	lui	a1,0x66666
    2cb6:	66558593          	add	a1,a1,1637 # 66666665 <_end+0x66662d25>
    2cba:	aaaab537          	lui	a0,0xaaaab
    2cbe:	aab50513          	add	a0,a0,-1365 # aaaaaaab <_end+0xaaaa716b>
    2cc2:	8d6d                	and	a0,a0,a1
    2cc4:	10a0a623          	sw	a0,268(ra)

00002cc8 <inst_580>:
    2cc8:	0000b5b7          	lui	a1,0xb
    2ccc:	50358593          	add	a1,a1,1283 # b503 <_end+0x7bc3>
    2cd0:	aaaab537          	lui	a0,0xaaaab
    2cd4:	aab50513          	add	a0,a0,-1365 # aaaaaaab <_end+0xaaaa716b>
    2cd8:	8d6d                	and	a0,a0,a1
    2cda:	10a0a823          	sw	a0,272(ra)

00002cde <inst_581>:
    2cde:	555555b7          	lui	a1,0x55555
    2ce2:	55658593          	add	a1,a1,1366 # 55555556 <_end+0x55551c16>
    2ce6:	aaaab537          	lui	a0,0xaaaab
    2cea:	aab50513          	add	a0,a0,-1365 # aaaaaaab <_end+0xaaaa716b>
    2cee:	8d6d                	and	a0,a0,a1
    2cf0:	10a0aa23          	sw	a0,276(ra)

00002cf4 <inst_582>:
    2cf4:	aaaab5b7          	lui	a1,0xaaaab
    2cf8:	aab58593          	add	a1,a1,-1365 # aaaaaaab <_end+0xaaaa716b>
    2cfc:	aaaab537          	lui	a0,0xaaaab
    2d00:	aab50513          	add	a0,a0,-1365 # aaaaaaab <_end+0xaaaa716b>
    2d04:	8d6d                	and	a0,a0,a1
    2d06:	10a0ac23          	sw	a0,280(ra)

00002d0a <inst_583>:
    2d0a:	00600593          	li	a1,6
    2d0e:	aaaab537          	lui	a0,0xaaaab
    2d12:	aab50513          	add	a0,a0,-1365 # aaaaaaab <_end+0xaaaa716b>
    2d16:	8d6d                	and	a0,a0,a1
    2d18:	10a0ae23          	sw	a0,284(ra)

00002d1c <inst_584>:
    2d1c:	333335b7          	lui	a1,0x33333
    2d20:	33458593          	add	a1,a1,820 # 33333334 <_end+0x3332f9f4>
    2d24:	aaaab537          	lui	a0,0xaaaab
    2d28:	aab50513          	add	a0,a0,-1365 # aaaaaaab <_end+0xaaaa716b>
    2d2c:	8d6d                	and	a0,a0,a1
    2d2e:	12a0a023          	sw	a0,288(ra)

00002d32 <inst_585>:
    2d32:	666665b7          	lui	a1,0x66666
    2d36:	66758593          	add	a1,a1,1639 # 66666667 <_end+0x66662d27>
    2d3a:	aaaab537          	lui	a0,0xaaaab
    2d3e:	aab50513          	add	a0,a0,-1365 # aaaaaaab <_end+0xaaaa716b>
    2d42:	8d6d                	and	a0,a0,a1
    2d44:	12a0a223          	sw	a0,292(ra)
    2d48:	00000013          	nop
    2d4c:	00000013          	nop

00002d50 <rvtest_code_end>:
    2d50:	00000517          	auipc	a0,0x0
    2d54:	2c050513          	add	a0,a0,704 # 3010 <data_begin>
    2d58:	00001597          	auipc	a1,0x1
    2d5c:	be858593          	add	a1,a1,-1048 # 3940 <_end>
    2d60:	80001637          	lui	a2,0x80001
    2d64:	0621                	add	a2,a2,8 # 80001008 <_end+0x7fffd6c8>

00002d66 <compliance_halt_loop>:
    2d66:	04b50763          	beq	a0,a1,2db4 <compliance_halt_break>
    2d6a:	00450693          	add	a3,a0,4

00002d6e <compliance_halt_loop2>:
    2d6e:	16fd                	add	a3,a3,-1
    2d70:	00068703          	lb	a4,0(a3)
    2d74:	40475793          	sra	a5,a4,0x4
    2d78:	8bbd                	and	a5,a5,15
    2d7a:	4829                	li	a6,10
    2d7c:	0107c463          	blt	a5,a6,2d84 <notLetter>
    2d80:	02778793          	add	a5,a5,39

00002d84 <notLetter>:
    2d84:	03078793          	add	a5,a5,48
    2d88:	00f60023          	sb	a5,0(a2)
    2d8c:	40075793          	sra	a5,a4,0x0
    2d90:	8bbd                	and	a5,a5,15
    2d92:	4829                	li	a6,10
    2d94:	0107c463          	blt	a5,a6,2d9c <notLetter2>
    2d98:	02778793          	add	a5,a5,39

00002d9c <notLetter2>:
    2d9c:	03078793          	add	a5,a5,48
    2da0:	00f60023          	sb	a5,0(a2)
    2da4:	fcd515e3          	bne	a0,a3,2d6e <compliance_halt_loop2>
    2da8:	0511                	add	a0,a0,4
    2daa:	4729                	li	a4,10
    2dac:	00e60023          	sb	a4,0(a2)
    2db0:	bf5d                	j	2d66 <compliance_halt_loop>
    2db2:	a009                	j	2db4 <compliance_halt_break>

00002db4 <compliance_halt_break>:
    2db4:	80001537          	lui	a0,0x80001
    2db8:	0525                	add	a0,a0,9 # 80001009 <_end+0x7fffd6c9>
    2dba:	00d50023          	sb	a3,0(a0)
	...

Desensamblado de la sección .data:

00003000 <rvtest_data_begin>:
    3000:	cafe                	sw	t6,84(sp)
    3002:	babe                	.2byte	0xbabe

00003004 <rvtest_data_end>:
	...

00003010 <data_begin>:
    3010:	deadbeef          	jal	t4,fffde5fa <_end+0xfffdacba>
    3014:	deadbeef          	jal	t4,fffde5fe <_end+0xfffdacbe>
    3018:	deadbeef          	jal	t4,fffde602 <_end+0xfffdacc2>
    301c:	deadbeef          	jal	t4,fffde606 <_end+0xfffdacc6>
    3020:	deadbeef          	jal	t4,fffde60a <_end+0xfffdacca>
    3024:	deadbeef          	jal	t4,fffde60e <_end+0xfffdacce>
    3028:	deadbeef          	jal	t4,fffde612 <_end+0xfffdacd2>
    302c:	deadbeef          	jal	t4,fffde616 <_end+0xfffdacd6>
    3030:	deadbeef          	jal	t4,fffde61a <_end+0xfffdacda>
    3034:	deadbeef          	jal	t4,fffde61e <_end+0xfffdacde>
    3038:	deadbeef          	jal	t4,fffde622 <_end+0xfffdace2>
    303c:	deadbeef          	jal	t4,fffde626 <_end+0xfffdace6>
    3040:	deadbeef          	jal	t4,fffde62a <_end+0xfffdacea>
    3044:	deadbeef          	jal	t4,fffde62e <_end+0xfffdacee>
    3048:	deadbeef          	jal	t4,fffde632 <_end+0xfffdacf2>
    304c:	deadbeef          	jal	t4,fffde636 <_end+0xfffdacf6>
    3050:	deadbeef          	jal	t4,fffde63a <_end+0xfffdacfa>
    3054:	deadbeef          	jal	t4,fffde63e <_end+0xfffdacfe>
    3058:	deadbeef          	jal	t4,fffde642 <_end+0xfffdad02>
    305c:	deadbeef          	jal	t4,fffde646 <_end+0xfffdad06>
    3060:	deadbeef          	jal	t4,fffde64a <_end+0xfffdad0a>
    3064:	deadbeef          	jal	t4,fffde64e <_end+0xfffdad0e>
    3068:	deadbeef          	jal	t4,fffde652 <_end+0xfffdad12>
    306c:	deadbeef          	jal	t4,fffde656 <_end+0xfffdad16>
    3070:	deadbeef          	jal	t4,fffde65a <_end+0xfffdad1a>
    3074:	deadbeef          	jal	t4,fffde65e <_end+0xfffdad1e>
    3078:	deadbeef          	jal	t4,fffde662 <_end+0xfffdad22>
    307c:	deadbeef          	jal	t4,fffde666 <_end+0xfffdad26>
    3080:	deadbeef          	jal	t4,fffde66a <_end+0xfffdad2a>
    3084:	deadbeef          	jal	t4,fffde66e <_end+0xfffdad2e>
    3088:	deadbeef          	jal	t4,fffde672 <_end+0xfffdad32>
    308c:	deadbeef          	jal	t4,fffde676 <_end+0xfffdad36>
    3090:	deadbeef          	jal	t4,fffde67a <_end+0xfffdad3a>
    3094:	deadbeef          	jal	t4,fffde67e <_end+0xfffdad3e>
    3098:	deadbeef          	jal	t4,fffde682 <_end+0xfffdad42>
    309c:	deadbeef          	jal	t4,fffde686 <_end+0xfffdad46>
    30a0:	deadbeef          	jal	t4,fffde68a <_end+0xfffdad4a>
    30a4:	deadbeef          	jal	t4,fffde68e <_end+0xfffdad4e>
    30a8:	deadbeef          	jal	t4,fffde692 <_end+0xfffdad52>
    30ac:	deadbeef          	jal	t4,fffde696 <_end+0xfffdad56>
    30b0:	deadbeef          	jal	t4,fffde69a <_end+0xfffdad5a>
    30b4:	deadbeef          	jal	t4,fffde69e <_end+0xfffdad5e>
    30b8:	deadbeef          	jal	t4,fffde6a2 <_end+0xfffdad62>
    30bc:	deadbeef          	jal	t4,fffde6a6 <_end+0xfffdad66>
    30c0:	deadbeef          	jal	t4,fffde6aa <_end+0xfffdad6a>
    30c4:	deadbeef          	jal	t4,fffde6ae <_end+0xfffdad6e>
    30c8:	deadbeef          	jal	t4,fffde6b2 <_end+0xfffdad72>
    30cc:	deadbeef          	jal	t4,fffde6b6 <_end+0xfffdad76>
    30d0:	deadbeef          	jal	t4,fffde6ba <_end+0xfffdad7a>
    30d4:	deadbeef          	jal	t4,fffde6be <_end+0xfffdad7e>
    30d8:	deadbeef          	jal	t4,fffde6c2 <_end+0xfffdad82>
    30dc:	deadbeef          	jal	t4,fffde6c6 <_end+0xfffdad86>
    30e0:	deadbeef          	jal	t4,fffde6ca <_end+0xfffdad8a>
    30e4:	deadbeef          	jal	t4,fffde6ce <_end+0xfffdad8e>
    30e8:	deadbeef          	jal	t4,fffde6d2 <_end+0xfffdad92>
    30ec:	deadbeef          	jal	t4,fffde6d6 <_end+0xfffdad96>
    30f0:	deadbeef          	jal	t4,fffde6da <_end+0xfffdad9a>
    30f4:	deadbeef          	jal	t4,fffde6de <_end+0xfffdad9e>
    30f8:	deadbeef          	jal	t4,fffde6e2 <_end+0xfffdada2>
    30fc:	deadbeef          	jal	t4,fffde6e6 <_end+0xfffdada6>
    3100:	deadbeef          	jal	t4,fffde6ea <_end+0xfffdadaa>
    3104:	deadbeef          	jal	t4,fffde6ee <_end+0xfffdadae>
    3108:	deadbeef          	jal	t4,fffde6f2 <_end+0xfffdadb2>
    310c:	deadbeef          	jal	t4,fffde6f6 <_end+0xfffdadb6>
    3110:	deadbeef          	jal	t4,fffde6fa <_end+0xfffdadba>
    3114:	deadbeef          	jal	t4,fffde6fe <_end+0xfffdadbe>
    3118:	deadbeef          	jal	t4,fffde702 <_end+0xfffdadc2>
    311c:	deadbeef          	jal	t4,fffde706 <_end+0xfffdadc6>
    3120:	deadbeef          	jal	t4,fffde70a <_end+0xfffdadca>
    3124:	deadbeef          	jal	t4,fffde70e <_end+0xfffdadce>
    3128:	deadbeef          	jal	t4,fffde712 <_end+0xfffdadd2>
    312c:	deadbeef          	jal	t4,fffde716 <_end+0xfffdadd6>
    3130:	deadbeef          	jal	t4,fffde71a <_end+0xfffdadda>
    3134:	deadbeef          	jal	t4,fffde71e <_end+0xfffdadde>
    3138:	deadbeef          	jal	t4,fffde722 <_end+0xfffdade2>
    313c:	deadbeef          	jal	t4,fffde726 <_end+0xfffdade6>
    3140:	deadbeef          	jal	t4,fffde72a <_end+0xfffdadea>
    3144:	deadbeef          	jal	t4,fffde72e <_end+0xfffdadee>
    3148:	deadbeef          	jal	t4,fffde732 <_end+0xfffdadf2>
    314c:	deadbeef          	jal	t4,fffde736 <_end+0xfffdadf6>
    3150:	deadbeef          	jal	t4,fffde73a <_end+0xfffdadfa>
    3154:	deadbeef          	jal	t4,fffde73e <_end+0xfffdadfe>
    3158:	deadbeef          	jal	t4,fffde742 <_end+0xfffdae02>
    315c:	deadbeef          	jal	t4,fffde746 <_end+0xfffdae06>
    3160:	deadbeef          	jal	t4,fffde74a <_end+0xfffdae0a>
    3164:	deadbeef          	jal	t4,fffde74e <_end+0xfffdae0e>
    3168:	deadbeef          	jal	t4,fffde752 <_end+0xfffdae12>
    316c:	deadbeef          	jal	t4,fffde756 <_end+0xfffdae16>
    3170:	deadbeef          	jal	t4,fffde75a <_end+0xfffdae1a>
    3174:	deadbeef          	jal	t4,fffde75e <_end+0xfffdae1e>
    3178:	deadbeef          	jal	t4,fffde762 <_end+0xfffdae22>
    317c:	deadbeef          	jal	t4,fffde766 <_end+0xfffdae26>
    3180:	deadbeef          	jal	t4,fffde76a <_end+0xfffdae2a>
    3184:	deadbeef          	jal	t4,fffde76e <_end+0xfffdae2e>
    3188:	deadbeef          	jal	t4,fffde772 <_end+0xfffdae32>
    318c:	deadbeef          	jal	t4,fffde776 <_end+0xfffdae36>
    3190:	deadbeef          	jal	t4,fffde77a <_end+0xfffdae3a>
    3194:	deadbeef          	jal	t4,fffde77e <_end+0xfffdae3e>
    3198:	deadbeef          	jal	t4,fffde782 <_end+0xfffdae42>
    319c:	deadbeef          	jal	t4,fffde786 <_end+0xfffdae46>
    31a0:	deadbeef          	jal	t4,fffde78a <_end+0xfffdae4a>
    31a4:	deadbeef          	jal	t4,fffde78e <_end+0xfffdae4e>
    31a8:	deadbeef          	jal	t4,fffde792 <_end+0xfffdae52>
    31ac:	deadbeef          	jal	t4,fffde796 <_end+0xfffdae56>
    31b0:	deadbeef          	jal	t4,fffde79a <_end+0xfffdae5a>
    31b4:	deadbeef          	jal	t4,fffde79e <_end+0xfffdae5e>
    31b8:	deadbeef          	jal	t4,fffde7a2 <_end+0xfffdae62>
    31bc:	deadbeef          	jal	t4,fffde7a6 <_end+0xfffdae66>
    31c0:	deadbeef          	jal	t4,fffde7aa <_end+0xfffdae6a>
    31c4:	deadbeef          	jal	t4,fffde7ae <_end+0xfffdae6e>
    31c8:	deadbeef          	jal	t4,fffde7b2 <_end+0xfffdae72>
    31cc:	deadbeef          	jal	t4,fffde7b6 <_end+0xfffdae76>
    31d0:	deadbeef          	jal	t4,fffde7ba <_end+0xfffdae7a>
    31d4:	deadbeef          	jal	t4,fffde7be <_end+0xfffdae7e>
    31d8:	deadbeef          	jal	t4,fffde7c2 <_end+0xfffdae82>
    31dc:	deadbeef          	jal	t4,fffde7c6 <_end+0xfffdae86>
    31e0:	deadbeef          	jal	t4,fffde7ca <_end+0xfffdae8a>
    31e4:	deadbeef          	jal	t4,fffde7ce <_end+0xfffdae8e>
    31e8:	deadbeef          	jal	t4,fffde7d2 <_end+0xfffdae92>
    31ec:	deadbeef          	jal	t4,fffde7d6 <_end+0xfffdae96>
    31f0:	deadbeef          	jal	t4,fffde7da <_end+0xfffdae9a>
    31f4:	deadbeef          	jal	t4,fffde7de <_end+0xfffdae9e>
    31f8:	deadbeef          	jal	t4,fffde7e2 <_end+0xfffdaea2>
    31fc:	deadbeef          	jal	t4,fffde7e6 <_end+0xfffdaea6>
    3200:	deadbeef          	jal	t4,fffde7ea <_end+0xfffdaeaa>
    3204:	deadbeef          	jal	t4,fffde7ee <_end+0xfffdaeae>
    3208:	deadbeef          	jal	t4,fffde7f2 <_end+0xfffdaeb2>
    320c:	deadbeef          	jal	t4,fffde7f6 <_end+0xfffdaeb6>
    3210:	deadbeef          	jal	t4,fffde7fa <_end+0xfffdaeba>
    3214:	deadbeef          	jal	t4,fffde7fe <_end+0xfffdaebe>
    3218:	deadbeef          	jal	t4,fffde802 <_end+0xfffdaec2>
    321c:	deadbeef          	jal	t4,fffde806 <_end+0xfffdaec6>
    3220:	deadbeef          	jal	t4,fffde80a <_end+0xfffdaeca>
    3224:	deadbeef          	jal	t4,fffde80e <_end+0xfffdaece>
    3228:	deadbeef          	jal	t4,fffde812 <_end+0xfffdaed2>
    322c:	deadbeef          	jal	t4,fffde816 <_end+0xfffdaed6>
    3230:	deadbeef          	jal	t4,fffde81a <_end+0xfffdaeda>
    3234:	deadbeef          	jal	t4,fffde81e <_end+0xfffdaede>
    3238:	deadbeef          	jal	t4,fffde822 <_end+0xfffdaee2>
    323c:	deadbeef          	jal	t4,fffde826 <_end+0xfffdaee6>
    3240:	deadbeef          	jal	t4,fffde82a <_end+0xfffdaeea>
    3244:	deadbeef          	jal	t4,fffde82e <_end+0xfffdaeee>
    3248:	deadbeef          	jal	t4,fffde832 <_end+0xfffdaef2>
    324c:	deadbeef          	jal	t4,fffde836 <_end+0xfffdaef6>
    3250:	deadbeef          	jal	t4,fffde83a <_end+0xfffdaefa>
    3254:	deadbeef          	jal	t4,fffde83e <_end+0xfffdaefe>
    3258:	deadbeef          	jal	t4,fffde842 <_end+0xfffdaf02>
    325c:	deadbeef          	jal	t4,fffde846 <_end+0xfffdaf06>
    3260:	deadbeef          	jal	t4,fffde84a <_end+0xfffdaf0a>
    3264:	deadbeef          	jal	t4,fffde84e <_end+0xfffdaf0e>
    3268:	deadbeef          	jal	t4,fffde852 <_end+0xfffdaf12>
    326c:	deadbeef          	jal	t4,fffde856 <_end+0xfffdaf16>
    3270:	deadbeef          	jal	t4,fffde85a <_end+0xfffdaf1a>
    3274:	deadbeef          	jal	t4,fffde85e <_end+0xfffdaf1e>
    3278:	deadbeef          	jal	t4,fffde862 <_end+0xfffdaf22>
    327c:	deadbeef          	jal	t4,fffde866 <_end+0xfffdaf26>
    3280:	deadbeef          	jal	t4,fffde86a <_end+0xfffdaf2a>
    3284:	deadbeef          	jal	t4,fffde86e <_end+0xfffdaf2e>
    3288:	deadbeef          	jal	t4,fffde872 <_end+0xfffdaf32>
    328c:	deadbeef          	jal	t4,fffde876 <_end+0xfffdaf36>
    3290:	deadbeef          	jal	t4,fffde87a <_end+0xfffdaf3a>
    3294:	deadbeef          	jal	t4,fffde87e <_end+0xfffdaf3e>
    3298:	deadbeef          	jal	t4,fffde882 <_end+0xfffdaf42>
    329c:	deadbeef          	jal	t4,fffde886 <_end+0xfffdaf46>
    32a0:	deadbeef          	jal	t4,fffde88a <_end+0xfffdaf4a>
    32a4:	deadbeef          	jal	t4,fffde88e <_end+0xfffdaf4e>
    32a8:	deadbeef          	jal	t4,fffde892 <_end+0xfffdaf52>
    32ac:	deadbeef          	jal	t4,fffde896 <_end+0xfffdaf56>
    32b0:	deadbeef          	jal	t4,fffde89a <_end+0xfffdaf5a>
    32b4:	deadbeef          	jal	t4,fffde89e <_end+0xfffdaf5e>
    32b8:	deadbeef          	jal	t4,fffde8a2 <_end+0xfffdaf62>
    32bc:	deadbeef          	jal	t4,fffde8a6 <_end+0xfffdaf66>
    32c0:	deadbeef          	jal	t4,fffde8aa <_end+0xfffdaf6a>
    32c4:	deadbeef          	jal	t4,fffde8ae <_end+0xfffdaf6e>
    32c8:	deadbeef          	jal	t4,fffde8b2 <_end+0xfffdaf72>
    32cc:	deadbeef          	jal	t4,fffde8b6 <_end+0xfffdaf76>
    32d0:	deadbeef          	jal	t4,fffde8ba <_end+0xfffdaf7a>
    32d4:	deadbeef          	jal	t4,fffde8be <_end+0xfffdaf7e>
    32d8:	deadbeef          	jal	t4,fffde8c2 <_end+0xfffdaf82>
    32dc:	deadbeef          	jal	t4,fffde8c6 <_end+0xfffdaf86>
    32e0:	deadbeef          	jal	t4,fffde8ca <_end+0xfffdaf8a>
    32e4:	deadbeef          	jal	t4,fffde8ce <_end+0xfffdaf8e>
    32e8:	deadbeef          	jal	t4,fffde8d2 <_end+0xfffdaf92>
    32ec:	deadbeef          	jal	t4,fffde8d6 <_end+0xfffdaf96>
    32f0:	deadbeef          	jal	t4,fffde8da <_end+0xfffdaf9a>
    32f4:	deadbeef          	jal	t4,fffde8de <_end+0xfffdaf9e>
    32f8:	deadbeef          	jal	t4,fffde8e2 <_end+0xfffdafa2>
    32fc:	deadbeef          	jal	t4,fffde8e6 <_end+0xfffdafa6>
    3300:	deadbeef          	jal	t4,fffde8ea <_end+0xfffdafaa>
    3304:	deadbeef          	jal	t4,fffde8ee <_end+0xfffdafae>
    3308:	deadbeef          	jal	t4,fffde8f2 <_end+0xfffdafb2>
    330c:	deadbeef          	jal	t4,fffde8f6 <_end+0xfffdafb6>
    3310:	deadbeef          	jal	t4,fffde8fa <_end+0xfffdafba>
    3314:	deadbeef          	jal	t4,fffde8fe <_end+0xfffdafbe>
    3318:	deadbeef          	jal	t4,fffde902 <_end+0xfffdafc2>
    331c:	deadbeef          	jal	t4,fffde906 <_end+0xfffdafc6>
    3320:	deadbeef          	jal	t4,fffde90a <_end+0xfffdafca>
    3324:	deadbeef          	jal	t4,fffde90e <_end+0xfffdafce>
    3328:	deadbeef          	jal	t4,fffde912 <_end+0xfffdafd2>
    332c:	deadbeef          	jal	t4,fffde916 <_end+0xfffdafd6>
    3330:	deadbeef          	jal	t4,fffde91a <_end+0xfffdafda>
    3334:	deadbeef          	jal	t4,fffde91e <_end+0xfffdafde>
    3338:	deadbeef          	jal	t4,fffde922 <_end+0xfffdafe2>
    333c:	deadbeef          	jal	t4,fffde926 <_end+0xfffdafe6>
    3340:	deadbeef          	jal	t4,fffde92a <_end+0xfffdafea>
    3344:	deadbeef          	jal	t4,fffde92e <_end+0xfffdafee>
    3348:	deadbeef          	jal	t4,fffde932 <_end+0xfffdaff2>
    334c:	deadbeef          	jal	t4,fffde936 <_end+0xfffdaff6>
    3350:	deadbeef          	jal	t4,fffde93a <_end+0xfffdaffa>
    3354:	deadbeef          	jal	t4,fffde93e <_end+0xfffdaffe>
    3358:	deadbeef          	jal	t4,fffde942 <_end+0xfffdb002>
    335c:	deadbeef          	jal	t4,fffde946 <_end+0xfffdb006>
    3360:	deadbeef          	jal	t4,fffde94a <_end+0xfffdb00a>
    3364:	deadbeef          	jal	t4,fffde94e <_end+0xfffdb00e>
    3368:	deadbeef          	jal	t4,fffde952 <_end+0xfffdb012>
    336c:	deadbeef          	jal	t4,fffde956 <_end+0xfffdb016>
    3370:	deadbeef          	jal	t4,fffde95a <_end+0xfffdb01a>
    3374:	deadbeef          	jal	t4,fffde95e <_end+0xfffdb01e>
    3378:	deadbeef          	jal	t4,fffde962 <_end+0xfffdb022>
    337c:	deadbeef          	jal	t4,fffde966 <_end+0xfffdb026>
    3380:	deadbeef          	jal	t4,fffde96a <_end+0xfffdb02a>
    3384:	deadbeef          	jal	t4,fffde96e <_end+0xfffdb02e>
    3388:	deadbeef          	jal	t4,fffde972 <_end+0xfffdb032>
    338c:	deadbeef          	jal	t4,fffde976 <_end+0xfffdb036>
    3390:	deadbeef          	jal	t4,fffde97a <_end+0xfffdb03a>
    3394:	deadbeef          	jal	t4,fffde97e <_end+0xfffdb03e>
    3398:	deadbeef          	jal	t4,fffde982 <_end+0xfffdb042>
    339c:	deadbeef          	jal	t4,fffde986 <_end+0xfffdb046>
    33a0:	deadbeef          	jal	t4,fffde98a <_end+0xfffdb04a>
    33a4:	deadbeef          	jal	t4,fffde98e <_end+0xfffdb04e>
    33a8:	deadbeef          	jal	t4,fffde992 <_end+0xfffdb052>
    33ac:	deadbeef          	jal	t4,fffde996 <_end+0xfffdb056>
    33b0:	deadbeef          	jal	t4,fffde99a <_end+0xfffdb05a>
    33b4:	deadbeef          	jal	t4,fffde99e <_end+0xfffdb05e>
    33b8:	deadbeef          	jal	t4,fffde9a2 <_end+0xfffdb062>
    33bc:	deadbeef          	jal	t4,fffde9a6 <_end+0xfffdb066>
    33c0:	deadbeef          	jal	t4,fffde9aa <_end+0xfffdb06a>
    33c4:	deadbeef          	jal	t4,fffde9ae <_end+0xfffdb06e>
    33c8:	deadbeef          	jal	t4,fffde9b2 <_end+0xfffdb072>
    33cc:	deadbeef          	jal	t4,fffde9b6 <_end+0xfffdb076>
    33d0:	deadbeef          	jal	t4,fffde9ba <_end+0xfffdb07a>
    33d4:	deadbeef          	jal	t4,fffde9be <_end+0xfffdb07e>
    33d8:	deadbeef          	jal	t4,fffde9c2 <_end+0xfffdb082>
    33dc:	deadbeef          	jal	t4,fffde9c6 <_end+0xfffdb086>
    33e0:	deadbeef          	jal	t4,fffde9ca <_end+0xfffdb08a>
    33e4:	deadbeef          	jal	t4,fffde9ce <_end+0xfffdb08e>
    33e8:	deadbeef          	jal	t4,fffde9d2 <_end+0xfffdb092>
    33ec:	deadbeef          	jal	t4,fffde9d6 <_end+0xfffdb096>
    33f0:	deadbeef          	jal	t4,fffde9da <_end+0xfffdb09a>
    33f4:	deadbeef          	jal	t4,fffde9de <_end+0xfffdb09e>
    33f8:	deadbeef          	jal	t4,fffde9e2 <_end+0xfffdb0a2>
    33fc:	deadbeef          	jal	t4,fffde9e6 <_end+0xfffdb0a6>
    3400:	deadbeef          	jal	t4,fffde9ea <_end+0xfffdb0aa>
    3404:	deadbeef          	jal	t4,fffde9ee <_end+0xfffdb0ae>
    3408:	deadbeef          	jal	t4,fffde9f2 <_end+0xfffdb0b2>
    340c:	deadbeef          	jal	t4,fffde9f6 <_end+0xfffdb0b6>
    3410:	deadbeef          	jal	t4,fffde9fa <_end+0xfffdb0ba>
    3414:	deadbeef          	jal	t4,fffde9fe <_end+0xfffdb0be>
    3418:	deadbeef          	jal	t4,fffdea02 <_end+0xfffdb0c2>
    341c:	deadbeef          	jal	t4,fffdea06 <_end+0xfffdb0c6>
    3420:	deadbeef          	jal	t4,fffdea0a <_end+0xfffdb0ca>
    3424:	deadbeef          	jal	t4,fffdea0e <_end+0xfffdb0ce>
    3428:	deadbeef          	jal	t4,fffdea12 <_end+0xfffdb0d2>
    342c:	deadbeef          	jal	t4,fffdea16 <_end+0xfffdb0d6>
    3430:	deadbeef          	jal	t4,fffdea1a <_end+0xfffdb0da>
    3434:	deadbeef          	jal	t4,fffdea1e <_end+0xfffdb0de>
    3438:	deadbeef          	jal	t4,fffdea22 <_end+0xfffdb0e2>
    343c:	deadbeef          	jal	t4,fffdea26 <_end+0xfffdb0e6>
    3440:	deadbeef          	jal	t4,fffdea2a <_end+0xfffdb0ea>
    3444:	deadbeef          	jal	t4,fffdea2e <_end+0xfffdb0ee>
    3448:	deadbeef          	jal	t4,fffdea32 <_end+0xfffdb0f2>
    344c:	deadbeef          	jal	t4,fffdea36 <_end+0xfffdb0f6>
    3450:	deadbeef          	jal	t4,fffdea3a <_end+0xfffdb0fa>
    3454:	deadbeef          	jal	t4,fffdea3e <_end+0xfffdb0fe>
    3458:	deadbeef          	jal	t4,fffdea42 <_end+0xfffdb102>
    345c:	deadbeef          	jal	t4,fffdea46 <_end+0xfffdb106>
    3460:	deadbeef          	jal	t4,fffdea4a <_end+0xfffdb10a>
    3464:	deadbeef          	jal	t4,fffdea4e <_end+0xfffdb10e>
    3468:	deadbeef          	jal	t4,fffdea52 <_end+0xfffdb112>
    346c:	deadbeef          	jal	t4,fffdea56 <_end+0xfffdb116>
    3470:	deadbeef          	jal	t4,fffdea5a <_end+0xfffdb11a>
    3474:	deadbeef          	jal	t4,fffdea5e <_end+0xfffdb11e>
    3478:	deadbeef          	jal	t4,fffdea62 <_end+0xfffdb122>
    347c:	deadbeef          	jal	t4,fffdea66 <_end+0xfffdb126>
    3480:	deadbeef          	jal	t4,fffdea6a <_end+0xfffdb12a>
    3484:	deadbeef          	jal	t4,fffdea6e <_end+0xfffdb12e>
    3488:	deadbeef          	jal	t4,fffdea72 <_end+0xfffdb132>
    348c:	deadbeef          	jal	t4,fffdea76 <_end+0xfffdb136>
    3490:	deadbeef          	jal	t4,fffdea7a <_end+0xfffdb13a>
    3494:	deadbeef          	jal	t4,fffdea7e <_end+0xfffdb13e>
    3498:	deadbeef          	jal	t4,fffdea82 <_end+0xfffdb142>
    349c:	deadbeef          	jal	t4,fffdea86 <_end+0xfffdb146>
    34a0:	deadbeef          	jal	t4,fffdea8a <_end+0xfffdb14a>
    34a4:	deadbeef          	jal	t4,fffdea8e <_end+0xfffdb14e>
    34a8:	deadbeef          	jal	t4,fffdea92 <_end+0xfffdb152>
    34ac:	deadbeef          	jal	t4,fffdea96 <_end+0xfffdb156>
    34b0:	deadbeef          	jal	t4,fffdea9a <_end+0xfffdb15a>
    34b4:	deadbeef          	jal	t4,fffdea9e <_end+0xfffdb15e>
    34b8:	deadbeef          	jal	t4,fffdeaa2 <_end+0xfffdb162>
    34bc:	deadbeef          	jal	t4,fffdeaa6 <_end+0xfffdb166>
    34c0:	deadbeef          	jal	t4,fffdeaaa <_end+0xfffdb16a>
    34c4:	deadbeef          	jal	t4,fffdeaae <_end+0xfffdb16e>
    34c8:	deadbeef          	jal	t4,fffdeab2 <_end+0xfffdb172>
    34cc:	deadbeef          	jal	t4,fffdeab6 <_end+0xfffdb176>
    34d0:	deadbeef          	jal	t4,fffdeaba <_end+0xfffdb17a>
    34d4:	deadbeef          	jal	t4,fffdeabe <_end+0xfffdb17e>
    34d8:	deadbeef          	jal	t4,fffdeac2 <_end+0xfffdb182>
    34dc:	deadbeef          	jal	t4,fffdeac6 <_end+0xfffdb186>
    34e0:	deadbeef          	jal	t4,fffdeaca <_end+0xfffdb18a>
    34e4:	deadbeef          	jal	t4,fffdeace <_end+0xfffdb18e>
    34e8:	deadbeef          	jal	t4,fffdead2 <_end+0xfffdb192>
    34ec:	deadbeef          	jal	t4,fffdead6 <_end+0xfffdb196>
    34f0:	deadbeef          	jal	t4,fffdeada <_end+0xfffdb19a>
    34f4:	deadbeef          	jal	t4,fffdeade <_end+0xfffdb19e>
    34f8:	deadbeef          	jal	t4,fffdeae2 <_end+0xfffdb1a2>
    34fc:	deadbeef          	jal	t4,fffdeae6 <_end+0xfffdb1a6>
    3500:	deadbeef          	jal	t4,fffdeaea <_end+0xfffdb1aa>
    3504:	deadbeef          	jal	t4,fffdeaee <_end+0xfffdb1ae>
    3508:	deadbeef          	jal	t4,fffdeaf2 <_end+0xfffdb1b2>
    350c:	deadbeef          	jal	t4,fffdeaf6 <_end+0xfffdb1b6>
    3510:	deadbeef          	jal	t4,fffdeafa <_end+0xfffdb1ba>
    3514:	deadbeef          	jal	t4,fffdeafe <_end+0xfffdb1be>
    3518:	deadbeef          	jal	t4,fffdeb02 <_end+0xfffdb1c2>
    351c:	deadbeef          	jal	t4,fffdeb06 <_end+0xfffdb1c6>
    3520:	deadbeef          	jal	t4,fffdeb0a <_end+0xfffdb1ca>
    3524:	deadbeef          	jal	t4,fffdeb0e <_end+0xfffdb1ce>
    3528:	deadbeef          	jal	t4,fffdeb12 <_end+0xfffdb1d2>
    352c:	deadbeef          	jal	t4,fffdeb16 <_end+0xfffdb1d6>
    3530:	deadbeef          	jal	t4,fffdeb1a <_end+0xfffdb1da>
    3534:	deadbeef          	jal	t4,fffdeb1e <_end+0xfffdb1de>
    3538:	deadbeef          	jal	t4,fffdeb22 <_end+0xfffdb1e2>
    353c:	deadbeef          	jal	t4,fffdeb26 <_end+0xfffdb1e6>
    3540:	deadbeef          	jal	t4,fffdeb2a <_end+0xfffdb1ea>
    3544:	deadbeef          	jal	t4,fffdeb2e <_end+0xfffdb1ee>
    3548:	deadbeef          	jal	t4,fffdeb32 <_end+0xfffdb1f2>
    354c:	deadbeef          	jal	t4,fffdeb36 <_end+0xfffdb1f6>
    3550:	deadbeef          	jal	t4,fffdeb3a <_end+0xfffdb1fa>
    3554:	deadbeef          	jal	t4,fffdeb3e <_end+0xfffdb1fe>
    3558:	deadbeef          	jal	t4,fffdeb42 <_end+0xfffdb202>
    355c:	deadbeef          	jal	t4,fffdeb46 <_end+0xfffdb206>
    3560:	deadbeef          	jal	t4,fffdeb4a <_end+0xfffdb20a>
    3564:	deadbeef          	jal	t4,fffdeb4e <_end+0xfffdb20e>
    3568:	deadbeef          	jal	t4,fffdeb52 <_end+0xfffdb212>
    356c:	deadbeef          	jal	t4,fffdeb56 <_end+0xfffdb216>
    3570:	deadbeef          	jal	t4,fffdeb5a <_end+0xfffdb21a>
    3574:	deadbeef          	jal	t4,fffdeb5e <_end+0xfffdb21e>
    3578:	deadbeef          	jal	t4,fffdeb62 <_end+0xfffdb222>
    357c:	deadbeef          	jal	t4,fffdeb66 <_end+0xfffdb226>
    3580:	deadbeef          	jal	t4,fffdeb6a <_end+0xfffdb22a>
    3584:	deadbeef          	jal	t4,fffdeb6e <_end+0xfffdb22e>
    3588:	deadbeef          	jal	t4,fffdeb72 <_end+0xfffdb232>
    358c:	deadbeef          	jal	t4,fffdeb76 <_end+0xfffdb236>
    3590:	deadbeef          	jal	t4,fffdeb7a <_end+0xfffdb23a>
    3594:	deadbeef          	jal	t4,fffdeb7e <_end+0xfffdb23e>
    3598:	deadbeef          	jal	t4,fffdeb82 <_end+0xfffdb242>
    359c:	deadbeef          	jal	t4,fffdeb86 <_end+0xfffdb246>
    35a0:	deadbeef          	jal	t4,fffdeb8a <_end+0xfffdb24a>
    35a4:	deadbeef          	jal	t4,fffdeb8e <_end+0xfffdb24e>
    35a8:	deadbeef          	jal	t4,fffdeb92 <_end+0xfffdb252>
    35ac:	deadbeef          	jal	t4,fffdeb96 <_end+0xfffdb256>
    35b0:	deadbeef          	jal	t4,fffdeb9a <_end+0xfffdb25a>
    35b4:	deadbeef          	jal	t4,fffdeb9e <_end+0xfffdb25e>
    35b8:	deadbeef          	jal	t4,fffdeba2 <_end+0xfffdb262>
    35bc:	deadbeef          	jal	t4,fffdeba6 <_end+0xfffdb266>
    35c0:	deadbeef          	jal	t4,fffdebaa <_end+0xfffdb26a>
    35c4:	deadbeef          	jal	t4,fffdebae <_end+0xfffdb26e>
    35c8:	deadbeef          	jal	t4,fffdebb2 <_end+0xfffdb272>
    35cc:	deadbeef          	jal	t4,fffdebb6 <_end+0xfffdb276>
    35d0:	deadbeef          	jal	t4,fffdebba <_end+0xfffdb27a>
    35d4:	deadbeef          	jal	t4,fffdebbe <_end+0xfffdb27e>
    35d8:	deadbeef          	jal	t4,fffdebc2 <_end+0xfffdb282>
    35dc:	deadbeef          	jal	t4,fffdebc6 <_end+0xfffdb286>
    35e0:	deadbeef          	jal	t4,fffdebca <_end+0xfffdb28a>
    35e4:	deadbeef          	jal	t4,fffdebce <_end+0xfffdb28e>
    35e8:	deadbeef          	jal	t4,fffdebd2 <_end+0xfffdb292>
    35ec:	deadbeef          	jal	t4,fffdebd6 <_end+0xfffdb296>
    35f0:	deadbeef          	jal	t4,fffdebda <_end+0xfffdb29a>
    35f4:	deadbeef          	jal	t4,fffdebde <_end+0xfffdb29e>
    35f8:	deadbeef          	jal	t4,fffdebe2 <_end+0xfffdb2a2>
    35fc:	deadbeef          	jal	t4,fffdebe6 <_end+0xfffdb2a6>
    3600:	deadbeef          	jal	t4,fffdebea <_end+0xfffdb2aa>
    3604:	deadbeef          	jal	t4,fffdebee <_end+0xfffdb2ae>
    3608:	deadbeef          	jal	t4,fffdebf2 <_end+0xfffdb2b2>
    360c:	deadbeef          	jal	t4,fffdebf6 <_end+0xfffdb2b6>
    3610:	deadbeef          	jal	t4,fffdebfa <_end+0xfffdb2ba>
    3614:	deadbeef          	jal	t4,fffdebfe <_end+0xfffdb2be>
    3618:	deadbeef          	jal	t4,fffdec02 <_end+0xfffdb2c2>
    361c:	deadbeef          	jal	t4,fffdec06 <_end+0xfffdb2c6>
    3620:	deadbeef          	jal	t4,fffdec0a <_end+0xfffdb2ca>
    3624:	deadbeef          	jal	t4,fffdec0e <_end+0xfffdb2ce>
    3628:	deadbeef          	jal	t4,fffdec12 <_end+0xfffdb2d2>
    362c:	deadbeef          	jal	t4,fffdec16 <_end+0xfffdb2d6>
    3630:	deadbeef          	jal	t4,fffdec1a <_end+0xfffdb2da>
    3634:	deadbeef          	jal	t4,fffdec1e <_end+0xfffdb2de>
    3638:	deadbeef          	jal	t4,fffdec22 <_end+0xfffdb2e2>
    363c:	deadbeef          	jal	t4,fffdec26 <_end+0xfffdb2e6>
    3640:	deadbeef          	jal	t4,fffdec2a <_end+0xfffdb2ea>
    3644:	deadbeef          	jal	t4,fffdec2e <_end+0xfffdb2ee>
    3648:	deadbeef          	jal	t4,fffdec32 <_end+0xfffdb2f2>
    364c:	deadbeef          	jal	t4,fffdec36 <_end+0xfffdb2f6>
    3650:	deadbeef          	jal	t4,fffdec3a <_end+0xfffdb2fa>
    3654:	deadbeef          	jal	t4,fffdec3e <_end+0xfffdb2fe>
    3658:	deadbeef          	jal	t4,fffdec42 <_end+0xfffdb302>
    365c:	deadbeef          	jal	t4,fffdec46 <_end+0xfffdb306>
    3660:	deadbeef          	jal	t4,fffdec4a <_end+0xfffdb30a>
    3664:	deadbeef          	jal	t4,fffdec4e <_end+0xfffdb30e>
    3668:	deadbeef          	jal	t4,fffdec52 <_end+0xfffdb312>
    366c:	deadbeef          	jal	t4,fffdec56 <_end+0xfffdb316>
    3670:	deadbeef          	jal	t4,fffdec5a <_end+0xfffdb31a>
    3674:	deadbeef          	jal	t4,fffdec5e <_end+0xfffdb31e>
    3678:	deadbeef          	jal	t4,fffdec62 <_end+0xfffdb322>
    367c:	deadbeef          	jal	t4,fffdec66 <_end+0xfffdb326>
    3680:	deadbeef          	jal	t4,fffdec6a <_end+0xfffdb32a>
    3684:	deadbeef          	jal	t4,fffdec6e <_end+0xfffdb32e>
    3688:	deadbeef          	jal	t4,fffdec72 <_end+0xfffdb332>
    368c:	deadbeef          	jal	t4,fffdec76 <_end+0xfffdb336>
    3690:	deadbeef          	jal	t4,fffdec7a <_end+0xfffdb33a>
    3694:	deadbeef          	jal	t4,fffdec7e <_end+0xfffdb33e>
    3698:	deadbeef          	jal	t4,fffdec82 <_end+0xfffdb342>
    369c:	deadbeef          	jal	t4,fffdec86 <_end+0xfffdb346>
    36a0:	deadbeef          	jal	t4,fffdec8a <_end+0xfffdb34a>
    36a4:	deadbeef          	jal	t4,fffdec8e <_end+0xfffdb34e>
    36a8:	deadbeef          	jal	t4,fffdec92 <_end+0xfffdb352>
    36ac:	deadbeef          	jal	t4,fffdec96 <_end+0xfffdb356>
    36b0:	deadbeef          	jal	t4,fffdec9a <_end+0xfffdb35a>
    36b4:	deadbeef          	jal	t4,fffdec9e <_end+0xfffdb35e>
    36b8:	deadbeef          	jal	t4,fffdeca2 <_end+0xfffdb362>
    36bc:	deadbeef          	jal	t4,fffdeca6 <_end+0xfffdb366>
    36c0:	deadbeef          	jal	t4,fffdecaa <_end+0xfffdb36a>
    36c4:	deadbeef          	jal	t4,fffdecae <_end+0xfffdb36e>
    36c8:	deadbeef          	jal	t4,fffdecb2 <_end+0xfffdb372>
    36cc:	deadbeef          	jal	t4,fffdecb6 <_end+0xfffdb376>
    36d0:	deadbeef          	jal	t4,fffdecba <_end+0xfffdb37a>
    36d4:	deadbeef          	jal	t4,fffdecbe <_end+0xfffdb37e>
    36d8:	deadbeef          	jal	t4,fffdecc2 <_end+0xfffdb382>
    36dc:	deadbeef          	jal	t4,fffdecc6 <_end+0xfffdb386>
    36e0:	deadbeef          	jal	t4,fffdecca <_end+0xfffdb38a>
    36e4:	deadbeef          	jal	t4,fffdecce <_end+0xfffdb38e>
    36e8:	deadbeef          	jal	t4,fffdecd2 <_end+0xfffdb392>
    36ec:	deadbeef          	jal	t4,fffdecd6 <_end+0xfffdb396>
    36f0:	deadbeef          	jal	t4,fffdecda <_end+0xfffdb39a>
    36f4:	deadbeef          	jal	t4,fffdecde <_end+0xfffdb39e>
    36f8:	deadbeef          	jal	t4,fffdece2 <_end+0xfffdb3a2>
    36fc:	deadbeef          	jal	t4,fffdece6 <_end+0xfffdb3a6>
    3700:	deadbeef          	jal	t4,fffdecea <_end+0xfffdb3aa>
    3704:	deadbeef          	jal	t4,fffdecee <_end+0xfffdb3ae>
    3708:	deadbeef          	jal	t4,fffdecf2 <_end+0xfffdb3b2>
    370c:	deadbeef          	jal	t4,fffdecf6 <_end+0xfffdb3b6>
    3710:	deadbeef          	jal	t4,fffdecfa <_end+0xfffdb3ba>
    3714:	deadbeef          	jal	t4,fffdecfe <_end+0xfffdb3be>
    3718:	deadbeef          	jal	t4,fffded02 <_end+0xfffdb3c2>
    371c:	deadbeef          	jal	t4,fffded06 <_end+0xfffdb3c6>
    3720:	deadbeef          	jal	t4,fffded0a <_end+0xfffdb3ca>
    3724:	deadbeef          	jal	t4,fffded0e <_end+0xfffdb3ce>
    3728:	deadbeef          	jal	t4,fffded12 <_end+0xfffdb3d2>
    372c:	deadbeef          	jal	t4,fffded16 <_end+0xfffdb3d6>
    3730:	deadbeef          	jal	t4,fffded1a <_end+0xfffdb3da>
    3734:	deadbeef          	jal	t4,fffded1e <_end+0xfffdb3de>
    3738:	deadbeef          	jal	t4,fffded22 <_end+0xfffdb3e2>
    373c:	deadbeef          	jal	t4,fffded26 <_end+0xfffdb3e6>
    3740:	deadbeef          	jal	t4,fffded2a <_end+0xfffdb3ea>
    3744:	deadbeef          	jal	t4,fffded2e <_end+0xfffdb3ee>
    3748:	deadbeef          	jal	t4,fffded32 <_end+0xfffdb3f2>
    374c:	deadbeef          	jal	t4,fffded36 <_end+0xfffdb3f6>
    3750:	deadbeef          	jal	t4,fffded3a <_end+0xfffdb3fa>
    3754:	deadbeef          	jal	t4,fffded3e <_end+0xfffdb3fe>
    3758:	deadbeef          	jal	t4,fffded42 <_end+0xfffdb402>
    375c:	deadbeef          	jal	t4,fffded46 <_end+0xfffdb406>
    3760:	deadbeef          	jal	t4,fffded4a <_end+0xfffdb40a>
    3764:	deadbeef          	jal	t4,fffded4e <_end+0xfffdb40e>
    3768:	deadbeef          	jal	t4,fffded52 <_end+0xfffdb412>
    376c:	deadbeef          	jal	t4,fffded56 <_end+0xfffdb416>
    3770:	deadbeef          	jal	t4,fffded5a <_end+0xfffdb41a>
    3774:	deadbeef          	jal	t4,fffded5e <_end+0xfffdb41e>
    3778:	deadbeef          	jal	t4,fffded62 <_end+0xfffdb422>
    377c:	deadbeef          	jal	t4,fffded66 <_end+0xfffdb426>
    3780:	deadbeef          	jal	t4,fffded6a <_end+0xfffdb42a>
    3784:	deadbeef          	jal	t4,fffded6e <_end+0xfffdb42e>
    3788:	deadbeef          	jal	t4,fffded72 <_end+0xfffdb432>
    378c:	deadbeef          	jal	t4,fffded76 <_end+0xfffdb436>
    3790:	deadbeef          	jal	t4,fffded7a <_end+0xfffdb43a>
    3794:	deadbeef          	jal	t4,fffded7e <_end+0xfffdb43e>
    3798:	deadbeef          	jal	t4,fffded82 <_end+0xfffdb442>
    379c:	deadbeef          	jal	t4,fffded86 <_end+0xfffdb446>
    37a0:	deadbeef          	jal	t4,fffded8a <_end+0xfffdb44a>
    37a4:	deadbeef          	jal	t4,fffded8e <_end+0xfffdb44e>
    37a8:	deadbeef          	jal	t4,fffded92 <_end+0xfffdb452>
    37ac:	deadbeef          	jal	t4,fffded96 <_end+0xfffdb456>
    37b0:	deadbeef          	jal	t4,fffded9a <_end+0xfffdb45a>
    37b4:	deadbeef          	jal	t4,fffded9e <_end+0xfffdb45e>
    37b8:	deadbeef          	jal	t4,fffdeda2 <_end+0xfffdb462>
    37bc:	deadbeef          	jal	t4,fffdeda6 <_end+0xfffdb466>
    37c0:	deadbeef          	jal	t4,fffdedaa <_end+0xfffdb46a>
    37c4:	deadbeef          	jal	t4,fffdedae <_end+0xfffdb46e>
    37c8:	deadbeef          	jal	t4,fffdedb2 <_end+0xfffdb472>
    37cc:	deadbeef          	jal	t4,fffdedb6 <_end+0xfffdb476>
    37d0:	deadbeef          	jal	t4,fffdedba <_end+0xfffdb47a>
    37d4:	deadbeef          	jal	t4,fffdedbe <_end+0xfffdb47e>
    37d8:	deadbeef          	jal	t4,fffdedc2 <_end+0xfffdb482>
    37dc:	deadbeef          	jal	t4,fffdedc6 <_end+0xfffdb486>
    37e0:	deadbeef          	jal	t4,fffdedca <_end+0xfffdb48a>
    37e4:	deadbeef          	jal	t4,fffdedce <_end+0xfffdb48e>
    37e8:	deadbeef          	jal	t4,fffdedd2 <_end+0xfffdb492>
    37ec:	deadbeef          	jal	t4,fffdedd6 <_end+0xfffdb496>
    37f0:	deadbeef          	jal	t4,fffdedda <_end+0xfffdb49a>
    37f4:	deadbeef          	jal	t4,fffdedde <_end+0xfffdb49e>
    37f8:	deadbeef          	jal	t4,fffdede2 <_end+0xfffdb4a2>
    37fc:	deadbeef          	jal	t4,fffdede6 <_end+0xfffdb4a6>
    3800:	deadbeef          	jal	t4,fffdedea <_end+0xfffdb4aa>
    3804:	deadbeef          	jal	t4,fffdedee <_end+0xfffdb4ae>
    3808:	deadbeef          	jal	t4,fffdedf2 <_end+0xfffdb4b2>
    380c:	deadbeef          	jal	t4,fffdedf6 <_end+0xfffdb4b6>

00003810 <signature_x1_2>:
    3810:	deadbeef          	jal	t4,fffdedfa <_end+0xfffdb4ba>
    3814:	deadbeef          	jal	t4,fffdedfe <_end+0xfffdb4be>
    3818:	deadbeef          	jal	t4,fffdee02 <_end+0xfffdb4c2>
    381c:	deadbeef          	jal	t4,fffdee06 <_end+0xfffdb4c6>
    3820:	deadbeef          	jal	t4,fffdee0a <_end+0xfffdb4ca>
    3824:	deadbeef          	jal	t4,fffdee0e <_end+0xfffdb4ce>
    3828:	deadbeef          	jal	t4,fffdee12 <_end+0xfffdb4d2>
    382c:	deadbeef          	jal	t4,fffdee16 <_end+0xfffdb4d6>
    3830:	deadbeef          	jal	t4,fffdee1a <_end+0xfffdb4da>
    3834:	deadbeef          	jal	t4,fffdee1e <_end+0xfffdb4de>
    3838:	deadbeef          	jal	t4,fffdee22 <_end+0xfffdb4e2>
    383c:	deadbeef          	jal	t4,fffdee26 <_end+0xfffdb4e6>
    3840:	deadbeef          	jal	t4,fffdee2a <_end+0xfffdb4ea>
    3844:	deadbeef          	jal	t4,fffdee2e <_end+0xfffdb4ee>
    3848:	deadbeef          	jal	t4,fffdee32 <_end+0xfffdb4f2>
    384c:	deadbeef          	jal	t4,fffdee36 <_end+0xfffdb4f6>
    3850:	deadbeef          	jal	t4,fffdee3a <_end+0xfffdb4fa>
    3854:	deadbeef          	jal	t4,fffdee3e <_end+0xfffdb4fe>
    3858:	deadbeef          	jal	t4,fffdee42 <_end+0xfffdb502>
    385c:	deadbeef          	jal	t4,fffdee46 <_end+0xfffdb506>
    3860:	deadbeef          	jal	t4,fffdee4a <_end+0xfffdb50a>
    3864:	deadbeef          	jal	t4,fffdee4e <_end+0xfffdb50e>
    3868:	deadbeef          	jal	t4,fffdee52 <_end+0xfffdb512>
    386c:	deadbeef          	jal	t4,fffdee56 <_end+0xfffdb516>
    3870:	deadbeef          	jal	t4,fffdee5a <_end+0xfffdb51a>
    3874:	deadbeef          	jal	t4,fffdee5e <_end+0xfffdb51e>
    3878:	deadbeef          	jal	t4,fffdee62 <_end+0xfffdb522>
    387c:	deadbeef          	jal	t4,fffdee66 <_end+0xfffdb526>
    3880:	deadbeef          	jal	t4,fffdee6a <_end+0xfffdb52a>
    3884:	deadbeef          	jal	t4,fffdee6e <_end+0xfffdb52e>
    3888:	deadbeef          	jal	t4,fffdee72 <_end+0xfffdb532>
    388c:	deadbeef          	jal	t4,fffdee76 <_end+0xfffdb536>
    3890:	deadbeef          	jal	t4,fffdee7a <_end+0xfffdb53a>
    3894:	deadbeef          	jal	t4,fffdee7e <_end+0xfffdb53e>
    3898:	deadbeef          	jal	t4,fffdee82 <_end+0xfffdb542>
    389c:	deadbeef          	jal	t4,fffdee86 <_end+0xfffdb546>
    38a0:	deadbeef          	jal	t4,fffdee8a <_end+0xfffdb54a>
    38a4:	deadbeef          	jal	t4,fffdee8e <_end+0xfffdb54e>
    38a8:	deadbeef          	jal	t4,fffdee92 <_end+0xfffdb552>
    38ac:	deadbeef          	jal	t4,fffdee96 <_end+0xfffdb556>
    38b0:	deadbeef          	jal	t4,fffdee9a <_end+0xfffdb55a>
    38b4:	deadbeef          	jal	t4,fffdee9e <_end+0xfffdb55e>
    38b8:	deadbeef          	jal	t4,fffdeea2 <_end+0xfffdb562>
    38bc:	deadbeef          	jal	t4,fffdeea6 <_end+0xfffdb566>
    38c0:	deadbeef          	jal	t4,fffdeeaa <_end+0xfffdb56a>
    38c4:	deadbeef          	jal	t4,fffdeeae <_end+0xfffdb56e>
    38c8:	deadbeef          	jal	t4,fffdeeb2 <_end+0xfffdb572>
    38cc:	deadbeef          	jal	t4,fffdeeb6 <_end+0xfffdb576>
    38d0:	deadbeef          	jal	t4,fffdeeba <_end+0xfffdb57a>
    38d4:	deadbeef          	jal	t4,fffdeebe <_end+0xfffdb57e>
    38d8:	deadbeef          	jal	t4,fffdeec2 <_end+0xfffdb582>
    38dc:	deadbeef          	jal	t4,fffdeec6 <_end+0xfffdb586>
    38e0:	deadbeef          	jal	t4,fffdeeca <_end+0xfffdb58a>
    38e4:	deadbeef          	jal	t4,fffdeece <_end+0xfffdb58e>
    38e8:	deadbeef          	jal	t4,fffdeed2 <_end+0xfffdb592>
    38ec:	deadbeef          	jal	t4,fffdeed6 <_end+0xfffdb596>
    38f0:	deadbeef          	jal	t4,fffdeeda <_end+0xfffdb59a>
    38f4:	deadbeef          	jal	t4,fffdeede <_end+0xfffdb59e>
    38f8:	deadbeef          	jal	t4,fffdeee2 <_end+0xfffdb5a2>
    38fc:	deadbeef          	jal	t4,fffdeee6 <_end+0xfffdb5a6>
    3900:	deadbeef          	jal	t4,fffdeeea <_end+0xfffdb5aa>
    3904:	deadbeef          	jal	t4,fffdeeee <_end+0xfffdb5ae>
    3908:	deadbeef          	jal	t4,fffdeef2 <_end+0xfffdb5b2>
    390c:	deadbeef          	jal	t4,fffdeef6 <_end+0xfffdb5b6>
    3910:	deadbeef          	jal	t4,fffdeefa <_end+0xfffdb5ba>
    3914:	deadbeef          	jal	t4,fffdeefe <_end+0xfffdb5be>
    3918:	deadbeef          	jal	t4,fffdef02 <_end+0xfffdb5c2>
    391c:	deadbeef          	jal	t4,fffdef06 <_end+0xfffdb5c6>
    3920:	deadbeef          	jal	t4,fffdef0a <_end+0xfffdb5ca>
    3924:	deadbeef          	jal	t4,fffdef0e <_end+0xfffdb5ce>
    3928:	deadbeef          	jal	t4,fffdef12 <_end+0xfffdb5d2>
    392c:	deadbeef          	jal	t4,fffdef16 <_end+0xfffdb5d6>
    3930:	deadbeef          	jal	t4,fffdef1a <_end+0xfffdb5da>
    3934:	deadbeef          	jal	t4,fffdef1e <_end+0xfffdb5de>
	...

Desensamblado de la sección .riscv.attributes:

00000000 <.riscv.attributes>:
   0:	3541                	jal	fffffe80 <_end+0xffffc540>
   2:	0000                	unimp
   4:	7200                	.2byte	0x7200
   6:	7369                	lui	t1,0xffffa
   8:	01007663          	bgeu	zero,a6,14 <rvtest_entry_point+0x14>
   c:	0000002b          	.4byte	0x2b
  10:	7205                	lui	tp,0xfffe1
  12:	3376                	.2byte	0x3376
  14:	6932                	.2byte	0x6932
  16:	7032                	.2byte	0x7032
  18:	5f30                	lw	a2,120(a4)
  1a:	326d                	jal	fffff9c4 <_end+0xffffc084>
  1c:	3070                	.2byte	0x3070
  1e:	635f 7032 5f30      	.byte	0x5f, 0x63, 0x32, 0x70, 0x30, 0x5f
  24:	6d7a                	.2byte	0x6d7a
  26:	756d                	lui	a0,0xffffb
  28:	316c                	.2byte	0x316c
  2a:	3070                	.2byte	0x3070
  2c:	7a5f 6966 786e      	.byte	0x5f, 0x7a, 0x66, 0x69, 0x6e, 0x78
  32:	7031                	c.lui	zero,0xfffec
  34:	0030                	add	a2,sp,8
