
/home/alejandro/Escritorio/test_riscv2.5/riscv-compliance/work/rv32i_m/C/cbnez-01.elf:     formato del fichero elf32-littleriscv


Desensamblado de la sección .text.init:

00000000 <rvtest_entry_point>:
       0:	feedc0b7          	lui	ra,0xfeedc
       4:	ead08093          	add	ra,ra,-339 # feedbead <_end+0xfeed9d3d>
       8:	ff76e137          	lui	sp,0xff76e
       c:	f5610113          	add	sp,sp,-170 # ff76df56 <_end+0xff76bde6>
      10:	7fbb71b7          	lui	gp,0x7fbb7
      14:	fab18193          	add	gp,gp,-85 # 7fbb6fab <_end+0x7fbb4e3b>
      18:	bfddb237          	lui	tp,0xbfddb
      1c:	7d520213          	add	tp,tp,2005 # bfddb7d5 <_end+0xbfdd9665>
      20:	00000297          	auipc	t0,0x0
      24:	0d828293          	add	t0,t0,216 # f8 <rvtest_code_begin>
      28:	00002317          	auipc	t1,0x2
      2c:	fd830313          	add	t1,t1,-40 # 2000 <rvtest_data_begin>
      30:	b7fbb3b7          	lui	t2,0xb7fbb
      34:	6fa38393          	add	t2,t2,1786 # b7fbb6fa <_end+0xb7fb958a>
      38:	5bfde437          	lui	s0,0x5bfde
      3c:	b7d40413          	add	s0,s0,-1155 # 5bfddb7d <_end+0x5bfdba0d>
      40:	adfef4b7          	lui	s1,0xadfef
      44:	dbe48493          	add	s1,s1,-578 # adfeedbe <_end+0xadfecc4e>
      48:	56ff7537          	lui	a0,0x56ff7
      4c:	6df50513          	add	a0,a0,1759 # 56ff76df <_end+0x56ff556f>
      50:	ab7fc5b7          	lui	a1,0xab7fc
      54:	b6f58593          	add	a1,a1,-1169 # ab7fbb6f <_end+0xab7f99ff>
      58:	d5bfe637          	lui	a2,0xd5bfe
      5c:	db760613          	add	a2,a2,-585 # d5bfddb7 <_end+0xd5bfbc47>
      60:	eadff6b7          	lui	a3,0xeadff
      64:	edb68693          	add	a3,a3,-293 # eadfeedb <_end+0xeadfcd6b>
      68:	f56ff737          	lui	a4,0xf56ff
      6c:	76d70713          	add	a4,a4,1901 # f56ff76d <_end+0xf56fd5fd>
      70:	fab807b7          	lui	a5,0xfab80
      74:	bb678793          	add	a5,a5,-1098 # fab7fbb6 <_end+0xfab7da46>
      78:	7d5c0837          	lui	a6,0x7d5c0
      7c:	ddb80813          	add	a6,a6,-549 # 7d5bfddb <_end+0x7d5bdc6b>
      80:	beae08b7          	lui	a7,0xbeae0
      84:	eed88893          	add	a7,a7,-275 # beadfeed <_end+0xbeaddd7d>
      88:	df570937          	lui	s2,0xdf570
      8c:	f7690913          	add	s2,s2,-138 # df56ff76 <_end+0xdf56de06>
      90:	6fab89b7          	lui	s3,0x6fab8
      94:	fbb98993          	add	s3,s3,-69 # 6fab7fbb <_end+0x6fab5e4b>
      98:	b7d5ca37          	lui	s4,0xb7d5c
      9c:	fdda0a13          	add	s4,s4,-35 # b7d5bfdd <_end+0xb7d59e6d>
      a0:	dbeaeab7          	lui	s5,0xdbeae
      a4:	feea8a93          	add	s5,s5,-18 # dbeadfee <_end+0xdbeabe7e>
      a8:	6df57b37          	lui	s6,0x6df57
      ac:	ff7b0b13          	add	s6,s6,-9 # 6df56ff7 <_end+0x6df54e87>
      b0:	b6fabbb7          	lui	s7,0xb6fab
      b4:	7fbb8b93          	add	s7,s7,2043 # b6fab7fb <_end+0xb6fa968b>
      b8:	db7d6c37          	lui	s8,0xdb7d6
      bc:	bfdc0c13          	add	s8,s8,-1027 # db7d5bfd <_end+0xdb7d3a8d>
      c0:	edbebcb7          	lui	s9,0xedbeb
      c4:	dfec8c93          	add	s9,s9,-514 # edbeadfe <_end+0xedbe8c8e>
      c8:	76df5d37          	lui	s10,0x76df5
      cc:	6ffd0d13          	add	s10,s10,1791 # 76df56ff <_end+0x76df358f>
      d0:	bb6fbdb7          	lui	s11,0xbb6fb
      d4:	b7fd8d93          	add	s11,s11,-1153 # bb6fab7f <_end+0xbb6f8a0f>
      d8:	ddb7de37          	lui	t3,0xddb7d
      dc:	5bfe0e13          	add	t3,t3,1471 # ddb7d5bf <_end+0xddb7b44f>
      e0:	eedbfeb7          	lui	t4,0xeedbf
      e4:	adfe8e93          	add	t4,t4,-1313 # eedbeadf <_end+0xeedbc96f>
      e8:	f76dff37          	lui	t5,0xf76df
      ec:	56ff0f13          	add	t5,t5,1391 # f76df56f <_end+0xf76dd3ff>
      f0:	fbb70fb7          	lui	t6,0xfbb70
      f4:	ab7f8f93          	add	t6,t6,-1353 # fbb6fab7 <_end+0xfbb6d947>

000000f8 <rvtest_code_begin>:
      f8:	00002097          	auipc	ra,0x2
      fc:	f1808093          	add	ra,ra,-232 # 2010 <data_begin>

00000100 <inst_0>:
     100:	80000537          	lui	a0,0x80000
     104:	a031                	j	110 <inst_0+0x10>
     106:	4101                	li	sp,0
     108:	00110113          	add	sp,sp,1
     10c:	0840006f          	j	190 <offset+0x3c>
     110:	ed3d                	bnez	a0,18e <offset+0x3a>
     112:	00210113          	add	sp,sp,2
     116:	07a0006f          	j	190 <offset+0x3c>
     11a:	0001                	nop
     11c:	0001                	nop
     11e:	0001                	nop
     120:	0001                	nop
     122:	0001                	nop
     124:	0001                	nop
     126:	0001                	nop
     128:	0001                	nop
     12a:	0001                	nop
     12c:	0001                	nop
     12e:	0001                	nop
     130:	0001                	nop
     132:	0001                	nop
     134:	0001                	nop
     136:	0001                	nop
     138:	0001                	nop
     13a:	0001                	nop
     13c:	0001                	nop
     13e:	0001                	nop
     140:	0001                	nop
     142:	0001                	nop
     144:	0001                	nop
     146:	0001                	nop
     148:	0001                	nop
     14a:	0001                	nop
     14c:	0001                	nop
     14e:	0001                	nop
     150:	0001                	nop
     152:	0001                	nop
     154:	0001                	nop
     156:	0001                	nop
     158:	0001                	nop
     15a:	0001                	nop
     15c:	0001                	nop
     15e:	0001                	nop
     160:	0001                	nop
     162:	0001                	nop
     164:	0001                	nop
     166:	0001                	nop
     168:	0001                	nop
     16a:	0001                	nop
     16c:	0001                	nop
     16e:	0001                	nop
     170:	0001                	nop
     172:	0001                	nop
     174:	0001                	nop
     176:	0001                	nop
     178:	0001                	nop
     17a:	0001                	nop
     17c:	0001                	nop
     17e:	0001                	nop
     180:	0001                	nop
     182:	0001                	nop
     184:	0001                	nop
     186:	0001                	nop
     188:	0001                	nop
     18a:	0001                	nop
     18c:	0001                	nop
     18e:	010d                	add	sp,sp,3
     190:	0020a023          	sw	sp,0(ra)

00000194 <inst_1>:
     194:	00000793          	li	a5,0
     198:	a845                	j	248 <inst_1+0xb4>
     19a:	4101                	li	sp,0
     19c:	00110113          	add	sp,sp,1
     1a0:	0b40006f          	j	254 <inst_1+0xc0>
     1a4:	0001                	nop
     1a6:	0001                	nop
     1a8:	0001                	nop
     1aa:	0001                	nop
     1ac:	0001                	nop
     1ae:	0001                	nop
     1b0:	0001                	nop
     1b2:	0001                	nop
     1b4:	0001                	nop
     1b6:	0001                	nop
     1b8:	0001                	nop
     1ba:	0001                	nop
     1bc:	0001                	nop
     1be:	0001                	nop
     1c0:	0001                	nop
     1c2:	0001                	nop
     1c4:	0001                	nop
     1c6:	0001                	nop
     1c8:	0001                	nop
     1ca:	0001                	nop
     1cc:	0001                	nop
     1ce:	0001                	nop
     1d0:	0001                	nop
     1d2:	0001                	nop
     1d4:	0001                	nop
     1d6:	0001                	nop
     1d8:	0001                	nop
     1da:	0001                	nop
     1dc:	0001                	nop
     1de:	0001                	nop
     1e0:	0001                	nop
     1e2:	0001                	nop
     1e4:	0001                	nop
     1e6:	0001                	nop
     1e8:	0001                	nop
     1ea:	0001                	nop
     1ec:	0001                	nop
     1ee:	0001                	nop
     1f0:	0001                	nop
     1f2:	0001                	nop
     1f4:	0001                	nop
     1f6:	0001                	nop
     1f8:	0001                	nop
     1fa:	0001                	nop
     1fc:	0001                	nop
     1fe:	0001                	nop
     200:	0001                	nop
     202:	0001                	nop
     204:	0001                	nop
     206:	0001                	nop
     208:	0001                	nop
     20a:	0001                	nop
     20c:	0001                	nop
     20e:	0001                	nop
     210:	0001                	nop
     212:	0001                	nop
     214:	0001                	nop
     216:	0001                	nop
     218:	0001                	nop
     21a:	0001                	nop
     21c:	0001                	nop
     21e:	0001                	nop
     220:	0001                	nop
     222:	0001                	nop
     224:	0001                	nop
     226:	0001                	nop
     228:	0001                	nop
     22a:	0001                	nop
     22c:	0001                	nop
     22e:	0001                	nop
     230:	0001                	nop
     232:	0001                	nop
     234:	0001                	nop
     236:	0001                	nop
     238:	0001                	nop
     23a:	0001                	nop
     23c:	0001                	nop
     23e:	0001                	nop
     240:	0001                	nop
     242:	0001                	nop
     244:	0001                	nop
     246:	0001                	nop
     248:	fbb1                	bnez	a5,19c <inst_1+0x8>
     24a:	00210113          	add	sp,sp,2
     24e:	0060006f          	j	254 <inst_1+0xc0>
     252:	010d                	add	sp,sp,3
     254:	0020a223          	sw	sp,4(ra)

00000258 <inst_2>:
     258:	800005b7          	lui	a1,0x80000
     25c:	fff58593          	add	a1,a1,-1 # 7fffffff <_end+0x7fffde8f>
     260:	a031                	j	26c <inst_2+0x14>
     262:	4101                	li	sp,0
     264:	00110113          	add	sp,sp,1
     268:	0860006f          	j	2ee <inst_2+0x96>
     26c:	e1c1                	bnez	a1,2ec <inst_2+0x94>
     26e:	00210113          	add	sp,sp,2
     272:	07c0006f          	j	2ee <inst_2+0x96>
     276:	0001                	nop
     278:	0001                	nop
     27a:	0001                	nop
     27c:	0001                	nop
     27e:	0001                	nop
     280:	0001                	nop
     282:	0001                	nop
     284:	0001                	nop
     286:	0001                	nop
     288:	0001                	nop
     28a:	0001                	nop
     28c:	0001                	nop
     28e:	0001                	nop
     290:	0001                	nop
     292:	0001                	nop
     294:	0001                	nop
     296:	0001                	nop
     298:	0001                	nop
     29a:	0001                	nop
     29c:	0001                	nop
     29e:	0001                	nop
     2a0:	0001                	nop
     2a2:	0001                	nop
     2a4:	0001                	nop
     2a6:	0001                	nop
     2a8:	0001                	nop
     2aa:	0001                	nop
     2ac:	0001                	nop
     2ae:	0001                	nop
     2b0:	0001                	nop
     2b2:	0001                	nop
     2b4:	0001                	nop
     2b6:	0001                	nop
     2b8:	0001                	nop
     2ba:	0001                	nop
     2bc:	0001                	nop
     2be:	0001                	nop
     2c0:	0001                	nop
     2c2:	0001                	nop
     2c4:	0001                	nop
     2c6:	0001                	nop
     2c8:	0001                	nop
     2ca:	0001                	nop
     2cc:	0001                	nop
     2ce:	0001                	nop
     2d0:	0001                	nop
     2d2:	0001                	nop
     2d4:	0001                	nop
     2d6:	0001                	nop
     2d8:	0001                	nop
     2da:	0001                	nop
     2dc:	0001                	nop
     2de:	0001                	nop
     2e0:	0001                	nop
     2e2:	0001                	nop
     2e4:	0001                	nop
     2e6:	0001                	nop
     2e8:	0001                	nop
     2ea:	0001                	nop
     2ec:	010d                	add	sp,sp,3
     2ee:	0020a423          	sw	sp,8(ra)

000002f2 <inst_3>:
     2f2:	00100713          	li	a4,1
     2f6:	a031                	j	302 <inst_3+0x10>
     2f8:	4101                	li	sp,0
     2fa:	00110113          	add	sp,sp,1
     2fe:	0140006f          	j	312 <inst_3+0x20>
     302:	e719                	bnez	a4,310 <inst_3+0x1e>
     304:	00210113          	add	sp,sp,2
     308:	00a0006f          	j	312 <inst_3+0x20>
     30c:	0001                	nop
     30e:	0001                	nop
     310:	010d                	add	sp,sp,3
     312:	0020a623          	sw	sp,12(ra)

00000316 <inst_4>:
     316:	00000613          	li	a2,0
     31a:	a031                	j	326 <inst_4+0x10>
     31c:	4101                	li	sp,0
     31e:	00110113          	add	sp,sp,1
     322:	0b00006f          	j	3d2 <inst_4+0xbc>
     326:	e64d                	bnez	a2,3d0 <inst_4+0xba>
     328:	00210113          	add	sp,sp,2
     32c:	0a60006f          	j	3d2 <inst_4+0xbc>
     330:	0001                	nop
     332:	0001                	nop
     334:	0001                	nop
     336:	0001                	nop
     338:	0001                	nop
     33a:	0001                	nop
     33c:	0001                	nop
     33e:	0001                	nop
     340:	0001                	nop
     342:	0001                	nop
     344:	0001                	nop
     346:	0001                	nop
     348:	0001                	nop
     34a:	0001                	nop
     34c:	0001                	nop
     34e:	0001                	nop
     350:	0001                	nop
     352:	0001                	nop
     354:	0001                	nop
     356:	0001                	nop
     358:	0001                	nop
     35a:	0001                	nop
     35c:	0001                	nop
     35e:	0001                	nop
     360:	0001                	nop
     362:	0001                	nop
     364:	0001                	nop
     366:	0001                	nop
     368:	0001                	nop
     36a:	0001                	nop
     36c:	0001                	nop
     36e:	0001                	nop
     370:	0001                	nop
     372:	0001                	nop
     374:	0001                	nop
     376:	0001                	nop
     378:	0001                	nop
     37a:	0001                	nop
     37c:	0001                	nop
     37e:	0001                	nop
     380:	0001                	nop
     382:	0001                	nop
     384:	0001                	nop
     386:	0001                	nop
     388:	0001                	nop
     38a:	0001                	nop
     38c:	0001                	nop
     38e:	0001                	nop
     390:	0001                	nop
     392:	0001                	nop
     394:	0001                	nop
     396:	0001                	nop
     398:	0001                	nop
     39a:	0001                	nop
     39c:	0001                	nop
     39e:	0001                	nop
     3a0:	0001                	nop
     3a2:	0001                	nop
     3a4:	0001                	nop
     3a6:	0001                	nop
     3a8:	0001                	nop
     3aa:	0001                	nop
     3ac:	0001                	nop
     3ae:	0001                	nop
     3b0:	0001                	nop
     3b2:	0001                	nop
     3b4:	0001                	nop
     3b6:	0001                	nop
     3b8:	0001                	nop
     3ba:	0001                	nop
     3bc:	0001                	nop
     3be:	0001                	nop
     3c0:	0001                	nop
     3c2:	0001                	nop
     3c4:	0001                	nop
     3c6:	0001                	nop
     3c8:	0001                	nop
     3ca:	0001                	nop
     3cc:	0001                	nop
     3ce:	0001                	nop
     3d0:	010d                	add	sp,sp,3
     3d2:	0020a823          	sw	sp,16(ra)

000003d6 <inst_5>:
     3d6:	333334b7          	lui	s1,0x33333
     3da:	33348493          	add	s1,s1,819 # 33333333 <_end+0x333311c3>
     3de:	a031                	j	3ea <inst_5+0x14>
     3e0:	4101                	li	sp,0
     3e2:	00110113          	add	sp,sp,1
     3e6:	0100006f          	j	3f6 <inst_5+0x20>
     3ea:	fce5                	bnez	s1,3e2 <inst_5+0xc>
     3ec:	00210113          	add	sp,sp,2
     3f0:	0060006f          	j	3f6 <inst_5+0x20>
     3f4:	010d                	add	sp,sp,3
     3f6:	0020aa23          	sw	sp,20(ra)

000003fa <inst_6>:
     3fa:	ffb00413          	li	s0,-5
     3fe:	a01d                	j	424 <inst_6+0x2a>
     400:	4101                	li	sp,0
     402:	00110113          	add	sp,sp,1
     406:	02a0006f          	j	430 <inst_6+0x36>
     40a:	0001                	nop
     40c:	0001                	nop
     40e:	0001                	nop
     410:	0001                	nop
     412:	0001                	nop
     414:	0001                	nop
     416:	0001                	nop
     418:	0001                	nop
     41a:	0001                	nop
     41c:	0001                	nop
     41e:	0001                	nop
     420:	0001                	nop
     422:	0001                	nop
     424:	fc79                	bnez	s0,402 <inst_6+0x8>
     426:	00210113          	add	sp,sp,2
     42a:	0060006f          	j	430 <inst_6+0x36>
     42e:	010d                	add	sp,sp,3
     430:	0020ac23          	sw	sp,24(ra)

00000434 <inst_7>:
     434:	00200693          	li	a3,2
     438:	a031                	j	444 <inst_7+0x10>
     43a:	4101                	li	sp,0
     43c:	00110113          	add	sp,sp,1
     440:	0160006f          	j	456 <inst_7+0x22>
     444:	ea81                	bnez	a3,454 <inst_7+0x20>
     446:	00210113          	add	sp,sp,2
     44a:	00c0006f          	j	456 <inst_7+0x22>
     44e:	0001                	nop
     450:	0001                	nop
     452:	0001                	nop
     454:	010d                	add	sp,sp,3
     456:	0020ae23          	sw	sp,28(ra)

0000045a <inst_8>:
     45a:	00400513          	li	a0,4
     45e:	a031                	j	46a <inst_8+0x10>
     460:	4101                	li	sp,0
     462:	00110113          	add	sp,sp,1
     466:	0100006f          	j	476 <inst_8+0x1c>
     46a:	e509                	bnez	a0,474 <inst_8+0x1a>
     46c:	00210113          	add	sp,sp,2
     470:	0060006f          	j	476 <inst_8+0x1c>
     474:	010d                	add	sp,sp,3
     476:	0220a023          	sw	sp,32(ra)

0000047a <inst_9>:
     47a:	00800513          	li	a0,8
     47e:	a819                	j	494 <inst_9+0x1a>
     480:	4101                	li	sp,0
     482:	00110113          	add	sp,sp,1
     486:	01a0006f          	j	4a0 <inst_9+0x26>
     48a:	0001                	nop
     48c:	0001                	nop
     48e:	0001                	nop
     490:	0001                	nop
     492:	0001                	nop
     494:	f57d                	bnez	a0,482 <inst_9+0x8>
     496:	00210113          	add	sp,sp,2
     49a:	0060006f          	j	4a0 <inst_9+0x26>
     49e:	010d                	add	sp,sp,3
     4a0:	0220a223          	sw	sp,36(ra)

000004a4 <inst_10>:
     4a4:	01000513          	li	a0,16
     4a8:	a01d                	j	4ce <inst_10+0x2a>
     4aa:	4101                	li	sp,0
     4ac:	00110113          	add	sp,sp,1
     4b0:	02a0006f          	j	4da <inst_10+0x36>
     4b4:	0001                	nop
     4b6:	0001                	nop
     4b8:	0001                	nop
     4ba:	0001                	nop
     4bc:	0001                	nop
     4be:	0001                	nop
     4c0:	0001                	nop
     4c2:	0001                	nop
     4c4:	0001                	nop
     4c6:	0001                	nop
     4c8:	0001                	nop
     4ca:	0001                	nop
     4cc:	0001                	nop
     4ce:	fd79                	bnez	a0,4ac <inst_10+0x8>
     4d0:	00210113          	add	sp,sp,2
     4d4:	0060006f          	j	4da <inst_10+0x36>
     4d8:	010d                	add	sp,sp,3
     4da:	0220a423          	sw	sp,40(ra)

000004de <inst_11>:
     4de:	02000513          	li	a0,32
     4e2:	a031                	j	4ee <inst_11+0x10>
     4e4:	4101                	li	sp,0
     4e6:	00110113          	add	sp,sp,1
     4ea:	0840006f          	j	56e <inst_11+0x90>
     4ee:	ed3d                	bnez	a0,56c <inst_11+0x8e>
     4f0:	00210113          	add	sp,sp,2
     4f4:	07a0006f          	j	56e <inst_11+0x90>
     4f8:	0001                	nop
     4fa:	0001                	nop
     4fc:	0001                	nop
     4fe:	0001                	nop
     500:	0001                	nop
     502:	0001                	nop
     504:	0001                	nop
     506:	0001                	nop
     508:	0001                	nop
     50a:	0001                	nop
     50c:	0001                	nop
     50e:	0001                	nop
     510:	0001                	nop
     512:	0001                	nop
     514:	0001                	nop
     516:	0001                	nop
     518:	0001                	nop
     51a:	0001                	nop
     51c:	0001                	nop
     51e:	0001                	nop
     520:	0001                	nop
     522:	0001                	nop
     524:	0001                	nop
     526:	0001                	nop
     528:	0001                	nop
     52a:	0001                	nop
     52c:	0001                	nop
     52e:	0001                	nop
     530:	0001                	nop
     532:	0001                	nop
     534:	0001                	nop
     536:	0001                	nop
     538:	0001                	nop
     53a:	0001                	nop
     53c:	0001                	nop
     53e:	0001                	nop
     540:	0001                	nop
     542:	0001                	nop
     544:	0001                	nop
     546:	0001                	nop
     548:	0001                	nop
     54a:	0001                	nop
     54c:	0001                	nop
     54e:	0001                	nop
     550:	0001                	nop
     552:	0001                	nop
     554:	0001                	nop
     556:	0001                	nop
     558:	0001                	nop
     55a:	0001                	nop
     55c:	0001                	nop
     55e:	0001                	nop
     560:	0001                	nop
     562:	0001                	nop
     564:	0001                	nop
     566:	0001                	nop
     568:	0001                	nop
     56a:	0001                	nop
     56c:	010d                	add	sp,sp,3
     56e:	0220a623          	sw	sp,44(ra)

00000572 <inst_12>:
     572:	04000513          	li	a0,64
     576:	a031                	j	582 <inst_12+0x10>
     578:	4101                	li	sp,0
     57a:	00110113          	add	sp,sp,1
     57e:	0260006f          	j	5a4 <inst_12+0x32>
     582:	e105                	bnez	a0,5a2 <inst_12+0x30>
     584:	00210113          	add	sp,sp,2
     588:	01c0006f          	j	5a4 <inst_12+0x32>
     58c:	0001                	nop
     58e:	0001                	nop
     590:	0001                	nop
     592:	0001                	nop
     594:	0001                	nop
     596:	0001                	nop
     598:	0001                	nop
     59a:	0001                	nop
     59c:	0001                	nop
     59e:	0001                	nop
     5a0:	0001                	nop
     5a2:	010d                	add	sp,sp,3
     5a4:	0220a823          	sw	sp,48(ra)

000005a8 <inst_13>:
     5a8:	08000513          	li	a0,128
     5ac:	a031                	j	5b8 <inst_13+0x10>
     5ae:	4101                	li	sp,0
     5b0:	00110113          	add	sp,sp,1
     5b4:	0100006f          	j	5c4 <inst_13+0x1c>
     5b8:	fd65                	bnez	a0,5b0 <inst_13+0x8>
     5ba:	00210113          	add	sp,sp,2
     5be:	0060006f          	j	5c4 <inst_13+0x1c>
     5c2:	010d                	add	sp,sp,3
     5c4:	0220aa23          	sw	sp,52(ra)

000005c8 <inst_14>:
     5c8:	10000513          	li	a0,256
     5cc:	a031                	j	5d8 <inst_14+0x10>
     5ce:	4101                	li	sp,0
     5d0:	00110113          	add	sp,sp,1
     5d4:	0100006f          	j	5e4 <inst_14+0x1c>
     5d8:	fd65                	bnez	a0,5d0 <inst_14+0x8>
     5da:	00210113          	add	sp,sp,2
     5de:	0060006f          	j	5e4 <inst_14+0x1c>
     5e2:	010d                	add	sp,sp,3
     5e4:	0220ac23          	sw	sp,56(ra)

000005e8 <inst_15>:
     5e8:	20000513          	li	a0,512
     5ec:	a845                	j	69c <inst_15+0xb4>
     5ee:	4101                	li	sp,0
     5f0:	00110113          	add	sp,sp,1
     5f4:	0b40006f          	j	6a8 <inst_15+0xc0>
     5f8:	0001                	nop
     5fa:	0001                	nop
     5fc:	0001                	nop
     5fe:	0001                	nop
     600:	0001                	nop
     602:	0001                	nop
     604:	0001                	nop
     606:	0001                	nop
     608:	0001                	nop
     60a:	0001                	nop
     60c:	0001                	nop
     60e:	0001                	nop
     610:	0001                	nop
     612:	0001                	nop
     614:	0001                	nop
     616:	0001                	nop
     618:	0001                	nop
     61a:	0001                	nop
     61c:	0001                	nop
     61e:	0001                	nop
     620:	0001                	nop
     622:	0001                	nop
     624:	0001                	nop
     626:	0001                	nop
     628:	0001                	nop
     62a:	0001                	nop
     62c:	0001                	nop
     62e:	0001                	nop
     630:	0001                	nop
     632:	0001                	nop
     634:	0001                	nop
     636:	0001                	nop
     638:	0001                	nop
     63a:	0001                	nop
     63c:	0001                	nop
     63e:	0001                	nop
     640:	0001                	nop
     642:	0001                	nop
     644:	0001                	nop
     646:	0001                	nop
     648:	0001                	nop
     64a:	0001                	nop
     64c:	0001                	nop
     64e:	0001                	nop
     650:	0001                	nop
     652:	0001                	nop
     654:	0001                	nop
     656:	0001                	nop
     658:	0001                	nop
     65a:	0001                	nop
     65c:	0001                	nop
     65e:	0001                	nop
     660:	0001                	nop
     662:	0001                	nop
     664:	0001                	nop
     666:	0001                	nop
     668:	0001                	nop
     66a:	0001                	nop
     66c:	0001                	nop
     66e:	0001                	nop
     670:	0001                	nop
     672:	0001                	nop
     674:	0001                	nop
     676:	0001                	nop
     678:	0001                	nop
     67a:	0001                	nop
     67c:	0001                	nop
     67e:	0001                	nop
     680:	0001                	nop
     682:	0001                	nop
     684:	0001                	nop
     686:	0001                	nop
     688:	0001                	nop
     68a:	0001                	nop
     68c:	0001                	nop
     68e:	0001                	nop
     690:	0001                	nop
     692:	0001                	nop
     694:	0001                	nop
     696:	0001                	nop
     698:	0001                	nop
     69a:	0001                	nop
     69c:	f931                	bnez	a0,5f0 <inst_15+0x8>
     69e:	00210113          	add	sp,sp,2
     6a2:	0060006f          	j	6a8 <inst_15+0xc0>
     6a6:	010d                	add	sp,sp,3
     6a8:	0220ae23          	sw	sp,60(ra)

000006ac <inst_16>:
     6ac:	40000513          	li	a0,1024
     6b0:	a031                	j	6bc <inst_16+0x10>
     6b2:	4101                	li	sp,0
     6b4:	00110113          	add	sp,sp,1
     6b8:	0180006f          	j	6d0 <inst_16+0x24>
     6bc:	e909                	bnez	a0,6ce <inst_16+0x22>
     6be:	00210113          	add	sp,sp,2
     6c2:	00e0006f          	j	6d0 <inst_16+0x24>
     6c6:	0001                	nop
     6c8:	0001                	nop
     6ca:	0001                	nop
     6cc:	0001                	nop
     6ce:	010d                	add	sp,sp,3
     6d0:	0420a023          	sw	sp,64(ra)

000006d4 <inst_17>:
     6d4:	00001537          	lui	a0,0x1
     6d8:	80050513          	add	a0,a0,-2048 # 800 <inst_21+0x28>
     6dc:	a031                	j	6e8 <inst_17+0x14>
     6de:	4101                	li	sp,0
     6e0:	00110113          	add	sp,sp,1
     6e4:	0860006f          	j	76a <inst_17+0x96>
     6e8:	e141                	bnez	a0,768 <inst_17+0x94>
     6ea:	00210113          	add	sp,sp,2
     6ee:	07c0006f          	j	76a <inst_17+0x96>
     6f2:	0001                	nop
     6f4:	0001                	nop
     6f6:	0001                	nop
     6f8:	0001                	nop
     6fa:	0001                	nop
     6fc:	0001                	nop
     6fe:	0001                	nop
     700:	0001                	nop
     702:	0001                	nop
     704:	0001                	nop
     706:	0001                	nop
     708:	0001                	nop
     70a:	0001                	nop
     70c:	0001                	nop
     70e:	0001                	nop
     710:	0001                	nop
     712:	0001                	nop
     714:	0001                	nop
     716:	0001                	nop
     718:	0001                	nop
     71a:	0001                	nop
     71c:	0001                	nop
     71e:	0001                	nop
     720:	0001                	nop
     722:	0001                	nop
     724:	0001                	nop
     726:	0001                	nop
     728:	0001                	nop
     72a:	0001                	nop
     72c:	0001                	nop
     72e:	0001                	nop
     730:	0001                	nop
     732:	0001                	nop
     734:	0001                	nop
     736:	0001                	nop
     738:	0001                	nop
     73a:	0001                	nop
     73c:	0001                	nop
     73e:	0001                	nop
     740:	0001                	nop
     742:	0001                	nop
     744:	0001                	nop
     746:	0001                	nop
     748:	0001                	nop
     74a:	0001                	nop
     74c:	0001                	nop
     74e:	0001                	nop
     750:	0001                	nop
     752:	0001                	nop
     754:	0001                	nop
     756:	0001                	nop
     758:	0001                	nop
     75a:	0001                	nop
     75c:	0001                	nop
     75e:	0001                	nop
     760:	0001                	nop
     762:	0001                	nop
     764:	0001                	nop
     766:	0001                	nop
     768:	010d                	add	sp,sp,3
     76a:	0420a223          	sw	sp,68(ra)

0000076e <inst_18>:
     76e:	00001537          	lui	a0,0x1
     772:	a819                	j	788 <inst_18+0x1a>
     774:	4101                	li	sp,0
     776:	00110113          	add	sp,sp,1
     77a:	01a0006f          	j	794 <inst_18+0x26>
     77e:	0001                	nop
     780:	0001                	nop
     782:	0001                	nop
     784:	0001                	nop
     786:	0001                	nop
     788:	f57d                	bnez	a0,776 <inst_18+0x8>
     78a:	00210113          	add	sp,sp,2
     78e:	0060006f          	j	794 <inst_18+0x26>
     792:	010d                	add	sp,sp,3
     794:	0420a423          	sw	sp,72(ra)

00000798 <inst_19>:
     798:	00002537          	lui	a0,0x2
     79c:	a031                	j	7a8 <inst_19+0x10>
     79e:	4101                	li	sp,0
     7a0:	00110113          	add	sp,sp,1
     7a4:	0100006f          	j	7b4 <inst_19+0x1c>
     7a8:	e509                	bnez	a0,7b2 <inst_19+0x1a>
     7aa:	00210113          	add	sp,sp,2
     7ae:	0060006f          	j	7b4 <inst_19+0x1c>
     7b2:	010d                	add	sp,sp,3
     7b4:	0420a623          	sw	sp,76(ra)

000007b8 <inst_20>:
     7b8:	00004537          	lui	a0,0x4
     7bc:	a031                	j	7c8 <inst_20+0x10>
     7be:	4101                	li	sp,0
     7c0:	00110113          	add	sp,sp,1
     7c4:	0100006f          	j	7d4 <inst_20+0x1c>
     7c8:	e509                	bnez	a0,7d2 <inst_20+0x1a>
     7ca:	00210113          	add	sp,sp,2
     7ce:	0060006f          	j	7d4 <inst_20+0x1c>
     7d2:	010d                	add	sp,sp,3
     7d4:	0420a823          	sw	sp,80(ra)

000007d8 <inst_21>:
     7d8:	00008537          	lui	a0,0x8
     7dc:	a819                	j	7f2 <inst_21+0x1a>
     7de:	4101                	li	sp,0
     7e0:	00110113          	add	sp,sp,1
     7e4:	01a0006f          	j	7fe <inst_21+0x26>
     7e8:	0001                	nop
     7ea:	0001                	nop
     7ec:	0001                	nop
     7ee:	0001                	nop
     7f0:	0001                	nop
     7f2:	f57d                	bnez	a0,7e0 <inst_21+0x8>
     7f4:	00210113          	add	sp,sp,2
     7f8:	0060006f          	j	7fe <inst_21+0x26>
     7fc:	010d                	add	sp,sp,3
     7fe:	0420aa23          	sw	sp,84(ra)

00000802 <inst_22>:
     802:	00010537          	lui	a0,0x10
     806:	a031                	j	812 <inst_22+0x10>
     808:	4101                	li	sp,0
     80a:	00110113          	add	sp,sp,1
     80e:	0100006f          	j	81e <inst_22+0x1c>
     812:	fd65                	bnez	a0,80a <inst_22+0x8>
     814:	00210113          	add	sp,sp,2
     818:	0060006f          	j	81e <inst_22+0x1c>
     81c:	010d                	add	sp,sp,3
     81e:	0420ac23          	sw	sp,88(ra)

00000822 <inst_23>:
     822:	00020537          	lui	a0,0x20
     826:	a099                	j	86c <inst_23+0x4a>
     828:	4101                	li	sp,0
     82a:	00110113          	add	sp,sp,1
     82e:	04a0006f          	j	878 <inst_23+0x56>
     832:	0001                	nop
     834:	0001                	nop
     836:	0001                	nop
     838:	0001                	nop
     83a:	0001                	nop
     83c:	0001                	nop
     83e:	0001                	nop
     840:	0001                	nop
     842:	0001                	nop
     844:	0001                	nop
     846:	0001                	nop
     848:	0001                	nop
     84a:	0001                	nop
     84c:	0001                	nop
     84e:	0001                	nop
     850:	0001                	nop
     852:	0001                	nop
     854:	0001                	nop
     856:	0001                	nop
     858:	0001                	nop
     85a:	0001                	nop
     85c:	0001                	nop
     85e:	0001                	nop
     860:	0001                	nop
     862:	0001                	nop
     864:	0001                	nop
     866:	0001                	nop
     868:	0001                	nop
     86a:	0001                	nop
     86c:	fd5d                	bnez	a0,82a <inst_23+0x8>
     86e:	00210113          	add	sp,sp,2
     872:	0060006f          	j	878 <inst_23+0x56>
     876:	010d                	add	sp,sp,3
     878:	0420ae23          	sw	sp,92(ra)

0000087c <inst_24>:
     87c:	00040537          	lui	a0,0x40
     880:	a845                	j	930 <inst_24+0xb4>
     882:	4101                	li	sp,0
     884:	00110113          	add	sp,sp,1
     888:	0b40006f          	j	93c <inst_24+0xc0>
     88c:	0001                	nop
     88e:	0001                	nop
     890:	0001                	nop
     892:	0001                	nop
     894:	0001                	nop
     896:	0001                	nop
     898:	0001                	nop
     89a:	0001                	nop
     89c:	0001                	nop
     89e:	0001                	nop
     8a0:	0001                	nop
     8a2:	0001                	nop
     8a4:	0001                	nop
     8a6:	0001                	nop
     8a8:	0001                	nop
     8aa:	0001                	nop
     8ac:	0001                	nop
     8ae:	0001                	nop
     8b0:	0001                	nop
     8b2:	0001                	nop
     8b4:	0001                	nop
     8b6:	0001                	nop
     8b8:	0001                	nop
     8ba:	0001                	nop
     8bc:	0001                	nop
     8be:	0001                	nop
     8c0:	0001                	nop
     8c2:	0001                	nop
     8c4:	0001                	nop
     8c6:	0001                	nop
     8c8:	0001                	nop
     8ca:	0001                	nop
     8cc:	0001                	nop
     8ce:	0001                	nop
     8d0:	0001                	nop
     8d2:	0001                	nop
     8d4:	0001                	nop
     8d6:	0001                	nop
     8d8:	0001                	nop
     8da:	0001                	nop
     8dc:	0001                	nop
     8de:	0001                	nop
     8e0:	0001                	nop
     8e2:	0001                	nop
     8e4:	0001                	nop
     8e6:	0001                	nop
     8e8:	0001                	nop
     8ea:	0001                	nop
     8ec:	0001                	nop
     8ee:	0001                	nop
     8f0:	0001                	nop
     8f2:	0001                	nop
     8f4:	0001                	nop
     8f6:	0001                	nop
     8f8:	0001                	nop
     8fa:	0001                	nop
     8fc:	0001                	nop
     8fe:	0001                	nop
     900:	0001                	nop
     902:	0001                	nop
     904:	0001                	nop
     906:	0001                	nop
     908:	0001                	nop
     90a:	0001                	nop
     90c:	0001                	nop
     90e:	0001                	nop
     910:	0001                	nop
     912:	0001                	nop
     914:	0001                	nop
     916:	0001                	nop
     918:	0001                	nop
     91a:	0001                	nop
     91c:	0001                	nop
     91e:	0001                	nop
     920:	0001                	nop
     922:	0001                	nop
     924:	0001                	nop
     926:	0001                	nop
     928:	0001                	nop
     92a:	0001                	nop
     92c:	0001                	nop
     92e:	0001                	nop
     930:	f931                	bnez	a0,884 <inst_24+0x8>
     932:	00210113          	add	sp,sp,2
     936:	0060006f          	j	93c <inst_24+0xc0>
     93a:	010d                	add	sp,sp,3
     93c:	0620a023          	sw	sp,96(ra)

00000940 <inst_25>:
     940:	00080537          	lui	a0,0x80
     944:	a819                	j	95a <inst_25+0x1a>
     946:	4101                	li	sp,0
     948:	00110113          	add	sp,sp,1
     94c:	01a0006f          	j	966 <inst_25+0x26>
     950:	0001                	nop
     952:	0001                	nop
     954:	0001                	nop
     956:	0001                	nop
     958:	0001                	nop
     95a:	f57d                	bnez	a0,948 <inst_25+0x8>
     95c:	00210113          	add	sp,sp,2
     960:	0060006f          	j	966 <inst_25+0x26>
     964:	010d                	add	sp,sp,3
     966:	0620a223          	sw	sp,100(ra)

0000096a <inst_26>:
     96a:	00100537          	lui	a0,0x100
     96e:	a821                	j	986 <inst_26+0x1c>
     970:	4101                	li	sp,0
     972:	00110113          	add	sp,sp,1
     976:	01c0006f          	j	992 <inst_26+0x28>
     97a:	0001                	nop
     97c:	0001                	nop
     97e:	0001                	nop
     980:	0001                	nop
     982:	0001                	nop
     984:	0001                	nop
     986:	f575                	bnez	a0,972 <inst_26+0x8>
     988:	00210113          	add	sp,sp,2
     98c:	0060006f          	j	992 <inst_26+0x28>
     990:	010d                	add	sp,sp,3
     992:	0620a423          	sw	sp,104(ra)

00000996 <inst_27>:
     996:	00200537          	lui	a0,0x200
     99a:	a031                	j	9a6 <inst_27+0x10>
     99c:	4101                	li	sp,0
     99e:	00110113          	add	sp,sp,1
     9a2:	0100006f          	j	9b2 <inst_27+0x1c>
     9a6:	fd65                	bnez	a0,99e <inst_27+0x8>
     9a8:	00210113          	add	sp,sp,2
     9ac:	0060006f          	j	9b2 <inst_27+0x1c>
     9b0:	010d                	add	sp,sp,3
     9b2:	0620a623          	sw	sp,108(ra)

000009b6 <inst_28>:
     9b6:	00400537          	lui	a0,0x400
     9ba:	a031                	j	9c6 <inst_28+0x10>
     9bc:	4101                	li	sp,0
     9be:	00110113          	add	sp,sp,1
     9c2:	0140006f          	j	9d6 <inst_28+0x20>
     9c6:	e519                	bnez	a0,9d4 <inst_28+0x1e>
     9c8:	00210113          	add	sp,sp,2
     9cc:	00a0006f          	j	9d6 <inst_28+0x20>
     9d0:	0001                	nop
     9d2:	0001                	nop
     9d4:	010d                	add	sp,sp,3
     9d6:	0620a823          	sw	sp,112(ra)

000009da <inst_29>:
     9da:	00800537          	lui	a0,0x800
     9de:	a809                	j	9f0 <inst_29+0x16>
     9e0:	4101                	li	sp,0
     9e2:	00110113          	add	sp,sp,1
     9e6:	0160006f          	j	9fc <inst_29+0x22>
     9ea:	0001                	nop
     9ec:	0001                	nop
     9ee:	0001                	nop
     9f0:	f96d                	bnez	a0,9e2 <inst_29+0x8>
     9f2:	00210113          	add	sp,sp,2
     9f6:	0060006f          	j	9fc <inst_29+0x22>
     9fa:	010d                	add	sp,sp,3
     9fc:	0620aa23          	sw	sp,116(ra)

00000a00 <inst_30>:
     a00:	01000537          	lui	a0,0x1000
     a04:	a031                	j	a10 <inst_30+0x10>
     a06:	4101                	li	sp,0
     a08:	00110113          	add	sp,sp,1
     a0c:	0140006f          	j	a20 <inst_30+0x20>
     a10:	e519                	bnez	a0,a1e <inst_30+0x1e>
     a12:	00210113          	add	sp,sp,2
     a16:	00a0006f          	j	a20 <inst_30+0x20>
     a1a:	0001                	nop
     a1c:	0001                	nop
     a1e:	010d                	add	sp,sp,3
     a20:	0620ac23          	sw	sp,120(ra)

00000a24 <inst_31>:
     a24:	02000537          	lui	a0,0x2000
     a28:	a845                	j	ad8 <inst_31+0xb4>
     a2a:	4101                	li	sp,0
     a2c:	00110113          	add	sp,sp,1
     a30:	0b40006f          	j	ae4 <inst_31+0xc0>
     a34:	0001                	nop
     a36:	0001                	nop
     a38:	0001                	nop
     a3a:	0001                	nop
     a3c:	0001                	nop
     a3e:	0001                	nop
     a40:	0001                	nop
     a42:	0001                	nop
     a44:	0001                	nop
     a46:	0001                	nop
     a48:	0001                	nop
     a4a:	0001                	nop
     a4c:	0001                	nop
     a4e:	0001                	nop
     a50:	0001                	nop
     a52:	0001                	nop
     a54:	0001                	nop
     a56:	0001                	nop
     a58:	0001                	nop
     a5a:	0001                	nop
     a5c:	0001                	nop
     a5e:	0001                	nop
     a60:	0001                	nop
     a62:	0001                	nop
     a64:	0001                	nop
     a66:	0001                	nop
     a68:	0001                	nop
     a6a:	0001                	nop
     a6c:	0001                	nop
     a6e:	0001                	nop
     a70:	0001                	nop
     a72:	0001                	nop
     a74:	0001                	nop
     a76:	0001                	nop
     a78:	0001                	nop
     a7a:	0001                	nop
     a7c:	0001                	nop
     a7e:	0001                	nop
     a80:	0001                	nop
     a82:	0001                	nop
     a84:	0001                	nop
     a86:	0001                	nop
     a88:	0001                	nop
     a8a:	0001                	nop
     a8c:	0001                	nop
     a8e:	0001                	nop
     a90:	0001                	nop
     a92:	0001                	nop
     a94:	0001                	nop
     a96:	0001                	nop
     a98:	0001                	nop
     a9a:	0001                	nop
     a9c:	0001                	nop
     a9e:	0001                	nop
     aa0:	0001                	nop
     aa2:	0001                	nop
     aa4:	0001                	nop
     aa6:	0001                	nop
     aa8:	0001                	nop
     aaa:	0001                	nop
     aac:	0001                	nop
     aae:	0001                	nop
     ab0:	0001                	nop
     ab2:	0001                	nop
     ab4:	0001                	nop
     ab6:	0001                	nop
     ab8:	0001                	nop
     aba:	0001                	nop
     abc:	0001                	nop
     abe:	0001                	nop
     ac0:	0001                	nop
     ac2:	0001                	nop
     ac4:	0001                	nop
     ac6:	0001                	nop
     ac8:	0001                	nop
     aca:	0001                	nop
     acc:	0001                	nop
     ace:	0001                	nop
     ad0:	0001                	nop
     ad2:	0001                	nop
     ad4:	0001                	nop
     ad6:	0001                	nop
     ad8:	f931                	bnez	a0,a2c <inst_31+0x8>
     ada:	00210113          	add	sp,sp,2
     ade:	0060006f          	j	ae4 <inst_31+0xc0>
     ae2:	010d                	add	sp,sp,3
     ae4:	0620ae23          	sw	sp,124(ra)

00000ae8 <inst_32>:
     ae8:	04000537          	lui	a0,0x4000
     aec:	a031                	j	af8 <inst_32+0x10>
     aee:	4101                	li	sp,0
     af0:	00110113          	add	sp,sp,1
     af4:	0100006f          	j	b04 <inst_32+0x1c>
     af8:	fd65                	bnez	a0,af0 <inst_32+0x8>
     afa:	00210113          	add	sp,sp,2
     afe:	0060006f          	j	b04 <inst_32+0x1c>
     b02:	010d                	add	sp,sp,3
     b04:	0820a023          	sw	sp,128(ra)

00000b08 <inst_33>:
     b08:	08000537          	lui	a0,0x8000
     b0c:	a039                	j	b1a <inst_33+0x12>
     b0e:	4101                	li	sp,0
     b10:	00110113          	add	sp,sp,1
     b14:	0120006f          	j	b26 <inst_33+0x1e>
     b18:	0001                	nop
     b1a:	f97d                	bnez	a0,b10 <inst_33+0x8>
     b1c:	00210113          	add	sp,sp,2
     b20:	0060006f          	j	b26 <inst_33+0x1e>
     b24:	010d                	add	sp,sp,3
     b26:	0820a223          	sw	sp,132(ra)

00000b2a <inst_34>:
     b2a:	10000537          	lui	a0,0x10000
     b2e:	a031                	j	b3a <inst_34+0x10>
     b30:	4101                	li	sp,0
     b32:	00110113          	add	sp,sp,1
     b36:	0160006f          	j	b4c <inst_34+0x22>
     b3a:	e901                	bnez	a0,b4a <inst_34+0x20>
     b3c:	00210113          	add	sp,sp,2
     b40:	00c0006f          	j	b4c <inst_34+0x22>
     b44:	0001                	nop
     b46:	0001                	nop
     b48:	0001                	nop
     b4a:	010d                	add	sp,sp,3
     b4c:	0820a423          	sw	sp,136(ra)

00000b50 <inst_35>:
     b50:	20000537          	lui	a0,0x20000
     b54:	a031                	j	b60 <inst_35+0x10>
     b56:	4101                	li	sp,0
     b58:	00110113          	add	sp,sp,1
     b5c:	0100006f          	j	b6c <inst_35+0x1c>
     b60:	fd65                	bnez	a0,b58 <inst_35+0x8>
     b62:	00210113          	add	sp,sp,2
     b66:	0060006f          	j	b6c <inst_35+0x1c>
     b6a:	010d                	add	sp,sp,3
     b6c:	0820a623          	sw	sp,140(ra)

00000b70 <inst_36>:
     b70:	40000537          	lui	a0,0x40000
     b74:	a031                	j	b80 <inst_36+0x10>
     b76:	4101                	li	sp,0
     b78:	00110113          	add	sp,sp,1
     b7c:	0b00006f          	j	c2c <inst_36+0xbc>
     b80:	e54d                	bnez	a0,c2a <inst_36+0xba>
     b82:	00210113          	add	sp,sp,2
     b86:	0a60006f          	j	c2c <inst_36+0xbc>
     b8a:	0001                	nop
     b8c:	0001                	nop
     b8e:	0001                	nop
     b90:	0001                	nop
     b92:	0001                	nop
     b94:	0001                	nop
     b96:	0001                	nop
     b98:	0001                	nop
     b9a:	0001                	nop
     b9c:	0001                	nop
     b9e:	0001                	nop
     ba0:	0001                	nop
     ba2:	0001                	nop
     ba4:	0001                	nop
     ba6:	0001                	nop
     ba8:	0001                	nop
     baa:	0001                	nop
     bac:	0001                	nop
     bae:	0001                	nop
     bb0:	0001                	nop
     bb2:	0001                	nop
     bb4:	0001                	nop
     bb6:	0001                	nop
     bb8:	0001                	nop
     bba:	0001                	nop
     bbc:	0001                	nop
     bbe:	0001                	nop
     bc0:	0001                	nop
     bc2:	0001                	nop
     bc4:	0001                	nop
     bc6:	0001                	nop
     bc8:	0001                	nop
     bca:	0001                	nop
     bcc:	0001                	nop
     bce:	0001                	nop
     bd0:	0001                	nop
     bd2:	0001                	nop
     bd4:	0001                	nop
     bd6:	0001                	nop
     bd8:	0001                	nop
     bda:	0001                	nop
     bdc:	0001                	nop
     bde:	0001                	nop
     be0:	0001                	nop
     be2:	0001                	nop
     be4:	0001                	nop
     be6:	0001                	nop
     be8:	0001                	nop
     bea:	0001                	nop
     bec:	0001                	nop
     bee:	0001                	nop
     bf0:	0001                	nop
     bf2:	0001                	nop
     bf4:	0001                	nop
     bf6:	0001                	nop
     bf8:	0001                	nop
     bfa:	0001                	nop
     bfc:	0001                	nop
     bfe:	0001                	nop
     c00:	0001                	nop
     c02:	0001                	nop
     c04:	0001                	nop
     c06:	0001                	nop
     c08:	0001                	nop
     c0a:	0001                	nop
     c0c:	0001                	nop
     c0e:	0001                	nop
     c10:	0001                	nop
     c12:	0001                	nop
     c14:	0001                	nop
     c16:	0001                	nop
     c18:	0001                	nop
     c1a:	0001                	nop
     c1c:	0001                	nop
     c1e:	0001                	nop
     c20:	0001                	nop
     c22:	0001                	nop
     c24:	0001                	nop
     c26:	0001                	nop
     c28:	0001                	nop
     c2a:	010d                	add	sp,sp,3
     c2c:	0820a823          	sw	sp,144(ra)

00000c30 <inst_37>:
     c30:	ffe00513          	li	a0,-2
     c34:	a031                	j	c40 <inst_37+0x10>
     c36:	4101                	li	sp,0
     c38:	00110113          	add	sp,sp,1
     c3c:	0100006f          	j	c4c <inst_37+0x1c>
     c40:	fd65                	bnez	a0,c38 <inst_37+0x8>
     c42:	00210113          	add	sp,sp,2
     c46:	0060006f          	j	c4c <inst_37+0x1c>
     c4a:	010d                	add	sp,sp,3
     c4c:	0820aa23          	sw	sp,148(ra)

00000c50 <inst_38>:
     c50:	ffd00513          	li	a0,-3
     c54:	a031                	j	c60 <inst_38+0x10>
     c56:	4101                	li	sp,0
     c58:	00110113          	add	sp,sp,1
     c5c:	0180006f          	j	c74 <inst_38+0x24>
     c60:	e909                	bnez	a0,c72 <inst_38+0x22>
     c62:	00210113          	add	sp,sp,2
     c66:	00e0006f          	j	c74 <inst_38+0x24>
     c6a:	0001                	nop
     c6c:	0001                	nop
     c6e:	0001                	nop
     c70:	0001                	nop
     c72:	010d                	add	sp,sp,3
     c74:	0820ac23          	sw	sp,152(ra)

00000c78 <inst_39>:
     c78:	ff700513          	li	a0,-9
     c7c:	a01d                	j	ca2 <inst_39+0x2a>
     c7e:	4101                	li	sp,0
     c80:	00110113          	add	sp,sp,1
     c84:	02a0006f          	j	cae <inst_39+0x36>
     c88:	0001                	nop
     c8a:	0001                	nop
     c8c:	0001                	nop
     c8e:	0001                	nop
     c90:	0001                	nop
     c92:	0001                	nop
     c94:	0001                	nop
     c96:	0001                	nop
     c98:	0001                	nop
     c9a:	0001                	nop
     c9c:	0001                	nop
     c9e:	0001                	nop
     ca0:	0001                	nop
     ca2:	fd79                	bnez	a0,c80 <inst_39+0x8>
     ca4:	00210113          	add	sp,sp,2
     ca8:	0060006f          	j	cae <inst_39+0x36>
     cac:	010d                	add	sp,sp,3
     cae:	0820ae23          	sw	sp,156(ra)

00000cb2 <inst_40>:
     cb2:	fef00513          	li	a0,-17
     cb6:	a031                	j	cc2 <inst_40+0x10>
     cb8:	4101                	li	sp,0
     cba:	00110113          	add	sp,sp,1
     cbe:	0100006f          	j	cce <inst_40+0x1c>
     cc2:	e509                	bnez	a0,ccc <inst_40+0x1a>
     cc4:	00210113          	add	sp,sp,2
     cc8:	0060006f          	j	cce <inst_40+0x1c>
     ccc:	010d                	add	sp,sp,3
     cce:	0a20a023          	sw	sp,160(ra)

00000cd2 <inst_41>:
     cd2:	fdf00513          	li	a0,-33
     cd6:	a051                	j	d5a <inst_41+0x88>
     cd8:	4101                	li	sp,0
     cda:	00110113          	add	sp,sp,1
     cde:	0880006f          	j	d66 <inst_41+0x94>
     ce2:	0001                	nop
     ce4:	0001                	nop
     ce6:	0001                	nop
     ce8:	0001                	nop
     cea:	0001                	nop
     cec:	0001                	nop
     cee:	0001                	nop
     cf0:	0001                	nop
     cf2:	0001                	nop
     cf4:	0001                	nop
     cf6:	0001                	nop
     cf8:	0001                	nop
     cfa:	0001                	nop
     cfc:	0001                	nop
     cfe:	0001                	nop
     d00:	0001                	nop
     d02:	0001                	nop
     d04:	0001                	nop
     d06:	0001                	nop
     d08:	0001                	nop
     d0a:	0001                	nop
     d0c:	0001                	nop
     d0e:	0001                	nop
     d10:	0001                	nop
     d12:	0001                	nop
     d14:	0001                	nop
     d16:	0001                	nop
     d18:	0001                	nop
     d1a:	0001                	nop
     d1c:	0001                	nop
     d1e:	0001                	nop
     d20:	0001                	nop
     d22:	0001                	nop
     d24:	0001                	nop
     d26:	0001                	nop
     d28:	0001                	nop
     d2a:	0001                	nop
     d2c:	0001                	nop
     d2e:	0001                	nop
     d30:	0001                	nop
     d32:	0001                	nop
     d34:	0001                	nop
     d36:	0001                	nop
     d38:	0001                	nop
     d3a:	0001                	nop
     d3c:	0001                	nop
     d3e:	0001                	nop
     d40:	0001                	nop
     d42:	0001                	nop
     d44:	0001                	nop
     d46:	0001                	nop
     d48:	0001                	nop
     d4a:	0001                	nop
     d4c:	0001                	nop
     d4e:	0001                	nop
     d50:	0001                	nop
     d52:	0001                	nop
     d54:	0001                	nop
     d56:	0001                	nop
     d58:	0001                	nop
     d5a:	f141                	bnez	a0,cda <inst_41+0x8>
     d5c:	00210113          	add	sp,sp,2
     d60:	0060006f          	j	d66 <inst_41+0x94>
     d64:	010d                	add	sp,sp,3
     d66:	0a20a223          	sw	sp,164(ra)

00000d6a <inst_42>:
     d6a:	fbf00513          	li	a0,-65
     d6e:	a031                	j	d7a <inst_42+0x10>
     d70:	4101                	li	sp,0
     d72:	00110113          	add	sp,sp,1
     d76:	0100006f          	j	d86 <inst_42+0x1c>
     d7a:	fd65                	bnez	a0,d72 <inst_42+0x8>
     d7c:	00210113          	add	sp,sp,2
     d80:	0060006f          	j	d86 <inst_42+0x1c>
     d84:	010d                	add	sp,sp,3
     d86:	0a20a423          	sw	sp,168(ra)

00000d8a <inst_43>:
     d8a:	f7f00513          	li	a0,-129
     d8e:	a031                	j	d9a <inst_43+0x10>
     d90:	4101                	li	sp,0
     d92:	00110113          	add	sp,sp,1
     d96:	0100006f          	j	da6 <inst_43+0x1c>
     d9a:	fd65                	bnez	a0,d92 <inst_43+0x8>
     d9c:	00210113          	add	sp,sp,2
     da0:	0060006f          	j	da6 <inst_43+0x1c>
     da4:	010d                	add	sp,sp,3
     da6:	0a20a623          	sw	sp,172(ra)

00000daa <inst_44>:
     daa:	eff00513          	li	a0,-257
     dae:	a821                	j	dc6 <inst_44+0x1c>
     db0:	4101                	li	sp,0
     db2:	00110113          	add	sp,sp,1
     db6:	01c0006f          	j	dd2 <inst_44+0x28>
     dba:	0001                	nop
     dbc:	0001                	nop
     dbe:	0001                	nop
     dc0:	0001                	nop
     dc2:	0001                	nop
     dc4:	0001                	nop
     dc6:	f575                	bnez	a0,db2 <inst_44+0x8>
     dc8:	00210113          	add	sp,sp,2
     dcc:	0060006f          	j	dd2 <inst_44+0x28>
     dd0:	010d                	add	sp,sp,3
     dd2:	0a20a823          	sw	sp,176(ra)

00000dd6 <inst_45>:
     dd6:	dff00513          	li	a0,-513
     dda:	a059                	j	e60 <inst_45+0x8a>
     ddc:	4101                	li	sp,0
     dde:	00110113          	add	sp,sp,1
     de2:	08a0006f          	j	e6c <inst_45+0x96>
     de6:	0001                	nop
     de8:	0001                	nop
     dea:	0001                	nop
     dec:	0001                	nop
     dee:	0001                	nop
     df0:	0001                	nop
     df2:	0001                	nop
     df4:	0001                	nop
     df6:	0001                	nop
     df8:	0001                	nop
     dfa:	0001                	nop
     dfc:	0001                	nop
     dfe:	0001                	nop
     e00:	0001                	nop
     e02:	0001                	nop
     e04:	0001                	nop
     e06:	0001                	nop
     e08:	0001                	nop
     e0a:	0001                	nop
     e0c:	0001                	nop
     e0e:	0001                	nop
     e10:	0001                	nop
     e12:	0001                	nop
     e14:	0001                	nop
     e16:	0001                	nop
     e18:	0001                	nop
     e1a:	0001                	nop
     e1c:	0001                	nop
     e1e:	0001                	nop
     e20:	0001                	nop
     e22:	0001                	nop
     e24:	0001                	nop
     e26:	0001                	nop
     e28:	0001                	nop
     e2a:	0001                	nop
     e2c:	0001                	nop
     e2e:	0001                	nop
     e30:	0001                	nop
     e32:	0001                	nop
     e34:	0001                	nop
     e36:	0001                	nop
     e38:	0001                	nop
     e3a:	0001                	nop
     e3c:	0001                	nop
     e3e:	0001                	nop
     e40:	0001                	nop
     e42:	0001                	nop
     e44:	0001                	nop
     e46:	0001                	nop
     e48:	0001                	nop
     e4a:	0001                	nop
     e4c:	0001                	nop
     e4e:	0001                	nop
     e50:	0001                	nop
     e52:	0001                	nop
     e54:	0001                	nop
     e56:	0001                	nop
     e58:	0001                	nop
     e5a:	0001                	nop
     e5c:	0001                	nop
     e5e:	0001                	nop
     e60:	fd3d                	bnez	a0,dde <inst_45+0x8>
     e62:	00210113          	add	sp,sp,2
     e66:	0060006f          	j	e6c <inst_45+0x96>
     e6a:	010d                	add	sp,sp,3
     e6c:	0a20aa23          	sw	sp,180(ra)

00000e70 <inst_46>:
     e70:	bff00513          	li	a0,-1025
     e74:	a031                	j	e80 <inst_46+0x10>
     e76:	4101                	li	sp,0
     e78:	00110113          	add	sp,sp,1
     e7c:	0180006f          	j	e94 <inst_46+0x24>
     e80:	e909                	bnez	a0,e92 <inst_46+0x22>
     e82:	00210113          	add	sp,sp,2
     e86:	00e0006f          	j	e94 <inst_46+0x24>
     e8a:	0001                	nop
     e8c:	0001                	nop
     e8e:	0001                	nop
     e90:	0001                	nop
     e92:	010d                	add	sp,sp,3
     e94:	0a20ac23          	sw	sp,184(ra)

00000e98 <inst_47>:
     e98:	fffff537          	lui	a0,0xfffff
     e9c:	7ff50513          	add	a0,a0,2047 # fffff7ff <_end+0xffffd68f>
     ea0:	a031                	j	eac <inst_47+0x14>
     ea2:	4101                	li	sp,0
     ea4:	00110113          	add	sp,sp,1
     ea8:	0100006f          	j	eb8 <inst_47+0x20>
     eac:	e509                	bnez	a0,eb6 <inst_47+0x1e>
     eae:	00210113          	add	sp,sp,2
     eb2:	0060006f          	j	eb8 <inst_47+0x20>
     eb6:	010d                	add	sp,sp,3
     eb8:	0a20ae23          	sw	sp,188(ra)

00000ebc <inst_48>:
     ebc:	fffff537          	lui	a0,0xfffff
     ec0:	fff50513          	add	a0,a0,-1 # ffffefff <_end+0xffffce8f>
     ec4:	a801                	j	ed4 <inst_48+0x18>
     ec6:	4101                	li	sp,0
     ec8:	00110113          	add	sp,sp,1
     ecc:	0140006f          	j	ee0 <inst_48+0x24>
     ed0:	0001                	nop
     ed2:	0001                	nop
     ed4:	f975                	bnez	a0,ec8 <inst_48+0xc>
     ed6:	00210113          	add	sp,sp,2
     eda:	0060006f          	j	ee0 <inst_48+0x24>
     ede:	010d                	add	sp,sp,3
     ee0:	0c20a023          	sw	sp,192(ra)

00000ee4 <inst_49>:
     ee4:	ffffe537          	lui	a0,0xffffe
     ee8:	fff50513          	add	a0,a0,-1 # ffffdfff <_end+0xffffbe8f>
     eec:	a809                	j	efe <inst_49+0x1a>
     eee:	4101                	li	sp,0
     ef0:	00110113          	add	sp,sp,1
     ef4:	0160006f          	j	f0a <inst_49+0x26>
     ef8:	0001                	nop
     efa:	0001                	nop
     efc:	0001                	nop
     efe:	f96d                	bnez	a0,ef0 <inst_49+0xc>
     f00:	00210113          	add	sp,sp,2
     f04:	0060006f          	j	f0a <inst_49+0x26>
     f08:	010d                	add	sp,sp,3
     f0a:	0c20a223          	sw	sp,196(ra)

00000f0e <inst_50>:
     f0e:	ffffc537          	lui	a0,0xffffc
     f12:	fff50513          	add	a0,a0,-1 # ffffbfff <_end+0xffff9e8f>
     f16:	a01d                	j	f3c <inst_50+0x2e>
     f18:	4101                	li	sp,0
     f1a:	00110113          	add	sp,sp,1
     f1e:	02a0006f          	j	f48 <inst_50+0x3a>
     f22:	0001                	nop
     f24:	0001                	nop
     f26:	0001                	nop
     f28:	0001                	nop
     f2a:	0001                	nop
     f2c:	0001                	nop
     f2e:	0001                	nop
     f30:	0001                	nop
     f32:	0001                	nop
     f34:	0001                	nop
     f36:	0001                	nop
     f38:	0001                	nop
     f3a:	0001                	nop
     f3c:	fd79                	bnez	a0,f1a <inst_50+0xc>
     f3e:	00210113          	add	sp,sp,2
     f42:	0060006f          	j	f48 <inst_50+0x3a>
     f46:	010d                	add	sp,sp,3
     f48:	0c20a423          	sw	sp,200(ra)

00000f4c <inst_51>:
     f4c:	ffff8537          	lui	a0,0xffff8
     f50:	fff50513          	add	a0,a0,-1 # ffff7fff <_end+0xffff5e8f>
     f54:	a031                	j	f60 <inst_51+0x14>
     f56:	4101                	li	sp,0
     f58:	00110113          	add	sp,sp,1
     f5c:	0120006f          	j	f6e <inst_51+0x22>
     f60:	e511                	bnez	a0,f6c <inst_51+0x20>
     f62:	00210113          	add	sp,sp,2
     f66:	0080006f          	j	f6e <inst_51+0x22>
     f6a:	0001                	nop
     f6c:	010d                	add	sp,sp,3
     f6e:	0c20a623          	sw	sp,204(ra)

00000f72 <inst_52>:
     f72:	ffff0537          	lui	a0,0xffff0
     f76:	fff50513          	add	a0,a0,-1 # fffeffff <_end+0xfffede8f>
     f7a:	a821                	j	f92 <inst_52+0x20>
     f7c:	4101                	li	sp,0
     f7e:	00110113          	add	sp,sp,1
     f82:	01c0006f          	j	f9e <inst_52+0x2c>
     f86:	0001                	nop
     f88:	0001                	nop
     f8a:	0001                	nop
     f8c:	0001                	nop
     f8e:	0001                	nop
     f90:	0001                	nop
     f92:	f575                	bnez	a0,f7e <inst_52+0xc>
     f94:	00210113          	add	sp,sp,2
     f98:	0060006f          	j	f9e <inst_52+0x2c>
     f9c:	010d                	add	sp,sp,3
     f9e:	0c20a823          	sw	sp,208(ra)

00000fa2 <inst_53>:
     fa2:	fffe0537          	lui	a0,0xfffe0
     fa6:	fff50513          	add	a0,a0,-1 # fffdffff <_end+0xfffdde8f>
     faa:	a099                	j	ff0 <inst_53+0x4e>
     fac:	4101                	li	sp,0
     fae:	00110113          	add	sp,sp,1
     fb2:	04a0006f          	j	ffc <inst_53+0x5a>
     fb6:	0001                	nop
     fb8:	0001                	nop
     fba:	0001                	nop
     fbc:	0001                	nop
     fbe:	0001                	nop
     fc0:	0001                	nop
     fc2:	0001                	nop
     fc4:	0001                	nop
     fc6:	0001                	nop
     fc8:	0001                	nop
     fca:	0001                	nop
     fcc:	0001                	nop
     fce:	0001                	nop
     fd0:	0001                	nop
     fd2:	0001                	nop
     fd4:	0001                	nop
     fd6:	0001                	nop
     fd8:	0001                	nop
     fda:	0001                	nop
     fdc:	0001                	nop
     fde:	0001                	nop
     fe0:	0001                	nop
     fe2:	0001                	nop
     fe4:	0001                	nop
     fe6:	0001                	nop
     fe8:	0001                	nop
     fea:	0001                	nop
     fec:	0001                	nop
     fee:	0001                	nop
     ff0:	fd5d                	bnez	a0,fae <inst_53+0xc>
     ff2:	00210113          	add	sp,sp,2
     ff6:	0060006f          	j	ffc <inst_53+0x5a>
     ffa:	010d                	add	sp,sp,3
     ffc:	0c20aa23          	sw	sp,212(ra)

00001000 <inst_54>:
    1000:	fffc0537          	lui	a0,0xfffc0
    1004:	fff50513          	add	a0,a0,-1 # fffbffff <_end+0xfffbde8f>
    1008:	a031                	j	1014 <inst_54+0x14>
    100a:	4101                	li	sp,0
    100c:	00110113          	add	sp,sp,1
    1010:	0460006f          	j	1056 <inst_54+0x56>
    1014:	e121                	bnez	a0,1054 <inst_54+0x54>
    1016:	00210113          	add	sp,sp,2
    101a:	03c0006f          	j	1056 <inst_54+0x56>
    101e:	0001                	nop
    1020:	0001                	nop
    1022:	0001                	nop
    1024:	0001                	nop
    1026:	0001                	nop
    1028:	0001                	nop
    102a:	0001                	nop
    102c:	0001                	nop
    102e:	0001                	nop
    1030:	0001                	nop
    1032:	0001                	nop
    1034:	0001                	nop
    1036:	0001                	nop
    1038:	0001                	nop
    103a:	0001                	nop
    103c:	0001                	nop
    103e:	0001                	nop
    1040:	0001                	nop
    1042:	0001                	nop
    1044:	0001                	nop
    1046:	0001                	nop
    1048:	0001                	nop
    104a:	0001                	nop
    104c:	0001                	nop
    104e:	0001                	nop
    1050:	0001                	nop
    1052:	0001                	nop
    1054:	010d                	add	sp,sp,3
    1056:	0c20ac23          	sw	sp,216(ra)

0000105a <inst_55>:
    105a:	fff80537          	lui	a0,0xfff80
    105e:	fff50513          	add	a0,a0,-1 # fff7ffff <_end+0xfff7de8f>
    1062:	a031                	j	106e <inst_55+0x14>
    1064:	4101                	li	sp,0
    1066:	00110113          	add	sp,sp,1
    106a:	0100006f          	j	107a <inst_55+0x20>
    106e:	e509                	bnez	a0,1078 <inst_55+0x1e>
    1070:	00210113          	add	sp,sp,2
    1074:	0060006f          	j	107a <inst_55+0x20>
    1078:	010d                	add	sp,sp,3
    107a:	0c20ae23          	sw	sp,220(ra)

0000107e <inst_56>:
    107e:	ff800537          	lui	a0,0xff800
    1082:	fff50513          	add	a0,a0,-1 # ff7fffff <_end+0xff7fde8f>
    1086:	a051                	j	110a <inst_56+0x8c>
    1088:	4101                	li	sp,0
    108a:	00110113          	add	sp,sp,1
    108e:	0880006f          	j	1116 <inst_56+0x98>
    1092:	0001                	nop
    1094:	0001                	nop
    1096:	0001                	nop
    1098:	0001                	nop
    109a:	0001                	nop
    109c:	0001                	nop
    109e:	0001                	nop
    10a0:	0001                	nop
    10a2:	0001                	nop
    10a4:	0001                	nop
    10a6:	0001                	nop
    10a8:	0001                	nop
    10aa:	0001                	nop
    10ac:	0001                	nop
    10ae:	0001                	nop
    10b0:	0001                	nop
    10b2:	0001                	nop
    10b4:	0001                	nop
    10b6:	0001                	nop
    10b8:	0001                	nop
    10ba:	0001                	nop
    10bc:	0001                	nop
    10be:	0001                	nop
    10c0:	0001                	nop
    10c2:	0001                	nop
    10c4:	0001                	nop
    10c6:	0001                	nop
    10c8:	0001                	nop
    10ca:	0001                	nop
    10cc:	0001                	nop
    10ce:	0001                	nop
    10d0:	0001                	nop
    10d2:	0001                	nop
    10d4:	0001                	nop
    10d6:	0001                	nop
    10d8:	0001                	nop
    10da:	0001                	nop
    10dc:	0001                	nop
    10de:	0001                	nop
    10e0:	0001                	nop
    10e2:	0001                	nop
    10e4:	0001                	nop
    10e6:	0001                	nop
    10e8:	0001                	nop
    10ea:	0001                	nop
    10ec:	0001                	nop
    10ee:	0001                	nop
    10f0:	0001                	nop
    10f2:	0001                	nop
    10f4:	0001                	nop
    10f6:	0001                	nop
    10f8:	0001                	nop
    10fa:	0001                	nop
    10fc:	0001                	nop
    10fe:	0001                	nop
    1100:	0001                	nop
    1102:	0001                	nop
    1104:	0001                	nop
    1106:	0001                	nop
    1108:	0001                	nop
    110a:	f141                	bnez	a0,108a <inst_56+0xc>
    110c:	00210113          	add	sp,sp,2
    1110:	0060006f          	j	1116 <inst_56+0x98>
    1114:	010d                	add	sp,sp,3
    1116:	0e20a023          	sw	sp,224(ra)

0000111a <inst_57>:
    111a:	ff000537          	lui	a0,0xff000
    111e:	fff50513          	add	a0,a0,-1 # feffffff <_end+0xfeffde8f>
    1122:	a031                	j	112e <inst_57+0x14>
    1124:	4101                	li	sp,0
    1126:	00110113          	add	sp,sp,1
    112a:	0100006f          	j	113a <inst_57+0x20>
    112e:	e509                	bnez	a0,1138 <inst_57+0x1e>
    1130:	00210113          	add	sp,sp,2
    1134:	0060006f          	j	113a <inst_57+0x20>
    1138:	010d                	add	sp,sp,3
    113a:	0e20a223          	sw	sp,228(ra)

0000113e <inst_58>:
    113e:	fe000537          	lui	a0,0xfe000
    1142:	fff50513          	add	a0,a0,-1 # fdffffff <_end+0xfdffde8f>
    1146:	a821                	j	115e <inst_58+0x20>
    1148:	4101                	li	sp,0
    114a:	00110113          	add	sp,sp,1
    114e:	01c0006f          	j	116a <inst_58+0x2c>
    1152:	0001                	nop
    1154:	0001                	nop
    1156:	0001                	nop
    1158:	0001                	nop
    115a:	0001                	nop
    115c:	0001                	nop
    115e:	f575                	bnez	a0,114a <inst_58+0xc>
    1160:	00210113          	add	sp,sp,2
    1164:	0060006f          	j	116a <inst_58+0x2c>
    1168:	010d                	add	sp,sp,3
    116a:	0e20a423          	sw	sp,232(ra)

0000116e <inst_59>:
    116e:	fc000537          	lui	a0,0xfc000
    1172:	fff50513          	add	a0,a0,-1 # fbffffff <_end+0xfbffde8f>
    1176:	a031                	j	1182 <inst_59+0x14>
    1178:	4101                	li	sp,0
    117a:	00110113          	add	sp,sp,1
    117e:	0840006f          	j	1202 <inst_59+0x94>
    1182:	ed3d                	bnez	a0,1200 <inst_59+0x92>
    1184:	00210113          	add	sp,sp,2
    1188:	07a0006f          	j	1202 <inst_59+0x94>
    118c:	0001                	nop
    118e:	0001                	nop
    1190:	0001                	nop
    1192:	0001                	nop
    1194:	0001                	nop
    1196:	0001                	nop
    1198:	0001                	nop
    119a:	0001                	nop
    119c:	0001                	nop
    119e:	0001                	nop
    11a0:	0001                	nop
    11a2:	0001                	nop
    11a4:	0001                	nop
    11a6:	0001                	nop
    11a8:	0001                	nop
    11aa:	0001                	nop
    11ac:	0001                	nop
    11ae:	0001                	nop
    11b0:	0001                	nop
    11b2:	0001                	nop
    11b4:	0001                	nop
    11b6:	0001                	nop
    11b8:	0001                	nop
    11ba:	0001                	nop
    11bc:	0001                	nop
    11be:	0001                	nop
    11c0:	0001                	nop
    11c2:	0001                	nop
    11c4:	0001                	nop
    11c6:	0001                	nop
    11c8:	0001                	nop
    11ca:	0001                	nop
    11cc:	0001                	nop
    11ce:	0001                	nop
    11d0:	0001                	nop
    11d2:	0001                	nop
    11d4:	0001                	nop
    11d6:	0001                	nop
    11d8:	0001                	nop
    11da:	0001                	nop
    11dc:	0001                	nop
    11de:	0001                	nop
    11e0:	0001                	nop
    11e2:	0001                	nop
    11e4:	0001                	nop
    11e6:	0001                	nop
    11e8:	0001                	nop
    11ea:	0001                	nop
    11ec:	0001                	nop
    11ee:	0001                	nop
    11f0:	0001                	nop
    11f2:	0001                	nop
    11f4:	0001                	nop
    11f6:	0001                	nop
    11f8:	0001                	nop
    11fa:	0001                	nop
    11fc:	0001                	nop
    11fe:	0001                	nop
    1200:	010d                	add	sp,sp,3
    1202:	0e20a623          	sw	sp,236(ra)

00001206 <inst_60>:
    1206:	f8000537          	lui	a0,0xf8000
    120a:	fff50513          	add	a0,a0,-1 # f7ffffff <_end+0xf7ffde8f>
    120e:	a031                	j	121a <inst_60+0x14>
    1210:	4101                	li	sp,0
    1212:	00110113          	add	sp,sp,1
    1216:	0860006f          	j	129c <inst_60+0x96>
    121a:	e141                	bnez	a0,129a <inst_60+0x94>
    121c:	00210113          	add	sp,sp,2
    1220:	07c0006f          	j	129c <inst_60+0x96>
    1224:	0001                	nop
    1226:	0001                	nop
    1228:	0001                	nop
    122a:	0001                	nop
    122c:	0001                	nop
    122e:	0001                	nop
    1230:	0001                	nop
    1232:	0001                	nop
    1234:	0001                	nop
    1236:	0001                	nop
    1238:	0001                	nop
    123a:	0001                	nop
    123c:	0001                	nop
    123e:	0001                	nop
    1240:	0001                	nop
    1242:	0001                	nop
    1244:	0001                	nop
    1246:	0001                	nop
    1248:	0001                	nop
    124a:	0001                	nop
    124c:	0001                	nop
    124e:	0001                	nop
    1250:	0001                	nop
    1252:	0001                	nop
    1254:	0001                	nop
    1256:	0001                	nop
    1258:	0001                	nop
    125a:	0001                	nop
    125c:	0001                	nop
    125e:	0001                	nop
    1260:	0001                	nop
    1262:	0001                	nop
    1264:	0001                	nop
    1266:	0001                	nop
    1268:	0001                	nop
    126a:	0001                	nop
    126c:	0001                	nop
    126e:	0001                	nop
    1270:	0001                	nop
    1272:	0001                	nop
    1274:	0001                	nop
    1276:	0001                	nop
    1278:	0001                	nop
    127a:	0001                	nop
    127c:	0001                	nop
    127e:	0001                	nop
    1280:	0001                	nop
    1282:	0001                	nop
    1284:	0001                	nop
    1286:	0001                	nop
    1288:	0001                	nop
    128a:	0001                	nop
    128c:	0001                	nop
    128e:	0001                	nop
    1290:	0001                	nop
    1292:	0001                	nop
    1294:	0001                	nop
    1296:	0001                	nop
    1298:	0001                	nop
    129a:	010d                	add	sp,sp,3
    129c:	0e20a823          	sw	sp,240(ra)

000012a0 <inst_61>:
    12a0:	f0000537          	lui	a0,0xf0000
    12a4:	fff50513          	add	a0,a0,-1 # efffffff <_end+0xefffde8f>
    12a8:	a819                	j	12be <inst_61+0x1e>
    12aa:	4101                	li	sp,0
    12ac:	00110113          	add	sp,sp,1
    12b0:	01a0006f          	j	12ca <inst_61+0x2a>
    12b4:	0001                	nop
    12b6:	0001                	nop
    12b8:	0001                	nop
    12ba:	0001                	nop
    12bc:	0001                	nop
    12be:	f57d                	bnez	a0,12ac <inst_61+0xc>
    12c0:	00210113          	add	sp,sp,2
    12c4:	0060006f          	j	12ca <inst_61+0x2a>
    12c8:	010d                	add	sp,sp,3
    12ca:	0e20aa23          	sw	sp,244(ra)

000012ce <inst_62>:
    12ce:	e0000537          	lui	a0,0xe0000
    12d2:	fff50513          	add	a0,a0,-1 # dfffffff <_end+0xdfffde8f>
    12d6:	a809                	j	12e8 <inst_62+0x1a>
    12d8:	4101                	li	sp,0
    12da:	00110113          	add	sp,sp,1
    12de:	0160006f          	j	12f4 <inst_62+0x26>
    12e2:	0001                	nop
    12e4:	0001                	nop
    12e6:	0001                	nop
    12e8:	f96d                	bnez	a0,12da <inst_62+0xc>
    12ea:	00210113          	add	sp,sp,2
    12ee:	0060006f          	j	12f4 <inst_62+0x26>
    12f2:	010d                	add	sp,sp,3
    12f4:	0e20ac23          	sw	sp,248(ra)

000012f8 <inst_63>:
    12f8:	c0000537          	lui	a0,0xc0000
    12fc:	fff50513          	add	a0,a0,-1 # bfffffff <_end+0xbfffde8f>
    1300:	a809                	j	1312 <inst_63+0x1a>
    1302:	4101                	li	sp,0
    1304:	00110113          	add	sp,sp,1
    1308:	0160006f          	j	131e <inst_63+0x26>
    130c:	0001                	nop
    130e:	0001                	nop
    1310:	0001                	nop
    1312:	f96d                	bnez	a0,1304 <inst_63+0xc>
    1314:	00210113          	add	sp,sp,2
    1318:	0060006f          	j	131e <inst_63+0x26>
    131c:	010d                	add	sp,sp,3
    131e:	0e20ae23          	sw	sp,252(ra)

00001322 <inst_64>:
    1322:	55555537          	lui	a0,0x55555
    1326:	55550513          	add	a0,a0,1365 # 55555555 <_end+0x555533e5>
    132a:	a801                	j	133a <inst_64+0x18>
    132c:	4101                	li	sp,0
    132e:	00110113          	add	sp,sp,1
    1332:	0140006f          	j	1346 <inst_64+0x24>
    1336:	0001                	nop
    1338:	0001                	nop
    133a:	f975                	bnez	a0,132e <inst_64+0xc>
    133c:	00210113          	add	sp,sp,2
    1340:	0060006f          	j	1346 <inst_64+0x24>
    1344:	010d                	add	sp,sp,3
    1346:	1020a023          	sw	sp,256(ra)

0000134a <inst_65>:
    134a:	aaaab537          	lui	a0,0xaaaab
    134e:	aaa50513          	add	a0,a0,-1366 # aaaaaaaa <_end+0xaaaa893a>
    1352:	a031                	j	135e <inst_65+0x14>
    1354:	4101                	li	sp,0
    1356:	00110113          	add	sp,sp,1
    135a:	0860006f          	j	13e0 <inst_65+0x96>
    135e:	e141                	bnez	a0,13de <inst_65+0x94>
    1360:	00210113          	add	sp,sp,2
    1364:	07c0006f          	j	13e0 <inst_65+0x96>
    1368:	0001                	nop
    136a:	0001                	nop
    136c:	0001                	nop
    136e:	0001                	nop
    1370:	0001                	nop
    1372:	0001                	nop
    1374:	0001                	nop
    1376:	0001                	nop
    1378:	0001                	nop
    137a:	0001                	nop
    137c:	0001                	nop
    137e:	0001                	nop
    1380:	0001                	nop
    1382:	0001                	nop
    1384:	0001                	nop
    1386:	0001                	nop
    1388:	0001                	nop
    138a:	0001                	nop
    138c:	0001                	nop
    138e:	0001                	nop
    1390:	0001                	nop
    1392:	0001                	nop
    1394:	0001                	nop
    1396:	0001                	nop
    1398:	0001                	nop
    139a:	0001                	nop
    139c:	0001                	nop
    139e:	0001                	nop
    13a0:	0001                	nop
    13a2:	0001                	nop
    13a4:	0001                	nop
    13a6:	0001                	nop
    13a8:	0001                	nop
    13aa:	0001                	nop
    13ac:	0001                	nop
    13ae:	0001                	nop
    13b0:	0001                	nop
    13b2:	0001                	nop
    13b4:	0001                	nop
    13b6:	0001                	nop
    13b8:	0001                	nop
    13ba:	0001                	nop
    13bc:	0001                	nop
    13be:	0001                	nop
    13c0:	0001                	nop
    13c2:	0001                	nop
    13c4:	0001                	nop
    13c6:	0001                	nop
    13c8:	0001                	nop
    13ca:	0001                	nop
    13cc:	0001                	nop
    13ce:	0001                	nop
    13d0:	0001                	nop
    13d2:	0001                	nop
    13d4:	0001                	nop
    13d6:	0001                	nop
    13d8:	0001                	nop
    13da:	0001                	nop
    13dc:	0001                	nop
    13de:	010d                	add	sp,sp,3
    13e0:	1020a223          	sw	sp,260(ra)

000013e4 <inst_66>:
    13e4:	00300513          	li	a0,3
    13e8:	a811                	j	13fc <inst_66+0x18>
    13ea:	4101                	li	sp,0
    13ec:	00110113          	add	sp,sp,1
    13f0:	0180006f          	j	1408 <inst_66+0x24>
    13f4:	0001                	nop
    13f6:	0001                	nop
    13f8:	0001                	nop
    13fa:	0001                	nop
    13fc:	f965                	bnez	a0,13ec <inst_66+0x8>
    13fe:	00210113          	add	sp,sp,2
    1402:	0060006f          	j	1408 <inst_66+0x24>
    1406:	010d                	add	sp,sp,3
    1408:	1020a423          	sw	sp,264(ra)

0000140c <inst_67>:
    140c:	00500513          	li	a0,5
    1410:	a051                	j	1494 <inst_67+0x88>
    1412:	4101                	li	sp,0
    1414:	00110113          	add	sp,sp,1
    1418:	0880006f          	j	14a0 <inst_67+0x94>
    141c:	0001                	nop
    141e:	0001                	nop
    1420:	0001                	nop
    1422:	0001                	nop
    1424:	0001                	nop
    1426:	0001                	nop
    1428:	0001                	nop
    142a:	0001                	nop
    142c:	0001                	nop
    142e:	0001                	nop
    1430:	0001                	nop
    1432:	0001                	nop
    1434:	0001                	nop
    1436:	0001                	nop
    1438:	0001                	nop
    143a:	0001                	nop
    143c:	0001                	nop
    143e:	0001                	nop
    1440:	0001                	nop
    1442:	0001                	nop
    1444:	0001                	nop
    1446:	0001                	nop
    1448:	0001                	nop
    144a:	0001                	nop
    144c:	0001                	nop
    144e:	0001                	nop
    1450:	0001                	nop
    1452:	0001                	nop
    1454:	0001                	nop
    1456:	0001                	nop
    1458:	0001                	nop
    145a:	0001                	nop
    145c:	0001                	nop
    145e:	0001                	nop
    1460:	0001                	nop
    1462:	0001                	nop
    1464:	0001                	nop
    1466:	0001                	nop
    1468:	0001                	nop
    146a:	0001                	nop
    146c:	0001                	nop
    146e:	0001                	nop
    1470:	0001                	nop
    1472:	0001                	nop
    1474:	0001                	nop
    1476:	0001                	nop
    1478:	0001                	nop
    147a:	0001                	nop
    147c:	0001                	nop
    147e:	0001                	nop
    1480:	0001                	nop
    1482:	0001                	nop
    1484:	0001                	nop
    1486:	0001                	nop
    1488:	0001                	nop
    148a:	0001                	nop
    148c:	0001                	nop
    148e:	0001                	nop
    1490:	0001                	nop
    1492:	0001                	nop
    1494:	f141                	bnez	a0,1414 <inst_67+0x8>
    1496:	00210113          	add	sp,sp,2
    149a:	0060006f          	j	14a0 <inst_67+0x94>
    149e:	010d                	add	sp,sp,3
    14a0:	1020a623          	sw	sp,268(ra)

000014a4 <inst_68>:
    14a4:	66666537          	lui	a0,0x66666
    14a8:	66650513          	add	a0,a0,1638 # 66666666 <_end+0x666644f6>
    14ac:	a031                	j	14b8 <inst_68+0x14>
    14ae:	4101                	li	sp,0
    14b0:	00110113          	add	sp,sp,1
    14b4:	0180006f          	j	14cc <inst_68+0x28>
    14b8:	e909                	bnez	a0,14ca <inst_68+0x26>
    14ba:	00210113          	add	sp,sp,2
    14be:	00e0006f          	j	14cc <inst_68+0x28>
    14c2:	0001                	nop
    14c4:	0001                	nop
    14c6:	0001                	nop
    14c8:	0001                	nop
    14ca:	010d                	add	sp,sp,3
    14cc:	1020a823          	sw	sp,272(ra)

000014d0 <inst_69>:
    14d0:	ffff5537          	lui	a0,0xffff5
    14d4:	afc50513          	add	a0,a0,-1284 # ffff4afc <_end+0xffff298c>
    14d8:	a031                	j	14e4 <inst_69+0x14>
    14da:	4101                	li	sp,0
    14dc:	00110113          	add	sp,sp,1
    14e0:	0840006f          	j	1564 <inst_69+0x94>
    14e4:	ed3d                	bnez	a0,1562 <inst_69+0x92>
    14e6:	00210113          	add	sp,sp,2
    14ea:	07a0006f          	j	1564 <inst_69+0x94>
    14ee:	0001                	nop
    14f0:	0001                	nop
    14f2:	0001                	nop
    14f4:	0001                	nop
    14f6:	0001                	nop
    14f8:	0001                	nop
    14fa:	0001                	nop
    14fc:	0001                	nop
    14fe:	0001                	nop
    1500:	0001                	nop
    1502:	0001                	nop
    1504:	0001                	nop
    1506:	0001                	nop
    1508:	0001                	nop
    150a:	0001                	nop
    150c:	0001                	nop
    150e:	0001                	nop
    1510:	0001                	nop
    1512:	0001                	nop
    1514:	0001                	nop
    1516:	0001                	nop
    1518:	0001                	nop
    151a:	0001                	nop
    151c:	0001                	nop
    151e:	0001                	nop
    1520:	0001                	nop
    1522:	0001                	nop
    1524:	0001                	nop
    1526:	0001                	nop
    1528:	0001                	nop
    152a:	0001                	nop
    152c:	0001                	nop
    152e:	0001                	nop
    1530:	0001                	nop
    1532:	0001                	nop
    1534:	0001                	nop
    1536:	0001                	nop
    1538:	0001                	nop
    153a:	0001                	nop
    153c:	0001                	nop
    153e:	0001                	nop
    1540:	0001                	nop
    1542:	0001                	nop
    1544:	0001                	nop
    1546:	0001                	nop
    1548:	0001                	nop
    154a:	0001                	nop
    154c:	0001                	nop
    154e:	0001                	nop
    1550:	0001                	nop
    1552:	0001                	nop
    1554:	0001                	nop
    1556:	0001                	nop
    1558:	0001                	nop
    155a:	0001                	nop
    155c:	0001                	nop
    155e:	0001                	nop
    1560:	0001                	nop
    1562:	010d                	add	sp,sp,3
    1564:	1020aa23          	sw	sp,276(ra)

00001568 <inst_70>:
    1568:	0000b537          	lui	a0,0xb
    156c:	50550513          	add	a0,a0,1285 # b505 <_end+0x9395>
    1570:	a811                	j	1584 <inst_70+0x1c>
    1572:	4101                	li	sp,0
    1574:	00110113          	add	sp,sp,1
    1578:	0180006f          	j	1590 <inst_70+0x28>
    157c:	0001                	nop
    157e:	0001                	nop
    1580:	0001                	nop
    1582:	0001                	nop
    1584:	f965                	bnez	a0,1574 <inst_70+0xc>
    1586:	00210113          	add	sp,sp,2
    158a:	0060006f          	j	1590 <inst_70+0x28>
    158e:	010d                	add	sp,sp,3
    1590:	1020ac23          	sw	sp,280(ra)

00001594 <inst_71>:
    1594:	ffff5537          	lui	a0,0xffff5
    1598:	afd50513          	add	a0,a0,-1283 # ffff4afd <_end+0xffff298d>
    159c:	a809                	j	15ae <inst_71+0x1a>
    159e:	4101                	li	sp,0
    15a0:	00110113          	add	sp,sp,1
    15a4:	0160006f          	j	15ba <inst_71+0x26>
    15a8:	0001                	nop
    15aa:	0001                	nop
    15ac:	0001                	nop
    15ae:	f96d                	bnez	a0,15a0 <inst_71+0xc>
    15b0:	00210113          	add	sp,sp,2
    15b4:	0060006f          	j	15ba <inst_71+0x26>
    15b8:	010d                	add	sp,sp,3
    15ba:	1020ae23          	sw	sp,284(ra)

000015be <inst_72>:
    15be:	0000b537          	lui	a0,0xb
    15c2:	50450513          	add	a0,a0,1284 # b504 <_end+0x9394>
    15c6:	a031                	j	15d2 <inst_72+0x14>
    15c8:	4101                	li	sp,0
    15ca:	00110113          	add	sp,sp,1
    15ce:	0860006f          	j	1654 <inst_72+0x96>
    15d2:	e141                	bnez	a0,1652 <inst_72+0x94>
    15d4:	00210113          	add	sp,sp,2
    15d8:	07c0006f          	j	1654 <inst_72+0x96>
    15dc:	0001                	nop
    15de:	0001                	nop
    15e0:	0001                	nop
    15e2:	0001                	nop
    15e4:	0001                	nop
    15e6:	0001                	nop
    15e8:	0001                	nop
    15ea:	0001                	nop
    15ec:	0001                	nop
    15ee:	0001                	nop
    15f0:	0001                	nop
    15f2:	0001                	nop
    15f4:	0001                	nop
    15f6:	0001                	nop
    15f8:	0001                	nop
    15fa:	0001                	nop
    15fc:	0001                	nop
    15fe:	0001                	nop
    1600:	0001                	nop
    1602:	0001                	nop
    1604:	0001                	nop
    1606:	0001                	nop
    1608:	0001                	nop
    160a:	0001                	nop
    160c:	0001                	nop
    160e:	0001                	nop
    1610:	0001                	nop
    1612:	0001                	nop
    1614:	0001                	nop
    1616:	0001                	nop
    1618:	0001                	nop
    161a:	0001                	nop
    161c:	0001                	nop
    161e:	0001                	nop
    1620:	0001                	nop
    1622:	0001                	nop
    1624:	0001                	nop
    1626:	0001                	nop
    1628:	0001                	nop
    162a:	0001                	nop
    162c:	0001                	nop
    162e:	0001                	nop
    1630:	0001                	nop
    1632:	0001                	nop
    1634:	0001                	nop
    1636:	0001                	nop
    1638:	0001                	nop
    163a:	0001                	nop
    163c:	0001                	nop
    163e:	0001                	nop
    1640:	0001                	nop
    1642:	0001                	nop
    1644:	0001                	nop
    1646:	0001                	nop
    1648:	0001                	nop
    164a:	0001                	nop
    164c:	0001                	nop
    164e:	0001                	nop
    1650:	0001                	nop
    1652:	010d                	add	sp,sp,3
    1654:	1220a023          	sw	sp,288(ra)

00001658 <inst_73>:
    1658:	55555537          	lui	a0,0x55555
    165c:	55450513          	add	a0,a0,1364 # 55555554 <_end+0x555533e4>
    1660:	a031                	j	166c <inst_73+0x14>
    1662:	4101                	li	sp,0
    1664:	00110113          	add	sp,sp,1
    1668:	0100006f          	j	1678 <inst_73+0x20>
    166c:	e509                	bnez	a0,1676 <inst_73+0x1e>
    166e:	00210113          	add	sp,sp,2
    1672:	0060006f          	j	1678 <inst_73+0x20>
    1676:	010d                	add	sp,sp,3
    1678:	1220a223          	sw	sp,292(ra)

0000167c <inst_74>:
    167c:	fff00537          	lui	a0,0xfff00
    1680:	fff50513          	add	a0,a0,-1 # ffefffff <_end+0xffefde8f>
    1684:	a819                	j	169a <inst_74+0x1e>
    1686:	4101                	li	sp,0
    1688:	00110113          	add	sp,sp,1
    168c:	01a0006f          	j	16a6 <inst_74+0x2a>
    1690:	0001                	nop
    1692:	0001                	nop
    1694:	0001                	nop
    1696:	0001                	nop
    1698:	0001                	nop
    169a:	f57d                	bnez	a0,1688 <inst_74+0xc>
    169c:	00210113          	add	sp,sp,2
    16a0:	0060006f          	j	16a6 <inst_74+0x2a>
    16a4:	010d                	add	sp,sp,3
    16a6:	1220a423          	sw	sp,296(ra)

000016aa <inst_75>:
    16aa:	66666537          	lui	a0,0x66666
    16ae:	66750513          	add	a0,a0,1639 # 66666667 <_end+0x666644f7>
    16b2:	a031                	j	16be <inst_75+0x14>
    16b4:	4101                	li	sp,0
    16b6:	00110113          	add	sp,sp,1
    16ba:	0260006f          	j	16e0 <inst_75+0x36>
    16be:	e105                	bnez	a0,16de <inst_75+0x34>
    16c0:	00210113          	add	sp,sp,2
    16c4:	01c0006f          	j	16e0 <inst_75+0x36>
    16c8:	0001                	nop
    16ca:	0001                	nop
    16cc:	0001                	nop
    16ce:	0001                	nop
    16d0:	0001                	nop
    16d2:	0001                	nop
    16d4:	0001                	nop
    16d6:	0001                	nop
    16d8:	0001                	nop
    16da:	0001                	nop
    16dc:	0001                	nop
    16de:	010d                	add	sp,sp,3
    16e0:	1220a623          	sw	sp,300(ra)

000016e4 <inst_76>:
    16e4:	33333537          	lui	a0,0x33333
    16e8:	33250513          	add	a0,a0,818 # 33333332 <_end+0x333311c2>
    16ec:	a811                	j	1700 <inst_76+0x1c>
    16ee:	4101                	li	sp,0
    16f0:	00110113          	add	sp,sp,1
    16f4:	0180006f          	j	170c <inst_76+0x28>
    16f8:	0001                	nop
    16fa:	0001                	nop
    16fc:	0001                	nop
    16fe:	0001                	nop
    1700:	f965                	bnez	a0,16f0 <inst_76+0xc>
    1702:	00210113          	add	sp,sp,2
    1706:	0060006f          	j	170c <inst_76+0x28>
    170a:	010d                	add	sp,sp,3
    170c:	1220a823          	sw	sp,304(ra)

00001710 <inst_77>:
    1710:	66666537          	lui	a0,0x66666
    1714:	66550513          	add	a0,a0,1637 # 66666665 <_end+0x666644f5>
    1718:	a031                	j	1724 <inst_77+0x14>
    171a:	4101                	li	sp,0
    171c:	00110113          	add	sp,sp,1
    1720:	0460006f          	j	1766 <inst_77+0x56>
    1724:	e121                	bnez	a0,1764 <inst_77+0x54>
    1726:	00210113          	add	sp,sp,2
    172a:	03c0006f          	j	1766 <inst_77+0x56>
    172e:	0001                	nop
    1730:	0001                	nop
    1732:	0001                	nop
    1734:	0001                	nop
    1736:	0001                	nop
    1738:	0001                	nop
    173a:	0001                	nop
    173c:	0001                	nop
    173e:	0001                	nop
    1740:	0001                	nop
    1742:	0001                	nop
    1744:	0001                	nop
    1746:	0001                	nop
    1748:	0001                	nop
    174a:	0001                	nop
    174c:	0001                	nop
    174e:	0001                	nop
    1750:	0001                	nop
    1752:	0001                	nop
    1754:	0001                	nop
    1756:	0001                	nop
    1758:	0001                	nop
    175a:	0001                	nop
    175c:	0001                	nop
    175e:	0001                	nop
    1760:	0001                	nop
    1762:	0001                	nop
    1764:	010d                	add	sp,sp,3
    1766:	1220aa23          	sw	sp,308(ra)

0000176a <inst_78>:
    176a:	0000b537          	lui	a0,0xb
    176e:	50350513          	add	a0,a0,1283 # b503 <_end+0x9393>
    1772:	a099                	j	17b8 <inst_78+0x4e>
    1774:	4101                	li	sp,0
    1776:	00110113          	add	sp,sp,1
    177a:	04a0006f          	j	17c4 <inst_78+0x5a>
    177e:	0001                	nop
    1780:	0001                	nop
    1782:	0001                	nop
    1784:	0001                	nop
    1786:	0001                	nop
    1788:	0001                	nop
    178a:	0001                	nop
    178c:	0001                	nop
    178e:	0001                	nop
    1790:	0001                	nop
    1792:	0001                	nop
    1794:	0001                	nop
    1796:	0001                	nop
    1798:	0001                	nop
    179a:	0001                	nop
    179c:	0001                	nop
    179e:	0001                	nop
    17a0:	0001                	nop
    17a2:	0001                	nop
    17a4:	0001                	nop
    17a6:	0001                	nop
    17a8:	0001                	nop
    17aa:	0001                	nop
    17ac:	0001                	nop
    17ae:	0001                	nop
    17b0:	0001                	nop
    17b2:	0001                	nop
    17b4:	0001                	nop
    17b6:	0001                	nop
    17b8:	fd5d                	bnez	a0,1776 <inst_78+0xc>
    17ba:	00210113          	add	sp,sp,2
    17be:	0060006f          	j	17c4 <inst_78+0x5a>
    17c2:	010d                	add	sp,sp,3
    17c4:	1220ac23          	sw	sp,312(ra)

000017c8 <inst_79>:
    17c8:	55555537          	lui	a0,0x55555
    17cc:	55650513          	add	a0,a0,1366 # 55555556 <_end+0x555533e6>
    17d0:	a031                	j	17dc <inst_79+0x14>
    17d2:	4101                	li	sp,0
    17d4:	00110113          	add	sp,sp,1
    17d8:	0100006f          	j	17e8 <inst_79+0x20>
    17dc:	e509                	bnez	a0,17e6 <inst_79+0x1e>
    17de:	00210113          	add	sp,sp,2
    17e2:	0060006f          	j	17e8 <inst_79+0x20>
    17e6:	010d                	add	sp,sp,3
    17e8:	1220ae23          	sw	sp,316(ra)

000017ec <inst_80>:
    17ec:	aaaab537          	lui	a0,0xaaaab
    17f0:	aab50513          	add	a0,a0,-1365 # aaaaaaab <_end+0xaaaa893b>
    17f4:	a809                	j	1806 <inst_80+0x1a>
    17f6:	4101                	li	sp,0
    17f8:	00110113          	add	sp,sp,1
    17fc:	0160006f          	j	1812 <inst_80+0x26>
    1800:	0001                	nop
    1802:	0001                	nop
    1804:	0001                	nop
    1806:	f96d                	bnez	a0,17f8 <inst_80+0xc>
    1808:	00210113          	add	sp,sp,2
    180c:	0060006f          	j	1812 <inst_80+0x26>
    1810:	010d                	add	sp,sp,3
    1812:	1420a023          	sw	sp,320(ra)

00001816 <inst_81>:
    1816:	00600513          	li	a0,6
    181a:	a051                	j	189e <inst_81+0x88>
    181c:	4101                	li	sp,0
    181e:	00110113          	add	sp,sp,1
    1822:	0880006f          	j	18aa <inst_81+0x94>
    1826:	0001                	nop
    1828:	0001                	nop
    182a:	0001                	nop
    182c:	0001                	nop
    182e:	0001                	nop
    1830:	0001                	nop
    1832:	0001                	nop
    1834:	0001                	nop
    1836:	0001                	nop
    1838:	0001                	nop
    183a:	0001                	nop
    183c:	0001                	nop
    183e:	0001                	nop
    1840:	0001                	nop
    1842:	0001                	nop
    1844:	0001                	nop
    1846:	0001                	nop
    1848:	0001                	nop
    184a:	0001                	nop
    184c:	0001                	nop
    184e:	0001                	nop
    1850:	0001                	nop
    1852:	0001                	nop
    1854:	0001                	nop
    1856:	0001                	nop
    1858:	0001                	nop
    185a:	0001                	nop
    185c:	0001                	nop
    185e:	0001                	nop
    1860:	0001                	nop
    1862:	0001                	nop
    1864:	0001                	nop
    1866:	0001                	nop
    1868:	0001                	nop
    186a:	0001                	nop
    186c:	0001                	nop
    186e:	0001                	nop
    1870:	0001                	nop
    1872:	0001                	nop
    1874:	0001                	nop
    1876:	0001                	nop
    1878:	0001                	nop
    187a:	0001                	nop
    187c:	0001                	nop
    187e:	0001                	nop
    1880:	0001                	nop
    1882:	0001                	nop
    1884:	0001                	nop
    1886:	0001                	nop
    1888:	0001                	nop
    188a:	0001                	nop
    188c:	0001                	nop
    188e:	0001                	nop
    1890:	0001                	nop
    1892:	0001                	nop
    1894:	0001                	nop
    1896:	0001                	nop
    1898:	0001                	nop
    189a:	0001                	nop
    189c:	0001                	nop
    189e:	f141                	bnez	a0,181e <inst_81+0x8>
    18a0:	00210113          	add	sp,sp,2
    18a4:	0060006f          	j	18aa <inst_81+0x94>
    18a8:	010d                	add	sp,sp,3
    18aa:	1420a223          	sw	sp,324(ra)

000018ae <inst_82>:
    18ae:	33333537          	lui	a0,0x33333
    18b2:	33450513          	add	a0,a0,820 # 33333334 <_end+0x333311c4>
    18b6:	a809                	j	18c8 <inst_82+0x1a>
    18b8:	4101                	li	sp,0
    18ba:	00110113          	add	sp,sp,1
    18be:	0160006f          	j	18d4 <inst_82+0x26>
    18c2:	0001                	nop
    18c4:	0001                	nop
    18c6:	0001                	nop
    18c8:	f96d                	bnez	a0,18ba <inst_82+0xc>
    18ca:	00210113          	add	sp,sp,2
    18ce:	0060006f          	j	18d4 <inst_82+0x26>
    18d2:	010d                	add	sp,sp,3
    18d4:	1420a423          	sw	sp,328(ra)

000018d8 <inst_83>:
    18d8:	ffe00537          	lui	a0,0xffe00
    18dc:	fff50513          	add	a0,a0,-1 # ffdfffff <_end+0xffdfde8f>
    18e0:	a845                	j	1990 <inst_83+0xb8>
    18e2:	4101                	li	sp,0
    18e4:	00110113          	add	sp,sp,1
    18e8:	0b40006f          	j	199c <inst_83+0xc4>
    18ec:	0001                	nop
    18ee:	0001                	nop
    18f0:	0001                	nop
    18f2:	0001                	nop
    18f4:	0001                	nop
    18f6:	0001                	nop
    18f8:	0001                	nop
    18fa:	0001                	nop
    18fc:	0001                	nop
    18fe:	0001                	nop
    1900:	0001                	nop
    1902:	0001                	nop
    1904:	0001                	nop
    1906:	0001                	nop
    1908:	0001                	nop
    190a:	0001                	nop
    190c:	0001                	nop
    190e:	0001                	nop
    1910:	0001                	nop
    1912:	0001                	nop
    1914:	0001                	nop
    1916:	0001                	nop
    1918:	0001                	nop
    191a:	0001                	nop
    191c:	0001                	nop
    191e:	0001                	nop
    1920:	0001                	nop
    1922:	0001                	nop
    1924:	0001                	nop
    1926:	0001                	nop
    1928:	0001                	nop
    192a:	0001                	nop
    192c:	0001                	nop
    192e:	0001                	nop
    1930:	0001                	nop
    1932:	0001                	nop
    1934:	0001                	nop
    1936:	0001                	nop
    1938:	0001                	nop
    193a:	0001                	nop
    193c:	0001                	nop
    193e:	0001                	nop
    1940:	0001                	nop
    1942:	0001                	nop
    1944:	0001                	nop
    1946:	0001                	nop
    1948:	0001                	nop
    194a:	0001                	nop
    194c:	0001                	nop
    194e:	0001                	nop
    1950:	0001                	nop
    1952:	0001                	nop
    1954:	0001                	nop
    1956:	0001                	nop
    1958:	0001                	nop
    195a:	0001                	nop
    195c:	0001                	nop
    195e:	0001                	nop
    1960:	0001                	nop
    1962:	0001                	nop
    1964:	0001                	nop
    1966:	0001                	nop
    1968:	0001                	nop
    196a:	0001                	nop
    196c:	0001                	nop
    196e:	0001                	nop
    1970:	0001                	nop
    1972:	0001                	nop
    1974:	0001                	nop
    1976:	0001                	nop
    1978:	0001                	nop
    197a:	0001                	nop
    197c:	0001                	nop
    197e:	0001                	nop
    1980:	0001                	nop
    1982:	0001                	nop
    1984:	0001                	nop
    1986:	0001                	nop
    1988:	0001                	nop
    198a:	0001                	nop
    198c:	0001                	nop
    198e:	0001                	nop
    1990:	f931                	bnez	a0,18e4 <inst_83+0xc>
    1992:	00210113          	add	sp,sp,2
    1996:	0060006f          	j	199c <inst_83+0xc4>
    199a:	010d                	add	sp,sp,3
    199c:	1420a623          	sw	sp,332(ra)

000019a0 <inst_84>:
    19a0:	ffc00537          	lui	a0,0xffc00
    19a4:	fff50513          	add	a0,a0,-1 # ffbfffff <_end+0xffbfde8f>
    19a8:	a819                	j	19be <inst_84+0x1e>
    19aa:	4101                	li	sp,0
    19ac:	00110113          	add	sp,sp,1
    19b0:	01a0006f          	j	19ca <inst_84+0x2a>
    19b4:	0001                	nop
    19b6:	0001                	nop
    19b8:	0001                	nop
    19ba:	0001                	nop
    19bc:	0001                	nop
    19be:	f57d                	bnez	a0,19ac <inst_84+0xc>
    19c0:	00210113          	add	sp,sp,2
    19c4:	0060006f          	j	19ca <inst_84+0x2a>
    19c8:	010d                	add	sp,sp,3
    19ca:	1420a823          	sw	sp,336(ra)
    19ce:	0001                	nop

000019d0 <rvtest_code_end>:
    19d0:	00000517          	auipc	a0,0x0
    19d4:	64050513          	add	a0,a0,1600 # 2010 <data_begin>
    19d8:	00000597          	auipc	a1,0x0
    19dc:	79858593          	add	a1,a1,1944 # 2170 <_end>
    19e0:	80001637          	lui	a2,0x80001
    19e4:	0621                	add	a2,a2,8 # 80001008 <_end+0x7fffee98>

000019e6 <compliance_halt_loop>:
    19e6:	04b50763          	beq	a0,a1,1a34 <compliance_halt_break>
    19ea:	00450693          	add	a3,a0,4

000019ee <compliance_halt_loop2>:
    19ee:	16fd                	add	a3,a3,-1
    19f0:	00068703          	lb	a4,0(a3)
    19f4:	40475793          	sra	a5,a4,0x4
    19f8:	8bbd                	and	a5,a5,15
    19fa:	4829                	li	a6,10
    19fc:	0107c463          	blt	a5,a6,1a04 <notLetter>
    1a00:	02778793          	add	a5,a5,39

00001a04 <notLetter>:
    1a04:	03078793          	add	a5,a5,48
    1a08:	00f60023          	sb	a5,0(a2)
    1a0c:	40075793          	sra	a5,a4,0x0
    1a10:	8bbd                	and	a5,a5,15
    1a12:	4829                	li	a6,10
    1a14:	0107c463          	blt	a5,a6,1a1c <notLetter2>
    1a18:	02778793          	add	a5,a5,39

00001a1c <notLetter2>:
    1a1c:	03078793          	add	a5,a5,48
    1a20:	00f60023          	sb	a5,0(a2)
    1a24:	fcd515e3          	bne	a0,a3,19ee <compliance_halt_loop2>
    1a28:	0511                	add	a0,a0,4
    1a2a:	4729                	li	a4,10
    1a2c:	00e60023          	sb	a4,0(a2)
    1a30:	bf5d                	j	19e6 <compliance_halt_loop>
    1a32:	a009                	j	1a34 <compliance_halt_break>

00001a34 <compliance_halt_break>:
    1a34:	80001537          	lui	a0,0x80001
    1a38:	0525                	add	a0,a0,9 # 80001009 <_end+0x7fffee99>
    1a3a:	00d50023          	sb	a3,0(a0)
	...

Desensamblado de la sección .data:

00002000 <rvtest_data_begin>:
    2000:	cafe                	sw	t6,84(sp)
    2002:	babe                	.2byte	0xbabe

00002004 <rvtest_data_end>:
	...

00002010 <data_begin>:
    2010:	deadbeef          	jal	t4,fffdd5fa <_end+0xfffdb48a>
    2014:	deadbeef          	jal	t4,fffdd5fe <_end+0xfffdb48e>
    2018:	deadbeef          	jal	t4,fffdd602 <_end+0xfffdb492>
    201c:	deadbeef          	jal	t4,fffdd606 <_end+0xfffdb496>
    2020:	deadbeef          	jal	t4,fffdd60a <_end+0xfffdb49a>
    2024:	deadbeef          	jal	t4,fffdd60e <_end+0xfffdb49e>
    2028:	deadbeef          	jal	t4,fffdd612 <_end+0xfffdb4a2>
    202c:	deadbeef          	jal	t4,fffdd616 <_end+0xfffdb4a6>
    2030:	deadbeef          	jal	t4,fffdd61a <_end+0xfffdb4aa>
    2034:	deadbeef          	jal	t4,fffdd61e <_end+0xfffdb4ae>
    2038:	deadbeef          	jal	t4,fffdd622 <_end+0xfffdb4b2>
    203c:	deadbeef          	jal	t4,fffdd626 <_end+0xfffdb4b6>
    2040:	deadbeef          	jal	t4,fffdd62a <_end+0xfffdb4ba>
    2044:	deadbeef          	jal	t4,fffdd62e <_end+0xfffdb4be>
    2048:	deadbeef          	jal	t4,fffdd632 <_end+0xfffdb4c2>
    204c:	deadbeef          	jal	t4,fffdd636 <_end+0xfffdb4c6>
    2050:	deadbeef          	jal	t4,fffdd63a <_end+0xfffdb4ca>
    2054:	deadbeef          	jal	t4,fffdd63e <_end+0xfffdb4ce>
    2058:	deadbeef          	jal	t4,fffdd642 <_end+0xfffdb4d2>
    205c:	deadbeef          	jal	t4,fffdd646 <_end+0xfffdb4d6>
    2060:	deadbeef          	jal	t4,fffdd64a <_end+0xfffdb4da>
    2064:	deadbeef          	jal	t4,fffdd64e <_end+0xfffdb4de>
    2068:	deadbeef          	jal	t4,fffdd652 <_end+0xfffdb4e2>
    206c:	deadbeef          	jal	t4,fffdd656 <_end+0xfffdb4e6>
    2070:	deadbeef          	jal	t4,fffdd65a <_end+0xfffdb4ea>
    2074:	deadbeef          	jal	t4,fffdd65e <_end+0xfffdb4ee>
    2078:	deadbeef          	jal	t4,fffdd662 <_end+0xfffdb4f2>
    207c:	deadbeef          	jal	t4,fffdd666 <_end+0xfffdb4f6>
    2080:	deadbeef          	jal	t4,fffdd66a <_end+0xfffdb4fa>
    2084:	deadbeef          	jal	t4,fffdd66e <_end+0xfffdb4fe>
    2088:	deadbeef          	jal	t4,fffdd672 <_end+0xfffdb502>
    208c:	deadbeef          	jal	t4,fffdd676 <_end+0xfffdb506>
    2090:	deadbeef          	jal	t4,fffdd67a <_end+0xfffdb50a>
    2094:	deadbeef          	jal	t4,fffdd67e <_end+0xfffdb50e>
    2098:	deadbeef          	jal	t4,fffdd682 <_end+0xfffdb512>
    209c:	deadbeef          	jal	t4,fffdd686 <_end+0xfffdb516>
    20a0:	deadbeef          	jal	t4,fffdd68a <_end+0xfffdb51a>
    20a4:	deadbeef          	jal	t4,fffdd68e <_end+0xfffdb51e>
    20a8:	deadbeef          	jal	t4,fffdd692 <_end+0xfffdb522>
    20ac:	deadbeef          	jal	t4,fffdd696 <_end+0xfffdb526>
    20b0:	deadbeef          	jal	t4,fffdd69a <_end+0xfffdb52a>
    20b4:	deadbeef          	jal	t4,fffdd69e <_end+0xfffdb52e>
    20b8:	deadbeef          	jal	t4,fffdd6a2 <_end+0xfffdb532>
    20bc:	deadbeef          	jal	t4,fffdd6a6 <_end+0xfffdb536>
    20c0:	deadbeef          	jal	t4,fffdd6aa <_end+0xfffdb53a>
    20c4:	deadbeef          	jal	t4,fffdd6ae <_end+0xfffdb53e>
    20c8:	deadbeef          	jal	t4,fffdd6b2 <_end+0xfffdb542>
    20cc:	deadbeef          	jal	t4,fffdd6b6 <_end+0xfffdb546>
    20d0:	deadbeef          	jal	t4,fffdd6ba <_end+0xfffdb54a>
    20d4:	deadbeef          	jal	t4,fffdd6be <_end+0xfffdb54e>
    20d8:	deadbeef          	jal	t4,fffdd6c2 <_end+0xfffdb552>
    20dc:	deadbeef          	jal	t4,fffdd6c6 <_end+0xfffdb556>
    20e0:	deadbeef          	jal	t4,fffdd6ca <_end+0xfffdb55a>
    20e4:	deadbeef          	jal	t4,fffdd6ce <_end+0xfffdb55e>
    20e8:	deadbeef          	jal	t4,fffdd6d2 <_end+0xfffdb562>
    20ec:	deadbeef          	jal	t4,fffdd6d6 <_end+0xfffdb566>
    20f0:	deadbeef          	jal	t4,fffdd6da <_end+0xfffdb56a>
    20f4:	deadbeef          	jal	t4,fffdd6de <_end+0xfffdb56e>
    20f8:	deadbeef          	jal	t4,fffdd6e2 <_end+0xfffdb572>
    20fc:	deadbeef          	jal	t4,fffdd6e6 <_end+0xfffdb576>
    2100:	deadbeef          	jal	t4,fffdd6ea <_end+0xfffdb57a>
    2104:	deadbeef          	jal	t4,fffdd6ee <_end+0xfffdb57e>
    2108:	deadbeef          	jal	t4,fffdd6f2 <_end+0xfffdb582>
    210c:	deadbeef          	jal	t4,fffdd6f6 <_end+0xfffdb586>
    2110:	deadbeef          	jal	t4,fffdd6fa <_end+0xfffdb58a>
    2114:	deadbeef          	jal	t4,fffdd6fe <_end+0xfffdb58e>
    2118:	deadbeef          	jal	t4,fffdd702 <_end+0xfffdb592>
    211c:	deadbeef          	jal	t4,fffdd706 <_end+0xfffdb596>
    2120:	deadbeef          	jal	t4,fffdd70a <_end+0xfffdb59a>
    2124:	deadbeef          	jal	t4,fffdd70e <_end+0xfffdb59e>
    2128:	deadbeef          	jal	t4,fffdd712 <_end+0xfffdb5a2>
    212c:	deadbeef          	jal	t4,fffdd716 <_end+0xfffdb5a6>
    2130:	deadbeef          	jal	t4,fffdd71a <_end+0xfffdb5aa>
    2134:	deadbeef          	jal	t4,fffdd71e <_end+0xfffdb5ae>
    2138:	deadbeef          	jal	t4,fffdd722 <_end+0xfffdb5b2>
    213c:	deadbeef          	jal	t4,fffdd726 <_end+0xfffdb5b6>
    2140:	deadbeef          	jal	t4,fffdd72a <_end+0xfffdb5ba>
    2144:	deadbeef          	jal	t4,fffdd72e <_end+0xfffdb5be>
    2148:	deadbeef          	jal	t4,fffdd732 <_end+0xfffdb5c2>
    214c:	deadbeef          	jal	t4,fffdd736 <_end+0xfffdb5c6>
    2150:	deadbeef          	jal	t4,fffdd73a <_end+0xfffdb5ca>
    2154:	deadbeef          	jal	t4,fffdd73e <_end+0xfffdb5ce>
    2158:	deadbeef          	jal	t4,fffdd742 <_end+0xfffdb5d2>
    215c:	deadbeef          	jal	t4,fffdd746 <_end+0xfffdb5d6>
    2160:	deadbeef          	jal	t4,fffdd74a <_end+0xfffdb5da>
	...

Desensamblado de la sección .riscv.attributes:

00000000 <.riscv.attributes>:
   0:	3541                	jal	fffffe80 <_end+0xffffdd10>
   2:	0000                	unimp
   4:	7200                	.2byte	0x7200
   6:	7369                	lui	t1,0xffffa
   8:	01007663          	bgeu	zero,a6,14 <rvtest_entry_point+0x14>
   c:	0000002b          	.4byte	0x2b
  10:	7205                	lui	tp,0xfffe1
  12:	3376                	.2byte	0x3376
  14:	6932                	.2byte	0x6932
  16:	7032                	.2byte	0x7032
  18:	5f30                	lw	a2,120(a4)
  1a:	326d                	jal	fffff9c4 <_end+0xffffd854>
  1c:	3070                	.2byte	0x3070
  1e:	635f 7032 5f30      	.byte	0x5f, 0x63, 0x32, 0x70, 0x30, 0x5f
  24:	6d7a                	.2byte	0x6d7a
  26:	756d                	lui	a0,0xffffb
  28:	316c                	.2byte	0x316c
  2a:	3070                	.2byte	0x3070
  2c:	7a5f 6966 786e      	.byte	0x5f, 0x7a, 0x66, 0x69, 0x6e, 0x78
  32:	7031                	c.lui	zero,0xfffec
  34:	0030                	add	a2,sp,8
