
/home/alejandro/Escritorio/test_riscv2.5/riscv-compliance/work/rv32i_m/C/cjal-01.elf:     formato del fichero elf32-littleriscv


Desensamblado de la sección .text.init:

00000000 <rvtest_entry_point>:
       0:	feedc0b7          	lui	ra,0xfeedc
       4:	ead08093          	add	ra,ra,-339 # feedbead <_end+0xfeed9e4d>
       8:	ff76e137          	lui	sp,0xff76e
       c:	f5610113          	add	sp,sp,-170 # ff76df56 <_end+0xff76bef6>
      10:	7fbb71b7          	lui	gp,0x7fbb7
      14:	fab18193          	add	gp,gp,-85 # 7fbb6fab <_end+0x7fbb4f4b>
      18:	bfddb237          	lui	tp,0xbfddb
      1c:	7d520213          	add	tp,tp,2005 # bfddb7d5 <_end+0xbfdd9775>
      20:	00000297          	auipc	t0,0x0
      24:	0d828293          	add	t0,t0,216 # f8 <rvtest_code_begin>
      28:	00002317          	auipc	t1,0x2
      2c:	fd830313          	add	t1,t1,-40 # 2000 <rvtest_data_begin>
      30:	b7fbb3b7          	lui	t2,0xb7fbb
      34:	6fa38393          	add	t2,t2,1786 # b7fbb6fa <_end+0xb7fb969a>
      38:	5bfde437          	lui	s0,0x5bfde
      3c:	b7d40413          	add	s0,s0,-1155 # 5bfddb7d <_end+0x5bfdbb1d>
      40:	adfef4b7          	lui	s1,0xadfef
      44:	dbe48493          	add	s1,s1,-578 # adfeedbe <_end+0xadfecd5e>
      48:	56ff7537          	lui	a0,0x56ff7
      4c:	6df50513          	add	a0,a0,1759 # 56ff76df <_end+0x56ff567f>
      50:	ab7fc5b7          	lui	a1,0xab7fc
      54:	b6f58593          	add	a1,a1,-1169 # ab7fbb6f <_end+0xab7f9b0f>
      58:	d5bfe637          	lui	a2,0xd5bfe
      5c:	db760613          	add	a2,a2,-585 # d5bfddb7 <_end+0xd5bfbd57>
      60:	eadff6b7          	lui	a3,0xeadff
      64:	edb68693          	add	a3,a3,-293 # eadfeedb <_end+0xeadfce7b>
      68:	f56ff737          	lui	a4,0xf56ff
      6c:	76d70713          	add	a4,a4,1901 # f56ff76d <_end+0xf56fd70d>
      70:	fab807b7          	lui	a5,0xfab80
      74:	bb678793          	add	a5,a5,-1098 # fab7fbb6 <_end+0xfab7db56>
      78:	7d5c0837          	lui	a6,0x7d5c0
      7c:	ddb80813          	add	a6,a6,-549 # 7d5bfddb <_end+0x7d5bdd7b>
      80:	beae08b7          	lui	a7,0xbeae0
      84:	eed88893          	add	a7,a7,-275 # beadfeed <_end+0xbeadde8d>
      88:	df570937          	lui	s2,0xdf570
      8c:	f7690913          	add	s2,s2,-138 # df56ff76 <_end+0xdf56df16>
      90:	6fab89b7          	lui	s3,0x6fab8
      94:	fbb98993          	add	s3,s3,-69 # 6fab7fbb <_end+0x6fab5f5b>
      98:	b7d5ca37          	lui	s4,0xb7d5c
      9c:	fdda0a13          	add	s4,s4,-35 # b7d5bfdd <_end+0xb7d59f7d>
      a0:	dbeaeab7          	lui	s5,0xdbeae
      a4:	feea8a93          	add	s5,s5,-18 # dbeadfee <_end+0xdbeabf8e>
      a8:	6df57b37          	lui	s6,0x6df57
      ac:	ff7b0b13          	add	s6,s6,-9 # 6df56ff7 <_end+0x6df54f97>
      b0:	b6fabbb7          	lui	s7,0xb6fab
      b4:	7fbb8b93          	add	s7,s7,2043 # b6fab7fb <_end+0xb6fa979b>
      b8:	db7d6c37          	lui	s8,0xdb7d6
      bc:	bfdc0c13          	add	s8,s8,-1027 # db7d5bfd <_end+0xdb7d3b9d>
      c0:	edbebcb7          	lui	s9,0xedbeb
      c4:	dfec8c93          	add	s9,s9,-514 # edbeadfe <_end+0xedbe8d9e>
      c8:	76df5d37          	lui	s10,0x76df5
      cc:	6ffd0d13          	add	s10,s10,1791 # 76df56ff <_end+0x76df369f>
      d0:	bb6fbdb7          	lui	s11,0xbb6fb
      d4:	b7fd8d93          	add	s11,s11,-1153 # bb6fab7f <_end+0xbb6f8b1f>
      d8:	ddb7de37          	lui	t3,0xddb7d
      dc:	5bfe0e13          	add	t3,t3,1471 # ddb7d5bf <_end+0xddb7b55f>
      e0:	eedbfeb7          	lui	t4,0xeedbf
      e4:	adfe8e93          	add	t4,t4,-1313 # eedbeadf <_end+0xeedbca7f>
      e8:	f76dff37          	lui	t5,0xf76df
      ec:	56ff0f13          	add	t5,t5,1391 # f76df56f <_end+0xf76dd50f>
      f0:	fbb70fb7          	lui	t6,0xfbb70
      f4:	ab7f8f93          	add	t6,t6,-1353 # fbb6fab7 <_end+0xfbb6da57>

000000f8 <rvtest_code_begin>:
      f8:	00002117          	auipc	sp,0x2
      fc:	f1810113          	add	sp,sp,-232 # 2010 <data_begin>

00000100 <inst_0>:
     100:	a029                	j	10a <inst_0+0xa>
     102:	0010c093          	xor	ra,ra,1
     106:	0120006f          	j	118 <inst_0+0x18>
     10a:	2029                	jal	114 <inst_0+0x14>
     10c:	0020c093          	xor	ra,ra,2
     110:	0080006f          	j	118 <inst_0+0x18>
     114:	0030c093          	xor	ra,ra,3
     118:	00000197          	auipc	gp,0x0
     11c:	fe818193          	add	gp,gp,-24 # 100 <inst_0>
     120:	ffc1f193          	and	gp,gp,-4
     124:	403080b3          	sub	ra,ra,gp
     128:	c006                	sw	ra,0(sp)

0000012a <inst_1>:
     12a:	a031                	j	136 <inst_1+0xc>
     12c:	0010c093          	xor	ra,ra,1
     130:	0140006f          	j	144 <inst_1+0x1a>
     134:	0001                	nop
     136:	3fdd                	jal	12c <inst_1+0x2>
     138:	0020c093          	xor	ra,ra,2
     13c:	0080006f          	j	144 <inst_1+0x1a>
     140:	0030c093          	xor	ra,ra,3
     144:	00000197          	auipc	gp,0x0
     148:	fe618193          	add	gp,gp,-26 # 12a <inst_1>
     14c:	ffc1f193          	and	gp,gp,-4
     150:	403080b3          	sub	ra,ra,gp
     154:	c206                	sw	ra,4(sp)

00000156 <inst_2>:
     156:	a029                	j	160 <inst_2+0xa>
     158:	0010c093          	xor	ra,ra,1
     15c:	0180006f          	j	174 <inst_2+0x1e>
     160:	2801                	jal	170 <inst_2+0x1a>
     162:	0020c093          	xor	ra,ra,2
     166:	00e0006f          	j	174 <inst_2+0x1e>
     16a:	0001                	nop
     16c:	0001                	nop
     16e:	0001                	nop
     170:	0030c093          	xor	ra,ra,3
     174:	00000197          	auipc	gp,0x0
     178:	fe218193          	add	gp,gp,-30 # 156 <inst_2>
     17c:	ffc1f193          	and	gp,gp,-4
     180:	403080b3          	sub	ra,ra,gp
     184:	c406                	sw	ra,8(sp)

00000186 <inst_3>:
     186:	a029                	j	190 <inst_3+0xa>
     188:	0010c093          	xor	ra,ra,1
     18c:	0280006f          	j	1b4 <inst_3+0x2e>
     190:	2005                	jal	1b0 <inst_3+0x2a>
     192:	0020c093          	xor	ra,ra,2
     196:	01e0006f          	j	1b4 <inst_3+0x2e>
     19a:	0001                	nop
     19c:	0001                	nop
     19e:	0001                	nop
     1a0:	0001                	nop
     1a2:	0001                	nop
     1a4:	0001                	nop
     1a6:	0001                	nop
     1a8:	0001                	nop
     1aa:	0001                	nop
     1ac:	0001                	nop
     1ae:	0001                	nop
     1b0:	0030c093          	xor	ra,ra,3
     1b4:	00000197          	auipc	gp,0x0
     1b8:	fd218193          	add	gp,gp,-46 # 186 <inst_3>
     1bc:	ffc1f193          	and	gp,gp,-4
     1c0:	403080b3          	sub	ra,ra,gp
     1c4:	c606                	sw	ra,12(sp)

000001c6 <inst_4>:
     1c6:	a029                	j	1d0 <inst_4+0xa>
     1c8:	0010c093          	xor	ra,ra,1
     1cc:	0480006f          	j	214 <inst_4+0x4e>
     1d0:	2081                	jal	210 <inst_4+0x4a>
     1d2:	0020c093          	xor	ra,ra,2
     1d6:	03e0006f          	j	214 <inst_4+0x4e>
     1da:	0001                	nop
     1dc:	0001                	nop
     1de:	0001                	nop
     1e0:	0001                	nop
     1e2:	0001                	nop
     1e4:	0001                	nop
     1e6:	0001                	nop
     1e8:	0001                	nop
     1ea:	0001                	nop
     1ec:	0001                	nop
     1ee:	0001                	nop
     1f0:	0001                	nop
     1f2:	0001                	nop
     1f4:	0001                	nop
     1f6:	0001                	nop
     1f8:	0001                	nop
     1fa:	0001                	nop
     1fc:	0001                	nop
     1fe:	0001                	nop
     200:	0001                	nop
     202:	0001                	nop
     204:	0001                	nop
     206:	0001                	nop
     208:	0001                	nop
     20a:	0001                	nop
     20c:	0001                	nop
     20e:	0001                	nop
     210:	0030c093          	xor	ra,ra,3
     214:	00000197          	auipc	gp,0x0
     218:	fb218193          	add	gp,gp,-78 # 1c6 <inst_4>
     21c:	ffc1f193          	and	gp,gp,-4
     220:	403080b3          	sub	ra,ra,gp
     224:	c806                	sw	ra,16(sp)

00000226 <inst_5>:
     226:	a029                	j	230 <inst_5+0xa>
     228:	0010c093          	xor	ra,ra,1
     22c:	0880006f          	j	2b4 <inst_5+0x8e>
     230:	2041                	jal	2b0 <inst_5+0x8a>
     232:	0020c093          	xor	ra,ra,2
     236:	07e0006f          	j	2b4 <inst_5+0x8e>
     23a:	0001                	nop
     23c:	0001                	nop
     23e:	0001                	nop
     240:	0001                	nop
     242:	0001                	nop
     244:	0001                	nop
     246:	0001                	nop
     248:	0001                	nop
     24a:	0001                	nop
     24c:	0001                	nop
     24e:	0001                	nop
     250:	0001                	nop
     252:	0001                	nop
     254:	0001                	nop
     256:	0001                	nop
     258:	0001                	nop
     25a:	0001                	nop
     25c:	0001                	nop
     25e:	0001                	nop
     260:	0001                	nop
     262:	0001                	nop
     264:	0001                	nop
     266:	0001                	nop
     268:	0001                	nop
     26a:	0001                	nop
     26c:	0001                	nop
     26e:	0001                	nop
     270:	0001                	nop
     272:	0001                	nop
     274:	0001                	nop
     276:	0001                	nop
     278:	0001                	nop
     27a:	0001                	nop
     27c:	0001                	nop
     27e:	0001                	nop
     280:	0001                	nop
     282:	0001                	nop
     284:	0001                	nop
     286:	0001                	nop
     288:	0001                	nop
     28a:	0001                	nop
     28c:	0001                	nop
     28e:	0001                	nop
     290:	0001                	nop
     292:	0001                	nop
     294:	0001                	nop
     296:	0001                	nop
     298:	0001                	nop
     29a:	0001                	nop
     29c:	0001                	nop
     29e:	0001                	nop
     2a0:	0001                	nop
     2a2:	0001                	nop
     2a4:	0001                	nop
     2a6:	0001                	nop
     2a8:	0001                	nop
     2aa:	0001                	nop
     2ac:	0001                	nop
     2ae:	0001                	nop
     2b0:	0030c093          	xor	ra,ra,3
     2b4:	00000197          	auipc	gp,0x0
     2b8:	f7218193          	add	gp,gp,-142 # 226 <inst_5>
     2bc:	ffc1f193          	and	gp,gp,-4
     2c0:	403080b3          	sub	ra,ra,gp
     2c4:	ca06                	sw	ra,20(sp)

000002c6 <inst_6>:
     2c6:	a029                	j	2d0 <inst_6+0xa>
     2c8:	0010c093          	xor	ra,ra,1
     2cc:	1080006f          	j	3d4 <inst_6+0x10e>
     2d0:	2201                	jal	3d0 <inst_6+0x10a>
     2d2:	0020c093          	xor	ra,ra,2
     2d6:	0fe0006f          	j	3d4 <inst_6+0x10e>
     2da:	0001                	nop
     2dc:	0001                	nop
     2de:	0001                	nop
     2e0:	0001                	nop
     2e2:	0001                	nop
     2e4:	0001                	nop
     2e6:	0001                	nop
     2e8:	0001                	nop
     2ea:	0001                	nop
     2ec:	0001                	nop
     2ee:	0001                	nop
     2f0:	0001                	nop
     2f2:	0001                	nop
     2f4:	0001                	nop
     2f6:	0001                	nop
     2f8:	0001                	nop
     2fa:	0001                	nop
     2fc:	0001                	nop
     2fe:	0001                	nop
     300:	0001                	nop
     302:	0001                	nop
     304:	0001                	nop
     306:	0001                	nop
     308:	0001                	nop
     30a:	0001                	nop
     30c:	0001                	nop
     30e:	0001                	nop
     310:	0001                	nop
     312:	0001                	nop
     314:	0001                	nop
     316:	0001                	nop
     318:	0001                	nop
     31a:	0001                	nop
     31c:	0001                	nop
     31e:	0001                	nop
     320:	0001                	nop
     322:	0001                	nop
     324:	0001                	nop
     326:	0001                	nop
     328:	0001                	nop
     32a:	0001                	nop
     32c:	0001                	nop
     32e:	0001                	nop
     330:	0001                	nop
     332:	0001                	nop
     334:	0001                	nop
     336:	0001                	nop
     338:	0001                	nop
     33a:	0001                	nop
     33c:	0001                	nop
     33e:	0001                	nop
     340:	0001                	nop
     342:	0001                	nop
     344:	0001                	nop
     346:	0001                	nop
     348:	0001                	nop
     34a:	0001                	nop
     34c:	0001                	nop
     34e:	0001                	nop
     350:	0001                	nop
     352:	0001                	nop
     354:	0001                	nop
     356:	0001                	nop
     358:	0001                	nop
     35a:	0001                	nop
     35c:	0001                	nop
     35e:	0001                	nop
     360:	0001                	nop
     362:	0001                	nop
     364:	0001                	nop
     366:	0001                	nop
     368:	0001                	nop
     36a:	0001                	nop
     36c:	0001                	nop
     36e:	0001                	nop
     370:	0001                	nop
     372:	0001                	nop
     374:	0001                	nop
     376:	0001                	nop
     378:	0001                	nop
     37a:	0001                	nop
     37c:	0001                	nop
     37e:	0001                	nop
     380:	0001                	nop
     382:	0001                	nop
     384:	0001                	nop
     386:	0001                	nop
     388:	0001                	nop
     38a:	0001                	nop
     38c:	0001                	nop
     38e:	0001                	nop
     390:	0001                	nop
     392:	0001                	nop
     394:	0001                	nop
     396:	0001                	nop
     398:	0001                	nop
     39a:	0001                	nop
     39c:	0001                	nop
     39e:	0001                	nop
     3a0:	0001                	nop
     3a2:	0001                	nop
     3a4:	0001                	nop
     3a6:	0001                	nop
     3a8:	0001                	nop
     3aa:	0001                	nop
     3ac:	0001                	nop
     3ae:	0001                	nop
     3b0:	0001                	nop
     3b2:	0001                	nop
     3b4:	0001                	nop
     3b6:	0001                	nop
     3b8:	0001                	nop
     3ba:	0001                	nop
     3bc:	0001                	nop
     3be:	0001                	nop
     3c0:	0001                	nop
     3c2:	0001                	nop
     3c4:	0001                	nop
     3c6:	0001                	nop
     3c8:	0001                	nop
     3ca:	0001                	nop
     3cc:	0001                	nop
     3ce:	0001                	nop
     3d0:	0030c093          	xor	ra,ra,3
     3d4:	00000197          	auipc	gp,0x0
     3d8:	ef218193          	add	gp,gp,-270 # 2c6 <inst_6>
     3dc:	ffc1f193          	and	gp,gp,-4
     3e0:	403080b3          	sub	ra,ra,gp
     3e4:	cc06                	sw	ra,24(sp)

000003e6 <inst_7>:
     3e6:	a029                	j	3f0 <inst_7+0xa>
     3e8:	0010c093          	xor	ra,ra,1
     3ec:	2080006f          	j	5f4 <inst_7+0x20e>
     3f0:	2401                	jal	5f0 <inst_7+0x20a>
     3f2:	0020c093          	xor	ra,ra,2
     3f6:	1fe0006f          	j	5f4 <inst_7+0x20e>
     3fa:	0001                	nop
     3fc:	0001                	nop
     3fe:	0001                	nop
     400:	0001                	nop
     402:	0001                	nop
     404:	0001                	nop
     406:	0001                	nop
     408:	0001                	nop
     40a:	0001                	nop
     40c:	0001                	nop
     40e:	0001                	nop
     410:	0001                	nop
     412:	0001                	nop
     414:	0001                	nop
     416:	0001                	nop
     418:	0001                	nop
     41a:	0001                	nop
     41c:	0001                	nop
     41e:	0001                	nop
     420:	0001                	nop
     422:	0001                	nop
     424:	0001                	nop
     426:	0001                	nop
     428:	0001                	nop
     42a:	0001                	nop
     42c:	0001                	nop
     42e:	0001                	nop
     430:	0001                	nop
     432:	0001                	nop
     434:	0001                	nop
     436:	0001                	nop
     438:	0001                	nop
     43a:	0001                	nop
     43c:	0001                	nop
     43e:	0001                	nop
     440:	0001                	nop
     442:	0001                	nop
     444:	0001                	nop
     446:	0001                	nop
     448:	0001                	nop
     44a:	0001                	nop
     44c:	0001                	nop
     44e:	0001                	nop
     450:	0001                	nop
     452:	0001                	nop
     454:	0001                	nop
     456:	0001                	nop
     458:	0001                	nop
     45a:	0001                	nop
     45c:	0001                	nop
     45e:	0001                	nop
     460:	0001                	nop
     462:	0001                	nop
     464:	0001                	nop
     466:	0001                	nop
     468:	0001                	nop
     46a:	0001                	nop
     46c:	0001                	nop
     46e:	0001                	nop
     470:	0001                	nop
     472:	0001                	nop
     474:	0001                	nop
     476:	0001                	nop
     478:	0001                	nop
     47a:	0001                	nop
     47c:	0001                	nop
     47e:	0001                	nop
     480:	0001                	nop
     482:	0001                	nop
     484:	0001                	nop
     486:	0001                	nop
     488:	0001                	nop
     48a:	0001                	nop
     48c:	0001                	nop
     48e:	0001                	nop
     490:	0001                	nop
     492:	0001                	nop
     494:	0001                	nop
     496:	0001                	nop
     498:	0001                	nop
     49a:	0001                	nop
     49c:	0001                	nop
     49e:	0001                	nop
     4a0:	0001                	nop
     4a2:	0001                	nop
     4a4:	0001                	nop
     4a6:	0001                	nop
     4a8:	0001                	nop
     4aa:	0001                	nop
     4ac:	0001                	nop
     4ae:	0001                	nop
     4b0:	0001                	nop
     4b2:	0001                	nop
     4b4:	0001                	nop
     4b6:	0001                	nop
     4b8:	0001                	nop
     4ba:	0001                	nop
     4bc:	0001                	nop
     4be:	0001                	nop
     4c0:	0001                	nop
     4c2:	0001                	nop
     4c4:	0001                	nop
     4c6:	0001                	nop
     4c8:	0001                	nop
     4ca:	0001                	nop
     4cc:	0001                	nop
     4ce:	0001                	nop
     4d0:	0001                	nop
     4d2:	0001                	nop
     4d4:	0001                	nop
     4d6:	0001                	nop
     4d8:	0001                	nop
     4da:	0001                	nop
     4dc:	0001                	nop
     4de:	0001                	nop
     4e0:	0001                	nop
     4e2:	0001                	nop
     4e4:	0001                	nop
     4e6:	0001                	nop
     4e8:	0001                	nop
     4ea:	0001                	nop
     4ec:	0001                	nop
     4ee:	0001                	nop
     4f0:	0001                	nop
     4f2:	0001                	nop
     4f4:	0001                	nop
     4f6:	0001                	nop
     4f8:	0001                	nop
     4fa:	0001                	nop
     4fc:	0001                	nop
     4fe:	0001                	nop
     500:	0001                	nop
     502:	0001                	nop
     504:	0001                	nop
     506:	0001                	nop
     508:	0001                	nop
     50a:	0001                	nop
     50c:	0001                	nop
     50e:	0001                	nop
     510:	0001                	nop
     512:	0001                	nop
     514:	0001                	nop
     516:	0001                	nop
     518:	0001                	nop
     51a:	0001                	nop
     51c:	0001                	nop
     51e:	0001                	nop
     520:	0001                	nop
     522:	0001                	nop
     524:	0001                	nop
     526:	0001                	nop
     528:	0001                	nop
     52a:	0001                	nop
     52c:	0001                	nop
     52e:	0001                	nop
     530:	0001                	nop
     532:	0001                	nop
     534:	0001                	nop
     536:	0001                	nop
     538:	0001                	nop
     53a:	0001                	nop
     53c:	0001                	nop
     53e:	0001                	nop
     540:	0001                	nop
     542:	0001                	nop
     544:	0001                	nop
     546:	0001                	nop
     548:	0001                	nop
     54a:	0001                	nop
     54c:	0001                	nop
     54e:	0001                	nop
     550:	0001                	nop
     552:	0001                	nop
     554:	0001                	nop
     556:	0001                	nop
     558:	0001                	nop
     55a:	0001                	nop
     55c:	0001                	nop
     55e:	0001                	nop
     560:	0001                	nop
     562:	0001                	nop
     564:	0001                	nop
     566:	0001                	nop
     568:	0001                	nop
     56a:	0001                	nop
     56c:	0001                	nop
     56e:	0001                	nop
     570:	0001                	nop
     572:	0001                	nop
     574:	0001                	nop
     576:	0001                	nop
     578:	0001                	nop
     57a:	0001                	nop
     57c:	0001                	nop
     57e:	0001                	nop
     580:	0001                	nop
     582:	0001                	nop
     584:	0001                	nop
     586:	0001                	nop
     588:	0001                	nop
     58a:	0001                	nop
     58c:	0001                	nop
     58e:	0001                	nop
     590:	0001                	nop
     592:	0001                	nop
     594:	0001                	nop
     596:	0001                	nop
     598:	0001                	nop
     59a:	0001                	nop
     59c:	0001                	nop
     59e:	0001                	nop
     5a0:	0001                	nop
     5a2:	0001                	nop
     5a4:	0001                	nop
     5a6:	0001                	nop
     5a8:	0001                	nop
     5aa:	0001                	nop
     5ac:	0001                	nop
     5ae:	0001                	nop
     5b0:	0001                	nop
     5b2:	0001                	nop
     5b4:	0001                	nop
     5b6:	0001                	nop
     5b8:	0001                	nop
     5ba:	0001                	nop
     5bc:	0001                	nop
     5be:	0001                	nop
     5c0:	0001                	nop
     5c2:	0001                	nop
     5c4:	0001                	nop
     5c6:	0001                	nop
     5c8:	0001                	nop
     5ca:	0001                	nop
     5cc:	0001                	nop
     5ce:	0001                	nop
     5d0:	0001                	nop
     5d2:	0001                	nop
     5d4:	0001                	nop
     5d6:	0001                	nop
     5d8:	0001                	nop
     5da:	0001                	nop
     5dc:	0001                	nop
     5de:	0001                	nop
     5e0:	0001                	nop
     5e2:	0001                	nop
     5e4:	0001                	nop
     5e6:	0001                	nop
     5e8:	0001                	nop
     5ea:	0001                	nop
     5ec:	0001                	nop
     5ee:	0001                	nop
     5f0:	0030c093          	xor	ra,ra,3
     5f4:	00000197          	auipc	gp,0x0
     5f8:	df218193          	add	gp,gp,-526 # 3e6 <inst_7>
     5fc:	ffc1f193          	and	gp,gp,-4
     600:	403080b3          	sub	ra,ra,gp
     604:	ce06                	sw	ra,28(sp)

00000606 <inst_8>:
     606:	a029                	j	610 <inst_8+0xa>
     608:	0010c093          	xor	ra,ra,1
     60c:	4080006f          	j	a14 <inst_8+0x40e>
     610:	2101                	jal	a10 <inst_8+0x40a>
     612:	0020c093          	xor	ra,ra,2
     616:	3fe0006f          	j	a14 <inst_8+0x40e>
     61a:	0001                	nop
     61c:	0001                	nop
     61e:	0001                	nop
     620:	0001                	nop
     622:	0001                	nop
     624:	0001                	nop
     626:	0001                	nop
     628:	0001                	nop
     62a:	0001                	nop
     62c:	0001                	nop
     62e:	0001                	nop
     630:	0001                	nop
     632:	0001                	nop
     634:	0001                	nop
     636:	0001                	nop
     638:	0001                	nop
     63a:	0001                	nop
     63c:	0001                	nop
     63e:	0001                	nop
     640:	0001                	nop
     642:	0001                	nop
     644:	0001                	nop
     646:	0001                	nop
     648:	0001                	nop
     64a:	0001                	nop
     64c:	0001                	nop
     64e:	0001                	nop
     650:	0001                	nop
     652:	0001                	nop
     654:	0001                	nop
     656:	0001                	nop
     658:	0001                	nop
     65a:	0001                	nop
     65c:	0001                	nop
     65e:	0001                	nop
     660:	0001                	nop
     662:	0001                	nop
     664:	0001                	nop
     666:	0001                	nop
     668:	0001                	nop
     66a:	0001                	nop
     66c:	0001                	nop
     66e:	0001                	nop
     670:	0001                	nop
     672:	0001                	nop
     674:	0001                	nop
     676:	0001                	nop
     678:	0001                	nop
     67a:	0001                	nop
     67c:	0001                	nop
     67e:	0001                	nop
     680:	0001                	nop
     682:	0001                	nop
     684:	0001                	nop
     686:	0001                	nop
     688:	0001                	nop
     68a:	0001                	nop
     68c:	0001                	nop
     68e:	0001                	nop
     690:	0001                	nop
     692:	0001                	nop
     694:	0001                	nop
     696:	0001                	nop
     698:	0001                	nop
     69a:	0001                	nop
     69c:	0001                	nop
     69e:	0001                	nop
     6a0:	0001                	nop
     6a2:	0001                	nop
     6a4:	0001                	nop
     6a6:	0001                	nop
     6a8:	0001                	nop
     6aa:	0001                	nop
     6ac:	0001                	nop
     6ae:	0001                	nop
     6b0:	0001                	nop
     6b2:	0001                	nop
     6b4:	0001                	nop
     6b6:	0001                	nop
     6b8:	0001                	nop
     6ba:	0001                	nop
     6bc:	0001                	nop
     6be:	0001                	nop
     6c0:	0001                	nop
     6c2:	0001                	nop
     6c4:	0001                	nop
     6c6:	0001                	nop
     6c8:	0001                	nop
     6ca:	0001                	nop
     6cc:	0001                	nop
     6ce:	0001                	nop
     6d0:	0001                	nop
     6d2:	0001                	nop
     6d4:	0001                	nop
     6d6:	0001                	nop
     6d8:	0001                	nop
     6da:	0001                	nop
     6dc:	0001                	nop
     6de:	0001                	nop
     6e0:	0001                	nop
     6e2:	0001                	nop
     6e4:	0001                	nop
     6e6:	0001                	nop
     6e8:	0001                	nop
     6ea:	0001                	nop
     6ec:	0001                	nop
     6ee:	0001                	nop
     6f0:	0001                	nop
     6f2:	0001                	nop
     6f4:	0001                	nop
     6f6:	0001                	nop
     6f8:	0001                	nop
     6fa:	0001                	nop
     6fc:	0001                	nop
     6fe:	0001                	nop
     700:	0001                	nop
     702:	0001                	nop
     704:	0001                	nop
     706:	0001                	nop
     708:	0001                	nop
     70a:	0001                	nop
     70c:	0001                	nop
     70e:	0001                	nop
     710:	0001                	nop
     712:	0001                	nop
     714:	0001                	nop
     716:	0001                	nop
     718:	0001                	nop
     71a:	0001                	nop
     71c:	0001                	nop
     71e:	0001                	nop
     720:	0001                	nop
     722:	0001                	nop
     724:	0001                	nop
     726:	0001                	nop
     728:	0001                	nop
     72a:	0001                	nop
     72c:	0001                	nop
     72e:	0001                	nop
     730:	0001                	nop
     732:	0001                	nop
     734:	0001                	nop
     736:	0001                	nop
     738:	0001                	nop
     73a:	0001                	nop
     73c:	0001                	nop
     73e:	0001                	nop
     740:	0001                	nop
     742:	0001                	nop
     744:	0001                	nop
     746:	0001                	nop
     748:	0001                	nop
     74a:	0001                	nop
     74c:	0001                	nop
     74e:	0001                	nop
     750:	0001                	nop
     752:	0001                	nop
     754:	0001                	nop
     756:	0001                	nop
     758:	0001                	nop
     75a:	0001                	nop
     75c:	0001                	nop
     75e:	0001                	nop
     760:	0001                	nop
     762:	0001                	nop
     764:	0001                	nop
     766:	0001                	nop
     768:	0001                	nop
     76a:	0001                	nop
     76c:	0001                	nop
     76e:	0001                	nop
     770:	0001                	nop
     772:	0001                	nop
     774:	0001                	nop
     776:	0001                	nop
     778:	0001                	nop
     77a:	0001                	nop
     77c:	0001                	nop
     77e:	0001                	nop
     780:	0001                	nop
     782:	0001                	nop
     784:	0001                	nop
     786:	0001                	nop
     788:	0001                	nop
     78a:	0001                	nop
     78c:	0001                	nop
     78e:	0001                	nop
     790:	0001                	nop
     792:	0001                	nop
     794:	0001                	nop
     796:	0001                	nop
     798:	0001                	nop
     79a:	0001                	nop
     79c:	0001                	nop
     79e:	0001                	nop
     7a0:	0001                	nop
     7a2:	0001                	nop
     7a4:	0001                	nop
     7a6:	0001                	nop
     7a8:	0001                	nop
     7aa:	0001                	nop
     7ac:	0001                	nop
     7ae:	0001                	nop
     7b0:	0001                	nop
     7b2:	0001                	nop
     7b4:	0001                	nop
     7b6:	0001                	nop
     7b8:	0001                	nop
     7ba:	0001                	nop
     7bc:	0001                	nop
     7be:	0001                	nop
     7c0:	0001                	nop
     7c2:	0001                	nop
     7c4:	0001                	nop
     7c6:	0001                	nop
     7c8:	0001                	nop
     7ca:	0001                	nop
     7cc:	0001                	nop
     7ce:	0001                	nop
     7d0:	0001                	nop
     7d2:	0001                	nop
     7d4:	0001                	nop
     7d6:	0001                	nop
     7d8:	0001                	nop
     7da:	0001                	nop
     7dc:	0001                	nop
     7de:	0001                	nop
     7e0:	0001                	nop
     7e2:	0001                	nop
     7e4:	0001                	nop
     7e6:	0001                	nop
     7e8:	0001                	nop
     7ea:	0001                	nop
     7ec:	0001                	nop
     7ee:	0001                	nop
     7f0:	0001                	nop
     7f2:	0001                	nop
     7f4:	0001                	nop
     7f6:	0001                	nop
     7f8:	0001                	nop
     7fa:	0001                	nop
     7fc:	0001                	nop
     7fe:	0001                	nop
     800:	0001                	nop
     802:	0001                	nop
     804:	0001                	nop
     806:	0001                	nop
     808:	0001                	nop
     80a:	0001                	nop
     80c:	0001                	nop
     80e:	0001                	nop
     810:	0001                	nop
     812:	0001                	nop
     814:	0001                	nop
     816:	0001                	nop
     818:	0001                	nop
     81a:	0001                	nop
     81c:	0001                	nop
     81e:	0001                	nop
     820:	0001                	nop
     822:	0001                	nop
     824:	0001                	nop
     826:	0001                	nop
     828:	0001                	nop
     82a:	0001                	nop
     82c:	0001                	nop
     82e:	0001                	nop
     830:	0001                	nop
     832:	0001                	nop
     834:	0001                	nop
     836:	0001                	nop
     838:	0001                	nop
     83a:	0001                	nop
     83c:	0001                	nop
     83e:	0001                	nop
     840:	0001                	nop
     842:	0001                	nop
     844:	0001                	nop
     846:	0001                	nop
     848:	0001                	nop
     84a:	0001                	nop
     84c:	0001                	nop
     84e:	0001                	nop
     850:	0001                	nop
     852:	0001                	nop
     854:	0001                	nop
     856:	0001                	nop
     858:	0001                	nop
     85a:	0001                	nop
     85c:	0001                	nop
     85e:	0001                	nop
     860:	0001                	nop
     862:	0001                	nop
     864:	0001                	nop
     866:	0001                	nop
     868:	0001                	nop
     86a:	0001                	nop
     86c:	0001                	nop
     86e:	0001                	nop
     870:	0001                	nop
     872:	0001                	nop
     874:	0001                	nop
     876:	0001                	nop
     878:	0001                	nop
     87a:	0001                	nop
     87c:	0001                	nop
     87e:	0001                	nop
     880:	0001                	nop
     882:	0001                	nop
     884:	0001                	nop
     886:	0001                	nop
     888:	0001                	nop
     88a:	0001                	nop
     88c:	0001                	nop
     88e:	0001                	nop
     890:	0001                	nop
     892:	0001                	nop
     894:	0001                	nop
     896:	0001                	nop
     898:	0001                	nop
     89a:	0001                	nop
     89c:	0001                	nop
     89e:	0001                	nop
     8a0:	0001                	nop
     8a2:	0001                	nop
     8a4:	0001                	nop
     8a6:	0001                	nop
     8a8:	0001                	nop
     8aa:	0001                	nop
     8ac:	0001                	nop
     8ae:	0001                	nop
     8b0:	0001                	nop
     8b2:	0001                	nop
     8b4:	0001                	nop
     8b6:	0001                	nop
     8b8:	0001                	nop
     8ba:	0001                	nop
     8bc:	0001                	nop
     8be:	0001                	nop
     8c0:	0001                	nop
     8c2:	0001                	nop
     8c4:	0001                	nop
     8c6:	0001                	nop
     8c8:	0001                	nop
     8ca:	0001                	nop
     8cc:	0001                	nop
     8ce:	0001                	nop
     8d0:	0001                	nop
     8d2:	0001                	nop
     8d4:	0001                	nop
     8d6:	0001                	nop
     8d8:	0001                	nop
     8da:	0001                	nop
     8dc:	0001                	nop
     8de:	0001                	nop
     8e0:	0001                	nop
     8e2:	0001                	nop
     8e4:	0001                	nop
     8e6:	0001                	nop
     8e8:	0001                	nop
     8ea:	0001                	nop
     8ec:	0001                	nop
     8ee:	0001                	nop
     8f0:	0001                	nop
     8f2:	0001                	nop
     8f4:	0001                	nop
     8f6:	0001                	nop
     8f8:	0001                	nop
     8fa:	0001                	nop
     8fc:	0001                	nop
     8fe:	0001                	nop
     900:	0001                	nop
     902:	0001                	nop
     904:	0001                	nop
     906:	0001                	nop
     908:	0001                	nop
     90a:	0001                	nop
     90c:	0001                	nop
     90e:	0001                	nop
     910:	0001                	nop
     912:	0001                	nop
     914:	0001                	nop
     916:	0001                	nop
     918:	0001                	nop
     91a:	0001                	nop
     91c:	0001                	nop
     91e:	0001                	nop
     920:	0001                	nop
     922:	0001                	nop
     924:	0001                	nop
     926:	0001                	nop
     928:	0001                	nop
     92a:	0001                	nop
     92c:	0001                	nop
     92e:	0001                	nop
     930:	0001                	nop
     932:	0001                	nop
     934:	0001                	nop
     936:	0001                	nop
     938:	0001                	nop
     93a:	0001                	nop
     93c:	0001                	nop
     93e:	0001                	nop
     940:	0001                	nop
     942:	0001                	nop
     944:	0001                	nop
     946:	0001                	nop
     948:	0001                	nop
     94a:	0001                	nop
     94c:	0001                	nop
     94e:	0001                	nop
     950:	0001                	nop
     952:	0001                	nop
     954:	0001                	nop
     956:	0001                	nop
     958:	0001                	nop
     95a:	0001                	nop
     95c:	0001                	nop
     95e:	0001                	nop
     960:	0001                	nop
     962:	0001                	nop
     964:	0001                	nop
     966:	0001                	nop
     968:	0001                	nop
     96a:	0001                	nop
     96c:	0001                	nop
     96e:	0001                	nop
     970:	0001                	nop
     972:	0001                	nop
     974:	0001                	nop
     976:	0001                	nop
     978:	0001                	nop
     97a:	0001                	nop
     97c:	0001                	nop
     97e:	0001                	nop
     980:	0001                	nop
     982:	0001                	nop
     984:	0001                	nop
     986:	0001                	nop
     988:	0001                	nop
     98a:	0001                	nop
     98c:	0001                	nop
     98e:	0001                	nop
     990:	0001                	nop
     992:	0001                	nop
     994:	0001                	nop
     996:	0001                	nop
     998:	0001                	nop
     99a:	0001                	nop
     99c:	0001                	nop
     99e:	0001                	nop
     9a0:	0001                	nop
     9a2:	0001                	nop
     9a4:	0001                	nop
     9a6:	0001                	nop
     9a8:	0001                	nop
     9aa:	0001                	nop
     9ac:	0001                	nop
     9ae:	0001                	nop
     9b0:	0001                	nop
     9b2:	0001                	nop
     9b4:	0001                	nop
     9b6:	0001                	nop
     9b8:	0001                	nop
     9ba:	0001                	nop
     9bc:	0001                	nop
     9be:	0001                	nop
     9c0:	0001                	nop
     9c2:	0001                	nop
     9c4:	0001                	nop
     9c6:	0001                	nop
     9c8:	0001                	nop
     9ca:	0001                	nop
     9cc:	0001                	nop
     9ce:	0001                	nop
     9d0:	0001                	nop
     9d2:	0001                	nop
     9d4:	0001                	nop
     9d6:	0001                	nop
     9d8:	0001                	nop
     9da:	0001                	nop
     9dc:	0001                	nop
     9de:	0001                	nop
     9e0:	0001                	nop
     9e2:	0001                	nop
     9e4:	0001                	nop
     9e6:	0001                	nop
     9e8:	0001                	nop
     9ea:	0001                	nop
     9ec:	0001                	nop
     9ee:	0001                	nop
     9f0:	0001                	nop
     9f2:	0001                	nop
     9f4:	0001                	nop
     9f6:	0001                	nop
     9f8:	0001                	nop
     9fa:	0001                	nop
     9fc:	0001                	nop
     9fe:	0001                	nop
     a00:	0001                	nop
     a02:	0001                	nop
     a04:	0001                	nop
     a06:	0001                	nop
     a08:	0001                	nop
     a0a:	0001                	nop
     a0c:	0001                	nop
     a0e:	0001                	nop
     a10:	0030c093          	xor	ra,ra,3
     a14:	00000197          	auipc	gp,0x0
     a18:	bf218193          	add	gp,gp,-1038 # 606 <inst_8>
     a1c:	ffc1f193          	and	gp,gp,-4
     a20:	403080b3          	sub	ra,ra,gp
     a24:	d006                	sw	ra,32(sp)

00000a26 <inst_9>:
     a26:	a811                	j	a3a <inst_9+0x14>
     a28:	0010c093          	xor	ra,ra,1
     a2c:	01c0006f          	j	a48 <inst_9+0x22>
     a30:	0001                	nop
     a32:	0001                	nop
     a34:	0001                	nop
     a36:	0001                	nop
     a38:	0001                	nop
     a3a:	37fd                	jal	a28 <inst_9+0x2>
     a3c:	0020c093          	xor	ra,ra,2
     a40:	0080006f          	j	a48 <inst_9+0x22>
     a44:	0030c093          	xor	ra,ra,3
     a48:	00000197          	auipc	gp,0x0
     a4c:	fde18193          	add	gp,gp,-34 # a26 <inst_9>
     a50:	ffc1f193          	and	gp,gp,-4
     a54:	403080b3          	sub	ra,ra,gp
     a58:	d206                	sw	ra,36(sp)

00000a5a <inst_10>:
     a5a:	a015                	j	a7e <inst_10+0x24>
     a5c:	0010c093          	xor	ra,ra,1
     a60:	02c0006f          	j	a8c <inst_10+0x32>
     a64:	0001                	nop
     a66:	0001                	nop
     a68:	0001                	nop
     a6a:	0001                	nop
     a6c:	0001                	nop
     a6e:	0001                	nop
     a70:	0001                	nop
     a72:	0001                	nop
     a74:	0001                	nop
     a76:	0001                	nop
     a78:	0001                	nop
     a7a:	0001                	nop
     a7c:	0001                	nop
     a7e:	3ff9                	jal	a5c <inst_10+0x2>
     a80:	0020c093          	xor	ra,ra,2
     a84:	0080006f          	j	a8c <inst_10+0x32>
     a88:	0030c093          	xor	ra,ra,3
     a8c:	00000197          	auipc	gp,0x0
     a90:	fce18193          	add	gp,gp,-50 # a5a <inst_10>
     a94:	ffc1f193          	and	gp,gp,-4
     a98:	403080b3          	sub	ra,ra,gp
     a9c:	d406                	sw	ra,40(sp)

00000a9e <inst_11>:
     a9e:	a111                	j	ea2 <inst_11+0x404>
     aa0:	0010c093          	xor	ra,ra,1
     aa4:	40c0006f          	j	eb0 <inst_11+0x412>
     aa8:	0001                	nop
     aaa:	0001                	nop
     aac:	0001                	nop
     aae:	0001                	nop
     ab0:	0001                	nop
     ab2:	0001                	nop
     ab4:	0001                	nop
     ab6:	0001                	nop
     ab8:	0001                	nop
     aba:	0001                	nop
     abc:	0001                	nop
     abe:	0001                	nop
     ac0:	0001                	nop
     ac2:	0001                	nop
     ac4:	0001                	nop
     ac6:	0001                	nop
     ac8:	0001                	nop
     aca:	0001                	nop
     acc:	0001                	nop
     ace:	0001                	nop
     ad0:	0001                	nop
     ad2:	0001                	nop
     ad4:	0001                	nop
     ad6:	0001                	nop
     ad8:	0001                	nop
     ada:	0001                	nop
     adc:	0001                	nop
     ade:	0001                	nop
     ae0:	0001                	nop
     ae2:	0001                	nop
     ae4:	0001                	nop
     ae6:	0001                	nop
     ae8:	0001                	nop
     aea:	0001                	nop
     aec:	0001                	nop
     aee:	0001                	nop
     af0:	0001                	nop
     af2:	0001                	nop
     af4:	0001                	nop
     af6:	0001                	nop
     af8:	0001                	nop
     afa:	0001                	nop
     afc:	0001                	nop
     afe:	0001                	nop
     b00:	0001                	nop
     b02:	0001                	nop
     b04:	0001                	nop
     b06:	0001                	nop
     b08:	0001                	nop
     b0a:	0001                	nop
     b0c:	0001                	nop
     b0e:	0001                	nop
     b10:	0001                	nop
     b12:	0001                	nop
     b14:	0001                	nop
     b16:	0001                	nop
     b18:	0001                	nop
     b1a:	0001                	nop
     b1c:	0001                	nop
     b1e:	0001                	nop
     b20:	0001                	nop
     b22:	0001                	nop
     b24:	0001                	nop
     b26:	0001                	nop
     b28:	0001                	nop
     b2a:	0001                	nop
     b2c:	0001                	nop
     b2e:	0001                	nop
     b30:	0001                	nop
     b32:	0001                	nop
     b34:	0001                	nop
     b36:	0001                	nop
     b38:	0001                	nop
     b3a:	0001                	nop
     b3c:	0001                	nop
     b3e:	0001                	nop
     b40:	0001                	nop
     b42:	0001                	nop
     b44:	0001                	nop
     b46:	0001                	nop
     b48:	0001                	nop
     b4a:	0001                	nop
     b4c:	0001                	nop
     b4e:	0001                	nop
     b50:	0001                	nop
     b52:	0001                	nop
     b54:	0001                	nop
     b56:	0001                	nop
     b58:	0001                	nop
     b5a:	0001                	nop
     b5c:	0001                	nop
     b5e:	0001                	nop
     b60:	0001                	nop
     b62:	0001                	nop
     b64:	0001                	nop
     b66:	0001                	nop
     b68:	0001                	nop
     b6a:	0001                	nop
     b6c:	0001                	nop
     b6e:	0001                	nop
     b70:	0001                	nop
     b72:	0001                	nop
     b74:	0001                	nop
     b76:	0001                	nop
     b78:	0001                	nop
     b7a:	0001                	nop
     b7c:	0001                	nop
     b7e:	0001                	nop
     b80:	0001                	nop
     b82:	0001                	nop
     b84:	0001                	nop
     b86:	0001                	nop
     b88:	0001                	nop
     b8a:	0001                	nop
     b8c:	0001                	nop
     b8e:	0001                	nop
     b90:	0001                	nop
     b92:	0001                	nop
     b94:	0001                	nop
     b96:	0001                	nop
     b98:	0001                	nop
     b9a:	0001                	nop
     b9c:	0001                	nop
     b9e:	0001                	nop
     ba0:	0001                	nop
     ba2:	0001                	nop
     ba4:	0001                	nop
     ba6:	0001                	nop
     ba8:	0001                	nop
     baa:	0001                	nop
     bac:	0001                	nop
     bae:	0001                	nop
     bb0:	0001                	nop
     bb2:	0001                	nop
     bb4:	0001                	nop
     bb6:	0001                	nop
     bb8:	0001                	nop
     bba:	0001                	nop
     bbc:	0001                	nop
     bbe:	0001                	nop
     bc0:	0001                	nop
     bc2:	0001                	nop
     bc4:	0001                	nop
     bc6:	0001                	nop
     bc8:	0001                	nop
     bca:	0001                	nop
     bcc:	0001                	nop
     bce:	0001                	nop
     bd0:	0001                	nop
     bd2:	0001                	nop
     bd4:	0001                	nop
     bd6:	0001                	nop
     bd8:	0001                	nop
     bda:	0001                	nop
     bdc:	0001                	nop
     bde:	0001                	nop
     be0:	0001                	nop
     be2:	0001                	nop
     be4:	0001                	nop
     be6:	0001                	nop
     be8:	0001                	nop
     bea:	0001                	nop
     bec:	0001                	nop
     bee:	0001                	nop
     bf0:	0001                	nop
     bf2:	0001                	nop
     bf4:	0001                	nop
     bf6:	0001                	nop
     bf8:	0001                	nop
     bfa:	0001                	nop
     bfc:	0001                	nop
     bfe:	0001                	nop
     c00:	0001                	nop
     c02:	0001                	nop
     c04:	0001                	nop
     c06:	0001                	nop
     c08:	0001                	nop
     c0a:	0001                	nop
     c0c:	0001                	nop
     c0e:	0001                	nop
     c10:	0001                	nop
     c12:	0001                	nop
     c14:	0001                	nop
     c16:	0001                	nop
     c18:	0001                	nop
     c1a:	0001                	nop
     c1c:	0001                	nop
     c1e:	0001                	nop
     c20:	0001                	nop
     c22:	0001                	nop
     c24:	0001                	nop
     c26:	0001                	nop
     c28:	0001                	nop
     c2a:	0001                	nop
     c2c:	0001                	nop
     c2e:	0001                	nop
     c30:	0001                	nop
     c32:	0001                	nop
     c34:	0001                	nop
     c36:	0001                	nop
     c38:	0001                	nop
     c3a:	0001                	nop
     c3c:	0001                	nop
     c3e:	0001                	nop
     c40:	0001                	nop
     c42:	0001                	nop
     c44:	0001                	nop
     c46:	0001                	nop
     c48:	0001                	nop
     c4a:	0001                	nop
     c4c:	0001                	nop
     c4e:	0001                	nop
     c50:	0001                	nop
     c52:	0001                	nop
     c54:	0001                	nop
     c56:	0001                	nop
     c58:	0001                	nop
     c5a:	0001                	nop
     c5c:	0001                	nop
     c5e:	0001                	nop
     c60:	0001                	nop
     c62:	0001                	nop
     c64:	0001                	nop
     c66:	0001                	nop
     c68:	0001                	nop
     c6a:	0001                	nop
     c6c:	0001                	nop
     c6e:	0001                	nop
     c70:	0001                	nop
     c72:	0001                	nop
     c74:	0001                	nop
     c76:	0001                	nop
     c78:	0001                	nop
     c7a:	0001                	nop
     c7c:	0001                	nop
     c7e:	0001                	nop
     c80:	0001                	nop
     c82:	0001                	nop
     c84:	0001                	nop
     c86:	0001                	nop
     c88:	0001                	nop
     c8a:	0001                	nop
     c8c:	0001                	nop
     c8e:	0001                	nop
     c90:	0001                	nop
     c92:	0001                	nop
     c94:	0001                	nop
     c96:	0001                	nop
     c98:	0001                	nop
     c9a:	0001                	nop
     c9c:	0001                	nop
     c9e:	0001                	nop
     ca0:	0001                	nop
     ca2:	0001                	nop
     ca4:	0001                	nop
     ca6:	0001                	nop
     ca8:	0001                	nop
     caa:	0001                	nop
     cac:	0001                	nop
     cae:	0001                	nop
     cb0:	0001                	nop
     cb2:	0001                	nop
     cb4:	0001                	nop
     cb6:	0001                	nop
     cb8:	0001                	nop
     cba:	0001                	nop
     cbc:	0001                	nop
     cbe:	0001                	nop
     cc0:	0001                	nop
     cc2:	0001                	nop
     cc4:	0001                	nop
     cc6:	0001                	nop
     cc8:	0001                	nop
     cca:	0001                	nop
     ccc:	0001                	nop
     cce:	0001                	nop
     cd0:	0001                	nop
     cd2:	0001                	nop
     cd4:	0001                	nop
     cd6:	0001                	nop
     cd8:	0001                	nop
     cda:	0001                	nop
     cdc:	0001                	nop
     cde:	0001                	nop
     ce0:	0001                	nop
     ce2:	0001                	nop
     ce4:	0001                	nop
     ce6:	0001                	nop
     ce8:	0001                	nop
     cea:	0001                	nop
     cec:	0001                	nop
     cee:	0001                	nop
     cf0:	0001                	nop
     cf2:	0001                	nop
     cf4:	0001                	nop
     cf6:	0001                	nop
     cf8:	0001                	nop
     cfa:	0001                	nop
     cfc:	0001                	nop
     cfe:	0001                	nop
     d00:	0001                	nop
     d02:	0001                	nop
     d04:	0001                	nop
     d06:	0001                	nop
     d08:	0001                	nop
     d0a:	0001                	nop
     d0c:	0001                	nop
     d0e:	0001                	nop
     d10:	0001                	nop
     d12:	0001                	nop
     d14:	0001                	nop
     d16:	0001                	nop
     d18:	0001                	nop
     d1a:	0001                	nop
     d1c:	0001                	nop
     d1e:	0001                	nop
     d20:	0001                	nop
     d22:	0001                	nop
     d24:	0001                	nop
     d26:	0001                	nop
     d28:	0001                	nop
     d2a:	0001                	nop
     d2c:	0001                	nop
     d2e:	0001                	nop
     d30:	0001                	nop
     d32:	0001                	nop
     d34:	0001                	nop
     d36:	0001                	nop
     d38:	0001                	nop
     d3a:	0001                	nop
     d3c:	0001                	nop
     d3e:	0001                	nop
     d40:	0001                	nop
     d42:	0001                	nop
     d44:	0001                	nop
     d46:	0001                	nop
     d48:	0001                	nop
     d4a:	0001                	nop
     d4c:	0001                	nop
     d4e:	0001                	nop
     d50:	0001                	nop
     d52:	0001                	nop
     d54:	0001                	nop
     d56:	0001                	nop
     d58:	0001                	nop
     d5a:	0001                	nop
     d5c:	0001                	nop
     d5e:	0001                	nop
     d60:	0001                	nop
     d62:	0001                	nop
     d64:	0001                	nop
     d66:	0001                	nop
     d68:	0001                	nop
     d6a:	0001                	nop
     d6c:	0001                	nop
     d6e:	0001                	nop
     d70:	0001                	nop
     d72:	0001                	nop
     d74:	0001                	nop
     d76:	0001                	nop
     d78:	0001                	nop
     d7a:	0001                	nop
     d7c:	0001                	nop
     d7e:	0001                	nop
     d80:	0001                	nop
     d82:	0001                	nop
     d84:	0001                	nop
     d86:	0001                	nop
     d88:	0001                	nop
     d8a:	0001                	nop
     d8c:	0001                	nop
     d8e:	0001                	nop
     d90:	0001                	nop
     d92:	0001                	nop
     d94:	0001                	nop
     d96:	0001                	nop
     d98:	0001                	nop
     d9a:	0001                	nop
     d9c:	0001                	nop
     d9e:	0001                	nop
     da0:	0001                	nop
     da2:	0001                	nop
     da4:	0001                	nop
     da6:	0001                	nop
     da8:	0001                	nop
     daa:	0001                	nop
     dac:	0001                	nop
     dae:	0001                	nop
     db0:	0001                	nop
     db2:	0001                	nop
     db4:	0001                	nop
     db6:	0001                	nop
     db8:	0001                	nop
     dba:	0001                	nop
     dbc:	0001                	nop
     dbe:	0001                	nop
     dc0:	0001                	nop
     dc2:	0001                	nop
     dc4:	0001                	nop
     dc6:	0001                	nop
     dc8:	0001                	nop
     dca:	0001                	nop
     dcc:	0001                	nop
     dce:	0001                	nop
     dd0:	0001                	nop
     dd2:	0001                	nop
     dd4:	0001                	nop
     dd6:	0001                	nop
     dd8:	0001                	nop
     dda:	0001                	nop
     ddc:	0001                	nop
     dde:	0001                	nop
     de0:	0001                	nop
     de2:	0001                	nop
     de4:	0001                	nop
     de6:	0001                	nop
     de8:	0001                	nop
     dea:	0001                	nop
     dec:	0001                	nop
     dee:	0001                	nop
     df0:	0001                	nop
     df2:	0001                	nop
     df4:	0001                	nop
     df6:	0001                	nop
     df8:	0001                	nop
     dfa:	0001                	nop
     dfc:	0001                	nop
     dfe:	0001                	nop
     e00:	0001                	nop
     e02:	0001                	nop
     e04:	0001                	nop
     e06:	0001                	nop
     e08:	0001                	nop
     e0a:	0001                	nop
     e0c:	0001                	nop
     e0e:	0001                	nop
     e10:	0001                	nop
     e12:	0001                	nop
     e14:	0001                	nop
     e16:	0001                	nop
     e18:	0001                	nop
     e1a:	0001                	nop
     e1c:	0001                	nop
     e1e:	0001                	nop
     e20:	0001                	nop
     e22:	0001                	nop
     e24:	0001                	nop
     e26:	0001                	nop
     e28:	0001                	nop
     e2a:	0001                	nop
     e2c:	0001                	nop
     e2e:	0001                	nop
     e30:	0001                	nop
     e32:	0001                	nop
     e34:	0001                	nop
     e36:	0001                	nop
     e38:	0001                	nop
     e3a:	0001                	nop
     e3c:	0001                	nop
     e3e:	0001                	nop
     e40:	0001                	nop
     e42:	0001                	nop
     e44:	0001                	nop
     e46:	0001                	nop
     e48:	0001                	nop
     e4a:	0001                	nop
     e4c:	0001                	nop
     e4e:	0001                	nop
     e50:	0001                	nop
     e52:	0001                	nop
     e54:	0001                	nop
     e56:	0001                	nop
     e58:	0001                	nop
     e5a:	0001                	nop
     e5c:	0001                	nop
     e5e:	0001                	nop
     e60:	0001                	nop
     e62:	0001                	nop
     e64:	0001                	nop
     e66:	0001                	nop
     e68:	0001                	nop
     e6a:	0001                	nop
     e6c:	0001                	nop
     e6e:	0001                	nop
     e70:	0001                	nop
     e72:	0001                	nop
     e74:	0001                	nop
     e76:	0001                	nop
     e78:	0001                	nop
     e7a:	0001                	nop
     e7c:	0001                	nop
     e7e:	0001                	nop
     e80:	0001                	nop
     e82:	0001                	nop
     e84:	0001                	nop
     e86:	0001                	nop
     e88:	0001                	nop
     e8a:	0001                	nop
     e8c:	0001                	nop
     e8e:	0001                	nop
     e90:	0001                	nop
     e92:	0001                	nop
     e94:	0001                	nop
     e96:	0001                	nop
     e98:	0001                	nop
     e9a:	0001                	nop
     e9c:	0001                	nop
     e9e:	0001                	nop
     ea0:	0001                	nop
     ea2:	3efd                	jal	aa0 <inst_11+0x2>
     ea4:	0020c093          	xor	ra,ra,2
     ea8:	0080006f          	j	eb0 <inst_11+0x412>
     eac:	0030c093          	xor	ra,ra,3
     eb0:	00000197          	auipc	gp,0x0
     eb4:	bee18193          	add	gp,gp,-1042 # a9e <inst_11>
     eb8:	ffc1f193          	and	gp,gp,-4
     ebc:	403080b3          	sub	ra,ra,gp
     ec0:	d606                	sw	ra,44(sp)

00000ec2 <inst_12>:
     ec2:	aba1                	j	141a <inst_12+0x558>
     ec4:	0010c093          	xor	ra,ra,1
     ec8:	5600006f          	j	1428 <inst_12+0x566>
     ecc:	0001                	nop
     ece:	0001                	nop
     ed0:	0001                	nop
     ed2:	0001                	nop
     ed4:	0001                	nop
     ed6:	0001                	nop
     ed8:	0001                	nop
     eda:	0001                	nop
     edc:	0001                	nop
     ede:	0001                	nop
     ee0:	0001                	nop
     ee2:	0001                	nop
     ee4:	0001                	nop
     ee6:	0001                	nop
     ee8:	0001                	nop
     eea:	0001                	nop
     eec:	0001                	nop
     eee:	0001                	nop
     ef0:	0001                	nop
     ef2:	0001                	nop
     ef4:	0001                	nop
     ef6:	0001                	nop
     ef8:	0001                	nop
     efa:	0001                	nop
     efc:	0001                	nop
     efe:	0001                	nop
     f00:	0001                	nop
     f02:	0001                	nop
     f04:	0001                	nop
     f06:	0001                	nop
     f08:	0001                	nop
     f0a:	0001                	nop
     f0c:	0001                	nop
     f0e:	0001                	nop
     f10:	0001                	nop
     f12:	0001                	nop
     f14:	0001                	nop
     f16:	0001                	nop
     f18:	0001                	nop
     f1a:	0001                	nop
     f1c:	0001                	nop
     f1e:	0001                	nop
     f20:	0001                	nop
     f22:	0001                	nop
     f24:	0001                	nop
     f26:	0001                	nop
     f28:	0001                	nop
     f2a:	0001                	nop
     f2c:	0001                	nop
     f2e:	0001                	nop
     f30:	0001                	nop
     f32:	0001                	nop
     f34:	0001                	nop
     f36:	0001                	nop
     f38:	0001                	nop
     f3a:	0001                	nop
     f3c:	0001                	nop
     f3e:	0001                	nop
     f40:	0001                	nop
     f42:	0001                	nop
     f44:	0001                	nop
     f46:	0001                	nop
     f48:	0001                	nop
     f4a:	0001                	nop
     f4c:	0001                	nop
     f4e:	0001                	nop
     f50:	0001                	nop
     f52:	0001                	nop
     f54:	0001                	nop
     f56:	0001                	nop
     f58:	0001                	nop
     f5a:	0001                	nop
     f5c:	0001                	nop
     f5e:	0001                	nop
     f60:	0001                	nop
     f62:	0001                	nop
     f64:	0001                	nop
     f66:	0001                	nop
     f68:	0001                	nop
     f6a:	0001                	nop
     f6c:	0001                	nop
     f6e:	0001                	nop
     f70:	0001                	nop
     f72:	0001                	nop
     f74:	0001                	nop
     f76:	0001                	nop
     f78:	0001                	nop
     f7a:	0001                	nop
     f7c:	0001                	nop
     f7e:	0001                	nop
     f80:	0001                	nop
     f82:	0001                	nop
     f84:	0001                	nop
     f86:	0001                	nop
     f88:	0001                	nop
     f8a:	0001                	nop
     f8c:	0001                	nop
     f8e:	0001                	nop
     f90:	0001                	nop
     f92:	0001                	nop
     f94:	0001                	nop
     f96:	0001                	nop
     f98:	0001                	nop
     f9a:	0001                	nop
     f9c:	0001                	nop
     f9e:	0001                	nop
     fa0:	0001                	nop
     fa2:	0001                	nop
     fa4:	0001                	nop
     fa6:	0001                	nop
     fa8:	0001                	nop
     faa:	0001                	nop
     fac:	0001                	nop
     fae:	0001                	nop
     fb0:	0001                	nop
     fb2:	0001                	nop
     fb4:	0001                	nop
     fb6:	0001                	nop
     fb8:	0001                	nop
     fba:	0001                	nop
     fbc:	0001                	nop
     fbe:	0001                	nop
     fc0:	0001                	nop
     fc2:	0001                	nop
     fc4:	0001                	nop
     fc6:	0001                	nop
     fc8:	0001                	nop
     fca:	0001                	nop
     fcc:	0001                	nop
     fce:	0001                	nop
     fd0:	0001                	nop
     fd2:	0001                	nop
     fd4:	0001                	nop
     fd6:	0001                	nop
     fd8:	0001                	nop
     fda:	0001                	nop
     fdc:	0001                	nop
     fde:	0001                	nop
     fe0:	0001                	nop
     fe2:	0001                	nop
     fe4:	0001                	nop
     fe6:	0001                	nop
     fe8:	0001                	nop
     fea:	0001                	nop
     fec:	0001                	nop
     fee:	0001                	nop
     ff0:	0001                	nop
     ff2:	0001                	nop
     ff4:	0001                	nop
     ff6:	0001                	nop
     ff8:	0001                	nop
     ffa:	0001                	nop
     ffc:	0001                	nop
     ffe:	0001                	nop
    1000:	0001                	nop
    1002:	0001                	nop
    1004:	0001                	nop
    1006:	0001                	nop
    1008:	0001                	nop
    100a:	0001                	nop
    100c:	0001                	nop
    100e:	0001                	nop
    1010:	0001                	nop
    1012:	0001                	nop
    1014:	0001                	nop
    1016:	0001                	nop
    1018:	0001                	nop
    101a:	0001                	nop
    101c:	0001                	nop
    101e:	0001                	nop
    1020:	0001                	nop
    1022:	0001                	nop
    1024:	0001                	nop
    1026:	0001                	nop
    1028:	0001                	nop
    102a:	0001                	nop
    102c:	0001                	nop
    102e:	0001                	nop
    1030:	0001                	nop
    1032:	0001                	nop
    1034:	0001                	nop
    1036:	0001                	nop
    1038:	0001                	nop
    103a:	0001                	nop
    103c:	0001                	nop
    103e:	0001                	nop
    1040:	0001                	nop
    1042:	0001                	nop
    1044:	0001                	nop
    1046:	0001                	nop
    1048:	0001                	nop
    104a:	0001                	nop
    104c:	0001                	nop
    104e:	0001                	nop
    1050:	0001                	nop
    1052:	0001                	nop
    1054:	0001                	nop
    1056:	0001                	nop
    1058:	0001                	nop
    105a:	0001                	nop
    105c:	0001                	nop
    105e:	0001                	nop
    1060:	0001                	nop
    1062:	0001                	nop
    1064:	0001                	nop
    1066:	0001                	nop
    1068:	0001                	nop
    106a:	0001                	nop
    106c:	0001                	nop
    106e:	0001                	nop
    1070:	0001                	nop
    1072:	0001                	nop
    1074:	0001                	nop
    1076:	0001                	nop
    1078:	0001                	nop
    107a:	0001                	nop
    107c:	0001                	nop
    107e:	0001                	nop
    1080:	0001                	nop
    1082:	0001                	nop
    1084:	0001                	nop
    1086:	0001                	nop
    1088:	0001                	nop
    108a:	0001                	nop
    108c:	0001                	nop
    108e:	0001                	nop
    1090:	0001                	nop
    1092:	0001                	nop
    1094:	0001                	nop
    1096:	0001                	nop
    1098:	0001                	nop
    109a:	0001                	nop
    109c:	0001                	nop
    109e:	0001                	nop
    10a0:	0001                	nop
    10a2:	0001                	nop
    10a4:	0001                	nop
    10a6:	0001                	nop
    10a8:	0001                	nop
    10aa:	0001                	nop
    10ac:	0001                	nop
    10ae:	0001                	nop
    10b0:	0001                	nop
    10b2:	0001                	nop
    10b4:	0001                	nop
    10b6:	0001                	nop
    10b8:	0001                	nop
    10ba:	0001                	nop
    10bc:	0001                	nop
    10be:	0001                	nop
    10c0:	0001                	nop
    10c2:	0001                	nop
    10c4:	0001                	nop
    10c6:	0001                	nop
    10c8:	0001                	nop
    10ca:	0001                	nop
    10cc:	0001                	nop
    10ce:	0001                	nop
    10d0:	0001                	nop
    10d2:	0001                	nop
    10d4:	0001                	nop
    10d6:	0001                	nop
    10d8:	0001                	nop
    10da:	0001                	nop
    10dc:	0001                	nop
    10de:	0001                	nop
    10e0:	0001                	nop
    10e2:	0001                	nop
    10e4:	0001                	nop
    10e6:	0001                	nop
    10e8:	0001                	nop
    10ea:	0001                	nop
    10ec:	0001                	nop
    10ee:	0001                	nop
    10f0:	0001                	nop
    10f2:	0001                	nop
    10f4:	0001                	nop
    10f6:	0001                	nop
    10f8:	0001                	nop
    10fa:	0001                	nop
    10fc:	0001                	nop
    10fe:	0001                	nop
    1100:	0001                	nop
    1102:	0001                	nop
    1104:	0001                	nop
    1106:	0001                	nop
    1108:	0001                	nop
    110a:	0001                	nop
    110c:	0001                	nop
    110e:	0001                	nop
    1110:	0001                	nop
    1112:	0001                	nop
    1114:	0001                	nop
    1116:	0001                	nop
    1118:	0001                	nop
    111a:	0001                	nop
    111c:	0001                	nop
    111e:	0001                	nop
    1120:	0001                	nop
    1122:	0001                	nop
    1124:	0001                	nop
    1126:	0001                	nop
    1128:	0001                	nop
    112a:	0001                	nop
    112c:	0001                	nop
    112e:	0001                	nop
    1130:	0001                	nop
    1132:	0001                	nop
    1134:	0001                	nop
    1136:	0001                	nop
    1138:	0001                	nop
    113a:	0001                	nop
    113c:	0001                	nop
    113e:	0001                	nop
    1140:	0001                	nop
    1142:	0001                	nop
    1144:	0001                	nop
    1146:	0001                	nop
    1148:	0001                	nop
    114a:	0001                	nop
    114c:	0001                	nop
    114e:	0001                	nop
    1150:	0001                	nop
    1152:	0001                	nop
    1154:	0001                	nop
    1156:	0001                	nop
    1158:	0001                	nop
    115a:	0001                	nop
    115c:	0001                	nop
    115e:	0001                	nop
    1160:	0001                	nop
    1162:	0001                	nop
    1164:	0001                	nop
    1166:	0001                	nop
    1168:	0001                	nop
    116a:	0001                	nop
    116c:	0001                	nop
    116e:	0001                	nop
    1170:	0001                	nop
    1172:	0001                	nop
    1174:	0001                	nop
    1176:	0001                	nop
    1178:	0001                	nop
    117a:	0001                	nop
    117c:	0001                	nop
    117e:	0001                	nop
    1180:	0001                	nop
    1182:	0001                	nop
    1184:	0001                	nop
    1186:	0001                	nop
    1188:	0001                	nop
    118a:	0001                	nop
    118c:	0001                	nop
    118e:	0001                	nop
    1190:	0001                	nop
    1192:	0001                	nop
    1194:	0001                	nop
    1196:	0001                	nop
    1198:	0001                	nop
    119a:	0001                	nop
    119c:	0001                	nop
    119e:	0001                	nop
    11a0:	0001                	nop
    11a2:	0001                	nop
    11a4:	0001                	nop
    11a6:	0001                	nop
    11a8:	0001                	nop
    11aa:	0001                	nop
    11ac:	0001                	nop
    11ae:	0001                	nop
    11b0:	0001                	nop
    11b2:	0001                	nop
    11b4:	0001                	nop
    11b6:	0001                	nop
    11b8:	0001                	nop
    11ba:	0001                	nop
    11bc:	0001                	nop
    11be:	0001                	nop
    11c0:	0001                	nop
    11c2:	0001                	nop
    11c4:	0001                	nop
    11c6:	0001                	nop
    11c8:	0001                	nop
    11ca:	0001                	nop
    11cc:	0001                	nop
    11ce:	0001                	nop
    11d0:	0001                	nop
    11d2:	0001                	nop
    11d4:	0001                	nop
    11d6:	0001                	nop
    11d8:	0001                	nop
    11da:	0001                	nop
    11dc:	0001                	nop
    11de:	0001                	nop
    11e0:	0001                	nop
    11e2:	0001                	nop
    11e4:	0001                	nop
    11e6:	0001                	nop
    11e8:	0001                	nop
    11ea:	0001                	nop
    11ec:	0001                	nop
    11ee:	0001                	nop
    11f0:	0001                	nop
    11f2:	0001                	nop
    11f4:	0001                	nop
    11f6:	0001                	nop
    11f8:	0001                	nop
    11fa:	0001                	nop
    11fc:	0001                	nop
    11fe:	0001                	nop
    1200:	0001                	nop
    1202:	0001                	nop
    1204:	0001                	nop
    1206:	0001                	nop
    1208:	0001                	nop
    120a:	0001                	nop
    120c:	0001                	nop
    120e:	0001                	nop
    1210:	0001                	nop
    1212:	0001                	nop
    1214:	0001                	nop
    1216:	0001                	nop
    1218:	0001                	nop
    121a:	0001                	nop
    121c:	0001                	nop
    121e:	0001                	nop
    1220:	0001                	nop
    1222:	0001                	nop
    1224:	0001                	nop
    1226:	0001                	nop
    1228:	0001                	nop
    122a:	0001                	nop
    122c:	0001                	nop
    122e:	0001                	nop
    1230:	0001                	nop
    1232:	0001                	nop
    1234:	0001                	nop
    1236:	0001                	nop
    1238:	0001                	nop
    123a:	0001                	nop
    123c:	0001                	nop
    123e:	0001                	nop
    1240:	0001                	nop
    1242:	0001                	nop
    1244:	0001                	nop
    1246:	0001                	nop
    1248:	0001                	nop
    124a:	0001                	nop
    124c:	0001                	nop
    124e:	0001                	nop
    1250:	0001                	nop
    1252:	0001                	nop
    1254:	0001                	nop
    1256:	0001                	nop
    1258:	0001                	nop
    125a:	0001                	nop
    125c:	0001                	nop
    125e:	0001                	nop
    1260:	0001                	nop
    1262:	0001                	nop
    1264:	0001                	nop
    1266:	0001                	nop
    1268:	0001                	nop
    126a:	0001                	nop
    126c:	0001                	nop
    126e:	0001                	nop
    1270:	0001                	nop
    1272:	0001                	nop
    1274:	0001                	nop
    1276:	0001                	nop
    1278:	0001                	nop
    127a:	0001                	nop
    127c:	0001                	nop
    127e:	0001                	nop
    1280:	0001                	nop
    1282:	0001                	nop
    1284:	0001                	nop
    1286:	0001                	nop
    1288:	0001                	nop
    128a:	0001                	nop
    128c:	0001                	nop
    128e:	0001                	nop
    1290:	0001                	nop
    1292:	0001                	nop
    1294:	0001                	nop
    1296:	0001                	nop
    1298:	0001                	nop
    129a:	0001                	nop
    129c:	0001                	nop
    129e:	0001                	nop
    12a0:	0001                	nop
    12a2:	0001                	nop
    12a4:	0001                	nop
    12a6:	0001                	nop
    12a8:	0001                	nop
    12aa:	0001                	nop
    12ac:	0001                	nop
    12ae:	0001                	nop
    12b0:	0001                	nop
    12b2:	0001                	nop
    12b4:	0001                	nop
    12b6:	0001                	nop
    12b8:	0001                	nop
    12ba:	0001                	nop
    12bc:	0001                	nop
    12be:	0001                	nop
    12c0:	0001                	nop
    12c2:	0001                	nop
    12c4:	0001                	nop
    12c6:	0001                	nop
    12c8:	0001                	nop
    12ca:	0001                	nop
    12cc:	0001                	nop
    12ce:	0001                	nop
    12d0:	0001                	nop
    12d2:	0001                	nop
    12d4:	0001                	nop
    12d6:	0001                	nop
    12d8:	0001                	nop
    12da:	0001                	nop
    12dc:	0001                	nop
    12de:	0001                	nop
    12e0:	0001                	nop
    12e2:	0001                	nop
    12e4:	0001                	nop
    12e6:	0001                	nop
    12e8:	0001                	nop
    12ea:	0001                	nop
    12ec:	0001                	nop
    12ee:	0001                	nop
    12f0:	0001                	nop
    12f2:	0001                	nop
    12f4:	0001                	nop
    12f6:	0001                	nop
    12f8:	0001                	nop
    12fa:	0001                	nop
    12fc:	0001                	nop
    12fe:	0001                	nop
    1300:	0001                	nop
    1302:	0001                	nop
    1304:	0001                	nop
    1306:	0001                	nop
    1308:	0001                	nop
    130a:	0001                	nop
    130c:	0001                	nop
    130e:	0001                	nop
    1310:	0001                	nop
    1312:	0001                	nop
    1314:	0001                	nop
    1316:	0001                	nop
    1318:	0001                	nop
    131a:	0001                	nop
    131c:	0001                	nop
    131e:	0001                	nop
    1320:	0001                	nop
    1322:	0001                	nop
    1324:	0001                	nop
    1326:	0001                	nop
    1328:	0001                	nop
    132a:	0001                	nop
    132c:	0001                	nop
    132e:	0001                	nop
    1330:	0001                	nop
    1332:	0001                	nop
    1334:	0001                	nop
    1336:	0001                	nop
    1338:	0001                	nop
    133a:	0001                	nop
    133c:	0001                	nop
    133e:	0001                	nop
    1340:	0001                	nop
    1342:	0001                	nop
    1344:	0001                	nop
    1346:	0001                	nop
    1348:	0001                	nop
    134a:	0001                	nop
    134c:	0001                	nop
    134e:	0001                	nop
    1350:	0001                	nop
    1352:	0001                	nop
    1354:	0001                	nop
    1356:	0001                	nop
    1358:	0001                	nop
    135a:	0001                	nop
    135c:	0001                	nop
    135e:	0001                	nop
    1360:	0001                	nop
    1362:	0001                	nop
    1364:	0001                	nop
    1366:	0001                	nop
    1368:	0001                	nop
    136a:	0001                	nop
    136c:	0001                	nop
    136e:	0001                	nop
    1370:	0001                	nop
    1372:	0001                	nop
    1374:	0001                	nop
    1376:	0001                	nop
    1378:	0001                	nop
    137a:	0001                	nop
    137c:	0001                	nop
    137e:	0001                	nop
    1380:	0001                	nop
    1382:	0001                	nop
    1384:	0001                	nop
    1386:	0001                	nop
    1388:	0001                	nop
    138a:	0001                	nop
    138c:	0001                	nop
    138e:	0001                	nop
    1390:	0001                	nop
    1392:	0001                	nop
    1394:	0001                	nop
    1396:	0001                	nop
    1398:	0001                	nop
    139a:	0001                	nop
    139c:	0001                	nop
    139e:	0001                	nop
    13a0:	0001                	nop
    13a2:	0001                	nop
    13a4:	0001                	nop
    13a6:	0001                	nop
    13a8:	0001                	nop
    13aa:	0001                	nop
    13ac:	0001                	nop
    13ae:	0001                	nop
    13b0:	0001                	nop
    13b2:	0001                	nop
    13b4:	0001                	nop
    13b6:	0001                	nop
    13b8:	0001                	nop
    13ba:	0001                	nop
    13bc:	0001                	nop
    13be:	0001                	nop
    13c0:	0001                	nop
    13c2:	0001                	nop
    13c4:	0001                	nop
    13c6:	0001                	nop
    13c8:	0001                	nop
    13ca:	0001                	nop
    13cc:	0001                	nop
    13ce:	0001                	nop
    13d0:	0001                	nop
    13d2:	0001                	nop
    13d4:	0001                	nop
    13d6:	0001                	nop
    13d8:	0001                	nop
    13da:	0001                	nop
    13dc:	0001                	nop
    13de:	0001                	nop
    13e0:	0001                	nop
    13e2:	0001                	nop
    13e4:	0001                	nop
    13e6:	0001                	nop
    13e8:	0001                	nop
    13ea:	0001                	nop
    13ec:	0001                	nop
    13ee:	0001                	nop
    13f0:	0001                	nop
    13f2:	0001                	nop
    13f4:	0001                	nop
    13f6:	0001                	nop
    13f8:	0001                	nop
    13fa:	0001                	nop
    13fc:	0001                	nop
    13fe:	0001                	nop
    1400:	0001                	nop
    1402:	0001                	nop
    1404:	0001                	nop
    1406:	0001                	nop
    1408:	0001                	nop
    140a:	0001                	nop
    140c:	0001                	nop
    140e:	0001                	nop
    1410:	0001                	nop
    1412:	0001                	nop
    1414:	0001                	nop
    1416:	0001                	nop
    1418:	0001                	nop
    141a:	346d                	jal	ec4 <inst_12+0x2>
    141c:	0020c093          	xor	ra,ra,2
    1420:	0080006f          	j	1428 <inst_12+0x566>
    1424:	0030c093          	xor	ra,ra,3
    1428:	00000197          	auipc	gp,0x0
    142c:	a9a18193          	add	gp,gp,-1382 # ec2 <inst_12>
    1430:	ffc1f193          	and	gp,gp,-4
    1434:	403080b3          	sub	ra,ra,gp
    1438:	d806                	sw	ra,48(sp)

0000143a <inst_13>:
    143a:	a029                	j	1444 <inst_13+0xa>
    143c:	0010c093          	xor	ra,ra,1
    1440:	55c0006f          	j	199c <inst_13+0x562>
    1444:	2b91                	jal	1998 <inst_13+0x55e>
    1446:	0020c093          	xor	ra,ra,2
    144a:	5520006f          	j	199c <inst_13+0x562>
    144e:	0001                	nop
    1450:	0001                	nop
    1452:	0001                	nop
    1454:	0001                	nop
    1456:	0001                	nop
    1458:	0001                	nop
    145a:	0001                	nop
    145c:	0001                	nop
    145e:	0001                	nop
    1460:	0001                	nop
    1462:	0001                	nop
    1464:	0001                	nop
    1466:	0001                	nop
    1468:	0001                	nop
    146a:	0001                	nop
    146c:	0001                	nop
    146e:	0001                	nop
    1470:	0001                	nop
    1472:	0001                	nop
    1474:	0001                	nop
    1476:	0001                	nop
    1478:	0001                	nop
    147a:	0001                	nop
    147c:	0001                	nop
    147e:	0001                	nop
    1480:	0001                	nop
    1482:	0001                	nop
    1484:	0001                	nop
    1486:	0001                	nop
    1488:	0001                	nop
    148a:	0001                	nop
    148c:	0001                	nop
    148e:	0001                	nop
    1490:	0001                	nop
    1492:	0001                	nop
    1494:	0001                	nop
    1496:	0001                	nop
    1498:	0001                	nop
    149a:	0001                	nop
    149c:	0001                	nop
    149e:	0001                	nop
    14a0:	0001                	nop
    14a2:	0001                	nop
    14a4:	0001                	nop
    14a6:	0001                	nop
    14a8:	0001                	nop
    14aa:	0001                	nop
    14ac:	0001                	nop
    14ae:	0001                	nop
    14b0:	0001                	nop
    14b2:	0001                	nop
    14b4:	0001                	nop
    14b6:	0001                	nop
    14b8:	0001                	nop
    14ba:	0001                	nop
    14bc:	0001                	nop
    14be:	0001                	nop
    14c0:	0001                	nop
    14c2:	0001                	nop
    14c4:	0001                	nop
    14c6:	0001                	nop
    14c8:	0001                	nop
    14ca:	0001                	nop
    14cc:	0001                	nop
    14ce:	0001                	nop
    14d0:	0001                	nop
    14d2:	0001                	nop
    14d4:	0001                	nop
    14d6:	0001                	nop
    14d8:	0001                	nop
    14da:	0001                	nop
    14dc:	0001                	nop
    14de:	0001                	nop
    14e0:	0001                	nop
    14e2:	0001                	nop
    14e4:	0001                	nop
    14e6:	0001                	nop
    14e8:	0001                	nop
    14ea:	0001                	nop
    14ec:	0001                	nop
    14ee:	0001                	nop
    14f0:	0001                	nop
    14f2:	0001                	nop
    14f4:	0001                	nop
    14f6:	0001                	nop
    14f8:	0001                	nop
    14fa:	0001                	nop
    14fc:	0001                	nop
    14fe:	0001                	nop
    1500:	0001                	nop
    1502:	0001                	nop
    1504:	0001                	nop
    1506:	0001                	nop
    1508:	0001                	nop
    150a:	0001                	nop
    150c:	0001                	nop
    150e:	0001                	nop
    1510:	0001                	nop
    1512:	0001                	nop
    1514:	0001                	nop
    1516:	0001                	nop
    1518:	0001                	nop
    151a:	0001                	nop
    151c:	0001                	nop
    151e:	0001                	nop
    1520:	0001                	nop
    1522:	0001                	nop
    1524:	0001                	nop
    1526:	0001                	nop
    1528:	0001                	nop
    152a:	0001                	nop
    152c:	0001                	nop
    152e:	0001                	nop
    1530:	0001                	nop
    1532:	0001                	nop
    1534:	0001                	nop
    1536:	0001                	nop
    1538:	0001                	nop
    153a:	0001                	nop
    153c:	0001                	nop
    153e:	0001                	nop
    1540:	0001                	nop
    1542:	0001                	nop
    1544:	0001                	nop
    1546:	0001                	nop
    1548:	0001                	nop
    154a:	0001                	nop
    154c:	0001                	nop
    154e:	0001                	nop
    1550:	0001                	nop
    1552:	0001                	nop
    1554:	0001                	nop
    1556:	0001                	nop
    1558:	0001                	nop
    155a:	0001                	nop
    155c:	0001                	nop
    155e:	0001                	nop
    1560:	0001                	nop
    1562:	0001                	nop
    1564:	0001                	nop
    1566:	0001                	nop
    1568:	0001                	nop
    156a:	0001                	nop
    156c:	0001                	nop
    156e:	0001                	nop
    1570:	0001                	nop
    1572:	0001                	nop
    1574:	0001                	nop
    1576:	0001                	nop
    1578:	0001                	nop
    157a:	0001                	nop
    157c:	0001                	nop
    157e:	0001                	nop
    1580:	0001                	nop
    1582:	0001                	nop
    1584:	0001                	nop
    1586:	0001                	nop
    1588:	0001                	nop
    158a:	0001                	nop
    158c:	0001                	nop
    158e:	0001                	nop
    1590:	0001                	nop
    1592:	0001                	nop
    1594:	0001                	nop
    1596:	0001                	nop
    1598:	0001                	nop
    159a:	0001                	nop
    159c:	0001                	nop
    159e:	0001                	nop
    15a0:	0001                	nop
    15a2:	0001                	nop
    15a4:	0001                	nop
    15a6:	0001                	nop
    15a8:	0001                	nop
    15aa:	0001                	nop
    15ac:	0001                	nop
    15ae:	0001                	nop
    15b0:	0001                	nop
    15b2:	0001                	nop
    15b4:	0001                	nop
    15b6:	0001                	nop
    15b8:	0001                	nop
    15ba:	0001                	nop
    15bc:	0001                	nop
    15be:	0001                	nop
    15c0:	0001                	nop
    15c2:	0001                	nop
    15c4:	0001                	nop
    15c6:	0001                	nop
    15c8:	0001                	nop
    15ca:	0001                	nop
    15cc:	0001                	nop
    15ce:	0001                	nop
    15d0:	0001                	nop
    15d2:	0001                	nop
    15d4:	0001                	nop
    15d6:	0001                	nop
    15d8:	0001                	nop
    15da:	0001                	nop
    15dc:	0001                	nop
    15de:	0001                	nop
    15e0:	0001                	nop
    15e2:	0001                	nop
    15e4:	0001                	nop
    15e6:	0001                	nop
    15e8:	0001                	nop
    15ea:	0001                	nop
    15ec:	0001                	nop
    15ee:	0001                	nop
    15f0:	0001                	nop
    15f2:	0001                	nop
    15f4:	0001                	nop
    15f6:	0001                	nop
    15f8:	0001                	nop
    15fa:	0001                	nop
    15fc:	0001                	nop
    15fe:	0001                	nop
    1600:	0001                	nop
    1602:	0001                	nop
    1604:	0001                	nop
    1606:	0001                	nop
    1608:	0001                	nop
    160a:	0001                	nop
    160c:	0001                	nop
    160e:	0001                	nop
    1610:	0001                	nop
    1612:	0001                	nop
    1614:	0001                	nop
    1616:	0001                	nop
    1618:	0001                	nop
    161a:	0001                	nop
    161c:	0001                	nop
    161e:	0001                	nop
    1620:	0001                	nop
    1622:	0001                	nop
    1624:	0001                	nop
    1626:	0001                	nop
    1628:	0001                	nop
    162a:	0001                	nop
    162c:	0001                	nop
    162e:	0001                	nop
    1630:	0001                	nop
    1632:	0001                	nop
    1634:	0001                	nop
    1636:	0001                	nop
    1638:	0001                	nop
    163a:	0001                	nop
    163c:	0001                	nop
    163e:	0001                	nop
    1640:	0001                	nop
    1642:	0001                	nop
    1644:	0001                	nop
    1646:	0001                	nop
    1648:	0001                	nop
    164a:	0001                	nop
    164c:	0001                	nop
    164e:	0001                	nop
    1650:	0001                	nop
    1652:	0001                	nop
    1654:	0001                	nop
    1656:	0001                	nop
    1658:	0001                	nop
    165a:	0001                	nop
    165c:	0001                	nop
    165e:	0001                	nop
    1660:	0001                	nop
    1662:	0001                	nop
    1664:	0001                	nop
    1666:	0001                	nop
    1668:	0001                	nop
    166a:	0001                	nop
    166c:	0001                	nop
    166e:	0001                	nop
    1670:	0001                	nop
    1672:	0001                	nop
    1674:	0001                	nop
    1676:	0001                	nop
    1678:	0001                	nop
    167a:	0001                	nop
    167c:	0001                	nop
    167e:	0001                	nop
    1680:	0001                	nop
    1682:	0001                	nop
    1684:	0001                	nop
    1686:	0001                	nop
    1688:	0001                	nop
    168a:	0001                	nop
    168c:	0001                	nop
    168e:	0001                	nop
    1690:	0001                	nop
    1692:	0001                	nop
    1694:	0001                	nop
    1696:	0001                	nop
    1698:	0001                	nop
    169a:	0001                	nop
    169c:	0001                	nop
    169e:	0001                	nop
    16a0:	0001                	nop
    16a2:	0001                	nop
    16a4:	0001                	nop
    16a6:	0001                	nop
    16a8:	0001                	nop
    16aa:	0001                	nop
    16ac:	0001                	nop
    16ae:	0001                	nop
    16b0:	0001                	nop
    16b2:	0001                	nop
    16b4:	0001                	nop
    16b6:	0001                	nop
    16b8:	0001                	nop
    16ba:	0001                	nop
    16bc:	0001                	nop
    16be:	0001                	nop
    16c0:	0001                	nop
    16c2:	0001                	nop
    16c4:	0001                	nop
    16c6:	0001                	nop
    16c8:	0001                	nop
    16ca:	0001                	nop
    16cc:	0001                	nop
    16ce:	0001                	nop
    16d0:	0001                	nop
    16d2:	0001                	nop
    16d4:	0001                	nop
    16d6:	0001                	nop
    16d8:	0001                	nop
    16da:	0001                	nop
    16dc:	0001                	nop
    16de:	0001                	nop
    16e0:	0001                	nop
    16e2:	0001                	nop
    16e4:	0001                	nop
    16e6:	0001                	nop
    16e8:	0001                	nop
    16ea:	0001                	nop
    16ec:	0001                	nop
    16ee:	0001                	nop
    16f0:	0001                	nop
    16f2:	0001                	nop
    16f4:	0001                	nop
    16f6:	0001                	nop
    16f8:	0001                	nop
    16fa:	0001                	nop
    16fc:	0001                	nop
    16fe:	0001                	nop
    1700:	0001                	nop
    1702:	0001                	nop
    1704:	0001                	nop
    1706:	0001                	nop
    1708:	0001                	nop
    170a:	0001                	nop
    170c:	0001                	nop
    170e:	0001                	nop
    1710:	0001                	nop
    1712:	0001                	nop
    1714:	0001                	nop
    1716:	0001                	nop
    1718:	0001                	nop
    171a:	0001                	nop
    171c:	0001                	nop
    171e:	0001                	nop
    1720:	0001                	nop
    1722:	0001                	nop
    1724:	0001                	nop
    1726:	0001                	nop
    1728:	0001                	nop
    172a:	0001                	nop
    172c:	0001                	nop
    172e:	0001                	nop
    1730:	0001                	nop
    1732:	0001                	nop
    1734:	0001                	nop
    1736:	0001                	nop
    1738:	0001                	nop
    173a:	0001                	nop
    173c:	0001                	nop
    173e:	0001                	nop
    1740:	0001                	nop
    1742:	0001                	nop
    1744:	0001                	nop
    1746:	0001                	nop
    1748:	0001                	nop
    174a:	0001                	nop
    174c:	0001                	nop
    174e:	0001                	nop
    1750:	0001                	nop
    1752:	0001                	nop
    1754:	0001                	nop
    1756:	0001                	nop
    1758:	0001                	nop
    175a:	0001                	nop
    175c:	0001                	nop
    175e:	0001                	nop
    1760:	0001                	nop
    1762:	0001                	nop
    1764:	0001                	nop
    1766:	0001                	nop
    1768:	0001                	nop
    176a:	0001                	nop
    176c:	0001                	nop
    176e:	0001                	nop
    1770:	0001                	nop
    1772:	0001                	nop
    1774:	0001                	nop
    1776:	0001                	nop
    1778:	0001                	nop
    177a:	0001                	nop
    177c:	0001                	nop
    177e:	0001                	nop
    1780:	0001                	nop
    1782:	0001                	nop
    1784:	0001                	nop
    1786:	0001                	nop
    1788:	0001                	nop
    178a:	0001                	nop
    178c:	0001                	nop
    178e:	0001                	nop
    1790:	0001                	nop
    1792:	0001                	nop
    1794:	0001                	nop
    1796:	0001                	nop
    1798:	0001                	nop
    179a:	0001                	nop
    179c:	0001                	nop
    179e:	0001                	nop
    17a0:	0001                	nop
    17a2:	0001                	nop
    17a4:	0001                	nop
    17a6:	0001                	nop
    17a8:	0001                	nop
    17aa:	0001                	nop
    17ac:	0001                	nop
    17ae:	0001                	nop
    17b0:	0001                	nop
    17b2:	0001                	nop
    17b4:	0001                	nop
    17b6:	0001                	nop
    17b8:	0001                	nop
    17ba:	0001                	nop
    17bc:	0001                	nop
    17be:	0001                	nop
    17c0:	0001                	nop
    17c2:	0001                	nop
    17c4:	0001                	nop
    17c6:	0001                	nop
    17c8:	0001                	nop
    17ca:	0001                	nop
    17cc:	0001                	nop
    17ce:	0001                	nop
    17d0:	0001                	nop
    17d2:	0001                	nop
    17d4:	0001                	nop
    17d6:	0001                	nop
    17d8:	0001                	nop
    17da:	0001                	nop
    17dc:	0001                	nop
    17de:	0001                	nop
    17e0:	0001                	nop
    17e2:	0001                	nop
    17e4:	0001                	nop
    17e6:	0001                	nop
    17e8:	0001                	nop
    17ea:	0001                	nop
    17ec:	0001                	nop
    17ee:	0001                	nop
    17f0:	0001                	nop
    17f2:	0001                	nop
    17f4:	0001                	nop
    17f6:	0001                	nop
    17f8:	0001                	nop
    17fa:	0001                	nop
    17fc:	0001                	nop
    17fe:	0001                	nop
    1800:	0001                	nop
    1802:	0001                	nop
    1804:	0001                	nop
    1806:	0001                	nop
    1808:	0001                	nop
    180a:	0001                	nop
    180c:	0001                	nop
    180e:	0001                	nop
    1810:	0001                	nop
    1812:	0001                	nop
    1814:	0001                	nop
    1816:	0001                	nop
    1818:	0001                	nop
    181a:	0001                	nop
    181c:	0001                	nop
    181e:	0001                	nop
    1820:	0001                	nop
    1822:	0001                	nop
    1824:	0001                	nop
    1826:	0001                	nop
    1828:	0001                	nop
    182a:	0001                	nop
    182c:	0001                	nop
    182e:	0001                	nop
    1830:	0001                	nop
    1832:	0001                	nop
    1834:	0001                	nop
    1836:	0001                	nop
    1838:	0001                	nop
    183a:	0001                	nop
    183c:	0001                	nop
    183e:	0001                	nop
    1840:	0001                	nop
    1842:	0001                	nop
    1844:	0001                	nop
    1846:	0001                	nop
    1848:	0001                	nop
    184a:	0001                	nop
    184c:	0001                	nop
    184e:	0001                	nop
    1850:	0001                	nop
    1852:	0001                	nop
    1854:	0001                	nop
    1856:	0001                	nop
    1858:	0001                	nop
    185a:	0001                	nop
    185c:	0001                	nop
    185e:	0001                	nop
    1860:	0001                	nop
    1862:	0001                	nop
    1864:	0001                	nop
    1866:	0001                	nop
    1868:	0001                	nop
    186a:	0001                	nop
    186c:	0001                	nop
    186e:	0001                	nop
    1870:	0001                	nop
    1872:	0001                	nop
    1874:	0001                	nop
    1876:	0001                	nop
    1878:	0001                	nop
    187a:	0001                	nop
    187c:	0001                	nop
    187e:	0001                	nop
    1880:	0001                	nop
    1882:	0001                	nop
    1884:	0001                	nop
    1886:	0001                	nop
    1888:	0001                	nop
    188a:	0001                	nop
    188c:	0001                	nop
    188e:	0001                	nop
    1890:	0001                	nop
    1892:	0001                	nop
    1894:	0001                	nop
    1896:	0001                	nop
    1898:	0001                	nop
    189a:	0001                	nop
    189c:	0001                	nop
    189e:	0001                	nop
    18a0:	0001                	nop
    18a2:	0001                	nop
    18a4:	0001                	nop
    18a6:	0001                	nop
    18a8:	0001                	nop
    18aa:	0001                	nop
    18ac:	0001                	nop
    18ae:	0001                	nop
    18b0:	0001                	nop
    18b2:	0001                	nop
    18b4:	0001                	nop
    18b6:	0001                	nop
    18b8:	0001                	nop
    18ba:	0001                	nop
    18bc:	0001                	nop
    18be:	0001                	nop
    18c0:	0001                	nop
    18c2:	0001                	nop
    18c4:	0001                	nop
    18c6:	0001                	nop
    18c8:	0001                	nop
    18ca:	0001                	nop
    18cc:	0001                	nop
    18ce:	0001                	nop
    18d0:	0001                	nop
    18d2:	0001                	nop
    18d4:	0001                	nop
    18d6:	0001                	nop
    18d8:	0001                	nop
    18da:	0001                	nop
    18dc:	0001                	nop
    18de:	0001                	nop
    18e0:	0001                	nop
    18e2:	0001                	nop
    18e4:	0001                	nop
    18e6:	0001                	nop
    18e8:	0001                	nop
    18ea:	0001                	nop
    18ec:	0001                	nop
    18ee:	0001                	nop
    18f0:	0001                	nop
    18f2:	0001                	nop
    18f4:	0001                	nop
    18f6:	0001                	nop
    18f8:	0001                	nop
    18fa:	0001                	nop
    18fc:	0001                	nop
    18fe:	0001                	nop
    1900:	0001                	nop
    1902:	0001                	nop
    1904:	0001                	nop
    1906:	0001                	nop
    1908:	0001                	nop
    190a:	0001                	nop
    190c:	0001                	nop
    190e:	0001                	nop
    1910:	0001                	nop
    1912:	0001                	nop
    1914:	0001                	nop
    1916:	0001                	nop
    1918:	0001                	nop
    191a:	0001                	nop
    191c:	0001                	nop
    191e:	0001                	nop
    1920:	0001                	nop
    1922:	0001                	nop
    1924:	0001                	nop
    1926:	0001                	nop
    1928:	0001                	nop
    192a:	0001                	nop
    192c:	0001                	nop
    192e:	0001                	nop
    1930:	0001                	nop
    1932:	0001                	nop
    1934:	0001                	nop
    1936:	0001                	nop
    1938:	0001                	nop
    193a:	0001                	nop
    193c:	0001                	nop
    193e:	0001                	nop
    1940:	0001                	nop
    1942:	0001                	nop
    1944:	0001                	nop
    1946:	0001                	nop
    1948:	0001                	nop
    194a:	0001                	nop
    194c:	0001                	nop
    194e:	0001                	nop
    1950:	0001                	nop
    1952:	0001                	nop
    1954:	0001                	nop
    1956:	0001                	nop
    1958:	0001                	nop
    195a:	0001                	nop
    195c:	0001                	nop
    195e:	0001                	nop
    1960:	0001                	nop
    1962:	0001                	nop
    1964:	0001                	nop
    1966:	0001                	nop
    1968:	0001                	nop
    196a:	0001                	nop
    196c:	0001                	nop
    196e:	0001                	nop
    1970:	0001                	nop
    1972:	0001                	nop
    1974:	0001                	nop
    1976:	0001                	nop
    1978:	0001                	nop
    197a:	0001                	nop
    197c:	0001                	nop
    197e:	0001                	nop
    1980:	0001                	nop
    1982:	0001                	nop
    1984:	0001                	nop
    1986:	0001                	nop
    1988:	0001                	nop
    198a:	0001                	nop
    198c:	0001                	nop
    198e:	0001                	nop
    1990:	0001                	nop
    1992:	0001                	nop
    1994:	0001                	nop
    1996:	0001                	nop
    1998:	0030c093          	xor	ra,ra,3
    199c:	00000197          	auipc	gp,0x0
    19a0:	a9e18193          	add	gp,gp,-1378 # 143a <inst_13>
    19a4:	ffc1f193          	and	gp,gp,-4
    19a8:	403080b3          	sub	ra,ra,gp
    19ac:	da06                	sw	ra,52(sp)

000019ae <inst_14>:
    19ae:	a091                	j	19f2 <inst_14+0x44>
    19b0:	0010c093          	xor	ra,ra,1
    19b4:	04c0006f          	j	1a00 <inst_14+0x52>
    19b8:	0001                	nop
    19ba:	0001                	nop
    19bc:	0001                	nop
    19be:	0001                	nop
    19c0:	0001                	nop
    19c2:	0001                	nop
    19c4:	0001                	nop
    19c6:	0001                	nop
    19c8:	0001                	nop
    19ca:	0001                	nop
    19cc:	0001                	nop
    19ce:	0001                	nop
    19d0:	0001                	nop
    19d2:	0001                	nop
    19d4:	0001                	nop
    19d6:	0001                	nop
    19d8:	0001                	nop
    19da:	0001                	nop
    19dc:	0001                	nop
    19de:	0001                	nop
    19e0:	0001                	nop
    19e2:	0001                	nop
    19e4:	0001                	nop
    19e6:	0001                	nop
    19e8:	0001                	nop
    19ea:	0001                	nop
    19ec:	0001                	nop
    19ee:	0001                	nop
    19f0:	0001                	nop
    19f2:	3f7d                	jal	19b0 <inst_14+0x2>
    19f4:	0020c093          	xor	ra,ra,2
    19f8:	0080006f          	j	1a00 <inst_14+0x52>
    19fc:	0030c093          	xor	ra,ra,3
    1a00:	00000197          	auipc	gp,0x0
    1a04:	fae18193          	add	gp,gp,-82 # 19ae <inst_14>
    1a08:	ffc1f193          	and	gp,gp,-4
    1a0c:	403080b3          	sub	ra,ra,gp
    1a10:	dc06                	sw	ra,56(sp)

00001a12 <inst_15>:
    1a12:	a051                	j	1a96 <inst_15+0x84>
    1a14:	0010c093          	xor	ra,ra,1
    1a18:	08c0006f          	j	1aa4 <inst_15+0x92>
    1a1c:	0001                	nop
    1a1e:	0001                	nop
    1a20:	0001                	nop
    1a22:	0001                	nop
    1a24:	0001                	nop
    1a26:	0001                	nop
    1a28:	0001                	nop
    1a2a:	0001                	nop
    1a2c:	0001                	nop
    1a2e:	0001                	nop
    1a30:	0001                	nop
    1a32:	0001                	nop
    1a34:	0001                	nop
    1a36:	0001                	nop
    1a38:	0001                	nop
    1a3a:	0001                	nop
    1a3c:	0001                	nop
    1a3e:	0001                	nop
    1a40:	0001                	nop
    1a42:	0001                	nop
    1a44:	0001                	nop
    1a46:	0001                	nop
    1a48:	0001                	nop
    1a4a:	0001                	nop
    1a4c:	0001                	nop
    1a4e:	0001                	nop
    1a50:	0001                	nop
    1a52:	0001                	nop
    1a54:	0001                	nop
    1a56:	0001                	nop
    1a58:	0001                	nop
    1a5a:	0001                	nop
    1a5c:	0001                	nop
    1a5e:	0001                	nop
    1a60:	0001                	nop
    1a62:	0001                	nop
    1a64:	0001                	nop
    1a66:	0001                	nop
    1a68:	0001                	nop
    1a6a:	0001                	nop
    1a6c:	0001                	nop
    1a6e:	0001                	nop
    1a70:	0001                	nop
    1a72:	0001                	nop
    1a74:	0001                	nop
    1a76:	0001                	nop
    1a78:	0001                	nop
    1a7a:	0001                	nop
    1a7c:	0001                	nop
    1a7e:	0001                	nop
    1a80:	0001                	nop
    1a82:	0001                	nop
    1a84:	0001                	nop
    1a86:	0001                	nop
    1a88:	0001                	nop
    1a8a:	0001                	nop
    1a8c:	0001                	nop
    1a8e:	0001                	nop
    1a90:	0001                	nop
    1a92:	0001                	nop
    1a94:	0001                	nop
    1a96:	3fbd                	jal	1a14 <inst_15+0x2>
    1a98:	0020c093          	xor	ra,ra,2
    1a9c:	0080006f          	j	1aa4 <inst_15+0x92>
    1aa0:	0030c093          	xor	ra,ra,3
    1aa4:	00000197          	auipc	gp,0x0
    1aa8:	f6e18193          	add	gp,gp,-146 # 1a12 <inst_15>
    1aac:	ffc1f193          	and	gp,gp,-4
    1ab0:	403080b3          	sub	ra,ra,gp
    1ab4:	de06                	sw	ra,60(sp)

00001ab6 <inst_16>:
    1ab6:	a211                	j	1bba <inst_16+0x104>
    1ab8:	0010c093          	xor	ra,ra,1
    1abc:	10c0006f          	j	1bc8 <inst_16+0x112>
    1ac0:	0001                	nop
    1ac2:	0001                	nop
    1ac4:	0001                	nop
    1ac6:	0001                	nop
    1ac8:	0001                	nop
    1aca:	0001                	nop
    1acc:	0001                	nop
    1ace:	0001                	nop
    1ad0:	0001                	nop
    1ad2:	0001                	nop
    1ad4:	0001                	nop
    1ad6:	0001                	nop
    1ad8:	0001                	nop
    1ada:	0001                	nop
    1adc:	0001                	nop
    1ade:	0001                	nop
    1ae0:	0001                	nop
    1ae2:	0001                	nop
    1ae4:	0001                	nop
    1ae6:	0001                	nop
    1ae8:	0001                	nop
    1aea:	0001                	nop
    1aec:	0001                	nop
    1aee:	0001                	nop
    1af0:	0001                	nop
    1af2:	0001                	nop
    1af4:	0001                	nop
    1af6:	0001                	nop
    1af8:	0001                	nop
    1afa:	0001                	nop
    1afc:	0001                	nop
    1afe:	0001                	nop
    1b00:	0001                	nop
    1b02:	0001                	nop
    1b04:	0001                	nop
    1b06:	0001                	nop
    1b08:	0001                	nop
    1b0a:	0001                	nop
    1b0c:	0001                	nop
    1b0e:	0001                	nop
    1b10:	0001                	nop
    1b12:	0001                	nop
    1b14:	0001                	nop
    1b16:	0001                	nop
    1b18:	0001                	nop
    1b1a:	0001                	nop
    1b1c:	0001                	nop
    1b1e:	0001                	nop
    1b20:	0001                	nop
    1b22:	0001                	nop
    1b24:	0001                	nop
    1b26:	0001                	nop
    1b28:	0001                	nop
    1b2a:	0001                	nop
    1b2c:	0001                	nop
    1b2e:	0001                	nop
    1b30:	0001                	nop
    1b32:	0001                	nop
    1b34:	0001                	nop
    1b36:	0001                	nop
    1b38:	0001                	nop
    1b3a:	0001                	nop
    1b3c:	0001                	nop
    1b3e:	0001                	nop
    1b40:	0001                	nop
    1b42:	0001                	nop
    1b44:	0001                	nop
    1b46:	0001                	nop
    1b48:	0001                	nop
    1b4a:	0001                	nop
    1b4c:	0001                	nop
    1b4e:	0001                	nop
    1b50:	0001                	nop
    1b52:	0001                	nop
    1b54:	0001                	nop
    1b56:	0001                	nop
    1b58:	0001                	nop
    1b5a:	0001                	nop
    1b5c:	0001                	nop
    1b5e:	0001                	nop
    1b60:	0001                	nop
    1b62:	0001                	nop
    1b64:	0001                	nop
    1b66:	0001                	nop
    1b68:	0001                	nop
    1b6a:	0001                	nop
    1b6c:	0001                	nop
    1b6e:	0001                	nop
    1b70:	0001                	nop
    1b72:	0001                	nop
    1b74:	0001                	nop
    1b76:	0001                	nop
    1b78:	0001                	nop
    1b7a:	0001                	nop
    1b7c:	0001                	nop
    1b7e:	0001                	nop
    1b80:	0001                	nop
    1b82:	0001                	nop
    1b84:	0001                	nop
    1b86:	0001                	nop
    1b88:	0001                	nop
    1b8a:	0001                	nop
    1b8c:	0001                	nop
    1b8e:	0001                	nop
    1b90:	0001                	nop
    1b92:	0001                	nop
    1b94:	0001                	nop
    1b96:	0001                	nop
    1b98:	0001                	nop
    1b9a:	0001                	nop
    1b9c:	0001                	nop
    1b9e:	0001                	nop
    1ba0:	0001                	nop
    1ba2:	0001                	nop
    1ba4:	0001                	nop
    1ba6:	0001                	nop
    1ba8:	0001                	nop
    1baa:	0001                	nop
    1bac:	0001                	nop
    1bae:	0001                	nop
    1bb0:	0001                	nop
    1bb2:	0001                	nop
    1bb4:	0001                	nop
    1bb6:	0001                	nop
    1bb8:	0001                	nop
    1bba:	3dfd                	jal	1ab8 <inst_16+0x2>
    1bbc:	0020c093          	xor	ra,ra,2
    1bc0:	0080006f          	j	1bc8 <inst_16+0x112>
    1bc4:	0030c093          	xor	ra,ra,3
    1bc8:	00000197          	auipc	gp,0x0
    1bcc:	eee18193          	add	gp,gp,-274 # 1ab6 <inst_16>
    1bd0:	ffc1f193          	and	gp,gp,-4
    1bd4:	403080b3          	sub	ra,ra,gp
    1bd8:	c086                	sw	ra,64(sp)

00001bda <inst_17>:
    1bda:	a411                	j	1dde <inst_17+0x204>
    1bdc:	0010c093          	xor	ra,ra,1
    1be0:	20c0006f          	j	1dec <inst_17+0x212>
    1be4:	0001                	nop
    1be6:	0001                	nop
    1be8:	0001                	nop
    1bea:	0001                	nop
    1bec:	0001                	nop
    1bee:	0001                	nop
    1bf0:	0001                	nop
    1bf2:	0001                	nop
    1bf4:	0001                	nop
    1bf6:	0001                	nop
    1bf8:	0001                	nop
    1bfa:	0001                	nop
    1bfc:	0001                	nop
    1bfe:	0001                	nop
    1c00:	0001                	nop
    1c02:	0001                	nop
    1c04:	0001                	nop
    1c06:	0001                	nop
    1c08:	0001                	nop
    1c0a:	0001                	nop
    1c0c:	0001                	nop
    1c0e:	0001                	nop
    1c10:	0001                	nop
    1c12:	0001                	nop
    1c14:	0001                	nop
    1c16:	0001                	nop
    1c18:	0001                	nop
    1c1a:	0001                	nop
    1c1c:	0001                	nop
    1c1e:	0001                	nop
    1c20:	0001                	nop
    1c22:	0001                	nop
    1c24:	0001                	nop
    1c26:	0001                	nop
    1c28:	0001                	nop
    1c2a:	0001                	nop
    1c2c:	0001                	nop
    1c2e:	0001                	nop
    1c30:	0001                	nop
    1c32:	0001                	nop
    1c34:	0001                	nop
    1c36:	0001                	nop
    1c38:	0001                	nop
    1c3a:	0001                	nop
    1c3c:	0001                	nop
    1c3e:	0001                	nop
    1c40:	0001                	nop
    1c42:	0001                	nop
    1c44:	0001                	nop
    1c46:	0001                	nop
    1c48:	0001                	nop
    1c4a:	0001                	nop
    1c4c:	0001                	nop
    1c4e:	0001                	nop
    1c50:	0001                	nop
    1c52:	0001                	nop
    1c54:	0001                	nop
    1c56:	0001                	nop
    1c58:	0001                	nop
    1c5a:	0001                	nop
    1c5c:	0001                	nop
    1c5e:	0001                	nop
    1c60:	0001                	nop
    1c62:	0001                	nop
    1c64:	0001                	nop
    1c66:	0001                	nop
    1c68:	0001                	nop
    1c6a:	0001                	nop
    1c6c:	0001                	nop
    1c6e:	0001                	nop
    1c70:	0001                	nop
    1c72:	0001                	nop
    1c74:	0001                	nop
    1c76:	0001                	nop
    1c78:	0001                	nop
    1c7a:	0001                	nop
    1c7c:	0001                	nop
    1c7e:	0001                	nop
    1c80:	0001                	nop
    1c82:	0001                	nop
    1c84:	0001                	nop
    1c86:	0001                	nop
    1c88:	0001                	nop
    1c8a:	0001                	nop
    1c8c:	0001                	nop
    1c8e:	0001                	nop
    1c90:	0001                	nop
    1c92:	0001                	nop
    1c94:	0001                	nop
    1c96:	0001                	nop
    1c98:	0001                	nop
    1c9a:	0001                	nop
    1c9c:	0001                	nop
    1c9e:	0001                	nop
    1ca0:	0001                	nop
    1ca2:	0001                	nop
    1ca4:	0001                	nop
    1ca6:	0001                	nop
    1ca8:	0001                	nop
    1caa:	0001                	nop
    1cac:	0001                	nop
    1cae:	0001                	nop
    1cb0:	0001                	nop
    1cb2:	0001                	nop
    1cb4:	0001                	nop
    1cb6:	0001                	nop
    1cb8:	0001                	nop
    1cba:	0001                	nop
    1cbc:	0001                	nop
    1cbe:	0001                	nop
    1cc0:	0001                	nop
    1cc2:	0001                	nop
    1cc4:	0001                	nop
    1cc6:	0001                	nop
    1cc8:	0001                	nop
    1cca:	0001                	nop
    1ccc:	0001                	nop
    1cce:	0001                	nop
    1cd0:	0001                	nop
    1cd2:	0001                	nop
    1cd4:	0001                	nop
    1cd6:	0001                	nop
    1cd8:	0001                	nop
    1cda:	0001                	nop
    1cdc:	0001                	nop
    1cde:	0001                	nop
    1ce0:	0001                	nop
    1ce2:	0001                	nop
    1ce4:	0001                	nop
    1ce6:	0001                	nop
    1ce8:	0001                	nop
    1cea:	0001                	nop
    1cec:	0001                	nop
    1cee:	0001                	nop
    1cf0:	0001                	nop
    1cf2:	0001                	nop
    1cf4:	0001                	nop
    1cf6:	0001                	nop
    1cf8:	0001                	nop
    1cfa:	0001                	nop
    1cfc:	0001                	nop
    1cfe:	0001                	nop
    1d00:	0001                	nop
    1d02:	0001                	nop
    1d04:	0001                	nop
    1d06:	0001                	nop
    1d08:	0001                	nop
    1d0a:	0001                	nop
    1d0c:	0001                	nop
    1d0e:	0001                	nop
    1d10:	0001                	nop
    1d12:	0001                	nop
    1d14:	0001                	nop
    1d16:	0001                	nop
    1d18:	0001                	nop
    1d1a:	0001                	nop
    1d1c:	0001                	nop
    1d1e:	0001                	nop
    1d20:	0001                	nop
    1d22:	0001                	nop
    1d24:	0001                	nop
    1d26:	0001                	nop
    1d28:	0001                	nop
    1d2a:	0001                	nop
    1d2c:	0001                	nop
    1d2e:	0001                	nop
    1d30:	0001                	nop
    1d32:	0001                	nop
    1d34:	0001                	nop
    1d36:	0001                	nop
    1d38:	0001                	nop
    1d3a:	0001                	nop
    1d3c:	0001                	nop
    1d3e:	0001                	nop
    1d40:	0001                	nop
    1d42:	0001                	nop
    1d44:	0001                	nop
    1d46:	0001                	nop
    1d48:	0001                	nop
    1d4a:	0001                	nop
    1d4c:	0001                	nop
    1d4e:	0001                	nop
    1d50:	0001                	nop
    1d52:	0001                	nop
    1d54:	0001                	nop
    1d56:	0001                	nop
    1d58:	0001                	nop
    1d5a:	0001                	nop
    1d5c:	0001                	nop
    1d5e:	0001                	nop
    1d60:	0001                	nop
    1d62:	0001                	nop
    1d64:	0001                	nop
    1d66:	0001                	nop
    1d68:	0001                	nop
    1d6a:	0001                	nop
    1d6c:	0001                	nop
    1d6e:	0001                	nop
    1d70:	0001                	nop
    1d72:	0001                	nop
    1d74:	0001                	nop
    1d76:	0001                	nop
    1d78:	0001                	nop
    1d7a:	0001                	nop
    1d7c:	0001                	nop
    1d7e:	0001                	nop
    1d80:	0001                	nop
    1d82:	0001                	nop
    1d84:	0001                	nop
    1d86:	0001                	nop
    1d88:	0001                	nop
    1d8a:	0001                	nop
    1d8c:	0001                	nop
    1d8e:	0001                	nop
    1d90:	0001                	nop
    1d92:	0001                	nop
    1d94:	0001                	nop
    1d96:	0001                	nop
    1d98:	0001                	nop
    1d9a:	0001                	nop
    1d9c:	0001                	nop
    1d9e:	0001                	nop
    1da0:	0001                	nop
    1da2:	0001                	nop
    1da4:	0001                	nop
    1da6:	0001                	nop
    1da8:	0001                	nop
    1daa:	0001                	nop
    1dac:	0001                	nop
    1dae:	0001                	nop
    1db0:	0001                	nop
    1db2:	0001                	nop
    1db4:	0001                	nop
    1db6:	0001                	nop
    1db8:	0001                	nop
    1dba:	0001                	nop
    1dbc:	0001                	nop
    1dbe:	0001                	nop
    1dc0:	0001                	nop
    1dc2:	0001                	nop
    1dc4:	0001                	nop
    1dc6:	0001                	nop
    1dc8:	0001                	nop
    1dca:	0001                	nop
    1dcc:	0001                	nop
    1dce:	0001                	nop
    1dd0:	0001                	nop
    1dd2:	0001                	nop
    1dd4:	0001                	nop
    1dd6:	0001                	nop
    1dd8:	0001                	nop
    1dda:	0001                	nop
    1ddc:	0001                	nop
    1dde:	3bfd                	jal	1bdc <inst_17+0x2>
    1de0:	0020c093          	xor	ra,ra,2
    1de4:	0080006f          	j	1dec <inst_17+0x212>
    1de8:	0030c093          	xor	ra,ra,3
    1dec:	00000197          	auipc	gp,0x0
    1df0:	dee18193          	add	gp,gp,-530 # 1bda <inst_17>
    1df4:	ffc1f193          	and	gp,gp,-4
    1df8:	403080b3          	sub	ra,ra,gp
    1dfc:	c286                	sw	ra,68(sp)
    1dfe:	0001                	nop

00001e00 <rvtest_code_end>:
    1e00:	00000517          	auipc	a0,0x0
    1e04:	21050513          	add	a0,a0,528 # 2010 <data_begin>
    1e08:	00000597          	auipc	a1,0x0
    1e0c:	25858593          	add	a1,a1,600 # 2060 <_end>
    1e10:	80001637          	lui	a2,0x80001
    1e14:	0621                	add	a2,a2,8 # 80001008 <_end+0x7fffefa8>

00001e16 <compliance_halt_loop>:
    1e16:	04b50763          	beq	a0,a1,1e64 <compliance_halt_break>
    1e1a:	00450693          	add	a3,a0,4

00001e1e <compliance_halt_loop2>:
    1e1e:	16fd                	add	a3,a3,-1
    1e20:	00068703          	lb	a4,0(a3)
    1e24:	40475793          	sra	a5,a4,0x4
    1e28:	8bbd                	and	a5,a5,15
    1e2a:	4829                	li	a6,10
    1e2c:	0107c463          	blt	a5,a6,1e34 <notLetter>
    1e30:	02778793          	add	a5,a5,39

00001e34 <notLetter>:
    1e34:	03078793          	add	a5,a5,48
    1e38:	00f60023          	sb	a5,0(a2)
    1e3c:	40075793          	sra	a5,a4,0x0
    1e40:	8bbd                	and	a5,a5,15
    1e42:	4829                	li	a6,10
    1e44:	0107c463          	blt	a5,a6,1e4c <notLetter2>
    1e48:	02778793          	add	a5,a5,39

00001e4c <notLetter2>:
    1e4c:	03078793          	add	a5,a5,48
    1e50:	00f60023          	sb	a5,0(a2)
    1e54:	fcd515e3          	bne	a0,a3,1e1e <compliance_halt_loop2>
    1e58:	0511                	add	a0,a0,4
    1e5a:	4729                	li	a4,10
    1e5c:	00e60023          	sb	a4,0(a2)
    1e60:	bf5d                	j	1e16 <compliance_halt_loop>
    1e62:	a009                	j	1e64 <compliance_halt_break>

00001e64 <compliance_halt_break>:
    1e64:	80001537          	lui	a0,0x80001
    1e68:	0525                	add	a0,a0,9 # 80001009 <_end+0x7fffefa9>
    1e6a:	00d50023          	sb	a3,0(a0)
	...

Desensamblado de la sección .data:

00002000 <rvtest_data_begin>:
    2000:	cafe                	sw	t6,84(sp)
    2002:	babe                	.2byte	0xbabe

00002004 <rvtest_data_end>:
	...

00002010 <data_begin>:
    2010:	deadbeef          	jal	t4,fffdd5fa <_end+0xfffdb59a>
    2014:	deadbeef          	jal	t4,fffdd5fe <_end+0xfffdb59e>
    2018:	deadbeef          	jal	t4,fffdd602 <_end+0xfffdb5a2>
    201c:	deadbeef          	jal	t4,fffdd606 <_end+0xfffdb5a6>
    2020:	deadbeef          	jal	t4,fffdd60a <_end+0xfffdb5aa>
    2024:	deadbeef          	jal	t4,fffdd60e <_end+0xfffdb5ae>
    2028:	deadbeef          	jal	t4,fffdd612 <_end+0xfffdb5b2>
    202c:	deadbeef          	jal	t4,fffdd616 <_end+0xfffdb5b6>
    2030:	deadbeef          	jal	t4,fffdd61a <_end+0xfffdb5ba>
    2034:	deadbeef          	jal	t4,fffdd61e <_end+0xfffdb5be>
    2038:	deadbeef          	jal	t4,fffdd622 <_end+0xfffdb5c2>
    203c:	deadbeef          	jal	t4,fffdd626 <_end+0xfffdb5c6>
    2040:	deadbeef          	jal	t4,fffdd62a <_end+0xfffdb5ca>
    2044:	deadbeef          	jal	t4,fffdd62e <_end+0xfffdb5ce>
    2048:	deadbeef          	jal	t4,fffdd632 <_end+0xfffdb5d2>
    204c:	deadbeef          	jal	t4,fffdd636 <_end+0xfffdb5d6>
    2050:	deadbeef          	jal	t4,fffdd63a <_end+0xfffdb5da>
    2054:	deadbeef          	jal	t4,fffdd63e <_end+0xfffdb5de>
	...

Desensamblado de la sección .riscv.attributes:

00000000 <.riscv.attributes>:
   0:	3541                	jal	fffffe80 <_end+0xffffde20>
   2:	0000                	unimp
   4:	7200                	.2byte	0x7200
   6:	7369                	lui	t1,0xffffa
   8:	01007663          	bgeu	zero,a6,14 <rvtest_entry_point+0x14>
   c:	0000002b          	.4byte	0x2b
  10:	7205                	lui	tp,0xfffe1
  12:	3376                	.2byte	0x3376
  14:	6932                	.2byte	0x6932
  16:	7032                	.2byte	0x7032
  18:	5f30                	lw	a2,120(a4)
  1a:	326d                	jal	fffff9c4 <_end+0xffffd964>
  1c:	3070                	.2byte	0x3070
  1e:	635f 7032 5f30      	.byte	0x5f, 0x63, 0x32, 0x70, 0x30, 0x5f
  24:	6d7a                	.2byte	0x6d7a
  26:	756d                	lui	a0,0xffffb
  28:	316c                	.2byte	0x316c
  2a:	3070                	.2byte	0x3070
  2c:	7a5f 6966 786e      	.byte	0x5f, 0x7a, 0x66, 0x69, 0x6e, 0x78
  32:	7031                	c.lui	zero,0xfffec
  34:	0030                	add	a2,sp,8
