
/home/alejandro/Escritorio/test_riscv2.5/riscv-compliance/work/rv32i_m/C/cjalr-01.elf:     formato del fichero elf32-littleriscv


Desensamblado de la sección .text.init:

00000000 <rvtest_entry_point>:
   0:	feedc0b7          	lui	ra,0xfeedc
   4:	ead08093          	add	ra,ra,-339 # feedbead <_end+0xfeedae1d>
   8:	ff76e137          	lui	sp,0xff76e
   c:	f5610113          	add	sp,sp,-170 # ff76df56 <_end+0xff76cec6>
  10:	7fbb71b7          	lui	gp,0x7fbb7
  14:	fab18193          	add	gp,gp,-85 # 7fbb6fab <_end+0x7fbb5f1b>
  18:	bfddb237          	lui	tp,0xbfddb
  1c:	7d520213          	add	tp,tp,2005 # bfddb7d5 <_end+0xbfdda745>
  20:	00000297          	auipc	t0,0x0
  24:	0d828293          	add	t0,t0,216 # f8 <rvtest_code_begin>
  28:	00001317          	auipc	t1,0x1
  2c:	fd830313          	add	t1,t1,-40 # 1000 <rvtest_data_begin>
  30:	b7fbb3b7          	lui	t2,0xb7fbb
  34:	6fa38393          	add	t2,t2,1786 # b7fbb6fa <_end+0xb7fba66a>
  38:	5bfde437          	lui	s0,0x5bfde
  3c:	b7d40413          	add	s0,s0,-1155 # 5bfddb7d <_end+0x5bfdcaed>
  40:	adfef4b7          	lui	s1,0xadfef
  44:	dbe48493          	add	s1,s1,-578 # adfeedbe <_end+0xadfedd2e>
  48:	56ff7537          	lui	a0,0x56ff7
  4c:	6df50513          	add	a0,a0,1759 # 56ff76df <_end+0x56ff664f>
  50:	ab7fc5b7          	lui	a1,0xab7fc
  54:	b6f58593          	add	a1,a1,-1169 # ab7fbb6f <_end+0xab7faadf>
  58:	d5bfe637          	lui	a2,0xd5bfe
  5c:	db760613          	add	a2,a2,-585 # d5bfddb7 <_end+0xd5bfcd27>
  60:	eadff6b7          	lui	a3,0xeadff
  64:	edb68693          	add	a3,a3,-293 # eadfeedb <_end+0xeadfde4b>
  68:	f56ff737          	lui	a4,0xf56ff
  6c:	76d70713          	add	a4,a4,1901 # f56ff76d <_end+0xf56fe6dd>
  70:	fab807b7          	lui	a5,0xfab80
  74:	bb678793          	add	a5,a5,-1098 # fab7fbb6 <_end+0xfab7eb26>
  78:	7d5c0837          	lui	a6,0x7d5c0
  7c:	ddb80813          	add	a6,a6,-549 # 7d5bfddb <_end+0x7d5bed4b>
  80:	beae08b7          	lui	a7,0xbeae0
  84:	eed88893          	add	a7,a7,-275 # beadfeed <_end+0xbeadee5d>
  88:	df570937          	lui	s2,0xdf570
  8c:	f7690913          	add	s2,s2,-138 # df56ff76 <_end+0xdf56eee6>
  90:	6fab89b7          	lui	s3,0x6fab8
  94:	fbb98993          	add	s3,s3,-69 # 6fab7fbb <_end+0x6fab6f2b>
  98:	b7d5ca37          	lui	s4,0xb7d5c
  9c:	fdda0a13          	add	s4,s4,-35 # b7d5bfdd <_end+0xb7d5af4d>
  a0:	dbeaeab7          	lui	s5,0xdbeae
  a4:	feea8a93          	add	s5,s5,-18 # dbeadfee <_end+0xdbeacf5e>
  a8:	6df57b37          	lui	s6,0x6df57
  ac:	ff7b0b13          	add	s6,s6,-9 # 6df56ff7 <_end+0x6df55f67>
  b0:	b6fabbb7          	lui	s7,0xb6fab
  b4:	7fbb8b93          	add	s7,s7,2043 # b6fab7fb <_end+0xb6faa76b>
  b8:	db7d6c37          	lui	s8,0xdb7d6
  bc:	bfdc0c13          	add	s8,s8,-1027 # db7d5bfd <_end+0xdb7d4b6d>
  c0:	edbebcb7          	lui	s9,0xedbeb
  c4:	dfec8c93          	add	s9,s9,-514 # edbeadfe <_end+0xedbe9d6e>
  c8:	76df5d37          	lui	s10,0x76df5
  cc:	6ffd0d13          	add	s10,s10,1791 # 76df56ff <_end+0x76df466f>
  d0:	bb6fbdb7          	lui	s11,0xbb6fb
  d4:	b7fd8d93          	add	s11,s11,-1153 # bb6fab7f <_end+0xbb6f9aef>
  d8:	ddb7de37          	lui	t3,0xddb7d
  dc:	5bfe0e13          	add	t3,t3,1471 # ddb7d5bf <_end+0xddb7c52f>
  e0:	eedbfeb7          	lui	t4,0xeedbf
  e4:	adfe8e93          	add	t4,t4,-1313 # eedbeadf <_end+0xeedbda4f>
  e8:	f76dff37          	lui	t5,0xf76df
  ec:	56ff0f13          	add	t5,t5,1391 # f76df56f <_end+0xf76de4df>
  f0:	fbb70fb7          	lui	t6,0xfbb70
  f4:	ab7f8f93          	add	t6,t6,-1353 # fbb6fab7 <_end+0xfbb6ea27>

000000f8 <rvtest_code_begin>:
  f8:	00001517          	auipc	a0,0x1
  fc:	f1850513          	add	a0,a0,-232 # 1010 <data_begin>

00000100 <inst_0>:
 100:	00000b17          	auipc	s6,0x0
 104:	010b0b13          	add	s6,s6,16 # 110 <inst_0+0x10>
 108:	9b02                	jalr	s6
 10a:	0020c093          	xor	ra,ra,2
 10e:	a019                	j	114 <inst_0+0x14>
 110:	0030c093          	xor	ra,ra,3
 114:	00000597          	auipc	a1,0x0
 118:	fec58593          	add	a1,a1,-20 # 100 <inst_0>
 11c:	99f1                	and	a1,a1,-4
 11e:	40b080b3          	sub	ra,ra,a1
 122:	00152023          	sw	ra,0(a0)

00000126 <inst_1>:
 126:	00000f17          	auipc	t5,0x0
 12a:	010f0f13          	add	t5,t5,16 # 136 <inst_1+0x10>
 12e:	9f02                	jalr	t5
 130:	0020c093          	xor	ra,ra,2
 134:	a019                	j	13a <inst_1+0x14>
 136:	0030c093          	xor	ra,ra,3
 13a:	00000597          	auipc	a1,0x0
 13e:	fec58593          	add	a1,a1,-20 # 126 <inst_1>
 142:	99f1                	and	a1,a1,-4
 144:	40b080b3          	sub	ra,ra,a1
 148:	00152223          	sw	ra,4(a0)

0000014c <inst_2>:
 14c:	00000417          	auipc	s0,0x0
 150:	01040413          	add	s0,s0,16 # 15c <inst_2+0x10>
 154:	9402                	jalr	s0
 156:	0020c093          	xor	ra,ra,2
 15a:	a019                	j	160 <inst_2+0x14>
 15c:	0030c093          	xor	ra,ra,3
 160:	00000597          	auipc	a1,0x0
 164:	fec58593          	add	a1,a1,-20 # 14c <inst_2>
 168:	99f1                	and	a1,a1,-4
 16a:	40b080b3          	sub	ra,ra,a1
 16e:	00152423          	sw	ra,8(a0)

00000172 <inst_3>:
 172:	00000797          	auipc	a5,0x0
 176:	01078793          	add	a5,a5,16 # 182 <inst_3+0x10>
 17a:	9782                	jalr	a5
 17c:	0020c093          	xor	ra,ra,2
 180:	a019                	j	186 <inst_3+0x14>
 182:	0030c093          	xor	ra,ra,3
 186:	00000597          	auipc	a1,0x0
 18a:	fec58593          	add	a1,a1,-20 # 172 <inst_3>
 18e:	99f1                	and	a1,a1,-4
 190:	40b080b3          	sub	ra,ra,a1
 194:	00152623          	sw	ra,12(a0)

00000198 <inst_4>:
 198:	00000897          	auipc	a7,0x0
 19c:	01088893          	add	a7,a7,16 # 1a8 <inst_4+0x10>
 1a0:	9882                	jalr	a7
 1a2:	0020c093          	xor	ra,ra,2
 1a6:	a019                	j	1ac <inst_4+0x14>
 1a8:	0030c093          	xor	ra,ra,3
 1ac:	00000597          	auipc	a1,0x0
 1b0:	fec58593          	add	a1,a1,-20 # 198 <inst_4>
 1b4:	99f1                	and	a1,a1,-4
 1b6:	40b080b3          	sub	ra,ra,a1
 1ba:	00152823          	sw	ra,16(a0)

000001be <inst_5>:
 1be:	00000497          	auipc	s1,0x0
 1c2:	01048493          	add	s1,s1,16 # 1ce <inst_5+0x10>
 1c6:	9482                	jalr	s1
 1c8:	0020c093          	xor	ra,ra,2
 1cc:	a019                	j	1d2 <inst_5+0x14>
 1ce:	0030c093          	xor	ra,ra,3
 1d2:	00000597          	auipc	a1,0x0
 1d6:	fec58593          	add	a1,a1,-20 # 1be <inst_5>
 1da:	99f1                	and	a1,a1,-4
 1dc:	40b080b3          	sub	ra,ra,a1
 1e0:	00152a23          	sw	ra,20(a0)

000001e4 <inst_6>:
 1e4:	00000217          	auipc	tp,0x0
 1e8:	01020213          	add	tp,tp,16 # 1f4 <inst_6+0x10>
 1ec:	9202                	jalr	tp
 1ee:	0020c093          	xor	ra,ra,2
 1f2:	a019                	j	1f8 <inst_6+0x14>
 1f4:	0030c093          	xor	ra,ra,3
 1f8:	00000597          	auipc	a1,0x0
 1fc:	fec58593          	add	a1,a1,-20 # 1e4 <inst_6>
 200:	99f1                	and	a1,a1,-4
 202:	40b080b3          	sub	ra,ra,a1
 206:	00152c23          	sw	ra,24(a0)

0000020a <inst_7>:
 20a:	00000297          	auipc	t0,0x0
 20e:	01028293          	add	t0,t0,16 # 21a <inst_7+0x10>
 212:	9282                	jalr	t0
 214:	0020c093          	xor	ra,ra,2
 218:	a019                	j	21e <inst_7+0x14>
 21a:	0030c093          	xor	ra,ra,3
 21e:	00000597          	auipc	a1,0x0
 222:	fec58593          	add	a1,a1,-20 # 20a <inst_7>
 226:	99f1                	and	a1,a1,-4
 228:	40b080b3          	sub	ra,ra,a1
 22c:	00152e23          	sw	ra,28(a0)

00000230 <inst_8>:
 230:	00000097          	auipc	ra,0x0
 234:	01008093          	add	ra,ra,16 # 240 <inst_8+0x10>
 238:	9082                	jalr	ra
 23a:	0020c093          	xor	ra,ra,2
 23e:	a019                	j	244 <inst_8+0x14>
 240:	0030c093          	xor	ra,ra,3
 244:	00000597          	auipc	a1,0x0
 248:	fec58593          	add	a1,a1,-20 # 230 <inst_8>
 24c:	99f1                	and	a1,a1,-4
 24e:	40b080b3          	sub	ra,ra,a1
 252:	02152023          	sw	ra,32(a0)

00000256 <inst_9>:
 256:	00000e17          	auipc	t3,0x0
 25a:	010e0e13          	add	t3,t3,16 # 266 <inst_9+0x10>
 25e:	9e02                	jalr	t3
 260:	0020c093          	xor	ra,ra,2
 264:	a019                	j	26a <inst_9+0x14>
 266:	0030c093          	xor	ra,ra,3
 26a:	00000597          	auipc	a1,0x0
 26e:	fec58593          	add	a1,a1,-20 # 256 <inst_9>
 272:	99f1                	and	a1,a1,-4
 274:	40b080b3          	sub	ra,ra,a1
 278:	02152223          	sw	ra,36(a0)

0000027c <inst_10>:
 27c:	00000f97          	auipc	t6,0x0
 280:	010f8f93          	add	t6,t6,16 # 28c <inst_10+0x10>
 284:	9f82                	jalr	t6
 286:	0020c093          	xor	ra,ra,2
 28a:	a019                	j	290 <inst_10+0x14>
 28c:	0030c093          	xor	ra,ra,3
 290:	00000597          	auipc	a1,0x0
 294:	fec58593          	add	a1,a1,-20 # 27c <inst_10>
 298:	99f1                	and	a1,a1,-4
 29a:	40b080b3          	sub	ra,ra,a1
 29e:	02152423          	sw	ra,40(a0)

000002a2 <inst_11>:
 2a2:	00000917          	auipc	s2,0x0
 2a6:	01090913          	add	s2,s2,16 # 2b2 <inst_11+0x10>
 2aa:	9902                	jalr	s2
 2ac:	0020c093          	xor	ra,ra,2
 2b0:	a019                	j	2b6 <inst_11+0x14>
 2b2:	0030c093          	xor	ra,ra,3
 2b6:	00000597          	auipc	a1,0x0
 2ba:	fec58593          	add	a1,a1,-20 # 2a2 <inst_11>
 2be:	99f1                	and	a1,a1,-4
 2c0:	40b080b3          	sub	ra,ra,a1
 2c4:	02152623          	sw	ra,44(a0)

000002c8 <inst_12>:
 2c8:	00000997          	auipc	s3,0x0
 2cc:	01098993          	add	s3,s3,16 # 2d8 <inst_12+0x10>
 2d0:	9982                	jalr	s3
 2d2:	0020c093          	xor	ra,ra,2
 2d6:	a019                	j	2dc <inst_12+0x14>
 2d8:	0030c093          	xor	ra,ra,3
 2dc:	00000597          	auipc	a1,0x0
 2e0:	fec58593          	add	a1,a1,-20 # 2c8 <inst_12>
 2e4:	99f1                	and	a1,a1,-4
 2e6:	40b080b3          	sub	ra,ra,a1
 2ea:	02152823          	sw	ra,48(a0)

000002ee <inst_13>:
 2ee:	00000397          	auipc	t2,0x0
 2f2:	01038393          	add	t2,t2,16 # 2fe <inst_13+0x10>
 2f6:	9382                	jalr	t2
 2f8:	0020c093          	xor	ra,ra,2
 2fc:	a019                	j	302 <inst_13+0x14>
 2fe:	0030c093          	xor	ra,ra,3
 302:	00000597          	auipc	a1,0x0
 306:	fec58593          	add	a1,a1,-20 # 2ee <inst_13>
 30a:	99f1                	and	a1,a1,-4
 30c:	40b080b3          	sub	ra,ra,a1
 310:	02152a23          	sw	ra,52(a0)

00000314 <inst_14>:
 314:	00000a97          	auipc	s5,0x0
 318:	010a8a93          	add	s5,s5,16 # 324 <inst_14+0x10>
 31c:	9a82                	jalr	s5
 31e:	0020c093          	xor	ra,ra,2
 322:	a019                	j	328 <inst_14+0x14>
 324:	0030c093          	xor	ra,ra,3
 328:	00000597          	auipc	a1,0x0
 32c:	fec58593          	add	a1,a1,-20 # 314 <inst_14>
 330:	99f1                	and	a1,a1,-4
 332:	40b080b3          	sub	ra,ra,a1
 336:	02152c23          	sw	ra,56(a0)

0000033a <inst_15>:
 33a:	00000697          	auipc	a3,0x0
 33e:	01068693          	add	a3,a3,16 # 34a <inst_15+0x10>
 342:	9682                	jalr	a3
 344:	0020c093          	xor	ra,ra,2
 348:	a019                	j	34e <inst_15+0x14>
 34a:	0030c093          	xor	ra,ra,3
 34e:	00000597          	auipc	a1,0x0
 352:	fec58593          	add	a1,a1,-20 # 33a <inst_15>
 356:	99f1                	and	a1,a1,-4
 358:	40b080b3          	sub	ra,ra,a1
 35c:	02152e23          	sw	ra,60(a0)

00000360 <inst_16>:
 360:	00000e97          	auipc	t4,0x0
 364:	010e8e93          	add	t4,t4,16 # 370 <inst_16+0x10>
 368:	9e82                	jalr	t4
 36a:	0020c093          	xor	ra,ra,2
 36e:	a019                	j	374 <inst_16+0x14>
 370:	0030c093          	xor	ra,ra,3
 374:	00000597          	auipc	a1,0x0
 378:	fec58593          	add	a1,a1,-20 # 360 <inst_16>
 37c:	99f1                	and	a1,a1,-4
 37e:	40b080b3          	sub	ra,ra,a1
 382:	04152023          	sw	ra,64(a0)

00000386 <inst_17>:
 386:	00000617          	auipc	a2,0x0
 38a:	01060613          	add	a2,a2,16 # 396 <inst_17+0x10>
 38e:	9602                	jalr	a2
 390:	0020c093          	xor	ra,ra,2
 394:	a019                	j	39a <inst_17+0x14>
 396:	0030c093          	xor	ra,ra,3
 39a:	00000597          	auipc	a1,0x0
 39e:	fec58593          	add	a1,a1,-20 # 386 <inst_17>
 3a2:	99f1                	and	a1,a1,-4
 3a4:	40b080b3          	sub	ra,ra,a1
 3a8:	04152223          	sw	ra,68(a0)

000003ac <inst_18>:
 3ac:	00000317          	auipc	t1,0x0
 3b0:	01030313          	add	t1,t1,16 # 3bc <inst_18+0x10>
 3b4:	9302                	jalr	t1
 3b6:	0020c093          	xor	ra,ra,2
 3ba:	a019                	j	3c0 <inst_18+0x14>
 3bc:	0030c093          	xor	ra,ra,3
 3c0:	00000597          	auipc	a1,0x0
 3c4:	fec58593          	add	a1,a1,-20 # 3ac <inst_18>
 3c8:	99f1                	and	a1,a1,-4
 3ca:	40b080b3          	sub	ra,ra,a1
 3ce:	04152423          	sw	ra,72(a0)

000003d2 <inst_19>:
 3d2:	00000a17          	auipc	s4,0x0
 3d6:	010a0a13          	add	s4,s4,16 # 3e2 <inst_19+0x10>
 3da:	9a02                	jalr	s4
 3dc:	0020c093          	xor	ra,ra,2
 3e0:	a019                	j	3e6 <inst_19+0x14>
 3e2:	0030c093          	xor	ra,ra,3
 3e6:	00000597          	auipc	a1,0x0
 3ea:	fec58593          	add	a1,a1,-20 # 3d2 <inst_19>
 3ee:	99f1                	and	a1,a1,-4
 3f0:	40b080b3          	sub	ra,ra,a1
 3f4:	04152623          	sw	ra,76(a0)

000003f8 <inst_20>:
 3f8:	00000c97          	auipc	s9,0x0
 3fc:	010c8c93          	add	s9,s9,16 # 408 <inst_20+0x10>
 400:	9c82                	jalr	s9
 402:	0020c093          	xor	ra,ra,2
 406:	a019                	j	40c <inst_20+0x14>
 408:	0030c093          	xor	ra,ra,3
 40c:	00000597          	auipc	a1,0x0
 410:	fec58593          	add	a1,a1,-20 # 3f8 <inst_20>
 414:	99f1                	and	a1,a1,-4
 416:	40b080b3          	sub	ra,ra,a1
 41a:	04152823          	sw	ra,80(a0)

0000041e <inst_21>:
 41e:	00000d17          	auipc	s10,0x0
 422:	010d0d13          	add	s10,s10,16 # 42e <inst_21+0x10>
 426:	9d02                	jalr	s10
 428:	0020c093          	xor	ra,ra,2
 42c:	a019                	j	432 <inst_21+0x14>
 42e:	0030c093          	xor	ra,ra,3
 432:	00000597          	auipc	a1,0x0
 436:	fec58593          	add	a1,a1,-20 # 41e <inst_21>
 43a:	99f1                	and	a1,a1,-4
 43c:	40b080b3          	sub	ra,ra,a1
 440:	04152a23          	sw	ra,84(a0)

00000444 <inst_22>:
 444:	00000c17          	auipc	s8,0x0
 448:	010c0c13          	add	s8,s8,16 # 454 <inst_22+0x10>
 44c:	9c02                	jalr	s8
 44e:	0020c093          	xor	ra,ra,2
 452:	a019                	j	458 <inst_22+0x14>
 454:	0030c093          	xor	ra,ra,3
 458:	00000597          	auipc	a1,0x0
 45c:	fec58593          	add	a1,a1,-20 # 444 <inst_22>
 460:	99f1                	and	a1,a1,-4
 462:	40b080b3          	sub	ra,ra,a1
 466:	04152c23          	sw	ra,88(a0)

0000046a <inst_23>:
 46a:	00000717          	auipc	a4,0x0
 46e:	01070713          	add	a4,a4,16 # 47a <inst_23+0x10>
 472:	9702                	jalr	a4
 474:	0020c093          	xor	ra,ra,2
 478:	a019                	j	47e <inst_23+0x14>
 47a:	0030c093          	xor	ra,ra,3
 47e:	00000597          	auipc	a1,0x0
 482:	fec58593          	add	a1,a1,-20 # 46a <inst_23>
 486:	99f1                	and	a1,a1,-4
 488:	40b080b3          	sub	ra,ra,a1
 48c:	04152e23          	sw	ra,92(a0)

00000490 <inst_24>:
 490:	00000197          	auipc	gp,0x0
 494:	01018193          	add	gp,gp,16 # 4a0 <inst_24+0x10>
 498:	9182                	jalr	gp
 49a:	0020c093          	xor	ra,ra,2
 49e:	a019                	j	4a4 <inst_24+0x14>
 4a0:	0030c093          	xor	ra,ra,3
 4a4:	00000597          	auipc	a1,0x0
 4a8:	fec58593          	add	a1,a1,-20 # 490 <inst_24>
 4ac:	99f1                	and	a1,a1,-4
 4ae:	40b080b3          	sub	ra,ra,a1
 4b2:	06152023          	sw	ra,96(a0)

000004b6 <inst_25>:
 4b6:	00000d97          	auipc	s11,0x0
 4ba:	010d8d93          	add	s11,s11,16 # 4c6 <inst_25+0x10>
 4be:	9d82                	jalr	s11
 4c0:	0020c093          	xor	ra,ra,2
 4c4:	a019                	j	4ca <inst_25+0x14>
 4c6:	0030c093          	xor	ra,ra,3
 4ca:	00000597          	auipc	a1,0x0
 4ce:	fec58593          	add	a1,a1,-20 # 4b6 <inst_25>
 4d2:	99f1                	and	a1,a1,-4
 4d4:	40b080b3          	sub	ra,ra,a1
 4d8:	06152223          	sw	ra,100(a0)

000004dc <inst_26>:
 4dc:	00000117          	auipc	sp,0x0
 4e0:	01010113          	add	sp,sp,16 # 4ec <inst_26+0x10>
 4e4:	9102                	jalr	sp
 4e6:	0020c093          	xor	ra,ra,2
 4ea:	a019                	j	4f0 <inst_26+0x14>
 4ec:	0030c093          	xor	ra,ra,3
 4f0:	00000597          	auipc	a1,0x0
 4f4:	fec58593          	add	a1,a1,-20 # 4dc <inst_26>
 4f8:	99f1                	and	a1,a1,-4
 4fa:	40b080b3          	sub	ra,ra,a1
 4fe:	06152423          	sw	ra,104(a0)

00000502 <inst_27>:
 502:	00000b97          	auipc	s7,0x0
 506:	010b8b93          	add	s7,s7,16 # 512 <inst_27+0x10>
 50a:	9b82                	jalr	s7
 50c:	0020c093          	xor	ra,ra,2
 510:	a019                	j	516 <inst_27+0x14>
 512:	0030c093          	xor	ra,ra,3
 516:	00000197          	auipc	gp,0x0
 51a:	fec18193          	add	gp,gp,-20 # 502 <inst_27>
 51e:	ffc1f193          	and	gp,gp,-4
 522:	403080b3          	sub	ra,ra,gp
 526:	06152623          	sw	ra,108(a0)
 52a:	00001117          	auipc	sp,0x1
 52e:	b5610113          	add	sp,sp,-1194 # 1080 <signature_x2_0>

00000532 <inst_28>:
 532:	00000597          	auipc	a1,0x0
 536:	01058593          	add	a1,a1,16 # 542 <inst_28+0x10>
 53a:	9582                	jalr	a1
 53c:	0020c093          	xor	ra,ra,2
 540:	a019                	j	546 <inst_28+0x14>
 542:	0030c093          	xor	ra,ra,3
 546:	00000197          	auipc	gp,0x0
 54a:	fec18193          	add	gp,gp,-20 # 532 <inst_28>
 54e:	ffc1f193          	and	gp,gp,-4
 552:	403080b3          	sub	ra,ra,gp
 556:	c006                	sw	ra,0(sp)

00000558 <inst_29>:
 558:	00000817          	auipc	a6,0x0
 55c:	01080813          	add	a6,a6,16 # 568 <inst_29+0x10>
 560:	9802                	jalr	a6
 562:	0020c093          	xor	ra,ra,2
 566:	a019                	j	56c <inst_29+0x14>
 568:	0030c093          	xor	ra,ra,3
 56c:	00000197          	auipc	gp,0x0
 570:	fec18193          	add	gp,gp,-20 # 558 <inst_29>
 574:	ffc1f193          	and	gp,gp,-4
 578:	403080b3          	sub	ra,ra,gp
 57c:	c206                	sw	ra,4(sp)

0000057e <inst_30>:
 57e:	00000517          	auipc	a0,0x0
 582:	01050513          	add	a0,a0,16 # 58e <inst_30+0x10>
 586:	9502                	jalr	a0
 588:	0020c093          	xor	ra,ra,2
 58c:	a019                	j	592 <inst_30+0x14>
 58e:	0030c093          	xor	ra,ra,3
 592:	00000197          	auipc	gp,0x0
 596:	fec18193          	add	gp,gp,-20 # 57e <inst_30>
 59a:	ffc1f193          	and	gp,gp,-4
 59e:	403080b3          	sub	ra,ra,gp
 5a2:	c406                	sw	ra,8(sp)
 5a4:	00000013          	nop
 5a8:	00000013          	nop
 5ac:	00000013          	nop

000005b0 <rvtest_code_end>:
 5b0:	00001517          	auipc	a0,0x1
 5b4:	a6050513          	add	a0,a0,-1440 # 1010 <data_begin>
 5b8:	00001597          	auipc	a1,0x1
 5bc:	ad858593          	add	a1,a1,-1320 # 1090 <_end>
 5c0:	80001637          	lui	a2,0x80001
 5c4:	0621                	add	a2,a2,8 # 80001008 <_end+0x7fffff78>

000005c6 <compliance_halt_loop>:
 5c6:	04b50763          	beq	a0,a1,614 <compliance_halt_break>
 5ca:	00450693          	add	a3,a0,4

000005ce <compliance_halt_loop2>:
 5ce:	16fd                	add	a3,a3,-1
 5d0:	00068703          	lb	a4,0(a3)
 5d4:	40475793          	sra	a5,a4,0x4
 5d8:	8bbd                	and	a5,a5,15
 5da:	4829                	li	a6,10
 5dc:	0107c463          	blt	a5,a6,5e4 <notLetter>
 5e0:	02778793          	add	a5,a5,39

000005e4 <notLetter>:
 5e4:	03078793          	add	a5,a5,48
 5e8:	00f60023          	sb	a5,0(a2)
 5ec:	40075793          	sra	a5,a4,0x0
 5f0:	8bbd                	and	a5,a5,15
 5f2:	4829                	li	a6,10
 5f4:	0107c463          	blt	a5,a6,5fc <notLetter2>
 5f8:	02778793          	add	a5,a5,39

000005fc <notLetter2>:
 5fc:	03078793          	add	a5,a5,48
 600:	00f60023          	sb	a5,0(a2)
 604:	fcd515e3          	bne	a0,a3,5ce <compliance_halt_loop2>
 608:	0511                	add	a0,a0,4
 60a:	4729                	li	a4,10
 60c:	00e60023          	sb	a4,0(a2)
 610:	bf5d                	j	5c6 <compliance_halt_loop>
 612:	a009                	j	614 <compliance_halt_break>

00000614 <compliance_halt_break>:
 614:	80001537          	lui	a0,0x80001
 618:	0525                	add	a0,a0,9 # 80001009 <_end+0x7fffff79>
 61a:	00d50023          	sb	a3,0(a0)
	...

Desensamblado de la sección .data:

00001000 <rvtest_data_begin>:
    1000:	cafe                	sw	t6,84(sp)
    1002:	babe                	.2byte	0xbabe

00001004 <rvtest_data_end>:
	...

00001010 <data_begin>:
    1010:	deadbeef          	jal	t4,fffdc5fa <_end+0xfffdb56a>
    1014:	deadbeef          	jal	t4,fffdc5fe <_end+0xfffdb56e>
    1018:	deadbeef          	jal	t4,fffdc602 <_end+0xfffdb572>
    101c:	deadbeef          	jal	t4,fffdc606 <_end+0xfffdb576>
    1020:	deadbeef          	jal	t4,fffdc60a <_end+0xfffdb57a>
    1024:	deadbeef          	jal	t4,fffdc60e <_end+0xfffdb57e>
    1028:	deadbeef          	jal	t4,fffdc612 <_end+0xfffdb582>
    102c:	deadbeef          	jal	t4,fffdc616 <_end+0xfffdb586>
    1030:	deadbeef          	jal	t4,fffdc61a <_end+0xfffdb58a>
    1034:	deadbeef          	jal	t4,fffdc61e <_end+0xfffdb58e>
    1038:	deadbeef          	jal	t4,fffdc622 <_end+0xfffdb592>
    103c:	deadbeef          	jal	t4,fffdc626 <_end+0xfffdb596>
    1040:	deadbeef          	jal	t4,fffdc62a <_end+0xfffdb59a>
    1044:	deadbeef          	jal	t4,fffdc62e <_end+0xfffdb59e>
    1048:	deadbeef          	jal	t4,fffdc632 <_end+0xfffdb5a2>
    104c:	deadbeef          	jal	t4,fffdc636 <_end+0xfffdb5a6>
    1050:	deadbeef          	jal	t4,fffdc63a <_end+0xfffdb5aa>
    1054:	deadbeef          	jal	t4,fffdc63e <_end+0xfffdb5ae>
    1058:	deadbeef          	jal	t4,fffdc642 <_end+0xfffdb5b2>
    105c:	deadbeef          	jal	t4,fffdc646 <_end+0xfffdb5b6>
    1060:	deadbeef          	jal	t4,fffdc64a <_end+0xfffdb5ba>
    1064:	deadbeef          	jal	t4,fffdc64e <_end+0xfffdb5be>
    1068:	deadbeef          	jal	t4,fffdc652 <_end+0xfffdb5c2>
    106c:	deadbeef          	jal	t4,fffdc656 <_end+0xfffdb5c6>
    1070:	deadbeef          	jal	t4,fffdc65a <_end+0xfffdb5ca>
    1074:	deadbeef          	jal	t4,fffdc65e <_end+0xfffdb5ce>
    1078:	deadbeef          	jal	t4,fffdc662 <_end+0xfffdb5d2>
    107c:	deadbeef          	jal	t4,fffdc666 <_end+0xfffdb5d6>

00001080 <signature_x2_0>:
    1080:	deadbeef          	jal	t4,fffdc66a <_end+0xfffdb5da>
    1084:	deadbeef          	jal	t4,fffdc66e <_end+0xfffdb5de>
    1088:	deadbeef          	jal	t4,fffdc672 <_end+0xfffdb5e2>
    108c:	0000                	unimp
	...

Desensamblado de la sección .riscv.attributes:

00000000 <.riscv.attributes>:
   0:	3541                	jal	fffffe80 <_end+0xffffedf0>
   2:	0000                	unimp
   4:	7200                	.2byte	0x7200
   6:	7369                	lui	t1,0xffffa
   8:	01007663          	bgeu	zero,a6,14 <offset+0x8>
   c:	0000002b          	.4byte	0x2b
  10:	7205                	lui	tp,0xfffe1
  12:	3376                	.2byte	0x3376
  14:	6932                	.2byte	0x6932
  16:	7032                	.2byte	0x7032
  18:	5f30                	lw	a2,120(a4)
  1a:	326d                	jal	fffff9c4 <_end+0xffffe934>
  1c:	3070                	.2byte	0x3070
  1e:	635f 7032 5f30      	.byte	0x5f, 0x63, 0x32, 0x70, 0x30, 0x5f
  24:	6d7a                	.2byte	0x6d7a
  26:	756d                	lui	a0,0xffffb
  28:	316c                	.2byte	0x316c
  2a:	3070                	.2byte	0x3070
  2c:	7a5f 6966 786e      	.byte	0x5f, 0x7a, 0x66, 0x69, 0x6e, 0x78
  32:	7031                	c.lui	zero,0xfffec
  34:	0030                	add	a2,sp,8
