
/home/alejandro/Escritorio/test_riscv2.5/riscv-compliance/work/rv32i_m/C/clui-01.elf:     formato del fichero elf32-littleriscv


Desensamblado de la sección .text.init:

00000000 <rvtest_entry_point>:
   0:	feedc0b7          	lui	ra,0xfeedc
   4:	ead08093          	add	ra,ra,-339 # feedbead <_end+0xfeedae1d>
   8:	ff76e137          	lui	sp,0xff76e
   c:	f5610113          	add	sp,sp,-170 # ff76df56 <_end+0xff76cec6>
  10:	7fbb71b7          	lui	gp,0x7fbb7
  14:	fab18193          	add	gp,gp,-85 # 7fbb6fab <_end+0x7fbb5f1b>
  18:	bfddb237          	lui	tp,0xbfddb
  1c:	7d520213          	add	tp,tp,2005 # bfddb7d5 <_end+0xbfdda745>
  20:	00000297          	auipc	t0,0x0
  24:	0d828293          	add	t0,t0,216 # f8 <rvtest_code_begin>
  28:	00001317          	auipc	t1,0x1
  2c:	fd830313          	add	t1,t1,-40 # 1000 <rvtest_data_begin>
  30:	b7fbb3b7          	lui	t2,0xb7fbb
  34:	6fa38393          	add	t2,t2,1786 # b7fbb6fa <_end+0xb7fba66a>
  38:	5bfde437          	lui	s0,0x5bfde
  3c:	b7d40413          	add	s0,s0,-1155 # 5bfddb7d <_end+0x5bfdcaed>
  40:	adfef4b7          	lui	s1,0xadfef
  44:	dbe48493          	add	s1,s1,-578 # adfeedbe <_end+0xadfedd2e>
  48:	56ff7537          	lui	a0,0x56ff7
  4c:	6df50513          	add	a0,a0,1759 # 56ff76df <_end+0x56ff664f>
  50:	ab7fc5b7          	lui	a1,0xab7fc
  54:	b6f58593          	add	a1,a1,-1169 # ab7fbb6f <_end+0xab7faadf>
  58:	d5bfe637          	lui	a2,0xd5bfe
  5c:	db760613          	add	a2,a2,-585 # d5bfddb7 <_end+0xd5bfcd27>
  60:	eadff6b7          	lui	a3,0xeadff
  64:	edb68693          	add	a3,a3,-293 # eadfeedb <_end+0xeadfde4b>
  68:	f56ff737          	lui	a4,0xf56ff
  6c:	76d70713          	add	a4,a4,1901 # f56ff76d <_end+0xf56fe6dd>
  70:	fab807b7          	lui	a5,0xfab80
  74:	bb678793          	add	a5,a5,-1098 # fab7fbb6 <_end+0xfab7eb26>
  78:	7d5c0837          	lui	a6,0x7d5c0
  7c:	ddb80813          	add	a6,a6,-549 # 7d5bfddb <_end+0x7d5bed4b>
  80:	beae08b7          	lui	a7,0xbeae0
  84:	eed88893          	add	a7,a7,-275 # beadfeed <_end+0xbeadee5d>
  88:	df570937          	lui	s2,0xdf570
  8c:	f7690913          	add	s2,s2,-138 # df56ff76 <_end+0xdf56eee6>
  90:	6fab89b7          	lui	s3,0x6fab8
  94:	fbb98993          	add	s3,s3,-69 # 6fab7fbb <_end+0x6fab6f2b>
  98:	b7d5ca37          	lui	s4,0xb7d5c
  9c:	fdda0a13          	add	s4,s4,-35 # b7d5bfdd <_end+0xb7d5af4d>
  a0:	dbeaeab7          	lui	s5,0xdbeae
  a4:	feea8a93          	add	s5,s5,-18 # dbeadfee <_end+0xdbeacf5e>
  a8:	6df57b37          	lui	s6,0x6df57
  ac:	ff7b0b13          	add	s6,s6,-9 # 6df56ff7 <_end+0x6df55f67>
  b0:	b6fabbb7          	lui	s7,0xb6fab
  b4:	7fbb8b93          	add	s7,s7,2043 # b6fab7fb <_end+0xb6faa76b>
  b8:	db7d6c37          	lui	s8,0xdb7d6
  bc:	bfdc0c13          	add	s8,s8,-1027 # db7d5bfd <_end+0xdb7d4b6d>
  c0:	edbebcb7          	lui	s9,0xedbeb
  c4:	dfec8c93          	add	s9,s9,-514 # edbeadfe <_end+0xedbe9d6e>
  c8:	76df5d37          	lui	s10,0x76df5
  cc:	6ffd0d13          	add	s10,s10,1791 # 76df56ff <_end+0x76df466f>
  d0:	bb6fbdb7          	lui	s11,0xbb6fb
  d4:	b7fd8d93          	add	s11,s11,-1153 # bb6fab7f <_end+0xbb6f9aef>
  d8:	ddb7de37          	lui	t3,0xddb7d
  dc:	5bfe0e13          	add	t3,t3,1471 # ddb7d5bf <_end+0xddb7c52f>
  e0:	eedbfeb7          	lui	t4,0xeedbf
  e4:	adfe8e93          	add	t4,t4,-1313 # eedbeadf <_end+0xeedbda4f>
  e8:	f76dff37          	lui	t5,0xf76df
  ec:	56ff0f13          	add	t5,t5,1391 # f76df56f <_end+0xf76de4df>
  f0:	fbb70fb7          	lui	t6,0xfbb70
  f4:	ab7f8f93          	add	t6,t6,-1353 # fbb6fab7 <_end+0xfbb6ea27>

000000f8 <rvtest_code_begin>:
  f8:	00001117          	auipc	sp,0x1
  fc:	f1810113          	add	sp,sp,-232 # 1010 <data_begin>

00000100 <inst_0>:
 100:	08000613          	li	a2,128
 104:	7629                	lui	a2,0xfffea
 106:	c032                	sw	a2,0(sp)

00000108 <inst_1>:
 108:	02000a93          	li	s5,32
 10c:	6ab1                	lui	s5,0xc
 10e:	c256                	sw	s5,4(sp)

00000110 <inst_2>:
 110:	fef00d93          	li	s11,-17
 114:	7dfd                	lui	s11,0xfffff
 116:	c46e                	sw	s11,8(sp)

00000118 <inst_3>:
 118:	ffe00b93          	li	s7,-2
 11c:	6bbd                	lui	s7,0xf
 11e:	c65e                	sw	s7,12(sp)

00000120 <inst_4>:
 120:	f80009b7          	lui	s3,0xf8000
 124:	fff98993          	add	s3,s3,-1 # f7ffffff <_end+0xf7ffef6f>
 128:	6985                	lui	s3,0x1
 12a:	c84e                	sw	s3,16(sp)

0000012c <inst_5>:
 12c:	ffff0a37          	lui	s4,0xffff0
 130:	fffa0a13          	add	s4,s4,-1 # fffeffff <_end+0xfffeef6f>
 134:	6a09                	lui	s4,0x2
 136:	ca52                	sw	s4,20(sp)

00000138 <inst_6>:
 138:	00001437          	lui	s0,0x1
 13c:	6411                	lui	s0,0x4
 13e:	cc22                	sw	s0,24(sp)

00000140 <inst_7>:
 140:	80000eb7          	lui	t4,0x80000
 144:	fffe8e93          	add	t4,t4,-1 # 7fffffff <_end+0x7fffef6f>
 148:	6ea1                	lui	t4,0x8
 14a:	ce76                	sw	t4,28(sp)

0000014c <inst_8>:
 14c:	ffb00f93          	li	t6,-5
 150:	6fc1                	lui	t6,0x10
 152:	d07e                	sw	t6,32(sp)

00000154 <inst_9>:
 154:	00400737          	lui	a4,0x400
 158:	7701                	lui	a4,0xfffe0
 15a:	d23a                	sw	a4,36(sp)

0000015c <inst_10>:
 15c:	fe0001b7          	lui	gp,0xfe000
 160:	fff18193          	add	gp,gp,-1 # fdffffff <_end+0xfdffef6f>
 164:	61d5                	lui	gp,0x15
 166:	d40e                	sw	gp,40(sp)

00000168 <inst_11>:
 168:	ff900213          	li	tp,-7
 16c:	7279                	lui	tp,0xffffe
 16e:	d612                	sw	tp,44(sp)

00000170 <inst_12>:
 170:	000048b7          	lui	a7,0x4
 174:	78f5                	lui	a7,0xffffd
 176:	d846                	sw	a7,48(sp)

00000178 <inst_13>:
 178:	00040537          	lui	a0,0x40
 17c:	756d                	lui	a0,0xffffb
 17e:	da2a                	sw	a0,52(sp)

00000180 <inst_14>:
 180:	dff00393          	li	t2,-513
 184:	73dd                	lui	t2,0xffff7
 186:	dc1e                	sw	t2,56(sp)

00000188 <inst_15>:
 188:	00500b13          	li	s6,5
 18c:	7b3d                	lui	s6,0xfffef
 18e:	de5a                	sw	s6,60(sp)

00000190 <inst_16>:
 190:	02000293          	li	t0,32
 194:	62fd                	lui	t0,0x1f
 196:	c096                	sw	t0,64(sp)

00000198 <inst_17>:
 198:	80000cb7          	lui	s9,0x80000
 19c:	6c85                	lui	s9,0x1
 19e:	c2e6                	sw	s9,68(sp)

000001a0 <inst_18>:
 1a0:	80000e37          	lui	t3,0x80000
 1a4:	6e05                	lui	t3,0x1
 1a6:	c4f2                	sw	t3,72(sp)

000001a8 <inst_19>:
 1a8:	80000037          	lui	zero,0x80000
 1ac:	00000013          	nop
 1b0:	6005                	c.lui	zero,0x1
 1b2:	c682                	sw	zero,76(sp)

000001b4 <inst_20>:
 1b4:	800005b7          	lui	a1,0x80000
 1b8:	6585                	lui	a1,0x1
 1ba:	c8ae                	sw	a1,80(sp)

000001bc <inst_21>:
 1bc:	800000b7          	lui	ra,0x80000
 1c0:	6085                	lui	ra,0x1
 1c2:	ca86                	sw	ra,84(sp)

000001c4 <inst_22>:
 1c4:	80000937          	lui	s2,0x80000
 1c8:	6905                	lui	s2,0x1
 1ca:	ccca                	sw	s2,88(sp)

000001cc <inst_23>:
 1cc:	800004b7          	lui	s1,0x80000
 1d0:	6485                	lui	s1,0x1
 1d2:	cea6                	sw	s1,92(sp)

000001d4 <inst_24>:
 1d4:	80000d37          	lui	s10,0x80000
 1d8:	6d05                	lui	s10,0x1
 1da:	d0ea                	sw	s10,96(sp)

000001dc <inst_25>:
 1dc:	80000f37          	lui	t5,0x80000
 1e0:	6f05                	lui	t5,0x1
 1e2:	d2fa                	sw	t5,100(sp)

000001e4 <inst_26>:
 1e4:	80000837          	lui	a6,0x80000
 1e8:	6805                	lui	a6,0x1
 1ea:	d4c2                	sw	a6,104(sp)

000001ec <inst_27>:
 1ec:	80000337          	lui	t1,0x80000
 1f0:	6305                	lui	t1,0x1
 1f2:	d69a                	sw	t1,108(sp)

000001f4 <inst_28>:
 1f4:	800007b7          	lui	a5,0x80000
 1f8:	6785                	lui	a5,0x1
 1fa:	d8be                	sw	a5,112(sp)
 1fc:	00001097          	auipc	ra,0x1
 200:	e8808093          	add	ra,ra,-376 # 1084 <signature_x1_0>

00000204 <inst_29>:
 204:	80000c37          	lui	s8,0x80000
 208:	6c05                	lui	s8,0x1
 20a:	0180a023          	sw	s8,0(ra)

0000020e <inst_30>:
 20e:	800006b7          	lui	a3,0x80000
 212:	6685                	lui	a3,0x1
 214:	00d0a223          	sw	a3,4(ra)
 218:	00000013          	nop
 21c:	00000013          	nop

00000220 <rvtest_code_end>:
 220:	00001517          	auipc	a0,0x1
 224:	df050513          	add	a0,a0,-528 # 1010 <data_begin>
 228:	00001597          	auipc	a1,0x1
 22c:	e6858593          	add	a1,a1,-408 # 1090 <_end>
 230:	80001637          	lui	a2,0x80001
 234:	0621                	add	a2,a2,8 # 80001008 <_end+0x7fffff78>

00000236 <compliance_halt_loop>:
 236:	04b50763          	beq	a0,a1,284 <compliance_halt_break>
 23a:	00450693          	add	a3,a0,4

0000023e <compliance_halt_loop2>:
 23e:	16fd                	add	a3,a3,-1 # fff <compliance_halt_break+0xd7b>
 240:	00068703          	lb	a4,0(a3)
 244:	40475793          	sra	a5,a4,0x4
 248:	8bbd                	and	a5,a5,15
 24a:	4829                	li	a6,10
 24c:	0107c463          	blt	a5,a6,254 <notLetter>
 250:	02778793          	add	a5,a5,39 # 1027 <data_begin+0x17>

00000254 <notLetter>:
 254:	03078793          	add	a5,a5,48
 258:	00f60023          	sb	a5,0(a2)
 25c:	40075793          	sra	a5,a4,0x0
 260:	8bbd                	and	a5,a5,15
 262:	4829                	li	a6,10
 264:	0107c463          	blt	a5,a6,26c <notLetter2>
 268:	02778793          	add	a5,a5,39

0000026c <notLetter2>:
 26c:	03078793          	add	a5,a5,48
 270:	00f60023          	sb	a5,0(a2)
 274:	fcd515e3          	bne	a0,a3,23e <compliance_halt_loop2>
 278:	0511                	add	a0,a0,4
 27a:	4729                	li	a4,10
 27c:	00e60023          	sb	a4,0(a2)
 280:	bf5d                	j	236 <compliance_halt_loop>
 282:	a009                	j	284 <compliance_halt_break>

00000284 <compliance_halt_break>:
 284:	80001537          	lui	a0,0x80001
 288:	0525                	add	a0,a0,9 # 80001009 <_end+0x7fffff79>
 28a:	00d50023          	sb	a3,0(a0)
	...

Desensamblado de la sección .data:

00001000 <rvtest_data_begin>:
    1000:	cafe                	sw	t6,84(sp)
    1002:	babe                	.2byte	0xbabe

00001004 <rvtest_data_end>:
	...

00001010 <data_begin>:
    1010:	deadbeef          	jal	t4,fffdc5fa <_end+0xfffdb56a>
    1014:	deadbeef          	jal	t4,fffdc5fe <_end+0xfffdb56e>
    1018:	deadbeef          	jal	t4,fffdc602 <_end+0xfffdb572>
    101c:	deadbeef          	jal	t4,fffdc606 <_end+0xfffdb576>
    1020:	deadbeef          	jal	t4,fffdc60a <_end+0xfffdb57a>
    1024:	deadbeef          	jal	t4,fffdc60e <_end+0xfffdb57e>
    1028:	deadbeef          	jal	t4,fffdc612 <_end+0xfffdb582>
    102c:	deadbeef          	jal	t4,fffdc616 <_end+0xfffdb586>
    1030:	deadbeef          	jal	t4,fffdc61a <_end+0xfffdb58a>
    1034:	deadbeef          	jal	t4,fffdc61e <_end+0xfffdb58e>
    1038:	deadbeef          	jal	t4,fffdc622 <_end+0xfffdb592>
    103c:	deadbeef          	jal	t4,fffdc626 <_end+0xfffdb596>
    1040:	deadbeef          	jal	t4,fffdc62a <_end+0xfffdb59a>
    1044:	deadbeef          	jal	t4,fffdc62e <_end+0xfffdb59e>
    1048:	deadbeef          	jal	t4,fffdc632 <_end+0xfffdb5a2>
    104c:	deadbeef          	jal	t4,fffdc636 <_end+0xfffdb5a6>
    1050:	deadbeef          	jal	t4,fffdc63a <_end+0xfffdb5aa>
    1054:	deadbeef          	jal	t4,fffdc63e <_end+0xfffdb5ae>
    1058:	deadbeef          	jal	t4,fffdc642 <_end+0xfffdb5b2>
    105c:	deadbeef          	jal	t4,fffdc646 <_end+0xfffdb5b6>
    1060:	deadbeef          	jal	t4,fffdc64a <_end+0xfffdb5ba>
    1064:	deadbeef          	jal	t4,fffdc64e <_end+0xfffdb5be>
    1068:	deadbeef          	jal	t4,fffdc652 <_end+0xfffdb5c2>
    106c:	deadbeef          	jal	t4,fffdc656 <_end+0xfffdb5c6>
    1070:	deadbeef          	jal	t4,fffdc65a <_end+0xfffdb5ca>
    1074:	deadbeef          	jal	t4,fffdc65e <_end+0xfffdb5ce>
    1078:	deadbeef          	jal	t4,fffdc662 <_end+0xfffdb5d2>
    107c:	deadbeef          	jal	t4,fffdc666 <_end+0xfffdb5d6>
    1080:	deadbeef          	jal	t4,fffdc66a <_end+0xfffdb5da>

00001084 <signature_x1_0>:
    1084:	deadbeef          	jal	t4,fffdc66e <_end+0xfffdb5de>
    1088:	deadbeef          	jal	t4,fffdc672 <_end+0xfffdb5e2>
    108c:	0000                	unimp
	...

Desensamblado de la sección .riscv.attributes:

00000000 <.riscv.attributes>:
   0:	3541                	jal	fffffe80 <_end+0xffffedf0>
   2:	0000                	unimp
   4:	7200                	.2byte	0x7200
   6:	7369                	lui	t1,0xffffa
   8:	01007663          	bgeu	zero,a6,14 <offset+0xc>
   c:	0000002b          	.4byte	0x2b
  10:	7205                	lui	tp,0xfffe1
  12:	3376                	.2byte	0x3376
  14:	6932                	.2byte	0x6932
  16:	7032                	.2byte	0x7032
  18:	5f30                	lw	a2,120(a4)
  1a:	326d                	jal	fffff9c4 <_end+0xffffe934>
  1c:	3070                	.2byte	0x3070
  1e:	635f 7032 5f30      	.byte	0x5f, 0x63, 0x32, 0x70, 0x30, 0x5f
  24:	6d7a                	.2byte	0x6d7a
  26:	756d                	lui	a0,0xffffb
  28:	316c                	.2byte	0x316c
  2a:	3070                	.2byte	0x3070
  2c:	7a5f 6966 786e      	.byte	0x5f, 0x7a, 0x66, 0x69, 0x6e, 0x78
  32:	7031                	c.lui	zero,0xfffec
  34:	0030                	add	a2,sp,8
