
/home/alejandro/Escritorio/test_riscv2.5/riscv-compliance/work/rv32i_m/C/clwsp-01.elf:     formato del fichero elf32-littleriscv


Desensamblado de la sección .text.init:

00000000 <rvtest_entry_point>:
   0:	feedc0b7          	lui	ra,0xfeedc
   4:	ead08093          	add	ra,ra,-339 # feedbead <_end+0xfeedae1d>
   8:	ff76e137          	lui	sp,0xff76e
   c:	f5610113          	add	sp,sp,-170 # ff76df56 <_end+0xff76cec6>
  10:	7fbb71b7          	lui	gp,0x7fbb7
  14:	fab18193          	add	gp,gp,-85 # 7fbb6fab <_end+0x7fbb5f1b>
  18:	bfddb237          	lui	tp,0xbfddb
  1c:	7d520213          	add	tp,tp,2005 # bfddb7d5 <_end+0xbfdda745>
  20:	00000297          	auipc	t0,0x0
  24:	0d828293          	add	t0,t0,216 # f8 <rvtest_code_begin>
  28:	00001317          	auipc	t1,0x1
  2c:	fd830313          	add	t1,t1,-40 # 1000 <rvtest_data_begin>
  30:	b7fbb3b7          	lui	t2,0xb7fbb
  34:	6fa38393          	add	t2,t2,1786 # b7fbb6fa <_end+0xb7fba66a>
  38:	5bfde437          	lui	s0,0x5bfde
  3c:	b7d40413          	add	s0,s0,-1155 # 5bfddb7d <_end+0x5bfdcaed>
  40:	adfef4b7          	lui	s1,0xadfef
  44:	dbe48493          	add	s1,s1,-578 # adfeedbe <_end+0xadfedd2e>
  48:	56ff7537          	lui	a0,0x56ff7
  4c:	6df50513          	add	a0,a0,1759 # 56ff76df <_end+0x56ff664f>
  50:	ab7fc5b7          	lui	a1,0xab7fc
  54:	b6f58593          	add	a1,a1,-1169 # ab7fbb6f <_end+0xab7faadf>
  58:	d5bfe637          	lui	a2,0xd5bfe
  5c:	db760613          	add	a2,a2,-585 # d5bfddb7 <_end+0xd5bfcd27>
  60:	eadff6b7          	lui	a3,0xeadff
  64:	edb68693          	add	a3,a3,-293 # eadfeedb <_end+0xeadfde4b>
  68:	f56ff737          	lui	a4,0xf56ff
  6c:	76d70713          	add	a4,a4,1901 # f56ff76d <_end+0xf56fe6dd>
  70:	fab807b7          	lui	a5,0xfab80
  74:	bb678793          	add	a5,a5,-1098 # fab7fbb6 <_end+0xfab7eb26>
  78:	7d5c0837          	lui	a6,0x7d5c0
  7c:	ddb80813          	add	a6,a6,-549 # 7d5bfddb <_end+0x7d5bed4b>
  80:	beae08b7          	lui	a7,0xbeae0
  84:	eed88893          	add	a7,a7,-275 # beadfeed <_end+0xbeadee5d>
  88:	df570937          	lui	s2,0xdf570
  8c:	f7690913          	add	s2,s2,-138 # df56ff76 <_end+0xdf56eee6>
  90:	6fab89b7          	lui	s3,0x6fab8
  94:	fbb98993          	add	s3,s3,-69 # 6fab7fbb <_end+0x6fab6f2b>
  98:	b7d5ca37          	lui	s4,0xb7d5c
  9c:	fdda0a13          	add	s4,s4,-35 # b7d5bfdd <_end+0xb7d5af4d>
  a0:	dbeaeab7          	lui	s5,0xdbeae
  a4:	feea8a93          	add	s5,s5,-18 # dbeadfee <_end+0xdbeacf5e>
  a8:	6df57b37          	lui	s6,0x6df57
  ac:	ff7b0b13          	add	s6,s6,-9 # 6df56ff7 <_end+0x6df55f67>
  b0:	b6fabbb7          	lui	s7,0xb6fab
  b4:	7fbb8b93          	add	s7,s7,2043 # b6fab7fb <_end+0xb6faa76b>
  b8:	db7d6c37          	lui	s8,0xdb7d6
  bc:	bfdc0c13          	add	s8,s8,-1027 # db7d5bfd <_end+0xdb7d4b6d>
  c0:	edbebcb7          	lui	s9,0xedbeb
  c4:	dfec8c93          	add	s9,s9,-514 # edbeadfe <_end+0xedbe9d6e>
  c8:	76df5d37          	lui	s10,0x76df5
  cc:	6ffd0d13          	add	s10,s10,1791 # 76df56ff <_end+0x76df466f>
  d0:	bb6fbdb7          	lui	s11,0xbb6fb
  d4:	b7fd8d93          	add	s11,s11,-1153 # bb6fab7f <_end+0xbb6f9aef>
  d8:	ddb7de37          	lui	t3,0xddb7d
  dc:	5bfe0e13          	add	t3,t3,1471 # ddb7d5bf <_end+0xddb7c52f>
  e0:	eedbfeb7          	lui	t4,0xeedbf
  e4:	adfe8e93          	add	t4,t4,-1313 # eedbeadf <_end+0xeedbda4f>
  e8:	f76dff37          	lui	t5,0xf76df
  ec:	56ff0f13          	add	t5,t5,1391 # f76df56f <_end+0xf76de4df>
  f0:	fbb70fb7          	lui	t6,0xfbb70
  f4:	ab7f8f93          	add	t6,t6,-1353 # fbb6fab7 <_end+0xfbb6ea27>

000000f8 <rvtest_code_begin>:
  f8:	00001397          	auipc	t2,0x1
  fc:	f1838393          	add	t2,t2,-232 # 1010 <data_begin>

00000100 <inst_0>:
 100:	00001117          	auipc	sp,0x1
 104:	e8010113          	add	sp,sp,-384 # f80 <compliance_halt_break+0xbdc>
 108:	490a                	lw	s2,128(sp)
 10a:	0001                	nop
 10c:	0001                	nop
 10e:	0123a023          	sw	s2,0(t2)

00000112 <inst_1>:
 112:	00001117          	auipc	sp,0x1
 116:	eee10113          	add	sp,sp,-274 # 1000 <rvtest_data_begin>
 11a:	4602                	lw	a2,0(sp)
 11c:	0001                	nop
 11e:	0001                	nop
 120:	00c3a223          	sw	a2,4(t2)

00000124 <inst_2>:
 124:	00001117          	auipc	sp,0x1
 128:	ed810113          	add	sp,sp,-296 # ffc <compliance_halt_break+0xc58>
 12c:	4112                	lw	sp,4(sp)
 12e:	0001                	nop
 130:	0001                	nop
 132:	0023a423          	sw	sp,8(t2)

00000136 <inst_3>:
 136:	00001117          	auipc	sp,0x1
 13a:	ec210113          	add	sp,sp,-318 # ff8 <compliance_halt_break+0xc54>
 13e:	49a2                	lw	s3,8(sp)
 140:	0001                	nop
 142:	0001                	nop
 144:	0133a623          	sw	s3,12(t2)

00000148 <inst_4>:
 148:	00001117          	auipc	sp,0x1
 14c:	ea810113          	add	sp,sp,-344 # ff0 <compliance_halt_break+0xc4c>
 150:	4442                	lw	s0,16(sp)
 152:	0001                	nop
 154:	0001                	nop
 156:	0083a823          	sw	s0,16(t2)

0000015a <inst_5>:
 15a:	00001117          	auipc	sp,0x1
 15e:	e8610113          	add	sp,sp,-378 # fe0 <compliance_halt_break+0xc3c>
 162:	5802                	lw	a6,32(sp)
 164:	0001                	nop
 166:	0001                	nop
 168:	0103aa23          	sw	a6,20(t2)

0000016c <inst_6>:
 16c:	00001117          	auipc	sp,0x1
 170:	e5410113          	add	sp,sp,-428 # fc0 <compliance_halt_break+0xc1c>
 174:	4686                	lw	a3,64(sp)
 176:	0001                	nop
 178:	0001                	nop
 17a:	00d3ac23          	sw	a3,24(t2)

0000017e <inst_7>:
 17e:	00001117          	auipc	sp,0x1
 182:	d8a10113          	add	sp,sp,-630 # f08 <compliance_halt_break+0xb64>
 186:	51ee                	lw	gp,248(sp)
 188:	0001                	nop
 18a:	0001                	nop
 18c:	0033ae23          	sw	gp,28(t2)

00000190 <inst_8>:
 190:	00001117          	auipc	sp,0x1
 194:	d7c10113          	add	sp,sp,-644 # f0c <compliance_halt_break+0xb68>
 198:	57de                	lw	a5,244(sp)
 19a:	0001                	nop
 19c:	0001                	nop
 19e:	02f3a023          	sw	a5,32(t2)

000001a2 <inst_9>:
 1a2:	00001117          	auipc	sp,0x1
 1a6:	d7210113          	add	sp,sp,-654 # f14 <compliance_halt_break+0xb70>
 1aa:	5ebe                	lw	t4,236(sp)
 1ac:	0001                	nop
 1ae:	0001                	nop
 1b0:	03d3a223          	sw	t4,36(t2)

000001b4 <inst_10>:
 1b4:	00001117          	auipc	sp,0x1
 1b8:	d7010113          	add	sp,sp,-656 # f24 <compliance_halt_break+0xb80>
 1bc:	4dfe                	lw	s11,220(sp)
 1be:	0001                	nop
 1c0:	0001                	nop
 1c2:	03b3a423          	sw	s11,40(t2)

000001c6 <inst_11>:
 1c6:	00001117          	auipc	sp,0x1
 1ca:	d7e10113          	add	sp,sp,-642 # f44 <compliance_halt_break+0xba0>
 1ce:	5cfa                	lw	s9,188(sp)
 1d0:	0001                	nop
 1d2:	0001                	nop
 1d4:	0393a623          	sw	s9,44(t2)

000001d8 <inst_12>:
 1d8:	00001117          	auipc	sp,0x1
 1dc:	dac10113          	add	sp,sp,-596 # f84 <compliance_halt_break+0xbe0>
 1e0:	5776                	lw	a4,124(sp)
 1e2:	0001                	nop
 1e4:	0001                	nop
 1e6:	02e3a823          	sw	a4,48(t2)

000001ea <inst_13>:
 1ea:	00001117          	auipc	sp,0x1
 1ee:	dc210113          	add	sp,sp,-574 # fac <compliance_halt_break+0xc08>
 1f2:	48d6                	lw	a7,84(sp)
 1f4:	0001                	nop
 1f6:	0001                	nop
 1f8:	0313aa23          	sw	a7,52(t2)

000001fc <inst_14>:
 1fc:	00001117          	auipc	sp,0x1
 200:	d5c10113          	add	sp,sp,-676 # f58 <compliance_halt_break+0xbb4>
 204:	54aa                	lw	s1,168(sp)
 206:	0001                	nop
 208:	0001                	nop
 20a:	0293ac23          	sw	s1,56(t2)

0000020e <inst_15>:
 20e:	00001117          	auipc	sp,0x1
 212:	df210113          	add	sp,sp,-526 # 1000 <rvtest_data_begin>
 216:	4b02                	lw	s6,0(sp)
 218:	0001                	nop
 21a:	0001                	nop
 21c:	0363ae23          	sw	s6,60(t2)

00000220 <inst_16>:
 220:	00001117          	auipc	sp,0x1
 224:	de010113          	add	sp,sp,-544 # 1000 <rvtest_data_begin>
 228:	4302                	lw	t1,0(sp)
 22a:	0001                	nop
 22c:	0001                	nop
 22e:	0463a023          	sw	t1,64(t2)

00000232 <inst_17>:
 232:	00001117          	auipc	sp,0x1
 236:	dce10113          	add	sp,sp,-562 # 1000 <rvtest_data_begin>
 23a:	4f82                	lw	t6,0(sp)
 23c:	0001                	nop
 23e:	0001                	nop
 240:	05f3a223          	sw	t6,68(t2)

00000244 <inst_18>:
 244:	00001117          	auipc	sp,0x1
 248:	dbc10113          	add	sp,sp,-580 # 1000 <rvtest_data_begin>
 24c:	4082                	lw	ra,0(sp)
 24e:	0001                	nop
 250:	0001                	nop
 252:	0413a423          	sw	ra,72(t2)

00000256 <inst_19>:
 256:	00001117          	auipc	sp,0x1
 25a:	daa10113          	add	sp,sp,-598 # 1000 <rvtest_data_begin>
 25e:	4e02                	lw	t3,0(sp)
 260:	0001                	nop
 262:	0001                	nop
 264:	05c3a623          	sw	t3,76(t2)

00000268 <inst_20>:
 268:	00001117          	auipc	sp,0x1
 26c:	d9810113          	add	sp,sp,-616 # 1000 <rvtest_data_begin>
 270:	4282                	lw	t0,0(sp)
 272:	0001                	nop
 274:	0001                	nop
 276:	0453a823          	sw	t0,80(t2)

0000027a <inst_21>:
 27a:	00001117          	auipc	sp,0x1
 27e:	d8610113          	add	sp,sp,-634 # 1000 <rvtest_data_begin>
 282:	4502                	lw	a0,0(sp)
 284:	0001                	nop
 286:	0001                	nop
 288:	04a3aa23          	sw	a0,84(t2)

0000028c <inst_22>:
 28c:	00001117          	auipc	sp,0x1
 290:	d7410113          	add	sp,sp,-652 # 1000 <rvtest_data_begin>
 294:	4d02                	lw	s10,0(sp)
 296:	0001                	nop
 298:	0001                	nop
 29a:	05a3ac23          	sw	s10,88(t2)

0000029e <inst_23>:
 29e:	00001117          	auipc	sp,0x1
 2a2:	d6210113          	add	sp,sp,-670 # 1000 <rvtest_data_begin>
 2a6:	4b82                	lw	s7,0(sp)
 2a8:	0001                	nop
 2aa:	0001                	nop
 2ac:	0573ae23          	sw	s7,92(t2)

000002b0 <inst_24>:
 2b0:	00001117          	auipc	sp,0x1
 2b4:	d5010113          	add	sp,sp,-688 # 1000 <rvtest_data_begin>
 2b8:	4202                	lw	tp,0(sp)
 2ba:	0001                	nop
 2bc:	0001                	nop
 2be:	0643a023          	sw	tp,96(t2)

000002c2 <inst_25>:
 2c2:	00001117          	auipc	sp,0x1
 2c6:	d3e10113          	add	sp,sp,-706 # 1000 <rvtest_data_begin>
 2ca:	4582                	lw	a1,0(sp)
 2cc:	0001                	nop
 2ce:	0001                	nop
 2d0:	06b3a223          	sw	a1,100(t2)

000002d4 <inst_26>:
 2d4:	00001117          	auipc	sp,0x1
 2d8:	d2c10113          	add	sp,sp,-724 # 1000 <rvtest_data_begin>
 2dc:	4f02                	lw	t5,0(sp)
 2de:	0001                	nop
 2e0:	0001                	nop
 2e2:	07e3a423          	sw	t5,104(t2)

000002e6 <inst_27>:
 2e6:	00001117          	auipc	sp,0x1
 2ea:	d1a10113          	add	sp,sp,-742 # 1000 <rvtest_data_begin>
 2ee:	4a02                	lw	s4,0(sp)
 2f0:	0001                	nop
 2f2:	0001                	nop
 2f4:	0743a623          	sw	s4,108(t2)
 2f8:	00001097          	auipc	ra,0x1
 2fc:	d8808093          	add	ra,ra,-632 # 1080 <signature_x1_0>

00000300 <inst_28>:
 300:	00001117          	auipc	sp,0x1
 304:	d0010113          	add	sp,sp,-768 # 1000 <rvtest_data_begin>
 308:	4a82                	lw	s5,0(sp)
 30a:	0001                	nop
 30c:	0001                	nop
 30e:	0150a023          	sw	s5,0(ra)

00000312 <inst_29>:
 312:	00001117          	auipc	sp,0x1
 316:	cee10113          	add	sp,sp,-786 # 1000 <rvtest_data_begin>
 31a:	4c02                	lw	s8,0(sp)
 31c:	0001                	nop
 31e:	0001                	nop
 320:	0180a223          	sw	s8,4(ra)

00000324 <inst_30>:
 324:	00001117          	auipc	sp,0x1
 328:	cdc10113          	add	sp,sp,-804 # 1000 <rvtest_data_begin>
 32c:	4382                	lw	t2,0(sp)
 32e:	0001                	nop
 330:	0001                	nop
 332:	0070a423          	sw	t2,8(ra)
 336:	00000013          	nop
 33a:	00000013          	nop
 33e:	0001                	nop

00000340 <rvtest_code_end>:
 340:	00001517          	auipc	a0,0x1
 344:	cd050513          	add	a0,a0,-816 # 1010 <data_begin>
 348:	00001597          	auipc	a1,0x1
 34c:	d4858593          	add	a1,a1,-696 # 1090 <_end>
 350:	80001637          	lui	a2,0x80001
 354:	0621                	add	a2,a2,8 # 80001008 <_end+0x7fffff78>

00000356 <compliance_halt_loop>:
 356:	04b50763          	beq	a0,a1,3a4 <compliance_halt_break>
 35a:	00450693          	add	a3,a0,4

0000035e <compliance_halt_loop2>:
 35e:	16fd                	add	a3,a3,-1
 360:	00068703          	lb	a4,0(a3)
 364:	40475793          	sra	a5,a4,0x4
 368:	8bbd                	and	a5,a5,15
 36a:	4829                	li	a6,10
 36c:	0107c463          	blt	a5,a6,374 <notLetter>
 370:	02778793          	add	a5,a5,39

00000374 <notLetter>:
 374:	03078793          	add	a5,a5,48
 378:	00f60023          	sb	a5,0(a2)
 37c:	40075793          	sra	a5,a4,0x0
 380:	8bbd                	and	a5,a5,15
 382:	4829                	li	a6,10
 384:	0107c463          	blt	a5,a6,38c <notLetter2>
 388:	02778793          	add	a5,a5,39

0000038c <notLetter2>:
 38c:	03078793          	add	a5,a5,48
 390:	00f60023          	sb	a5,0(a2)
 394:	fcd515e3          	bne	a0,a3,35e <compliance_halt_loop2>
 398:	0511                	add	a0,a0,4
 39a:	4729                	li	a4,10
 39c:	00e60023          	sb	a4,0(a2)
 3a0:	bf5d                	j	356 <compliance_halt_loop>
 3a2:	a009                	j	3a4 <compliance_halt_break>

000003a4 <compliance_halt_break>:
 3a4:	80001537          	lui	a0,0x80001
 3a8:	0525                	add	a0,a0,9 # 80001009 <_end+0x7fffff79>
 3aa:	00d50023          	sb	a3,0(a0)
	...

Desensamblado de la sección .data:

00001000 <rvtest_data_begin>:
    1000:	cafe                	sw	t6,84(sp)
    1002:	babe                	.2byte	0xbabe

00001004 <rvtest_data_end>:
	...

00001010 <data_begin>:
    1010:	deadbeef          	jal	t4,fffdc5fa <_end+0xfffdb56a>
    1014:	deadbeef          	jal	t4,fffdc5fe <_end+0xfffdb56e>
    1018:	deadbeef          	jal	t4,fffdc602 <_end+0xfffdb572>
    101c:	deadbeef          	jal	t4,fffdc606 <_end+0xfffdb576>
    1020:	deadbeef          	jal	t4,fffdc60a <_end+0xfffdb57a>
    1024:	deadbeef          	jal	t4,fffdc60e <_end+0xfffdb57e>
    1028:	deadbeef          	jal	t4,fffdc612 <_end+0xfffdb582>
    102c:	deadbeef          	jal	t4,fffdc616 <_end+0xfffdb586>
    1030:	deadbeef          	jal	t4,fffdc61a <_end+0xfffdb58a>
    1034:	deadbeef          	jal	t4,fffdc61e <_end+0xfffdb58e>
    1038:	deadbeef          	jal	t4,fffdc622 <_end+0xfffdb592>
    103c:	deadbeef          	jal	t4,fffdc626 <_end+0xfffdb596>
    1040:	deadbeef          	jal	t4,fffdc62a <_end+0xfffdb59a>
    1044:	deadbeef          	jal	t4,fffdc62e <_end+0xfffdb59e>
    1048:	deadbeef          	jal	t4,fffdc632 <_end+0xfffdb5a2>
    104c:	deadbeef          	jal	t4,fffdc636 <_end+0xfffdb5a6>
    1050:	deadbeef          	jal	t4,fffdc63a <_end+0xfffdb5aa>
    1054:	deadbeef          	jal	t4,fffdc63e <_end+0xfffdb5ae>
    1058:	deadbeef          	jal	t4,fffdc642 <_end+0xfffdb5b2>
    105c:	deadbeef          	jal	t4,fffdc646 <_end+0xfffdb5b6>
    1060:	deadbeef          	jal	t4,fffdc64a <_end+0xfffdb5ba>
    1064:	deadbeef          	jal	t4,fffdc64e <_end+0xfffdb5be>
    1068:	deadbeef          	jal	t4,fffdc652 <_end+0xfffdb5c2>
    106c:	deadbeef          	jal	t4,fffdc656 <_end+0xfffdb5c6>
    1070:	deadbeef          	jal	t4,fffdc65a <_end+0xfffdb5ca>
    1074:	deadbeef          	jal	t4,fffdc65e <_end+0xfffdb5ce>
    1078:	deadbeef          	jal	t4,fffdc662 <_end+0xfffdb5d2>
    107c:	deadbeef          	jal	t4,fffdc666 <_end+0xfffdb5d6>

00001080 <signature_x1_0>:
    1080:	deadbeef          	jal	t4,fffdc66a <_end+0xfffdb5da>
    1084:	deadbeef          	jal	t4,fffdc66e <_end+0xfffdb5de>
    1088:	deadbeef          	jal	t4,fffdc672 <_end+0xfffdb5e2>
    108c:	0000                	unimp
	...

Desensamblado de la sección .riscv.attributes:

00000000 <.riscv.attributes>:
   0:	3541                	jal	fffffe80 <_end+0xffffedf0>
   2:	0000                	unimp
   4:	7200                	.2byte	0x7200
   6:	7369                	lui	t1,0xffffa
   8:	01007663          	bgeu	zero,a6,14 <offset+0x8>
   c:	0000002b          	.4byte	0x2b
  10:	7205                	lui	tp,0xfffe1
  12:	3376                	.2byte	0x3376
  14:	6932                	.2byte	0x6932
  16:	7032                	.2byte	0x7032
  18:	5f30                	lw	a2,120(a4)
  1a:	326d                	jal	fffff9c4 <_end+0xffffe934>
  1c:	3070                	.2byte	0x3070
  1e:	635f 7032 5f30      	.byte	0x5f, 0x63, 0x32, 0x70, 0x30, 0x5f
  24:	6d7a                	.2byte	0x6d7a
  26:	756d                	lui	a0,0xffffb
  28:	316c                	.2byte	0x316c
  2a:	3070                	.2byte	0x3070
  2c:	7a5f 6966 786e      	.byte	0x5f, 0x7a, 0x66, 0x69, 0x6e, 0x78
  32:	7031                	c.lui	zero,0xfffec
  34:	0030                	add	a2,sp,8
